(imyEvolve
Individual
p0
(dp1
S'funcs'
p2
(lp3
(lp4
(imyEvolve
Tree
p5
(dp6
S'below'
p7
(imyEvolve
Tree
p8
(dp9
S'left'
p10
(imyEvolve
Tree
p11
(dp12
g7
(imyEvolve
Tree
p13
(dp14
g10
(imyEvolve
Tree
p15
(dp16
g7
(imyEvolve
Tree
p17
(dp18
S'depth'
p19
I0
sS'constant'
p20
F-2.9364946928065008
sS'isConstant'
p21
I01
sbsg19
I1
sS'single'
p22
I01
sS'op'
p23
cmath
cos
p24
sbsg19
I2
sS'right'
p25
(imyEvolve
Tree
p26
(dp27
g7
(imyEvolve
Tree
p28
(dp29
g19
I0
sg20
F-3.572471582026553
sg21
I01
sbsg19
I1
sg22
I01
sg23
g24
sbsg22
I00
sg23
coperator
mul
p30
sbsg19
I3
sg22
I01
sg23
g24
sbsg19
I4
sg25
(imyEvolve
Tree
p31
(dp32
g10
(imyEvolve
Tree
p33
(dp34
g10
(imyEvolve
Tree
p35
(dp36
g10
(imyEvolve
Tree
p37
(dp38
g19
I0
sg21
I00
sbsg19
I1
sg25
(imyEvolve
Tree
p39
(dp40
g19
I0
sg21
I00
sbsg22
I00
sg23
coperator
sub
p41
sbsg19
I2
sg25
(imyEvolve
Tree
p42
(dp43
g7
(imyEvolve
Tree
p44
(dp45
g19
I0
sg20
F2.1304730869402917
sg21
I01
sbsg19
I1
sg22
I01
sg23
cmyEvolve
square
p46
sbsg22
I00
sg23
g30
sbsg19
I3
sg25
(imyEvolve
Tree
p47
(dp48
g7
(imyEvolve
Tree
p49
(dp50
g7
(imyEvolve
Tree
p51
(dp52
g19
I0
sg21
I00
sbsg19
I1
sg22
I01
sg23
g24
sbsg19
I2
sg22
I01
sg23
cmyEvolve
absSqrt
p53
sbsg22
I00
sg23
g30
sbsg22
I00
sg23
coperator
add
p54
sbsg19
I5
sg22
I01
sg23
g24
sba(imyEvolve
Tree
p55
(dp56
g7
(imyEvolve
Tree
p57
(dp58
g10
(imyEvolve
Tree
p59
(dp60
g19
I0
sg21
I00
sbsg19
I1
sg25
(imyEvolve
Tree
p61
(dp62
g19
I0
sg21
I00
sbsg22
I00
sg23
g30
sbsg19
I2
sg22
I01
sg23
g46
sba(imyEvolve
Tree
p63
(dp64
g10
(imyEvolve
Tree
p65
(dp66
g10
(imyEvolve
Tree
p67
(dp68
g7
(imyEvolve
Tree
p69
(dp70
g7
(imyEvolve
Tree
p71
(dp72
g7
(imyEvolve
Tree
p73
(dp74
g19
I0
sg21
I00
sbsg19
I1
sg22
I01
sg23
g46
sbsg19
I2
sg22
I01
sg23
cmath
sin
p75
sbsg19
I3
sg22
I01
sg23
g75
sbsg19
I4
sg25
(imyEvolve
Tree
p76
(dp77
g10
(imyEvolve
Tree
p78
(dp79
g10
(imyEvolve
Tree
p80
(dp81
g7
(imyEvolve
Tree
p82
(dp83
g19
I0
sg20
F-2.194625601492215
sg21
I01
sbsg19
I1
sg22
I01
sg23
g53
sbsg19
I2
sg25
(imyEvolve
Tree
p84
(dp85
g7
(imyEvolve
Tree
p86
(dp87
g19
I0
sg21
I00
sbsg19
I1
sg22
I01
sg23
g53
sbsg22
I00
sg23
g30
sbsg19
I3
sg25
(imyEvolve
Tree
p88
(dp89
g7
(imyEvolve
Tree
p90
(dp91
g10
(imyEvolve
Tree
p92
(dp93
g19
I0
sg20
F-3.0780543946744086
sg21
I01
sbsg19
I1
sg25
(imyEvolve
Tree
p94
(dp95
g19
I0
sg20
F-0.23402464932056333
sg21
I01
sbsg22
I00
sg23
g30
sbsg19
I2
sg22
I01
sg23
g75
sbsg22
I00
sg23
g41
sbsg22
I00
sg23
g54
sbsg19
I5
sg25
(imyEvolve
Tree
p96
(dp97
g7
(imyEvolve
Tree
p98
(dp99
g7
(imyEvolve
Tree
p100
(dp101
g7
(imyEvolve
Tree
p102
(dp103
g7
(imyEvolve
Tree
p104
(dp105
g19
I0
sg21
I00
sbsg19
I1
sg22
I01
sg23
g53
sbsg19
I2
sg22
I01
sg23
g46
sbsg19
I3
sg22
I01
sg23
g24
sbsg19
I4
sg22
I01
sg23
g75
sbsg22
I00
sg23
g30
sba(imyEvolve
Tree
p106
(dp107
g19
I3
sg10
(imyEvolve
Tree
p108
(dp109
g19
I2
sg10
(imyEvolve
Tree
p110
(dp111
g19
I1
sg10
(imyEvolve
Tree
p112
(dp113
g19
I0
sg21
I00
sbsg25
(imyEvolve
Tree
p114
(dp115
g19
I0
sg21
I00
sbsg22
I00
sg23
g54
sbsg25
(imyEvolve
Tree
p116
(dp117
g19
I1
sg10
(imyEvolve
Tree
p118
(dp119
g19
I0
sg20
F-3.333908840180152
sg21
I01
sbsg25
(imyEvolve
Tree
p120
(dp121
g19
I0
sg20
F-2.141751286165563
sg21
I01
sbsg22
I00
sg23
g54
sbsg22
I00
sg23
g30
sbsg25
(imyEvolve
Tree
p122
(dp123
g7
(imyEvolve
Tree
p124
(dp125
g7
(imyEvolve
Tree
p126
(dp127
g19
I0
sg21
I00
sbsg19
I1
sg22
I01
sg23
g46
sbsg19
I2
sg22
I01
sg23
g24
sbsg22
I00
sg23
g41
sba(imyEvolve
Tree
p128
(dp129
g7
(imyEvolve
Tree
p130
(dp131
g7
(imyEvolve
Tree
p132
(dp133
g10
(imyEvolve
Tree
p134
(dp135
g7
(imyEvolve
Tree
p136
(dp137
g7
(imyEvolve
Tree
p138
(dp139
g19
I0
sg20
F-3.5605797211046495
sg21
I01
sbsg19
I1
sg22
I01
sg23
g46
sbsg19
I2
sg22
I01
sg23
g53
sbsg19
I3
sg25
(imyEvolve
Tree
p140
(dp141
g7
(imyEvolve
Tree
p142
(dp143
g7
(imyEvolve
Tree
p144
(dp145
g19
I0
sg21
I00
sbsg19
I1
sg22
I01
sg23
g53
sbsg19
I2
sg22
I01
sg23
g75
sbsg22
I00
sg23
g41
sbsg19
I4
sg22
I01
sg23
g24
sbsg19
I5
sg22
I01
sg23
g24
sba(imyEvolve
Tree
p146
(dp147
g7
(imyEvolve
Tree
p148
(dp149
g19
I2
sg10
(imyEvolve
Tree
p150
(dp151
g19
I1
sg10
(imyEvolve
Tree
p152
(dp153
g19
I0
sg21
I00
sbsg25
(imyEvolve
Tree
p154
(dp155
g19
I0
sg20
F4.43122813259537
sg21
I01
sbsg22
I00
sg23
g41
sbsg25
(imyEvolve
Tree
p156
(dp157
g7
(imyEvolve
Tree
p158
(dp159
g19
I0
sg20
F1.4550429542868581
sg21
I01
sbsg19
I1
sg22
I01
sg23
g46
sbsg22
I00
sg23
g30
sbsg19
I3
sg22
I01
sg23
g75
sba(imyEvolve
Tree
p160
(dp161
g10
(imyEvolve
Tree
p162
(dp163
g7
(imyEvolve
Tree
p164
(dp165
g10
(imyEvolve
Tree
p166
(dp167
g7
(imyEvolve
Tree
p168
(dp169
g19
I0
sg21
I00
sbsg19
I1
sg22
I01
sg23
g53
sbsg19
I2
sg25
(imyEvolve
Tree
p170
(dp171
g10
(imyEvolve
Tree
p172
(dp173
g19
I0
sg20
F-1.4711310797438673
sg21
I01
sbsg19
I1
sg25
(imyEvolve
Tree
p174
(dp175
g19
I0
sg21
I00
sbsg22
I00
sg23
g41
sbsg22
I00
sg23
g41
sbsg19
I3
sg22
I01
sg23
g75
sbsg19
I4
sg25
(imyEvolve
Tree
p176
(dp177
g7
(imyEvolve
Tree
p178
(dp179
g7
(imyEvolve
Tree
p180
(dp181
g7
(imyEvolve
Tree
p182
(dp183
g19
I0
sg20
F4.093173283460931
sg21
I01
sbsg19
I1
sg22
I01
sg23
g53
sbsg19
I2
sg22
I01
sg23
g46
sbsg19
I3
sg22
I01
sg23
g24
sbsg22
I00
sg23
g30
sba(imyEvolve
Tree
p184
(dp185
g7
(imyEvolve
Tree
p186
(dp187
g19
I4
sg10
(imyEvolve
Tree
p188
(dp189
g7
(imyEvolve
Tree
p190
(dp191
g19
I2
sg10
(imyEvolve
Tree
p192
(dp193
g19
I1
sg10
(imyEvolve
Tree
p194
(dp195
g19
I0
sg20
F-2.112950968516908
sg21
I01
sbsg25
(imyEvolve
Tree
p196
(dp197
g19
I0
sg20
F-2.402572158144406
sg21
I01
sbsg22
I00
sg23
g30
sbsg25
(imyEvolve
Tree
p198
(dp199
g7
(imyEvolve
Tree
p200
(dp201
g19
I0
sg21
I00
sbsg19
I1
sg22
I01
sg23
g24
sbsg22
I00
sg23
g30
sbsg19
I3
sg22
I01
sg23
g46
sbsg25
(imyEvolve
Tree
p202
(dp203
g7
(imyEvolve
Tree
p204
(dp205
g7
(imyEvolve
Tree
p206
(dp207
g7
(imyEvolve
Tree
p208
(dp209
g19
I0
sg20
F1.2133883233455025
sg21
I01
sbsg19
I1
sg22
I01
sg23
g46
sbsg19
I2
sg22
I01
sg23
g75
sbsg19
I3
sg22
I01
sg23
g75
sbsg22
I00
sg23
g30
sbsg19
I5
sg22
I01
sg23
g53
sba(imyEvolve
Tree
p210
(dp211
g19
I3
sg10
(imyEvolve
Tree
p212
(dp213
g7
(imyEvolve
Tree
p214
(dp215
g7
(imyEvolve
Tree
p216
(dp217
g19
I0
sg20
F-3.0493511268545417
sg21
I01
sbsg19
I1
sg22
I01
sg23
g24
sbsg19
I2
sg22
I01
sg23
g46
sbsg25
(imyEvolve
Tree
p218
(dp219
g19
I2
sg10
(imyEvolve
Tree
p220
(dp221
g7
(imyEvolve
Tree
p222
(dp223
g19
I0
sg21
I00
sbsg19
I1
sg22
I01
sg23
g24
sbsg25
(imyEvolve
Tree
p224
(dp225
g19
I1
sg10
(imyEvolve
Tree
p226
(dp227
g19
I0
sg20
F-1.7895810576135593
sg21
I01
sbsg25
(imyEvolve
Tree
p228
(dp229
g19
I0
sg21
I00
sbsg22
I00
sg23
g54
sbsg22
I00
sg23
g30
sbsg22
I00
sg23
g41
sba(imyEvolve
Tree
p230
(dp231
g19
I5
sg10
(imyEvolve
Tree
p232
(dp233
g7
(imyEvolve
Tree
p234
(dp235
g7
(imyEvolve
Tree
p236
(dp237
g7
(imyEvolve
Tree
p238
(dp239
g19
I1
sg10
(imyEvolve
Tree
p240
(dp241
g19
I0
sg20
F0.19499490624994564
sg21
I01
sbsg25
(imyEvolve
Tree
p242
(dp243
g19
I0
sg20
F-4.683334231459328
sg21
I01
sbsg22
I00
sg23
g30
sbsg19
I2
sg22
I01
sg23
g24
sbsg19
I3
sg22
I01
sg23
g46
sbsg19
I4
sg22
I01
sg23
g75
sbsg25
(imyEvolve
Tree
p244
(dp245
g7
(imyEvolve
Tree
p246
(dp247
g19
I3
sg10
(imyEvolve
Tree
p248
(dp249
g19
I2
sg10
(imyEvolve
Tree
p250
(dp251
g19
I1
sg10
(imyEvolve
Tree
p252
(dp253
g19
I0
sg21
I00
sbsg25
(imyEvolve
Tree
p254
(dp255
g19
I0
sg21
I00
sbsg22
I00
sg23
g30
sbsg25
(imyEvolve
Tree
p256
(dp257
g7
(imyEvolve
Tree
p258
(dp259
g19
I0
sg20
F2.922786176356979
sg21
I01
sbsg19
I1
sg22
I01
sg23
g75
sbsg22
I00
sg23
g54
sbsg25
(imyEvolve
Tree
p260
(dp261
g19
I2
sg10
(imyEvolve
Tree
p262
(dp263
g7
(imyEvolve
Tree
p264
(dp265
g19
I0
sg20
F0.21925799906937637
sg21
I01
sbsg19
I1
sg22
I01
sg23
g46
sbsg25
(imyEvolve
Tree
p266
(dp267
g7
(imyEvolve
Tree
p268
(dp269
g19
I0
sg21
I00
sbsg19
I1
sg22
I01
sg23
g75
sbsg22
I00
sg23
g41
sbsg22
I00
sg23
g41
sbsg19
I4
sg22
I01
sg23
g53
sbsg22
I00
sg23
g54
sba(imyEvolve
Tree
p270
(dp271
g7
(imyEvolve
Tree
p272
(dp273
g7
(imyEvolve
Tree
p274
(dp275
g19
I2
sg10
(imyEvolve
Tree
p276
(dp277
g7
(imyEvolve
Tree
p278
(dp279
g19
I0
sg21
I00
sbsg19
I1
sg22
I01
sg23
g24
sbsg25
(imyEvolve
Tree
p280
(dp281
g7
(imyEvolve
Tree
p282
(dp283
g19
I0
sg21
I00
sbsg19
I1
sg22
I01
sg23
g75
sbsg22
I00
sg23
g30
sbsg19
I3
sg22
I01
sg23
g75
sbsg19
I4
sg22
I01
sg23
g24
sba(imyEvolve
Tree
p284
(dp285
g7
(imyEvolve
Tree
p286
(dp287
g10
(imyEvolve
Tree
p288
(dp289
g7
(imyEvolve
Tree
p290
(dp291
g7
(imyEvolve
Tree
p292
(dp293
g19
I0
sg20
F2.0741948645207398
sg21
I01
sbsg19
I1
sg22
I01
sg23
g46
sbsg19
I2
sg22
I01
sg23
g53
sbsg19
I3
sg25
(imyEvolve
Tree
p294
(dp295
g10
(imyEvolve
Tree
p296
(dp297
g10
(imyEvolve
Tree
p298
(dp299
g19
I0
sg21
I00
sbsg19
I1
sg25
(imyEvolve
Tree
p300
(dp301
g19
I0
sg20
F1.6146527970256024
sg21
I01
sbsg22
I00
sg23
g54
sbsg19
I2
sg25
(imyEvolve
Tree
p302
(dp303
g7
(imyEvolve
Tree
p304
(dp305
g19
I0
sg21
I00
sbsg19
I1
sg22
I01
sg23
g24
sbsg22
I00
sg23
g54
sbsg22
I00
sg23
g30
sbsg19
I4
sg22
I01
sg23
g75
sba(imyEvolve
Tree
p306
(dp307
g7
(imyEvolve
Tree
p308
(dp309
g7
(imyEvolve
Tree
p310
(dp311
g19
I0
sg20
F3.194390632773045
sg21
I01
sbsg19
I1
sg22
I01
sg23
g24
sbsg19
I2
sg22
I01
sg23
g75
sba(imyEvolve
Tree
p312
(dp313
g19
I2
sg10
(imyEvolve
Tree
p314
(dp315
g19
I1
sg10
(imyEvolve
Tree
p316
(dp317
g19
I0
sg21
I00
sbsg25
(imyEvolve
Tree
p318
(dp319
g19
I0
sg21
I00
sbsg22
I00
sg23
g30
sbsg25
(imyEvolve
Tree
p320
(dp321
g19
I1
sg10
(imyEvolve
Tree
p322
(dp323
g19
I0
sg20
F-0.11340560978553071
sg21
I01
sbsg25
(imyEvolve
Tree
p324
(dp325
g19
I0
sg20
F2.2466111504780804
sg21
I01
sbsg22
I00
sg23
g41
sbsg22
I00
sg23
g41
sba(imyEvolve
Tree
p326
(dp327
g19
I3
sg10
(imyEvolve
Tree
p328
(dp329
g19
I2
sg10
(imyEvolve
Tree
p330
(dp331
g19
I1
sg10
(imyEvolve
Tree
p332
(dp333
g19
I0
sg20
F-2.5296111116246536
sg21
I01
sbsg25
(imyEvolve
Tree
p334
(dp335
g19
I0
sg20
F3.856454280987929
sg21
I01
sbsg22
I00
sg23
g30
sbsg25
(imyEvolve
Tree
p336
(dp337
g19
I1
sg10
(imyEvolve
Tree
p338
(dp339
g19
I0
sg20
F-2.0937177634643254
sg21
I01
sbsg25
(imyEvolve
Tree
p340
(dp341
g19
I0
sg21
I00
sbsg22
I00
sg23
g30
sbsg22
I00
sg23
g54
sbsg25
(imyEvolve
Tree
p342
(dp343
g19
I2
sg10
(imyEvolve
Tree
p344
(dp345
g19
I1
sg10
(imyEvolve
Tree
p346
(dp347
g19
I0
sg20
F2.6217901713358396
sg21
I01
sbsg25
(imyEvolve
Tree
p348
(dp349
g19
I0
sg20
F-2.441711411149494
sg21
I01
sbsg22
I00
sg23
g30
sbsg25
(imyEvolve
Tree
p350
(dp351
g19
I1
sg10
(imyEvolve
Tree
p352
(dp353
g19
I0
sg21
I00
sbsg25
(imyEvolve
Tree
p354
(dp355
g19
I0
sg20
F-4.210846743142716
sg21
I01
sbsg22
I00
sg23
g54
sbsg22
I00
sg23
g30
sbsg22
I00
sg23
g30
sba(imyEvolve
Tree
p356
(dp357
g7
(imyEvolve
Tree
p358
(dp359
g7
(imyEvolve
Tree
p360
(dp361
g19
I2
sg10
(imyEvolve
Tree
p362
(dp363
g19
I1
sg10
(imyEvolve
Tree
p364
(dp365
g19
I0
sg20
F-4.650965023022465
sg21
I01
sbsg25
(imyEvolve
Tree
p366
(dp367
g19
I0
sg21
I00
sbsg22
I00
sg23
g54
sbsg25
(imyEvolve
Tree
p368
(dp369
g7
(imyEvolve
Tree
p370
(dp371
g19
I0
sg20
F3.1707783448721845
sg21
I01
sbsg19
I1
sg22
I01
sg23
g24
sbsg22
I00
sg23
g30
sbsg19
I3
sg22
I01
sg23
g75
sbsg19
I4
sg22
I01
sg23
g46
sba(imyEvolve
Tree
p372
(dp373
g10
(imyEvolve
Tree
p374
(dp375
g7
(imyEvolve
Tree
p376
(dp377
g19
I0
sg21
I00
sbsg19
I1
sg22
I01
sg23
g53
sbsg19
I2
sg25
(imyEvolve
Tree
p378
(dp379
g7
(imyEvolve
Tree
p380
(dp381
g19
I0
sg21
I00
sbsg19
I1
sg22
I01
sg23
g24
sbsg22
I00
sg23
g54
sba(imyEvolve
Tree
p382
(dp383
g7
(imyEvolve
Tree
p384
(dp385
g7
(imyEvolve
Tree
p386
(dp387
g19
I0
sg20
F-4.790618614740372
sg21
I01
sbsg19
I1
sg22
I01
sg23
g24
sbsg19
I2
sg22
I01
sg23
g75
sbaa(lp388
(imyEvolve
Tree
p389
(dp390
g7
(imyEvolve
Tree
p391
(dp392
g10
(imyEvolve
Tree
p393
(dp394
g7
(imyEvolve
Tree
p395
(dp396
g19
I0
sg21
I00
sbsg19
I1
sg22
I01
sg23
g53
sbsg19
I2
sg25
(imyEvolve
Tree
p397
(dp398
g7
(imyEvolve
Tree
p399
(dp400
g19
I0
sg21
I00
sbsg19
I1
sg22
I01
sg23
g75
sbsg22
I00
sg23
g41
sbsg19
I3
sg22
I01
sg23
g53
sba(imyEvolve
Tree
p401
(dp402
g10
(imyEvolve
Tree
p403
(dp404
g10
(imyEvolve
Tree
p405
(dp406
g19
I0
sg21
I00
sbsg19
I1
sg25
(imyEvolve
Tree
p407
(dp408
g19
I0
sg20
F2.094479066317895
sg21
I01
sbsg22
I00
sg23
g54
sbsg19
I2
sg25
(imyEvolve
Tree
p409
(dp410
g10
(imyEvolve
Tree
p411
(dp412
g19
I0
sg20
F-2.436449475619007
sg21
I01
sbsg19
I1
sg25
(imyEvolve
Tree
p413
(dp414
g19
I0
sg21
I00
sbsg22
I00
sg23
g54
sbsg22
I00
sg23
g30
sba(imyEvolve
Tree
p415
(dp416
g10
(imyEvolve
Tree
p417
(dp418
g7
(imyEvolve
Tree
p419
(dp420
g10
(imyEvolve
Tree
p421
(dp422
g10
(imyEvolve
Tree
p423
(dp424
g19
I0
sg20
F3.1394676834238346
sg21
I01
sbsg19
I1
sg25
(imyEvolve
Tree
p425
(dp426
g19
I0
sg21
I00
sbsg22
I00
sg23
g30
sbsg19
I2
sg25
(imyEvolve
Tree
p427
(dp428
g7
(imyEvolve
Tree
p429
(dp430
g19
I0
sg21
I00
sbsg19
I1
sg22
I01
sg23
g75
sbsg22
I00
sg23
g41
sbsg19
I3
sg22
I01
sg23
g46
sbsg19
I4
sg25
(imyEvolve
Tree
p431
(dp432
g7
(imyEvolve
Tree
p433
(dp434
g7
(imyEvolve
Tree
p435
(dp436
g7
(imyEvolve
Tree
p437
(dp438
g19
I0
sg20
F3.7594321066930085
sg21
I01
sbsg19
I1
sg22
I01
sg23
g75
sbsg19
I2
sg22
I01
sg23
g75
sbsg19
I3
sg22
I01
sg23
g46
sbsg22
I00
sg23
g41
sba(imyEvolve
Tree
p439
(dp440
g10
(imyEvolve
Tree
p441
(dp442
g10
(imyEvolve
Tree
p443
(dp444
g10
(imyEvolve
Tree
p445
(dp446
g19
I0
sg21
I00
sbsg19
I1
sg25
(imyEvolve
Tree
p447
(dp448
g19
I0
sg21
I00
sbsg22
I00
sg23
g41
sbsg19
I2
sg25
(imyEvolve
Tree
p449
(dp450
g10
(imyEvolve
Tree
p451
(dp452
g19
I0
sg20
F-1.1848850667596675
sg21
I01
sbsg19
I1
sg25
(imyEvolve
Tree
p453
(dp454
g19
I0
sg21
I00
sbsg22
I00
sg23
g54
sbsg22
I00
sg23
g30
sbsg19
I3
sg25
(imyEvolve
Tree
p455
(dp456
g10
(imyEvolve
Tree
p457
(dp458
g7
(imyEvolve
Tree
p459
(dp460
g19
I0
sg21
I00
sbsg19
I1
sg22
I01
sg23
g75
sbsg19
I2
sg25
(imyEvolve
Tree
p461
(dp462
g7
(imyEvolve
Tree
p463
(dp464
g19
I0
sg21
I00
sbsg19
I1
sg22
I01
sg23
g75
sbsg22
I00
sg23
g41
sbsg22
I00
sg23
g54
sba(imyEvolve
Tree
p465
(dp466
g10
(imyEvolve
Tree
p467
(dp468
g7
(imyEvolve
Tree
p469
(dp470
g7
(imyEvolve
Tree
p471
(dp472
g19
I0
sg21
I00
sbsg19
I1
sg22
I01
sg23
g46
sbsg19
I2
sg22
I01
sg23
g53
sbsg19
I3
sg25
(imyEvolve
Tree
p473
(dp474
g10
(imyEvolve
Tree
p475
(dp476
g7
(imyEvolve
Tree
p477
(dp478
g19
I0
sg21
I00
sbsg19
I1
sg22
I01
sg23
g53
sbsg19
I2
sg25
(imyEvolve
Tree
p479
(dp480
g10
(imyEvolve
Tree
p481
(dp482
g19
I0
sg21
I00
sbsg19
I1
sg25
(imyEvolve
Tree
p483
(dp484
g19
I0
sg20
F-1.1608927083942042
sg21
I01
sbsg22
I00
sg23
g41
sbsg22
I00
sg23
g41
sbsg22
I00
sg23
g30
sba(imyEvolve
Tree
p485
(dp486
g7
(imyEvolve
Tree
p487
(dp488
g10
(imyEvolve
Tree
p489
(dp490
g10
(imyEvolve
Tree
p491
(dp492
g7
(imyEvolve
Tree
p493
(dp494
g7
(imyEvolve
Tree
p495
(dp496
g19
I0
sg20
F-0.21640550541881964
sg21
I01
sbsg19
I1
sg22
I01
sg23
g24
sbsg19
I2
sg22
I01
sg23
g53
sbsg19
I3
sg25
(imyEvolve
Tree
p497
(dp498
g7
(imyEvolve
Tree
p499
(dp500
g7
(imyEvolve
Tree
p501
(dp502
g19
I0
sg20
F4.189804943670252
sg21
I01
sbsg19
I1
sg22
I01
sg23
g53
sbsg19
I2
sg22
I01
sg23
g24
sbsg22
I00
sg23
g54
sbsg19
I4
sg25
(imyEvolve
Tree
p503
(dp504
g7
(imyEvolve
Tree
p505
(dp506
g10
(imyEvolve
Tree
p507
(dp508
g10
(imyEvolve
Tree
p509
(dp510
g19
I0
sg20
F-0.42110337692014443
sg21
I01
sbsg19
I1
sg25
(imyEvolve
Tree
p511
(dp512
g19
I0
sg21
I00
sbsg22
I00
sg23
g30
sbsg19
I2
sg25
(imyEvolve
Tree
p513
(dp514
g10
(imyEvolve
Tree
p515
(dp516
g19
I0
sg20
F2.174813463627099
sg21
I01
sbsg19
I1
sg25
(imyEvolve
Tree
p517
(dp518
g19
I0
sg21
I00
sbsg22
I00
sg23
g54
sbsg22
I00
sg23
g54
sbsg19
I3
sg22
I01
sg23
g46
sbsg22
I00
sg23
g30
sbsg19
I5
sg22
I01
sg23
g53
sba(imyEvolve
Tree
p519
(dp520
g7
(imyEvolve
Tree
p521
(dp522
g10
(imyEvolve
Tree
p523
(dp524
g10
(imyEvolve
Tree
p525
(dp526
g10
(imyEvolve
Tree
p527
(dp528
g19
I0
sg20
F-3.708706885759232
sg21
I01
sbsg19
I1
sg25
(imyEvolve
Tree
p529
(dp530
g19
I0
sg21
I00
sbsg22
I00
sg23
g54
sbsg19
I2
sg25
(imyEvolve
Tree
p531
(dp532
g10
(imyEvolve
Tree
p533
(dp534
g19
I0
sg21
I00
sbsg19
I1
sg25
(imyEvolve
Tree
p535
(dp536
g19
I0
sg21
I00
sbsg22
I00
sg23
g54
sbsg22
I00
sg23
g30
sbsg19
I3
sg25
(imyEvolve
Tree
p537
(dp538
g7
(imyEvolve
Tree
p539
(dp540
g7
(imyEvolve
Tree
p541
(dp542
g19
I0
sg20
F2.741288991206935
sg21
I01
sbsg19
I1
sg22
I01
sg23
g75
sbsg19
I2
sg22
I01
sg23
g24
sbsg22
I00
sg23
g30
sbsg19
I4
sg22
I01
sg23
g46
sba(imyEvolve
Tree
p543
(dp544
g19
I4
sg10
(imyEvolve
Tree
p545
(dp546
g7
(imyEvolve
Tree
p547
(dp548
g7
(imyEvolve
Tree
p549
(dp550
g19
I1
sg10
(imyEvolve
Tree
p551
(dp552
g19
I0
sg21
I00
sbsg25
(imyEvolve
Tree
p553
(dp554
g19
I0
sg20
F-0.5122487078776841
sg21
I01
sbsg22
I00
sg23
g41
sbsg19
I2
sg22
I01
sg23
g75
sbsg19
I3
sg22
I01
sg23
g46
sbsg25
(imyEvolve
Tree
p555
(dp556
g7
(imyEvolve
Tree
p557
(dp558
g19
I2
sg10
(imyEvolve
Tree
p559
(dp560
g7
(imyEvolve
Tree
p561
(dp562
g19
I0
sg21
I00
sbsg19
I1
sg22
I01
sg23
g46
sbsg25
(imyEvolve
Tree
p563
(dp564
g7
(imyEvolve
Tree
p565
(dp566
g19
I0
sg20
F3.103254230877152
sg21
I01
sbsg19
I1
sg22
I01
sg23
g24
sbsg22
I00
sg23
g30
sbsg19
I3
sg22
I01
sg23
g46
sbsg22
I00
sg23
g54
sba(imyEvolve
Tree
p567
(dp568
g10
(imyEvolve
Tree
p569
(dp570
g7
(imyEvolve
Tree
p571
(dp572
g10
(imyEvolve
Tree
p573
(dp574
g10
(imyEvolve
Tree
p575
(dp576
g19
I0
sg20
F1.8350864855726314
sg21
I01
sbsg19
I1
sg25
(imyEvolve
Tree
p577
(dp578
g19
I0
sg20
F-3.0034564982267264
sg21
I01
sbsg22
I00
sg23
g54
sbsg19
I2
sg25
(imyEvolve
Tree
p579
(dp580
g10
(imyEvolve
Tree
p581
(dp582
g19
I0
sg20
F-0.46726028503963946
sg21
I01
sbsg19
I1
sg25
(imyEvolve
Tree
p583
(dp584
g19
I0
sg20
F-1.3072025904848958
sg21
I01
sbsg22
I00
sg23
g30
sbsg22
I00
sg23
g30
sbsg19
I3
sg22
I01
sg23
g53
sbsg19
I4
sg25
(imyEvolve
Tree
p585
(dp586
g10
(imyEvolve
Tree
p587
(dp588
g10
(imyEvolve
Tree
p589
(dp590
g7
(imyEvolve
Tree
p591
(dp592
g19
I0
sg20
F-3.047439035591247
sg21
I01
sbsg19
I1
sg22
I01
sg23
g75
sbsg19
I2
sg25
(imyEvolve
Tree
p593
(dp594
g7
(imyEvolve
Tree
p595
(dp596
g19
I0
sg20
F-4.147117588052968
sg21
I01
sbsg19
I1
sg22
I01
sg23
g24
sbsg22
I00
sg23
g54
sbsg19
I3
sg25
(imyEvolve
Tree
p597
(dp598
g10
(imyEvolve
Tree
p599
(dp600
g10
(imyEvolve
Tree
p601
(dp602
g19
I0
sg20
F-2.2769031731218723
sg21
I01
sbsg19
I1
sg25
(imyEvolve
Tree
p603
(dp604
g19
I0
sg21
I00
sbsg22
I00
sg23
g41
sbsg19
I2
sg25
(imyEvolve
Tree
p605
(dp606
g7
(imyEvolve
Tree
p607
(dp608
g19
I0
sg21
I00
sbsg19
I1
sg22
I01
sg23
g46
sbsg22
I00
sg23
g41
sbsg22
I00
sg23
g54
sbsg22
I00
sg23
g30
sba(imyEvolve
Tree
p609
(dp610
g19
I5
sg10
(imyEvolve
Tree
p611
(dp612
g19
I4
sg10
(imyEvolve
Tree
p613
(dp614
g7
(imyEvolve
Tree
p615
(dp616
g19
I2
sg10
(imyEvolve
Tree
p617
(dp618
g7
(imyEvolve
Tree
p619
(dp620
g19
I0
sg20
F-4.211563319900035
sg21
I01
sbsg19
I1
sg22
I01
sg23
g53
sbsg25
(imyEvolve
Tree
p621
(dp622
g19
I1
sg10
(imyEvolve
Tree
p623
(dp624
g19
I0
sg20
F3.5342949596171245
sg21
I01
sbsg25
(imyEvolve
Tree
p625
(dp626
g19
I0
sg20
F-4.314903458628512
sg21
I01
sbsg22
I00
sg23
g54
sbsg22
I00
sg23
g54
sbsg19
I3
sg22
I01
sg23
g24
sbsg25
(imyEvolve
Tree
p627
(dp628
g19
I3
sg10
(imyEvolve
Tree
p629
(dp630
g19
I2
sg10
(imyEvolve
Tree
p631
(dp632
g19
I1
sg10
(imyEvolve
Tree
p633
(dp634
g19
I0
sg20
F-4.652691157765832
sg21
I01
sbsg25
(imyEvolve
Tree
p635
(dp636
g19
I0
sg21
I00
sbsg22
I00
sg23
g30
sbsg25
(imyEvolve
Tree
p637
(dp638
g7
(imyEvolve
Tree
p639
(dp640
g19
I0
sg20
F1.049887316128661
sg21
I01
sbsg19
I1
sg22
I01
sg23
g46
sbsg22
I00
sg23
g54
sbsg25
(imyEvolve
Tree
p641
(dp642
g19
I2
sg10
(imyEvolve
Tree
p643
(dp644
g19
I1
sg10
(imyEvolve
Tree
p645
(dp646
g19
I0
sg20
F0.049133669299688876
sg21
I01
sbsg25
(imyEvolve
Tree
p647
(dp648
g19
I0
sg20
F-1.341980405854489
sg21
I01
sbsg22
I00
sg23
g41
sbsg25
(imyEvolve
Tree
p649
(dp650
g7
(imyEvolve
Tree
p651
(dp652
g19
I0
sg21
I00
sbsg19
I1
sg22
I01
sg23
g75
sbsg22
I00
sg23
g41
sbsg22
I00
sg23
g54
sbsg22
I00
sg23
g54
sbsg25
(imyEvolve
Tree
p653
(dp654
g7
(imyEvolve
Tree
p655
(dp656
g19
I3
sg10
(imyEvolve
Tree
p657
(dp658
g19
I2
sg10
(imyEvolve
Tree
p659
(dp660
g19
I1
sg10
(imyEvolve
Tree
p661
(dp662
g19
I0
sg21
I00
sbsg25
(imyEvolve
Tree
p663
(dp664
g19
I0
sg20
F4.339384628627393
sg21
I01
sbsg22
I00
sg23
g30
sbsg25
(imyEvolve
Tree
p665
(dp666
g19
I1
sg10
(imyEvolve
Tree
p667
(dp668
g19
I0
sg21
I00
sbsg25
(imyEvolve
Tree
p669
(dp670
g19
I0
sg21
I00
sbsg22
I00
sg23
g30
sbsg22
I00
sg23
g54
sbsg25
(imyEvolve
Tree
p671
(dp672
g19
I2
sg10
(imyEvolve
Tree
p673
(dp674
g7
(imyEvolve
Tree
p675
(dp676
g19
I0
sg21
I00
sbsg19
I1
sg22
I01
sg23
g24
sbsg25
(imyEvolve
Tree
p677
(dp678
g19
I1
sg10
(imyEvolve
Tree
p679
(dp680
g19
I0
sg21
I00
sbsg25
(imyEvolve
Tree
p681
(dp682
g19
I0
sg20
F0.4596745236995723
sg21
I01
sbsg22
I00
sg23
g54
sbsg22
I00
sg23
g41
sbsg22
I00
sg23
g54
sbsg19
I4
sg22
I01
sg23
g53
sbsg22
I00
sg23
g41
sba(imyEvolve
Tree
p683
(dp684
g19
I3
sg10
(imyEvolve
Tree
p685
(dp686
g19
I2
sg10
(imyEvolve
Tree
p687
(dp688
g19
I1
sg10
(imyEvolve
Tree
p689
(dp690
g19
I0
sg21
I00
sbsg25
(imyEvolve
Tree
p691
(dp692
g19
I0
sg20
F2.4997598591965193
sg21
I01
sbsg22
I00
sg23
g30
sbsg25
(imyEvolve
Tree
p693
(dp694
g7
(imyEvolve
Tree
p695
(dp696
g19
I0
sg20
F1.9426537178466852
sg21
I01
sbsg19
I1
sg22
I01
sg23
g24
sbsg22
I00
sg23
g30
sbsg25
(imyEvolve
Tree
p697
(dp698
g19
I2
sg10
(imyEvolve
Tree
p699
(dp700
g19
I1
sg10
(imyEvolve
Tree
p701
(dp702
g19
I0
sg20
F-4.456507016248116
sg21
I01
sbsg25
(imyEvolve
Tree
p703
(dp704
g19
I0
sg21
I00
sbsg22
I00
sg23
g30
sbsg25
(imyEvolve
Tree
p705
(dp706
g7
(imyEvolve
Tree
p707
(dp708
g19
I0
sg20
F-3.2265355995803766
sg21
I01
sbsg19
I1
sg22
I01
sg23
g75
sbsg22
I00
sg23
g41
sbsg22
I00
sg23
g54
sba(imyEvolve
Tree
p709
(dp710
g7
(imyEvolve
Tree
p711
(dp712
g7
(imyEvolve
Tree
p713
(dp714
g7
(imyEvolve
Tree
p715
(dp716
g7
(imyEvolve
Tree
p717
(dp718
g19
I0
sg20
F-2.3807552443199063
sg21
I01
sbsg19
I1
sg22
I01
sg23
g53
sbsg19
I2
sg22
I01
sg23
g75
sbsg19
I3
sg22
I01
sg23
g24
sbsg19
I4
sg22
I01
sg23
g75
sba(imyEvolve
Tree
p719
(dp720
g7
(imyEvolve
Tree
p721
(dp722
g7
(imyEvolve
Tree
p723
(dp724
g19
I0
sg20
F-0.6539168139617226
sg21
I01
sbsg19
I1
sg22
I01
sg23
g53
sbsg19
I2
sg22
I01
sg23
g24
sbaa(lp725
(imyEvolve
Tree
p726
(dp727
g10
(imyEvolve
Tree
p728
(dp729
g7
(imyEvolve
Tree
p730
(dp731
g7
(imyEvolve
Tree
p732
(dp733
g10
(imyEvolve
Tree
p734
(dp735
g19
I0
sg20
F-3.146289141146129
sg21
I01
sbsg19
I1
sg25
(imyEvolve
Tree
p736
(dp737
g19
I0
sg21
I00
sbsg22
I00
sg23
g30
sbsg19
I2
sg22
I01
sg23
g75
sbsg19
I3
sg22
I01
sg23
g46
sbsg19
I4
sg25
(imyEvolve
Tree
p738
(dp739
g7
(imyEvolve
Tree
p740
(dp741
g7
(imyEvolve
Tree
p742
(dp743
g10
(imyEvolve
Tree
p744
(dp745
g19
I0
sg20
F2.8422988932532114
sg21
I01
sbsg19
I1
sg25
(imyEvolve
Tree
p746
(dp747
g19
I0
sg21
I00
sbsg22
I00
sg23
g54
sbsg19
I2
sg22
I01
sg23
g46
sbsg19
I3
sg22
I01
sg23
g46
sbsg22
I00
sg23
g30
sba(imyEvolve
Tree
p748
(dp749
g7
(imyEvolve
Tree
p750
(dp751
g10
(imyEvolve
Tree
p752
(dp753
g7
(imyEvolve
Tree
p754
(dp755
g7
(imyEvolve
Tree
p756
(dp757
g10
(imyEvolve
Tree
p758
(dp759
g19
I0
sg20
F2.614108993147531
sg21
I01
sbsg19
I1
sg25
(imyEvolve
Tree
p760
(dp761
g19
I0
sg20
F-1.2425068391727434
sg21
I01
sbsg22
I00
sg23
g30
sbsg19
I2
sg22
I01
sg23
g53
sbsg19
I3
sg22
I01
sg23
g75
sbsg19
I4
sg25
(imyEvolve
Tree
p762
(dp763
g7
(imyEvolve
Tree
p764
(dp765
g7
(imyEvolve
Tree
p766
(dp767
g10
(imyEvolve
Tree
p768
(dp769
g19
I0
sg21
I00
sbsg19
I1
sg25
(imyEvolve
Tree
p770
(dp771
g19
I0
sg20
F-4.684047032647596
sg21
I01
sbsg22
I00
sg23
g41
sbsg19
I2
sg22
I01
sg23
g75
sbsg19
I3
sg22
I01
sg23
g53
sbsg22
I00
sg23
g41
sbsg19
I5
sg22
I01
sg23
g75
sba(imyEvolve
Tree
p772
(dp773
g7
(imyEvolve
Tree
p774
(dp775
g19
I3
sg10
(imyEvolve
Tree
p776
(dp777
g7
(imyEvolve
Tree
p778
(dp779
g19
I1
sg10
(imyEvolve
Tree
p780
(dp781
g19
I0
sg20
F0.6867517440613717
sg21
I01
sbsg25
(imyEvolve
Tree
p782
(dp783
g19
I0
sg20
F-2.061025610679704
sg21
I01
sbsg22
I00
sg23
g54
sbsg19
I2
sg22
I01
sg23
g53
sbsg25
(imyEvolve
Tree
p784
(dp785
g19
I2
sg10
(imyEvolve
Tree
p786
(dp787
g7
(imyEvolve
Tree
p788
(dp789
g19
I0
sg21
I00
sbsg19
I1
sg22
I01
sg23
g75
sbsg25
(imyEvolve
Tree
p790
(dp791
g19
I1
sg10
(imyEvolve
Tree
p792
(dp793
g19
I0
sg20
F3.036942020699705
sg21
I01
sbsg25
(imyEvolve
Tree
p794
(dp795
g19
I0
sg21
I00
sbsg22
I00
sg23
g41
sbsg22
I00
sg23
g41
sbsg22
I00
sg23
g54
sbsg19
I4
sg22
I01
sg23
g46
sba(imyEvolve
Tree
p796
(dp797
g7
(imyEvolve
Tree
p798
(dp799
g7
(imyEvolve
Tree
p800
(dp801
g10
(imyEvolve
Tree
p802
(dp803
g19
I0
sg20
F3.4594628217190238
sg21
I01
sbsg19
I1
sg25
(imyEvolve
Tree
p804
(dp805
g19
I0
sg20
F2.727825275691295
sg21
I01
sbsg22
I00
sg23
g30
sbsg19
I2
sg22
I01
sg23
g75
sbsg19
I3
sg22
I01
sg23
g24
sba(imyEvolve
Tree
p806
(dp807
g7
(imyEvolve
Tree
p808
(dp809
g7
(imyEvolve
Tree
p810
(dp811
g7
(imyEvolve
Tree
p812
(dp813
g19
I0
sg21
I00
sbsg19
I1
sg22
I01
sg23
g24
sbsg19
I2
sg22
I01
sg23
g53
sbsg19
I3
sg22
I01
sg23
g53
sba(imyEvolve
Tree
p814
(dp815
g7
(imyEvolve
Tree
p816
(dp817
g7
(imyEvolve
Tree
p818
(dp819
g19
I0
sg21
I00
sbsg19
I1
sg22
I01
sg23
g75
sbsg19
I2
sg22
I01
sg23
g24
sba(imyEvolve
Tree
p820
(dp821
g7
(imyEvolve
Tree
p822
(dp823
g7
(imyEvolve
Tree
p824
(dp825
g7
(imyEvolve
Tree
p826
(dp827
g7
(imyEvolve
Tree
p828
(dp829
g19
I0
sg21
I00
sbsg19
I1
sg22
I01
sg23
g46
sbsg19
I2
sg22
I01
sg23
g46
sbsg19
I3
sg22
I01
sg23
g53
sbsg19
I4
sg22
I01
sg23
g24
sba(imyEvolve
Tree
p830
(dp831
g10
(imyEvolve
Tree
p832
(dp833
g10
(imyEvolve
Tree
p834
(dp835
g10
(imyEvolve
Tree
p836
(dp837
g7
(imyEvolve
Tree
p838
(dp839
g7
(imyEvolve
Tree
p840
(dp841
g19
I0
sg21
I00
sbsg19
I1
sg22
I01
sg23
g75
sbsg19
I2
sg22
I01
sg23
g24
sbsg19
I3
sg25
(imyEvolve
Tree
p842
(dp843
g7
(imyEvolve
Tree
p844
(dp845
g10
(imyEvolve
Tree
p846
(dp847
g19
I0
sg20
F-1.240229286136889
sg21
I01
sbsg19
I1
sg25
(imyEvolve
Tree
p848
(dp849
g19
I0
sg20
F-1.6876441099316963
sg21
I01
sbsg22
I00
sg23
g54
sbsg19
I2
sg22
I01
sg23
g53
sbsg22
I00
sg23
g54
sbsg19
I4
sg25
(imyEvolve
Tree
p850
(dp851
g7
(imyEvolve
Tree
p852
(dp853
g7
(imyEvolve
Tree
p854
(dp855
g10
(imyEvolve
Tree
p856
(dp857
g19
I0
sg20
F2.3178851560157074
sg21
I01
sbsg19
I1
sg25
(imyEvolve
Tree
p858
(dp859
g19
I0
sg20
F3.3761057168468263
sg21
I01
sbsg22
I00
sg23
g41
sbsg19
I2
sg22
I01
sg23
g53
sbsg19
I3
sg22
I01
sg23
g53
sbsg22
I00
sg23
g41
sbsg19
I5
sg25
(imyEvolve
Tree
p860
(dp861
g10
(imyEvolve
Tree
p862
(dp863
g7
(imyEvolve
Tree
p864
(dp865
g7
(imyEvolve
Tree
p866
(dp867
g7
(imyEvolve
Tree
p868
(dp869
g19
I0
sg20
F0.31604404884666515
sg21
I01
sbsg19
I1
sg22
I01
sg23
g24
sbsg19
I2
sg22
I01
sg23
g75
sbsg19
I3
sg22
I01
sg23
g53
sbsg19
I4
sg25
(imyEvolve
Tree
p870
(dp871
g7
(imyEvolve
Tree
p872
(dp873
g7
(imyEvolve
Tree
p874
(dp875
g10
(imyEvolve
Tree
p876
(dp877
g19
I0
sg21
I00
sbsg19
I1
sg25
(imyEvolve
Tree
p878
(dp879
g19
I0
sg21
I00
sbsg22
I00
sg23
g41
sbsg19
I2
sg22
I01
sg23
g53
sbsg19
I3
sg22
I01
sg23
g24
sbsg22
I00
sg23
g41
sbsg22
I00
sg23
g30
sba(imyEvolve
Tree
p880
(dp881
g10
(imyEvolve
Tree
p882
(dp883
g7
(imyEvolve
Tree
p884
(dp885
g19
I0
sg20
F0.5955304716844445
sg21
I01
sbsg19
I1
sg22
I01
sg23
g24
sbsg19
I2
sg25
(imyEvolve
Tree
p886
(dp887
g7
(imyEvolve
Tree
p888
(dp889
g19
I0
sg20
F3.624182451095665
sg21
I01
sbsg19
I1
sg22
I01
sg23
g24
sbsg22
I00
sg23
g41
sba(imyEvolve
Tree
p890
(dp891
g7
(imyEvolve
Tree
p892
(dp893
g10
(imyEvolve
Tree
p894
(dp895
g10
(imyEvolve
Tree
p896
(dp897
g10
(imyEvolve
Tree
p898
(dp899
g7
(imyEvolve
Tree
p900
(dp901
g19
I0
sg20
F3.697586480831692
sg21
I01
sbsg19
I1
sg22
I01
sg23
g53
sbsg19
I2
sg25
(imyEvolve
Tree
p902
(dp903
g10
(imyEvolve
Tree
p904
(dp905
g19
I0
sg20
F0.5143511989658132
sg21
I01
sbsg19
I1
sg25
(imyEvolve
Tree
p906
(dp907
g19
I0
sg21
I00
sbsg22
I00
sg23
g41
sbsg22
I00
sg23
g30
sbsg19
I3
sg25
(imyEvolve
Tree
p908
(dp909
g10
(imyEvolve
Tree
p910
(dp911
g10
(imyEvolve
Tree
p912
(dp913
g19
I0
sg21
I00
sbsg19
I1
sg25
(imyEvolve
Tree
p914
(dp915
g19
I0
sg20
F0.9996839117788863
sg21
I01
sbsg22
I00
sg23
g54
sbsg19
I2
sg25
(imyEvolve
Tree
p916
(dp917
g7
(imyEvolve
Tree
p918
(dp919
g19
I0
sg21
I00
sbsg19
I1
sg22
I01
sg23
g46
sbsg22
I00
sg23
g41
sbsg22
I00
sg23
g54
sbsg19
I4
sg25
(imyEvolve
Tree
p920
(dp921
g7
(imyEvolve
Tree
p922
(dp923
g10
(imyEvolve
Tree
p924
(dp925
g7
(imyEvolve
Tree
p926
(dp927
g19
I0
sg20
F0.07527355194029184
sg21
I01
sbsg19
I1
sg22
I01
sg23
g75
sbsg19
I2
sg25
(imyEvolve
Tree
p928
(dp929
g7
(imyEvolve
Tree
p930
(dp931
g19
I0
sg21
I00
sbsg19
I1
sg22
I01
sg23
g46
sbsg22
I00
sg23
g54
sbsg19
I3
sg22
I01
sg23
g53
sbsg22
I00
sg23
g41
sbsg19
I5
sg22
I01
sg23
g53
sba(imyEvolve
Tree
p932
(dp933
g10
(imyEvolve
Tree
p934
(dp935
g10
(imyEvolve
Tree
p936
(dp937
g7
(imyEvolve
Tree
p938
(dp939
g19
I0
sg21
I00
sbsg19
I1
sg22
I01
sg23
g24
sbsg19
I2
sg25
(imyEvolve
Tree
p940
(dp941
g10
(imyEvolve
Tree
p942
(dp943
g19
I0
sg20
F3.4420438171397425
sg21
I01
sbsg19
I1
sg25
(imyEvolve
Tree
p944
(dp945
g19
I0
sg21
I00
sbsg22
I00
sg23
g41
sbsg22
I00
sg23
g30
sbsg19
I3
sg25
(imyEvolve
Tree
p946
(dp947
g10
(imyEvolve
Tree
p948
(dp949
g10
(imyEvolve
Tree
p950
(dp951
g19
I0
sg21
I00
sbsg19
I1
sg25
(imyEvolve
Tree
p952
(dp953
g19
I0
sg21
I00
sbsg22
I00
sg23
g41
sbsg19
I2
sg25
(imyEvolve
Tree
p954
(dp955
g7
(imyEvolve
Tree
p956
(dp957
g19
I0
sg20
F-3.405643021607742
sg21
I01
sbsg19
I1
sg22
I01
sg23
g24
sbsg22
I00
sg23
g54
sbsg22
I00
sg23
g54
sba(imyEvolve
Tree
p958
(dp959
g7
(imyEvolve
Tree
p960
(dp961
g7
(imyEvolve
Tree
p962
(dp963
g7
(imyEvolve
Tree
p964
(dp965
g10
(imyEvolve
Tree
p966
(dp967
g7
(imyEvolve
Tree
p968
(dp969
g19
I0
sg20
F1.562701981123233
sg21
I01
sbsg19
I1
sg22
I01
sg23
g24
sbsg19
I2
sg25
(imyEvolve
Tree
p970
(dp971
g7
(imyEvolve
Tree
p972
(dp973
g19
I0
sg20
F-4.431106215619116
sg21
I01
sbsg19
I1
sg22
I01
sg23
g24
sbsg22
I00
sg23
g30
sbsg19
I3
sg22
I01
sg23
g75
sbsg19
I4
sg22
I01
sg23
g75
sbsg19
I5
sg22
I01
sg23
g53
sba(imyEvolve
Tree
p974
(dp975
g7
(imyEvolve
Tree
p976
(dp977
g10
(imyEvolve
Tree
p978
(dp979
g10
(imyEvolve
Tree
p980
(dp981
g7
(imyEvolve
Tree
p982
(dp983
g19
I0
sg21
I00
sbsg19
I1
sg22
I01
sg23
g46
sbsg19
I2
sg25
(imyEvolve
Tree
p984
(dp985
g7
(imyEvolve
Tree
p986
(dp987
g19
I0
sg20
F-1.4685759705920698
sg21
I01
sbsg19
I1
sg22
I01
sg23
g24
sbsg22
I00
sg23
g54
sbsg19
I3
sg25
(imyEvolve
Tree
p988
(dp989
g7
(imyEvolve
Tree
p990
(dp991
g10
(imyEvolve
Tree
p992
(dp993
g19
I0
sg21
I00
sbsg19
I1
sg25
(imyEvolve
Tree
p994
(dp995
g19
I0
sg20
F1.4144764119125695
sg21
I01
sbsg22
I00
sg23
g41
sbsg19
I2
sg22
I01
sg23
g24
sbsg22
I00
sg23
g54
sbsg19
I4
sg22
I01
sg23
g46
sba(imyEvolve
Tree
p996
(dp997
g7
(imyEvolve
Tree
p998
(dp999
g7
(imyEvolve
Tree
p1000
(dp1001
g7
(imyEvolve
Tree
p1002
(dp1003
g10
(imyEvolve
Tree
p1004
(dp1005
g7
(imyEvolve
Tree
p1006
(dp1007
g19
I0
sg20
F-0.9498957414187341
sg21
I01
sbsg19
I1
sg22
I01
sg23
g24
sbsg19
I2
sg25
(imyEvolve
Tree
p1008
(dp1009
g7
(imyEvolve
Tree
p1010
(dp1011
g19
I0
sg20
F-2.071042229581983
sg21
I01
sbsg19
I1
sg22
I01
sg23
g75
sbsg22
I00
sg23
g30
sbsg19
I3
sg22
I01
sg23
g24
sbsg19
I4
sg22
I01
sg23
g53
sbsg19
I5
sg22
I01
sg23
g46
sba(imyEvolve
Tree
p1012
(dp1013
g10
(imyEvolve
Tree
p1014
(dp1015
g10
(imyEvolve
Tree
p1016
(dp1017
g7
(imyEvolve
Tree
p1018
(dp1019
g10
(imyEvolve
Tree
p1020
(dp1021
g10
(imyEvolve
Tree
p1022
(dp1023
g19
I0
sg21
I00
sbsg19
I1
sg25
(imyEvolve
Tree
p1024
(dp1025
g19
I0
sg21
I00
sbsg22
I00
sg23
g54
sbsg19
I2
sg25
(imyEvolve
Tree
p1026
(dp1027
g10
(imyEvolve
Tree
p1028
(dp1029
g19
I0
sg21
I00
sbsg19
I1
sg25
(imyEvolve
Tree
p1030
(dp1031
g19
I0
sg21
I00
sbsg22
I00
sg23
g54
sbsg22
I00
sg23
g41
sbsg19
I3
sg22
I01
sg23
g53
sbsg19
I4
sg25
(imyEvolve
Tree
p1032
(dp1033
g10
(imyEvolve
Tree
p1034
(dp1035
g7
(imyEvolve
Tree
p1036
(dp1037
g10
(imyEvolve
Tree
p1038
(dp1039
g19
I0
sg21
I00
sbsg19
I1
sg25
(imyEvolve
Tree
p1040
(dp1041
g19
I0
sg21
I00
sbsg22
I00
sg23
g41
sbsg19
I2
sg22
I01
sg23
g24
sbsg19
I3
sg25
(imyEvolve
Tree
p1042
(dp1043
g10
(imyEvolve
Tree
p1044
(dp1045
g10
(imyEvolve
Tree
p1046
(dp1047
g19
I0
sg20
F-2.4102431878276906
sg21
I01
sbsg19
I1
sg25
(imyEvolve
Tree
p1048
(dp1049
g19
I0
sg21
I00
sbsg22
I00
sg23
g54
sbsg19
I2
sg25
(imyEvolve
Tree
p1050
(dp1051
g10
(imyEvolve
Tree
p1052
(dp1053
g19
I0
sg20
F-3.421561858880505
sg21
I01
sbsg19
I1
sg25
(imyEvolve
Tree
p1054
(dp1055
g19
I0
sg20
F1.5368872836073786
sg21
I01
sbsg22
I00
sg23
g30
sbsg22
I00
sg23
g41
sbsg22
I00
sg23
g54
sbsg22
I00
sg23
g54
sbsg19
I5
sg25
(imyEvolve
Tree
p1056
(dp1057
g7
(imyEvolve
Tree
p1058
(dp1059
g10
(imyEvolve
Tree
p1060
(dp1061
g10
(imyEvolve
Tree
p1062
(dp1063
g7
(imyEvolve
Tree
p1064
(dp1065
g19
I0
sg20
F-2.077716268761888
sg21
I01
sbsg19
I1
sg22
I01
sg23
g75
sbsg19
I2
sg25
(imyEvolve
Tree
p1066
(dp1067
g10
(imyEvolve
Tree
p1068
(dp1069
g19
I0
sg21
I00
sbsg19
I1
sg25
(imyEvolve
Tree
p1070
(dp1071
g19
I0
sg20
F1.6207186343718973
sg21
I01
sbsg22
I00
sg23
g41
sbsg22
I00
sg23
g30
sbsg19
I3
sg25
(imyEvolve
Tree
p1072
(dp1073
g10
(imyEvolve
Tree
p1074
(dp1075
g10
(imyEvolve
Tree
p1076
(dp1077
g19
I0
sg21
I00
sbsg19
I1
sg25
(imyEvolve
Tree
p1078
(dp1079
g19
I0
sg21
I00
sbsg22
I00
sg23
g54
sbsg19
I2
sg25
(imyEvolve
Tree
p1080
(dp1081
g10
(imyEvolve
Tree
p1082
(dp1083
g19
I0
sg21
I00
sbsg19
I1
sg25
(imyEvolve
Tree
p1084
(dp1085
g19
I0
sg20
F-4.089960714817754
sg21
I01
sbsg22
I00
sg23
g54
sbsg22
I00
sg23
g54
sbsg22
I00
sg23
g30
sbsg19
I4
sg22
I01
sg23
g46
sbsg22
I00
sg23
g41
sba(imyEvolve
Tree
p1086
(dp1087
g7
(imyEvolve
Tree
p1088
(dp1089
g10
(imyEvolve
Tree
p1090
(dp1091
g10
(imyEvolve
Tree
p1092
(dp1093
g10
(imyEvolve
Tree
p1094
(dp1095
g19
I0
sg21
I00
sbsg19
I1
sg25
(imyEvolve
Tree
p1096
(dp1097
g19
I0
sg20
F-3.1728552362278517
sg21
I01
sbsg22
I00
sg23
g54
sbsg19
I2
sg25
(imyEvolve
Tree
p1098
(dp1099
g10
(imyEvolve
Tree
p1100
(dp1101
g19
I0
sg21
I00
sbsg19
I1
sg25
(imyEvolve
Tree
p1102
(dp1103
g19
I0
sg20
F1.8388820017201146
sg21
I01
sbsg22
I00
sg23
g30
sbsg22
I00
sg23
g54
sbsg19
I3
sg25
(imyEvolve
Tree
p1104
(dp1105
g7
(imyEvolve
Tree
p1106
(dp1107
g10
(imyEvolve
Tree
p1108
(dp1109
g19
I0
sg21
I00
sbsg19
I1
sg25
(imyEvolve
Tree
p1110
(dp1111
g19
I0
sg20
F0.5987293816904158
sg21
I01
sbsg22
I00
sg23
g30
sbsg19
I2
sg22
I01
sg23
g75
sbsg22
I00
sg23
g30
sbsg19
I4
sg22
I01
sg23
g75
sba(imyEvolve
Tree
p1112
(dp1113
g7
(imyEvolve
Tree
p1114
(dp1115
g7
(imyEvolve
Tree
p1116
(dp1117
g10
(imyEvolve
Tree
p1118
(dp1119
g10
(imyEvolve
Tree
p1120
(dp1121
g7
(imyEvolve
Tree
p1122
(dp1123
g19
I0
sg21
I00
sbsg19
I1
sg22
I01
sg23
g46
sbsg19
I2
sg25
(imyEvolve
Tree
p1124
(dp1125
g10
(imyEvolve
Tree
p1126
(dp1127
g19
I0
sg20
F2.3817589044586738
sg21
I01
sbsg19
I1
sg25
(imyEvolve
Tree
p1128
(dp1129
g19
I0
sg21
I00
sbsg22
I00
sg23
g54
sbsg22
I00
sg23
g41
sbsg19
I3
sg25
(imyEvolve
Tree
p1130
(dp1131
g7
(imyEvolve
Tree
p1132
(dp1133
g10
(imyEvolve
Tree
p1134
(dp1135
g19
I0
sg21
I00
sbsg19
I1
sg25
(imyEvolve
Tree
p1136
(dp1137
g19
I0
sg20
F3.6685387771237696
sg21
I01
sbsg22
I00
sg23
g41
sbsg19
I2
sg22
I01
sg23
g75
sbsg22
I00
sg23
g54
sbsg19
I4
sg22
I01
sg23
g24
sbsg19
I5
sg22
I01
sg23
g75
sba(imyEvolve
Tree
p1138
(dp1139
g7
(imyEvolve
Tree
p1140
(dp1141
g19
I4
sg10
(imyEvolve
Tree
p1142
(dp1143
g7
(imyEvolve
Tree
p1144
(dp1145
g7
(imyEvolve
Tree
p1146
(dp1147
g7
(imyEvolve
Tree
p1148
(dp1149
g19
I0
sg20
F-0.8812253535426731
sg21
I01
sbsg19
I1
sg22
I01
sg23
g53
sbsg19
I2
sg22
I01
sg23
g53
sbsg19
I3
sg22
I01
sg23
g75
sbsg25
(imyEvolve
Tree
p1150
(dp1151
g7
(imyEvolve
Tree
p1152
(dp1153
g19
I2
sg10
(imyEvolve
Tree
p1154
(dp1155
g7
(imyEvolve
Tree
p1156
(dp1157
g19
I0
sg20
F-0.5716894876192944
sg21
I01
sbsg19
I1
sg22
I01
sg23
g46
sbsg25
(imyEvolve
Tree
p1158
(dp1159
g7
(imyEvolve
Tree
p1160
(dp1161
g19
I0
sg21
I00
sbsg19
I1
sg22
I01
sg23
g46
sbsg22
I00
sg23
g30
sbsg19
I3
sg22
I01
sg23
g75
sbsg22
I00
sg23
g54
sbsg19
I5
sg22
I01
sg23
g46
sbaa(lp1162
(imyEvolve
Tree
p1163
(dp1164
g7
(imyEvolve
Tree
p1165
(dp1166
g19
I2
sg10
(imyEvolve
Tree
p1167
(dp1168
g19
I1
sg10
(imyEvolve
Tree
p1169
(dp1170
g19
I0
sg21
I00
sbsg25
(imyEvolve
Tree
p1171
(dp1172
g19
I0
sg21
I00
sbsg22
I00
sg23
g41
sbsg25
(imyEvolve
Tree
p1173
(dp1174
g7
(imyEvolve
Tree
p1175
(dp1176
g19
I0
sg20
F3.9441490265277217
sg21
I01
sbsg19
I1
sg22
I01
sg23
g53
sbsg22
I00
sg23
g30
sbsg19
I3
sg22
I01
sg23
g75
sba(imyEvolve
Tree
p1177
(dp1178
g7
(imyEvolve
Tree
p1179
(dp1180
g10
(imyEvolve
Tree
p1181
(dp1182
g19
I0
sg21
I00
sbsg19
I1
sg25
(imyEvolve
Tree
p1183
(dp1184
g19
I0
sg20
F-2.831558952170503
sg21
I01
sbsg22
I00
sg23
g30
sbsg19
I2
sg22
I01
sg23
g53
sba(imyEvolve
Tree
p1185
(dp1186
g10
(imyEvolve
Tree
p1187
(dp1188
g7
(imyEvolve
Tree
p1189
(dp1190
g19
I0
sg20
F-1.0895144454311403
sg21
I01
sbsg19
I1
sg22
I01
sg23
g75
sbsg19
I2
sg25
(imyEvolve
Tree
p1191
(dp1192
g7
(imyEvolve
Tree
p1193
(dp1194
g19
I0
sg21
I00
sbsg19
I1
sg22
I01
sg23
g24
sbsg22
I00
sg23
g30
sba(imyEvolve
Tree
p1195
(dp1196
g10
(imyEvolve
Tree
p1197
(dp1198
g7
(imyEvolve
Tree
p1199
(dp1200
g19
I0
sg20
F4.947777101668791
sg21
I01
sbsg19
I1
sg22
I01
sg23
g75
sbsg19
I2
sg25
(imyEvolve
Tree
p1201
(dp1202
g10
(imyEvolve
Tree
p1203
(dp1204
g19
I0
sg21
I00
sbsg19
I1
sg25
(imyEvolve
Tree
p1205
(dp1206
g19
I0
sg20
F2.4518456031410647
sg21
I01
sbsg22
I00
sg23
g30
sbsg22
I00
sg23
g54
sba(imyEvolve
Tree
p1207
(dp1208
g7
(imyEvolve
Tree
p1209
(dp1210
g7
(imyEvolve
Tree
p1211
(dp1212
g10
(imyEvolve
Tree
p1213
(dp1214
g10
(imyEvolve
Tree
p1215
(dp1216
g7
(imyEvolve
Tree
p1217
(dp1218
g19
I0
sg20
F2.5926218817362425
sg21
I01
sbsg19
I1
sg22
I01
sg23
g46
sbsg19
I2
sg25
(imyEvolve
Tree
p1219
(dp1220
g7
(imyEvolve
Tree
p1221
(dp1222
g19
I0
sg20
F-0.45959643209134704
sg21
I01
sbsg19
I1
sg22
I01
sg23
g46
sbsg22
I00
sg23
g30
sbsg19
I3
sg25
(imyEvolve
Tree
p1223
(dp1224
g10
(imyEvolve
Tree
p1225
(dp1226
g10
(imyEvolve
Tree
p1227
(dp1228
g19
I0
sg20
F-4.361364717395535
sg21
I01
sbsg19
I1
sg25
(imyEvolve
Tree
p1229
(dp1230
g19
I0
sg20
F1.7752490353528056
sg21
I01
sbsg22
I00
sg23
g30
sbsg19
I2
sg25
(imyEvolve
Tree
p1231
(dp1232
g10
(imyEvolve
Tree
p1233
(dp1234
g19
I0
sg20
F0.43599663260302624
sg21
I01
sbsg19
I1
sg25
(imyEvolve
Tree
p1235
(dp1236
g19
I0
sg20
F0.44715213863757786
sg21
I01
sbsg22
I00
sg23
g41
sbsg22
I00
sg23
g41
sbsg22
I00
sg23
g41
sbsg19
I4
sg22
I01
sg23
g53
sbsg19
I5
sg22
I01
sg23
g75
sba(imyEvolve
Tree
p1237
(dp1238
g10
(imyEvolve
Tree
p1239
(dp1240
g7
(imyEvolve
Tree
p1241
(dp1242
g7
(imyEvolve
Tree
p1243
(dp1244
g10
(imyEvolve
Tree
p1245
(dp1246
g7
(imyEvolve
Tree
p1247
(dp1248
g19
I0
sg20
F-4.083010619636087
sg21
I01
sbsg19
I1
sg22
I01
sg23
g46
sbsg19
I2
sg25
(imyEvolve
Tree
p1249
(dp1250
g10
(imyEvolve
Tree
p1251
(dp1252
g19
I0
sg20
F-0.09718018710264076
sg21
I01
sbsg19
I1
sg25
(imyEvolve
Tree
p1253
(dp1254
g19
I0
sg20
F-0.2621862515918938
sg21
I01
sbsg22
I00
sg23
g30
sbsg22
I00
sg23
g41
sbsg19
I3
sg22
I01
sg23
g24
sbsg19
I4
sg22
I01
sg23
g75
sbsg19
I5
sg25
(imyEvolve
Tree
p1255
(dp1256
g10
(imyEvolve
Tree
p1257
(dp1258
g10
(imyEvolve
Tree
p1259
(dp1260
g7
(imyEvolve
Tree
p1261
(dp1262
g10
(imyEvolve
Tree
p1263
(dp1264
g19
I0
sg21
I00
sbsg19
I1
sg25
(imyEvolve
Tree
p1265
(dp1266
g19
I0
sg21
I00
sbsg22
I00
sg23
g41
sbsg19
I2
sg22
I01
sg23
g75
sbsg19
I3
sg25
(imyEvolve
Tree
p1267
(dp1268
g10
(imyEvolve
Tree
p1269
(dp1270
g7
(imyEvolve
Tree
p1271
(dp1272
g19
I0
sg21
I00
sbsg19
I1
sg22
I01
sg23
g46
sbsg19
I2
sg25
(imyEvolve
Tree
p1273
(dp1274
g7
(imyEvolve
Tree
p1275
(dp1276
g19
I0
sg20
F1.2627839341203595
sg21
I01
sbsg19
I1
sg22
I01
sg23
g75
sbsg22
I00
sg23
g54
sbsg22
I00
sg23
g41
sbsg19
I4
sg25
(imyEvolve
Tree
p1277
(dp1278
g7
(imyEvolve
Tree
p1279
(dp1280
g10
(imyEvolve
Tree
p1281
(dp1282
g10
(imyEvolve
Tree
p1283
(dp1284
g19
I0
sg21
I00
sbsg19
I1
sg25
(imyEvolve
Tree
p1285
(dp1286
g19
I0
sg20
F2.936507695421838
sg21
I01
sbsg22
I00
sg23
g41
sbsg19
I2
sg25
(imyEvolve
Tree
p1287
(dp1288
g10
(imyEvolve
Tree
p1289
(dp1290
g19
I0
sg21
I00
sbsg19
I1
sg25
(imyEvolve
Tree
p1291
(dp1292
g19
I0
sg21
I00
sbsg22
I00
sg23
g41
sbsg22
I00
sg23
g41
sbsg19
I3
sg22
I01
sg23
g24
sbsg22
I00
sg23
g30
sbsg22
I00
sg23
g41
sba(imyEvolve
Tree
p1293
(dp1294
g19
I2
sg10
(imyEvolve
Tree
p1295
(dp1296
g7
(imyEvolve
Tree
p1297
(dp1298
g19
I0
sg21
I00
sbsg19
I1
sg22
I01
sg23
g75
sbsg25
(imyEvolve
Tree
p1299
(dp1300
g19
I1
sg10
(imyEvolve
Tree
p1301
(dp1302
g19
I0
sg21
I00
sbsg25
(imyEvolve
Tree
p1303
(dp1304
g19
I0
sg20
F3.9973553238052943
sg21
I01
sbsg22
I00
sg23
g41
sbsg22
I00
sg23
g41
sba(imyEvolve
Tree
p1305
(dp1306
g10
(imyEvolve
Tree
p1307
(dp1308
g10
(imyEvolve
Tree
p1309
(dp1310
g7
(imyEvolve
Tree
p1311
(dp1312
g10
(imyEvolve
Tree
p1313
(dp1314
g19
I0
sg21
I00
sbsg19
I1
sg25
(imyEvolve
Tree
p1315
(dp1316
g19
I0
sg21
I00
sbsg22
I00
sg23
g54
sbsg19
I2
sg22
I01
sg23
g24
sbsg19
I3
sg25
(imyEvolve
Tree
p1317
(dp1318
g7
(imyEvolve
Tree
p1319
(dp1320
g10
(imyEvolve
Tree
p1321
(dp1322
g19
I0
sg21
I00
sbsg19
I1
sg25
(imyEvolve
Tree
p1323
(dp1324
g19
I0
sg21
I00
sbsg22
I00
sg23
g30
sbsg19
I2
sg22
I01
sg23
g46
sbsg22
I00
sg23
g41
sbsg19
I4
sg25
(imyEvolve
Tree
p1325
(dp1326
g10
(imyEvolve
Tree
p1327
(dp1328
g7
(imyEvolve
Tree
p1329
(dp1330
g10
(imyEvolve
Tree
p1331
(dp1332
g19
I0
sg21
I00
sbsg19
I1
sg25
(imyEvolve
Tree
p1333
(dp1334
g19
I0
sg20
F2.4058283995222665
sg21
I01
sbsg22
I00
sg23
g41
sbsg19
I2
sg22
I01
sg23
g24
sbsg19
I3
sg25
(imyEvolve
Tree
p1335
(dp1336
g7
(imyEvolve
Tree
p1337
(dp1338
g10
(imyEvolve
Tree
p1339
(dp1340
g19
I0
sg20
F1.0828271140064007
sg21
I01
sbsg19
I1
sg25
(imyEvolve
Tree
p1341
(dp1342
g19
I0
sg21
I00
sbsg22
I00
sg23
g30
sbsg19
I2
sg22
I01
sg23
g46
sbsg22
I00
sg23
g41
sbsg22
I00
sg23
g54
sba(imyEvolve
Tree
p1343
(dp1344
g10
(imyEvolve
Tree
p1345
(dp1346
g10
(imyEvolve
Tree
p1347
(dp1348
g19
I0
sg21
I00
sbsg19
I1
sg25
(imyEvolve
Tree
p1349
(dp1350
g19
I0
sg21
I00
sbsg22
I00
sg23
g41
sbsg19
I2
sg25
(imyEvolve
Tree
p1351
(dp1352
g7
(imyEvolve
Tree
p1353
(dp1354
g19
I0
sg20
F2.573320952615356
sg21
I01
sbsg19
I1
sg22
I01
sg23
g53
sbsg22
I00
sg23
g41
sba(imyEvolve
Tree
p1355
(dp1356
g10
(imyEvolve
Tree
p1357
(dp1358
g10
(imyEvolve
Tree
p1359
(dp1360
g19
I0
sg20
F0.9518227170328242
sg21
I01
sbsg19
I1
sg25
(imyEvolve
Tree
p1361
(dp1362
g19
I0
sg20
F4.584046267804091
sg21
I01
sbsg22
I00
sg23
g54
sbsg19
I2
sg25
(imyEvolve
Tree
p1363
(dp1364
g7
(imyEvolve
Tree
p1365
(dp1366
g19
I0
sg20
F-1.3794602726212024
sg21
I01
sbsg19
I1
sg22
I01
sg23
g75
sbsg22
I00
sg23
g54
sba(imyEvolve
Tree
p1367
(dp1368
g10
(imyEvolve
Tree
p1369
(dp1370
g10
(imyEvolve
Tree
p1371
(dp1372
g19
I0
sg20
F2.1491065406087726
sg21
I01
sbsg19
I1
sg25
(imyEvolve
Tree
p1373
(dp1374
g19
I0
sg21
I00
sbsg22
I00
sg23
g41
sbsg19
I2
sg25
(imyEvolve
Tree
p1375
(dp1376
g10
(imyEvolve
Tree
p1377
(dp1378
g19
I0
sg20
F-3.348261948098238
sg21
I01
sbsg19
I1
sg25
(imyEvolve
Tree
p1379
(dp1380
g19
I0
sg21
I00
sbsg22
I00
sg23
g41
sbsg22
I00
sg23
g30
sba(imyEvolve
Tree
p1381
(dp1382
g10
(imyEvolve
Tree
p1383
(dp1384
g7
(imyEvolve
Tree
p1385
(dp1386
g10
(imyEvolve
Tree
p1387
(dp1388
g7
(imyEvolve
Tree
p1389
(dp1390
g7
(imyEvolve
Tree
p1391
(dp1392
g19
I0
sg21
I00
sbsg19
I1
sg22
I01
sg23
g24
sbsg19
I2
sg22
I01
sg23
g75
sbsg19
I3
sg25
(imyEvolve
Tree
p1393
(dp1394
g7
(imyEvolve
Tree
p1395
(dp1396
g7
(imyEvolve
Tree
p1397
(dp1398
g19
I0
sg21
I00
sbsg19
I1
sg22
I01
sg23
g46
sbsg19
I2
sg22
I01
sg23
g53
sbsg22
I00
sg23
g30
sbsg19
I4
sg22
I01
sg23
g24
sbsg19
I5
sg25
(imyEvolve
Tree
p1399
(dp1400
g10
(imyEvolve
Tree
p1401
(dp1402
g7
(imyEvolve
Tree
p1403
(dp1404
g7
(imyEvolve
Tree
p1405
(dp1406
g7
(imyEvolve
Tree
p1407
(dp1408
g19
I0
sg20
F3.2600198604411155
sg21
I01
sbsg19
I1
sg22
I01
sg23
g46
sbsg19
I2
sg22
I01
sg23
g75
sbsg19
I3
sg22
I01
sg23
g75
sbsg19
I4
sg25
(imyEvolve
Tree
p1409
(dp1410
g10
(imyEvolve
Tree
p1411
(dp1412
g7
(imyEvolve
Tree
p1413
(dp1414
g10
(imyEvolve
Tree
p1415
(dp1416
g19
I0
sg21
I00
sbsg19
I1
sg25
(imyEvolve
Tree
p1417
(dp1418
g19
I0
sg21
I00
sbsg22
I00
sg23
g30
sbsg19
I2
sg22
I01
sg23
g24
sbsg19
I3
sg25
(imyEvolve
Tree
p1419
(dp1420
g10
(imyEvolve
Tree
p1421
(dp1422
g7
(imyEvolve
Tree
p1423
(dp1424
g19
I0
sg20
F-4.612824562255577
sg21
I01
sbsg19
I1
sg22
I01
sg23
g24
sbsg19
I2
sg25
(imyEvolve
Tree
p1425
(dp1426
g10
(imyEvolve
Tree
p1427
(dp1428
g19
I0
sg20
F0.1635481450091527
sg21
I01
sbsg19
I1
sg25
(imyEvolve
Tree
p1429
(dp1430
g19
I0
sg21
I00
sbsg22
I00
sg23
g54
sbsg22
I00
sg23
g41
sbsg22
I00
sg23
g41
sbsg22
I00
sg23
g30
sbsg22
I00
sg23
g54
sba(imyEvolve
Tree
p1431
(dp1432
g19
I5
sg10
(imyEvolve
Tree
p1433
(dp1434
g7
(imyEvolve
Tree
p1435
(dp1436
g7
(imyEvolve
Tree
p1437
(dp1438
g19
I2
sg10
(imyEvolve
Tree
p1439
(dp1440
g19
I1
sg10
(imyEvolve
Tree
p1441
(dp1442
g19
I0
sg21
I00
sbsg25
(imyEvolve
Tree
p1443
(dp1444
g19
I0
sg21
I00
sbsg22
I00
sg23
g54
sbsg25
(imyEvolve
Tree
p1445
(dp1446
g19
I1
sg10
(imyEvolve
Tree
p1447
(dp1448
g19
I0
sg20
F-0.4724792835597338
sg21
I01
sbsg25
(imyEvolve
Tree
p1449
(dp1450
g19
I0
sg20
F-3.910525140203762
sg21
I01
sbsg22
I00
sg23
g41
sbsg22
I00
sg23
g30
sbsg19
I3
sg22
I01
sg23
g24
sbsg19
I4
sg22
I01
sg23
g75
sbsg25
(imyEvolve
Tree
p1451
(dp1452
g19
I4
sg10
(imyEvolve
Tree
p1453
(dp1454
g19
I3
sg10
(imyEvolve
Tree
p1455
(dp1456
g7
(imyEvolve
Tree
p1457
(dp1458
g7
(imyEvolve
Tree
p1459
(dp1460
g19
I0
sg20
F-4.0577644516173
sg21
I01
sbsg19
I1
sg22
I01
sg23
g53
sbsg19
I2
sg22
I01
sg23
g75
sbsg25
(imyEvolve
Tree
p1461
(dp1462
g7
(imyEvolve
Tree
p1463
(dp1464
g19
I1
sg10
(imyEvolve
Tree
p1465
(dp1466
g19
I0
sg21
I00
sbsg25
(imyEvolve
Tree
p1467
(dp1468
g19
I0
sg21
I00
sbsg22
I00
sg23
g54
sbsg19
I2
sg22
I01
sg23
g53
sbsg22
I00
sg23
g41
sbsg25
(imyEvolve
Tree
p1469
(dp1470
g7
(imyEvolve
Tree
p1471
(dp1472
g7
(imyEvolve
Tree
p1473
(dp1474
g19
I1
sg10
(imyEvolve
Tree
p1475
(dp1476
g19
I0
sg20
F-0.3853574564961555
sg21
I01
sbsg25
(imyEvolve
Tree
p1477
(dp1478
g19
I0
sg21
I00
sbsg22
I00
sg23
g30
sbsg19
I2
sg22
I01
sg23
g24
sbsg19
I3
sg22
I01
sg23
g46
sbsg22
I00
sg23
g41
sbsg22
I00
sg23
g41
sba(imyEvolve
Tree
p1479
(dp1480
g10
(imyEvolve
Tree
p1481
(dp1482
g10
(imyEvolve
Tree
p1483
(dp1484
g19
I0
sg20
F-2.9536163258247026
sg21
I01
sbsg19
I1
sg25
(imyEvolve
Tree
p1485
(dp1486
g19
I0
sg20
F-1.6670561860067523
sg21
I01
sbsg22
I00
sg23
g30
sbsg19
I2
sg25
(imyEvolve
Tree
p1487
(dp1488
g7
(imyEvolve
Tree
p1489
(dp1490
g19
I0
sg21
I00
sbsg19
I1
sg22
I01
sg23
g53
sbsg22
I00
sg23
g41
sba(imyEvolve
Tree
p1491
(dp1492
g10
(imyEvolve
Tree
p1493
(dp1494
g7
(imyEvolve
Tree
p1495
(dp1496
g10
(imyEvolve
Tree
p1497
(dp1498
g19
I0
sg21
I00
sbsg19
I1
sg25
(imyEvolve
Tree
p1499
(dp1500
g19
I0
sg20
F-0.02834982059538227
sg21
I01
sbsg22
I00
sg23
g41
sbsg19
I2
sg22
I01
sg23
g24
sbsg19
I3
sg25
(imyEvolve
Tree
p1501
(dp1502
g10
(imyEvolve
Tree
p1503
(dp1504
g7
(imyEvolve
Tree
p1505
(dp1506
g19
I0
sg21
I00
sbsg19
I1
sg22
I01
sg23
g75
sbsg19
I2
sg25
(imyEvolve
Tree
p1507
(dp1508
g10
(imyEvolve
Tree
p1509
(dp1510
g19
I0
sg21
I00
sbsg19
I1
sg25
(imyEvolve
Tree
p1511
(dp1512
g19
I0
sg20
F2.3351014017462726
sg21
I01
sbsg22
I00
sg23
g41
sbsg22
I00
sg23
g41
sbsg22
I00
sg23
g41
sba(imyEvolve
Tree
p1513
(dp1514
g10
(imyEvolve
Tree
p1515
(dp1516
g10
(imyEvolve
Tree
p1517
(dp1518
g7
(imyEvolve
Tree
p1519
(dp1520
g19
I0
sg20
F-3.450725471731453
sg21
I01
sbsg19
I1
sg22
I01
sg23
g75
sbsg19
I2
sg25
(imyEvolve
Tree
p1521
(dp1522
g7
(imyEvolve
Tree
p1523
(dp1524
g19
I0
sg21
I00
sbsg19
I1
sg22
I01
sg23
g53
sbsg22
I00
sg23
g54
sbsg19
I3
sg25
(imyEvolve
Tree
p1525
(dp1526
g10
(imyEvolve
Tree
p1527
(dp1528
g10
(imyEvolve
Tree
p1529
(dp1530
g19
I0
sg20
F1.7418202671002163
sg21
I01
sbsg19
I1
sg25
(imyEvolve
Tree
p1531
(dp1532
g19
I0
sg21
I00
sbsg22
I00
sg23
g30
sbsg19
I2
sg25
(imyEvolve
Tree
p1533
(dp1534
g7
(imyEvolve
Tree
p1535
(dp1536
g19
I0
sg21
I00
sbsg19
I1
sg22
I01
sg23
g24
sbsg22
I00
sg23
g30
sbsg22
I00
sg23
g30
sba(imyEvolve
Tree
p1537
(dp1538
g10
(imyEvolve
Tree
p1539
(dp1540
g10
(imyEvolve
Tree
p1541
(dp1542
g10
(imyEvolve
Tree
p1543
(dp1544
g7
(imyEvolve
Tree
p1545
(dp1546
g19
I0
sg20
F2.8048389280797714
sg21
I01
sbsg19
I1
sg22
I01
sg23
g46
sbsg19
I2
sg25
(imyEvolve
Tree
p1547
(dp1548
g10
(imyEvolve
Tree
p1549
(dp1550
g19
I0
sg20
F1.0378444848066
sg21
I01
sbsg19
I1
sg25
(imyEvolve
Tree
p1551
(dp1552
g19
I0
sg20
F2.2369877367530977
sg21
I01
sbsg22
I00
sg23
g30
sbsg22
I00
sg23
g41
sbsg19
I3
sg25
(imyEvolve
Tree
p1553
(dp1554
g10
(imyEvolve
Tree
p1555
(dp1556
g7
(imyEvolve
Tree
p1557
(dp1558
g19
I0
sg20
F-4.7118949049670364
sg21
I01
sbsg19
I1
sg22
I01
sg23
g53
sbsg19
I2
sg25
(imyEvolve
Tree
p1559
(dp1560
g10
(imyEvolve
Tree
p1561
(dp1562
g19
I0
sg20
F-0.04402812613342455
sg21
I01
sbsg19
I1
sg25
(imyEvolve
Tree
p1563
(dp1564
g19
I0
sg20
F-1.6790409857239643
sg21
I01
sbsg22
I00
sg23
g54
sbsg22
I00
sg23
g30
sbsg22
I00
sg23
g54
sbsg19
I4
sg25
(imyEvolve
Tree
p1565
(dp1566
g7
(imyEvolve
Tree
p1567
(dp1568
g10
(imyEvolve
Tree
p1569
(dp1570
g10
(imyEvolve
Tree
p1571
(dp1572
g19
I0
sg20
F-2.484365699439417
sg21
I01
sbsg19
I1
sg25
(imyEvolve
Tree
p1573
(dp1574
g19
I0
sg21
I00
sbsg22
I00
sg23
g30
sbsg19
I2
sg25
(imyEvolve
Tree
p1575
(dp1576
g10
(imyEvolve
Tree
p1577
(dp1578
g19
I0
sg21
I00
sbsg19
I1
sg25
(imyEvolve
Tree
p1579
(dp1580
g19
I0
sg20
F-1.8522587652902702
sg21
I01
sbsg22
I00
sg23
g30
sbsg22
I00
sg23
g30
sbsg19
I3
sg22
I01
sg23
g53
sbsg22
I00
sg23
g41
sbaasS'alpha'
p1581
F0.0036983268320204083
sS'fitness'
p1582
cnumpy.core.multiarray
scalar
p1583
(cnumpy
dtype
p1584
(S'f8'
p1585
I0
I1
tp1586
Rp1587
(I3
S'<'
p1588
NNNI-1
I-1
I0
tp1589
bS'<N\xd1\x07\xb6/\xe6?'
p1590
tp1591
Rp1592
sS'weightSharing'
p1593
(lp1594
I00
asS'fitnessValid'
p1595
I00
sS'resolution'
p1596
I70
sb.