(imyEvolve
Individual
p0
(dp1
S'funcs'
p2
(lp3
(lp4
(imyEvolve
Tree
p5
(dp6
S'left'
p7
(imyEvolve
Tree
p8
(dp9
S'below'
p10
(imyEvolve
Tree
p11
(dp12
S'depth'
p13
I0
sS'isConstant'
p14
I00
sbsg13
I1
sS'single'
p15
I01
sS'op'
p16
cmyEvolve
square
p17
sbsg13
I2
sS'right'
p18
(imyEvolve
Tree
p19
(dp20
g7
(imyEvolve
Tree
p21
(dp22
g13
I0
sS'constant'
p23
F-1.5327513289949044
sg14
I01
sbsg13
I1
sg18
(imyEvolve
Tree
p24
(dp25
g13
I0
sg23
F0.9729893646949375
sg14
I01
sbsg15
I00
sg16
coperator
mul
p26
sbsg15
I00
sg16
coperator
add
p27
sba(imyEvolve
Tree
p28
(dp29
g13
I5
sg7
(imyEvolve
Tree
p30
(dp31
g13
I4
sg7
(imyEvolve
Tree
p32
(dp33
g10
(imyEvolve
Tree
p34
(dp35
g10
(imyEvolve
Tree
p36
(dp37
g13
I1
sg7
(imyEvolve
Tree
p38
(dp39
g13
I0
sg14
I00
sbsg18
(imyEvolve
Tree
p40
(dp41
g13
I0
sg23
F0.07924623291316824
sg14
I01
sbsg15
I00
sg16
g27
sbsg13
I2
sg15
I01
sg16
g17
sbsg13
I3
sg15
I01
sg16
cmath
sin
p42
sbsg18
(imyEvolve
Tree
p43
(dp44
g13
I3
sg7
(imyEvolve
Tree
p45
(dp46
g10
(imyEvolve
Tree
p47
(dp48
g10
(imyEvolve
Tree
p49
(dp50
g13
I0
sg14
I00
sbsg13
I1
sg15
I01
sg16
cmyEvolve
absSqrt
p51
sbsg13
I2
sg15
I01
sg16
g51
sbsg18
(imyEvolve
Tree
p52
(dp53
g13
I2
sg7
(imyEvolve
Tree
p54
(dp55
g10
(imyEvolve
Tree
p56
(dp57
g13
I0
sg23
F2.296131858430762
sg14
I01
sbsg13
I1
sg15
I01
sg16
g17
sbsg18
(imyEvolve
Tree
p58
(dp59
g13
I1
sg7
(imyEvolve
Tree
p60
(dp61
g13
I0
sg23
F-2.866542455049826
sg14
I01
sbsg18
(imyEvolve
Tree
p62
(dp63
g13
I0
sg23
F2.9087103725273176
sg14
I01
sbsg15
I00
sg16
g27
sbsg15
I00
sg16
coperator
sub
p64
sbsg15
I00
sg16
g26
sbsg15
I00
sg16
g26
sbsg18
(imyEvolve
Tree
p65
(dp66
g13
I4
sg7
(imyEvolve
Tree
p67
(dp68
g10
(imyEvolve
Tree
p69
(dp70
g13
I2
sg7
(imyEvolve
Tree
p71
(dp72
g13
I1
sg7
(imyEvolve
Tree
p73
(dp74
g13
I0
sg23
F-4.867378827459355
sg14
I01
sbsg18
(imyEvolve
Tree
p75
(dp76
g13
I0
sg14
I00
sbsg15
I00
sg16
g64
sbsg18
(imyEvolve
Tree
p77
(dp78
g10
(imyEvolve
Tree
p79
(dp80
g13
I0
sg14
I00
sbsg13
I1
sg15
I01
sg16
g51
sbsg15
I00
sg16
g64
sbsg13
I3
sg15
I01
sg16
g17
sbsg18
(imyEvolve
Tree
p81
(dp82
g13
I3
sg7
(imyEvolve
Tree
p83
(dp84
g13
I2
sg7
(imyEvolve
Tree
p85
(dp86
g13
I1
sg7
(imyEvolve
Tree
p87
(dp88
g13
I0
sg23
F4.235495988172936
sg14
I01
sbsg18
(imyEvolve
Tree
p89
(dp90
g13
I0
sg14
I00
sbsg15
I00
sg16
g27
sbsg18
(imyEvolve
Tree
p91
(dp92
g10
(imyEvolve
Tree
p93
(dp94
g13
I0
sg23
F-4.6140021891379135
sg14
I01
sbsg13
I1
sg15
I01
sg16
cmath
cos
p95
sbsg15
I00
sg16
g27
sbsg18
(imyEvolve
Tree
p96
(dp97
g13
I2
sg7
(imyEvolve
Tree
p98
(dp99
g10
(imyEvolve
Tree
p100
(dp101
g13
I0
sg14
I00
sbsg13
I1
sg15
I01
sg16
g95
sbsg18
(imyEvolve
Tree
p102
(dp103
g10
(imyEvolve
Tree
p104
(dp105
g13
I0
sg23
F4.1986548684077505
sg14
I01
sbsg13
I1
sg15
I01
sg16
g95
sbsg15
I00
sg16
g27
sbsg15
I00
sg16
g27
sbsg15
I00
sg16
g64
sbsg15
I00
sg16
g26
sba(imyEvolve
Tree
p106
(dp107
g10
(imyEvolve
Tree
p108
(dp109
g13
I4
sg7
(imyEvolve
Tree
p110
(dp111
g10
(imyEvolve
Tree
p112
(dp113
g13
I2
sg7
(imyEvolve
Tree
p114
(dp115
g10
(imyEvolve
Tree
p116
(dp117
g13
I0
sg23
F-3.8955183787853254
sg14
I01
sbsg13
I1
sg15
I01
sg16
g95
sbsg18
(imyEvolve
Tree
p118
(dp119
g10
(imyEvolve
Tree
p120
(dp121
g13
I0
sg14
I00
sbsg13
I1
sg15
I01
sg16
g51
sbsg15
I00
sg16
g27
sbsg13
I3
sg15
I01
sg16
g51
sbsg18
(imyEvolve
Tree
p122
(dp123
g10
(imyEvolve
Tree
p124
(dp125
g13
I2
sg7
(imyEvolve
Tree
p126
(dp127
g10
(imyEvolve
Tree
p128
(dp129
g13
I0
sg14
I00
sbsg13
I1
sg15
I01
sg16
g42
sbsg18
(imyEvolve
Tree
p130
(dp131
g13
I1
sg7
(imyEvolve
Tree
p132
(dp133
g13
I0
sg14
I00
sbsg18
(imyEvolve
Tree
p134
(dp135
g13
I0
sg14
I00
sbsg15
I00
sg16
g26
sbsg15
I00
sg16
g26
sbsg13
I3
sg15
I01
sg16
g95
sbsg15
I00
sg16
g27
sbsg13
I5
sg15
I01
sg16
g17
sba(imyEvolve
Tree
p136
(dp137
g13
I3
sg7
(imyEvolve
Tree
p138
(dp139
g10
(imyEvolve
Tree
p140
(dp141
g10
(imyEvolve
Tree
p142
(dp143
g13
I0
sg14
I00
sbsg13
I1
sg15
I01
sg16
g42
sbsg13
I2
sg15
I01
sg16
g95
sbsg18
(imyEvolve
Tree
p144
(dp145
g10
(imyEvolve
Tree
p146
(dp147
g13
I1
sg7
(imyEvolve
Tree
p148
(dp149
g13
I0
sg23
F2.842263264272164
sg14
I01
sbsg18
(imyEvolve
Tree
p150
(dp151
g13
I0
sg14
I00
sbsg15
I00
sg16
g27
sbsg13
I2
sg15
I01
sg16
g17
sbsg15
I00
sg16
g26
sba(imyEvolve
Tree
p152
(dp153
g10
(imyEvolve
Tree
p154
(dp155
g10
(imyEvolve
Tree
p156
(dp157
g10
(imyEvolve
Tree
p158
(dp159
g7
(imyEvolve
Tree
p160
(dp161
g7
(imyEvolve
Tree
p162
(dp163
g13
I0
sg14
I00
sbsg13
I1
sg18
(imyEvolve
Tree
p164
(dp165
g13
I0
sg23
F0.304838521791857
sg14
I01
sbsg15
I00
sg16
g27
sbsg13
I2
sg18
(imyEvolve
Tree
p166
(dp167
g10
(imyEvolve
Tree
p168
(dp169
g13
I0
sg23
F-1.5030482224032724
sg14
I01
sbsg13
I1
sg15
I01
sg16
g51
sbsg15
I00
sg16
g64
sbsg13
I3
sg15
I01
sg16
g51
sbsg13
I4
sg15
I01
sg16
g51
sbsg13
I5
sg15
I01
sg16
g17
sba(imyEvolve
Tree
p170
(dp171
g7
(imyEvolve
Tree
p172
(dp173
g10
(imyEvolve
Tree
p174
(dp175
g10
(imyEvolve
Tree
p176
(dp177
g7
(imyEvolve
Tree
p178
(dp179
g13
I0
sg23
F-3.8996145352988467
sg14
I01
sbsg13
I1
sg18
(imyEvolve
Tree
p180
(dp181
g13
I0
sg23
F-2.8168975876226234
sg14
I01
sbsg15
I00
sg16
g64
sbsg13
I2
sg15
I01
sg16
g95
sbsg13
I3
sg15
I01
sg16
g17
sbsg13
I4
sg18
(imyEvolve
Tree
p182
(dp183
g7
(imyEvolve
Tree
p184
(dp185
g7
(imyEvolve
Tree
p186
(dp187
g7
(imyEvolve
Tree
p188
(dp189
g13
I0
sg23
F-1.1818719150243986
sg14
I01
sbsg13
I1
sg18
(imyEvolve
Tree
p190
(dp191
g13
I0
sg14
I00
sbsg15
I00
sg16
g26
sbsg13
I2
sg18
(imyEvolve
Tree
p192
(dp193
g7
(imyEvolve
Tree
p194
(dp195
g13
I0
sg23
F-0.266751876691278
sg14
I01
sbsg13
I1
sg18
(imyEvolve
Tree
p196
(dp197
g13
I0
sg14
I00
sbsg15
I00
sg16
g64
sbsg15
I00
sg16
g27
sbsg13
I3
sg18
(imyEvolve
Tree
p198
(dp199
g7
(imyEvolve
Tree
p200
(dp201
g10
(imyEvolve
Tree
p202
(dp203
g13
I0
sg14
I00
sbsg13
I1
sg15
I01
sg16
g95
sbsg13
I2
sg18
(imyEvolve
Tree
p204
(dp205
g10
(imyEvolve
Tree
p206
(dp207
g13
I0
sg23
F0.5789172615681712
sg14
I01
sbsg13
I1
sg15
I01
sg16
g17
sbsg15
I00
sg16
g64
sbsg15
I00
sg16
g27
sbsg15
I00
sg16
g64
sba(imyEvolve
Tree
p208
(dp209
g7
(imyEvolve
Tree
p210
(dp211
g7
(imyEvolve
Tree
p212
(dp213
g13
I0
sg14
I00
sbsg13
I1
sg18
(imyEvolve
Tree
p214
(dp215
g13
I0
sg23
F0.7498203774778833
sg14
I01
sbsg15
I00
sg16
g27
sbsg13
I2
sg18
(imyEvolve
Tree
p216
(dp217
g10
(imyEvolve
Tree
p218
(dp219
g13
I0
sg23
F2.3500615334230233
sg14
I01
sbsg13
I1
sg15
I01
sg16
g42
sbsg15
I00
sg16
g26
sba(imyEvolve
Tree
p220
(dp221
g10
(imyEvolve
Tree
p222
(dp223
g10
(imyEvolve
Tree
p224
(dp225
g10
(imyEvolve
Tree
p226
(dp227
g13
I0
sg14
I00
sbsg13
I1
sg15
I01
sg16
g42
sbsg13
I2
sg15
I01
sg16
g42
sbsg13
I3
sg15
I01
sg16
g51
sba(imyEvolve
Tree
p228
(dp229
g10
(imyEvolve
Tree
p230
(dp231
g7
(imyEvolve
Tree
p232
(dp233
g7
(imyEvolve
Tree
p234
(dp235
g13
I0
sg23
F-0.03993167120625429
sg14
I01
sbsg13
I1
sg18
(imyEvolve
Tree
p236
(dp237
g13
I0
sg23
F-0.5149591048081525
sg14
I01
sbsg15
I00
sg16
g64
sbsg13
I2
sg18
(imyEvolve
Tree
p238
(dp239
g7
(imyEvolve
Tree
p240
(dp241
g13
I0
sg23
F2.8233851811766097
sg14
I01
sbsg13
I1
sg18
(imyEvolve
Tree
p242
(dp243
g13
I0
sg23
F3.370592278098014
sg14
I01
sbsg15
I00
sg16
g26
sbsg15
I00
sg16
g64
sbsg13
I3
sg15
I01
sg16
g51
sba(imyEvolve
Tree
p244
(dp245
g10
(imyEvolve
Tree
p246
(dp247
g7
(imyEvolve
Tree
p248
(dp249
g10
(imyEvolve
Tree
p250
(dp251
g13
I0
sg23
F2.0522991062125326
sg14
I01
sbsg13
I1
sg15
I01
sg16
g95
sbsg13
I2
sg18
(imyEvolve
Tree
p252
(dp253
g10
(imyEvolve
Tree
p254
(dp255
g13
I0
sg14
I00
sbsg13
I1
sg15
I01
sg16
g42
sbsg15
I00
sg16
g64
sbsg13
I3
sg15
I01
sg16
g42
sba(imyEvolve
Tree
p256
(dp257
g7
(imyEvolve
Tree
p258
(dp259
g10
(imyEvolve
Tree
p260
(dp261
g13
I0
sg23
F-2.730835104919187
sg14
I01
sbsg13
I1
sg15
I01
sg16
g42
sbsg13
I2
sg18
(imyEvolve
Tree
p262
(dp263
g7
(imyEvolve
Tree
p264
(dp265
g13
I0
sg14
I00
sbsg13
I1
sg18
(imyEvolve
Tree
p266
(dp267
g13
I0
sg14
I00
sbsg15
I00
sg16
g27
sbsg15
I00
sg16
g64
sba(imyEvolve
Tree
p268
(dp269
g10
(imyEvolve
Tree
p270
(dp271
g7
(imyEvolve
Tree
p272
(dp273
g7
(imyEvolve
Tree
p274
(dp275
g10
(imyEvolve
Tree
p276
(dp277
g7
(imyEvolve
Tree
p278
(dp279
g13
I0
sg14
I00
sbsg13
I1
sg18
(imyEvolve
Tree
p280
(dp281
g13
I0
sg23
F-1.0113882231459828
sg14
I01
sbsg15
I00
sg16
g26
sbsg13
I2
sg15
I01
sg16
g17
sbsg13
I3
sg18
(imyEvolve
Tree
p282
(dp283
g7
(imyEvolve
Tree
p284
(dp285
g10
(imyEvolve
Tree
p286
(dp287
g13
I0
sg14
I00
sbsg13
I1
sg15
I01
sg16
g95
sbsg13
I2
sg18
(imyEvolve
Tree
p288
(dp289
g7
(imyEvolve
Tree
p290
(dp291
g13
I0
sg23
F3.210633958772343
sg14
I01
sbsg13
I1
sg18
(imyEvolve
Tree
p292
(dp293
g13
I0
sg23
F1.378123217879164
sg14
I01
sbsg15
I00
sg16
g26
sbsg15
I00
sg16
g27
sbsg15
I00
sg16
g64
sbsg13
I4
sg18
(imyEvolve
Tree
p294
(dp295
g7
(imyEvolve
Tree
p296
(dp297
g10
(imyEvolve
Tree
p298
(dp299
g7
(imyEvolve
Tree
p300
(dp301
g13
I0
sg23
F-2.1788627147389072
sg14
I01
sbsg13
I1
sg18
(imyEvolve
Tree
p302
(dp303
g13
I0
sg14
I00
sbsg15
I00
sg16
g26
sbsg13
I2
sg15
I01
sg16
g51
sbsg13
I3
sg18
(imyEvolve
Tree
p304
(dp305
g7
(imyEvolve
Tree
p306
(dp307
g7
(imyEvolve
Tree
p308
(dp309
g13
I0
sg14
I00
sbsg13
I1
sg18
(imyEvolve
Tree
p310
(dp311
g13
I0
sg14
I00
sbsg15
I00
sg16
g26
sbsg13
I2
sg18
(imyEvolve
Tree
p312
(dp313
g7
(imyEvolve
Tree
p314
(dp315
g13
I0
sg14
I00
sbsg13
I1
sg18
(imyEvolve
Tree
p316
(dp317
g13
I0
sg23
F2.5786830616325327
sg14
I01
sbsg15
I00
sg16
g64
sbsg15
I00
sg16
g26
sbsg15
I00
sg16
g26
sbsg15
I00
sg16
g26
sbsg13
I5
sg15
I01
sg16
g51
sba(imyEvolve
Tree
p318
(dp319
g10
(imyEvolve
Tree
p320
(dp321
g10
(imyEvolve
Tree
p322
(dp323
g10
(imyEvolve
Tree
p324
(dp325
g13
I1
sg7
(imyEvolve
Tree
p326
(dp327
g13
I0
sg14
I00
sbsg18
(imyEvolve
Tree
p328
(dp329
g13
I0
sg23
F-4.081385644266188
sg14
I01
sbsg15
I00
sg16
g64
sbsg13
I2
sg15
I01
sg16
g51
sbsg13
I3
sg15
I01
sg16
g42
sbsg13
I4
sg15
I01
sg16
g95
sba(imyEvolve
Tree
p330
(dp331
g10
(imyEvolve
Tree
p332
(dp333
g10
(imyEvolve
Tree
p334
(dp335
g13
I1
sg7
(imyEvolve
Tree
p336
(dp337
g13
I0
sg23
F-1.0661463691194086
sg14
I01
sbsg18
(imyEvolve
Tree
p338
(dp339
g13
I0
sg14
I00
sbsg15
I00
sg16
g64
sbsg13
I2
sg15
I01
sg16
g95
sbsg13
I3
sg15
I01
sg16
g17
sba(imyEvolve
Tree
p340
(dp341
g10
(imyEvolve
Tree
p342
(dp343
g7
(imyEvolve
Tree
p344
(dp345
g10
(imyEvolve
Tree
p346
(dp347
g10
(imyEvolve
Tree
p348
(dp349
g13
I0
sg23
F1.2673741460726085
sg14
I01
sbsg13
I1
sg15
I01
sg16
g42
sbsg13
I2
sg15
I01
sg16
g17
sbsg13
I3
sg18
(imyEvolve
Tree
p350
(dp351
g7
(imyEvolve
Tree
p352
(dp353
g7
(imyEvolve
Tree
p354
(dp355
g13
I0
sg14
I00
sbsg13
I1
sg18
(imyEvolve
Tree
p356
(dp357
g13
I0
sg23
F1.1813954358826475
sg14
I01
sbsg15
I00
sg16
g64
sbsg13
I2
sg18
(imyEvolve
Tree
p358
(dp359
g10
(imyEvolve
Tree
p360
(dp361
g13
I0
sg23
F1.9851409186653566
sg14
I01
sbsg13
I1
sg15
I01
sg16
g95
sbsg15
I00
sg16
g26
sbsg15
I00
sg16
g26
sbsg13
I4
sg15
I01
sg16
g51
sba(imyEvolve
Tree
p362
(dp363
g10
(imyEvolve
Tree
p364
(dp365
g7
(imyEvolve
Tree
p366
(dp367
g13
I0
sg14
I00
sbsg13
I1
sg18
(imyEvolve
Tree
p368
(dp369
g13
I0
sg23
F-3.5713627831542105
sg14
I01
sbsg15
I00
sg16
g26
sbsg13
I2
sg15
I01
sg16
g51
sba(imyEvolve
Tree
p370
(dp371
g10
(imyEvolve
Tree
p372
(dp373
g7
(imyEvolve
Tree
p374
(dp375
g10
(imyEvolve
Tree
p376
(dp377
g10
(imyEvolve
Tree
p378
(dp379
g13
I0
sg23
F4.621639351528035
sg14
I01
sbsg13
I1
sg15
I01
sg16
g17
sbsg13
I2
sg15
I01
sg16
g17
sbsg13
I3
sg18
(imyEvolve
Tree
p380
(dp381
g10
(imyEvolve
Tree
p382
(dp383
g7
(imyEvolve
Tree
p384
(dp385
g13
I0
sg14
I00
sbsg13
I1
sg18
(imyEvolve
Tree
p386
(dp387
g13
I0
sg14
I00
sbsg15
I00
sg16
g26
sbsg13
I2
sg15
I01
sg16
g95
sbsg15
I00
sg16
g64
sbsg13
I4
sg15
I01
sg16
g95
sba(imyEvolve
Tree
p388
(dp389
g7
(imyEvolve
Tree
p390
(dp391
g10
(imyEvolve
Tree
p392
(dp393
g7
(imyEvolve
Tree
p394
(dp395
g7
(imyEvolve
Tree
p396
(dp397
g13
I0
sg23
F-2.333072058415188
sg14
I01
sbsg13
I1
sg18
(imyEvolve
Tree
p398
(dp399
g13
I0
sg14
I00
sbsg15
I00
sg16
g26
sbsg13
I2
sg18
(imyEvolve
Tree
p400
(dp401
g10
(imyEvolve
Tree
p402
(dp403
g13
I0
sg14
I00
sbsg13
I1
sg15
I01
sg16
g95
sbsg15
I00
sg16
g64
sbsg13
I3
sg15
I01
sg16
g95
sbsg13
I4
sg18
(imyEvolve
Tree
p404
(dp405
g7
(imyEvolve
Tree
p406
(dp407
g10
(imyEvolve
Tree
p408
(dp409
g10
(imyEvolve
Tree
p410
(dp411
g13
I0
sg14
I00
sbsg13
I1
sg15
I01
sg16
g95
sbsg13
I2
sg15
I01
sg16
g17
sbsg13
I3
sg18
(imyEvolve
Tree
p412
(dp413
g7
(imyEvolve
Tree
p414
(dp415
g10
(imyEvolve
Tree
p416
(dp417
g13
I0
sg23
F-1.1860108469205057
sg14
I01
sbsg13
I1
sg15
I01
sg16
g42
sbsg13
I2
sg18
(imyEvolve
Tree
p418
(dp419
g7
(imyEvolve
Tree
p420
(dp421
g13
I0
sg14
I00
sbsg13
I1
sg18
(imyEvolve
Tree
p422
(dp423
g13
I0
sg14
I00
sbsg15
I00
sg16
g26
sbsg15
I00
sg16
g26
sbsg15
I00
sg16
g26
sbsg15
I00
sg16
g64
sba(imyEvolve
Tree
p424
(dp425
g10
(imyEvolve
Tree
p426
(dp427
g10
(imyEvolve
Tree
p428
(dp429
g13
I3
sg7
(imyEvolve
Tree
p430
(dp431
g10
(imyEvolve
Tree
p432
(dp433
g10
(imyEvolve
Tree
p434
(dp435
g13
I0
sg23
F-3.986944821787468
sg14
I01
sbsg13
I1
sg15
I01
sg16
g17
sbsg13
I2
sg15
I01
sg16
g51
sbsg18
(imyEvolve
Tree
p436
(dp437
g13
I2
sg7
(imyEvolve
Tree
p438
(dp439
g10
(imyEvolve
Tree
p440
(dp441
g13
I0
sg14
I00
sbsg13
I1
sg15
I01
sg16
g42
sbsg18
(imyEvolve
Tree
p442
(dp443
g13
I1
sg7
(imyEvolve
Tree
p444
(dp445
g13
I0
sg14
I00
sbsg18
(imyEvolve
Tree
p446
(dp447
g13
I0
sg14
I00
sbsg15
I00
sg16
g26
sbsg15
I00
sg16
g26
sbsg15
I00
sg16
g27
sbsg13
I4
sg15
I01
sg16
g95
sbsg13
I5
sg15
I01
sg16
g51
sbaa(lp448
(imyEvolve
Tree
p449
(dp450
g10
(imyEvolve
Tree
p451
(dp452
g13
I2
sg7
(imyEvolve
Tree
p453
(dp454
g10
(imyEvolve
Tree
p455
(dp456
g13
I0
sg23
F0.02604572533389593
sg14
I01
sbsg13
I1
sg15
I01
sg16
g17
sbsg18
(imyEvolve
Tree
p457
(dp458
g10
(imyEvolve
Tree
p459
(dp460
g13
I0
sg23
F2.003724565938912
sg14
I01
sbsg13
I1
sg15
I01
sg16
g17
sbsg15
I00
sg16
g64
sbsg13
I3
sg15
I01
sg16
g42
sba(imyEvolve
Tree
p461
(dp462
g7
(imyEvolve
Tree
p463
(dp464
g10
(imyEvolve
Tree
p465
(dp466
g13
I0
sg23
F-4.102018097452792
sg14
I01
sbsg13
I1
sg15
I01
sg16
g42
sbsg13
I2
sg18
(imyEvolve
Tree
p467
(dp468
g10
(imyEvolve
Tree
p469
(dp470
g13
I0
sg23
F-1.103799335200696
sg14
I01
sbsg13
I1
sg15
I01
sg16
g17
sbsg15
I00
sg16
g64
sba(imyEvolve
Tree
p471
(dp472
g7
(imyEvolve
Tree
p473
(dp474
g10
(imyEvolve
Tree
p475
(dp476
g13
I0
sg14
I00
sbsg13
I1
sg15
I01
sg16
g95
sbsg13
I2
sg18
(imyEvolve
Tree
p477
(dp478
g7
(imyEvolve
Tree
p479
(dp480
g13
I0
sg14
I00
sbsg13
I1
sg18
(imyEvolve
Tree
p481
(dp482
g13
I0
sg14
I00
sbsg15
I00
sg16
g27
sbsg15
I00
sg16
g27
sba(imyEvolve
Tree
p483
(dp484
g7
(imyEvolve
Tree
p485
(dp486
g10
(imyEvolve
Tree
p487
(dp488
g7
(imyEvolve
Tree
p489
(dp490
g10
(imyEvolve
Tree
p491
(dp492
g13
I0
sg14
I00
sbsg13
I1
sg15
I01
sg16
g51
sbsg13
I2
sg18
(imyEvolve
Tree
p493
(dp494
g7
(imyEvolve
Tree
p495
(dp496
g13
I0
sg23
F-1.3856565181639366
sg14
I01
sbsg13
I1
sg18
(imyEvolve
Tree
p497
(dp498
g13
I0
sg14
I00
sbsg15
I00
sg16
g26
sbsg15
I00
sg16
g64
sbsg13
I3
sg15
I01
sg16
g42
sbsg13
I4
sg18
(imyEvolve
Tree
p499
(dp500
g7
(imyEvolve
Tree
p501
(dp502
g10
(imyEvolve
Tree
p503
(dp504
g10
(imyEvolve
Tree
p505
(dp506
g13
I0
sg23
F-4.664571699332604
sg14
I01
sbsg13
I1
sg15
I01
sg16
g17
sbsg13
I2
sg15
I01
sg16
g95
sbsg13
I3
sg18
(imyEvolve
Tree
p507
(dp508
g7
(imyEvolve
Tree
p509
(dp510
g7
(imyEvolve
Tree
p511
(dp512
g13
I0
sg14
I00
sbsg13
I1
sg18
(imyEvolve
Tree
p513
(dp514
g13
I0
sg23
F4.061115404924191
sg14
I01
sbsg15
I00
sg16
g64
sbsg13
I2
sg18
(imyEvolve
Tree
p515
(dp516
g7
(imyEvolve
Tree
p517
(dp518
g13
I0
sg14
I00
sbsg13
I1
sg18
(imyEvolve
Tree
p519
(dp520
g13
I0
sg23
F-0.8345457042793845
sg14
I01
sbsg15
I00
sg16
g27
sbsg15
I00
sg16
g27
sbsg15
I00
sg16
g27
sbsg15
I00
sg16
g27
sba(imyEvolve
Tree
p521
(dp522
g7
(imyEvolve
Tree
p523
(dp524
g7
(imyEvolve
Tree
p525
(dp526
g10
(imyEvolve
Tree
p527
(dp528
g7
(imyEvolve
Tree
p529
(dp530
g10
(imyEvolve
Tree
p531
(dp532
g13
I0
sg14
I00
sbsg13
I1
sg15
I01
sg16
g42
sbsg13
I2
sg18
(imyEvolve
Tree
p533
(dp534
g10
(imyEvolve
Tree
p535
(dp536
g13
I0
sg23
F-1.495007676420422
sg14
I01
sbsg13
I1
sg15
I01
sg16
g17
sbsg15
I00
sg16
g27
sbsg13
I3
sg15
I01
sg16
g95
sbsg13
I4
sg18
(imyEvolve
Tree
p537
(dp538
g7
(imyEvolve
Tree
p539
(dp540
g10
(imyEvolve
Tree
p541
(dp542
g10
(imyEvolve
Tree
p543
(dp544
g13
I0
sg23
F-1.0584899895778257
sg14
I01
sbsg13
I1
sg15
I01
sg16
g95
sbsg13
I2
sg15
I01
sg16
g42
sbsg13
I3
sg18
(imyEvolve
Tree
p545
(dp546
g10
(imyEvolve
Tree
p547
(dp548
g7
(imyEvolve
Tree
p549
(dp550
g13
I0
sg14
I00
sbsg13
I1
sg18
(imyEvolve
Tree
p551
(dp552
g13
I0
sg14
I00
sbsg15
I00
sg16
g64
sbsg13
I2
sg15
I01
sg16
g42
sbsg15
I00
sg16
g64
sbsg15
I00
sg16
g64
sbsg13
I5
sg18
(imyEvolve
Tree
p553
(dp554
g7
(imyEvolve
Tree
p555
(dp556
g10
(imyEvolve
Tree
p557
(dp558
g10
(imyEvolve
Tree
p559
(dp560
g7
(imyEvolve
Tree
p561
(dp562
g13
I0
sg23
F-4.053300571933121
sg14
I01
sbsg13
I1
sg18
(imyEvolve
Tree
p563
(dp564
g13
I0
sg14
I00
sbsg15
I00
sg16
g26
sbsg13
I2
sg15
I01
sg16
g51
sbsg13
I3
sg15
I01
sg16
g17
sbsg13
I4
sg18
(imyEvolve
Tree
p565
(dp566
g7
(imyEvolve
Tree
p567
(dp568
g7
(imyEvolve
Tree
p569
(dp570
g10
(imyEvolve
Tree
p571
(dp572
g13
I0
sg14
I00
sbsg13
I1
sg15
I01
sg16
g95
sbsg13
I2
sg18
(imyEvolve
Tree
p573
(dp574
g10
(imyEvolve
Tree
p575
(dp576
g13
I0
sg23
F-1.716418313909621
sg14
I01
sbsg13
I1
sg15
I01
sg16
g42
sbsg15
I00
sg16
g64
sbsg13
I3
sg18
(imyEvolve
Tree
p577
(dp578
g7
(imyEvolve
Tree
p579
(dp580
g7
(imyEvolve
Tree
p581
(dp582
g13
I0
sg23
F4.600271725428852
sg14
I01
sbsg13
I1
sg18
(imyEvolve
Tree
p583
(dp584
g13
I0
sg23
F1.686821794750771
sg14
I01
sbsg15
I00
sg16
g26
sbsg13
I2
sg18
(imyEvolve
Tree
p585
(dp586
g10
(imyEvolve
Tree
p587
(dp588
g13
I0
sg23
F4.459644316834634
sg14
I01
sbsg13
I1
sg15
I01
sg16
g95
sbsg15
I00
sg16
g26
sbsg15
I00
sg16
g26
sbsg15
I00
sg16
g26
sbsg15
I00
sg16
g27
sba(imyEvolve
Tree
p589
(dp590
g7
(imyEvolve
Tree
p591
(dp592
g7
(imyEvolve
Tree
p593
(dp594
g10
(imyEvolve
Tree
p595
(dp596
g13
I0
sg14
I00
sbsg13
I1
sg15
I01
sg16
g42
sbsg13
I2
sg18
(imyEvolve
Tree
p597
(dp598
g10
(imyEvolve
Tree
p599
(dp600
g13
I0
sg23
F-2.714371031844326
sg14
I01
sbsg13
I1
sg15
I01
sg16
g17
sbsg15
I00
sg16
g26
sbsg13
I3
sg18
(imyEvolve
Tree
p601
(dp602
g10
(imyEvolve
Tree
p603
(dp604
g10
(imyEvolve
Tree
p605
(dp606
g13
I0
sg23
F-0.4915607658529506
sg14
I01
sbsg13
I1
sg15
I01
sg16
g17
sbsg13
I2
sg15
I01
sg16
g95
sbsg15
I00
sg16
g26
sba(imyEvolve
Tree
p607
(dp608
g13
I2
sg7
(imyEvolve
Tree
p609
(dp610
g13
I1
sg7
(imyEvolve
Tree
p611
(dp612
g13
I0
sg14
I00
sbsg18
(imyEvolve
Tree
p613
(dp614
g13
I0
sg23
F-0.1944992110365007
sg14
I01
sbsg15
I00
sg16
g64
sbsg18
(imyEvolve
Tree
p615
(dp616
g10
(imyEvolve
Tree
p617
(dp618
g13
I0
sg14
I00
sbsg13
I1
sg15
I01
sg16
g42
sbsg15
I00
sg16
g64
sba(imyEvolve
Tree
p619
(dp620
g7
(imyEvolve
Tree
p621
(dp622
g10
(imyEvolve
Tree
p623
(dp624
g7
(imyEvolve
Tree
p625
(dp626
g7
(imyEvolve
Tree
p627
(dp628
g10
(imyEvolve
Tree
p629
(dp630
g13
I0
sg23
F0.07053482830773916
sg14
I01
sbsg13
I1
sg15
I01
sg16
g42
sbsg13
I2
sg18
(imyEvolve
Tree
p631
(dp632
g7
(imyEvolve
Tree
p633
(dp634
g13
I0
sg14
I00
sbsg13
I1
sg18
(imyEvolve
Tree
p635
(dp636
g13
I0
sg14
I00
sbsg15
I00
sg16
g27
sbsg15
I00
sg16
g27
sbsg13
I3
sg18
(imyEvolve
Tree
p637
(dp638
g7
(imyEvolve
Tree
p639
(dp640
g7
(imyEvolve
Tree
p641
(dp642
g13
I0
sg14
I00
sbsg13
I1
sg18
(imyEvolve
Tree
p643
(dp644
g13
I0
sg14
I00
sbsg15
I00
sg16
g27
sbsg13
I2
sg18
(imyEvolve
Tree
p645
(dp646
g7
(imyEvolve
Tree
p647
(dp648
g13
I0
sg14
I00
sbsg13
I1
sg18
(imyEvolve
Tree
p649
(dp650
g13
I0
sg14
I00
sbsg15
I00
sg16
g26
sbsg15
I00
sg16
g64
sbsg15
I00
sg16
g64
sbsg13
I4
sg15
I01
sg16
g95
sbsg13
I5
sg18
(imyEvolve
Tree
p651
(dp652
g10
(imyEvolve
Tree
p653
(dp654
g7
(imyEvolve
Tree
p655
(dp656
g7
(imyEvolve
Tree
p657
(dp658
g7
(imyEvolve
Tree
p659
(dp660
g13
I0
sg14
I00
sbsg13
I1
sg18
(imyEvolve
Tree
p661
(dp662
g13
I0
sg14
I00
sbsg15
I00
sg16
g26
sbsg13
I2
sg18
(imyEvolve
Tree
p663
(dp664
g7
(imyEvolve
Tree
p665
(dp666
g13
I0
sg23
F3.051346654255127
sg14
I01
sbsg13
I1
sg18
(imyEvolve
Tree
p667
(dp668
g13
I0
sg14
I00
sbsg15
I00
sg16
g27
sbsg15
I00
sg16
g26
sbsg13
I3
sg18
(imyEvolve
Tree
p669
(dp670
g7
(imyEvolve
Tree
p671
(dp672
g7
(imyEvolve
Tree
p673
(dp674
g13
I0
sg14
I00
sbsg13
I1
sg18
(imyEvolve
Tree
p675
(dp676
g13
I0
sg14
I00
sbsg15
I00
sg16
g64
sbsg13
I2
sg18
(imyEvolve
Tree
p677
(dp678
g10
(imyEvolve
Tree
p679
(dp680
g13
I0
sg14
I00
sbsg13
I1
sg15
I01
sg16
g51
sbsg15
I00
sg16
g27
sbsg15
I00
sg16
g27
sbsg13
I4
sg15
I01
sg16
g42
sbsg15
I00
sg16
g27
sba(imyEvolve
Tree
p681
(dp682
g13
I4
sg7
(imyEvolve
Tree
p683
(dp684
g10
(imyEvolve
Tree
p685
(dp686
g13
I2
sg7
(imyEvolve
Tree
p687
(dp688
g13
I1
sg7
(imyEvolve
Tree
p689
(dp690
g13
I0
sg14
I00
sbsg18
(imyEvolve
Tree
p691
(dp692
g13
I0
sg14
I00
sbsg15
I00
sg16
g26
sbsg18
(imyEvolve
Tree
p693
(dp694
g13
I1
sg7
(imyEvolve
Tree
p695
(dp696
g13
I0
sg23
F-4.374703641101716
sg14
I01
sbsg18
(imyEvolve
Tree
p697
(dp698
g13
I0
sg14
I00
sbsg15
I00
sg16
g26
sbsg15
I00
sg16
g64
sbsg13
I3
sg15
I01
sg16
g17
sbsg18
(imyEvolve
Tree
p699
(dp700
g13
I3
sg7
(imyEvolve
Tree
p701
(dp702
g10
(imyEvolve
Tree
p703
(dp704
g10
(imyEvolve
Tree
p705
(dp706
g13
I0
sg14
I00
sbsg13
I1
sg15
I01
sg16
g51
sbsg13
I2
sg15
I01
sg16
g17
sbsg18
(imyEvolve
Tree
p707
(dp708
g13
I2
sg7
(imyEvolve
Tree
p709
(dp710
g10
(imyEvolve
Tree
p711
(dp712
g13
I0
sg23
F4.742763491737257
sg14
I01
sbsg13
I1
sg15
I01
sg16
g17
sbsg18
(imyEvolve
Tree
p713
(dp714
g10
(imyEvolve
Tree
p715
(dp716
g13
I0
sg14
I00
sbsg13
I1
sg15
I01
sg16
g17
sbsg15
I00
sg16
g26
sbsg15
I00
sg16
g26
sbsg15
I00
sg16
g27
sba(imyEvolve
Tree
p717
(dp718
g10
(imyEvolve
Tree
p719
(dp720
g10
(imyEvolve
Tree
p721
(dp722
g10
(imyEvolve
Tree
p723
(dp724
g7
(imyEvolve
Tree
p725
(dp726
g13
I0
sg23
F4.004720502461838
sg14
I01
sbsg13
I1
sg18
(imyEvolve
Tree
p727
(dp728
g13
I0
sg14
I00
sbsg15
I00
sg16
g26
sbsg13
I2
sg15
I01
sg16
g42
sbsg13
I3
sg15
I01
sg16
g51
sbsg13
I4
sg15
I01
sg16
g17
sba(imyEvolve
Tree
p729
(dp730
g13
I3
sg7
(imyEvolve
Tree
p731
(dp732
g13
I2
sg7
(imyEvolve
Tree
p733
(dp734
g10
(imyEvolve
Tree
p735
(dp736
g13
I0
sg14
I00
sbsg13
I1
sg15
I01
sg16
g17
sbsg18
(imyEvolve
Tree
p737
(dp738
g13
I1
sg7
(imyEvolve
Tree
p739
(dp740
g13
I0
sg14
I00
sbsg18
(imyEvolve
Tree
p741
(dp742
g13
I0
sg23
F4.559895938256272
sg14
I01
sbsg15
I00
sg16
g64
sbsg15
I00
sg16
g64
sbsg18
(imyEvolve
Tree
p743
(dp744
g10
(imyEvolve
Tree
p745
(dp746
g10
(imyEvolve
Tree
p747
(dp748
g13
I0
sg23
F-2.8964196087961502
sg14
I01
sbsg13
I1
sg15
I01
sg16
g95
sbsg13
I2
sg15
I01
sg16
g51
sbsg15
I00
sg16
g27
sba(imyEvolve
Tree
p749
(dp750
g7
(imyEvolve
Tree
p751
(dp752
g10
(imyEvolve
Tree
p753
(dp754
g10
(imyEvolve
Tree
p755
(dp756
g10
(imyEvolve
Tree
p757
(dp758
g13
I0
sg14
I00
sbsg13
I1
sg15
I01
sg16
g51
sbsg13
I2
sg15
I01
sg16
g17
sbsg13
I3
sg15
I01
sg16
g95
sbsg13
I4
sg18
(imyEvolve
Tree
p759
(dp760
g10
(imyEvolve
Tree
p761
(dp762
g7
(imyEvolve
Tree
p763
(dp764
g7
(imyEvolve
Tree
p765
(dp766
g13
I0
sg23
F0.8533206227983179
sg14
I01
sbsg13
I1
sg18
(imyEvolve
Tree
p767
(dp768
g13
I0
sg14
I00
sbsg15
I00
sg16
g64
sbsg13
I2
sg18
(imyEvolve
Tree
p769
(dp770
g10
(imyEvolve
Tree
p771
(dp772
g13
I0
sg14
I00
sbsg13
I1
sg15
I01
sg16
g17
sbsg15
I00
sg16
g64
sbsg13
I3
sg15
I01
sg16
g42
sbsg15
I00
sg16
g27
sba(imyEvolve
Tree
p773
(dp774
g10
(imyEvolve
Tree
p775
(dp776
g7
(imyEvolve
Tree
p777
(dp778
g13
I0
sg23
F0.5924679435789333
sg14
I01
sbsg13
I1
sg18
(imyEvolve
Tree
p779
(dp780
g13
I0
sg14
I00
sbsg15
I00
sg16
g26
sbsg13
I2
sg15
I01
sg16
g95
sba(imyEvolve
Tree
p781
(dp782
g7
(imyEvolve
Tree
p783
(dp784
g10
(imyEvolve
Tree
p785
(dp786
g10
(imyEvolve
Tree
p787
(dp788
g10
(imyEvolve
Tree
p789
(dp790
g10
(imyEvolve
Tree
p791
(dp792
g13
I0
sg23
F-1.580039613297969
sg14
I01
sbsg13
I1
sg15
I01
sg16
g51
sbsg13
I2
sg15
I01
sg16
g17
sbsg13
I3
sg15
I01
sg16
g17
sbsg13
I4
sg15
I01
sg16
g17
sbsg13
I5
sg18
(imyEvolve
Tree
p793
(dp794
g7
(imyEvolve
Tree
p795
(dp796
g10
(imyEvolve
Tree
p797
(dp798
g10
(imyEvolve
Tree
p799
(dp800
g7
(imyEvolve
Tree
p801
(dp802
g13
I0
sg14
I00
sbsg13
I1
sg18
(imyEvolve
Tree
p803
(dp804
g13
I0
sg14
I00
sbsg15
I00
sg16
g27
sbsg13
I2
sg15
I01
sg16
g17
sbsg13
I3
sg15
I01
sg16
g17
sbsg13
I4
sg18
(imyEvolve
Tree
p805
(dp806
g10
(imyEvolve
Tree
p807
(dp808
g10
(imyEvolve
Tree
p809
(dp810
g10
(imyEvolve
Tree
p811
(dp812
g13
I0
sg23
F-1.3052000480599588
sg14
I01
sbsg13
I1
sg15
I01
sg16
g17
sbsg13
I2
sg15
I01
sg16
g51
sbsg13
I3
sg15
I01
sg16
g17
sbsg15
I00
sg16
g64
sbsg15
I00
sg16
g27
sba(imyEvolve
Tree
p813
(dp814
g7
(imyEvolve
Tree
p815
(dp816
g7
(imyEvolve
Tree
p817
(dp818
g7
(imyEvolve
Tree
p819
(dp820
g10
(imyEvolve
Tree
p821
(dp822
g13
I0
sg23
F3.110522686969542
sg14
I01
sbsg13
I1
sg15
I01
sg16
g51
sbsg13
I2
sg18
(imyEvolve
Tree
p823
(dp824
g7
(imyEvolve
Tree
p825
(dp826
g13
I0
sg23
F3.5497262842872743
sg14
I01
sbsg13
I1
sg18
(imyEvolve
Tree
p827
(dp828
g13
I0
sg23
F4.287766952472632
sg14
I01
sbsg15
I00
sg16
g64
sbsg15
I00
sg16
g64
sbsg13
I3
sg18
(imyEvolve
Tree
p829
(dp830
g10
(imyEvolve
Tree
p831
(dp832
g7
(imyEvolve
Tree
p833
(dp834
g13
I0
sg23
F2.819410729463386
sg14
I01
sbsg13
I1
sg18
(imyEvolve
Tree
p835
(dp836
g13
I0
sg23
F-1.1342960213841713
sg14
I01
sbsg15
I00
sg16
g26
sbsg13
I2
sg15
I01
sg16
g17
sbsg15
I00
sg16
g27
sbsg13
I4
sg18
(imyEvolve
Tree
p837
(dp838
g10
(imyEvolve
Tree
p839
(dp840
g10
(imyEvolve
Tree
p841
(dp842
g10
(imyEvolve
Tree
p843
(dp844
g13
I0
sg14
I00
sbsg13
I1
sg15
I01
sg16
g51
sbsg13
I2
sg15
I01
sg16
g17
sbsg13
I3
sg15
I01
sg16
g42
sbsg15
I00
sg16
g64
sba(imyEvolve
Tree
p845
(dp846
g10
(imyEvolve
Tree
p847
(dp848
g10
(imyEvolve
Tree
p849
(dp850
g10
(imyEvolve
Tree
p851
(dp852
g13
I2
sg7
(imyEvolve
Tree
p853
(dp854
g10
(imyEvolve
Tree
p855
(dp856
g13
I0
sg14
I00
sbsg13
I1
sg15
I01
sg16
g17
sbsg18
(imyEvolve
Tree
p857
(dp858
g10
(imyEvolve
Tree
p859
(dp860
g13
I0
sg23
F0.6091086026155637
sg14
I01
sbsg13
I1
sg15
I01
sg16
g42
sbsg15
I00
sg16
g27
sbsg13
I3
sg15
I01
sg16
g17
sbsg13
I4
sg15
I01
sg16
g42
sbsg13
I5
sg15
I01
sg16
g42
sba(imyEvolve
Tree
p861
(dp862
g7
(imyEvolve
Tree
p863
(dp864
g7
(imyEvolve
Tree
p865
(dp866
g10
(imyEvolve
Tree
p867
(dp868
g10
(imyEvolve
Tree
p869
(dp870
g13
I0
sg14
I00
sbsg13
I1
sg15
I01
sg16
g95
sbsg13
I2
sg15
I01
sg16
g51
sbsg13
I3
sg18
(imyEvolve
Tree
p871
(dp872
g7
(imyEvolve
Tree
p873
(dp874
g10
(imyEvolve
Tree
p875
(dp876
g13
I0
sg14
I00
sbsg13
I1
sg15
I01
sg16
g42
sbsg13
I2
sg18
(imyEvolve
Tree
p877
(dp878
g7
(imyEvolve
Tree
p879
(dp880
g13
I0
sg14
I00
sbsg13
I1
sg18
(imyEvolve
Tree
p881
(dp882
g13
I0
sg23
F4.863990904785201
sg14
I01
sbsg15
I00
sg16
g26
sbsg15
I00
sg16
g26
sbsg15
I00
sg16
g26
sbsg13
I4
sg18
(imyEvolve
Tree
p883
(dp884
g10
(imyEvolve
Tree
p885
(dp886
g10
(imyEvolve
Tree
p887
(dp888
g7
(imyEvolve
Tree
p889
(dp890
g13
I0
sg23
F3.6586648237888557
sg14
I01
sbsg13
I1
sg18
(imyEvolve
Tree
p891
(dp892
g13
I0
sg14
I00
sbsg15
I00
sg16
g26
sbsg13
I2
sg15
I01
sg16
g17
sbsg13
I3
sg15
I01
sg16
g51
sbsg15
I00
sg16
g64
sbaa(lp893
(imyEvolve
Tree
p894
(dp895
g10
(imyEvolve
Tree
p896
(dp897
g13
I1
sg7
(imyEvolve
Tree
p898
(dp899
g13
I0
sg14
I00
sbsg18
(imyEvolve
Tree
p900
(dp901
g13
I0
sg23
F1.9719081267320169
sg14
I01
sbsg15
I00
sg16
g27
sbsg13
I2
sg15
I01
sg16
g42
sba(imyEvolve
Tree
p902
(dp903
g7
(imyEvolve
Tree
p904
(dp905
g7
(imyEvolve
Tree
p906
(dp907
g10
(imyEvolve
Tree
p908
(dp909
g7
(imyEvolve
Tree
p910
(dp911
g10
(imyEvolve
Tree
p912
(dp913
g13
I0
sg14
I00
sbsg13
I1
sg15
I01
sg16
g17
sbsg13
I2
sg18
(imyEvolve
Tree
p914
(dp915
g7
(imyEvolve
Tree
p916
(dp917
g13
I0
sg14
I00
sbsg13
I1
sg18
(imyEvolve
Tree
p918
(dp919
g13
I0
sg14
I00
sbsg15
I00
sg16
g27
sbsg15
I00
sg16
g27
sbsg13
I3
sg15
I01
sg16
g95
sbsg13
I4
sg18
(imyEvolve
Tree
p920
(dp921
g10
(imyEvolve
Tree
p922
(dp923
g7
(imyEvolve
Tree
p924
(dp925
g7
(imyEvolve
Tree
p926
(dp927
g13
I0
sg23
F0.032535151273632934
sg14
I01
sbsg13
I1
sg18
(imyEvolve
Tree
p928
(dp929
g13
I0
sg23
F-4.010705466895673
sg14
I01
sbsg15
I00
sg16
g26
sbsg13
I2
sg18
(imyEvolve
Tree
p930
(dp931
g7
(imyEvolve
Tree
p932
(dp933
g13
I0
sg14
I00
sbsg13
I1
sg18
(imyEvolve
Tree
p934
(dp935
g13
I0
sg23
F3.0567870152411345
sg14
I01
sbsg15
I00
sg16
g26
sbsg15
I00
sg16
g27
sbsg13
I3
sg15
I01
sg16
g51
sbsg15
I00
sg16
g64
sbsg13
I5
sg18
(imyEvolve
Tree
p936
(dp937
g10
(imyEvolve
Tree
p938
(dp939
g10
(imyEvolve
Tree
p940
(dp941
g7
(imyEvolve
Tree
p942
(dp943
g7
(imyEvolve
Tree
p944
(dp945
g13
I0
sg23
F1.3566357771950122
sg14
I01
sbsg13
I1
sg18
(imyEvolve
Tree
p946
(dp947
g13
I0
sg23
F-1.7038694910070817
sg14
I01
sbsg15
I00
sg16
g64
sbsg13
I2
sg18
(imyEvolve
Tree
p948
(dp949
g7
(imyEvolve
Tree
p950
(dp951
g13
I0
sg23
F-4.805202609685566
sg14
I01
sbsg13
I1
sg18
(imyEvolve
Tree
p952
(dp953
g13
I0
sg14
I00
sbsg15
I00
sg16
g26
sbsg15
I00
sg16
g27
sbsg13
I3
sg15
I01
sg16
g42
sbsg13
I4
sg15
I01
sg16
g51
sbsg15
I00
sg16
g26
sba(imyEvolve
Tree
p954
(dp955
g10
(imyEvolve
Tree
p956
(dp957
g7
(imyEvolve
Tree
p958
(dp959
g7
(imyEvolve
Tree
p960
(dp961
g13
I0
sg23
F3.1456975748575573
sg14
I01
sbsg13
I1
sg18
(imyEvolve
Tree
p962
(dp963
g13
I0
sg14
I00
sbsg15
I00
sg16
g64
sbsg13
I2
sg18
(imyEvolve
Tree
p964
(dp965
g10
(imyEvolve
Tree
p966
(dp967
g13
I0
sg14
I00
sbsg13
I1
sg15
I01
sg16
g17
sbsg15
I00
sg16
g26
sbsg13
I3
sg15
I01
sg16
g17
sba(imyEvolve
Tree
p968
(dp969
g7
(imyEvolve
Tree
p970
(dp971
g10
(imyEvolve
Tree
p972
(dp973
g13
I0
sg14
I00
sbsg13
I1
sg15
I01
sg16
g95
sbsg13
I2
sg18
(imyEvolve
Tree
p974
(dp975
g7
(imyEvolve
Tree
p976
(dp977
g13
I0
sg23
F1.0073655632145915
sg14
I01
sbsg13
I1
sg18
(imyEvolve
Tree
p978
(dp979
g13
I0
sg14
I00
sbsg15
I00
sg16
g27
sbsg15
I00
sg16
g64
sba(imyEvolve
Tree
p980
(dp981
g10
(imyEvolve
Tree
p982
(dp983
g10
(imyEvolve
Tree
p984
(dp985
g10
(imyEvolve
Tree
p986
(dp987
g13
I2
sg7
(imyEvolve
Tree
p988
(dp989
g13
I1
sg7
(imyEvolve
Tree
p990
(dp991
g13
I0
sg23
F2.4165436700886307
sg14
I01
sbsg18
(imyEvolve
Tree
p992
(dp993
g13
I0
sg14
I00
sbsg15
I00
sg16
g27
sbsg18
(imyEvolve
Tree
p994
(dp995
g10
(imyEvolve
Tree
p996
(dp997
g13
I0
sg14
I00
sbsg13
I1
sg15
I01
sg16
g42
sbsg15
I00
sg16
g27
sbsg13
I3
sg15
I01
sg16
g95
sbsg13
I4
sg15
I01
sg16
g42
sbsg13
I5
sg15
I01
sg16
g42
sba(imyEvolve
Tree
p998
(dp999
g10
(imyEvolve
Tree
p1000
(dp1001
g10
(imyEvolve
Tree
p1002
(dp1003
g10
(imyEvolve
Tree
p1004
(dp1005
g7
(imyEvolve
Tree
p1006
(dp1007
g10
(imyEvolve
Tree
p1008
(dp1009
g13
I0
sg23
F0.4238345021920109
sg14
I01
sbsg13
I1
sg15
I01
sg16
g42
sbsg13
I2
sg18
(imyEvolve
Tree
p1010
(dp1011
g7
(imyEvolve
Tree
p1012
(dp1013
g13
I0
sg23
F-4.0424621588014755
sg14
I01
sbsg13
I1
sg18
(imyEvolve
Tree
p1014
(dp1015
g13
I0
sg23
F-0.5251291177365509
sg14
I01
sbsg15
I00
sg16
g27
sbsg15
I00
sg16
g26
sbsg13
I3
sg15
I01
sg16
g42
sbsg13
I4
sg15
I01
sg16
g42
sbsg13
I5
sg15
I01
sg16
g51
sba(imyEvolve
Tree
p1016
(dp1017
g13
I4
sg7
(imyEvolve
Tree
p1018
(dp1019
g13
I3
sg7
(imyEvolve
Tree
p1020
(dp1021
g13
I2
sg7
(imyEvolve
Tree
p1022
(dp1023
g13
I1
sg7
(imyEvolve
Tree
p1024
(dp1025
g13
I0
sg14
I00
sbsg18
(imyEvolve
Tree
p1026
(dp1027
g13
I0
sg23
F3.3475485626225225
sg14
I01
sbsg15
I00
sg16
g26
sbsg18
(imyEvolve
Tree
p1028
(dp1029
g10
(imyEvolve
Tree
p1030
(dp1031
g13
I0
sg23
F-4.260605096215468
sg14
I01
sbsg13
I1
sg15
I01
sg16
g95
sbsg15
I00
sg16
g27
sbsg18
(imyEvolve
Tree
p1032
(dp1033
g13
I2
sg7
(imyEvolve
Tree
p1034
(dp1035
g10
(imyEvolve
Tree
p1036
(dp1037
g13
I0
sg14
I00
sbsg13
I1
sg15
I01
sg16
g51
sbsg18
(imyEvolve
Tree
p1038
(dp1039
g13
I1
sg7
(imyEvolve
Tree
p1040
(dp1041
g13
I0
sg14
I00
sbsg18
(imyEvolve
Tree
p1042
(dp1043
g13
I0
sg14
I00
sbsg15
I00
sg16
g64
sbsg15
I00
sg16
g64
sbsg15
I00
sg16
g64
sbsg18
(imyEvolve
Tree
p1044
(dp1045
g13
I3
sg7
(imyEvolve
Tree
p1046
(dp1047
g10
(imyEvolve
Tree
p1048
(dp1049
g10
(imyEvolve
Tree
p1050
(dp1051
g13
I0
sg14
I00
sbsg13
I1
sg15
I01
sg16
g95
sbsg13
I2
sg15
I01
sg16
g95
sbsg18
(imyEvolve
Tree
p1052
(dp1053
g13
I2
sg7
(imyEvolve
Tree
p1054
(dp1055
g13
I1
sg7
(imyEvolve
Tree
p1056
(dp1057
g13
I0
sg23
F-3.1849343590932557
sg14
I01
sbsg18
(imyEvolve
Tree
p1058
(dp1059
g13
I0
sg23
F2.2338026386674255
sg14
I01
sbsg15
I00
sg16
g64
sbsg18
(imyEvolve
Tree
p1060
(dp1061
g10
(imyEvolve
Tree
p1062
(dp1063
g13
I0
sg14
I00
sbsg13
I1
sg15
I01
sg16
g17
sbsg15
I00
sg16
g26
sbsg15
I00
sg16
g27
sbsg15
I00
sg16
g27
sba(imyEvolve
Tree
p1064
(dp1065
g13
I2
sg7
(imyEvolve
Tree
p1066
(dp1067
g10
(imyEvolve
Tree
p1068
(dp1069
g13
I0
sg23
F1.3165366339883446
sg14
I01
sbsg13
I1
sg15
I01
sg16
g17
sbsg18
(imyEvolve
Tree
p1070
(dp1071
g10
(imyEvolve
Tree
p1072
(dp1073
g13
I0
sg14
I00
sbsg13
I1
sg15
I01
sg16
g51
sbsg15
I00
sg16
g64
sba(imyEvolve
Tree
p1074
(dp1075
g7
(imyEvolve
Tree
p1076
(dp1077
g10
(imyEvolve
Tree
p1078
(dp1079
g13
I0
sg23
F2.0040809612078325
sg14
I01
sbsg13
I1
sg15
I01
sg16
g51
sbsg13
I2
sg18
(imyEvolve
Tree
p1080
(dp1081
g10
(imyEvolve
Tree
p1082
(dp1083
g13
I0
sg23
F-1.5210632673941293
sg14
I01
sbsg13
I1
sg15
I01
sg16
g95
sbsg15
I00
sg16
g26
sba(imyEvolve
Tree
p1084
(dp1085
g10
(imyEvolve
Tree
p1086
(dp1087
g7
(imyEvolve
Tree
p1088
(dp1089
g13
I0
sg14
I00
sbsg13
I1
sg18
(imyEvolve
Tree
p1090
(dp1091
g13
I0
sg23
F-0.5790312302945075
sg14
I01
sbsg15
I00
sg16
g64
sbsg13
I2
sg15
I01
sg16
g42
sba(imyEvolve
Tree
p1092
(dp1093
g10
(imyEvolve
Tree
p1094
(dp1095
g10
(imyEvolve
Tree
p1096
(dp1097
g10
(imyEvolve
Tree
p1098
(dp1099
g13
I2
sg7
(imyEvolve
Tree
p1100
(dp1101
g10
(imyEvolve
Tree
p1102
(dp1103
g13
I0
sg23
F1.7292221197174165
sg14
I01
sbsg13
I1
sg15
I01
sg16
g51
sbsg18
(imyEvolve
Tree
p1104
(dp1105
g13
I1
sg7
(imyEvolve
Tree
p1106
(dp1107
g13
I0
sg23
F1.5895625551970145
sg14
I01
sbsg18
(imyEvolve
Tree
p1108
(dp1109
g13
I0
sg23
F-0.10381570304299093
sg14
I01
sbsg15
I00
sg16
g27
sbsg15
I00
sg16
g64
sbsg13
I3
sg15
I01
sg16
g42
sbsg13
I4
sg15
I01
sg16
g17
sbsg13
I5
sg15
I01
sg16
g51
sba(imyEvolve
Tree
p1110
(dp1111
g7
(imyEvolve
Tree
p1112
(dp1113
g10
(imyEvolve
Tree
p1114
(dp1115
g7
(imyEvolve
Tree
p1116
(dp1117
g10
(imyEvolve
Tree
p1118
(dp1119
g13
I0
sg14
I00
sbsg13
I1
sg15
I01
sg16
g42
sbsg13
I2
sg18
(imyEvolve
Tree
p1120
(dp1121
g10
(imyEvolve
Tree
p1122
(dp1123
g13
I0
sg14
I00
sbsg13
I1
sg15
I01
sg16
g17
sbsg15
I00
sg16
g26
sbsg13
I3
sg15
I01
sg16
g17
sbsg13
I4
sg18
(imyEvolve
Tree
p1124
(dp1125
g7
(imyEvolve
Tree
p1126
(dp1127
g7
(imyEvolve
Tree
p1128
(dp1129
g7
(imyEvolve
Tree
p1130
(dp1131
g13
I0
sg14
I00
sbsg13
I1
sg18
(imyEvolve
Tree
p1132
(dp1133
g13
I0
sg14
I00
sbsg15
I00
sg16
g26
sbsg13
I2
sg18
(imyEvolve
Tree
p1134
(dp1135
g7
(imyEvolve
Tree
p1136
(dp1137
g13
I0
sg14
I00
sbsg13
I1
sg18
(imyEvolve
Tree
p1138
(dp1139
g13
I0
sg23
F-4.292855173402083
sg14
I01
sbsg15
I00
sg16
g26
sbsg15
I00
sg16
g27
sbsg13
I3
sg18
(imyEvolve
Tree
p1140
(dp1141
g7
(imyEvolve
Tree
p1142
(dp1143
g7
(imyEvolve
Tree
p1144
(dp1145
g13
I0
sg23
F0.9988886356081705
sg14
I01
sbsg13
I1
sg18
(imyEvolve
Tree
p1146
(dp1147
g13
I0
sg14
I00
sbsg15
I00
sg16
g26
sbsg13
I2
sg18
(imyEvolve
Tree
p1148
(dp1149
g7
(imyEvolve
Tree
p1150
(dp1151
g13
I0
sg23
F4.1500390802141
sg14
I01
sbsg13
I1
sg18
(imyEvolve
Tree
p1152
(dp1153
g13
I0
sg14
I00
sbsg15
I00
sg16
g26
sbsg15
I00
sg16
g64
sbsg15
I00
sg16
g27
sbsg15
I00
sg16
g26
sbaa(lp1154
(imyEvolve
Tree
p1155
(dp1156
g7
(imyEvolve
Tree
p1157
(dp1158
g7
(imyEvolve
Tree
p1159
(dp1160
g7
(imyEvolve
Tree
p1161
(dp1162
g7
(imyEvolve
Tree
p1163
(dp1164
g10
(imyEvolve
Tree
p1165
(dp1166
g13
I0
sg14
I00
sbsg13
I1
sg15
I01
sg16
g95
sbsg13
I2
sg18
(imyEvolve
Tree
p1167
(dp1168
g7
(imyEvolve
Tree
p1169
(dp1170
g13
I0
sg23
F-2.743911455839384
sg14
I01
sbsg13
I1
sg18
(imyEvolve
Tree
p1171
(dp1172
g13
I0
sg23
F-1.7772390996308953
sg14
I01
sbsg15
I00
sg16
g64
sbsg15
I00
sg16
g27
sbsg13
I3
sg18
(imyEvolve
Tree
p1173
(dp1174
g10
(imyEvolve
Tree
p1175
(dp1176
g7
(imyEvolve
Tree
p1177
(dp1178
g13
I0
sg23
F1.1383517873787063
sg14
I01
sbsg13
I1
sg18
(imyEvolve
Tree
p1179
(dp1180
g13
I0
sg23
F-4.877651328175979
sg14
I01
sbsg15
I00
sg16
g27
sbsg13
I2
sg15
I01
sg16
g51
sbsg15
I00
sg16
g64
sbsg13
I4
sg18
(imyEvolve
Tree
p1181
(dp1182
g7
(imyEvolve
Tree
p1183
(dp1184
g10
(imyEvolve
Tree
p1185
(dp1186
g10
(imyEvolve
Tree
p1187
(dp1188
g13
I0
sg14
I00
sbsg13
I1
sg15
I01
sg16
g51
sbsg13
I2
sg15
I01
sg16
g51
sbsg13
I3
sg18
(imyEvolve
Tree
p1189
(dp1190
g7
(imyEvolve
Tree
p1191
(dp1192
g10
(imyEvolve
Tree
p1193
(dp1194
g13
I0
sg14
I00
sbsg13
I1
sg15
I01
sg16
g95
sbsg13
I2
sg18
(imyEvolve
Tree
p1195
(dp1196
g10
(imyEvolve
Tree
p1197
(dp1198
g13
I0
sg14
I00
sbsg13
I1
sg15
I01
sg16
g95
sbsg15
I00
sg16
g27
sbsg15
I00
sg16
g27
sbsg15
I00
sg16
g27
sbsg13
I5
sg18
(imyEvolve
Tree
p1199
(dp1200
g10
(imyEvolve
Tree
p1201
(dp1202
g10
(imyEvolve
Tree
p1203
(dp1204
g10
(imyEvolve
Tree
p1205
(dp1206
g10
(imyEvolve
Tree
p1207
(dp1208
g13
I0
sg14
I00
sbsg13
I1
sg15
I01
sg16
g95
sbsg13
I2
sg15
I01
sg16
g95
sbsg13
I3
sg15
I01
sg16
g51
sbsg13
I4
sg15
I01
sg16
g95
sbsg15
I00
sg16
g64
sba(imyEvolve
Tree
p1209
(dp1210
g10
(imyEvolve
Tree
p1211
(dp1212
g7
(imyEvolve
Tree
p1213
(dp1214
g13
I0
sg14
I00
sbsg13
I1
sg18
(imyEvolve
Tree
p1215
(dp1216
g13
I0
sg14
I00
sbsg15
I00
sg16
g26
sbsg13
I2
sg15
I01
sg16
g42
sba(imyEvolve
Tree
p1217
(dp1218
g13
I5
sg7
(imyEvolve
Tree
p1219
(dp1220
g13
I4
sg7
(imyEvolve
Tree
p1221
(dp1222
g13
I3
sg7
(imyEvolve
Tree
p1223
(dp1224
g13
I2
sg7
(imyEvolve
Tree
p1225
(dp1226
g13
I1
sg7
(imyEvolve
Tree
p1227
(dp1228
g13
I0
sg14
I00
sbsg18
(imyEvolve
Tree
p1229
(dp1230
g13
I0
sg23
F4.598595097367287
sg14
I01
sbsg15
I00
sg16
g26
sbsg18
(imyEvolve
Tree
p1231
(dp1232
g10
(imyEvolve
Tree
p1233
(dp1234
g13
I0
sg23
F-2.3325111390999433
sg14
I01
sbsg13
I1
sg15
I01
sg16
g51
sbsg15
I00
sg16
g64
sbsg18
(imyEvolve
Tree
p1235
(dp1236
g13
I2
sg7
(imyEvolve
Tree
p1237
(dp1238
g10
(imyEvolve
Tree
p1239
(dp1240
g13
I0
sg14
I00
sbsg13
I1
sg15
I01
sg16
g95
sbsg18
(imyEvolve
Tree
p1241
(dp1242
g13
I1
sg7
(imyEvolve
Tree
p1243
(dp1244
g13
I0
sg23
F0.4433128000815252
sg14
I01
sbsg18
(imyEvolve
Tree
p1245
(dp1246
g13
I0
sg23
F-0.3907976552265868
sg14
I01
sbsg15
I00
sg16
g26
sbsg15
I00
sg16
g27
sbsg15
I00
sg16
g26
sbsg18
(imyEvolve
Tree
p1247
(dp1248
g10
(imyEvolve
Tree
p1249
(dp1250
g10
(imyEvolve
Tree
p1251
(dp1252
g13
I1
sg7
(imyEvolve
Tree
p1253
(dp1254
g13
I0
sg23
F-0.8207699978918983
sg14
I01
sbsg18
(imyEvolve
Tree
p1255
(dp1256
g13
I0
sg14
I00
sbsg15
I00
sg16
g64
sbsg13
I2
sg15
I01
sg16
g42
sbsg13
I3
sg15
I01
sg16
g17
sbsg15
I00
sg16
g64
sbsg18
(imyEvolve
Tree
p1257
(dp1258
g13
I4
sg7
(imyEvolve
Tree
p1259
(dp1260
g13
I3
sg7
(imyEvolve
Tree
p1261
(dp1262
g13
I2
sg7
(imyEvolve
Tree
p1263
(dp1264
g13
I1
sg7
(imyEvolve
Tree
p1265
(dp1266
g13
I0
sg14
I00
sbsg18
(imyEvolve
Tree
p1267
(dp1268
g13
I0
sg14
I00
sbsg15
I00
sg16
g64
sbsg18
(imyEvolve
Tree
p1269
(dp1270
g13
I1
sg7
(imyEvolve
Tree
p1271
(dp1272
g13
I0
sg23
F-3.7671399131456065
sg14
I01
sbsg18
(imyEvolve
Tree
p1273
(dp1274
g13
I0
sg14
I00
sbsg15
I00
sg16
g64
sbsg15
I00
sg16
g27
sbsg18
(imyEvolve
Tree
p1275
(dp1276
g10
(imyEvolve
Tree
p1277
(dp1278
g13
I1
sg7
(imyEvolve
Tree
p1279
(dp1280
g13
I0
sg23
F4.660604484930195
sg14
I01
sbsg18
(imyEvolve
Tree
p1281
(dp1282
g13
I0
sg23
F-3.629689877424549
sg14
I01
sbsg15
I00
sg16
g26
sbsg13
I2
sg15
I01
sg16
g17
sbsg15
I00
sg16
g26
sbsg18
(imyEvolve
Tree
p1283
(dp1284
g10
(imyEvolve
Tree
p1285
(dp1286
g13
I2
sg7
(imyEvolve
Tree
p1287
(dp1288
g10
(imyEvolve
Tree
p1289
(dp1290
g13
I0
sg23
F0.7401591328518542
sg14
I01
sbsg13
I1
sg15
I01
sg16
g95
sbsg18
(imyEvolve
Tree
p1291
(dp1292
g10
(imyEvolve
Tree
p1293
(dp1294
g13
I0
sg23
F-1.6326269865743113
sg14
I01
sbsg13
I1
sg15
I01
sg16
g51
sbsg15
I00
sg16
g64
sbsg13
I3
sg15
I01
sg16
g17
sbsg15
I00
sg16
g64
sbsg15
I00
sg16
g64
sba(imyEvolve
Tree
p1295
(dp1296
g10
(imyEvolve
Tree
p1297
(dp1298
g10
(imyEvolve
Tree
p1299
(dp1300
g10
(imyEvolve
Tree
p1301
(dp1302
g7
(imyEvolve
Tree
p1303
(dp1304
g13
I0
sg23
F-3.5981690464944216
sg14
I01
sbsg13
I1
sg18
(imyEvolve
Tree
p1305
(dp1306
g13
I0
sg14
I00
sbsg15
I00
sg16
g27
sbsg13
I2
sg15
I01
sg16
g95
sbsg13
I3
sg15
I01
sg16
g17
sbsg13
I4
sg15
I01
sg16
g51
sba(imyEvolve
Tree
p1307
(dp1308
g10
(imyEvolve
Tree
p1309
(dp1310
g13
I2
sg7
(imyEvolve
Tree
p1311
(dp1312
g13
I1
sg7
(imyEvolve
Tree
p1313
(dp1314
g13
I0
sg23
F1.9122720348962012
sg14
I01
sbsg18
(imyEvolve
Tree
p1315
(dp1316
g13
I0
sg14
I00
sbsg15
I00
sg16
g27
sbsg18
(imyEvolve
Tree
p1317
(dp1318
g10
(imyEvolve
Tree
p1319
(dp1320
g13
I0
sg14
I00
sbsg13
I1
sg15
I01
sg16
g95
sbsg15
I00
sg16
g27
sbsg13
I3
sg15
I01
sg16
g42
sba(imyEvolve
Tree
p1321
(dp1322
g13
I4
sg7
(imyEvolve
Tree
p1323
(dp1324
g13
I3
sg7
(imyEvolve
Tree
p1325
(dp1326
g10
(imyEvolve
Tree
p1327
(dp1328
g13
I1
sg7
(imyEvolve
Tree
p1329
(dp1330
g13
I0
sg23
F-1.5398800816658378
sg14
I01
sbsg18
(imyEvolve
Tree
p1331
(dp1332
g13
I0
sg14
I00
sbsg15
I00
sg16
g64
sbsg13
I2
sg15
I01
sg16
g17
sbsg18
(imyEvolve
Tree
p1333
(dp1334
g13
I2
sg7
(imyEvolve
Tree
p1335
(dp1336
g10
(imyEvolve
Tree
p1337
(dp1338
g13
I0
sg23
F-1.6500391809282977
sg14
I01
sbsg13
I1
sg15
I01
sg16
g95
sbsg18
(imyEvolve
Tree
p1339
(dp1340
g10
(imyEvolve
Tree
p1341
(dp1342
g13
I0
sg23
F2.6699702923846207
sg14
I01
sbsg13
I1
sg15
I01
sg16
g42
sbsg15
I00
sg16
g27
sbsg15
I00
sg16
g26
sbsg18
(imyEvolve
Tree
p1343
(dp1344
g13
I3
sg7
(imyEvolve
Tree
p1345
(dp1346
g10
(imyEvolve
Tree
p1347
(dp1348
g13
I1
sg7
(imyEvolve
Tree
p1349
(dp1350
g13
I0
sg23
F2.2138710067277305
sg14
I01
sbsg18
(imyEvolve
Tree
p1351
(dp1352
g13
I0
sg14
I00
sbsg15
I00
sg16
g64
sbsg13
I2
sg15
I01
sg16
g17
sbsg18
(imyEvolve
Tree
p1353
(dp1354
g10
(imyEvolve
Tree
p1355
(dp1356
g13
I1
sg7
(imyEvolve
Tree
p1357
(dp1358
g13
I0
sg23
F-0.8424437467078629
sg14
I01
sbsg18
(imyEvolve
Tree
p1359
(dp1360
g13
I0
sg23
F3.7904335977228882
sg14
I01
sbsg15
I00
sg16
g64
sbsg13
I2
sg15
I01
sg16
g42
sbsg15
I00
sg16
g64
sbsg15
I00
sg16
g26
sba(imyEvolve
Tree
p1361
(dp1362
g10
(imyEvolve
Tree
p1363
(dp1364
g7
(imyEvolve
Tree
p1365
(dp1366
g10
(imyEvolve
Tree
p1367
(dp1368
g7
(imyEvolve
Tree
p1369
(dp1370
g13
I0
sg14
I00
sbsg13
I1
sg18
(imyEvolve
Tree
p1371
(dp1372
g13
I0
sg14
I00
sbsg15
I00
sg16
g26
sbsg13
I2
sg15
I01
sg16
g17
sbsg13
I3
sg18
(imyEvolve
Tree
p1373
(dp1374
g7
(imyEvolve
Tree
p1375
(dp1376
g10
(imyEvolve
Tree
p1377
(dp1378
g13
I0
sg23
F4.360322128616529
sg14
I01
sbsg13
I1
sg15
I01
sg16
g42
sbsg13
I2
sg18
(imyEvolve
Tree
p1379
(dp1380
g7
(imyEvolve
Tree
p1381
(dp1382
g13
I0
sg23
F-2.5715432634681177
sg14
I01
sbsg13
I1
sg18
(imyEvolve
Tree
p1383
(dp1384
g13
I0
sg23
F1.2020753961071318
sg14
I01
sbsg15
I00
sg16
g27
sbsg15
I00
sg16
g26
sbsg15
I00
sg16
g64
sbsg13
I4
sg15
I01
sg16
g51
sba(imyEvolve
Tree
p1385
(dp1386
g13
I3
sg7
(imyEvolve
Tree
p1387
(dp1388
g10
(imyEvolve
Tree
p1389
(dp1390
g13
I1
sg7
(imyEvolve
Tree
p1391
(dp1392
g13
I0
sg14
I00
sbsg18
(imyEvolve
Tree
p1393
(dp1394
g13
I0
sg23
F0.6139642175556146
sg14
I01
sbsg15
I00
sg16
g26
sbsg13
I2
sg15
I01
sg16
g42
sbsg18
(imyEvolve
Tree
p1395
(dp1396
g10
(imyEvolve
Tree
p1397
(dp1398
g13
I1
sg7
(imyEvolve
Tree
p1399
(dp1400
g13
I0
sg23
F-1.089099108238388
sg14
I01
sbsg18
(imyEvolve
Tree
p1401
(dp1402
g13
I0
sg14
I00
sbsg15
I00
sg16
g27
sbsg13
I2
sg15
I01
sg16
g51
sbsg15
I00
sg16
g64
sba(imyEvolve
Tree
p1403
(dp1404
g10
(imyEvolve
Tree
p1405
(dp1406
g10
(imyEvolve
Tree
p1407
(dp1408
g13
I2
sg7
(imyEvolve
Tree
p1409
(dp1410
g10
(imyEvolve
Tree
p1411
(dp1412
g13
I0
sg14
I00
sbsg13
I1
sg15
I01
sg16
g51
sbsg18
(imyEvolve
Tree
p1413
(dp1414
g13
I1
sg7
(imyEvolve
Tree
p1415
(dp1416
g13
I0
sg14
I00
sbsg18
(imyEvolve
Tree
p1417
(dp1418
g13
I0
sg14
I00
sbsg15
I00
sg16
g26
sbsg15
I00
sg16
g27
sbsg13
I3
sg15
I01
sg16
g95
sbsg13
I4
sg15
I01
sg16
g17
sba(imyEvolve
Tree
p1419
(dp1420
g10
(imyEvolve
Tree
p1421
(dp1422
g10
(imyEvolve
Tree
p1423
(dp1424
g10
(imyEvolve
Tree
p1425
(dp1426
g13
I0
sg14
I00
sbsg13
I1
sg15
I01
sg16
g17
sbsg13
I2
sg15
I01
sg16
g95
sbsg13
I3
sg15
I01
sg16
g42
sba(imyEvolve
Tree
p1427
(dp1428
g10
(imyEvolve
Tree
p1429
(dp1430
g10
(imyEvolve
Tree
p1431
(dp1432
g10
(imyEvolve
Tree
p1433
(dp1434
g13
I0
sg23
F-0.2566455936625287
sg14
I01
sbsg13
I1
sg15
I01
sg16
g17
sbsg13
I2
sg15
I01
sg16
g42
sbsg13
I3
sg15
I01
sg16
g42
sba(imyEvolve
Tree
p1435
(dp1436
g10
(imyEvolve
Tree
p1437
(dp1438
g7
(imyEvolve
Tree
p1439
(dp1440
g7
(imyEvolve
Tree
p1441
(dp1442
g7
(imyEvolve
Tree
p1443
(dp1444
g7
(imyEvolve
Tree
p1445
(dp1446
g13
I0
sg14
I00
sbsg13
I1
sg18
(imyEvolve
Tree
p1447
(dp1448
g13
I0
sg23
F-4.549928205391498
sg14
I01
sbsg15
I00
sg16
g64
sbsg13
I2
sg18
(imyEvolve
Tree
p1449
(dp1450
g10
(imyEvolve
Tree
p1451
(dp1452
g13
I0
sg14
I00
sbsg13
I1
sg15
I01
sg16
g95
sbsg15
I00
sg16
g26
sbsg13
I3
sg18
(imyEvolve
Tree
p1453
(dp1454
g10
(imyEvolve
Tree
p1455
(dp1456
g10
(imyEvolve
Tree
p1457
(dp1458
g13
I0
sg23
F-2.3494068433804207
sg14
I01
sbsg13
I1
sg15
I01
sg16
g42
sbsg13
I2
sg15
I01
sg16
g51
sbsg15
I00
sg16
g26
sbsg13
I4
sg18
(imyEvolve
Tree
p1459
(dp1460
g10
(imyEvolve
Tree
p1461
(dp1462
g10
(imyEvolve
Tree
p1463
(dp1464
g7
(imyEvolve
Tree
p1465
(dp1466
g13
I0
sg23
F3.9893312898646816
sg14
I01
sbsg13
I1
sg18
(imyEvolve
Tree
p1467
(dp1468
g13
I0
sg23
F0.4108753836374843
sg14
I01
sbsg15
I00
sg16
g26
sbsg13
I2
sg15
I01
sg16
g42
sbsg13
I3
sg15
I01
sg16
g17
sbsg15
I00
sg16
g26
sbsg13
I5
sg15
I01
sg16
g17
sba(imyEvolve
Tree
p1469
(dp1470
g10
(imyEvolve
Tree
p1471
(dp1472
g13
I2
sg7
(imyEvolve
Tree
p1473
(dp1474
g13
I1
sg7
(imyEvolve
Tree
p1475
(dp1476
g13
I0
sg23
F-4.3599733441926745
sg14
I01
sbsg18
(imyEvolve
Tree
p1477
(dp1478
g13
I0
sg23
F0.9079451105319478
sg14
I01
sbsg15
I00
sg16
g27
sbsg18
(imyEvolve
Tree
p1479
(dp1480
g10
(imyEvolve
Tree
p1481
(dp1482
g13
I0
sg23
F0.036904736846295805
sg14
I01
sbsg13
I1
sg15
I01
sg16
g51
sbsg15
I00
sg16
g26
sbsg13
I3
sg15
I01
sg16
g95
sba(imyEvolve
Tree
p1483
(dp1484
g7
(imyEvolve
Tree
p1485
(dp1486
g7
(imyEvolve
Tree
p1487
(dp1488
g10
(imyEvolve
Tree
p1489
(dp1490
g7
(imyEvolve
Tree
p1491
(dp1492
g7
(imyEvolve
Tree
p1493
(dp1494
g13
I0
sg23
F-2.467032713470868
sg14
I01
sbsg13
I1
sg18
(imyEvolve
Tree
p1495
(dp1496
g13
I0
sg14
I00
sbsg15
I00
sg16
g64
sbsg13
I2
sg18
(imyEvolve
Tree
p1497
(dp1498
g7
(imyEvolve
Tree
p1499
(dp1500
g13
I0
sg14
I00
sbsg13
I1
sg18
(imyEvolve
Tree
p1501
(dp1502
g13
I0
sg14
I00
sbsg15
I00
sg16
g26
sbsg15
I00
sg16
g27
sbsg13
I3
sg15
I01
sg16
g51
sbsg13
I4
sg18
(imyEvolve
Tree
p1503
(dp1504
g7
(imyEvolve
Tree
p1505
(dp1506
g7
(imyEvolve
Tree
p1507
(dp1508
g10
(imyEvolve
Tree
p1509
(dp1510
g13
I0
sg23
F-4.044949353974122
sg14
I01
sbsg13
I1
sg15
I01
sg16
g42
sbsg13
I2
sg18
(imyEvolve
Tree
p1511
(dp1512
g10
(imyEvolve
Tree
p1513
(dp1514
g13
I0
sg23
F0.6881346226531369
sg14
I01
sbsg13
I1
sg15
I01
sg16
g51
sbsg15
I00
sg16
g64
sbsg13
I3
sg18
(imyEvolve
Tree
p1515
(dp1516
g7
(imyEvolve
Tree
p1517
(dp1518
g10
(imyEvolve
Tree
p1519
(dp1520
g13
I0
sg23
F-1.9785211056273355
sg14
I01
sbsg13
I1
sg15
I01
sg16
g17
sbsg13
I2
sg18
(imyEvolve
Tree
p1521
(dp1522
g10
(imyEvolve
Tree
p1523
(dp1524
g13
I0
sg23
F-2.121036572475361
sg14
I01
sbsg13
I1
sg15
I01
sg16
g51
sbsg15
I00
sg16
g64
sbsg15
I00
sg16
g27
sbsg15
I00
sg16
g64
sbsg13
I5
sg18
(imyEvolve
Tree
p1525
(dp1526
g7
(imyEvolve
Tree
p1527
(dp1528
g10
(imyEvolve
Tree
p1529
(dp1530
g7
(imyEvolve
Tree
p1531
(dp1532
g7
(imyEvolve
Tree
p1533
(dp1534
g13
I0
sg23
F-4.6253276190621495
sg14
I01
sbsg13
I1
sg18
(imyEvolve
Tree
p1535
(dp1536
g13
I0
sg23
F-3.0818344043489496
sg14
I01
sbsg15
I00
sg16
g26
sbsg13
I2
sg18
(imyEvolve
Tree
p1537
(dp1538
g10
(imyEvolve
Tree
p1539
(dp1540
g13
I0
sg23
F3.7202326780769255
sg14
I01
sbsg13
I1
sg15
I01
sg16
g95
sbsg15
I00
sg16
g64
sbsg13
I3
sg15
I01
sg16
g51
sbsg13
I4
sg18
(imyEvolve
Tree
p1541
(dp1542
g7
(imyEvolve
Tree
p1543
(dp1544
g10
(imyEvolve
Tree
p1545
(dp1546
g7
(imyEvolve
Tree
p1547
(dp1548
g13
I0
sg23
F1.2134502705780923
sg14
I01
sbsg13
I1
sg18
(imyEvolve
Tree
p1549
(dp1550
g13
I0
sg14
I00
sbsg15
I00
sg16
g64
sbsg13
I2
sg15
I01
sg16
g17
sbsg13
I3
sg18
(imyEvolve
Tree
p1551
(dp1552
g10
(imyEvolve
Tree
p1553
(dp1554
g10
(imyEvolve
Tree
p1555
(dp1556
g13
I0
sg14
I00
sbsg13
I1
sg15
I01
sg16
g42
sbsg13
I2
sg15
I01
sg16
g17
sbsg15
I00
sg16
g27
sbsg15
I00
sg16
g26
sbsg15
I00
sg16
g64
sba(imyEvolve
Tree
p1557
(dp1558
g10
(imyEvolve
Tree
p1559
(dp1560
g13
I3
sg7
(imyEvolve
Tree
p1561
(dp1562
g13
I2
sg7
(imyEvolve
Tree
p1563
(dp1564
g13
I1
sg7
(imyEvolve
Tree
p1565
(dp1566
g13
I0
sg23
F0.5867566059168698
sg14
I01
sbsg18
(imyEvolve
Tree
p1567
(dp1568
g13
I0
sg14
I00
sbsg15
I00
sg16
g26
sbsg18
(imyEvolve
Tree
p1569
(dp1570
g13
I1
sg7
(imyEvolve
Tree
p1571
(dp1572
g13
I0
sg14
I00
sbsg18
(imyEvolve
Tree
p1573
(dp1574
g13
I0
sg23
F-1.828804083802443
sg14
I01
sbsg15
I00
sg16
g27
sbsg15
I00
sg16
g27
sbsg18
(imyEvolve
Tree
p1575
(dp1576
g10
(imyEvolve
Tree
p1577
(dp1578
g10
(imyEvolve
Tree
p1579
(dp1580
g13
I0
sg14
I00
sbsg13
I1
sg15
I01
sg16
g17
sbsg13
I2
sg15
I01
sg16
g42
sbsg15
I00
sg16
g26
sbsg13
I4
sg15
I01
sg16
g51
sba(imyEvolve
Tree
p1581
(dp1582
g13
I2
sg7
(imyEvolve
Tree
p1583
(dp1584
g10
(imyEvolve
Tree
p1585
(dp1586
g13
I0
sg23
F-1.6491025910083779
sg14
I01
sbsg13
I1
sg15
I01
sg16
g42
sbsg18
(imyEvolve
Tree
p1587
(dp1588
g10
(imyEvolve
Tree
p1589
(dp1590
g13
I0
sg23
F2.6327041303923195
sg14
I01
sbsg13
I1
sg15
I01
sg16
g42
sbsg15
I00
sg16
g27
sba(imyEvolve
Tree
p1591
(dp1592
g7
(imyEvolve
Tree
p1593
(dp1594
g7
(imyEvolve
Tree
p1595
(dp1596
g10
(imyEvolve
Tree
p1597
(dp1598
g10
(imyEvolve
Tree
p1599
(dp1600
g10
(imyEvolve
Tree
p1601
(dp1602
g13
I0
sg23
F-1.2940471204908919
sg14
I01
sbsg13
I1
sg15
I01
sg16
g95
sbsg13
I2
sg15
I01
sg16
g95
sbsg13
I3
sg15
I01
sg16
g42
sbsg13
I4
sg18
(imyEvolve
Tree
p1603
(dp1604
g7
(imyEvolve
Tree
p1605
(dp1606
g7
(imyEvolve
Tree
p1607
(dp1608
g10
(imyEvolve
Tree
p1609
(dp1610
g13
I0
sg23
F0.8758270607402752
sg14
I01
sbsg13
I1
sg15
I01
sg16
g17
sbsg13
I2
sg18
(imyEvolve
Tree
p1611
(dp1612
g10
(imyEvolve
Tree
p1613
(dp1614
g13
I0
sg23
F3.72760214680579
sg14
I01
sbsg13
I1
sg15
I01
sg16
g51
sbsg15
I00
sg16
g64
sbsg13
I3
sg18
(imyEvolve
Tree
p1615
(dp1616
g7
(imyEvolve
Tree
p1617
(dp1618
g7
(imyEvolve
Tree
p1619
(dp1620
g13
I0
sg14
I00
sbsg13
I1
sg18
(imyEvolve
Tree
p1621
(dp1622
g13
I0
sg14
I00
sbsg15
I00
sg16
g27
sbsg13
I2
sg18
(imyEvolve
Tree
p1623
(dp1624
g7
(imyEvolve
Tree
p1625
(dp1626
g13
I0
sg14
I00
sbsg13
I1
sg18
(imyEvolve
Tree
p1627
(dp1628
g13
I0
sg14
I00
sbsg15
I00
sg16
g26
sbsg15
I00
sg16
g26
sbsg15
I00
sg16
g26
sbsg15
I00
sg16
g27
sbsg13
I5
sg18
(imyEvolve
Tree
p1629
(dp1630
g10
(imyEvolve
Tree
p1631
(dp1632
g10
(imyEvolve
Tree
p1633
(dp1634
g7
(imyEvolve
Tree
p1635
(dp1636
g10
(imyEvolve
Tree
p1637
(dp1638
g13
I0
sg14
I00
sbsg13
I1
sg15
I01
sg16
g17
sbsg13
I2
sg18
(imyEvolve
Tree
p1639
(dp1640
g7
(imyEvolve
Tree
p1641
(dp1642
g13
I0
sg14
I00
sbsg13
I1
sg18
(imyEvolve
Tree
p1643
(dp1644
g13
I0
sg23
F-4.829857477061563
sg14
I01
sbsg15
I00
sg16
g27
sbsg15
I00
sg16
g27
sbsg13
I3
sg15
I01
sg16
g51
sbsg13
I4
sg15
I01
sg16
g95
sbsg15
I00
sg16
g64
sba(imyEvolve
Tree
p1645
(dp1646
g10
(imyEvolve
Tree
p1647
(dp1648
g10
(imyEvolve
Tree
p1649
(dp1650
g10
(imyEvolve
Tree
p1651
(dp1652
g7
(imyEvolve
Tree
p1653
(dp1654
g10
(imyEvolve
Tree
p1655
(dp1656
g13
I0
sg23
F3.652123850910918
sg14
I01
sbsg13
I1
sg15
I01
sg16
g95
sbsg13
I2
sg18
(imyEvolve
Tree
p1657
(dp1658
g10
(imyEvolve
Tree
p1659
(dp1660
g13
I0
sg14
I00
sbsg13
I1
sg15
I01
sg16
g95
sbsg15
I00
sg16
g26
sbsg13
I3
sg15
I01
sg16
g95
sbsg13
I4
sg15
I01
sg16
g95
sbsg13
I5
sg15
I01
sg16
g17
sbaa(lp1661
(imyEvolve
Tree
p1662
(dp1663
g10
(imyEvolve
Tree
p1664
(dp1665
g10
(imyEvolve
Tree
p1666
(dp1667
g13
I0
sg23
F-1.8591403602891599
sg14
I01
sbsg13
I1
sg15
I01
sg16
g95
sbsg13
I2
sg15
I01
sg16
g51
sba(imyEvolve
Tree
p1668
(dp1669
g13
I4
sg7
(imyEvolve
Tree
p1670
(dp1671
g10
(imyEvolve
Tree
p1672
(dp1673
g10
(imyEvolve
Tree
p1674
(dp1675
g13
I1
sg7
(imyEvolve
Tree
p1676
(dp1677
g13
I0
sg14
I00
sbsg18
(imyEvolve
Tree
p1678
(dp1679
g13
I0
sg14
I00
sbsg15
I00
sg16
g26
sbsg13
I2
sg15
I01
sg16
g42
sbsg13
I3
sg15
I01
sg16
g95
sbsg18
(imyEvolve
Tree
p1680
(dp1681
g13
I3
sg7
(imyEvolve
Tree
p1682
(dp1683
g10
(imyEvolve
Tree
p1684
(dp1685
g10
(imyEvolve
Tree
p1686
(dp1687
g13
I0
sg14
I00
sbsg13
I1
sg15
I01
sg16
g42
sbsg13
I2
sg15
I01
sg16
g51
sbsg18
(imyEvolve
Tree
p1688
(dp1689
g10
(imyEvolve
Tree
p1690
(dp1691
g13
I1
sg7
(imyEvolve
Tree
p1692
(dp1693
g13
I0
sg14
I00
sbsg18
(imyEvolve
Tree
p1694
(dp1695
g13
I0
sg23
F-0.8691192964697052
sg14
I01
sbsg15
I00
sg16
g64
sbsg13
I2
sg15
I01
sg16
g95
sbsg15
I00
sg16
g64
sbsg15
I00
sg16
g27
sba(imyEvolve
Tree
p1696
(dp1697
g7
(imyEvolve
Tree
p1698
(dp1699
g10
(imyEvolve
Tree
p1700
(dp1701
g10
(imyEvolve
Tree
p1702
(dp1703
g10
(imyEvolve
Tree
p1704
(dp1705
g10
(imyEvolve
Tree
p1706
(dp1707
g13
I0
sg23
F1.6064537190007497
sg14
I01
sbsg13
I1
sg15
I01
sg16
g95
sbsg13
I2
sg15
I01
sg16
g42
sbsg13
I3
sg15
I01
sg16
g95
sbsg13
I4
sg15
I01
sg16
g17
sbsg13
I5
sg18
(imyEvolve
Tree
p1708
(dp1709
g10
(imyEvolve
Tree
p1710
(dp1711
g7
(imyEvolve
Tree
p1712
(dp1713
g10
(imyEvolve
Tree
p1714
(dp1715
g10
(imyEvolve
Tree
p1716
(dp1717
g13
I0
sg23
F-0.4523132483933612
sg14
I01
sbsg13
I1
sg15
I01
sg16
g95
sbsg13
I2
sg15
I01
sg16
g95
sbsg13
I3
sg18
(imyEvolve
Tree
p1718
(dp1719
g10
(imyEvolve
Tree
p1720
(dp1721
g7
(imyEvolve
Tree
p1722
(dp1723
g13
I0
sg23
F3.917590243693928
sg14
I01
sbsg13
I1
sg18
(imyEvolve
Tree
p1724
(dp1725
g13
I0
sg23
F-2.6463471473152325
sg14
I01
sbsg15
I00
sg16
g26
sbsg13
I2
sg15
I01
sg16
g42
sbsg15
I00
sg16
g27
sbsg13
I4
sg15
I01
sg16
g95
sbsg15
I00
sg16
g64
sba(imyEvolve
Tree
p1726
(dp1727
g10
(imyEvolve
Tree
p1728
(dp1729
g13
I1
sg7
(imyEvolve
Tree
p1730
(dp1731
g13
I0
sg23
F-4.153229124741324
sg14
I01
sbsg18
(imyEvolve
Tree
p1732
(dp1733
g13
I0
sg23
F4.023841942909698
sg14
I01
sbsg15
I00
sg16
g27
sbsg13
I2
sg15
I01
sg16
g95
sba(imyEvolve
Tree
p1734
(dp1735
g10
(imyEvolve
Tree
p1736
(dp1737
g10
(imyEvolve
Tree
p1738
(dp1739
g7
(imyEvolve
Tree
p1740
(dp1741
g13
I0
sg23
F-3.1681336061847887
sg14
I01
sbsg13
I1
sg18
(imyEvolve
Tree
p1742
(dp1743
g13
I0
sg23
F-0.1440430449900143
sg14
I01
sbsg15
I00
sg16
g27
sbsg13
I2
sg15
I01
sg16
g95
sbsg13
I3
sg15
I01
sg16
g42
sba(imyEvolve
Tree
p1744
(dp1745
g7
(imyEvolve
Tree
p1746
(dp1747
g7
(imyEvolve
Tree
p1748
(dp1749
g13
I0
sg23
F0.1284264709628129
sg14
I01
sbsg13
I1
sg18
(imyEvolve
Tree
p1750
(dp1751
g13
I0
sg14
I00
sbsg15
I00
sg16
g26
sbsg13
I2
sg18
(imyEvolve
Tree
p1752
(dp1753
g10
(imyEvolve
Tree
p1754
(dp1755
g13
I0
sg14
I00
sbsg13
I1
sg15
I01
sg16
g51
sbsg15
I00
sg16
g27
sba(imyEvolve
Tree
p1756
(dp1757
g13
I2
sg7
(imyEvolve
Tree
p1758
(dp1759
g13
I1
sg7
(imyEvolve
Tree
p1760
(dp1761
g13
I0
sg23
F-1.7829486862776225
sg14
I01
sbsg18
(imyEvolve
Tree
p1762
(dp1763
g13
I0
sg23
F-4.1395687212119725
sg14
I01
sbsg15
I00
sg16
g26
sbsg18
(imyEvolve
Tree
p1764
(dp1765
g10
(imyEvolve
Tree
p1766
(dp1767
g13
I0
sg14
I00
sbsg13
I1
sg15
I01
sg16
g51
sbsg15
I00
sg16
g64
sba(imyEvolve
Tree
p1768
(dp1769
g10
(imyEvolve
Tree
p1770
(dp1771
g10
(imyEvolve
Tree
p1772
(dp1773
g10
(imyEvolve
Tree
p1774
(dp1775
g7
(imyEvolve
Tree
p1776
(dp1777
g13
I0
sg14
I00
sbsg13
I1
sg18
(imyEvolve
Tree
p1778
(dp1779
g13
I0
sg14
I00
sbsg15
I00
sg16
g64
sbsg13
I2
sg15
I01
sg16
g51
sbsg13
I3
sg15
I01
sg16
g17
sbsg13
I4
sg15
I01
sg16
g95
sba(imyEvolve
Tree
p1780
(dp1781
g10
(imyEvolve
Tree
p1782
(dp1783
g10
(imyEvolve
Tree
p1784
(dp1785
g7
(imyEvolve
Tree
p1786
(dp1787
g10
(imyEvolve
Tree
p1788
(dp1789
g7
(imyEvolve
Tree
p1790
(dp1791
g13
I0
sg23
F-0.6080087650503998
sg14
I01
sbsg13
I1
sg18
(imyEvolve
Tree
p1792
(dp1793
g13
I0
sg14
I00
sbsg15
I00
sg16
g27
sbsg13
I2
sg15
I01
sg16
g51
sbsg13
I3
sg18
(imyEvolve
Tree
p1794
(dp1795
g10
(imyEvolve
Tree
p1796
(dp1797
g7
(imyEvolve
Tree
p1798
(dp1799
g13
I0
sg23
F-3.4187239164983896
sg14
I01
sbsg13
I1
sg18
(imyEvolve
Tree
p1800
(dp1801
g13
I0
sg23
F2.8769472926969497
sg14
I01
sbsg15
I00
sg16
g64
sbsg13
I2
sg15
I01
sg16
g42
sbsg15
I00
sg16
g64
sbsg13
I4
sg15
I01
sg16
g95
sbsg13
I5
sg15
I01
sg16
g17
sba(imyEvolve
Tree
p1802
(dp1803
g10
(imyEvolve
Tree
p1804
(dp1805
g10
(imyEvolve
Tree
p1806
(dp1807
g10
(imyEvolve
Tree
p1808
(dp1809
g10
(imyEvolve
Tree
p1810
(dp1811
g13
I0
sg23
F4.441685344314276
sg14
I01
sbsg13
I1
sg15
I01
sg16
g51
sbsg13
I2
sg15
I01
sg16
g17
sbsg13
I3
sg15
I01
sg16
g95
sbsg13
I4
sg15
I01
sg16
g95
sbaasS'alpha'
p1812
F0.006235283429227879
sS'fitness'
p1813
cnumpy.core.multiarray
scalar
p1814
(cnumpy
dtype
p1815
(S'f8'
p1816
I0
I1
tp1817
Rp1818
(I3
S'<'
p1819
NNNI-1
I-1
I0
tp1820
bS'|\x83/\x1f\xda\x8e\xc0\xbf'
p1821
tp1822
Rp1823
sS'weightSharing'
p1824
(lp1825
I00
aI01
asS'fitnessValid'
p1826
I00
sS'resolution'
p1827
I84
sb.