(imyEvolve
Individual
p0
(dp1
S'funcs'
p2
(lp3
(lp4
(imyEvolve
Tree
p5
(dp6
S'left'
p7
(imyEvolve
Tree
p8
(dp9
g7
(imyEvolve
Tree
p10
(dp11
S'below'
p12
(imyEvolve
Tree
p13
(dp14
g12
(imyEvolve
Tree
p15
(dp16
g7
(imyEvolve
Tree
p17
(dp18
S'depth'
p19
I0
sS'constant'
p20
F-0.820905403248271
sS'isConstant'
p21
I01
sbsg19
I1
sS'right'
p22
(imyEvolve
Tree
p23
(dp24
g19
I0
sg21
I00
sbsS'single'
p25
I00
sS'op'
p26
coperator
sub
p27
sbsg19
I2
sg25
I01
sg26
cmyEvolve
absSqrt
p28
sbsg19
I3
sg25
I01
sg26
cmath
cos
p29
sbsg19
I4
sg22
(imyEvolve
Tree
p30
(dp31
g12
(imyEvolve
Tree
p32
(dp33
g7
(imyEvolve
Tree
p34
(dp35
g12
(imyEvolve
Tree
p36
(dp37
g19
I0
sg20
F-2.4024472704446556
sg21
I01
sbsg19
I1
sg25
I01
sg26
cmyEvolve
square
p38
sbsg19
I2
sg22
(imyEvolve
Tree
p39
(dp40
g12
(imyEvolve
Tree
p41
(dp42
g19
I0
sg20
F-2.266019131571423
sg21
I01
sbsg19
I1
sg25
I01
sg26
cmath
sin
p43
sbsg25
I00
sg26
coperator
add
p44
sbsg19
I3
sg25
I01
sg26
g43
sbsg25
I00
sg26
g27
sbsg19
I5
sg22
(imyEvolve
Tree
p45
(dp46
g12
(imyEvolve
Tree
p47
(dp48
g7
(imyEvolve
Tree
p49
(dp50
g12
(imyEvolve
Tree
p51
(dp52
g7
(imyEvolve
Tree
p53
(dp54
g19
I0
sg21
I00
sbsg19
I1
sg22
(imyEvolve
Tree
p55
(dp56
g19
I0
sg20
F-4.478477798029309
sg21
I01
sbsg25
I00
sg26
coperator
mul
p57
sbsg19
I2
sg25
I01
sg26
g38
sbsg19
I3
sg22
(imyEvolve
Tree
p58
(dp59
g12
(imyEvolve
Tree
p60
(dp61
g7
(imyEvolve
Tree
p62
(dp63
g19
I0
sg20
F1.3568793180248306
sg21
I01
sbsg19
I1
sg22
(imyEvolve
Tree
p64
(dp65
g19
I0
sg20
F0.06625150833711224
sg21
I01
sbsg25
I00
sg26
g27
sbsg19
I2
sg25
I01
sg26
g43
sbsg25
I00
sg26
g27
sbsg19
I4
sg25
I01
sg26
g43
sbsg25
I00
sg26
g57
sba(imyEvolve
Tree
p66
(dp67
g7
(imyEvolve
Tree
p68
(dp69
g7
(imyEvolve
Tree
p70
(dp71
g19
I0
sg21
I00
sbsg19
I1
sg22
(imyEvolve
Tree
p72
(dp73
g19
I0
sg21
I00
sbsg25
I00
sg26
g27
sbsg19
I2
sg22
(imyEvolve
Tree
p74
(dp75
g7
(imyEvolve
Tree
p76
(dp77
g19
I0
sg21
I00
sbsg19
I1
sg22
(imyEvolve
Tree
p78
(dp79
g19
I0
sg20
F-4.384392888440284
sg21
I01
sbsg25
I00
sg26
g57
sbsg25
I00
sg26
g57
sba(imyEvolve
Tree
p80
(dp81
g7
(imyEvolve
Tree
p82
(dp83
g7
(imyEvolve
Tree
p84
(dp85
g19
I0
sg21
I00
sbsg19
I1
sg22
(imyEvolve
Tree
p86
(dp87
g19
I0
sg21
I00
sbsg25
I00
sg26
g27
sbsg19
I2
sg22
(imyEvolve
Tree
p88
(dp89
g7
(imyEvolve
Tree
p90
(dp91
g19
I0
sg21
I00
sbsg19
I1
sg22
(imyEvolve
Tree
p92
(dp93
g19
I0
sg20
F1.1997862212991812
sg21
I01
sbsg25
I00
sg26
g57
sbsg25
I00
sg26
g44
sba(imyEvolve
Tree
p94
(dp95
g12
(imyEvolve
Tree
p96
(dp97
g7
(imyEvolve
Tree
p98
(dp99
g7
(imyEvolve
Tree
p100
(dp101
g19
I0
sg20
F0.36826992967050387
sg21
I01
sbsg19
I1
sg22
(imyEvolve
Tree
p102
(dp103
g19
I0
sg20
F4.856780197386492
sg21
I01
sbsg25
I00
sg26
g27
sbsg19
I2
sg22
(imyEvolve
Tree
p104
(dp105
g7
(imyEvolve
Tree
p106
(dp107
g19
I0
sg20
F-0.5563782429086759
sg21
I01
sbsg19
I1
sg22
(imyEvolve
Tree
p108
(dp109
g19
I0
sg20
F3.779247722163099
sg21
I01
sbsg25
I00
sg26
g57
sbsg25
I00
sg26
g27
sbsg19
I3
sg25
I01
sg26
g43
sba(imyEvolve
Tree
p110
(dp111
g7
(imyEvolve
Tree
p112
(dp113
g12
(imyEvolve
Tree
p114
(dp115
g12
(imyEvolve
Tree
p116
(dp117
g19
I0
sg20
F-0.10252813506873082
sg21
I01
sbsg19
I1
sg25
I01
sg26
g38
sbsg19
I2
sg25
I01
sg26
g38
sbsg19
I3
sg22
(imyEvolve
Tree
p118
(dp119
g12
(imyEvolve
Tree
p120
(dp121
g7
(imyEvolve
Tree
p122
(dp123
g19
I0
sg20
F0.06713501900660557
sg21
I01
sbsg19
I1
sg22
(imyEvolve
Tree
p124
(dp125
g19
I0
sg20
F-2.2308556886165753
sg21
I01
sbsg25
I00
sg26
g44
sbsg19
I2
sg25
I01
sg26
g43
sbsg25
I00
sg26
g27
sba(imyEvolve
Tree
p126
(dp127
g19
I3
sg7
(imyEvolve
Tree
p128
(dp129
g12
(imyEvolve
Tree
p130
(dp131
g19
I1
sg7
(imyEvolve
Tree
p132
(dp133
g19
I0
sg21
I00
sbsg22
(imyEvolve
Tree
p134
(dp135
g19
I0
sg20
F-4.922991512702212
sg21
I01
sbsg25
I00
sg26
g57
sbsg19
I2
sg25
I01
sg26
g29
sbsg22
(imyEvolve
Tree
p136
(dp137
g19
I2
sg7
(imyEvolve
Tree
p138
(dp139
g12
(imyEvolve
Tree
p140
(dp141
g19
I0
sg21
I00
sbsg19
I1
sg25
I01
sg26
g28
sbsg22
(imyEvolve
Tree
p142
(dp143
g19
I1
sg7
(imyEvolve
Tree
p144
(dp145
g19
I0
sg20
F-2.354053389279472
sg21
I01
sbsg22
(imyEvolve
Tree
p146
(dp147
g19
I0
sg21
I00
sbsg25
I00
sg26
g57
sbsg25
I00
sg26
g27
sbsg25
I00
sg26
g27
sba(imyEvolve
Tree
p148
(dp149
g12
(imyEvolve
Tree
p150
(dp151
g12
(imyEvolve
Tree
p152
(dp153
g7
(imyEvolve
Tree
p154
(dp155
g7
(imyEvolve
Tree
p156
(dp157
g19
I0
sg20
F2.4161430021550787
sg21
I01
sbsg19
I1
sg22
(imyEvolve
Tree
p158
(dp159
g19
I0
sg20
F-3.4231197917564096
sg21
I01
sbsg25
I00
sg26
g44
sbsg19
I2
sg22
(imyEvolve
Tree
p160
(dp161
g7
(imyEvolve
Tree
p162
(dp163
g19
I0
sg21
I00
sbsg19
I1
sg22
(imyEvolve
Tree
p164
(dp165
g19
I0
sg20
F0.4134078578935956
sg21
I01
sbsg25
I00
sg26
g27
sbsg25
I00
sg26
g27
sbsg19
I3
sg25
I01
sg26
g29
sbsg19
I4
sg25
I01
sg26
g29
sba(imyEvolve
Tree
p166
(dp167
g12
(imyEvolve
Tree
p168
(dp169
g12
(imyEvolve
Tree
p170
(dp171
g12
(imyEvolve
Tree
p172
(dp173
g7
(imyEvolve
Tree
p174
(dp175
g12
(imyEvolve
Tree
p176
(dp177
g19
I0
sg20
F-1.5266529772187711
sg21
I01
sbsg19
I1
sg25
I01
sg26
g29
sbsg19
I2
sg22
(imyEvolve
Tree
p178
(dp179
g7
(imyEvolve
Tree
p180
(dp181
g19
I0
sg20
F2.490962801265403
sg21
I01
sbsg19
I1
sg22
(imyEvolve
Tree
p182
(dp183
g19
I0
sg21
I00
sbsg25
I00
sg26
g27
sbsg25
I00
sg26
g44
sbsg19
I3
sg25
I01
sg26
g43
sbsg19
I4
sg25
I01
sg26
g28
sbsg19
I5
sg25
I01
sg26
g28
sba(imyEvolve
Tree
p184
(dp185
g12
(imyEvolve
Tree
p186
(dp187
g19
I4
sg7
(imyEvolve
Tree
p188
(dp189
g19
I3
sg7
(imyEvolve
Tree
p190
(dp191
g12
(imyEvolve
Tree
p192
(dp193
g12
(imyEvolve
Tree
p194
(dp195
g19
I0
sg20
F-0.25333664737598305
sg21
I01
sbsg19
I1
sg25
I01
sg26
g29
sbsg19
I2
sg25
I01
sg26
g28
sbsg22
(imyEvolve
Tree
p196
(dp197
g19
I2
sg7
(imyEvolve
Tree
p198
(dp199
g12
(imyEvolve
Tree
p200
(dp201
g19
I0
sg20
F4.323065906029118
sg21
I01
sbsg19
I1
sg25
I01
sg26
g38
sbsg22
(imyEvolve
Tree
p202
(dp203
g19
I1
sg7
(imyEvolve
Tree
p204
(dp205
g19
I0
sg20
F-0.14913415358889104
sg21
I01
sbsg22
(imyEvolve
Tree
p206
(dp207
g19
I0
sg21
I00
sbsg25
I00
sg26
g44
sbsg25
I00
sg26
g57
sbsg25
I00
sg26
g27
sbsg22
(imyEvolve
Tree
p208
(dp209
g12
(imyEvolve
Tree
p210
(dp211
g12
(imyEvolve
Tree
p212
(dp213
g19
I1
sg7
(imyEvolve
Tree
p214
(dp215
g19
I0
sg21
I00
sbsg22
(imyEvolve
Tree
p216
(dp217
g19
I0
sg20
F-3.134859247059917
sg21
I01
sbsg25
I00
sg26
g44
sbsg19
I2
sg25
I01
sg26
g38
sbsg19
I3
sg25
I01
sg26
g43
sbsg25
I00
sg26
g57
sbsg19
I5
sg25
I01
sg26
g28
sba(imyEvolve
Tree
p218
(dp219
g7
(imyEvolve
Tree
p220
(dp221
g7
(imyEvolve
Tree
p222
(dp223
g7
(imyEvolve
Tree
p224
(dp225
g7
(imyEvolve
Tree
p226
(dp227
g12
(imyEvolve
Tree
p228
(dp229
g19
I0
sg21
I00
sbsg19
I1
sg25
I01
sg26
g28
sbsg19
I2
sg22
(imyEvolve
Tree
p230
(dp231
g7
(imyEvolve
Tree
p232
(dp233
g19
I0
sg20
F3.24573270997651
sg21
I01
sbsg19
I1
sg22
(imyEvolve
Tree
p234
(dp235
g19
I0
sg21
I00
sbsg25
I00
sg26
g57
sbsg25
I00
sg26
g57
sbsg19
I3
sg22
(imyEvolve
Tree
p236
(dp237
g12
(imyEvolve
Tree
p238
(dp239
g12
(imyEvolve
Tree
p240
(dp241
g19
I0
sg21
I00
sbsg19
I1
sg25
I01
sg26
g28
sbsg19
I2
sg25
I01
sg26
g29
sbsg25
I00
sg26
g57
sbsg19
I4
sg22
(imyEvolve
Tree
p242
(dp243
g12
(imyEvolve
Tree
p244
(dp245
g12
(imyEvolve
Tree
p246
(dp247
g7
(imyEvolve
Tree
p248
(dp249
g19
I0
sg21
I00
sbsg19
I1
sg22
(imyEvolve
Tree
p250
(dp251
g19
I0
sg21
I00
sbsg25
I00
sg26
g57
sbsg19
I2
sg25
I01
sg26
g29
sbsg19
I3
sg25
I01
sg26
g38
sbsg25
I00
sg26
g44
sbsg19
I5
sg22
(imyEvolve
Tree
p252
(dp253
g7
(imyEvolve
Tree
p254
(dp255
g7
(imyEvolve
Tree
p256
(dp257
g12
(imyEvolve
Tree
p258
(dp259
g12
(imyEvolve
Tree
p260
(dp261
g19
I0
sg21
I00
sbsg19
I1
sg25
I01
sg26
g38
sbsg19
I2
sg25
I01
sg26
g38
sbsg19
I3
sg22
(imyEvolve
Tree
p262
(dp263
g7
(imyEvolve
Tree
p264
(dp265
g12
(imyEvolve
Tree
p266
(dp267
g19
I0
sg21
I00
sbsg19
I1
sg25
I01
sg26
g38
sbsg19
I2
sg22
(imyEvolve
Tree
p268
(dp269
g7
(imyEvolve
Tree
p270
(dp271
g19
I0
sg20
F-4.3509255633618515
sg21
I01
sbsg19
I1
sg22
(imyEvolve
Tree
p272
(dp273
g19
I0
sg20
F1.2824754600024848
sg21
I01
sbsg25
I00
sg26
g27
sbsg25
I00
sg26
g57
sbsg25
I00
sg26
g57
sbsg19
I4
sg22
(imyEvolve
Tree
p274
(dp275
g7
(imyEvolve
Tree
p276
(dp277
g12
(imyEvolve
Tree
p278
(dp279
g12
(imyEvolve
Tree
p280
(dp281
g19
I0
sg20
F-4.185139649671111
sg21
I01
sbsg19
I1
sg25
I01
sg26
g28
sbsg19
I2
sg25
I01
sg26
g29
sbsg19
I3
sg22
(imyEvolve
Tree
p282
(dp283
g12
(imyEvolve
Tree
p284
(dp285
g7
(imyEvolve
Tree
p286
(dp287
g19
I0
sg21
I00
sbsg19
I1
sg22
(imyEvolve
Tree
p288
(dp289
g19
I0
sg21
I00
sbsg25
I00
sg26
g27
sbsg19
I2
sg25
I01
sg26
g38
sbsg25
I00
sg26
g57
sbsg25
I00
sg26
g57
sbsg25
I00
sg26
g57
sba(imyEvolve
Tree
p290
(dp291
g19
I2
sg7
(imyEvolve
Tree
p292
(dp293
g19
I1
sg7
(imyEvolve
Tree
p294
(dp295
g19
I0
sg20
F3.3565383883043136
sg21
I01
sbsg22
(imyEvolve
Tree
p296
(dp297
g19
I0
sg21
I00
sbsg25
I00
sg26
g57
sbsg22
(imyEvolve
Tree
p298
(dp299
g19
I1
sg7
(imyEvolve
Tree
p300
(dp301
g19
I0
sg21
I00
sbsg22
(imyEvolve
Tree
p302
(dp303
g19
I0
sg21
I00
sbsg25
I00
sg26
g57
sbsg25
I00
sg26
g44
sba(imyEvolve
Tree
p304
(dp305
g7
(imyEvolve
Tree
p306
(dp307
g7
(imyEvolve
Tree
p308
(dp309
g7
(imyEvolve
Tree
p310
(dp311
g12
(imyEvolve
Tree
p312
(dp313
g19
I0
sg20
F-2.540485090379707
sg21
I01
sbsg19
I1
sg25
I01
sg26
g28
sbsg19
I2
sg22
(imyEvolve
Tree
p314
(dp315
g12
(imyEvolve
Tree
p316
(dp317
g19
I0
sg20
F-1.4904376319115045
sg21
I01
sbsg19
I1
sg25
I01
sg26
g43
sbsg25
I00
sg26
g44
sbsg19
I3
sg22
(imyEvolve
Tree
p318
(dp319
g12
(imyEvolve
Tree
p320
(dp321
g7
(imyEvolve
Tree
p322
(dp323
g19
I0
sg21
I00
sbsg19
I1
sg22
(imyEvolve
Tree
p324
(dp325
g19
I0
sg20
F-2.2459016666025944
sg21
I01
sbsg25
I00
sg26
g44
sbsg19
I2
sg25
I01
sg26
g43
sbsg25
I00
sg26
g57
sbsg19
I4
sg22
(imyEvolve
Tree
p326
(dp327
g12
(imyEvolve
Tree
p328
(dp329
g12
(imyEvolve
Tree
p330
(dp331
g12
(imyEvolve
Tree
p332
(dp333
g19
I0
sg20
F-2.8656185528392273
sg21
I01
sbsg19
I1
sg25
I01
sg26
g43
sbsg19
I2
sg25
I01
sg26
g43
sbsg19
I3
sg25
I01
sg26
g29
sbsg25
I00
sg26
g27
sba(imyEvolve
Tree
p334
(dp335
g12
(imyEvolve
Tree
p336
(dp337
g7
(imyEvolve
Tree
p338
(dp339
g12
(imyEvolve
Tree
p340
(dp341
g7
(imyEvolve
Tree
p342
(dp343
g19
I0
sg20
F3.7580148290723816
sg21
I01
sbsg19
I1
sg22
(imyEvolve
Tree
p344
(dp345
g19
I0
sg21
I00
sbsg25
I00
sg26
g44
sbsg19
I2
sg25
I01
sg26
g28
sbsg19
I3
sg22
(imyEvolve
Tree
p346
(dp347
g7
(imyEvolve
Tree
p348
(dp349
g7
(imyEvolve
Tree
p350
(dp351
g19
I0
sg21
I00
sbsg19
I1
sg22
(imyEvolve
Tree
p352
(dp353
g19
I0
sg20
F4.258500687547135
sg21
I01
sbsg25
I00
sg26
g27
sbsg19
I2
sg22
(imyEvolve
Tree
p354
(dp355
g12
(imyEvolve
Tree
p356
(dp357
g19
I0
sg21
I00
sbsg19
I1
sg25
I01
sg26
g43
sbsg25
I00
sg26
g44
sbsg25
I00
sg26
g44
sbsg19
I4
sg25
I01
sg26
g43
sba(imyEvolve
Tree
p358
(dp359
g19
I4
sg7
(imyEvolve
Tree
p360
(dp361
g12
(imyEvolve
Tree
p362
(dp363
g19
I2
sg7
(imyEvolve
Tree
p364
(dp365
g19
I1
sg7
(imyEvolve
Tree
p366
(dp367
g19
I0
sg21
I00
sbsg22
(imyEvolve
Tree
p368
(dp369
g19
I0
sg21
I00
sbsg25
I00
sg26
g44
sbsg22
(imyEvolve
Tree
p370
(dp371
g12
(imyEvolve
Tree
p372
(dp373
g19
I0
sg20
F-1.0087636143021852
sg21
I01
sbsg19
I1
sg25
I01
sg26
g29
sbsg25
I00
sg26
g27
sbsg19
I3
sg25
I01
sg26
g29
sbsg22
(imyEvolve
Tree
p374
(dp375
g12
(imyEvolve
Tree
p376
(dp377
g19
I2
sg7
(imyEvolve
Tree
p378
(dp379
g19
I1
sg7
(imyEvolve
Tree
p380
(dp381
g19
I0
sg20
F4.568233128323287
sg21
I01
sbsg22
(imyEvolve
Tree
p382
(dp383
g19
I0
sg20
F1.054438958820886
sg21
I01
sbsg25
I00
sg26
g27
sbsg22
(imyEvolve
Tree
p384
(dp385
g19
I1
sg7
(imyEvolve
Tree
p386
(dp387
g19
I0
sg21
I00
sbsg22
(imyEvolve
Tree
p388
(dp389
g19
I0
sg21
I00
sbsg25
I00
sg26
g27
sbsg25
I00
sg26
g27
sbsg19
I3
sg25
I01
sg26
g28
sbsg25
I00
sg26
g57
sba(imyEvolve
Tree
p390
(dp391
g19
I2
sg7
(imyEvolve
Tree
p392
(dp393
g19
I1
sg7
(imyEvolve
Tree
p394
(dp395
g19
I0
sg20
F-3.9092198766455812
sg21
I01
sbsg22
(imyEvolve
Tree
p396
(dp397
g19
I0
sg21
I00
sbsg25
I00
sg26
g27
sbsg22
(imyEvolve
Tree
p398
(dp399
g19
I1
sg7
(imyEvolve
Tree
p400
(dp401
g19
I0
sg20
F1.1652868972708719
sg21
I01
sbsg22
(imyEvolve
Tree
p402
(dp403
g19
I0
sg21
I00
sbsg25
I00
sg26
g44
sbsg25
I00
sg26
g57
sba(imyEvolve
Tree
p404
(dp405
g12
(imyEvolve
Tree
p406
(dp407
g7
(imyEvolve
Tree
p408
(dp409
g12
(imyEvolve
Tree
p410
(dp411
g7
(imyEvolve
Tree
p412
(dp413
g19
I0
sg21
I00
sbsg19
I1
sg22
(imyEvolve
Tree
p414
(dp415
g19
I0
sg21
I00
sbsg25
I00
sg26
g27
sbsg19
I2
sg25
I01
sg26
g43
sbsg19
I3
sg22
(imyEvolve
Tree
p416
(dp417
g12
(imyEvolve
Tree
p418
(dp419
g12
(imyEvolve
Tree
p420
(dp421
g19
I0
sg20
F3.2715046571225788
sg21
I01
sbsg19
I1
sg25
I01
sg26
g29
sbsg19
I2
sg25
I01
sg26
g38
sbsg25
I00
sg26
g27
sbsg19
I4
sg25
I01
sg26
g29
sba(imyEvolve
Tree
p422
(dp423
g7
(imyEvolve
Tree
p424
(dp425
g7
(imyEvolve
Tree
p426
(dp427
g12
(imyEvolve
Tree
p428
(dp429
g19
I0
sg20
F-1.5928010025755048
sg21
I01
sbsg19
I1
sg25
I01
sg26
g29
sbsg19
I2
sg22
(imyEvolve
Tree
p430
(dp431
g7
(imyEvolve
Tree
p432
(dp433
g19
I0
sg20
F-0.2856660002625251
sg21
I01
sbsg19
I1
sg22
(imyEvolve
Tree
p434
(dp435
g19
I0
sg20
F4.192145816549843
sg21
I01
sbsg25
I00
sg26
g57
sbsg25
I00
sg26
g27
sbsg19
I3
sg22
(imyEvolve
Tree
p436
(dp437
g7
(imyEvolve
Tree
p438
(dp439
g7
(imyEvolve
Tree
p440
(dp441
g19
I0
sg20
F4.963102354681556
sg21
I01
sbsg19
I1
sg22
(imyEvolve
Tree
p442
(dp443
g19
I0
sg21
I00
sbsg25
I00
sg26
g27
sbsg19
I2
sg22
(imyEvolve
Tree
p444
(dp445
g12
(imyEvolve
Tree
p446
(dp447
g19
I0
sg21
I00
sbsg19
I1
sg25
I01
sg26
g43
sbsg25
I00
sg26
g44
sbsg25
I00
sg26
g44
sba(imyEvolve
Tree
p448
(dp449
g7
(imyEvolve
Tree
p450
(dp451
g12
(imyEvolve
Tree
p452
(dp453
g7
(imyEvolve
Tree
p454
(dp455
g7
(imyEvolve
Tree
p456
(dp457
g19
I0
sg20
F3.6998065349877844
sg21
I01
sbsg19
I1
sg22
(imyEvolve
Tree
p458
(dp459
g19
I0
sg21
I00
sbsg25
I00
sg26
g44
sbsg19
I2
sg22
(imyEvolve
Tree
p460
(dp461
g12
(imyEvolve
Tree
p462
(dp463
g19
I0
sg21
I00
sbsg19
I1
sg25
I01
sg26
g43
sbsg25
I00
sg26
g57
sbsg19
I3
sg25
I01
sg26
g43
sbsg19
I4
sg22
(imyEvolve
Tree
p464
(dp465
g7
(imyEvolve
Tree
p466
(dp467
g12
(imyEvolve
Tree
p468
(dp469
g12
(imyEvolve
Tree
p470
(dp471
g19
I0
sg20
F-2.4011608483995515
sg21
I01
sbsg19
I1
sg25
I01
sg26
g43
sbsg19
I2
sg25
I01
sg26
g43
sbsg19
I3
sg22
(imyEvolve
Tree
p472
(dp473
g12
(imyEvolve
Tree
p474
(dp475
g12
(imyEvolve
Tree
p476
(dp477
g19
I0
sg21
I00
sbsg19
I1
sg25
I01
sg26
g28
sbsg19
I2
sg25
I01
sg26
g38
sbsg25
I00
sg26
g44
sbsg25
I00
sg26
g57
sba(imyEvolve
Tree
p478
(dp479
g7
(imyEvolve
Tree
p480
(dp481
g7
(imyEvolve
Tree
p482
(dp483
g12
(imyEvolve
Tree
p484
(dp485
g19
I0
sg21
I00
sbsg19
I1
sg25
I01
sg26
g43
sbsg19
I2
sg22
(imyEvolve
Tree
p486
(dp487
g12
(imyEvolve
Tree
p488
(dp489
g19
I0
sg21
I00
sbsg19
I1
sg25
I01
sg26
g38
sbsg25
I00
sg26
g44
sbsg19
I3
sg22
(imyEvolve
Tree
p490
(dp491
g12
(imyEvolve
Tree
p492
(dp493
g7
(imyEvolve
Tree
p494
(dp495
g19
I0
sg21
I00
sbsg19
I1
sg22
(imyEvolve
Tree
p496
(dp497
g19
I0
sg21
I00
sbsg25
I00
sg26
g27
sbsg19
I2
sg25
I01
sg26
g38
sbsg25
I00
sg26
g27
sbaa(lp498
(imyEvolve
Tree
p499
(dp500
g12
(imyEvolve
Tree
p501
(dp502
g12
(imyEvolve
Tree
p503
(dp504
g19
I2
sg7
(imyEvolve
Tree
p505
(dp506
g19
I1
sg7
(imyEvolve
Tree
p507
(dp508
g19
I0
sg20
F3.3961211733672485
sg21
I01
sbsg22
(imyEvolve
Tree
p509
(dp510
g19
I0
sg21
I00
sbsg25
I00
sg26
g57
sbsg22
(imyEvolve
Tree
p511
(dp512
g12
(imyEvolve
Tree
p513
(dp514
g19
I0
sg20
F-2.6512194066828885
sg21
I01
sbsg19
I1
sg25
I01
sg26
g43
sbsg25
I00
sg26
g44
sbsg19
I3
sg25
I01
sg26
g29
sbsg19
I4
sg25
I01
sg26
g28
sba(imyEvolve
Tree
p515
(dp516
g7
(imyEvolve
Tree
p517
(dp518
g12
(imyEvolve
Tree
p519
(dp520
g19
I0
sg20
F-1.2821020582512679
sg21
I01
sbsg19
I1
sg25
I01
sg26
g43
sbsg19
I2
sg22
(imyEvolve
Tree
p521
(dp522
g7
(imyEvolve
Tree
p523
(dp524
g19
I0
sg21
I00
sbsg19
I1
sg22
(imyEvolve
Tree
p525
(dp526
g19
I0
sg21
I00
sbsg25
I00
sg26
g57
sbsg25
I00
sg26
g44
sba(imyEvolve
Tree
p527
(dp528
g19
I5
sg7
(imyEvolve
Tree
p529
(dp530
g12
(imyEvolve
Tree
p531
(dp532
g12
(imyEvolve
Tree
p533
(dp534
g12
(imyEvolve
Tree
p535
(dp536
g12
(imyEvolve
Tree
p537
(dp538
g19
I0
sg21
I00
sbsg19
I1
sg25
I01
sg26
g38
sbsg19
I2
sg25
I01
sg26
g43
sbsg19
I3
sg25
I01
sg26
g28
sbsg19
I4
sg25
I01
sg26
g38
sbsg22
(imyEvolve
Tree
p539
(dp540
g12
(imyEvolve
Tree
p541
(dp542
g19
I3
sg7
(imyEvolve
Tree
p543
(dp544
g12
(imyEvolve
Tree
p545
(dp546
g12
(imyEvolve
Tree
p547
(dp548
g19
I0
sg21
I00
sbsg19
I1
sg25
I01
sg26
g28
sbsg19
I2
sg25
I01
sg26
g29
sbsg22
(imyEvolve
Tree
p549
(dp550
g19
I2
sg7
(imyEvolve
Tree
p551
(dp552
g12
(imyEvolve
Tree
p553
(dp554
g19
I0
sg21
I00
sbsg19
I1
sg25
I01
sg26
g28
sbsg22
(imyEvolve
Tree
p555
(dp556
g19
I1
sg7
(imyEvolve
Tree
p557
(dp558
g19
I0
sg21
I00
sbsg22
(imyEvolve
Tree
p559
(dp560
g19
I0
sg20
F4.8073417935091385
sg21
I01
sbsg25
I00
sg26
g57
sbsg25
I00
sg26
g44
sbsg25
I00
sg26
g27
sbsg19
I4
sg25
I01
sg26
g28
sbsg25
I00
sg26
g27
sba(imyEvolve
Tree
p561
(dp562
g12
(imyEvolve
Tree
p563
(dp564
g12
(imyEvolve
Tree
p565
(dp566
g12
(imyEvolve
Tree
p567
(dp568
g12
(imyEvolve
Tree
p569
(dp570
g19
I0
sg21
I00
sbsg19
I1
sg25
I01
sg26
g38
sbsg19
I2
sg25
I01
sg26
g28
sbsg19
I3
sg25
I01
sg26
g29
sbsg19
I4
sg25
I01
sg26
g43
sba(imyEvolve
Tree
p571
(dp572
g12
(imyEvolve
Tree
p573
(dp574
g19
I2
sg7
(imyEvolve
Tree
p575
(dp576
g19
I1
sg7
(imyEvolve
Tree
p577
(dp578
g19
I0
sg21
I00
sbsg22
(imyEvolve
Tree
p579
(dp580
g19
I0
sg20
F4.128210598149574
sg21
I01
sbsg25
I00
sg26
g27
sbsg22
(imyEvolve
Tree
p581
(dp582
g12
(imyEvolve
Tree
p583
(dp584
g19
I0
sg20
F-0.15527529272676865
sg21
I01
sbsg19
I1
sg25
I01
sg26
g43
sbsg25
I00
sg26
g57
sbsg19
I3
sg25
I01
sg26
g29
sba(imyEvolve
Tree
p585
(dp586
g19
I4
sg7
(imyEvolve
Tree
p587
(dp588
g12
(imyEvolve
Tree
p589
(dp590
g19
I2
sg7
(imyEvolve
Tree
p591
(dp592
g19
I1
sg7
(imyEvolve
Tree
p593
(dp594
g19
I0
sg21
I00
sbsg22
(imyEvolve
Tree
p595
(dp596
g19
I0
sg21
I00
sbsg25
I00
sg26
g27
sbsg22
(imyEvolve
Tree
p597
(dp598
g19
I1
sg7
(imyEvolve
Tree
p599
(dp600
g19
I0
sg21
I00
sbsg22
(imyEvolve
Tree
p601
(dp602
g19
I0
sg21
I00
sbsg25
I00
sg26
g44
sbsg25
I00
sg26
g57
sbsg19
I3
sg25
I01
sg26
g29
sbsg22
(imyEvolve
Tree
p603
(dp604
g12
(imyEvolve
Tree
p605
(dp606
g12
(imyEvolve
Tree
p607
(dp608
g12
(imyEvolve
Tree
p609
(dp610
g19
I0
sg21
I00
sbsg19
I1
sg25
I01
sg26
g38
sbsg19
I2
sg25
I01
sg26
g29
sbsg19
I3
sg25
I01
sg26
g43
sbsg25
I00
sg26
g27
sba(imyEvolve
Tree
p611
(dp612
g12
(imyEvolve
Tree
p613
(dp614
g12
(imyEvolve
Tree
p615
(dp616
g19
I0
sg21
I00
sbsg19
I1
sg25
I01
sg26
g29
sbsg19
I2
sg25
I01
sg26
g43
sba(imyEvolve
Tree
p617
(dp618
g12
(imyEvolve
Tree
p619
(dp620
g7
(imyEvolve
Tree
p621
(dp622
g12
(imyEvolve
Tree
p623
(dp624
g7
(imyEvolve
Tree
p625
(dp626
g12
(imyEvolve
Tree
p627
(dp628
g19
I0
sg21
I00
sbsg19
I1
sg25
I01
sg26
g28
sbsg19
I2
sg22
(imyEvolve
Tree
p629
(dp630
g12
(imyEvolve
Tree
p631
(dp632
g19
I0
sg21
I00
sbsg19
I1
sg25
I01
sg26
g29
sbsg25
I00
sg26
g57
sbsg19
I3
sg25
I01
sg26
g38
sbsg19
I4
sg22
(imyEvolve
Tree
p633
(dp634
g12
(imyEvolve
Tree
p635
(dp636
g7
(imyEvolve
Tree
p637
(dp638
g12
(imyEvolve
Tree
p639
(dp640
g19
I0
sg21
I00
sbsg19
I1
sg25
I01
sg26
g43
sbsg19
I2
sg22
(imyEvolve
Tree
p641
(dp642
g12
(imyEvolve
Tree
p643
(dp644
g19
I0
sg21
I00
sbsg19
I1
sg25
I01
sg26
g28
sbsg25
I00
sg26
g27
sbsg19
I3
sg25
I01
sg26
g28
sbsg25
I00
sg26
g57
sbsg19
I5
sg25
I01
sg26
g38
sba(imyEvolve
Tree
p645
(dp646
g7
(imyEvolve
Tree
p647
(dp648
g12
(imyEvolve
Tree
p649
(dp650
g7
(imyEvolve
Tree
p651
(dp652
g7
(imyEvolve
Tree
p653
(dp654
g7
(imyEvolve
Tree
p655
(dp656
g19
I0
sg20
F1.422367847877518
sg21
I01
sbsg19
I1
sg22
(imyEvolve
Tree
p657
(dp658
g19
I0
sg21
I00
sbsg25
I00
sg26
g57
sbsg19
I2
sg22
(imyEvolve
Tree
p659
(dp660
g7
(imyEvolve
Tree
p661
(dp662
g19
I0
sg20
F3.1021309285722047
sg21
I01
sbsg19
I1
sg22
(imyEvolve
Tree
p663
(dp664
g19
I0
sg20
F1.8726533325518595
sg21
I01
sbsg25
I00
sg26
g44
sbsg25
I00
sg26
g27
sbsg19
I3
sg22
(imyEvolve
Tree
p665
(dp666
g12
(imyEvolve
Tree
p667
(dp668
g12
(imyEvolve
Tree
p669
(dp670
g19
I0
sg21
I00
sbsg19
I1
sg25
I01
sg26
g43
sbsg19
I2
sg25
I01
sg26
g29
sbsg25
I00
sg26
g57
sbsg19
I4
sg25
I01
sg26
g43
sbsg19
I5
sg22
(imyEvolve
Tree
p671
(dp672
g12
(imyEvolve
Tree
p673
(dp674
g12
(imyEvolve
Tree
p675
(dp676
g12
(imyEvolve
Tree
p677
(dp678
g12
(imyEvolve
Tree
p679
(dp680
g19
I0
sg21
I00
sbsg19
I1
sg25
I01
sg26
g38
sbsg19
I2
sg25
I01
sg26
g28
sbsg19
I3
sg25
I01
sg26
g28
sbsg19
I4
sg25
I01
sg26
g29
sbsg25
I00
sg26
g27
sba(imyEvolve
Tree
p681
(dp682
g7
(imyEvolve
Tree
p683
(dp684
g7
(imyEvolve
Tree
p685
(dp686
g12
(imyEvolve
Tree
p687
(dp688
g7
(imyEvolve
Tree
p689
(dp690
g19
I0
sg20
F1.0119587020304497
sg21
I01
sbsg19
I1
sg22
(imyEvolve
Tree
p691
(dp692
g19
I0
sg20
F-4.336403324092059
sg21
I01
sbsg25
I00
sg26
g44
sbsg19
I2
sg25
I01
sg26
g43
sbsg19
I3
sg22
(imyEvolve
Tree
p693
(dp694
g12
(imyEvolve
Tree
p695
(dp696
g12
(imyEvolve
Tree
p697
(dp698
g19
I0
sg20
F4.287819345291265
sg21
I01
sbsg19
I1
sg25
I01
sg26
g38
sbsg19
I2
sg25
I01
sg26
g29
sbsg25
I00
sg26
g27
sbsg19
I4
sg22
(imyEvolve
Tree
p699
(dp700
g7
(imyEvolve
Tree
p701
(dp702
g7
(imyEvolve
Tree
p703
(dp704
g12
(imyEvolve
Tree
p705
(dp706
g19
I0
sg20
F-1.174851890815357
sg21
I01
sbsg19
I1
sg25
I01
sg26
g43
sbsg19
I2
sg22
(imyEvolve
Tree
p707
(dp708
g7
(imyEvolve
Tree
p709
(dp710
g19
I0
sg20
F4.544790417446032
sg21
I01
sbsg19
I1
sg22
(imyEvolve
Tree
p711
(dp712
g19
I0
sg20
F3.0250695198739503
sg21
I01
sbsg25
I00
sg26
g27
sbsg25
I00
sg26
g27
sbsg19
I3
sg22
(imyEvolve
Tree
p713
(dp714
g7
(imyEvolve
Tree
p715
(dp716
g7
(imyEvolve
Tree
p717
(dp718
g19
I0
sg20
F1.4573477107424608
sg21
I01
sbsg19
I1
sg22
(imyEvolve
Tree
p719
(dp720
g19
I0
sg20
F-1.55539114555412
sg21
I01
sbsg25
I00
sg26
g27
sbsg19
I2
sg22
(imyEvolve
Tree
p721
(dp722
g12
(imyEvolve
Tree
p723
(dp724
g19
I0
sg21
I00
sbsg19
I1
sg25
I01
sg26
g43
sbsg25
I00
sg26
g57
sbsg25
I00
sg26
g27
sbsg25
I00
sg26
g27
sba(imyEvolve
Tree
p725
(dp726
g7
(imyEvolve
Tree
p727
(dp728
g12
(imyEvolve
Tree
p729
(dp730
g12
(imyEvolve
Tree
p731
(dp732
g19
I0
sg20
F1.6929408264421202
sg21
I01
sbsg19
I1
sg25
I01
sg26
g28
sbsg19
I2
sg25
I01
sg26
g43
sbsg19
I3
sg22
(imyEvolve
Tree
p733
(dp734
g12
(imyEvolve
Tree
p735
(dp736
g12
(imyEvolve
Tree
p737
(dp738
g19
I0
sg20
F2.6007867663599926
sg21
I01
sbsg19
I1
sg25
I01
sg26
g38
sbsg19
I2
sg25
I01
sg26
g38
sbsg25
I00
sg26
g57
sba(imyEvolve
Tree
p739
(dp740
g12
(imyEvolve
Tree
p741
(dp742
g12
(imyEvolve
Tree
p743
(dp744
g12
(imyEvolve
Tree
p745
(dp746
g12
(imyEvolve
Tree
p747
(dp748
g19
I0
sg20
F-0.32330899020202786
sg21
I01
sbsg19
I1
sg25
I01
sg26
g43
sbsg19
I2
sg25
I01
sg26
g29
sbsg19
I3
sg25
I01
sg26
g28
sbsg19
I4
sg25
I01
sg26
g43
sba(imyEvolve
Tree
p749
(dp750
g12
(imyEvolve
Tree
p751
(dp752
g12
(imyEvolve
Tree
p753
(dp754
g19
I2
sg7
(imyEvolve
Tree
p755
(dp756
g12
(imyEvolve
Tree
p757
(dp758
g19
I0
sg20
F1.8842026463836419
sg21
I01
sbsg19
I1
sg25
I01
sg26
g38
sbsg22
(imyEvolve
Tree
p759
(dp760
g19
I1
sg7
(imyEvolve
Tree
p761
(dp762
g19
I0
sg21
I00
sbsg22
(imyEvolve
Tree
p763
(dp764
g19
I0
sg21
I00
sbsg25
I00
sg26
g44
sbsg25
I00
sg26
g57
sbsg19
I3
sg25
I01
sg26
g28
sbsg19
I4
sg25
I01
sg26
g28
sbaa(lp765
(imyEvolve
Tree
p766
(dp767
g12
(imyEvolve
Tree
p768
(dp769
g12
(imyEvolve
Tree
p770
(dp771
g19
I2
sg7
(imyEvolve
Tree
p772
(dp773
g19
I1
sg7
(imyEvolve
Tree
p774
(dp775
g19
I0
sg20
F2.835574407119122
sg21
I01
sbsg22
(imyEvolve
Tree
p776
(dp777
g19
I0
sg20
F-4.267164653367698
sg21
I01
sbsg25
I00
sg26
g44
sbsg22
(imyEvolve
Tree
p778
(dp779
g19
I1
sg7
(imyEvolve
Tree
p780
(dp781
g19
I0
sg20
F0.9382971745055437
sg21
I01
sbsg22
(imyEvolve
Tree
p782
(dp783
g19
I0
sg20
F-3.6946526457631643
sg21
I01
sbsg25
I00
sg26
g27
sbsg25
I00
sg26
g44
sbsg19
I3
sg25
I01
sg26
g43
sbsg19
I4
sg25
I01
sg26
g43
sba(imyEvolve
Tree
p784
(dp785
g12
(imyEvolve
Tree
p786
(dp787
g19
I2
sg7
(imyEvolve
Tree
p788
(dp789
g19
I1
sg7
(imyEvolve
Tree
p790
(dp791
g19
I0
sg20
F-2.8398003528963276
sg21
I01
sbsg22
(imyEvolve
Tree
p792
(dp793
g19
I0
sg21
I00
sbsg25
I00
sg26
g44
sbsg22
(imyEvolve
Tree
p794
(dp795
g19
I1
sg7
(imyEvolve
Tree
p796
(dp797
g19
I0
sg21
I00
sbsg22
(imyEvolve
Tree
p798
(dp799
g19
I0
sg21
I00
sbsg25
I00
sg26
g44
sbsg25
I00
sg26
g57
sbsg19
I3
sg25
I01
sg26
g43
sba(imyEvolve
Tree
p800
(dp801
g7
(imyEvolve
Tree
p802
(dp803
g12
(imyEvolve
Tree
p804
(dp805
g7
(imyEvolve
Tree
p806
(dp807
g19
I0
sg21
I00
sbsg19
I1
sg22
(imyEvolve
Tree
p808
(dp809
g19
I0
sg21
I00
sbsg25
I00
sg26
g44
sbsg19
I2
sg25
I01
sg26
g28
sbsg19
I3
sg22
(imyEvolve
Tree
p810
(dp811
g12
(imyEvolve
Tree
p812
(dp813
g7
(imyEvolve
Tree
p814
(dp815
g19
I0
sg21
I00
sbsg19
I1
sg22
(imyEvolve
Tree
p816
(dp817
g19
I0
sg21
I00
sbsg25
I00
sg26
g57
sbsg19
I2
sg25
I01
sg26
g29
sbsg25
I00
sg26
g44
sba(imyEvolve
Tree
p818
(dp819
g12
(imyEvolve
Tree
p820
(dp821
g12
(imyEvolve
Tree
p822
(dp823
g12
(imyEvolve
Tree
p824
(dp825
g19
I0
sg20
F-3.7146204667406755
sg21
I01
sbsg19
I1
sg25
I01
sg26
g28
sbsg19
I2
sg25
I01
sg26
g29
sbsg19
I3
sg25
I01
sg26
g43
sba(imyEvolve
Tree
p826
(dp827
g12
(imyEvolve
Tree
p828
(dp829
g12
(imyEvolve
Tree
p830
(dp831
g7
(imyEvolve
Tree
p832
(dp833
g12
(imyEvolve
Tree
p834
(dp835
g19
I0
sg20
F1.079034952624581
sg21
I01
sbsg19
I1
sg25
I01
sg26
g28
sbsg19
I2
sg22
(imyEvolve
Tree
p836
(dp837
g12
(imyEvolve
Tree
p838
(dp839
g19
I0
sg21
I00
sbsg19
I1
sg25
I01
sg26
g43
sbsg25
I00
sg26
g57
sbsg19
I3
sg25
I01
sg26
g28
sbsg19
I4
sg25
I01
sg26
g29
sba(imyEvolve
Tree
p840
(dp841
g19
I4
sg7
(imyEvolve
Tree
p842
(dp843
g19
I3
sg7
(imyEvolve
Tree
p844
(dp845
g12
(imyEvolve
Tree
p846
(dp847
g19
I1
sg7
(imyEvolve
Tree
p848
(dp849
g19
I0
sg21
I00
sbsg22
(imyEvolve
Tree
p850
(dp851
g19
I0
sg21
I00
sbsg25
I00
sg26
g57
sbsg19
I2
sg25
I01
sg26
g28
sbsg22
(imyEvolve
Tree
p852
(dp853
g19
I2
sg7
(imyEvolve
Tree
p854
(dp855
g19
I1
sg7
(imyEvolve
Tree
p856
(dp857
g19
I0
sg20
F2.2936805863778087
sg21
I01
sbsg22
(imyEvolve
Tree
p858
(dp859
g19
I0
sg20
F4.673558160986012
sg21
I01
sbsg25
I00
sg26
g57
sbsg22
(imyEvolve
Tree
p860
(dp861
g12
(imyEvolve
Tree
p862
(dp863
g19
I0
sg20
F-1.806599064459399
sg21
I01
sbsg19
I1
sg25
I01
sg26
g28
sbsg25
I00
sg26
g57
sbsg25
I00
sg26
g27
sbsg22
(imyEvolve
Tree
p864
(dp865
g12
(imyEvolve
Tree
p866
(dp867
g12
(imyEvolve
Tree
p868
(dp869
g12
(imyEvolve
Tree
p870
(dp871
g19
I0
sg20
F-3.262105197981431
sg21
I01
sbsg19
I1
sg25
I01
sg26
g43
sbsg19
I2
sg25
I01
sg26
g29
sbsg19
I3
sg25
I01
sg26
g38
sbsg25
I00
sg26
g57
sba(imyEvolve
Tree
p872
(dp873
g7
(imyEvolve
Tree
p874
(dp875
g12
(imyEvolve
Tree
p876
(dp877
g19
I0
sg20
F1.7198692565316556
sg21
I01
sbsg19
I1
sg25
I01
sg26
g43
sbsg19
I2
sg22
(imyEvolve
Tree
p878
(dp879
g12
(imyEvolve
Tree
p880
(dp881
g19
I0
sg20
F2.8804175337243523
sg21
I01
sbsg19
I1
sg25
I01
sg26
g28
sbsg25
I00
sg26
g44
sba(imyEvolve
Tree
p882
(dp883
g12
(imyEvolve
Tree
p884
(dp885
g7
(imyEvolve
Tree
p886
(dp887
g19
I0
sg20
F-0.26615797079395875
sg21
I01
sbsg19
I1
sg22
(imyEvolve
Tree
p888
(dp889
g19
I0
sg21
I00
sbsg25
I00
sg26
g27
sbsg19
I2
sg25
I01
sg26
g29
sba(imyEvolve
Tree
p890
(dp891
g12
(imyEvolve
Tree
p892
(dp893
g12
(imyEvolve
Tree
p894
(dp895
g7
(imyEvolve
Tree
p896
(dp897
g12
(imyEvolve
Tree
p898
(dp899
g7
(imyEvolve
Tree
p900
(dp901
g19
I0
sg20
F-2.9131513774064244
sg21
I01
sbsg19
I1
sg22
(imyEvolve
Tree
p902
(dp903
g19
I0
sg20
F-3.436649313200697
sg21
I01
sbsg25
I00
sg26
g44
sbsg19
I2
sg25
I01
sg26
g28
sbsg19
I3
sg22
(imyEvolve
Tree
p904
(dp905
g7
(imyEvolve
Tree
p906
(dp907
g7
(imyEvolve
Tree
p908
(dp909
g19
I0
sg21
I00
sbsg19
I1
sg22
(imyEvolve
Tree
p910
(dp911
g19
I0
sg21
I00
sbsg25
I00
sg26
g57
sbsg19
I2
sg22
(imyEvolve
Tree
p912
(dp913
g12
(imyEvolve
Tree
p914
(dp915
g19
I0
sg20
F-0.5275326611591993
sg21
I01
sbsg19
I1
sg25
I01
sg26
g38
sbsg25
I00
sg26
g44
sbsg25
I00
sg26
g27
sbsg19
I4
sg25
I01
sg26
g29
sbsg19
I5
sg25
I01
sg26
g29
sba(imyEvolve
Tree
p916
(dp917
g12
(imyEvolve
Tree
p918
(dp919
g19
I3
sg7
(imyEvolve
Tree
p920
(dp921
g12
(imyEvolve
Tree
p922
(dp923
g12
(imyEvolve
Tree
p924
(dp925
g19
I0
sg20
F3.1837144459620976
sg21
I01
sbsg19
I1
sg25
I01
sg26
g29
sbsg19
I2
sg25
I01
sg26
g38
sbsg22
(imyEvolve
Tree
p926
(dp927
g19
I2
sg7
(imyEvolve
Tree
p928
(dp929
g19
I1
sg7
(imyEvolve
Tree
p930
(dp931
g19
I0
sg21
I00
sbsg22
(imyEvolve
Tree
p932
(dp933
g19
I0
sg20
F2.2104596017613787
sg21
I01
sbsg25
I00
sg26
g44
sbsg22
(imyEvolve
Tree
p934
(dp935
g19
I1
sg7
(imyEvolve
Tree
p936
(dp937
g19
I0
sg20
F3.8130559228361633
sg21
I01
sbsg22
(imyEvolve
Tree
p938
(dp939
g19
I0
sg21
I00
sbsg25
I00
sg26
g57
sbsg25
I00
sg26
g44
sbsg25
I00
sg26
g44
sbsg19
I4
sg25
I01
sg26
g29
sba(imyEvolve
Tree
p940
(dp941
g12
(imyEvolve
Tree
p942
(dp943
g19
I4
sg7
(imyEvolve
Tree
p944
(dp945
g12
(imyEvolve
Tree
p946
(dp947
g12
(imyEvolve
Tree
p948
(dp949
g19
I1
sg7
(imyEvolve
Tree
p950
(dp951
g19
I0
sg21
I00
sbsg22
(imyEvolve
Tree
p952
(dp953
g19
I0
sg20
F2.3920039248098472
sg21
I01
sbsg25
I00
sg26
g57
sbsg19
I2
sg25
I01
sg26
g28
sbsg19
I3
sg25
I01
sg26
g43
sbsg22
(imyEvolve
Tree
p954
(dp955
g12
(imyEvolve
Tree
p956
(dp957
g12
(imyEvolve
Tree
p958
(dp959
g12
(imyEvolve
Tree
p960
(dp961
g19
I0
sg20
F-0.9313231909847186
sg21
I01
sbsg19
I1
sg25
I01
sg26
g43
sbsg19
I2
sg25
I01
sg26
g38
sbsg19
I3
sg25
I01
sg26
g43
sbsg25
I00
sg26
g57
sbsg19
I5
sg25
I01
sg26
g43
sba(imyEvolve
Tree
p962
(dp963
g7
(imyEvolve
Tree
p964
(dp965
g7
(imyEvolve
Tree
p966
(dp967
g12
(imyEvolve
Tree
p968
(dp969
g7
(imyEvolve
Tree
p970
(dp971
g7
(imyEvolve
Tree
p972
(dp973
g19
I0
sg20
F-0.9314163753962585
sg21
I01
sbsg19
I1
sg22
(imyEvolve
Tree
p974
(dp975
g19
I0
sg21
I00
sbsg25
I00
sg26
g57
sbsg19
I2
sg22
(imyEvolve
Tree
p976
(dp977
g7
(imyEvolve
Tree
p978
(dp979
g19
I0
sg21
I00
sbsg19
I1
sg22
(imyEvolve
Tree
p980
(dp981
g19
I0
sg21
I00
sbsg25
I00
sg26
g44
sbsg25
I00
sg26
g57
sbsg19
I3
sg25
I01
sg26
g38
sbsg19
I4
sg22
(imyEvolve
Tree
p982
(dp983
g7
(imyEvolve
Tree
p984
(dp985
g7
(imyEvolve
Tree
p986
(dp987
g12
(imyEvolve
Tree
p988
(dp989
g19
I0
sg21
I00
sbsg19
I1
sg25
I01
sg26
g43
sbsg19
I2
sg22
(imyEvolve
Tree
p990
(dp991
g12
(imyEvolve
Tree
p992
(dp993
g19
I0
sg21
I00
sbsg19
I1
sg25
I01
sg26
g43
sbsg25
I00
sg26
g57
sbsg19
I3
sg22
(imyEvolve
Tree
p994
(dp995
g12
(imyEvolve
Tree
p996
(dp997
g12
(imyEvolve
Tree
p998
(dp999
g19
I0
sg20
F4.468926905194827
sg21
I01
sbsg19
I1
sg25
I01
sg26
g29
sbsg19
I2
sg25
I01
sg26
g38
sbsg25
I00
sg26
g44
sbsg25
I00
sg26
g57
sbsg19
I5
sg22
(imyEvolve
Tree
p1000
(dp1001
g12
(imyEvolve
Tree
p1002
(dp1003
g7
(imyEvolve
Tree
p1004
(dp1005
g12
(imyEvolve
Tree
p1006
(dp1007
g12
(imyEvolve
Tree
p1008
(dp1009
g19
I0
sg21
I00
sbsg19
I1
sg25
I01
sg26
g28
sbsg19
I2
sg25
I01
sg26
g29
sbsg19
I3
sg22
(imyEvolve
Tree
p1010
(dp1011
g12
(imyEvolve
Tree
p1012
(dp1013
g12
(imyEvolve
Tree
p1014
(dp1015
g19
I0
sg21
I00
sbsg19
I1
sg25
I01
sg26
g43
sbsg19
I2
sg25
I01
sg26
g43
sbsg25
I00
sg26
g57
sbsg19
I4
sg25
I01
sg26
g43
sbsg25
I00
sg26
g27
sba(imyEvolve
Tree
p1016
(dp1017
g7
(imyEvolve
Tree
p1018
(dp1019
g12
(imyEvolve
Tree
p1020
(dp1021
g12
(imyEvolve
Tree
p1022
(dp1023
g7
(imyEvolve
Tree
p1024
(dp1025
g19
I0
sg21
I00
sbsg19
I1
sg22
(imyEvolve
Tree
p1026
(dp1027
g19
I0
sg21
I00
sbsg25
I00
sg26
g27
sbsg19
I2
sg25
I01
sg26
g28
sbsg19
I3
sg25
I01
sg26
g43
sbsg19
I4
sg22
(imyEvolve
Tree
p1028
(dp1029
g12
(imyEvolve
Tree
p1030
(dp1031
g7
(imyEvolve
Tree
p1032
(dp1033
g12
(imyEvolve
Tree
p1034
(dp1035
g19
I0
sg20
F-3.5315738430803103
sg21
I01
sbsg19
I1
sg25
I01
sg26
g28
sbsg19
I2
sg22
(imyEvolve
Tree
p1036
(dp1037
g12
(imyEvolve
Tree
p1038
(dp1039
g19
I0
sg21
I00
sbsg19
I1
sg25
I01
sg26
g28
sbsg25
I00
sg26
g27
sbsg19
I3
sg25
I01
sg26
g38
sbsg25
I00
sg26
g44
sba(imyEvolve
Tree
p1040
(dp1041
g12
(imyEvolve
Tree
p1042
(dp1043
g12
(imyEvolve
Tree
p1044
(dp1045
g19
I0
sg21
I00
sbsg19
I1
sg25
I01
sg26
g28
sbsg19
I2
sg25
I01
sg26
g43
sba(imyEvolve
Tree
p1046
(dp1047
g19
I5
sg7
(imyEvolve
Tree
p1048
(dp1049
g19
I4
sg7
(imyEvolve
Tree
p1050
(dp1051
g12
(imyEvolve
Tree
p1052
(dp1053
g12
(imyEvolve
Tree
p1054
(dp1055
g12
(imyEvolve
Tree
p1056
(dp1057
g19
I0
sg21
I00
sbsg19
I1
sg25
I01
sg26
g43
sbsg19
I2
sg25
I01
sg26
g43
sbsg19
I3
sg25
I01
sg26
g43
sbsg22
(imyEvolve
Tree
p1058
(dp1059
g19
I3
sg7
(imyEvolve
Tree
p1060
(dp1061
g19
I2
sg7
(imyEvolve
Tree
p1062
(dp1063
g12
(imyEvolve
Tree
p1064
(dp1065
g19
I0
sg20
F0.48454645169370014
sg21
I01
sbsg19
I1
sg25
I01
sg26
g28
sbsg22
(imyEvolve
Tree
p1066
(dp1067
g19
I1
sg7
(imyEvolve
Tree
p1068
(dp1069
g19
I0
sg21
I00
sbsg22
(imyEvolve
Tree
p1070
(dp1071
g19
I0
sg21
I00
sbsg25
I00
sg26
g27
sbsg25
I00
sg26
g57
sbsg22
(imyEvolve
Tree
p1072
(dp1073
g19
I2
sg7
(imyEvolve
Tree
p1074
(dp1075
g12
(imyEvolve
Tree
p1076
(dp1077
g19
I0
sg21
I00
sbsg19
I1
sg25
I01
sg26
g43
sbsg22
(imyEvolve
Tree
p1078
(dp1079
g12
(imyEvolve
Tree
p1080
(dp1081
g19
I0
sg21
I00
sbsg19
I1
sg25
I01
sg26
g43
sbsg25
I00
sg26
g44
sbsg25
I00
sg26
g44
sbsg25
I00
sg26
g57
sbsg22
(imyEvolve
Tree
p1082
(dp1083
g19
I4
sg7
(imyEvolve
Tree
p1084
(dp1085
g12
(imyEvolve
Tree
p1086
(dp1087
g12
(imyEvolve
Tree
p1088
(dp1089
g12
(imyEvolve
Tree
p1090
(dp1091
g19
I0
sg20
F3.403577003347035
sg21
I01
sbsg19
I1
sg25
I01
sg26
g38
sbsg19
I2
sg25
I01
sg26
g43
sbsg19
I3
sg25
I01
sg26
g28
sbsg22
(imyEvolve
Tree
p1092
(dp1093
g19
I3
sg7
(imyEvolve
Tree
p1094
(dp1095
g19
I2
sg7
(imyEvolve
Tree
p1096
(dp1097
g19
I1
sg7
(imyEvolve
Tree
p1098
(dp1099
g19
I0
sg21
I00
sbsg22
(imyEvolve
Tree
p1100
(dp1101
g19
I0
sg20
F0.054301183572000866
sg21
I01
sbsg25
I00
sg26
g57
sbsg22
(imyEvolve
Tree
p1102
(dp1103
g19
I1
sg7
(imyEvolve
Tree
p1104
(dp1105
g19
I0
sg21
I00
sbsg22
(imyEvolve
Tree
p1106
(dp1107
g19
I0
sg20
F1.921256179363228
sg21
I01
sbsg25
I00
sg26
g27
sbsg25
I00
sg26
g27
sbsg22
(imyEvolve
Tree
p1108
(dp1109
g19
I2
sg7
(imyEvolve
Tree
p1110
(dp1111
g12
(imyEvolve
Tree
p1112
(dp1113
g19
I0
sg21
I00
sbsg19
I1
sg25
I01
sg26
g29
sbsg22
(imyEvolve
Tree
p1114
(dp1115
g19
I1
sg7
(imyEvolve
Tree
p1116
(dp1117
g19
I0
sg21
I00
sbsg22
(imyEvolve
Tree
p1118
(dp1119
g19
I0
sg20
F4.718455102884816
sg21
I01
sbsg25
I00
sg26
g44
sbsg25
I00
sg26
g27
sbsg25
I00
sg26
g57
sbsg25
I00
sg26
g44
sbsg25
I00
sg26
g57
sbaasS'alpha'
p1120
F0.0012068478921166473
sS'fitness'
p1121
cnumpy.core.multiarray
scalar
p1122
(cnumpy
dtype
p1123
(S'f8'
p1124
I0
I1
tp1125
Rp1126
(I3
S'<'
p1127
NNNI-1
I-1
I0
tp1128
bS']m\xc5,g \xe6?'
p1129
tp1130
Rp1131
sS'weightSharing'
p1132
(lp1133
I01
asS'fitnessValid'
p1134
I00
sS'resolution'
p1135
I86
sb.