(imyEvolve
Individual
p0
(dp1
S'funcs'
p2
(lp3
(lp4
(imyEvolve
Tree
p5
(dp6
S'below'
p7
(imyEvolve
Tree
p8
(dp9
S'left'
p10
(imyEvolve
Tree
p11
(dp12
g7
(imyEvolve
Tree
p13
(dp14
S'depth'
p15
I0
sS'isConstant'
p16
I00
sbsg15
I1
sS'single'
p17
I01
sS'op'
p18
cmath
sin
p19
sbsg15
I2
sS'right'
p20
(imyEvolve
Tree
p21
(dp22
g10
(imyEvolve
Tree
p23
(dp24
g15
I0
sS'constant'
p25
F-1.7084950973149073
sg16
I01
sbsg15
I1
sg20
(imyEvolve
Tree
p26
(dp27
g15
I0
sg25
F-1.6824225675981075
sg16
I01
sbsg17
I00
sg18
coperator
mul
p28
sbsg17
I00
sg18
coperator
sub
p29
sbsg15
I3
sg17
I01
sg18
cmath
cos
p30
sba(imyEvolve
Tree
p31
(dp32
g7
(imyEvolve
Tree
p33
(dp34
g10
(imyEvolve
Tree
p35
(dp36
g7
(imyEvolve
Tree
p37
(dp38
g10
(imyEvolve
Tree
p39
(dp40
g15
I0
sg16
I00
sbsg15
I1
sg20
(imyEvolve
Tree
p41
(dp42
g15
I0
sg25
F-2.9381924687223426
sg16
I01
sbsg17
I00
sg18
coperator
add
p43
sbsg15
I2
sg17
I01
sg18
cmyEvolve
absSqrt
p44
sbsg15
I3
sg20
(imyEvolve
Tree
p45
(dp46
g10
(imyEvolve
Tree
p47
(dp48
g10
(imyEvolve
Tree
p49
(dp50
g15
I0
sg16
I00
sbsg15
I1
sg20
(imyEvolve
Tree
p51
(dp52
g15
I0
sg25
F-3.2630981291832994
sg16
I01
sbsg17
I00
sg18
g28
sbsg15
I2
sg20
(imyEvolve
Tree
p53
(dp54
g7
(imyEvolve
Tree
p55
(dp56
g15
I0
sg25
F4.503871533589578
sg16
I01
sbsg15
I1
sg17
I01
sg18
g44
sbsg17
I00
sg18
g28
sbsg17
I00
sg18
g29
sbsg15
I4
sg17
I01
sg18
g19
sba(imyEvolve
Tree
p57
(dp58
g15
I4
sg10
(imyEvolve
Tree
p59
(dp60
g15
I3
sg10
(imyEvolve
Tree
p61
(dp62
g7
(imyEvolve
Tree
p63
(dp64
g7
(imyEvolve
Tree
p65
(dp66
g15
I0
sg16
I00
sbsg15
I1
sg17
I01
sg18
cmyEvolve
square
p67
sbsg15
I2
sg17
I01
sg18
g30
sbsg20
(imyEvolve
Tree
p68
(dp69
g7
(imyEvolve
Tree
p70
(dp71
g15
I1
sg10
(imyEvolve
Tree
p72
(dp73
g15
I0
sg25
F2.055076498489134
sg16
I01
sbsg20
(imyEvolve
Tree
p74
(dp75
g15
I0
sg16
I00
sbsg17
I00
sg18
g43
sbsg15
I2
sg17
I01
sg18
g30
sbsg17
I00
sg18
g29
sbsg20
(imyEvolve
Tree
p76
(dp77
g7
(imyEvolve
Tree
p78
(dp79
g15
I2
sg10
(imyEvolve
Tree
p80
(dp81
g7
(imyEvolve
Tree
p82
(dp83
g15
I0
sg16
I00
sbsg15
I1
sg17
I01
sg18
g67
sbsg20
(imyEvolve
Tree
p84
(dp85
g7
(imyEvolve
Tree
p86
(dp87
g15
I0
sg25
F4.7634261051645375
sg16
I01
sbsg15
I1
sg17
I01
sg18
g30
sbsg17
I00
sg18
g43
sbsg15
I3
sg17
I01
sg18
g67
sbsg17
I00
sg18
g28
sba(imyEvolve
Tree
p88
(dp89
g10
(imyEvolve
Tree
p90
(dp91
g10
(imyEvolve
Tree
p92
(dp93
g15
I0
sg16
I00
sbsg15
I1
sg20
(imyEvolve
Tree
p94
(dp95
g15
I0
sg25
F-2.2925754211799045
sg16
I01
sbsg17
I00
sg18
g43
sbsg15
I2
sg20
(imyEvolve
Tree
p96
(dp97
g10
(imyEvolve
Tree
p98
(dp99
g15
I0
sg25
F-1.7579629441638875
sg16
I01
sbsg15
I1
sg20
(imyEvolve
Tree
p100
(dp101
g15
I0
sg16
I00
sbsg17
I00
sg18
g43
sbsg17
I00
sg18
g43
sba(imyEvolve
Tree
p102
(dp103
g7
(imyEvolve
Tree
p104
(dp105
g7
(imyEvolve
Tree
p106
(dp107
g10
(imyEvolve
Tree
p108
(dp109
g10
(imyEvolve
Tree
p110
(dp111
g7
(imyEvolve
Tree
p112
(dp113
g15
I0
sg16
I00
sbsg15
I1
sg17
I01
sg18
g44
sbsg15
I2
sg20
(imyEvolve
Tree
p114
(dp115
g10
(imyEvolve
Tree
p116
(dp117
g15
I0
sg16
I00
sbsg15
I1
sg20
(imyEvolve
Tree
p118
(dp119
g15
I0
sg25
F-3.6278149255916956
sg16
I01
sbsg17
I00
sg18
g43
sbsg17
I00
sg18
g29
sbsg15
I3
sg20
(imyEvolve
Tree
p120
(dp121
g10
(imyEvolve
Tree
p122
(dp123
g10
(imyEvolve
Tree
p124
(dp125
g15
I0
sg25
F2.946853823456255
sg16
I01
sbsg15
I1
sg20
(imyEvolve
Tree
p126
(dp127
g15
I0
sg25
F0.24897250191702547
sg16
I01
sbsg17
I00
sg18
g28
sbsg15
I2
sg20
(imyEvolve
Tree
p128
(dp129
g7
(imyEvolve
Tree
p130
(dp131
g15
I0
sg16
I00
sbsg15
I1
sg17
I01
sg18
g67
sbsg17
I00
sg18
g28
sbsg17
I00
sg18
g29
sbsg15
I4
sg17
I01
sg18
g44
sbsg15
I5
sg17
I01
sg18
g30
sba(imyEvolve
Tree
p132
(dp133
g7
(imyEvolve
Tree
p134
(dp135
g15
I4
sg10
(imyEvolve
Tree
p136
(dp137
g15
I3
sg10
(imyEvolve
Tree
p138
(dp139
g7
(imyEvolve
Tree
p140
(dp141
g7
(imyEvolve
Tree
p142
(dp143
g15
I0
sg16
I00
sbsg15
I1
sg17
I01
sg18
g30
sbsg15
I2
sg17
I01
sg18
g19
sbsg20
(imyEvolve
Tree
p144
(dp145
g15
I2
sg10
(imyEvolve
Tree
p146
(dp147
g15
I1
sg10
(imyEvolve
Tree
p148
(dp149
g15
I0
sg25
F0.1559529827691053
sg16
I01
sbsg20
(imyEvolve
Tree
p150
(dp151
g15
I0
sg25
F2.850050557618335
sg16
I01
sbsg17
I00
sg18
g29
sbsg20
(imyEvolve
Tree
p152
(dp153
g15
I1
sg10
(imyEvolve
Tree
p154
(dp155
g15
I0
sg16
I00
sbsg20
(imyEvolve
Tree
p156
(dp157
g15
I0
sg25
F1.4488672240588745
sg16
I01
sbsg17
I00
sg18
g28
sbsg17
I00
sg18
g29
sbsg17
I00
sg18
g29
sbsg20
(imyEvolve
Tree
p158
(dp159
g15
I3
sg10
(imyEvolve
Tree
p160
(dp161
g15
I2
sg10
(imyEvolve
Tree
p162
(dp163
g7
(imyEvolve
Tree
p164
(dp165
g15
I0
sg16
I00
sbsg15
I1
sg17
I01
sg18
g44
sbsg20
(imyEvolve
Tree
p166
(dp167
g15
I1
sg10
(imyEvolve
Tree
p168
(dp169
g15
I0
sg25
F-1.3166506802996594
sg16
I01
sbsg20
(imyEvolve
Tree
p170
(dp171
g15
I0
sg16
I00
sbsg17
I00
sg18
g28
sbsg17
I00
sg18
g28
sbsg20
(imyEvolve
Tree
p172
(dp173
g7
(imyEvolve
Tree
p174
(dp175
g7
(imyEvolve
Tree
p176
(dp177
g15
I0
sg25
F-3.2039783514072298
sg16
I01
sbsg15
I1
sg17
I01
sg18
g30
sbsg15
I2
sg17
I01
sg18
g19
sbsg17
I00
sg18
g29
sbsg17
I00
sg18
g43
sbsg15
I5
sg17
I01
sg18
g30
sba(imyEvolve
Tree
p178
(dp179
g7
(imyEvolve
Tree
p180
(dp181
g7
(imyEvolve
Tree
p182
(dp183
g10
(imyEvolve
Tree
p184
(dp185
g15
I0
sg25
F1.6894824959443557
sg16
I01
sbsg15
I1
sg20
(imyEvolve
Tree
p186
(dp187
g15
I0
sg25
F2.0096878301352747
sg16
I01
sbsg17
I00
sg18
g29
sbsg15
I2
sg17
I01
sg18
g30
sbsg15
I3
sg17
I01
sg18
g67
sba(imyEvolve
Tree
p188
(dp189
g7
(imyEvolve
Tree
p190
(dp191
g10
(imyEvolve
Tree
p192
(dp193
g7
(imyEvolve
Tree
p194
(dp195
g15
I0
sg25
F-0.7528714044979843
sg16
I01
sbsg15
I1
sg17
I01
sg18
g67
sbsg15
I2
sg20
(imyEvolve
Tree
p196
(dp197
g7
(imyEvolve
Tree
p198
(dp199
g15
I0
sg16
I00
sbsg15
I1
sg17
I01
sg18
g19
sbsg17
I00
sg18
g28
sbsg15
I3
sg17
I01
sg18
g19
sba(imyEvolve
Tree
p200
(dp201
g15
I3
sg10
(imyEvolve
Tree
p202
(dp203
g7
(imyEvolve
Tree
p204
(dp205
g7
(imyEvolve
Tree
p206
(dp207
g15
I0
sg16
I00
sbsg15
I1
sg17
I01
sg18
g30
sbsg15
I2
sg17
I01
sg18
g67
sbsg20
(imyEvolve
Tree
p208
(dp209
g7
(imyEvolve
Tree
p210
(dp211
g7
(imyEvolve
Tree
p212
(dp213
g15
I0
sg16
I00
sbsg15
I1
sg17
I01
sg18
g44
sbsg15
I2
sg17
I01
sg18
g30
sbsg17
I00
sg18
g28
sba(imyEvolve
Tree
p214
(dp215
g10
(imyEvolve
Tree
p216
(dp217
g7
(imyEvolve
Tree
p218
(dp219
g7
(imyEvolve
Tree
p220
(dp221
g7
(imyEvolve
Tree
p222
(dp223
g15
I0
sg16
I00
sbsg15
I1
sg17
I01
sg18
g19
sbsg15
I2
sg17
I01
sg18
g67
sbsg15
I3
sg17
I01
sg18
g44
sbsg15
I4
sg20
(imyEvolve
Tree
p224
(dp225
g10
(imyEvolve
Tree
p226
(dp227
g10
(imyEvolve
Tree
p228
(dp229
g7
(imyEvolve
Tree
p230
(dp231
g15
I0
sg25
F3.6844631502579848
sg16
I01
sbsg15
I1
sg17
I01
sg18
g67
sbsg15
I2
sg20
(imyEvolve
Tree
p232
(dp233
g7
(imyEvolve
Tree
p234
(dp235
g15
I0
sg25
F4.8521322551180575
sg16
I01
sbsg15
I1
sg17
I01
sg18
g44
sbsg17
I00
sg18
g29
sbsg15
I3
sg20
(imyEvolve
Tree
p236
(dp237
g10
(imyEvolve
Tree
p238
(dp239
g10
(imyEvolve
Tree
p240
(dp241
g15
I0
sg25
F-2.0116702489788016
sg16
I01
sbsg15
I1
sg20
(imyEvolve
Tree
p242
(dp243
g15
I0
sg16
I00
sbsg17
I00
sg18
g28
sbsg15
I2
sg20
(imyEvolve
Tree
p244
(dp245
g7
(imyEvolve
Tree
p246
(dp247
g15
I0
sg25
F3.43754186926064
sg16
I01
sbsg15
I1
sg17
I01
sg18
g30
sbsg17
I00
sg18
g28
sbsg17
I00
sg18
g28
sbsg17
I00
sg18
g28
sba(imyEvolve
Tree
p248
(dp249
g10
(imyEvolve
Tree
p250
(dp251
g7
(imyEvolve
Tree
p252
(dp253
g7
(imyEvolve
Tree
p254
(dp255
g15
I0
sg25
F-3.0543762612069503
sg16
I01
sbsg15
I1
sg17
I01
sg18
g30
sbsg15
I2
sg17
I01
sg18
g44
sbsg15
I3
sg20
(imyEvolve
Tree
p256
(dp257
g7
(imyEvolve
Tree
p258
(dp259
g10
(imyEvolve
Tree
p260
(dp261
g15
I0
sg25
F4.1174977866222005
sg16
I01
sbsg15
I1
sg20
(imyEvolve
Tree
p262
(dp263
g15
I0
sg16
I00
sbsg17
I00
sg18
g29
sbsg15
I2
sg17
I01
sg18
g30
sbsg17
I00
sg18
g29
sba(imyEvolve
Tree
p264
(dp265
g7
(imyEvolve
Tree
p266
(dp267
g7
(imyEvolve
Tree
p268
(dp269
g15
I0
sg16
I00
sbsg15
I1
sg17
I01
sg18
g19
sbsg15
I2
sg17
I01
sg18
g44
sba(imyEvolve
Tree
p270
(dp271
g7
(imyEvolve
Tree
p272
(dp273
g10
(imyEvolve
Tree
p274
(dp275
g7
(imyEvolve
Tree
p276
(dp277
g10
(imyEvolve
Tree
p278
(dp279
g15
I0
sg16
I00
sbsg15
I1
sg20
(imyEvolve
Tree
p280
(dp281
g15
I0
sg25
F-0.5314247984387972
sg16
I01
sbsg17
I00
sg18
g43
sbsg15
I2
sg17
I01
sg18
g67
sbsg15
I3
sg20
(imyEvolve
Tree
p282
(dp283
g10
(imyEvolve
Tree
p284
(dp285
g7
(imyEvolve
Tree
p286
(dp287
g15
I0
sg16
I00
sbsg15
I1
sg17
I01
sg18
g67
sbsg15
I2
sg20
(imyEvolve
Tree
p288
(dp289
g10
(imyEvolve
Tree
p290
(dp291
g15
I0
sg16
I00
sbsg15
I1
sg20
(imyEvolve
Tree
p292
(dp293
g15
I0
sg25
F0.5559625963953287
sg16
I01
sbsg17
I00
sg18
g29
sbsg17
I00
sg18
g29
sbsg17
I00
sg18
g29
sbsg15
I4
sg17
I01
sg18
g44
sba(imyEvolve
Tree
p294
(dp295
g7
(imyEvolve
Tree
p296
(dp297
g10
(imyEvolve
Tree
p298
(dp299
g10
(imyEvolve
Tree
p300
(dp301
g10
(imyEvolve
Tree
p302
(dp303
g7
(imyEvolve
Tree
p304
(dp305
g15
I0
sg16
I00
sbsg15
I1
sg17
I01
sg18
g44
sbsg15
I2
sg20
(imyEvolve
Tree
p306
(dp307
g10
(imyEvolve
Tree
p308
(dp309
g15
I0
sg25
F-1.1901953220798367
sg16
I01
sbsg15
I1
sg20
(imyEvolve
Tree
p310
(dp311
g15
I0
sg25
F1.027404319484849
sg16
I01
sbsg17
I00
sg18
g28
sbsg17
I00
sg18
g29
sbsg15
I3
sg20
(imyEvolve
Tree
p312
(dp313
g7
(imyEvolve
Tree
p314
(dp315
g10
(imyEvolve
Tree
p316
(dp317
g15
I0
sg16
I00
sbsg15
I1
sg20
(imyEvolve
Tree
p318
(dp319
g15
I0
sg16
I00
sbsg17
I00
sg18
g43
sbsg15
I2
sg17
I01
sg18
g67
sbsg17
I00
sg18
g43
sbsg15
I4
sg20
(imyEvolve
Tree
p320
(dp321
g10
(imyEvolve
Tree
p322
(dp323
g7
(imyEvolve
Tree
p324
(dp325
g10
(imyEvolve
Tree
p326
(dp327
g15
I0
sg16
I00
sbsg15
I1
sg20
(imyEvolve
Tree
p328
(dp329
g15
I0
sg16
I00
sbsg17
I00
sg18
g28
sbsg15
I2
sg17
I01
sg18
g19
sbsg15
I3
sg20
(imyEvolve
Tree
p330
(dp331
g7
(imyEvolve
Tree
p332
(dp333
g10
(imyEvolve
Tree
p334
(dp335
g15
I0
sg25
F2.601119799462481
sg16
I01
sbsg15
I1
sg20
(imyEvolve
Tree
p336
(dp337
g15
I0
sg25
F-2.100405307628667
sg16
I01
sbsg17
I00
sg18
g28
sbsg15
I2
sg17
I01
sg18
g30
sbsg17
I00
sg18
g29
sbsg17
I00
sg18
g29
sbsg15
I5
sg17
I01
sg18
g67
sba(imyEvolve
Tree
p338
(dp339
g7
(imyEvolve
Tree
p340
(dp341
g7
(imyEvolve
Tree
p342
(dp343
g15
I0
sg25
F4.935476402288469
sg16
I01
sbsg15
I1
sg17
I01
sg18
g44
sbsg15
I2
sg17
I01
sg18
g19
sba(imyEvolve
Tree
p344
(dp345
g7
(imyEvolve
Tree
p346
(dp347
g10
(imyEvolve
Tree
p348
(dp349
g7
(imyEvolve
Tree
p350
(dp351
g10
(imyEvolve
Tree
p352
(dp353
g7
(imyEvolve
Tree
p354
(dp355
g15
I0
sg25
F-2.7242486135304578
sg16
I01
sbsg15
I1
sg17
I01
sg18
g67
sbsg15
I2
sg20
(imyEvolve
Tree
p356
(dp357
g10
(imyEvolve
Tree
p358
(dp359
g15
I0
sg25
F1.5985790411431129
sg16
I01
sbsg15
I1
sg20
(imyEvolve
Tree
p360
(dp361
g15
I0
sg25
F-1.2222975064129713
sg16
I01
sbsg17
I00
sg18
g29
sbsg17
I00
sg18
g43
sbsg15
I3
sg17
I01
sg18
g67
sbsg15
I4
sg20
(imyEvolve
Tree
p362
(dp363
g7
(imyEvolve
Tree
p364
(dp365
g10
(imyEvolve
Tree
p366
(dp367
g10
(imyEvolve
Tree
p368
(dp369
g15
I0
sg16
I00
sbsg15
I1
sg20
(imyEvolve
Tree
p370
(dp371
g15
I0
sg25
F-3.9996517532675524
sg16
I01
sbsg17
I00
sg18
g28
sbsg15
I2
sg20
(imyEvolve
Tree
p372
(dp373
g10
(imyEvolve
Tree
p374
(dp375
g15
I0
sg25
F-0.30244116444470226
sg16
I01
sbsg15
I1
sg20
(imyEvolve
Tree
p376
(dp377
g15
I0
sg16
I00
sbsg17
I00
sg18
g28
sbsg17
I00
sg18
g43
sbsg15
I3
sg17
I01
sg18
g30
sbsg17
I00
sg18
g43
sbsg15
I5
sg17
I01
sg18
g19
sba(imyEvolve
Tree
p378
(dp379
g10
(imyEvolve
Tree
p380
(dp381
g10
(imyEvolve
Tree
p382
(dp383
g15
I0
sg25
F-0.35038495678464976
sg16
I01
sbsg15
I1
sg20
(imyEvolve
Tree
p384
(dp385
g15
I0
sg16
I00
sbsg17
I00
sg18
g29
sbsg15
I2
sg20
(imyEvolve
Tree
p386
(dp387
g10
(imyEvolve
Tree
p388
(dp389
g15
I0
sg25
F0.9690842013861118
sg16
I01
sbsg15
I1
sg20
(imyEvolve
Tree
p390
(dp391
g15
I0
sg25
F1.7077105221802817
sg16
I01
sbsg17
I00
sg18
g28
sbsg17
I00
sg18
g29
sbaa(lp392
(imyEvolve
Tree
p393
(dp394
g7
(imyEvolve
Tree
p395
(dp396
g7
(imyEvolve
Tree
p397
(dp398
g7
(imyEvolve
Tree
p399
(dp400
g15
I1
sg10
(imyEvolve
Tree
p401
(dp402
g15
I0
sg16
I00
sbsg20
(imyEvolve
Tree
p403
(dp404
g15
I0
sg16
I00
sbsg17
I00
sg18
g28
sbsg15
I2
sg17
I01
sg18
g44
sbsg15
I3
sg17
I01
sg18
g30
sbsg15
I4
sg17
I01
sg18
g30
sba(imyEvolve
Tree
p405
(dp406
g7
(imyEvolve
Tree
p407
(dp408
g7
(imyEvolve
Tree
p409
(dp410
g15
I2
sg10
(imyEvolve
Tree
p411
(dp412
g7
(imyEvolve
Tree
p413
(dp414
g15
I0
sg16
I00
sbsg15
I1
sg17
I01
sg18
g30
sbsg20
(imyEvolve
Tree
p415
(dp416
g15
I1
sg10
(imyEvolve
Tree
p417
(dp418
g15
I0
sg16
I00
sbsg20
(imyEvolve
Tree
p419
(dp420
g15
I0
sg16
I00
sbsg17
I00
sg18
g29
sbsg17
I00
sg18
g43
sbsg15
I3
sg17
I01
sg18
g19
sbsg15
I4
sg17
I01
sg18
g30
sba(imyEvolve
Tree
p421
(dp422
g7
(imyEvolve
Tree
p423
(dp424
g7
(imyEvolve
Tree
p425
(dp426
g15
I2
sg10
(imyEvolve
Tree
p427
(dp428
g7
(imyEvolve
Tree
p429
(dp430
g15
I0
sg25
F0.20228463106640326
sg16
I01
sbsg15
I1
sg17
I01
sg18
g30
sbsg20
(imyEvolve
Tree
p431
(dp432
g15
I1
sg10
(imyEvolve
Tree
p433
(dp434
g15
I0
sg16
I00
sbsg20
(imyEvolve
Tree
p435
(dp436
g15
I0
sg25
F0.7657818297011563
sg16
I01
sbsg17
I00
sg18
g28
sbsg17
I00
sg18
g29
sbsg15
I3
sg17
I01
sg18
g30
sbsg15
I4
sg17
I01
sg18
g19
sba(imyEvolve
Tree
p437
(dp438
g10
(imyEvolve
Tree
p439
(dp440
g7
(imyEvolve
Tree
p441
(dp442
g15
I0
sg16
I00
sbsg15
I1
sg17
I01
sg18
g19
sbsg15
I2
sg20
(imyEvolve
Tree
p443
(dp444
g10
(imyEvolve
Tree
p445
(dp446
g15
I0
sg25
F-2.32519866387812
sg16
I01
sbsg15
I1
sg20
(imyEvolve
Tree
p447
(dp448
g15
I0
sg16
I00
sbsg17
I00
sg18
g28
sbsg17
I00
sg18
g29
sba(imyEvolve
Tree
p449
(dp450
g7
(imyEvolve
Tree
p451
(dp452
g15
I3
sg10
(imyEvolve
Tree
p453
(dp454
g7
(imyEvolve
Tree
p455
(dp456
g7
(imyEvolve
Tree
p457
(dp458
g15
I0
sg16
I00
sbsg15
I1
sg17
I01
sg18
g19
sbsg15
I2
sg17
I01
sg18
g67
sbsg20
(imyEvolve
Tree
p459
(dp460
g7
(imyEvolve
Tree
p461
(dp462
g15
I1
sg10
(imyEvolve
Tree
p463
(dp464
g15
I0
sg25
F1.8823097522379895
sg16
I01
sbsg20
(imyEvolve
Tree
p465
(dp466
g15
I0
sg25
F-3.864188052723004
sg16
I01
sbsg17
I00
sg18
g29
sbsg15
I2
sg17
I01
sg18
g19
sbsg17
I00
sg18
g43
sbsg15
I4
sg17
I01
sg18
g30
sba(imyEvolve
Tree
p467
(dp468
g7
(imyEvolve
Tree
p469
(dp470
g15
I1
sg10
(imyEvolve
Tree
p471
(dp472
g15
I0
sg16
I00
sbsg20
(imyEvolve
Tree
p473
(dp474
g15
I0
sg25
F-0.39799514009840387
sg16
I01
sbsg17
I00
sg18
g43
sbsg15
I2
sg17
I01
sg18
g67
sba(imyEvolve
Tree
p475
(dp476
g10
(imyEvolve
Tree
p477
(dp478
g7
(imyEvolve
Tree
p479
(dp480
g15
I0
sg16
I00
sbsg15
I1
sg17
I01
sg18
g67
sbsg15
I2
sg20
(imyEvolve
Tree
p481
(dp482
g7
(imyEvolve
Tree
p483
(dp484
g15
I0
sg16
I00
sbsg15
I1
sg17
I01
sg18
g19
sbsg17
I00
sg18
g28
sba(imyEvolve
Tree
p485
(dp486
g10
(imyEvolve
Tree
p487
(dp488
g10
(imyEvolve
Tree
p489
(dp490
g15
I0
sg25
F-3.8455145590888415
sg16
I01
sbsg15
I1
sg20
(imyEvolve
Tree
p491
(dp492
g15
I0
sg25
F2.516194924136218
sg16
I01
sbsg17
I00
sg18
g43
sbsg15
I2
sg20
(imyEvolve
Tree
p493
(dp494
g7
(imyEvolve
Tree
p495
(dp496
g15
I0
sg16
I00
sbsg15
I1
sg17
I01
sg18
g19
sbsg17
I00
sg18
g28
sba(imyEvolve
Tree
p497
(dp498
g7
(imyEvolve
Tree
p499
(dp500
g7
(imyEvolve
Tree
p501
(dp502
g15
I1
sg10
(imyEvolve
Tree
p503
(dp504
g15
I0
sg16
I00
sbsg20
(imyEvolve
Tree
p505
(dp506
g15
I0
sg16
I00
sbsg17
I00
sg18
g29
sbsg15
I2
sg17
I01
sg18
g44
sbsg15
I3
sg17
I01
sg18
g44
sba(imyEvolve
Tree
p507
(dp508
g15
I2
sg10
(imyEvolve
Tree
p509
(dp510
g7
(imyEvolve
Tree
p511
(dp512
g15
I0
sg25
F-3.417534751822928
sg16
I01
sbsg15
I1
sg17
I01
sg18
g67
sbsg20
(imyEvolve
Tree
p513
(dp514
g7
(imyEvolve
Tree
p515
(dp516
g15
I0
sg16
I00
sbsg15
I1
sg17
I01
sg18
g67
sbsg17
I00
sg18
g29
sba(imyEvolve
Tree
p517
(dp518
g10
(imyEvolve
Tree
p519
(dp520
g10
(imyEvolve
Tree
p521
(dp522
g15
I0
sg16
I00
sbsg15
I1
sg20
(imyEvolve
Tree
p523
(dp524
g15
I0
sg16
I00
sbsg17
I00
sg18
g28
sbsg15
I2
sg20
(imyEvolve
Tree
p525
(dp526
g7
(imyEvolve
Tree
p527
(dp528
g15
I0
sg25
F3.512412084437541
sg16
I01
sbsg15
I1
sg17
I01
sg18
g67
sbsg17
I00
sg18
g29
sba(imyEvolve
Tree
p529
(dp530
g10
(imyEvolve
Tree
p531
(dp532
g7
(imyEvolve
Tree
p533
(dp534
g10
(imyEvolve
Tree
p535
(dp536
g10
(imyEvolve
Tree
p537
(dp538
g10
(imyEvolve
Tree
p539
(dp540
g15
I0
sg25
F-1.897315696889772
sg16
I01
sbsg15
I1
sg20
(imyEvolve
Tree
p541
(dp542
g15
I0
sg16
I00
sbsg17
I00
sg18
g28
sbsg15
I2
sg20
(imyEvolve
Tree
p543
(dp544
g10
(imyEvolve
Tree
p545
(dp546
g15
I0
sg16
I00
sbsg15
I1
sg20
(imyEvolve
Tree
p547
(dp548
g15
I0
sg25
F-2.0409051100204656
sg16
I01
sbsg17
I00
sg18
g29
sbsg17
I00
sg18
g29
sbsg15
I3
sg20
(imyEvolve
Tree
p549
(dp550
g7
(imyEvolve
Tree
p551
(dp552
g7
(imyEvolve
Tree
p553
(dp554
g15
I0
sg16
I00
sbsg15
I1
sg17
I01
sg18
g44
sbsg15
I2
sg17
I01
sg18
g44
sbsg17
I00
sg18
g28
sbsg15
I4
sg17
I01
sg18
g44
sbsg15
I5
sg20
(imyEvolve
Tree
p555
(dp556
g10
(imyEvolve
Tree
p557
(dp558
g10
(imyEvolve
Tree
p559
(dp560
g7
(imyEvolve
Tree
p561
(dp562
g7
(imyEvolve
Tree
p563
(dp564
g15
I0
sg16
I00
sbsg15
I1
sg17
I01
sg18
g44
sbsg15
I2
sg17
I01
sg18
g44
sbsg15
I3
sg20
(imyEvolve
Tree
p565
(dp566
g10
(imyEvolve
Tree
p567
(dp568
g10
(imyEvolve
Tree
p569
(dp570
g15
I0
sg25
F1.8621400635995293
sg16
I01
sbsg15
I1
sg20
(imyEvolve
Tree
p571
(dp572
g15
I0
sg16
I00
sbsg17
I00
sg18
g28
sbsg15
I2
sg20
(imyEvolve
Tree
p573
(dp574
g7
(imyEvolve
Tree
p575
(dp576
g15
I0
sg16
I00
sbsg15
I1
sg17
I01
sg18
g67
sbsg17
I00
sg18
g28
sbsg17
I00
sg18
g43
sbsg15
I4
sg20
(imyEvolve
Tree
p577
(dp578
g10
(imyEvolve
Tree
p579
(dp580
g7
(imyEvolve
Tree
p581
(dp582
g7
(imyEvolve
Tree
p583
(dp584
g15
I0
sg16
I00
sbsg15
I1
sg17
I01
sg18
g19
sbsg15
I2
sg17
I01
sg18
g30
sbsg15
I3
sg20
(imyEvolve
Tree
p585
(dp586
g10
(imyEvolve
Tree
p587
(dp588
g7
(imyEvolve
Tree
p589
(dp590
g15
I0
sg16
I00
sbsg15
I1
sg17
I01
sg18
g19
sbsg15
I2
sg20
(imyEvolve
Tree
p591
(dp592
g10
(imyEvolve
Tree
p593
(dp594
g15
I0
sg16
I00
sbsg15
I1
sg20
(imyEvolve
Tree
p595
(dp596
g15
I0
sg16
I00
sbsg17
I00
sg18
g43
sbsg17
I00
sg18
g29
sbsg17
I00
sg18
g29
sbsg17
I00
sg18
g29
sbsg17
I00
sg18
g43
sba(imyEvolve
Tree
p597
(dp598
g7
(imyEvolve
Tree
p599
(dp600
g7
(imyEvolve
Tree
p601
(dp602
g10
(imyEvolve
Tree
p603
(dp604
g15
I0
sg25
F-4.559735798481671
sg16
I01
sbsg15
I1
sg20
(imyEvolve
Tree
p605
(dp606
g15
I0
sg16
I00
sbsg17
I00
sg18
g29
sbsg15
I2
sg17
I01
sg18
g67
sbsg15
I3
sg17
I01
sg18
g67
sba(imyEvolve
Tree
p607
(dp608
g7
(imyEvolve
Tree
p609
(dp610
g7
(imyEvolve
Tree
p611
(dp612
g7
(imyEvolve
Tree
p613
(dp614
g10
(imyEvolve
Tree
p615
(dp616
g7
(imyEvolve
Tree
p617
(dp618
g15
I0
sg16
I00
sbsg15
I1
sg17
I01
sg18
g19
sbsg15
I2
sg20
(imyEvolve
Tree
p619
(dp620
g10
(imyEvolve
Tree
p621
(dp622
g15
I0
sg25
F1.3068629937859395
sg16
I01
sbsg15
I1
sg20
(imyEvolve
Tree
p623
(dp624
g15
I0
sg25
F-3.5286024351034015
sg16
I01
sbsg17
I00
sg18
g43
sbsg17
I00
sg18
g29
sbsg15
I3
sg17
I01
sg18
g30
sbsg15
I4
sg17
I01
sg18
g30
sbsg15
I5
sg17
I01
sg18
g19
sbaa(lp625
(imyEvolve
Tree
p626
(dp627
g15
I4
sg10
(imyEvolve
Tree
p628
(dp629
g7
(imyEvolve
Tree
p630
(dp631
g7
(imyEvolve
Tree
p632
(dp633
g7
(imyEvolve
Tree
p634
(dp635
g15
I0
sg16
I00
sbsg15
I1
sg17
I01
sg18
g30
sbsg15
I2
sg17
I01
sg18
g44
sbsg15
I3
sg17
I01
sg18
g67
sbsg20
(imyEvolve
Tree
p636
(dp637
g7
(imyEvolve
Tree
p638
(dp639
g7
(imyEvolve
Tree
p640
(dp641
g15
I1
sg10
(imyEvolve
Tree
p642
(dp643
g15
I0
sg16
I00
sbsg20
(imyEvolve
Tree
p644
(dp645
g15
I0
sg16
I00
sbsg17
I00
sg18
g43
sbsg15
I2
sg17
I01
sg18
g67
sbsg15
I3
sg17
I01
sg18
g30
sbsg17
I00
sg18
g29
sba(imyEvolve
Tree
p646
(dp647
g7
(imyEvolve
Tree
p648
(dp649
g10
(imyEvolve
Tree
p650
(dp651
g15
I0
sg25
F0.3944014611926061
sg16
I01
sbsg15
I1
sg20
(imyEvolve
Tree
p652
(dp653
g15
I0
sg25
F-3.808859878935346
sg16
I01
sbsg17
I00
sg18
g28
sbsg15
I2
sg17
I01
sg18
g44
sba(imyEvolve
Tree
p654
(dp655
g7
(imyEvolve
Tree
p656
(dp657
g7
(imyEvolve
Tree
p658
(dp659
g15
I0
sg16
I00
sbsg15
I1
sg17
I01
sg18
g30
sbsg15
I2
sg17
I01
sg18
g44
sba(imyEvolve
Tree
p660
(dp661
g7
(imyEvolve
Tree
p662
(dp663
g7
(imyEvolve
Tree
p664
(dp665
g7
(imyEvolve
Tree
p666
(dp667
g10
(imyEvolve
Tree
p668
(dp669
g10
(imyEvolve
Tree
p670
(dp671
g15
I0
sg16
I00
sbsg15
I1
sg20
(imyEvolve
Tree
p672
(dp673
g15
I0
sg16
I00
sbsg17
I00
sg18
g43
sbsg15
I2
sg20
(imyEvolve
Tree
p674
(dp675
g10
(imyEvolve
Tree
p676
(dp677
g15
I0
sg25
F-1.9945142511667493
sg16
I01
sbsg15
I1
sg20
(imyEvolve
Tree
p678
(dp679
g15
I0
sg16
I00
sbsg17
I00
sg18
g29
sbsg17
I00
sg18
g29
sbsg15
I3
sg17
I01
sg18
g30
sbsg15
I4
sg17
I01
sg18
g19
sbsg15
I5
sg17
I01
sg18
g44
sba(imyEvolve
Tree
p680
(dp681
g7
(imyEvolve
Tree
p682
(dp683
g10
(imyEvolve
Tree
p684
(dp685
g10
(imyEvolve
Tree
p686
(dp687
g15
I0
sg16
I00
sbsg15
I1
sg20
(imyEvolve
Tree
p688
(dp689
g15
I0
sg25
F0.6545080116686695
sg16
I01
sbsg17
I00
sg18
g29
sbsg15
I2
sg20
(imyEvolve
Tree
p690
(dp691
g10
(imyEvolve
Tree
p692
(dp693
g15
I0
sg16
I00
sbsg15
I1
sg20
(imyEvolve
Tree
p694
(dp695
g15
I0
sg25
F4.200686742985859
sg16
I01
sbsg17
I00
sg18
g29
sbsg17
I00
sg18
g29
sbsg15
I3
sg17
I01
sg18
g30
sba(imyEvolve
Tree
p696
(dp697
g7
(imyEvolve
Tree
p698
(dp699
g7
(imyEvolve
Tree
p700
(dp701
g7
(imyEvolve
Tree
p702
(dp703
g15
I0
sg16
I00
sbsg15
I1
sg17
I01
sg18
g44
sbsg15
I2
sg17
I01
sg18
g19
sbsg15
I3
sg17
I01
sg18
g44
sba(imyEvolve
Tree
p704
(dp705
g7
(imyEvolve
Tree
p706
(dp707
g15
I3
sg10
(imyEvolve
Tree
p708
(dp709
g15
I2
sg10
(imyEvolve
Tree
p710
(dp711
g15
I1
sg10
(imyEvolve
Tree
p712
(dp713
g15
I0
sg25
F-3.8486435504609617
sg16
I01
sbsg20
(imyEvolve
Tree
p714
(dp715
g15
I0
sg16
I00
sbsg17
I00
sg18
g29
sbsg20
(imyEvolve
Tree
p716
(dp717
g7
(imyEvolve
Tree
p718
(dp719
g15
I0
sg16
I00
sbsg15
I1
sg17
I01
sg18
g19
sbsg17
I00
sg18
g43
sbsg20
(imyEvolve
Tree
p720
(dp721
g15
I2
sg10
(imyEvolve
Tree
p722
(dp723
g7
(imyEvolve
Tree
p724
(dp725
g15
I0
sg25
F-4.292087970555553
sg16
I01
sbsg15
I1
sg17
I01
sg18
g44
sbsg20
(imyEvolve
Tree
p726
(dp727
g15
I1
sg10
(imyEvolve
Tree
p728
(dp729
g15
I0
sg25
F2.3718448997083676
sg16
I01
sbsg20
(imyEvolve
Tree
p730
(dp731
g15
I0
sg25
F2.7032366084168995
sg16
I01
sbsg17
I00
sg18
g29
sbsg17
I00
sg18
g29
sbsg17
I00
sg18
g43
sbsg15
I4
sg17
I01
sg18
g44
sba(imyEvolve
Tree
p732
(dp733
g7
(imyEvolve
Tree
p734
(dp735
g7
(imyEvolve
Tree
p736
(dp737
g7
(imyEvolve
Tree
p738
(dp739
g7
(imyEvolve
Tree
p740
(dp741
g7
(imyEvolve
Tree
p742
(dp743
g15
I0
sg16
I00
sbsg15
I1
sg17
I01
sg18
g19
sbsg15
I2
sg17
I01
sg18
g44
sbsg15
I3
sg17
I01
sg18
g19
sbsg15
I4
sg17
I01
sg18
g67
sbsg15
I5
sg17
I01
sg18
g67
sba(imyEvolve
Tree
p744
(dp745
g15
I2
sg10
(imyEvolve
Tree
p746
(dp747
g7
(imyEvolve
Tree
p748
(dp749
g15
I0
sg16
I00
sbsg15
I1
sg17
I01
sg18
g30
sbsg20
(imyEvolve
Tree
p750
(dp751
g7
(imyEvolve
Tree
p752
(dp753
g15
I0
sg16
I00
sbsg15
I1
sg17
I01
sg18
g44
sbsg17
I00
sg18
g28
sba(imyEvolve
Tree
p754
(dp755
g10
(imyEvolve
Tree
p756
(dp757
g10
(imyEvolve
Tree
p758
(dp759
g10
(imyEvolve
Tree
p760
(dp761
g7
(imyEvolve
Tree
p762
(dp763
g15
I0
sg16
I00
sbsg15
I1
sg17
I01
sg18
g30
sbsg15
I2
sg20
(imyEvolve
Tree
p764
(dp765
g10
(imyEvolve
Tree
p766
(dp767
g15
I0
sg16
I00
sbsg15
I1
sg20
(imyEvolve
Tree
p768
(dp769
g15
I0
sg25
F3.538850364472598
sg16
I01
sbsg17
I00
sg18
g28
sbsg17
I00
sg18
g43
sbsg15
I3
sg20
(imyEvolve
Tree
p770
(dp771
g7
(imyEvolve
Tree
p772
(dp773
g7
(imyEvolve
Tree
p774
(dp775
g15
I0
sg16
I00
sbsg15
I1
sg17
I01
sg18
g44
sbsg15
I2
sg17
I01
sg18
g44
sbsg17
I00
sg18
g28
sbsg15
I4
sg20
(imyEvolve
Tree
p776
(dp777
g10
(imyEvolve
Tree
p778
(dp779
g7
(imyEvolve
Tree
p780
(dp781
g7
(imyEvolve
Tree
p782
(dp783
g15
I0
sg16
I00
sbsg15
I1
sg17
I01
sg18
g30
sbsg15
I2
sg17
I01
sg18
g19
sbsg15
I3
sg20
(imyEvolve
Tree
p784
(dp785
g7
(imyEvolve
Tree
p786
(dp787
g10
(imyEvolve
Tree
p788
(dp789
g15
I0
sg16
I00
sbsg15
I1
sg20
(imyEvolve
Tree
p790
(dp791
g15
I0
sg25
F-4.6576406498942475
sg16
I01
sbsg17
I00
sg18
g28
sbsg15
I2
sg17
I01
sg18
g19
sbsg17
I00
sg18
g43
sbsg17
I00
sg18
g28
sba(imyEvolve
Tree
p792
(dp793
g15
I2
sg10
(imyEvolve
Tree
p794
(dp795
g7
(imyEvolve
Tree
p796
(dp797
g15
I0
sg25
F-2.367289424426936
sg16
I01
sbsg15
I1
sg17
I01
sg18
g30
sbsg20
(imyEvolve
Tree
p798
(dp799
g15
I1
sg10
(imyEvolve
Tree
p800
(dp801
g15
I0
sg16
I00
sbsg20
(imyEvolve
Tree
p802
(dp803
g15
I0
sg25
F-2.036131993185185
sg16
I01
sbsg17
I00
sg18
g29
sbsg17
I00
sg18
g29
sba(imyEvolve
Tree
p804
(dp805
g7
(imyEvolve
Tree
p806
(dp807
g7
(imyEvolve
Tree
p808
(dp809
g7
(imyEvolve
Tree
p810
(dp811
g15
I0
sg25
F-3.011856992470605
sg16
I01
sbsg15
I1
sg17
I01
sg18
g30
sbsg15
I2
sg17
I01
sg18
g44
sbsg15
I3
sg17
I01
sg18
g67
sbaa(lp812
(imyEvolve
Tree
p813
(dp814
g15
I2
sg10
(imyEvolve
Tree
p815
(dp816
g15
I1
sg10
(imyEvolve
Tree
p817
(dp818
g15
I0
sg25
F-3.8936746349670237
sg16
I01
sbsg20
(imyEvolve
Tree
p819
(dp820
g15
I0
sg16
I00
sbsg17
I00
sg18
g43
sbsg20
(imyEvolve
Tree
p821
(dp822
g7
(imyEvolve
Tree
p823
(dp824
g15
I0
sg16
I00
sbsg15
I1
sg17
I01
sg18
g44
sbsg17
I00
sg18
g29
sba(imyEvolve
Tree
p825
(dp826
g10
(imyEvolve
Tree
p827
(dp828
g7
(imyEvolve
Tree
p829
(dp830
g7
(imyEvolve
Tree
p831
(dp832
g15
I0
sg25
F-2.6986055737969283
sg16
I01
sbsg15
I1
sg17
I01
sg18
g30
sbsg15
I2
sg17
I01
sg18
g44
sbsg15
I3
sg20
(imyEvolve
Tree
p833
(dp834
g10
(imyEvolve
Tree
p835
(dp836
g10
(imyEvolve
Tree
p837
(dp838
g15
I0
sg25
F-1.377881429574912
sg16
I01
sbsg15
I1
sg20
(imyEvolve
Tree
p839
(dp840
g15
I0
sg16
I00
sbsg17
I00
sg18
g43
sbsg15
I2
sg20
(imyEvolve
Tree
p841
(dp842
g7
(imyEvolve
Tree
p843
(dp844
g15
I0
sg16
I00
sbsg15
I1
sg17
I01
sg18
g44
sbsg17
I00
sg18
g29
sbsg17
I00
sg18
g29
sba(imyEvolve
Tree
p845
(dp846
g7
(imyEvolve
Tree
p847
(dp848
g10
(imyEvolve
Tree
p849
(dp850
g15
I0
sg25
F-0.02078655914463745
sg16
I01
sbsg15
I1
sg20
(imyEvolve
Tree
p851
(dp852
g15
I0
sg16
I00
sbsg17
I00
sg18
g43
sbsg15
I2
sg17
I01
sg18
g30
sba(imyEvolve
Tree
p853
(dp854
g7
(imyEvolve
Tree
p855
(dp856
g10
(imyEvolve
Tree
p857
(dp858
g15
I0
sg25
F1.933659526923563
sg16
I01
sbsg15
I1
sg20
(imyEvolve
Tree
p859
(dp860
g15
I0
sg16
I00
sbsg17
I00
sg18
g43
sbsg15
I2
sg17
I01
sg18
g67
sba(imyEvolve
Tree
p861
(dp862
g7
(imyEvolve
Tree
p863
(dp864
g10
(imyEvolve
Tree
p865
(dp866
g10
(imyEvolve
Tree
p867
(dp868
g15
I0
sg25
F4.074345342256093
sg16
I01
sbsg15
I1
sg20
(imyEvolve
Tree
p869
(dp870
g15
I0
sg25
F-0.6861801366770184
sg16
I01
sbsg17
I00
sg18
g29
sbsg15
I2
sg20
(imyEvolve
Tree
p871
(dp872
g7
(imyEvolve
Tree
p873
(dp874
g15
I0
sg16
I00
sbsg15
I1
sg17
I01
sg18
g67
sbsg17
I00
sg18
g28
sbsg15
I3
sg17
I01
sg18
g19
sba(imyEvolve
Tree
p875
(dp876
g10
(imyEvolve
Tree
p877
(dp878
g10
(imyEvolve
Tree
p879
(dp880
g10
(imyEvolve
Tree
p881
(dp882
g7
(imyEvolve
Tree
p883
(dp884
g7
(imyEvolve
Tree
p885
(dp886
g15
I0
sg16
I00
sbsg15
I1
sg17
I01
sg18
g67
sbsg15
I2
sg17
I01
sg18
g30
sbsg15
I3
sg20
(imyEvolve
Tree
p887
(dp888
g7
(imyEvolve
Tree
p889
(dp890
g10
(imyEvolve
Tree
p891
(dp892
g15
I0
sg16
I00
sbsg15
I1
sg20
(imyEvolve
Tree
p893
(dp894
g15
I0
sg16
I00
sbsg17
I00
sg18
g28
sbsg15
I2
sg17
I01
sg18
g44
sbsg17
I00
sg18
g43
sbsg15
I4
sg20
(imyEvolve
Tree
p895
(dp896
g10
(imyEvolve
Tree
p897
(dp898
g10
(imyEvolve
Tree
p899
(dp900
g10
(imyEvolve
Tree
p901
(dp902
g15
I0
sg16
I00
sbsg15
I1
sg20
(imyEvolve
Tree
p903
(dp904
g15
I0
sg25
F2.6586616501568594
sg16
I01
sbsg17
I00
sg18
g28
sbsg15
I2
sg20
(imyEvolve
Tree
p905
(dp906
g10
(imyEvolve
Tree
p907
(dp908
g15
I0
sg16
I00
sbsg15
I1
sg20
(imyEvolve
Tree
p909
(dp910
g15
I0
sg16
I00
sbsg17
I00
sg18
g28
sbsg17
I00
sg18
g43
sbsg15
I3
sg20
(imyEvolve
Tree
p911
(dp912
g7
(imyEvolve
Tree
p913
(dp914
g10
(imyEvolve
Tree
p915
(dp916
g15
I0
sg25
F-3.01115895555872
sg16
I01
sbsg15
I1
sg20
(imyEvolve
Tree
p917
(dp918
g15
I0
sg25
F-4.459676237411595
sg16
I01
sbsg17
I00
sg18
g43
sbsg15
I2
sg17
I01
sg18
g30
sbsg17
I00
sg18
g28
sbsg17
I00
sg18
g43
sbsg15
I5
sg20
(imyEvolve
Tree
p919
(dp920
g10
(imyEvolve
Tree
p921
(dp922
g10
(imyEvolve
Tree
p923
(dp924
g7
(imyEvolve
Tree
p925
(dp926
g7
(imyEvolve
Tree
p927
(dp928
g15
I0
sg25
F2.3202691221587006
sg16
I01
sbsg15
I1
sg17
I01
sg18
g44
sbsg15
I2
sg17
I01
sg18
g67
sbsg15
I3
sg20
(imyEvolve
Tree
p929
(dp930
g10
(imyEvolve
Tree
p931
(dp932
g10
(imyEvolve
Tree
p933
(dp934
g15
I0
sg25
F3.7685427123499267
sg16
I01
sbsg15
I1
sg20
(imyEvolve
Tree
p935
(dp936
g15
I0
sg16
I00
sbsg17
I00
sg18
g43
sbsg15
I2
sg20
(imyEvolve
Tree
p937
(dp938
g10
(imyEvolve
Tree
p939
(dp940
g15
I0
sg25
F0.19825187232827535
sg16
I01
sbsg15
I1
sg20
(imyEvolve
Tree
p941
(dp942
g15
I0
sg16
I00
sbsg17
I00
sg18
g29
sbsg17
I00
sg18
g28
sbsg17
I00
sg18
g29
sbsg15
I4
sg20
(imyEvolve
Tree
p943
(dp944
g10
(imyEvolve
Tree
p945
(dp946
g7
(imyEvolve
Tree
p947
(dp948
g10
(imyEvolve
Tree
p949
(dp950
g15
I0
sg25
F-3.5392911466354935
sg16
I01
sbsg15
I1
sg20
(imyEvolve
Tree
p951
(dp952
g15
I0
sg16
I00
sbsg17
I00
sg18
g43
sbsg15
I2
sg17
I01
sg18
g44
sbsg15
I3
sg20
(imyEvolve
Tree
p953
(dp954
g10
(imyEvolve
Tree
p955
(dp956
g10
(imyEvolve
Tree
p957
(dp958
g15
I0
sg25
F-4.308028690453016
sg16
I01
sbsg15
I1
sg20
(imyEvolve
Tree
p959
(dp960
g15
I0
sg16
I00
sbsg17
I00
sg18
g28
sbsg15
I2
sg20
(imyEvolve
Tree
p961
(dp962
g7
(imyEvolve
Tree
p963
(dp964
g15
I0
sg25
F-1.2210852721992724
sg16
I01
sbsg15
I1
sg17
I01
sg18
g67
sbsg17
I00
sg18
g29
sbsg17
I00
sg18
g29
sbsg17
I00
sg18
g28
sbsg17
I00
sg18
g28
sba(imyEvolve
Tree
p965
(dp966
g15
I3
sg10
(imyEvolve
Tree
p967
(dp968
g7
(imyEvolve
Tree
p969
(dp970
g15
I1
sg10
(imyEvolve
Tree
p971
(dp972
g15
I0
sg25
F-1.7638995840982963
sg16
I01
sbsg20
(imyEvolve
Tree
p973
(dp974
g15
I0
sg16
I00
sbsg17
I00
sg18
g43
sbsg15
I2
sg17
I01
sg18
g30
sbsg20
(imyEvolve
Tree
p975
(dp976
g15
I2
sg10
(imyEvolve
Tree
p977
(dp978
g15
I1
sg10
(imyEvolve
Tree
p979
(dp980
g15
I0
sg16
I00
sbsg20
(imyEvolve
Tree
p981
(dp982
g15
I0
sg25
F1.122151608116769
sg16
I01
sbsg17
I00
sg18
g29
sbsg20
(imyEvolve
Tree
p983
(dp984
g15
I1
sg10
(imyEvolve
Tree
p985
(dp986
g15
I0
sg16
I00
sbsg20
(imyEvolve
Tree
p987
(dp988
g15
I0
sg25
F2.884317090173626
sg16
I01
sbsg17
I00
sg18
g28
sbsg17
I00
sg18
g43
sbsg17
I00
sg18
g28
sba(imyEvolve
Tree
p989
(dp990
g7
(imyEvolve
Tree
p991
(dp992
g7
(imyEvolve
Tree
p993
(dp994
g7
(imyEvolve
Tree
p995
(dp996
g7
(imyEvolve
Tree
p997
(dp998
g7
(imyEvolve
Tree
p999
(dp1000
g15
I0
sg25
F-2.5712273494561035
sg16
I01
sbsg15
I1
sg17
I01
sg18
g19
sbsg15
I2
sg17
I01
sg18
g19
sbsg15
I3
sg17
I01
sg18
g30
sbsg15
I4
sg17
I01
sg18
g44
sbsg15
I5
sg17
I01
sg18
g44
sba(imyEvolve
Tree
p1001
(dp1002
g7
(imyEvolve
Tree
p1003
(dp1004
g10
(imyEvolve
Tree
p1005
(dp1006
g15
I0
sg16
I00
sbsg15
I1
sg20
(imyEvolve
Tree
p1007
(dp1008
g15
I0
sg16
I00
sbsg17
I00
sg18
g43
sbsg15
I2
sg17
I01
sg18
g67
sba(imyEvolve
Tree
p1009
(dp1010
g15
I5
sg10
(imyEvolve
Tree
p1011
(dp1012
g15
I4
sg10
(imyEvolve
Tree
p1013
(dp1014
g15
I3
sg10
(imyEvolve
Tree
p1015
(dp1016
g15
I2
sg10
(imyEvolve
Tree
p1017
(dp1018
g15
I1
sg10
(imyEvolve
Tree
p1019
(dp1020
g15
I0
sg16
I00
sbsg20
(imyEvolve
Tree
p1021
(dp1022
g15
I0
sg25
F-2.4958065671824303
sg16
I01
sbsg17
I00
sg18
g28
sbsg20
(imyEvolve
Tree
p1023
(dp1024
g15
I1
sg10
(imyEvolve
Tree
p1025
(dp1026
g15
I0
sg16
I00
sbsg20
(imyEvolve
Tree
p1027
(dp1028
g15
I0
sg25
F-3.2394956390267646
sg16
I01
sbsg17
I00
sg18
g28
sbsg17
I00
sg18
g43
sbsg20
(imyEvolve
Tree
p1029
(dp1030
g15
I2
sg10
(imyEvolve
Tree
p1031
(dp1032
g7
(imyEvolve
Tree
p1033
(dp1034
g15
I0
sg25
F-4.197958350765225
sg16
I01
sbsg15
I1
sg17
I01
sg18
g30
sbsg20
(imyEvolve
Tree
p1035
(dp1036
g15
I1
sg10
(imyEvolve
Tree
p1037
(dp1038
g15
I0
sg16
I00
sbsg20
(imyEvolve
Tree
p1039
(dp1040
g15
I0
sg25
F-2.261035512865839
sg16
I01
sbsg17
I00
sg18
g29
sbsg17
I00
sg18
g43
sbsg17
I00
sg18
g29
sbsg20
(imyEvolve
Tree
p1041
(dp1042
g15
I3
sg10
(imyEvolve
Tree
p1043
(dp1044
g15
I2
sg10
(imyEvolve
Tree
p1045
(dp1046
g7
(imyEvolve
Tree
p1047
(dp1048
g15
I0
sg16
I00
sbsg15
I1
sg17
I01
sg18
g30
sbsg20
(imyEvolve
Tree
p1049
(dp1050
g15
I1
sg10
(imyEvolve
Tree
p1051
(dp1052
g15
I0
sg25
F0.07031963669114916
sg16
I01
sbsg20
(imyEvolve
Tree
p1053
(dp1054
g15
I0
sg25
F1.5255479695507557
sg16
I01
sbsg17
I00
sg18
g29
sbsg17
I00
sg18
g43
sbsg20
(imyEvolve
Tree
p1055
(dp1056
g7
(imyEvolve
Tree
p1057
(dp1058
g7
(imyEvolve
Tree
p1059
(dp1060
g15
I0
sg25
F-3.9347377163633346
sg16
I01
sbsg15
I1
sg17
I01
sg18
g44
sbsg15
I2
sg17
I01
sg18
g67
sbsg17
I00
sg18
g28
sbsg17
I00
sg18
g29
sbsg20
(imyEvolve
Tree
p1061
(dp1062
g15
I4
sg10
(imyEvolve
Tree
p1063
(dp1064
g7
(imyEvolve
Tree
p1065
(dp1066
g7
(imyEvolve
Tree
p1067
(dp1068
g15
I1
sg10
(imyEvolve
Tree
p1069
(dp1070
g15
I0
sg25
F-2.9106726657819815
sg16
I01
sbsg20
(imyEvolve
Tree
p1071
(dp1072
g15
I0
sg25
F-2.937484235808294
sg16
I01
sbsg17
I00
sg18
g43
sbsg15
I2
sg17
I01
sg18
g44
sbsg15
I3
sg17
I01
sg18
g19
sbsg20
(imyEvolve
Tree
p1073
(dp1074
g15
I3
sg10
(imyEvolve
Tree
p1075
(dp1076
g15
I2
sg10
(imyEvolve
Tree
p1077
(dp1078
g7
(imyEvolve
Tree
p1079
(dp1080
g15
I0
sg25
F0.3891316185842584
sg16
I01
sbsg15
I1
sg17
I01
sg18
g44
sbsg20
(imyEvolve
Tree
p1081
(dp1082
g7
(imyEvolve
Tree
p1083
(dp1084
g15
I0
sg16
I00
sbsg15
I1
sg17
I01
sg18
g30
sbsg17
I00
sg18
g43
sbsg20
(imyEvolve
Tree
p1085
(dp1086
g15
I2
sg10
(imyEvolve
Tree
p1087
(dp1088
g7
(imyEvolve
Tree
p1089
(dp1090
g15
I0
sg16
I00
sbsg15
I1
sg17
I01
sg18
g67
sbsg20
(imyEvolve
Tree
p1091
(dp1092
g15
I1
sg10
(imyEvolve
Tree
p1093
(dp1094
g15
I0
sg16
I00
sbsg20
(imyEvolve
Tree
p1095
(dp1096
g15
I0
sg16
I00
sbsg17
I00
sg18
g28
sbsg17
I00
sg18
g28
sbsg17
I00
sg18
g28
sbsg17
I00
sg18
g43
sbsg17
I00
sg18
g43
sba(imyEvolve
Tree
p1097
(dp1098
g15
I5
sg10
(imyEvolve
Tree
p1099
(dp1100
g15
I4
sg10
(imyEvolve
Tree
p1101
(dp1102
g7
(imyEvolve
Tree
p1103
(dp1104
g15
I2
sg10
(imyEvolve
Tree
p1105
(dp1106
g15
I1
sg10
(imyEvolve
Tree
p1107
(dp1108
g15
I0
sg25
F1.24917687089013
sg16
I01
sbsg20
(imyEvolve
Tree
p1109
(dp1110
g15
I0
sg16
I00
sbsg17
I00
sg18
g28
sbsg20
(imyEvolve
Tree
p1111
(dp1112
g15
I1
sg10
(imyEvolve
Tree
p1113
(dp1114
g15
I0
sg16
I00
sbsg20
(imyEvolve
Tree
p1115
(dp1116
g15
I0
sg16
I00
sbsg17
I00
sg18
g43
sbsg17
I00
sg18
g43
sbsg15
I3
sg17
I01
sg18
g44
sbsg20
(imyEvolve
Tree
p1117
(dp1118
g7
(imyEvolve
Tree
p1119
(dp1120
g15
I2
sg10
(imyEvolve
Tree
p1121
(dp1122
g7
(imyEvolve
Tree
p1123
(dp1124
g15
I0
sg25
F1.1857451599589508
sg16
I01
sbsg15
I1
sg17
I01
sg18
g44
sbsg20
(imyEvolve
Tree
p1125
(dp1126
g15
I1
sg10
(imyEvolve
Tree
p1127
(dp1128
g15
I0
sg16
I00
sbsg20
(imyEvolve
Tree
p1129
(dp1130
g15
I0
sg16
I00
sbsg17
I00
sg18
g43
sbsg17
I00
sg18
g29
sbsg15
I3
sg17
I01
sg18
g67
sbsg17
I00
sg18
g43
sbsg20
(imyEvolve
Tree
p1131
(dp1132
g15
I4
sg10
(imyEvolve
Tree
p1133
(dp1134
g7
(imyEvolve
Tree
p1135
(dp1136
g7
(imyEvolve
Tree
p1137
(dp1138
g15
I1
sg10
(imyEvolve
Tree
p1139
(dp1140
g15
I0
sg16
I00
sbsg20
(imyEvolve
Tree
p1141
(dp1142
g15
I0
sg16
I00
sbsg17
I00
sg18
g28
sbsg15
I2
sg17
I01
sg18
g19
sbsg15
I3
sg17
I01
sg18
g19
sbsg20
(imyEvolve
Tree
p1143
(dp1144
g15
I3
sg10
(imyEvolve
Tree
p1145
(dp1146
g15
I2
sg10
(imyEvolve
Tree
p1147
(dp1148
g7
(imyEvolve
Tree
p1149
(dp1150
g15
I0
sg16
I00
sbsg15
I1
sg17
I01
sg18
g44
sbsg20
(imyEvolve
Tree
p1151
(dp1152
g15
I1
sg10
(imyEvolve
Tree
p1153
(dp1154
g15
I0
sg25
F4.382653257822595
sg16
I01
sbsg20
(imyEvolve
Tree
p1155
(dp1156
g15
I0
sg16
I00
sbsg17
I00
sg18
g29
sbsg17
I00
sg18
g28
sbsg20
(imyEvolve
Tree
p1157
(dp1158
g15
I2
sg10
(imyEvolve
Tree
p1159
(dp1160
g15
I1
sg10
(imyEvolve
Tree
p1161
(dp1162
g15
I0
sg25
F0.2560825039962946
sg16
I01
sbsg20
(imyEvolve
Tree
p1163
(dp1164
g15
I0
sg16
I00
sbsg17
I00
sg18
g29
sbsg20
(imyEvolve
Tree
p1165
(dp1166
g15
I1
sg10
(imyEvolve
Tree
p1167
(dp1168
g15
I0
sg25
F1.6469223298079196
sg16
I01
sbsg20
(imyEvolve
Tree
p1169
(dp1170
g15
I0
sg16
I00
sbsg17
I00
sg18
g29
sbsg17
I00
sg18
g43
sbsg17
I00
sg18
g29
sbsg17
I00
sg18
g28
sbsg17
I00
sg18
g28
sba(imyEvolve
Tree
p1171
(dp1172
g10
(imyEvolve
Tree
p1173
(dp1174
g10
(imyEvolve
Tree
p1175
(dp1176
g15
I0
sg16
I00
sbsg15
I1
sg20
(imyEvolve
Tree
p1177
(dp1178
g15
I0
sg25
F0.36583402878725746
sg16
I01
sbsg17
I00
sg18
g29
sbsg15
I2
sg20
(imyEvolve
Tree
p1179
(dp1180
g7
(imyEvolve
Tree
p1181
(dp1182
g15
I0
sg25
F2.749333940777131
sg16
I01
sbsg15
I1
sg17
I01
sg18
g67
sbsg17
I00
sg18
g28
sba(imyEvolve
Tree
p1183
(dp1184
g10
(imyEvolve
Tree
p1185
(dp1186
g7
(imyEvolve
Tree
p1187
(dp1188
g10
(imyEvolve
Tree
p1189
(dp1190
g7
(imyEvolve
Tree
p1191
(dp1192
g15
I0
sg16
I00
sbsg15
I1
sg17
I01
sg18
g30
sbsg15
I2
sg20
(imyEvolve
Tree
p1193
(dp1194
g7
(imyEvolve
Tree
p1195
(dp1196
g15
I0
sg25
F-3.717151736803894
sg16
I01
sbsg15
I1
sg17
I01
sg18
g30
sbsg17
I00
sg18
g43
sbsg15
I3
sg17
I01
sg18
g67
sbsg15
I4
sg20
(imyEvolve
Tree
p1197
(dp1198
g7
(imyEvolve
Tree
p1199
(dp1200
g10
(imyEvolve
Tree
p1201
(dp1202
g10
(imyEvolve
Tree
p1203
(dp1204
g15
I0
sg16
I00
sbsg15
I1
sg20
(imyEvolve
Tree
p1205
(dp1206
g15
I0
sg16
I00
sbsg17
I00
sg18
g43
sbsg15
I2
sg20
(imyEvolve
Tree
p1207
(dp1208
g7
(imyEvolve
Tree
p1209
(dp1210
g15
I0
sg16
I00
sbsg15
I1
sg17
I01
sg18
g67
sbsg17
I00
sg18
g29
sbsg15
I3
sg17
I01
sg18
g19
sbsg17
I00
sg18
g29
sba(imyEvolve
Tree
p1211
(dp1212
g7
(imyEvolve
Tree
p1213
(dp1214
g7
(imyEvolve
Tree
p1215
(dp1216
g15
I0
sg16
I00
sbsg15
I1
sg17
I01
sg18
g44
sbsg15
I2
sg17
I01
sg18
g30
sba(imyEvolve
Tree
p1217
(dp1218
g7
(imyEvolve
Tree
p1219
(dp1220
g10
(imyEvolve
Tree
p1221
(dp1222
g7
(imyEvolve
Tree
p1223
(dp1224
g7
(imyEvolve
Tree
p1225
(dp1226
g15
I0
sg16
I00
sbsg15
I1
sg17
I01
sg18
g19
sbsg15
I2
sg17
I01
sg18
g30
sbsg15
I3
sg20
(imyEvolve
Tree
p1227
(dp1228
g10
(imyEvolve
Tree
p1229
(dp1230
g7
(imyEvolve
Tree
p1231
(dp1232
g15
I0
sg16
I00
sbsg15
I1
sg17
I01
sg18
g44
sbsg15
I2
sg20
(imyEvolve
Tree
p1233
(dp1234
g7
(imyEvolve
Tree
p1235
(dp1236
g15
I0
sg25
F0.8760424691493345
sg16
I01
sbsg15
I1
sg17
I01
sg18
g44
sbsg17
I00
sg18
g43
sbsg17
I00
sg18
g43
sbsg15
I4
sg17
I01
sg18
g67
sba(imyEvolve
Tree
p1237
(dp1238
g7
(imyEvolve
Tree
p1239
(dp1240
g7
(imyEvolve
Tree
p1241
(dp1242
g15
I0
sg16
I00
sbsg15
I1
sg17
I01
sg18
g67
sbsg15
I2
sg17
I01
sg18
g19
sbaa(lp1243
(imyEvolve
Tree
p1244
(dp1245
g10
(imyEvolve
Tree
p1246
(dp1247
g7
(imyEvolve
Tree
p1248
(dp1249
g7
(imyEvolve
Tree
p1250
(dp1251
g7
(imyEvolve
Tree
p1252
(dp1253
g15
I0
sg25
F4.0466873705469695
sg16
I01
sbsg15
I1
sg17
I01
sg18
g67
sbsg15
I2
sg17
I01
sg18
g19
sbsg15
I3
sg17
I01
sg18
g30
sbsg15
I4
sg20
(imyEvolve
Tree
p1254
(dp1255
g10
(imyEvolve
Tree
p1256
(dp1257
g10
(imyEvolve
Tree
p1258
(dp1259
g10
(imyEvolve
Tree
p1260
(dp1261
g15
I0
sg16
I00
sbsg15
I1
sg20
(imyEvolve
Tree
p1262
(dp1263
g15
I0
sg16
I00
sbsg17
I00
sg18
g43
sbsg15
I2
sg20
(imyEvolve
Tree
p1264
(dp1265
g10
(imyEvolve
Tree
p1266
(dp1267
g15
I0
sg16
I00
sbsg15
I1
sg20
(imyEvolve
Tree
p1268
(dp1269
g15
I0
sg16
I00
sbsg17
I00
sg18
g29
sbsg17
I00
sg18
g28
sbsg15
I3
sg20
(imyEvolve
Tree
p1270
(dp1271
g7
(imyEvolve
Tree
p1272
(dp1273
g10
(imyEvolve
Tree
p1274
(dp1275
g15
I0
sg16
I00
sbsg15
I1
sg20
(imyEvolve
Tree
p1276
(dp1277
g15
I0
sg16
I00
sbsg17
I00
sg18
g28
sbsg15
I2
sg17
I01
sg18
g44
sbsg17
I00
sg18
g43
sbsg17
I00
sg18
g43
sba(imyEvolve
Tree
p1278
(dp1279
g7
(imyEvolve
Tree
p1280
(dp1281
g10
(imyEvolve
Tree
p1282
(dp1283
g15
I0
sg25
F2.0010459025902128
sg16
I01
sbsg15
I1
sg20
(imyEvolve
Tree
p1284
(dp1285
g15
I0
sg16
I00
sbsg17
I00
sg18
g28
sbsg15
I2
sg17
I01
sg18
g30
sba(imyEvolve
Tree
p1286
(dp1287
g10
(imyEvolve
Tree
p1288
(dp1289
g7
(imyEvolve
Tree
p1290
(dp1291
g7
(imyEvolve
Tree
p1292
(dp1293
g7
(imyEvolve
Tree
p1294
(dp1295
g7
(imyEvolve
Tree
p1296
(dp1297
g15
I0
sg25
F-2.0535236785655284
sg16
I01
sbsg15
I1
sg17
I01
sg18
g19
sbsg15
I2
sg17
I01
sg18
g44
sbsg15
I3
sg17
I01
sg18
g67
sbsg15
I4
sg17
I01
sg18
g44
sbsg15
I5
sg20
(imyEvolve
Tree
p1298
(dp1299
g10
(imyEvolve
Tree
p1300
(dp1301
g7
(imyEvolve
Tree
p1302
(dp1303
g10
(imyEvolve
Tree
p1304
(dp1305
g7
(imyEvolve
Tree
p1306
(dp1307
g15
I0
sg16
I00
sbsg15
I1
sg17
I01
sg18
g44
sbsg15
I2
sg20
(imyEvolve
Tree
p1308
(dp1309
g7
(imyEvolve
Tree
p1310
(dp1311
g15
I0
sg16
I00
sbsg15
I1
sg17
I01
sg18
g44
sbsg17
I00
sg18
g43
sbsg15
I3
sg17
I01
sg18
g67
sbsg15
I4
sg20
(imyEvolve
Tree
p1312
(dp1313
g10
(imyEvolve
Tree
p1314
(dp1315
g7
(imyEvolve
Tree
p1316
(dp1317
g10
(imyEvolve
Tree
p1318
(dp1319
g15
I0
sg25
F3.2778553545503204
sg16
I01
sbsg15
I1
sg20
(imyEvolve
Tree
p1320
(dp1321
g15
I0
sg25
F1.3259549856298323
sg16
I01
sbsg17
I00
sg18
g28
sbsg15
I2
sg17
I01
sg18
g30
sbsg15
I3
sg20
(imyEvolve
Tree
p1322
(dp1323
g7
(imyEvolve
Tree
p1324
(dp1325
g10
(imyEvolve
Tree
p1326
(dp1327
g15
I0
sg25
F0.7166694701182603
sg16
I01
sbsg15
I1
sg20
(imyEvolve
Tree
p1328
(dp1329
g15
I0
sg16
I00
sbsg17
I00
sg18
g28
sbsg15
I2
sg17
I01
sg18
g19
sbsg17
I00
sg18
g29
sbsg17
I00
sg18
g28
sbsg17
I00
sg18
g29
sba(imyEvolve
Tree
p1330
(dp1331
g7
(imyEvolve
Tree
p1332
(dp1333
g7
(imyEvolve
Tree
p1334
(dp1335
g15
I0
sg25
F-4.549087656446844
sg16
I01
sbsg15
I1
sg17
I01
sg18
g19
sbsg15
I2
sg17
I01
sg18
g30
sba(imyEvolve
Tree
p1336
(dp1337
g10
(imyEvolve
Tree
p1338
(dp1339
g7
(imyEvolve
Tree
p1340
(dp1341
g7
(imyEvolve
Tree
p1342
(dp1343
g15
I0
sg16
I00
sbsg15
I1
sg17
I01
sg18
g44
sbsg15
I2
sg17
I01
sg18
g19
sbsg15
I3
sg20
(imyEvolve
Tree
p1344
(dp1345
g7
(imyEvolve
Tree
p1346
(dp1347
g7
(imyEvolve
Tree
p1348
(dp1349
g15
I0
sg16
I00
sbsg15
I1
sg17
I01
sg18
g67
sbsg15
I2
sg17
I01
sg18
g30
sbsg17
I00
sg18
g43
sba(imyEvolve
Tree
p1350
(dp1351
g7
(imyEvolve
Tree
p1352
(dp1353
g7
(imyEvolve
Tree
p1354
(dp1355
g10
(imyEvolve
Tree
p1356
(dp1357
g15
I0
sg25
F-1.1030434326499607
sg16
I01
sbsg15
I1
sg20
(imyEvolve
Tree
p1358
(dp1359
g15
I0
sg25
F1.228012950190144
sg16
I01
sbsg17
I00
sg18
g43
sbsg15
I2
sg17
I01
sg18
g67
sbsg15
I3
sg17
I01
sg18
g30
sba(imyEvolve
Tree
p1360
(dp1361
g10
(imyEvolve
Tree
p1362
(dp1363
g7
(imyEvolve
Tree
p1364
(dp1365
g7
(imyEvolve
Tree
p1366
(dp1367
g15
I0
sg25
F0.12951811867115737
sg16
I01
sbsg15
I1
sg17
I01
sg18
g30
sbsg15
I2
sg17
I01
sg18
g30
sbsg15
I3
sg20
(imyEvolve
Tree
p1368
(dp1369
g7
(imyEvolve
Tree
p1370
(dp1371
g7
(imyEvolve
Tree
p1372
(dp1373
g15
I0
sg16
I00
sbsg15
I1
sg17
I01
sg18
g67
sbsg15
I2
sg17
I01
sg18
g44
sbsg17
I00
sg18
g43
sba(imyEvolve
Tree
p1374
(dp1375
g15
I2
sg10
(imyEvolve
Tree
p1376
(dp1377
g15
I1
sg10
(imyEvolve
Tree
p1378
(dp1379
g15
I0
sg25
F-0.48866432228934187
sg16
I01
sbsg20
(imyEvolve
Tree
p1380
(dp1381
g15
I0
sg25
F4.197911249457716
sg16
I01
sbsg17
I00
sg18
g29
sbsg20
(imyEvolve
Tree
p1382
(dp1383
g7
(imyEvolve
Tree
p1384
(dp1385
g15
I0
sg25
F4.054364346796609
sg16
I01
sbsg15
I1
sg17
I01
sg18
g67
sbsg17
I00
sg18
g43
sba(imyEvolve
Tree
p1386
(dp1387
g10
(imyEvolve
Tree
p1388
(dp1389
g7
(imyEvolve
Tree
p1390
(dp1391
g10
(imyEvolve
Tree
p1392
(dp1393
g7
(imyEvolve
Tree
p1394
(dp1395
g7
(imyEvolve
Tree
p1396
(dp1397
g15
I0
sg16
I00
sbsg15
I1
sg17
I01
sg18
g30
sbsg15
I2
sg17
I01
sg18
g30
sbsg15
I3
sg20
(imyEvolve
Tree
p1398
(dp1399
g10
(imyEvolve
Tree
p1400
(dp1401
g7
(imyEvolve
Tree
p1402
(dp1403
g15
I0
sg16
I00
sbsg15
I1
sg17
I01
sg18
g19
sbsg15
I2
sg20
(imyEvolve
Tree
p1404
(dp1405
g7
(imyEvolve
Tree
p1406
(dp1407
g15
I0
sg25
F-2.6930063238811486
sg16
I01
sbsg15
I1
sg17
I01
sg18
g67
sbsg17
I00
sg18
g43
sbsg17
I00
sg18
g29
sbsg15
I4
sg17
I01
sg18
g44
sbsg15
I5
sg20
(imyEvolve
Tree
p1408
(dp1409
g10
(imyEvolve
Tree
p1410
(dp1411
g10
(imyEvolve
Tree
p1412
(dp1413
g7
(imyEvolve
Tree
p1414
(dp1415
g10
(imyEvolve
Tree
p1416
(dp1417
g15
I0
sg16
I00
sbsg15
I1
sg20
(imyEvolve
Tree
p1418
(dp1419
g15
I0
sg16
I00
sbsg17
I00
sg18
g28
sbsg15
I2
sg17
I01
sg18
g44
sbsg15
I3
sg20
(imyEvolve
Tree
p1420
(dp1421
g7
(imyEvolve
Tree
p1422
(dp1423
g7
(imyEvolve
Tree
p1424
(dp1425
g15
I0
sg25
F-4.5415698997285485
sg16
I01
sbsg15
I1
sg17
I01
sg18
g67
sbsg15
I2
sg17
I01
sg18
g30
sbsg17
I00
sg18
g28
sbsg15
I4
sg20
(imyEvolve
Tree
p1426
(dp1427
g7
(imyEvolve
Tree
p1428
(dp1429
g7
(imyEvolve
Tree
p1430
(dp1431
g7
(imyEvolve
Tree
p1432
(dp1433
g15
I0
sg16
I00
sbsg15
I1
sg17
I01
sg18
g30
sbsg15
I2
sg17
I01
sg18
g67
sbsg15
I3
sg17
I01
sg18
g30
sbsg17
I00
sg18
g43
sbsg17
I00
sg18
g43
sba(imyEvolve
Tree
p1434
(dp1435
g10
(imyEvolve
Tree
p1436
(dp1437
g7
(imyEvolve
Tree
p1438
(dp1439
g7
(imyEvolve
Tree
p1440
(dp1441
g10
(imyEvolve
Tree
p1442
(dp1443
g10
(imyEvolve
Tree
p1444
(dp1445
g15
I0
sg16
I00
sbsg15
I1
sg20
(imyEvolve
Tree
p1446
(dp1447
g15
I0
sg25
F-3.527276896939975
sg16
I01
sbsg17
I00
sg18
g43
sbsg15
I2
sg20
(imyEvolve
Tree
p1448
(dp1449
g10
(imyEvolve
Tree
p1450
(dp1451
g15
I0
sg25
F-0.9328692905495632
sg16
I01
sbsg15
I1
sg20
(imyEvolve
Tree
p1452
(dp1453
g15
I0
sg25
F-4.172451690390131
sg16
I01
sbsg17
I00
sg18
g28
sbsg17
I00
sg18
g28
sbsg15
I3
sg17
I01
sg18
g44
sbsg15
I4
sg17
I01
sg18
g30
sbsg15
I5
sg20
(imyEvolve
Tree
p1454
(dp1455
g7
(imyEvolve
Tree
p1456
(dp1457
g10
(imyEvolve
Tree
p1458
(dp1459
g7
(imyEvolve
Tree
p1460
(dp1461
g10
(imyEvolve
Tree
p1462
(dp1463
g15
I0
sg16
I00
sbsg15
I1
sg20
(imyEvolve
Tree
p1464
(dp1465
g15
I0
sg25
F1.0685724340679101
sg16
I01
sbsg17
I00
sg18
g29
sbsg15
I2
sg17
I01
sg18
g67
sbsg15
I3
sg20
(imyEvolve
Tree
p1466
(dp1467
g10
(imyEvolve
Tree
p1468
(dp1469
g7
(imyEvolve
Tree
p1470
(dp1471
g15
I0
sg25
F1.8844263729819888
sg16
I01
sbsg15
I1
sg17
I01
sg18
g67
sbsg15
I2
sg20
(imyEvolve
Tree
p1472
(dp1473
g10
(imyEvolve
Tree
p1474
(dp1475
g15
I0
sg16
I00
sbsg15
I1
sg20
(imyEvolve
Tree
p1476
(dp1477
g15
I0
sg25
F-1.983303008879914
sg16
I01
sbsg17
I00
sg18
g43
sbsg17
I00
sg18
g29
sbsg17
I00
sg18
g43
sbsg15
I4
sg17
I01
sg18
g44
sbsg17
I00
sg18
g43
sba(imyEvolve
Tree
p1478
(dp1479
g7
(imyEvolve
Tree
p1480
(dp1481
g7
(imyEvolve
Tree
p1482
(dp1483
g7
(imyEvolve
Tree
p1484
(dp1485
g15
I0
sg25
F4.170452359029376
sg16
I01
sbsg15
I1
sg17
I01
sg18
g19
sbsg15
I2
sg17
I01
sg18
g44
sbsg15
I3
sg17
I01
sg18
g67
sba(imyEvolve
Tree
p1486
(dp1487
g7
(imyEvolve
Tree
p1488
(dp1489
g7
(imyEvolve
Tree
p1490
(dp1491
g10
(imyEvolve
Tree
p1492
(dp1493
g15
I0
sg25
F-4.3586380433050245
sg16
I01
sbsg15
I1
sg20
(imyEvolve
Tree
p1494
(dp1495
g15
I0
sg25
F-2.6966810752846717
sg16
I01
sbsg17
I00
sg18
g28
sbsg15
I2
sg17
I01
sg18
g44
sbsg15
I3
sg17
I01
sg18
g67
sba(imyEvolve
Tree
p1496
(dp1497
g10
(imyEvolve
Tree
p1498
(dp1499
g7
(imyEvolve
Tree
p1500
(dp1501
g10
(imyEvolve
Tree
p1502
(dp1503
g7
(imyEvolve
Tree
p1504
(dp1505
g10
(imyEvolve
Tree
p1506
(dp1507
g15
I0
sg25
F2.0182598892802117
sg16
I01
sbsg15
I1
sg20
(imyEvolve
Tree
p1508
(dp1509
g15
I0
sg25
F-0.6815055302108419
sg16
I01
sbsg17
I00
sg18
g29
sbsg15
I2
sg17
I01
sg18
g44
sbsg15
I3
sg20
(imyEvolve
Tree
p1510
(dp1511
g10
(imyEvolve
Tree
p1512
(dp1513
g10
(imyEvolve
Tree
p1514
(dp1515
g15
I0
sg25
F0.987800766893292
sg16
I01
sbsg15
I1
sg20
(imyEvolve
Tree
p1516
(dp1517
g15
I0
sg16
I00
sbsg17
I00
sg18
g28
sbsg15
I2
sg20
(imyEvolve
Tree
p1518
(dp1519
g7
(imyEvolve
Tree
p1520
(dp1521
g15
I0
sg25
F-4.372264894270918
sg16
I01
sbsg15
I1
sg17
I01
sg18
g67
sbsg17
I00
sg18
g43
sbsg17
I00
sg18
g29
sbsg15
I4
sg17
I01
sg18
g67
sbsg15
I5
sg20
(imyEvolve
Tree
p1522
(dp1523
g10
(imyEvolve
Tree
p1524
(dp1525
g10
(imyEvolve
Tree
p1526
(dp1527
g7
(imyEvolve
Tree
p1528
(dp1529
g10
(imyEvolve
Tree
p1530
(dp1531
g15
I0
sg16
I00
sbsg15
I1
sg20
(imyEvolve
Tree
p1532
(dp1533
g15
I0
sg16
I00
sbsg17
I00
sg18
g28
sbsg15
I2
sg17
I01
sg18
g30
sbsg15
I3
sg20
(imyEvolve
Tree
p1534
(dp1535
g7
(imyEvolve
Tree
p1536
(dp1537
g7
(imyEvolve
Tree
p1538
(dp1539
g15
I0
sg25
F3.781626519726922
sg16
I01
sbsg15
I1
sg17
I01
sg18
g30
sbsg15
I2
sg17
I01
sg18
g19
sbsg17
I00
sg18
g43
sbsg15
I4
sg20
(imyEvolve
Tree
p1540
(dp1541
g7
(imyEvolve
Tree
p1542
(dp1543
g7
(imyEvolve
Tree
p1544
(dp1545
g10
(imyEvolve
Tree
p1546
(dp1547
g15
I0
sg16
I00
sbsg15
I1
sg20
(imyEvolve
Tree
p1548
(dp1549
g15
I0
sg16
I00
sbsg17
I00
sg18
g43
sbsg15
I2
sg17
I01
sg18
g67
sbsg15
I3
sg17
I01
sg18
g19
sbsg17
I00
sg18
g29
sbsg17
I00
sg18
g29
sba(imyEvolve
Tree
p1550
(dp1551
g7
(imyEvolve
Tree
p1552
(dp1553
g10
(imyEvolve
Tree
p1554
(dp1555
g10
(imyEvolve
Tree
p1556
(dp1557
g15
I0
sg25
F-4.042760522938642
sg16
I01
sbsg15
I1
sg20
(imyEvolve
Tree
p1558
(dp1559
g15
I0
sg25
F-0.27880341580838763
sg16
I01
sbsg17
I00
sg18
g43
sbsg15
I2
sg20
(imyEvolve
Tree
p1560
(dp1561
g7
(imyEvolve
Tree
p1562
(dp1563
g15
I0
sg25
F-1.6193437618648021
sg16
I01
sbsg15
I1
sg17
I01
sg18
g30
sbsg17
I00
sg18
g43
sbsg15
I3
sg17
I01
sg18
g44
sbaa(lp1564
(imyEvolve
Tree
p1565
(dp1566
g7
(imyEvolve
Tree
p1567
(dp1568
g7
(imyEvolve
Tree
p1569
(dp1570
g15
I0
sg25
F4.634002077770958
sg16
I01
sbsg15
I1
sg17
I01
sg18
g44
sbsg15
I2
sg17
I01
sg18
g44
sba(imyEvolve
Tree
p1571
(dp1572
g7
(imyEvolve
Tree
p1573
(dp1574
g7
(imyEvolve
Tree
p1575
(dp1576
g7
(imyEvolve
Tree
p1577
(dp1578
g7
(imyEvolve
Tree
p1579
(dp1580
g15
I0
sg25
F-4.457605732206233
sg16
I01
sbsg15
I1
sg17
I01
sg18
g44
sbsg15
I2
sg17
I01
sg18
g19
sbsg15
I3
sg17
I01
sg18
g30
sbsg15
I4
sg17
I01
sg18
g30
sba(imyEvolve
Tree
p1581
(dp1582
g15
I5
sg10
(imyEvolve
Tree
p1583
(dp1584
g7
(imyEvolve
Tree
p1585
(dp1586
g15
I3
sg10
(imyEvolve
Tree
p1587
(dp1588
g7
(imyEvolve
Tree
p1589
(dp1590
g7
(imyEvolve
Tree
p1591
(dp1592
g15
I0
sg16
I00
sbsg15
I1
sg17
I01
sg18
g67
sbsg15
I2
sg17
I01
sg18
g30
sbsg20
(imyEvolve
Tree
p1593
(dp1594
g7
(imyEvolve
Tree
p1595
(dp1596
g7
(imyEvolve
Tree
p1597
(dp1598
g15
I0
sg16
I00
sbsg15
I1
sg17
I01
sg18
g44
sbsg15
I2
sg17
I01
sg18
g67
sbsg17
I00
sg18
g28
sbsg15
I4
sg17
I01
sg18
g44
sbsg20
(imyEvolve
Tree
p1599
(dp1600
g7
(imyEvolve
Tree
p1601
(dp1602
g7
(imyEvolve
Tree
p1603
(dp1604
g15
I2
sg10
(imyEvolve
Tree
p1605
(dp1606
g7
(imyEvolve
Tree
p1607
(dp1608
g15
I0
sg16
I00
sbsg15
I1
sg17
I01
sg18
g19
sbsg20
(imyEvolve
Tree
p1609
(dp1610
g15
I1
sg10
(imyEvolve
Tree
p1611
(dp1612
g15
I0
sg25
F-1.001907299439555
sg16
I01
sbsg20
(imyEvolve
Tree
p1613
(dp1614
g15
I0
sg25
F0.7985731983363831
sg16
I01
sbsg17
I00
sg18
g29
sbsg17
I00
sg18
g43
sbsg15
I3
sg17
I01
sg18
g67
sbsg15
I4
sg17
I01
sg18
g67
sbsg17
I00
sg18
g28
sba(imyEvolve
Tree
p1615
(dp1616
g7
(imyEvolve
Tree
p1617
(dp1618
g7
(imyEvolve
Tree
p1619
(dp1620
g15
I2
sg10
(imyEvolve
Tree
p1621
(dp1622
g7
(imyEvolve
Tree
p1623
(dp1624
g15
I0
sg25
F2.3753279509785106
sg16
I01
sbsg15
I1
sg17
I01
sg18
g30
sbsg20
(imyEvolve
Tree
p1625
(dp1626
g7
(imyEvolve
Tree
p1627
(dp1628
g15
I0
sg16
I00
sbsg15
I1
sg17
I01
sg18
g44
sbsg17
I00
sg18
g28
sbsg15
I3
sg17
I01
sg18
g19
sbsg15
I4
sg17
I01
sg18
g44
sba(imyEvolve
Tree
p1629
(dp1630
g15
I2
sg10
(imyEvolve
Tree
p1631
(dp1632
g7
(imyEvolve
Tree
p1633
(dp1634
g15
I0
sg25
F4.064824764302436
sg16
I01
sbsg15
I1
sg17
I01
sg18
g44
sbsg20
(imyEvolve
Tree
p1635
(dp1636
g15
I1
sg10
(imyEvolve
Tree
p1637
(dp1638
g15
I0
sg25
F-1.3323740423969896
sg16
I01
sbsg20
(imyEvolve
Tree
p1639
(dp1640
g15
I0
sg25
F-2.286425871223684
sg16
I01
sbsg17
I00
sg18
g43
sbsg17
I00
sg18
g43
sba(imyEvolve
Tree
p1641
(dp1642
g15
I5
sg10
(imyEvolve
Tree
p1643
(dp1644
g7
(imyEvolve
Tree
p1645
(dp1646
g15
I3
sg10
(imyEvolve
Tree
p1647
(dp1648
g15
I2
sg10
(imyEvolve
Tree
p1649
(dp1650
g7
(imyEvolve
Tree
p1651
(dp1652
g15
I0
sg25
F-0.003953379967791548
sg16
I01
sbsg15
I1
sg17
I01
sg18
g30
sbsg20
(imyEvolve
Tree
p1653
(dp1654
g15
I1
sg10
(imyEvolve
Tree
p1655
(dp1656
g15
I0
sg25
F0.6702742287938737
sg16
I01
sbsg20
(imyEvolve
Tree
p1657
(dp1658
g15
I0
sg25
F0.38142152253021067
sg16
I01
sbsg17
I00
sg18
g43
sbsg17
I00
sg18
g28
sbsg20
(imyEvolve
Tree
p1659
(dp1660
g15
I2
sg10
(imyEvolve
Tree
p1661
(dp1662
g15
I1
sg10
(imyEvolve
Tree
p1663
(dp1664
g15
I0
sg16
I00
sbsg20
(imyEvolve
Tree
p1665
(dp1666
g15
I0
sg16
I00
sbsg17
I00
sg18
g43
sbsg20
(imyEvolve
Tree
p1667
(dp1668
g7
(imyEvolve
Tree
p1669
(dp1670
g15
I0
sg16
I00
sbsg15
I1
sg17
I01
sg18
g44
sbsg17
I00
sg18
g43
sbsg17
I00
sg18
g43
sbsg15
I4
sg17
I01
sg18
g19
sbsg20
(imyEvolve
Tree
p1671
(dp1672
g15
I4
sg10
(imyEvolve
Tree
p1673
(dp1674
g7
(imyEvolve
Tree
p1675
(dp1676
g7
(imyEvolve
Tree
p1677
(dp1678
g15
I1
sg10
(imyEvolve
Tree
p1679
(dp1680
g15
I0
sg16
I00
sbsg20
(imyEvolve
Tree
p1681
(dp1682
g15
I0
sg16
I00
sbsg17
I00
sg18
g29
sbsg15
I2
sg17
I01
sg18
g19
sbsg15
I3
sg17
I01
sg18
g19
sbsg20
(imyEvolve
Tree
p1683
(dp1684
g7
(imyEvolve
Tree
p1685
(dp1686
g15
I2
sg10
(imyEvolve
Tree
p1687
(dp1688
g15
I1
sg10
(imyEvolve
Tree
p1689
(dp1690
g15
I0
sg25
F2.9561301640957725
sg16
I01
sbsg20
(imyEvolve
Tree
p1691
(dp1692
g15
I0
sg16
I00
sbsg17
I00
sg18
g28
sbsg20
(imyEvolve
Tree
p1693
(dp1694
g15
I1
sg10
(imyEvolve
Tree
p1695
(dp1696
g15
I0
sg16
I00
sbsg20
(imyEvolve
Tree
p1697
(dp1698
g15
I0
sg16
I00
sbsg17
I00
sg18
g28
sbsg17
I00
sg18
g29
sbsg15
I3
sg17
I01
sg18
g67
sbsg17
I00
sg18
g28
sbsg17
I00
sg18
g29
sba(imyEvolve
Tree
p1699
(dp1700
g15
I4
sg10
(imyEvolve
Tree
p1701
(dp1702
g15
I3
sg10
(imyEvolve
Tree
p1703
(dp1704
g7
(imyEvolve
Tree
p1705
(dp1706
g15
I1
sg10
(imyEvolve
Tree
p1707
(dp1708
g15
I0
sg16
I00
sbsg20
(imyEvolve
Tree
p1709
(dp1710
g15
I0
sg25
F2.088908872306977
sg16
I01
sbsg17
I00
sg18
g43
sbsg15
I2
sg17
I01
sg18
g67
sbsg20
(imyEvolve
Tree
p1711
(dp1712
g15
I2
sg10
(imyEvolve
Tree
p1713
(dp1714
g15
I1
sg10
(imyEvolve
Tree
p1715
(dp1716
g15
I0
sg25
F-4.519700538114602
sg16
I01
sbsg20
(imyEvolve
Tree
p1717
(dp1718
g15
I0
sg25
F1.7753494442909714
sg16
I01
sbsg17
I00
sg18
g28
sbsg20
(imyEvolve
Tree
p1719
(dp1720
g7
(imyEvolve
Tree
p1721
(dp1722
g15
I0
sg25
F2.095403176963125
sg16
I01
sbsg15
I1
sg17
I01
sg18
g67
sbsg17
I00
sg18
g43
sbsg17
I00
sg18
g28
sbsg20
(imyEvolve
Tree
p1723
(dp1724
g7
(imyEvolve
Tree
p1725
(dp1726
g7
(imyEvolve
Tree
p1727
(dp1728
g7
(imyEvolve
Tree
p1729
(dp1730
g15
I0
sg25
F-4.522211497267664
sg16
I01
sbsg15
I1
sg17
I01
sg18
g67
sbsg15
I2
sg17
I01
sg18
g30
sbsg15
I3
sg17
I01
sg18
g30
sbsg17
I00
sg18
g28
sba(imyEvolve
Tree
p1731
(dp1732
g7
(imyEvolve
Tree
p1733
(dp1734
g15
I3
sg10
(imyEvolve
Tree
p1735
(dp1736
g7
(imyEvolve
Tree
p1737
(dp1738
g7
(imyEvolve
Tree
p1739
(dp1740
g15
I0
sg16
I00
sbsg15
I1
sg17
I01
sg18
g67
sbsg15
I2
sg17
I01
sg18
g44
sbsg20
(imyEvolve
Tree
p1741
(dp1742
g7
(imyEvolve
Tree
p1743
(dp1744
g15
I1
sg10
(imyEvolve
Tree
p1745
(dp1746
g15
I0
sg16
I00
sbsg20
(imyEvolve
Tree
p1747
(dp1748
g15
I0
sg25
F0.8350237305483716
sg16
I01
sbsg17
I00
sg18
g43
sbsg15
I2
sg17
I01
sg18
g44
sbsg17
I00
sg18
g28
sbsg15
I4
sg17
I01
sg18
g30
sba(imyEvolve
Tree
p1749
(dp1750
g15
I2
sg10
(imyEvolve
Tree
p1751
(dp1752
g7
(imyEvolve
Tree
p1753
(dp1754
g15
I0
sg25
F-1.178899520418347
sg16
I01
sbsg15
I1
sg17
I01
sg18
g44
sbsg20
(imyEvolve
Tree
p1755
(dp1756
g15
I1
sg10
(imyEvolve
Tree
p1757
(dp1758
g15
I0
sg25
F-2.5640695520120973
sg16
I01
sbsg20
(imyEvolve
Tree
p1759
(dp1760
g15
I0
sg25
F-2.157227209762329
sg16
I01
sbsg17
I00
sg18
g28
sbsg17
I00
sg18
g29
sba(imyEvolve
Tree
p1761
(dp1762
g7
(imyEvolve
Tree
p1763
(dp1764
g15
I1
sg10
(imyEvolve
Tree
p1765
(dp1766
g15
I0
sg16
I00
sbsg20
(imyEvolve
Tree
p1767
(dp1768
g15
I0
sg25
F-1.551545755905539
sg16
I01
sbsg17
I00
sg18
g28
sbsg15
I2
sg17
I01
sg18
g19
sba(imyEvolve
Tree
p1769
(dp1770
g7
(imyEvolve
Tree
p1771
(dp1772
g7
(imyEvolve
Tree
p1773
(dp1774
g7
(imyEvolve
Tree
p1775
(dp1776
g15
I1
sg10
(imyEvolve
Tree
p1777
(dp1778
g15
I0
sg25
F0.2034744225152032
sg16
I01
sbsg20
(imyEvolve
Tree
p1779
(dp1780
g15
I0
sg25
F4.984461367864956
sg16
I01
sbsg17
I00
sg18
g43
sbsg15
I2
sg17
I01
sg18
g44
sbsg15
I3
sg17
I01
sg18
g30
sbsg15
I4
sg17
I01
sg18
g19
sba(imyEvolve
Tree
p1781
(dp1782
g15
I4
sg10
(imyEvolve
Tree
p1783
(dp1784
g7
(imyEvolve
Tree
p1785
(dp1786
g15
I2
sg10
(imyEvolve
Tree
p1787
(dp1788
g15
I1
sg10
(imyEvolve
Tree
p1789
(dp1790
g15
I0
sg25
F1.3102709625942524
sg16
I01
sbsg20
(imyEvolve
Tree
p1791
(dp1792
g15
I0
sg16
I00
sbsg17
I00
sg18
g29
sbsg20
(imyEvolve
Tree
p1793
(dp1794
g15
I1
sg10
(imyEvolve
Tree
p1795
(dp1796
g15
I0
sg16
I00
sbsg20
(imyEvolve
Tree
p1797
(dp1798
g15
I0
sg16
I00
sbsg17
I00
sg18
g29
sbsg17
I00
sg18
g43
sbsg15
I3
sg17
I01
sg18
g44
sbsg20
(imyEvolve
Tree
p1799
(dp1800
g7
(imyEvolve
Tree
p1801
(dp1802
g7
(imyEvolve
Tree
p1803
(dp1804
g7
(imyEvolve
Tree
p1805
(dp1806
g15
I0
sg25
F3.451092950611974
sg16
I01
sbsg15
I1
sg17
I01
sg18
g19
sbsg15
I2
sg17
I01
sg18
g19
sbsg15
I3
sg17
I01
sg18
g44
sbsg17
I00
sg18
g43
sba(imyEvolve
Tree
p1807
(dp1808
g7
(imyEvolve
Tree
p1809
(dp1810
g7
(imyEvolve
Tree
p1811
(dp1812
g15
I2
sg10
(imyEvolve
Tree
p1813
(dp1814
g7
(imyEvolve
Tree
p1815
(dp1816
g15
I0
sg25
F-3.9076473286280877
sg16
I01
sbsg15
I1
sg17
I01
sg18
g19
sbsg20
(imyEvolve
Tree
p1817
(dp1818
g7
(imyEvolve
Tree
p1819
(dp1820
g15
I0
sg25
F-0.8135212359012929
sg16
I01
sbsg15
I1
sg17
I01
sg18
g44
sbsg17
I00
sg18
g29
sbsg15
I3
sg17
I01
sg18
g19
sbsg15
I4
sg17
I01
sg18
g44
sba(imyEvolve
Tree
p1821
(dp1822
g15
I4
sg10
(imyEvolve
Tree
p1823
(dp1824
g7
(imyEvolve
Tree
p1825
(dp1826
g15
I2
sg10
(imyEvolve
Tree
p1827
(dp1828
g7
(imyEvolve
Tree
p1829
(dp1830
g15
I0
sg25
F-2.7657092181754903
sg16
I01
sbsg15
I1
sg17
I01
sg18
g19
sbsg20
(imyEvolve
Tree
p1831
(dp1832
g7
(imyEvolve
Tree
p1833
(dp1834
g15
I0
sg16
I00
sbsg15
I1
sg17
I01
sg18
g67
sbsg17
I00
sg18
g29
sbsg15
I3
sg17
I01
sg18
g30
sbsg20
(imyEvolve
Tree
p1835
(dp1836
g7
(imyEvolve
Tree
p1837
(dp1838
g15
I2
sg10
(imyEvolve
Tree
p1839
(dp1840
g7
(imyEvolve
Tree
p1841
(dp1842
g15
I0
sg25
F-4.172927286529981
sg16
I01
sbsg15
I1
sg17
I01
sg18
g44
sbsg20
(imyEvolve
Tree
p1843
(dp1844
g15
I1
sg10
(imyEvolve
Tree
p1845
(dp1846
g15
I0
sg25
F2.962103699569763
sg16
I01
sbsg20
(imyEvolve
Tree
p1847
(dp1848
g15
I0
sg25
F-0.8478338799134733
sg16
I01
sbsg17
I00
sg18
g43
sbsg17
I00
sg18
g43
sbsg15
I3
sg17
I01
sg18
g19
sbsg17
I00
sg18
g29
sba(imyEvolve
Tree
p1849
(dp1850
g7
(imyEvolve
Tree
p1851
(dp1852
g15
I2
sg10
(imyEvolve
Tree
p1853
(dp1854
g7
(imyEvolve
Tree
p1855
(dp1856
g15
I0
sg16
I00
sbsg15
I1
sg17
I01
sg18
g30
sbsg20
(imyEvolve
Tree
p1857
(dp1858
g7
(imyEvolve
Tree
p1859
(dp1860
g15
I0
sg16
I00
sbsg15
I1
sg17
I01
sg18
g30
sbsg17
I00
sg18
g28
sbsg15
I3
sg17
I01
sg18
g30
sba(imyEvolve
Tree
p1861
(dp1862
g7
(imyEvolve
Tree
p1863
(dp1864
g15
I4
sg10
(imyEvolve
Tree
p1865
(dp1866
g15
I3
sg10
(imyEvolve
Tree
p1867
(dp1868
g7
(imyEvolve
Tree
p1869
(dp1870
g7
(imyEvolve
Tree
p1871
(dp1872
g15
I0
sg25
F-3.2684956301497
sg16
I01
sbsg15
I1
sg17
I01
sg18
g67
sbsg15
I2
sg17
I01
sg18
g44
sbsg20
(imyEvolve
Tree
p1873
(dp1874
g7
(imyEvolve
Tree
p1875
(dp1876
g15
I1
sg10
(imyEvolve
Tree
p1877
(dp1878
g15
I0
sg25
F-4.825166045249908
sg16
I01
sbsg20
(imyEvolve
Tree
p1879
(dp1880
g15
I0
sg16
I00
sbsg17
I00
sg18
g29
sbsg15
I2
sg17
I01
sg18
g30
sbsg17
I00
sg18
g28
sbsg20
(imyEvolve
Tree
p1881
(dp1882
g7
(imyEvolve
Tree
p1883
(dp1884
g15
I2
sg10
(imyEvolve
Tree
p1885
(dp1886
g7
(imyEvolve
Tree
p1887
(dp1888
g15
I0
sg25
F-1.5179391586177058
sg16
I01
sbsg15
I1
sg17
I01
sg18
g44
sbsg20
(imyEvolve
Tree
p1889
(dp1890
g15
I1
sg10
(imyEvolve
Tree
p1891
(dp1892
g15
I0
sg25
F1.7267157257655423
sg16
I01
sbsg20
(imyEvolve
Tree
p1893
(dp1894
g15
I0
sg25
F3.6547052540163563
sg16
I01
sbsg17
I00
sg18
g43
sbsg17
I00
sg18
g28
sbsg15
I3
sg17
I01
sg18
g67
sbsg17
I00
sg18
g28
sbsg15
I5
sg17
I01
sg18
g67
sba(imyEvolve
Tree
p1895
(dp1896
g7
(imyEvolve
Tree
p1897
(dp1898
g15
I1
sg10
(imyEvolve
Tree
p1899
(dp1900
g15
I0
sg25
F-0.539303291956462
sg16
I01
sbsg20
(imyEvolve
Tree
p1901
(dp1902
g15
I0
sg16
I00
sbsg17
I00
sg18
g29
sbsg15
I2
sg17
I01
sg18
g67
sba(imyEvolve
Tree
p1903
(dp1904
g7
(imyEvolve
Tree
p1905
(dp1906
g7
(imyEvolve
Tree
p1907
(dp1908
g15
I1
sg10
(imyEvolve
Tree
p1909
(dp1910
g15
I0
sg16
I00
sbsg20
(imyEvolve
Tree
p1911
(dp1912
g15
I0
sg16
I00
sbsg17
I00
sg18
g29
sbsg15
I2
sg17
I01
sg18
g19
sbsg15
I3
sg17
I01
sg18
g67
sba(imyEvolve
Tree
p1913
(dp1914
g15
I3
sg10
(imyEvolve
Tree
p1915
(dp1916
g7
(imyEvolve
Tree
p1917
(dp1918
g15
I1
sg10
(imyEvolve
Tree
p1919
(dp1920
g15
I0
sg25
F-2.912728811226332
sg16
I01
sbsg20
(imyEvolve
Tree
p1921
(dp1922
g15
I0
sg16
I00
sbsg17
I00
sg18
g29
sbsg15
I2
sg17
I01
sg18
g19
sbsg20
(imyEvolve
Tree
p1923
(dp1924
g7
(imyEvolve
Tree
p1925
(dp1926
g7
(imyEvolve
Tree
p1927
(dp1928
g15
I0
sg25
F2.4710645566099068
sg16
I01
sbsg15
I1
sg17
I01
sg18
g44
sbsg15
I2
sg17
I01
sg18
g30
sbsg17
I00
sg18
g29
sba(imyEvolve
Tree
p1929
(dp1930
g15
I4
sg10
(imyEvolve
Tree
p1931
(dp1932
g7
(imyEvolve
Tree
p1933
(dp1934
g7
(imyEvolve
Tree
p1935
(dp1936
g15
I1
sg10
(imyEvolve
Tree
p1937
(dp1938
g15
I0
sg16
I00
sbsg20
(imyEvolve
Tree
p1939
(dp1940
g15
I0
sg16
I00
sbsg17
I00
sg18
g29
sbsg15
I2
sg17
I01
sg18
g44
sbsg15
I3
sg17
I01
sg18
g19
sbsg20
(imyEvolve
Tree
p1941
(dp1942
g15
I3
sg10
(imyEvolve
Tree
p1943
(dp1944
g15
I2
sg10
(imyEvolve
Tree
p1945
(dp1946
g7
(imyEvolve
Tree
p1947
(dp1948
g15
I0
sg16
I00
sbsg15
I1
sg17
I01
sg18
g19
sbsg20
(imyEvolve
Tree
p1949
(dp1950
g7
(imyEvolve
Tree
p1951
(dp1952
g15
I0
sg25
F2.0918982765684815
sg16
I01
sbsg15
I1
sg17
I01
sg18
g44
sbsg17
I00
sg18
g29
sbsg20
(imyEvolve
Tree
p1953
(dp1954
g15
I2
sg10
(imyEvolve
Tree
p1955
(dp1956
g7
(imyEvolve
Tree
p1957
(dp1958
g15
I0
sg16
I00
sbsg15
I1
sg17
I01
sg18
g44
sbsg20
(imyEvolve
Tree
p1959
(dp1960
g7
(imyEvolve
Tree
p1961
(dp1962
g15
I0
sg25
F-4.949554416467629
sg16
I01
sbsg15
I1
sg17
I01
sg18
g44
sbsg17
I00
sg18
g28
sbsg17
I00
sg18
g29
sbsg17
I00
sg18
g43
sbaasS'alpha'
p1963
F0.007671260943901766
sS'fitness'
p1964
cnumpy.core.multiarray
scalar
p1965
(cnumpy
dtype
p1966
(S'f8'
p1967
I0
I1
tp1968
Rp1969
(I3
S'<'
p1970
NNNI-1
I-1
I0
tp1971
bS'\x80#\xb9\xfc\xc6\x0es?'
p1972
tp1973
Rp1974
sS'weightSharing'
p1975
(lp1976
I00
aI00
asS'fitnessValid'
p1977
I00
sS'resolution'
p1978
I84
sb.