(imyEvolve
Individual
p0
(dp1
S'funcs'
p2
(lp3
(lp4
(imyEvolve
Tree
p5
(dp6
S'depth'
p7
I5
sS'left'
p8
(imyEvolve
Tree
p9
(dp10
g7
I4
sg8
(imyEvolve
Tree
p11
(dp12
g7
I3
sg8
(imyEvolve
Tree
p13
(dp14
g7
I2
sg8
(imyEvolve
Tree
p15
(dp16
g7
I1
sg8
(imyEvolve
Tree
p17
(dp18
g7
I0
sS'constant'
p19
F4.30418169844415
sS'isConstant'
p20
I01
sbsS'right'
p21
(imyEvolve
Tree
p22
(dp23
g7
I0
sg19
F1.6401227902110147
sg20
I01
sbsS'single'
p24
I00
sS'op'
p25
coperator
sub
p26
sbsg21
(imyEvolve
Tree
p27
(dp28
g7
I1
sg8
(imyEvolve
Tree
p29
(dp30
g7
I0
sg20
I00
sbsg21
(imyEvolve
Tree
p31
(dp32
g7
I0
sg20
I00
sbsg24
I00
sg25
coperator
add
p33
sbsg24
I00
sg25
coperator
mul
p34
sbsg21
(imyEvolve
Tree
p35
(dp36
S'below'
p37
(imyEvolve
Tree
p38
(dp39
g37
(imyEvolve
Tree
p40
(dp41
g7
I0
sg20
I00
sbsg7
I1
sg24
I01
sg25
cmath
sin
p42
sbsg7
I2
sg24
I01
sg25
cmyEvolve
square
p43
sbsg24
I00
sg25
g33
sbsg21
(imyEvolve
Tree
p44
(dp45
g7
I3
sg8
(imyEvolve
Tree
p46
(dp47
g37
(imyEvolve
Tree
p48
(dp49
g7
I1
sg8
(imyEvolve
Tree
p50
(dp51
g7
I0
sg19
F1.2699888045911836
sg20
I01
sbsg21
(imyEvolve
Tree
p52
(dp53
g7
I0
sg19
F-2.439821086738043
sg20
I01
sbsg24
I00
sg25
g34
sbsg7
I2
sg24
I01
sg25
g43
sbsg21
(imyEvolve
Tree
p54
(dp55
g37
(imyEvolve
Tree
p56
(dp57
g7
I1
sg8
(imyEvolve
Tree
p58
(dp59
g7
I0
sg20
I00
sbsg21
(imyEvolve
Tree
p60
(dp61
g7
I0
sg20
I00
sbsg24
I00
sg25
g34
sbsg7
I2
sg24
I01
sg25
g43
sbsg24
I00
sg25
g26
sbsg24
I00
sg25
g34
sbsg21
(imyEvolve
Tree
p62
(dp63
g37
(imyEvolve
Tree
p64
(dp65
g37
(imyEvolve
Tree
p66
(dp67
g37
(imyEvolve
Tree
p68
(dp69
g37
(imyEvolve
Tree
p70
(dp71
g7
I0
sg19
F3.2810172445778143
sg20
I01
sbsg7
I1
sg24
I01
sg25
g42
sbsg7
I2
sg24
I01
sg25
g42
sbsg7
I3
sg24
I01
sg25
cmyEvolve
absSqrt
p72
sbsg7
I4
sg24
I01
sg25
g43
sbsg24
I00
sg25
g26
sba(imyEvolve
Tree
p73
(dp74
g7
I2
sg8
(imyEvolve
Tree
p75
(dp76
g7
I1
sg8
(imyEvolve
Tree
p77
(dp78
g7
I0
sg20
I00
sbsg21
(imyEvolve
Tree
p79
(dp80
g7
I0
sg20
I00
sbsg24
I00
sg25
g33
sbsg21
(imyEvolve
Tree
p81
(dp82
g7
I1
sg8
(imyEvolve
Tree
p83
(dp84
g7
I0
sg20
I00
sbsg21
(imyEvolve
Tree
p85
(dp86
g7
I0
sg19
F-4.684481780808421
sg20
I01
sbsg24
I00
sg25
g33
sbsg24
I00
sg25
g33
sba(imyEvolve
Tree
p87
(dp88
g37
(imyEvolve
Tree
p89
(dp90
g37
(imyEvolve
Tree
p91
(dp92
g7
I0
sg19
F-3.220176380946783
sg20
I01
sbsg7
I1
sg24
I01
sg25
g42
sbsg7
I2
sg24
I01
sg25
g72
sba(imyEvolve
Tree
p93
(dp94
g37
(imyEvolve
Tree
p95
(dp96
g7
I1
sg8
(imyEvolve
Tree
p97
(dp98
g7
I0
sg19
F1.7962920850000765
sg20
I01
sbsg21
(imyEvolve
Tree
p99
(dp100
g7
I0
sg19
F4.022082931080311
sg20
I01
sbsg24
I00
sg25
g26
sbsg7
I2
sg24
I01
sg25
cmath
cos
p101
sba(imyEvolve
Tree
p102
(dp103
g7
I2
sg8
(imyEvolve
Tree
p104
(dp105
g37
(imyEvolve
Tree
p106
(dp107
g7
I0
sg19
F2.33403527751258
sg20
I01
sbsg7
I1
sg24
I01
sg25
g101
sbsg21
(imyEvolve
Tree
p108
(dp109
g7
I1
sg8
(imyEvolve
Tree
p110
(dp111
g7
I0
sg20
I00
sbsg21
(imyEvolve
Tree
p112
(dp113
g7
I0
sg19
F2.9460315997249156
sg20
I01
sbsg24
I00
sg25
g26
sbsg24
I00
sg25
g34
sba(imyEvolve
Tree
p114
(dp115
g7
I2
sg8
(imyEvolve
Tree
p116
(dp117
g37
(imyEvolve
Tree
p118
(dp119
g7
I0
sg19
F-4.988709506629308
sg20
I01
sbsg7
I1
sg24
I01
sg25
g43
sbsg21
(imyEvolve
Tree
p120
(dp121
g7
I1
sg8
(imyEvolve
Tree
p122
(dp123
g7
I0
sg20
I00
sbsg21
(imyEvolve
Tree
p124
(dp125
g7
I0
sg19
F2.427203903960117
sg20
I01
sbsg24
I00
sg25
g26
sbsg24
I00
sg25
g26
sba(imyEvolve
Tree
p126
(dp127
g7
I4
sg8
(imyEvolve
Tree
p128
(dp129
g37
(imyEvolve
Tree
p130
(dp131
g37
(imyEvolve
Tree
p132
(dp133
g7
I1
sg8
(imyEvolve
Tree
p134
(dp135
g7
I0
sg19
F-2.7424365409877316
sg20
I01
sbsg21
(imyEvolve
Tree
p136
(dp137
g7
I0
sg19
F2.790205036103057
sg20
I01
sbsg24
I00
sg25
g34
sbsg7
I2
sg24
I01
sg25
g72
sbsg7
I3
sg24
I01
sg25
g43
sbsg21
(imyEvolve
Tree
p138
(dp139
g7
I3
sg8
(imyEvolve
Tree
p140
(dp141
g7
I2
sg8
(imyEvolve
Tree
p142
(dp143
g37
(imyEvolve
Tree
p144
(dp145
g7
I0
sg20
I00
sbsg7
I1
sg24
I01
sg25
g42
sbsg21
(imyEvolve
Tree
p146
(dp147
g7
I1
sg8
(imyEvolve
Tree
p148
(dp149
g7
I0
sg20
I00
sbsg21
(imyEvolve
Tree
p150
(dp151
g7
I0
sg20
I00
sbsg24
I00
sg25
g34
sbsg24
I00
sg25
g26
sbsg21
(imyEvolve
Tree
p152
(dp153
g37
(imyEvolve
Tree
p154
(dp155
g37
(imyEvolve
Tree
p156
(dp157
g7
I0
sg20
I00
sbsg7
I1
sg24
I01
sg25
g43
sbsg7
I2
sg24
I01
sg25
g72
sbsg24
I00
sg25
g26
sbsg24
I00
sg25
g34
sba(imyEvolve
Tree
p158
(dp159
g7
I5
sg8
(imyEvolve
Tree
p160
(dp161
g7
I4
sg8
(imyEvolve
Tree
p162
(dp163
g7
I3
sg8
(imyEvolve
Tree
p164
(dp165
g7
I2
sg8
(imyEvolve
Tree
p166
(dp167
g37
(imyEvolve
Tree
p168
(dp169
g7
I0
sg20
I00
sbsg7
I1
sg24
I01
sg25
g72
sbsg21
(imyEvolve
Tree
p170
(dp171
g7
I1
sg8
(imyEvolve
Tree
p172
(dp173
g7
I0
sg19
F3.0714381072424537
sg20
I01
sbsg21
(imyEvolve
Tree
p174
(dp175
g7
I0
sg20
I00
sbsg24
I00
sg25
g26
sbsg24
I00
sg25
g34
sbsg21
(imyEvolve
Tree
p176
(dp177
g37
(imyEvolve
Tree
p178
(dp179
g7
I1
sg8
(imyEvolve
Tree
p180
(dp181
g7
I0
sg19
F-0.3635076237820689
sg20
I01
sbsg21
(imyEvolve
Tree
p182
(dp183
g7
I0
sg20
I00
sbsg24
I00
sg25
g33
sbsg7
I2
sg24
I01
sg25
g42
sbsg24
I00
sg25
g26
sbsg21
(imyEvolve
Tree
p184
(dp185
g37
(imyEvolve
Tree
p186
(dp187
g7
I2
sg8
(imyEvolve
Tree
p188
(dp189
g7
I1
sg8
(imyEvolve
Tree
p190
(dp191
g7
I0
sg19
F2.775973649169112
sg20
I01
sbsg21
(imyEvolve
Tree
p192
(dp193
g7
I0
sg20
I00
sbsg24
I00
sg25
g33
sbsg21
(imyEvolve
Tree
p194
(dp195
g37
(imyEvolve
Tree
p196
(dp197
g7
I0
sg20
I00
sbsg7
I1
sg24
I01
sg25
g43
sbsg24
I00
sg25
g34
sbsg7
I3
sg24
I01
sg25
g43
sbsg24
I00
sg25
g34
sbsg21
(imyEvolve
Tree
p198
(dp199
g37
(imyEvolve
Tree
p200
(dp201
g7
I3
sg8
(imyEvolve
Tree
p202
(dp203
g37
(imyEvolve
Tree
p204
(dp205
g7
I1
sg8
(imyEvolve
Tree
p206
(dp207
g7
I0
sg19
F4.867817858430794
sg20
I01
sbsg21
(imyEvolve
Tree
p208
(dp209
g7
I0
sg20
I00
sbsg24
I00
sg25
g33
sbsg7
I2
sg24
I01
sg25
g101
sbsg21
(imyEvolve
Tree
p210
(dp211
g7
I2
sg8
(imyEvolve
Tree
p212
(dp213
g7
I1
sg8
(imyEvolve
Tree
p214
(dp215
g7
I0
sg19
F4.700579908817854
sg20
I01
sbsg21
(imyEvolve
Tree
p216
(dp217
g7
I0
sg19
F-1.1557403430568103
sg20
I01
sbsg24
I00
sg25
g33
sbsg21
(imyEvolve
Tree
p218
(dp219
g37
(imyEvolve
Tree
p220
(dp221
g7
I0
sg19
F-1.003361032981891
sg20
I01
sbsg7
I1
sg24
I01
sg25
g101
sbsg24
I00
sg25
g26
sbsg24
I00
sg25
g33
sbsg7
I4
sg24
I01
sg25
g42
sbsg24
I00
sg25
g34
sba(imyEvolve
Tree
p222
(dp223
g7
I2
sg8
(imyEvolve
Tree
p224
(dp225
g7
I1
sg8
(imyEvolve
Tree
p226
(dp227
g7
I0
sg20
I00
sbsg21
(imyEvolve
Tree
p228
(dp229
g7
I0
sg19
F4.612104510670619
sg20
I01
sbsg24
I00
sg25
g34
sbsg21
(imyEvolve
Tree
p230
(dp231
g37
(imyEvolve
Tree
p232
(dp233
g7
I0
sg19
F-2.6397633811955714
sg20
I01
sbsg7
I1
sg24
I01
sg25
g72
sbsg24
I00
sg25
g33
sba(imyEvolve
Tree
p234
(dp235
g7
I5
sg8
(imyEvolve
Tree
p236
(dp237
g7
I4
sg8
(imyEvolve
Tree
p238
(dp239
g7
I3
sg8
(imyEvolve
Tree
p240
(dp241
g7
I2
sg8
(imyEvolve
Tree
p242
(dp243
g7
I1
sg8
(imyEvolve
Tree
p244
(dp245
g7
I0
sg20
I00
sbsg21
(imyEvolve
Tree
p246
(dp247
g7
I0
sg19
F-0.7662522053909377
sg20
I01
sbsg24
I00
sg25
g34
sbsg21
(imyEvolve
Tree
p248
(dp249
g37
(imyEvolve
Tree
p250
(dp251
g7
I0
sg19
F-3.952448834774509
sg20
I01
sbsg7
I1
sg24
I01
sg25
g43
sbsg24
I00
sg25
g33
sbsg21
(imyEvolve
Tree
p252
(dp253
g37
(imyEvolve
Tree
p254
(dp255
g7
I1
sg8
(imyEvolve
Tree
p256
(dp257
g7
I0
sg19
F0.9925307189989017
sg20
I01
sbsg21
(imyEvolve
Tree
p258
(dp259
g7
I0
sg19
F-0.6567004509451237
sg20
I01
sbsg24
I00
sg25
g33
sbsg7
I2
sg24
I01
sg25
g43
sbsg24
I00
sg25
g26
sbsg21
(imyEvolve
Tree
p260
(dp261
g7
I3
sg8
(imyEvolve
Tree
p262
(dp263
g37
(imyEvolve
Tree
p264
(dp265
g37
(imyEvolve
Tree
p266
(dp267
g7
I0
sg19
F-1.1737087826304826
sg20
I01
sbsg7
I1
sg24
I01
sg25
g72
sbsg7
I2
sg24
I01
sg25
g101
sbsg21
(imyEvolve
Tree
p268
(dp269
g37
(imyEvolve
Tree
p270
(dp271
g7
I1
sg8
(imyEvolve
Tree
p272
(dp273
g7
I0
sg19
F-4.490143025449696
sg20
I01
sbsg21
(imyEvolve
Tree
p274
(dp275
g7
I0
sg20
I00
sbsg24
I00
sg25
g26
sbsg7
I2
sg24
I01
sg25
g42
sbsg24
I00
sg25
g33
sbsg24
I00
sg25
g34
sbsg21
(imyEvolve
Tree
p276
(dp277
g7
I4
sg8
(imyEvolve
Tree
p278
(dp279
g7
I3
sg8
(imyEvolve
Tree
p280
(dp281
g7
I2
sg8
(imyEvolve
Tree
p282
(dp283
g37
(imyEvolve
Tree
p284
(dp285
g7
I0
sg20
I00
sbsg7
I1
sg24
I01
sg25
g43
sbsg21
(imyEvolve
Tree
p286
(dp287
g37
(imyEvolve
Tree
p288
(dp289
g7
I0
sg19
F-3.0479667805437805
sg20
I01
sbsg7
I1
sg24
I01
sg25
g72
sbsg24
I00
sg25
g33
sbsg21
(imyEvolve
Tree
p290
(dp291
g7
I2
sg8
(imyEvolve
Tree
p292
(dp293
g7
I1
sg8
(imyEvolve
Tree
p294
(dp295
g7
I0
sg19
F-2.788667062062702
sg20
I01
sbsg21
(imyEvolve
Tree
p296
(dp297
g7
I0
sg20
I00
sbsg24
I00
sg25
g33
sbsg21
(imyEvolve
Tree
p298
(dp299
g7
I1
sg8
(imyEvolve
Tree
p300
(dp301
g7
I0
sg20
I00
sbsg21
(imyEvolve
Tree
p302
(dp303
g7
I0
sg19
F-0.5133009966955875
sg20
I01
sbsg24
I00
sg25
g26
sbsg24
I00
sg25
g26
sbsg24
I00
sg25
g33
sbsg21
(imyEvolve
Tree
p304
(dp305
g37
(imyEvolve
Tree
p306
(dp307
g7
I2
sg8
(imyEvolve
Tree
p308
(dp309
g37
(imyEvolve
Tree
p310
(dp311
g7
I0
sg19
F2.7930784638974764
sg20
I01
sbsg7
I1
sg24
I01
sg25
g72
sbsg21
(imyEvolve
Tree
p312
(dp313
g37
(imyEvolve
Tree
p314
(dp315
g7
I0
sg20
I00
sbsg7
I1
sg24
I01
sg25
g42
sbsg24
I00
sg25
g33
sbsg7
I3
sg24
I01
sg25
g72
sbsg24
I00
sg25
g26
sbsg24
I00
sg25
g33
sba(imyEvolve
Tree
p316
(dp317
g37
(imyEvolve
Tree
p318
(dp319
g7
I2
sg8
(imyEvolve
Tree
p320
(dp321
g7
I1
sg8
(imyEvolve
Tree
p322
(dp323
g7
I0
sg20
I00
sbsg21
(imyEvolve
Tree
p324
(dp325
g7
I0
sg20
I00
sbsg24
I00
sg25
g34
sbsg21
(imyEvolve
Tree
p326
(dp327
g7
I1
sg8
(imyEvolve
Tree
p328
(dp329
g7
I0
sg20
I00
sbsg21
(imyEvolve
Tree
p330
(dp331
g7
I0
sg19
F2.760143067046698
sg20
I01
sbsg24
I00
sg25
g34
sbsg24
I00
sg25
g34
sbsg7
I3
sg24
I01
sg25
g72
sba(imyEvolve
Tree
p332
(dp333
g37
(imyEvolve
Tree
p334
(dp335
g37
(imyEvolve
Tree
p336
(dp337
g37
(imyEvolve
Tree
p338
(dp339
g7
I2
sg8
(imyEvolve
Tree
p340
(dp341
g37
(imyEvolve
Tree
p342
(dp343
g7
I0
sg20
I00
sbsg7
I1
sg24
I01
sg25
g43
sbsg21
(imyEvolve
Tree
p344
(dp345
g37
(imyEvolve
Tree
p346
(dp347
g7
I0
sg20
I00
sbsg7
I1
sg24
I01
sg25
g72
sbsg24
I00
sg25
g26
sbsg7
I3
sg24
I01
sg25
g72
sbsg7
I4
sg24
I01
sg25
g42
sbsg7
I5
sg24
I01
sg25
g42
sba(imyEvolve
Tree
p348
(dp349
g37
(imyEvolve
Tree
p350
(dp351
g7
I2
sg8
(imyEvolve
Tree
p352
(dp353
g7
I1
sg8
(imyEvolve
Tree
p354
(dp355
g7
I0
sg20
I00
sbsg21
(imyEvolve
Tree
p356
(dp357
g7
I0
sg19
F-1.013051985248886
sg20
I01
sbsg24
I00
sg25
g33
sbsg21
(imyEvolve
Tree
p358
(dp359
g37
(imyEvolve
Tree
p360
(dp361
g7
I0
sg19
F-0.6648523892484359
sg20
I01
sbsg7
I1
sg24
I01
sg25
g72
sbsg24
I00
sg25
g34
sbsg7
I3
sg24
I01
sg25
g101
sba(imyEvolve
Tree
p362
(dp363
g37
(imyEvolve
Tree
p364
(dp365
g7
I4
sg8
(imyEvolve
Tree
p366
(dp367
g37
(imyEvolve
Tree
p368
(dp369
g37
(imyEvolve
Tree
p370
(dp371
g37
(imyEvolve
Tree
p372
(dp373
g7
I0
sg19
F3.252375622341143
sg20
I01
sbsg7
I1
sg24
I01
sg25
g43
sbsg7
I2
sg24
I01
sg25
g43
sbsg7
I3
sg24
I01
sg25
g42
sbsg21
(imyEvolve
Tree
p374
(dp375
g37
(imyEvolve
Tree
p376
(dp377
g7
I2
sg8
(imyEvolve
Tree
p378
(dp379
g7
I1
sg8
(imyEvolve
Tree
p380
(dp381
g7
I0
sg19
F1.4285926167771903
sg20
I01
sbsg21
(imyEvolve
Tree
p382
(dp383
g7
I0
sg20
I00
sbsg24
I00
sg25
g26
sbsg21
(imyEvolve
Tree
p384
(dp385
g7
I1
sg8
(imyEvolve
Tree
p386
(dp387
g7
I0
sg19
F-1.245813792056655
sg20
I01
sbsg21
(imyEvolve
Tree
p388
(dp389
g7
I0
sg20
I00
sbsg24
I00
sg25
g26
sbsg24
I00
sg25
g34
sbsg7
I3
sg24
I01
sg25
g101
sbsg24
I00
sg25
g34
sbsg7
I5
sg24
I01
sg25
g43
sba(imyEvolve
Tree
p390
(dp391
g7
I2
sg8
(imyEvolve
Tree
p392
(dp393
g37
(imyEvolve
Tree
p394
(dp395
g7
I0
sg20
I00
sbsg7
I1
sg24
I01
sg25
g42
sbsg21
(imyEvolve
Tree
p396
(dp397
g37
(imyEvolve
Tree
p398
(dp399
g7
I0
sg20
I00
sbsg7
I1
sg24
I01
sg25
g42
sbsg24
I00
sg25
g34
sba(imyEvolve
Tree
p400
(dp401
g7
I4
sg8
(imyEvolve
Tree
p402
(dp403
g37
(imyEvolve
Tree
p404
(dp405
g37
(imyEvolve
Tree
p406
(dp407
g37
(imyEvolve
Tree
p408
(dp409
g7
I0
sg19
F-0.8412202072129471
sg20
I01
sbsg7
I1
sg24
I01
sg25
g101
sbsg7
I2
sg24
I01
sg25
g72
sbsg7
I3
sg24
I01
sg25
g43
sbsg21
(imyEvolve
Tree
p410
(dp411
g37
(imyEvolve
Tree
p412
(dp413
g7
I2
sg8
(imyEvolve
Tree
p414
(dp415
g7
I1
sg8
(imyEvolve
Tree
p416
(dp417
g7
I0
sg20
I00
sbsg21
(imyEvolve
Tree
p418
(dp419
g7
I0
sg19
F-4.85619475681342
sg20
I01
sbsg24
I00
sg25
g26
sbsg21
(imyEvolve
Tree
p420
(dp421
g37
(imyEvolve
Tree
p422
(dp423
g7
I0
sg20
I00
sbsg7
I1
sg24
I01
sg25
g101
sbsg24
I00
sg25
g33
sbsg7
I3
sg24
I01
sg25
g42
sbsg24
I00
sg25
g34
sba(imyEvolve
Tree
p424
(dp425
g7
I4
sg8
(imyEvolve
Tree
p426
(dp427
g7
I3
sg8
(imyEvolve
Tree
p428
(dp429
g7
I2
sg8
(imyEvolve
Tree
p430
(dp431
g7
I1
sg8
(imyEvolve
Tree
p432
(dp433
g7
I0
sg20
I00
sbsg21
(imyEvolve
Tree
p434
(dp435
g7
I0
sg20
I00
sbsg24
I00
sg25
g33
sbsg21
(imyEvolve
Tree
p436
(dp437
g7
I1
sg8
(imyEvolve
Tree
p438
(dp439
g7
I0
sg20
I00
sbsg21
(imyEvolve
Tree
p440
(dp441
g7
I0
sg19
F-4.922303006550839
sg20
I01
sbsg24
I00
sg25
g33
sbsg24
I00
sg25
g26
sbsg21
(imyEvolve
Tree
p442
(dp443
g37
(imyEvolve
Tree
p444
(dp445
g7
I1
sg8
(imyEvolve
Tree
p446
(dp447
g7
I0
sg19
F-4.5774579255348975
sg20
I01
sbsg21
(imyEvolve
Tree
p448
(dp449
g7
I0
sg20
I00
sbsg24
I00
sg25
g33
sbsg7
I2
sg24
I01
sg25
g101
sbsg24
I00
sg25
g34
sbsg21
(imyEvolve
Tree
p450
(dp451
g37
(imyEvolve
Tree
p452
(dp453
g7
I2
sg8
(imyEvolve
Tree
p454
(dp455
g37
(imyEvolve
Tree
p456
(dp457
g7
I0
sg19
F4.425603882684468
sg20
I01
sbsg7
I1
sg24
I01
sg25
g101
sbsg21
(imyEvolve
Tree
p458
(dp459
g37
(imyEvolve
Tree
p460
(dp461
g7
I0
sg20
I00
sbsg7
I1
sg24
I01
sg25
g42
sbsg24
I00
sg25
g34
sbsg7
I3
sg24
I01
sg25
g72
sbsg24
I00
sg25
g34
sba(imyEvolve
Tree
p462
(dp463
g37
(imyEvolve
Tree
p464
(dp465
g37
(imyEvolve
Tree
p466
(dp467
g7
I0
sg20
I00
sbsg7
I1
sg24
I01
sg25
g101
sbsg7
I2
sg24
I01
sg25
g42
sba(imyEvolve
Tree
p468
(dp469
g37
(imyEvolve
Tree
p470
(dp471
g37
(imyEvolve
Tree
p472
(dp473
g37
(imyEvolve
Tree
p474
(dp475
g7
I1
sg8
(imyEvolve
Tree
p476
(dp477
g7
I0
sg20
I00
sbsg21
(imyEvolve
Tree
p478
(dp479
g7
I0
sg20
I00
sbsg24
I00
sg25
g34
sbsg7
I2
sg24
I01
sg25
g72
sbsg7
I3
sg24
I01
sg25
g42
sbsg7
I4
sg24
I01
sg25
g42
sba(imyEvolve
Tree
p480
(dp481
g37
(imyEvolve
Tree
p482
(dp483
g7
I2
sg8
(imyEvolve
Tree
p484
(dp485
g37
(imyEvolve
Tree
p486
(dp487
g7
I0
sg20
I00
sbsg7
I1
sg24
I01
sg25
g42
sbsg21
(imyEvolve
Tree
p488
(dp489
g7
I1
sg8
(imyEvolve
Tree
p490
(dp491
g7
I0
sg19
F-4.49001776524865
sg20
I01
sbsg21
(imyEvolve
Tree
p492
(dp493
g7
I0
sg20
I00
sbsg24
I00
sg25
g34
sbsg24
I00
sg25
g33
sbsg7
I3
sg24
I01
sg25
g72
sbaa(lp494
(imyEvolve
Tree
p495
(dp496
g37
(imyEvolve
Tree
p497
(dp498
g7
I4
sg8
(imyEvolve
Tree
p499
(dp500
g7
I3
sg8
(imyEvolve
Tree
p501
(dp502
g37
(imyEvolve
Tree
p503
(dp504
g37
(imyEvolve
Tree
p505
(dp506
g7
I0
sg19
F2.0182342374004483
sg20
I01
sbsg7
I1
sg24
I01
sg25
g101
sbsg7
I2
sg24
I01
sg25
g43
sbsg21
(imyEvolve
Tree
p507
(dp508
g7
I2
sg8
(imyEvolve
Tree
p509
(dp510
g37
(imyEvolve
Tree
p511
(dp512
g7
I0
sg20
I00
sbsg7
I1
sg24
I01
sg25
g43
sbsg21
(imyEvolve
Tree
p513
(dp514
g7
I1
sg8
(imyEvolve
Tree
p515
(dp516
g7
I0
sg20
I00
sbsg21
(imyEvolve
Tree
p517
(dp518
g7
I0
sg19
F4.415275160680753
sg20
I01
sbsg24
I00
sg25
g26
sbsg24
I00
sg25
g34
sbsg24
I00
sg25
g34
sbsg21
(imyEvolve
Tree
p519
(dp520
g7
I3
sg8
(imyEvolve
Tree
p521
(dp522
g7
I2
sg8
(imyEvolve
Tree
p523
(dp524
g7
I1
sg8
(imyEvolve
Tree
p525
(dp526
g7
I0
sg19
F-1.2906809178228142
sg20
I01
sbsg21
(imyEvolve
Tree
p527
(dp528
g7
I0
sg20
I00
sbsg24
I00
sg25
g34
sbsg21
(imyEvolve
Tree
p529
(dp530
g37
(imyEvolve
Tree
p531
(dp532
g7
I0
sg20
I00
sbsg7
I1
sg24
I01
sg25
g42
sbsg24
I00
sg25
g34
sbsg21
(imyEvolve
Tree
p533
(dp534
g7
I2
sg8
(imyEvolve
Tree
p535
(dp536
g37
(imyEvolve
Tree
p537
(dp538
g7
I0
sg19
F0.8507755810544211
sg20
I01
sbsg7
I1
sg24
I01
sg25
g101
sbsg21
(imyEvolve
Tree
p539
(dp540
g37
(imyEvolve
Tree
p541
(dp542
g7
I0
sg19
F-1.9223578193747528
sg20
I01
sbsg7
I1
sg24
I01
sg25
g72
sbsg24
I00
sg25
g26
sbsg24
I00
sg25
g33
sbsg24
I00
sg25
g26
sbsg7
I5
sg24
I01
sg25
g43
sba(imyEvolve
Tree
p543
(dp544
g7
I3
sg8
(imyEvolve
Tree
p545
(dp546
g37
(imyEvolve
Tree
p547
(dp548
g7
I1
sg8
(imyEvolve
Tree
p549
(dp550
g7
I0
sg20
I00
sbsg21
(imyEvolve
Tree
p551
(dp552
g7
I0
sg19
F-3.055155722624071
sg20
I01
sbsg24
I00
sg25
g33
sbsg7
I2
sg24
I01
sg25
g101
sbsg21
(imyEvolve
Tree
p553
(dp554
g7
I2
sg8
(imyEvolve
Tree
p555
(dp556
g37
(imyEvolve
Tree
p557
(dp558
g7
I0
sg19
F-2.618801904507524
sg20
I01
sbsg7
I1
sg24
I01
sg25
g72
sbsg21
(imyEvolve
Tree
p559
(dp560
g7
I1
sg8
(imyEvolve
Tree
p561
(dp562
g7
I0
sg20
I00
sbsg21
(imyEvolve
Tree
p563
(dp564
g7
I0
sg20
I00
sbsg24
I00
sg25
g33
sbsg24
I00
sg25
g34
sbsg24
I00
sg25
g34
sba(imyEvolve
Tree
p565
(dp566
g37
(imyEvolve
Tree
p567
(dp568
g7
I3
sg8
(imyEvolve
Tree
p569
(dp570
g7
I2
sg8
(imyEvolve
Tree
p571
(dp572
g37
(imyEvolve
Tree
p573
(dp574
g7
I0
sg19
F1.5978030908301877
sg20
I01
sbsg7
I1
sg24
I01
sg25
g72
sbsg21
(imyEvolve
Tree
p575
(dp576
g7
I1
sg8
(imyEvolve
Tree
p577
(dp578
g7
I0
sg19
F-0.19781909221553384
sg20
I01
sbsg21
(imyEvolve
Tree
p579
(dp580
g7
I0
sg19
F-4.964731652022895
sg20
I01
sbsg24
I00
sg25
g26
sbsg24
I00
sg25
g33
sbsg21
(imyEvolve
Tree
p581
(dp582
g37
(imyEvolve
Tree
p583
(dp584
g7
I1
sg8
(imyEvolve
Tree
p585
(dp586
g7
I0
sg20
I00
sbsg21
(imyEvolve
Tree
p587
(dp588
g7
I0
sg19
F-1.3069077596170455
sg20
I01
sbsg24
I00
sg25
g33
sbsg7
I2
sg24
I01
sg25
g42
sbsg24
I00
sg25
g33
sbsg7
I4
sg24
I01
sg25
g43
sba(imyEvolve
Tree
p589
(dp590
g7
I3
sg8
(imyEvolve
Tree
p591
(dp592
g7
I2
sg8
(imyEvolve
Tree
p593
(dp594
g37
(imyEvolve
Tree
p595
(dp596
g7
I0
sg19
F0.03815227942077204
sg20
I01
sbsg7
I1
sg24
I01
sg25
g101
sbsg21
(imyEvolve
Tree
p597
(dp598
g7
I1
sg8
(imyEvolve
Tree
p599
(dp600
g7
I0
sg19
F0.8828711706030932
sg20
I01
sbsg21
(imyEvolve
Tree
p601
(dp602
g7
I0
sg20
I00
sbsg24
I00
sg25
g26
sbsg24
I00
sg25
g34
sbsg21
(imyEvolve
Tree
p603
(dp604
g37
(imyEvolve
Tree
p605
(dp606
g7
I1
sg8
(imyEvolve
Tree
p607
(dp608
g7
I0
sg20
I00
sbsg21
(imyEvolve
Tree
p609
(dp610
g7
I0
sg20
I00
sbsg24
I00
sg25
g26
sbsg7
I2
sg24
I01
sg25
g72
sbsg24
I00
sg25
g26
sba(imyEvolve
Tree
p611
(dp612
g7
I4
sg8
(imyEvolve
Tree
p613
(dp614
g37
(imyEvolve
Tree
p615
(dp616
g7
I2
sg8
(imyEvolve
Tree
p617
(dp618
g7
I1
sg8
(imyEvolve
Tree
p619
(dp620
g7
I0
sg20
I00
sbsg21
(imyEvolve
Tree
p621
(dp622
g7
I0
sg20
I00
sbsg24
I00
sg25
g34
sbsg21
(imyEvolve
Tree
p623
(dp624
g37
(imyEvolve
Tree
p625
(dp626
g7
I0
sg19
F-4.071001770583244
sg20
I01
sbsg7
I1
sg24
I01
sg25
g72
sbsg24
I00
sg25
g34
sbsg7
I3
sg24
I01
sg25
g72
sbsg21
(imyEvolve
Tree
p627
(dp628
g37
(imyEvolve
Tree
p629
(dp630
g37
(imyEvolve
Tree
p631
(dp632
g37
(imyEvolve
Tree
p633
(dp634
g7
I0
sg20
I00
sbsg7
I1
sg24
I01
sg25
g72
sbsg7
I2
sg24
I01
sg25
g42
sbsg7
I3
sg24
I01
sg25
g43
sbsg24
I00
sg25
g26
sba(imyEvolve
Tree
p635
(dp636
g37
(imyEvolve
Tree
p637
(dp638
g37
(imyEvolve
Tree
p639
(dp640
g7
I0
sg19
F0.8681419768613443
sg20
I01
sbsg7
I1
sg24
I01
sg25
g72
sbsg7
I2
sg24
I01
sg25
g43
sba(imyEvolve
Tree
p641
(dp642
g37
(imyEvolve
Tree
p643
(dp644
g7
I4
sg8
(imyEvolve
Tree
p645
(dp646
g7
I3
sg8
(imyEvolve
Tree
p647
(dp648
g7
I2
sg8
(imyEvolve
Tree
p649
(dp650
g7
I1
sg8
(imyEvolve
Tree
p651
(dp652
g7
I0
sg20
I00
sbsg21
(imyEvolve
Tree
p653
(dp654
g7
I0
sg19
F3.9034100174307937
sg20
I01
sbsg24
I00
sg25
g33
sbsg21
(imyEvolve
Tree
p655
(dp656
g7
I1
sg8
(imyEvolve
Tree
p657
(dp658
g7
I0
sg19
F-3.612118251367277
sg20
I01
sbsg21
(imyEvolve
Tree
p659
(dp660
g7
I0
sg20
I00
sbsg24
I00
sg25
g26
sbsg24
I00
sg25
g34
sbsg21
(imyEvolve
Tree
p661
(dp662
g37
(imyEvolve
Tree
p663
(dp664
g7
I1
sg8
(imyEvolve
Tree
p665
(dp666
g7
I0
sg19
F-0.06428794745297495
sg20
I01
sbsg21
(imyEvolve
Tree
p667
(dp668
g7
I0
sg20
I00
sbsg24
I00
sg25
g33
sbsg7
I2
sg24
I01
sg25
g101
sbsg24
I00
sg25
g26
sbsg21
(imyEvolve
Tree
p669
(dp670
g37
(imyEvolve
Tree
p671
(dp672
g7
I2
sg8
(imyEvolve
Tree
p673
(dp674
g37
(imyEvolve
Tree
p675
(dp676
g7
I0
sg20
I00
sbsg7
I1
sg24
I01
sg25
g42
sbsg21
(imyEvolve
Tree
p677
(dp678
g37
(imyEvolve
Tree
p679
(dp680
g7
I0
sg19
F3.059550097505422
sg20
I01
sbsg7
I1
sg24
I01
sg25
g43
sbsg24
I00
sg25
g33
sbsg7
I3
sg24
I01
sg25
g101
sbsg24
I00
sg25
g26
sbsg7
I5
sg24
I01
sg25
g101
sba(imyEvolve
Tree
p681
(dp682
g7
I5
sg8
(imyEvolve
Tree
p683
(dp684
g7
I4
sg8
(imyEvolve
Tree
p685
(dp686
g7
I3
sg8
(imyEvolve
Tree
p687
(dp688
g37
(imyEvolve
Tree
p689
(dp690
g37
(imyEvolve
Tree
p691
(dp692
g7
I0
sg20
I00
sbsg7
I1
sg24
I01
sg25
g72
sbsg7
I2
sg24
I01
sg25
g42
sbsg21
(imyEvolve
Tree
p693
(dp694
g37
(imyEvolve
Tree
p695
(dp696
g37
(imyEvolve
Tree
p697
(dp698
g7
I0
sg20
I00
sbsg7
I1
sg24
I01
sg25
g43
sbsg7
I2
sg24
I01
sg25
g101
sbsg24
I00
sg25
g34
sbsg21
(imyEvolve
Tree
p699
(dp700
g37
(imyEvolve
Tree
p701
(dp702
g7
I2
sg8
(imyEvolve
Tree
p703
(dp704
g37
(imyEvolve
Tree
p705
(dp706
g7
I0
sg20
I00
sbsg7
I1
sg24
I01
sg25
g101
sbsg21
(imyEvolve
Tree
p707
(dp708
g7
I1
sg8
(imyEvolve
Tree
p709
(dp710
g7
I0
sg19
F-1.12641336594137
sg20
I01
sbsg21
(imyEvolve
Tree
p711
(dp712
g7
I0
sg20
I00
sbsg24
I00
sg25
g34
sbsg24
I00
sg25
g26
sbsg7
I3
sg24
I01
sg25
g101
sbsg24
I00
sg25
g34
sbsg21
(imyEvolve
Tree
p713
(dp714
g37
(imyEvolve
Tree
p715
(dp716
g7
I3
sg8
(imyEvolve
Tree
p717
(dp718
g7
I2
sg8
(imyEvolve
Tree
p719
(dp720
g7
I1
sg8
(imyEvolve
Tree
p721
(dp722
g7
I0
sg19
F1.7202886013133156
sg20
I01
sbsg21
(imyEvolve
Tree
p723
(dp724
g7
I0
sg19
F0.16161221126003955
sg20
I01
sbsg24
I00
sg25
g26
sbsg21
(imyEvolve
Tree
p725
(dp726
g37
(imyEvolve
Tree
p727
(dp728
g7
I0
sg20
I00
sbsg7
I1
sg24
I01
sg25
g43
sbsg24
I00
sg25
g26
sbsg21
(imyEvolve
Tree
p729
(dp730
g37
(imyEvolve
Tree
p731
(dp732
g37
(imyEvolve
Tree
p733
(dp734
g7
I0
sg19
F0.3498826618093194
sg20
I01
sbsg7
I1
sg24
I01
sg25
g43
sbsg7
I2
sg24
I01
sg25
g72
sbsg24
I00
sg25
g26
sbsg7
I4
sg24
I01
sg25
g101
sbsg24
I00
sg25
g33
sbaa(lp735
(imyEvolve
Tree
p736
(dp737
g7
I4
sg8
(imyEvolve
Tree
p738
(dp739
g37
(imyEvolve
Tree
p740
(dp741
g7
I2
sg8
(imyEvolve
Tree
p742
(dp743
g37
(imyEvolve
Tree
p744
(dp745
g7
I0
sg19
F0.7350441078114542
sg20
I01
sbsg7
I1
sg24
I01
sg25
g101
sbsg21
(imyEvolve
Tree
p746
(dp747
g7
I1
sg8
(imyEvolve
Tree
p748
(dp749
g7
I0
sg20
I00
sbsg21
(imyEvolve
Tree
p750
(dp751
g7
I0
sg19
F1.784462938192246
sg20
I01
sbsg24
I00
sg25
g26
sbsg24
I00
sg25
g26
sbsg7
I3
sg24
I01
sg25
g42
sbsg21
(imyEvolve
Tree
p752
(dp753
g7
I3
sg8
(imyEvolve
Tree
p754
(dp755
g7
I2
sg8
(imyEvolve
Tree
p756
(dp757
g7
I1
sg8
(imyEvolve
Tree
p758
(dp759
g7
I0
sg19
F1.6570274442917903
sg20
I01
sbsg21
(imyEvolve
Tree
p760
(dp761
g7
I0
sg20
I00
sbsg24
I00
sg25
g34
sbsg21
(imyEvolve
Tree
p762
(dp763
g7
I1
sg8
(imyEvolve
Tree
p764
(dp765
g7
I0
sg20
I00
sbsg21
(imyEvolve
Tree
p766
(dp767
g7
I0
sg19
F-4.8554297926173255
sg20
I01
sbsg24
I00
sg25
g33
sbsg24
I00
sg25
g34
sbsg21
(imyEvolve
Tree
p768
(dp769
g37
(imyEvolve
Tree
p770
(dp771
g7
I1
sg8
(imyEvolve
Tree
p772
(dp773
g7
I0
sg20
I00
sbsg21
(imyEvolve
Tree
p774
(dp775
g7
I0
sg19
F-3.109220025937529
sg20
I01
sbsg24
I00
sg25
g33
sbsg7
I2
sg24
I01
sg25
g72
sbsg24
I00
sg25
g26
sbsg24
I00
sg25
g34
sba(imyEvolve
Tree
p776
(dp777
g7
I4
sg8
(imyEvolve
Tree
p778
(dp779
g7
I3
sg8
(imyEvolve
Tree
p780
(dp781
g37
(imyEvolve
Tree
p782
(dp783
g37
(imyEvolve
Tree
p784
(dp785
g7
I0
sg20
I00
sbsg7
I1
sg24
I01
sg25
g43
sbsg7
I2
sg24
I01
sg25
g42
sbsg21
(imyEvolve
Tree
p786
(dp787
g37
(imyEvolve
Tree
p788
(dp789
g7
I1
sg8
(imyEvolve
Tree
p790
(dp791
g7
I0
sg19
F-4.242427815487075
sg20
I01
sbsg21
(imyEvolve
Tree
p792
(dp793
g7
I0
sg19
F2.852305022535946
sg20
I01
sbsg24
I00
sg25
g33
sbsg7
I2
sg24
I01
sg25
g42
sbsg24
I00
sg25
g33
sbsg21
(imyEvolve
Tree
p794
(dp795
g7
I3
sg8
(imyEvolve
Tree
p796
(dp797
g37
(imyEvolve
Tree
p798
(dp799
g37
(imyEvolve
Tree
p800
(dp801
g7
I0
sg19
F2.240794594674278
sg20
I01
sbsg7
I1
sg24
I01
sg25
g101
sbsg7
I2
sg24
I01
sg25
g72
sbsg21
(imyEvolve
Tree
p802
(dp803
g7
I2
sg8
(imyEvolve
Tree
p804
(dp805
g37
(imyEvolve
Tree
p806
(dp807
g7
I0
sg20
I00
sbsg7
I1
sg24
I01
sg25
g43
sbsg21
(imyEvolve
Tree
p808
(dp809
g7
I1
sg8
(imyEvolve
Tree
p810
(dp811
g7
I0
sg20
I00
sbsg21
(imyEvolve
Tree
p812
(dp813
g7
I0
sg20
I00
sbsg24
I00
sg25
g33
sbsg24
I00
sg25
g26
sbsg24
I00
sg25
g26
sbsg24
I00
sg25
g26
sba(imyEvolve
Tree
p814
(dp815
g37
(imyEvolve
Tree
p816
(dp817
g7
I1
sg8
(imyEvolve
Tree
p818
(dp819
g7
I0
sg19
F2.6428301508568453
sg20
I01
sbsg21
(imyEvolve
Tree
p820
(dp821
g7
I0
sg19
F4.386902834230025
sg20
I01
sbsg24
I00
sg25
g33
sbsg7
I2
sg24
I01
sg25
g72
sba(imyEvolve
Tree
p822
(dp823
g7
I2
sg8
(imyEvolve
Tree
p824
(dp825
g7
I1
sg8
(imyEvolve
Tree
p826
(dp827
g7
I0
sg20
I00
sbsg21
(imyEvolve
Tree
p828
(dp829
g7
I0
sg20
I00
sbsg24
I00
sg25
g34
sbsg21
(imyEvolve
Tree
p830
(dp831
g7
I1
sg8
(imyEvolve
Tree
p832
(dp833
g7
I0
sg20
I00
sbsg21
(imyEvolve
Tree
p834
(dp835
g7
I0
sg20
I00
sbsg24
I00
sg25
g33
sbsg24
I00
sg25
g26
sba(imyEvolve
Tree
p836
(dp837
g37
(imyEvolve
Tree
p838
(dp839
g7
I1
sg8
(imyEvolve
Tree
p840
(dp841
g7
I0
sg19
F2.302669086887752
sg20
I01
sbsg21
(imyEvolve
Tree
p842
(dp843
g7
I0
sg19
F-3.0514155797014286
sg20
I01
sbsg24
I00
sg25
g26
sbsg7
I2
sg24
I01
sg25
g43
sba(imyEvolve
Tree
p844
(dp845
g7
I5
sg8
(imyEvolve
Tree
p846
(dp847
g37
(imyEvolve
Tree
p848
(dp849
g7
I3
sg8
(imyEvolve
Tree
p850
(dp851
g37
(imyEvolve
Tree
p852
(dp853
g7
I1
sg8
(imyEvolve
Tree
p854
(dp855
g7
I0
sg19
F-2.2196337835610045
sg20
I01
sbsg21
(imyEvolve
Tree
p856
(dp857
g7
I0
sg19
F4.055801478614553
sg20
I01
sbsg24
I00
sg25
g34
sbsg7
I2
sg24
I01
sg25
g43
sbsg21
(imyEvolve
Tree
p858
(dp859
g37
(imyEvolve
Tree
p860
(dp861
g7
I1
sg8
(imyEvolve
Tree
p862
(dp863
g7
I0
sg20
I00
sbsg21
(imyEvolve
Tree
p864
(dp865
g7
I0
sg20
I00
sbsg24
I00
sg25
g33
sbsg7
I2
sg24
I01
sg25
g101
sbsg24
I00
sg25
g34
sbsg7
I4
sg24
I01
sg25
g101
sbsg21
(imyEvolve
Tree
p866
(dp867
g37
(imyEvolve
Tree
p868
(dp869
g7
I3
sg8
(imyEvolve
Tree
p870
(dp871
g7
I2
sg8
(imyEvolve
Tree
p872
(dp873
g37
(imyEvolve
Tree
p874
(dp875
g7
I0
sg20
I00
sbsg7
I1
sg24
I01
sg25
g43
sbsg21
(imyEvolve
Tree
p876
(dp877
g37
(imyEvolve
Tree
p878
(dp879
g7
I0
sg20
I00
sbsg7
I1
sg24
I01
sg25
g42
sbsg24
I00
sg25
g33
sbsg21
(imyEvolve
Tree
p880
(dp881
g37
(imyEvolve
Tree
p882
(dp883
g7
I1
sg8
(imyEvolve
Tree
p884
(dp885
g7
I0
sg20
I00
sbsg21
(imyEvolve
Tree
p886
(dp887
g7
I0
sg20
I00
sbsg24
I00
sg25
g34
sbsg7
I2
sg24
I01
sg25
g42
sbsg24
I00
sg25
g34
sbsg7
I4
sg24
I01
sg25
g43
sbsg24
I00
sg25
g34
sba(imyEvolve
Tree
p888
(dp889
g7
I2
sg8
(imyEvolve
Tree
p890
(dp891
g7
I1
sg8
(imyEvolve
Tree
p892
(dp893
g7
I0
sg19
F4.7283399733144655
sg20
I01
sbsg21
(imyEvolve
Tree
p894
(dp895
g7
I0
sg20
I00
sbsg24
I00
sg25
g33
sbsg21
(imyEvolve
Tree
p896
(dp897
g7
I1
sg8
(imyEvolve
Tree
p898
(dp899
g7
I0
sg20
I00
sbsg21
(imyEvolve
Tree
p900
(dp901
g7
I0
sg19
F3.0481400832552232
sg20
I01
sbsg24
I00
sg25
g34
sbsg24
I00
sg25
g34
sba(imyEvolve
Tree
p902
(dp903
g7
I5
sg8
(imyEvolve
Tree
p904
(dp905
g37
(imyEvolve
Tree
p906
(dp907
g37
(imyEvolve
Tree
p908
(dp909
g37
(imyEvolve
Tree
p910
(dp911
g37
(imyEvolve
Tree
p912
(dp913
g7
I0
sg20
I00
sbsg7
I1
sg24
I01
sg25
g72
sbsg7
I2
sg24
I01
sg25
g101
sbsg7
I3
sg24
I01
sg25
g42
sbsg7
I4
sg24
I01
sg25
g43
sbsg21
(imyEvolve
Tree
p914
(dp915
g7
I4
sg8
(imyEvolve
Tree
p916
(dp917
g7
I3
sg8
(imyEvolve
Tree
p918
(dp919
g7
I2
sg8
(imyEvolve
Tree
p920
(dp921
g7
I1
sg8
(imyEvolve
Tree
p922
(dp923
g7
I0
sg19
F4.967843474305543
sg20
I01
sbsg21
(imyEvolve
Tree
p924
(dp925
g7
I0
sg19
F2.2132469299782453
sg20
I01
sbsg24
I00
sg25
g26
sbsg21
(imyEvolve
Tree
p926
(dp927
g7
I1
sg8
(imyEvolve
Tree
p928
(dp929
g7
I0
sg19
F4.216702600541634
sg20
I01
sbsg21
(imyEvolve
Tree
p930
(dp931
g7
I0
sg20
I00
sbsg24
I00
sg25
g26
sbsg24
I00
sg25
g33
sbsg21
(imyEvolve
Tree
p932
(dp933
g37
(imyEvolve
Tree
p934
(dp935
g7
I1
sg8
(imyEvolve
Tree
p936
(dp937
g7
I0
sg20
I00
sbsg21
(imyEvolve
Tree
p938
(dp939
g7
I0
sg20
I00
sbsg24
I00
sg25
g34
sbsg7
I2
sg24
I01
sg25
g72
sbsg24
I00
sg25
g26
sbsg21
(imyEvolve
Tree
p940
(dp941
g37
(imyEvolve
Tree
p942
(dp943
g7
I2
sg8
(imyEvolve
Tree
p944
(dp945
g37
(imyEvolve
Tree
p946
(dp947
g7
I0
sg20
I00
sbsg7
I1
sg24
I01
sg25
g42
sbsg21
(imyEvolve
Tree
p948
(dp949
g37
(imyEvolve
Tree
p950
(dp951
g7
I0
sg20
I00
sbsg7
I1
sg24
I01
sg25
g42
sbsg24
I00
sg25
g34
sbsg7
I3
sg24
I01
sg25
g43
sbsg24
I00
sg25
g33
sbsg24
I00
sg25
g34
sba(imyEvolve
Tree
p952
(dp953
g37
(imyEvolve
Tree
p954
(dp955
g37
(imyEvolve
Tree
p956
(dp957
g7
I0
sg20
I00
sbsg7
I1
sg24
I01
sg25
g43
sbsg7
I2
sg24
I01
sg25
g101
sba(imyEvolve
Tree
p958
(dp959
g7
I2
sg8
(imyEvolve
Tree
p960
(dp961
g37
(imyEvolve
Tree
p962
(dp963
g7
I0
sg19
F3.6793324954762525
sg20
I01
sbsg7
I1
sg24
I01
sg25
g72
sbsg21
(imyEvolve
Tree
p964
(dp965
g37
(imyEvolve
Tree
p966
(dp967
g7
I0
sg19
F0.9499054791296384
sg20
I01
sbsg7
I1
sg24
I01
sg25
g42
sbsg24
I00
sg25
g34
sba(imyEvolve
Tree
p968
(dp969
g37
(imyEvolve
Tree
p970
(dp971
g37
(imyEvolve
Tree
p972
(dp973
g7
I2
sg8
(imyEvolve
Tree
p974
(dp975
g7
I1
sg8
(imyEvolve
Tree
p976
(dp977
g7
I0
sg19
F2.37266420077186
sg20
I01
sbsg21
(imyEvolve
Tree
p978
(dp979
g7
I0
sg20
I00
sbsg24
I00
sg25
g34
sbsg21
(imyEvolve
Tree
p980
(dp981
g37
(imyEvolve
Tree
p982
(dp983
g7
I0
sg20
I00
sbsg7
I1
sg24
I01
sg25
g72
sbsg24
I00
sg25
g34
sbsg7
I3
sg24
I01
sg25
g101
sbsg7
I4
sg24
I01
sg25
g43
sba(imyEvolve
Tree
p984
(dp985
g7
I3
sg8
(imyEvolve
Tree
p986
(dp987
g7
I2
sg8
(imyEvolve
Tree
p988
(dp989
g37
(imyEvolve
Tree
p990
(dp991
g7
I0
sg20
I00
sbsg7
I1
sg24
I01
sg25
g72
sbsg21
(imyEvolve
Tree
p992
(dp993
g7
I1
sg8
(imyEvolve
Tree
p994
(dp995
g7
I0
sg19
F3.851811479818357
sg20
I01
sbsg21
(imyEvolve
Tree
p996
(dp997
g7
I0
sg20
I00
sbsg24
I00
sg25
g33
sbsg24
I00
sg25
g34
sbsg21
(imyEvolve
Tree
p998
(dp999
g7
I2
sg8
(imyEvolve
Tree
p1000
(dp1001
g37
(imyEvolve
Tree
p1002
(dp1003
g7
I0
sg19
F-1.6201572874058634
sg20
I01
sbsg7
I1
sg24
I01
sg25
g101
sbsg21
(imyEvolve
Tree
p1004
(dp1005
g7
I1
sg8
(imyEvolve
Tree
p1006
(dp1007
g7
I0
sg19
F3.3931808491719266
sg20
I01
sbsg21
(imyEvolve
Tree
p1008
(dp1009
g7
I0
sg20
I00
sbsg24
I00
sg25
g26
sbsg24
I00
sg25
g33
sbsg24
I00
sg25
g33
sba(imyEvolve
Tree
p1010
(dp1011
g7
I5
sg8
(imyEvolve
Tree
p1012
(dp1013
g7
I4
sg8
(imyEvolve
Tree
p1014
(dp1015
g7
I3
sg8
(imyEvolve
Tree
p1016
(dp1017
g37
(imyEvolve
Tree
p1018
(dp1019
g37
(imyEvolve
Tree
p1020
(dp1021
g7
I0
sg19
F4.175338767044197
sg20
I01
sbsg7
I1
sg24
I01
sg25
g101
sbsg7
I2
sg24
I01
sg25
g43
sbsg21
(imyEvolve
Tree
p1022
(dp1023
g7
I2
sg8
(imyEvolve
Tree
p1024
(dp1025
g37
(imyEvolve
Tree
p1026
(dp1027
g7
I0
sg20
I00
sbsg7
I1
sg24
I01
sg25
g72
sbsg21
(imyEvolve
Tree
p1028
(dp1029
g7
I1
sg8
(imyEvolve
Tree
p1030
(dp1031
g7
I0
sg19
F-1.446453993368284
sg20
I01
sbsg21
(imyEvolve
Tree
p1032
(dp1033
g7
I0
sg20
I00
sbsg24
I00
sg25
g33
sbsg24
I00
sg25
g34
sbsg24
I00
sg25
g33
sbsg21
(imyEvolve
Tree
p1034
(dp1035
g37
(imyEvolve
Tree
p1036
(dp1037
g37
(imyEvolve
Tree
p1038
(dp1039
g7
I1
sg8
(imyEvolve
Tree
p1040
(dp1041
g7
I0
sg20
I00
sbsg21
(imyEvolve
Tree
p1042
(dp1043
g7
I0
sg19
F2.2301391573507594
sg20
I01
sbsg24
I00
sg25
g26
sbsg7
I2
sg24
I01
sg25
g101
sbsg7
I3
sg24
I01
sg25
g42
sbsg24
I00
sg25
g33
sbsg21
(imyEvolve
Tree
p1044
(dp1045
g7
I4
sg8
(imyEvolve
Tree
p1046
(dp1047
g7
I3
sg8
(imyEvolve
Tree
p1048
(dp1049
g37
(imyEvolve
Tree
p1050
(dp1051
g37
(imyEvolve
Tree
p1052
(dp1053
g7
I0
sg19
F2.006770317952152
sg20
I01
sbsg7
I1
sg24
I01
sg25
g72
sbsg7
I2
sg24
I01
sg25
g72
sbsg21
(imyEvolve
Tree
p1054
(dp1055
g7
I2
sg8
(imyEvolve
Tree
p1056
(dp1057
g7
I1
sg8
(imyEvolve
Tree
p1058
(dp1059
g7
I0
sg19
F1.9270918406113013
sg20
I01
sbsg21
(imyEvolve
Tree
p1060
(dp1061
g7
I0
sg20
I00
sbsg24
I00
sg25
g33
sbsg21
(imyEvolve
Tree
p1062
(dp1063
g37
(imyEvolve
Tree
p1064
(dp1065
g7
I0
sg20
I00
sbsg7
I1
sg24
I01
sg25
g43
sbsg24
I00
sg25
g34
sbsg24
I00
sg25
g33
sbsg21
(imyEvolve
Tree
p1066
(dp1067
g37
(imyEvolve
Tree
p1068
(dp1069
g7
I2
sg8
(imyEvolve
Tree
p1070
(dp1071
g7
I1
sg8
(imyEvolve
Tree
p1072
(dp1073
g7
I0
sg19
F-3.8057212645889393
sg20
I01
sbsg21
(imyEvolve
Tree
p1074
(dp1075
g7
I0
sg20
I00
sbsg24
I00
sg25
g33
sbsg21
(imyEvolve
Tree
p1076
(dp1077
g7
I1
sg8
(imyEvolve
Tree
p1078
(dp1079
g7
I0
sg19
F-2.153080700714358
sg20
I01
sbsg21
(imyEvolve
Tree
p1080
(dp1081
g7
I0
sg20
I00
sbsg24
I00
sg25
g34
sbsg24
I00
sg25
g34
sbsg7
I3
sg24
I01
sg25
g72
sbsg24
I00
sg25
g34
sbsg24
I00
sg25
g33
sba(imyEvolve
Tree
p1082
(dp1083
g7
I4
sg8
(imyEvolve
Tree
p1084
(dp1085
g7
I3
sg8
(imyEvolve
Tree
p1086
(dp1087
g37
(imyEvolve
Tree
p1088
(dp1089
g7
I1
sg8
(imyEvolve
Tree
p1090
(dp1091
g7
I0
sg19
F-4.411344100321182
sg20
I01
sbsg21
(imyEvolve
Tree
p1092
(dp1093
g7
I0
sg19
F-1.1807199301770979
sg20
I01
sbsg24
I00
sg25
g33
sbsg7
I2
sg24
I01
sg25
g101
sbsg21
(imyEvolve
Tree
p1094
(dp1095
g7
I2
sg8
(imyEvolve
Tree
p1096
(dp1097
g37
(imyEvolve
Tree
p1098
(dp1099
g7
I0
sg20
I00
sbsg7
I1
sg24
I01
sg25
g101
sbsg21
(imyEvolve
Tree
p1100
(dp1101
g7
I1
sg8
(imyEvolve
Tree
p1102
(dp1103
g7
I0
sg19
F-4.8248259004377
sg20
I01
sbsg21
(imyEvolve
Tree
p1104
(dp1105
g7
I0
sg19
F4.08226748989585
sg20
I01
sbsg24
I00
sg25
g33
sbsg24
I00
sg25
g33
sbsg24
I00
sg25
g26
sbsg21
(imyEvolve
Tree
p1106
(dp1107
g37
(imyEvolve
Tree
p1108
(dp1109
g37
(imyEvolve
Tree
p1110
(dp1111
g37
(imyEvolve
Tree
p1112
(dp1113
g7
I0
sg20
I00
sbsg7
I1
sg24
I01
sg25
g43
sbsg7
I2
sg24
I01
sg25
g43
sbsg7
I3
sg24
I01
sg25
g101
sbsg24
I00
sg25
g34
sba(imyEvolve
Tree
p1114
(dp1115
g37
(imyEvolve
Tree
p1116
(dp1117
g7
I1
sg8
(imyEvolve
Tree
p1118
(dp1119
g7
I0
sg20
I00
sbsg21
(imyEvolve
Tree
p1120
(dp1121
g7
I0
sg19
F0.12232205743273816
sg20
I01
sbsg24
I00
sg25
g33
sbsg7
I2
sg24
I01
sg25
g43
sba(imyEvolve
Tree
p1122
(dp1123
g7
I5
sg8
(imyEvolve
Tree
p1124
(dp1125
g37
(imyEvolve
Tree
p1126
(dp1127
g37
(imyEvolve
Tree
p1128
(dp1129
g7
I2
sg8
(imyEvolve
Tree
p1130
(dp1131
g37
(imyEvolve
Tree
p1132
(dp1133
g7
I0
sg20
I00
sbsg7
I1
sg24
I01
sg25
g42
sbsg21
(imyEvolve
Tree
p1134
(dp1135
g7
I1
sg8
(imyEvolve
Tree
p1136
(dp1137
g7
I0
sg20
I00
sbsg21
(imyEvolve
Tree
p1138
(dp1139
g7
I0
sg20
I00
sbsg24
I00
sg25
g26
sbsg24
I00
sg25
g33
sbsg7
I3
sg24
I01
sg25
g72
sbsg7
I4
sg24
I01
sg25
g72
sbsg21
(imyEvolve
Tree
p1140
(dp1141
g37
(imyEvolve
Tree
p1142
(dp1143
g37
(imyEvolve
Tree
p1144
(dp1145
g7
I2
sg8
(imyEvolve
Tree
p1146
(dp1147
g37
(imyEvolve
Tree
p1148
(dp1149
g7
I0
sg20
I00
sbsg7
I1
sg24
I01
sg25
g72
sbsg21
(imyEvolve
Tree
p1150
(dp1151
g7
I1
sg8
(imyEvolve
Tree
p1152
(dp1153
g7
I0
sg19
F4.941953074001688
sg20
I01
sbsg21
(imyEvolve
Tree
p1154
(dp1155
g7
I0
sg19
F0.8396285616483121
sg20
I01
sbsg24
I00
sg25
g26
sbsg24
I00
sg25
g33
sbsg7
I3
sg24
I01
sg25
g43
sbsg7
I4
sg24
I01
sg25
g101
sbsg24
I00
sg25
g26
sba(imyEvolve
Tree
p1156
(dp1157
g7
I2
sg8
(imyEvolve
Tree
p1158
(dp1159
g37
(imyEvolve
Tree
p1160
(dp1161
g7
I0
sg19
F0.13418569854681284
sg20
I01
sbsg7
I1
sg24
I01
sg25
g43
sbsg21
(imyEvolve
Tree
p1162
(dp1163
g37
(imyEvolve
Tree
p1164
(dp1165
g7
I0
sg20
I00
sbsg7
I1
sg24
I01
sg25
g43
sbsg24
I00
sg25
g26
sbaasS'weightSharing'
p1166
(lp1167
I00
aI00
asS'fitnessValid'
p1168
I00
sS'fitness'
p1169
cnumpy.core.multiarray
scalar
p1170
(cnumpy
dtype
p1171
(S'f8'
p1172
I0
I1
tp1173
Rp1174
(I3
S'<'
p1175
NNNI-1
I-1
I0
tp1176
bS'\x80sF\x94~\xb9r?'
p1177
tp1178
Rp1179
sS'alpha'
p1180
F0.002143691303927186
sS'resolution'
p1181
I98
sb.