(imyEvolve
Individual
p0
(dp1
S'funcs'
p2
(lp3
(lp4
(imyEvolve
Tree
p5
(dp6
S'depth'
p7
I3
sS'left'
p8
(imyEvolve
Tree
p9
(dp10
S'below'
p11
(imyEvolve
Tree
p12
(dp13
g11
(imyEvolve
Tree
p14
(dp15
g7
I0
sS'constant'
p16
F2.1382113449317437
sS'isConstant'
p17
I01
sbsg7
I1
sS'single'
p18
I01
sS'op'
p19
cmath
sin
p20
sbsg7
I2
sg18
I01
sg19
cmyEvolve
absSqrt
p21
sbsS'right'
p22
(imyEvolve
Tree
p23
(dp24
g11
(imyEvolve
Tree
p25
(dp26
g11
(imyEvolve
Tree
p27
(dp28
g7
I0
sg17
I00
sbsg7
I1
sg18
I01
sg19
cmath
cos
p29
sbsg7
I2
sg18
I01
sg19
g21
sbsg18
I00
sg19
coperator
mul
p30
sba(imyEvolve
Tree
p31
(dp32
g11
(imyEvolve
Tree
p33
(dp34
g11
(imyEvolve
Tree
p35
(dp36
g11
(imyEvolve
Tree
p37
(dp38
g11
(imyEvolve
Tree
p39
(dp40
g7
I1
sg8
(imyEvolve
Tree
p41
(dp42
g7
I0
sg17
I00
sbsg22
(imyEvolve
Tree
p43
(dp44
g7
I0
sg16
F-2.9697836830951454
sg17
I01
sbsg18
I00
sg19
coperator
add
p45
sbsg7
I2
sg18
I01
sg19
cmyEvolve
square
p46
sbsg7
I3
sg18
I01
sg19
g21
sbsg7
I4
sg18
I01
sg19
g20
sbsg7
I5
sg18
I01
sg19
g29
sba(imyEvolve
Tree
p47
(dp48
g7
I4
sg8
(imyEvolve
Tree
p49
(dp50
g11
(imyEvolve
Tree
p51
(dp52
g11
(imyEvolve
Tree
p53
(dp54
g7
I1
sg8
(imyEvolve
Tree
p55
(dp56
g7
I0
sg17
I00
sbsg22
(imyEvolve
Tree
p57
(dp58
g7
I0
sg17
I00
sbsg18
I00
sg19
coperator
sub
p59
sbsg7
I2
sg18
I01
sg19
g21
sbsg7
I3
sg18
I01
sg19
g46
sbsg22
(imyEvolve
Tree
p60
(dp61
g7
I3
sg8
(imyEvolve
Tree
p62
(dp63
g7
I2
sg8
(imyEvolve
Tree
p64
(dp65
g7
I1
sg8
(imyEvolve
Tree
p66
(dp67
g7
I0
sg17
I00
sbsg22
(imyEvolve
Tree
p68
(dp69
g7
I0
sg17
I00
sbsg18
I00
sg19
g45
sbsg22
(imyEvolve
Tree
p70
(dp71
g11
(imyEvolve
Tree
p72
(dp73
g7
I0
sg17
I00
sbsg7
I1
sg18
I01
sg19
g29
sbsg18
I00
sg19
g30
sbsg22
(imyEvolve
Tree
p74
(dp75
g7
I2
sg8
(imyEvolve
Tree
p76
(dp77
g7
I1
sg8
(imyEvolve
Tree
p78
(dp79
g7
I0
sg16
F-2.1126819513013273
sg17
I01
sbsg22
(imyEvolve
Tree
p80
(dp81
g7
I0
sg17
I00
sbsg18
I00
sg19
g59
sbsg22
(imyEvolve
Tree
p82
(dp83
g11
(imyEvolve
Tree
p84
(dp85
g7
I0
sg17
I00
sbsg7
I1
sg18
I01
sg19
g46
sbsg18
I00
sg19
g59
sbsg18
I00
sg19
g30
sbsg18
I00
sg19
g59
sba(imyEvolve
Tree
p86
(dp87
g11
(imyEvolve
Tree
p88
(dp89
g11
(imyEvolve
Tree
p90
(dp91
g11
(imyEvolve
Tree
p92
(dp93
g7
I2
sg8
(imyEvolve
Tree
p94
(dp95
g11
(imyEvolve
Tree
p96
(dp97
g7
I0
sg16
F-1.023316698214206
sg17
I01
sbsg7
I1
sg18
I01
sg19
g21
sbsg22
(imyEvolve
Tree
p98
(dp99
g7
I1
sg8
(imyEvolve
Tree
p100
(dp101
g7
I0
sg17
I00
sbsg22
(imyEvolve
Tree
p102
(dp103
g7
I0
sg17
I00
sbsg18
I00
sg19
g30
sbsg18
I00
sg19
g45
sbsg7
I3
sg18
I01
sg19
g46
sbsg7
I4
sg18
I01
sg19
g46
sbsg7
I5
sg18
I01
sg19
g46
sba(imyEvolve
Tree
p104
(dp105
g11
(imyEvolve
Tree
p106
(dp107
g7
I4
sg8
(imyEvolve
Tree
p108
(dp109
g7
I3
sg8
(imyEvolve
Tree
p110
(dp111
g11
(imyEvolve
Tree
p112
(dp113
g11
(imyEvolve
Tree
p114
(dp115
g7
I0
sg17
I00
sbsg7
I1
sg18
I01
sg19
g20
sbsg7
I2
sg18
I01
sg19
g29
sbsg22
(imyEvolve
Tree
p116
(dp117
g11
(imyEvolve
Tree
p118
(dp119
g11
(imyEvolve
Tree
p120
(dp121
g7
I0
sg16
F4.762046479776451
sg17
I01
sbsg7
I1
sg18
I01
sg19
g29
sbsg7
I2
sg18
I01
sg19
g20
sbsg18
I00
sg19
g30
sbsg22
(imyEvolve
Tree
p122
(dp123
g7
I3
sg8
(imyEvolve
Tree
p124
(dp125
g11
(imyEvolve
Tree
p126
(dp127
g7
I1
sg8
(imyEvolve
Tree
p128
(dp129
g7
I0
sg16
F4.53271240748359
sg17
I01
sbsg22
(imyEvolve
Tree
p130
(dp131
g7
I0
sg16
F1.0458923175569401
sg17
I01
sbsg18
I00
sg19
g59
sbsg7
I2
sg18
I01
sg19
g29
sbsg22
(imyEvolve
Tree
p132
(dp133
g11
(imyEvolve
Tree
p134
(dp135
g11
(imyEvolve
Tree
p136
(dp137
g7
I0
sg17
I00
sbsg7
I1
sg18
I01
sg19
g21
sbsg7
I2
sg18
I01
sg19
g20
sbsg18
I00
sg19
g59
sbsg18
I00
sg19
g59
sbsg7
I5
sg18
I01
sg19
g20
sba(imyEvolve
Tree
p138
(dp139
g7
I4
sg8
(imyEvolve
Tree
p140
(dp141
g11
(imyEvolve
Tree
p142
(dp143
g7
I2
sg8
(imyEvolve
Tree
p144
(dp145
g11
(imyEvolve
Tree
p146
(dp147
g7
I0
sg16
F-3.5614281160036496
sg17
I01
sbsg7
I1
sg18
I01
sg19
g46
sbsg22
(imyEvolve
Tree
p148
(dp149
g7
I1
sg8
(imyEvolve
Tree
p150
(dp151
g7
I0
sg16
F-3.6147781820691085
sg17
I01
sbsg22
(imyEvolve
Tree
p152
(dp153
g7
I0
sg17
I00
sbsg18
I00
sg19
g30
sbsg18
I00
sg19
g45
sbsg7
I3
sg18
I01
sg19
g20
sbsg22
(imyEvolve
Tree
p154
(dp155
g7
I3
sg8
(imyEvolve
Tree
p156
(dp157
g11
(imyEvolve
Tree
p158
(dp159
g11
(imyEvolve
Tree
p160
(dp161
g7
I0
sg16
F-0.39430699853191253
sg17
I01
sbsg7
I1
sg18
I01
sg19
g20
sbsg7
I2
sg18
I01
sg19
g46
sbsg22
(imyEvolve
Tree
p162
(dp163
g7
I2
sg8
(imyEvolve
Tree
p164
(dp165
g7
I1
sg8
(imyEvolve
Tree
p166
(dp167
g7
I0
sg17
I00
sbsg22
(imyEvolve
Tree
p168
(dp169
g7
I0
sg16
F-1.1165216601036243
sg17
I01
sbsg18
I00
sg19
g59
sbsg22
(imyEvolve
Tree
p170
(dp171
g7
I1
sg8
(imyEvolve
Tree
p172
(dp173
g7
I0
sg16
F-3.9771866871343367
sg17
I01
sbsg22
(imyEvolve
Tree
p174
(dp175
g7
I0
sg17
I00
sbsg18
I00
sg19
g30
sbsg18
I00
sg19
g59
sbsg18
I00
sg19
g59
sbsg18
I00
sg19
g45
sba(imyEvolve
Tree
p176
(dp177
g7
I4
sg8
(imyEvolve
Tree
p178
(dp179
g7
I3
sg8
(imyEvolve
Tree
p180
(dp181
g7
I2
sg8
(imyEvolve
Tree
p182
(dp183
g11
(imyEvolve
Tree
p184
(dp185
g7
I0
sg16
F3.455311594756692
sg17
I01
sbsg7
I1
sg18
I01
sg19
g21
sbsg22
(imyEvolve
Tree
p186
(dp187
g7
I1
sg8
(imyEvolve
Tree
p188
(dp189
g7
I0
sg16
F1.6954465667277807
sg17
I01
sbsg22
(imyEvolve
Tree
p190
(dp191
g7
I0
sg16
F-4.430197379111599
sg17
I01
sbsg18
I00
sg19
g45
sbsg18
I00
sg19
g45
sbsg22
(imyEvolve
Tree
p192
(dp193
g11
(imyEvolve
Tree
p194
(dp195
g7
I1
sg8
(imyEvolve
Tree
p196
(dp197
g7
I0
sg17
I00
sbsg22
(imyEvolve
Tree
p198
(dp199
g7
I0
sg17
I00
sbsg18
I00
sg19
g30
sbsg7
I2
sg18
I01
sg19
g46
sbsg18
I00
sg19
g59
sbsg22
(imyEvolve
Tree
p200
(dp201
g7
I3
sg8
(imyEvolve
Tree
p202
(dp203
g11
(imyEvolve
Tree
p204
(dp205
g7
I1
sg8
(imyEvolve
Tree
p206
(dp207
g7
I0
sg16
F-3.468448829625128
sg17
I01
sbsg22
(imyEvolve
Tree
p208
(dp209
g7
I0
sg17
I00
sbsg18
I00
sg19
g30
sbsg7
I2
sg18
I01
sg19
g29
sbsg22
(imyEvolve
Tree
p210
(dp211
g7
I2
sg8
(imyEvolve
Tree
p212
(dp213
g7
I1
sg8
(imyEvolve
Tree
p214
(dp215
g7
I0
sg16
F-1.0535422751855448
sg17
I01
sbsg22
(imyEvolve
Tree
p216
(dp217
g7
I0
sg16
F-1.1796331718113393
sg17
I01
sbsg18
I00
sg19
g59
sbsg22
(imyEvolve
Tree
p218
(dp219
g11
(imyEvolve
Tree
p220
(dp221
g7
I0
sg17
I00
sbsg7
I1
sg18
I01
sg19
g29
sbsg18
I00
sg19
g59
sbsg18
I00
sg19
g45
sbsg18
I00
sg19
g30
sba(imyEvolve
Tree
p222
(dp223
g7
I4
sg8
(imyEvolve
Tree
p224
(dp225
g7
I3
sg8
(imyEvolve
Tree
p226
(dp227
g7
I2
sg8
(imyEvolve
Tree
p228
(dp229
g11
(imyEvolve
Tree
p230
(dp231
g7
I0
sg16
F-0.6801391389684097
sg17
I01
sbsg7
I1
sg18
I01
sg19
g21
sbsg22
(imyEvolve
Tree
p232
(dp233
g7
I1
sg8
(imyEvolve
Tree
p234
(dp235
g7
I0
sg16
F3.233853196548516
sg17
I01
sbsg22
(imyEvolve
Tree
p236
(dp237
g7
I0
sg16
F1.5192418928896787
sg17
I01
sbsg18
I00
sg19
g30
sbsg18
I00
sg19
g59
sbsg22
(imyEvolve
Tree
p238
(dp239
g11
(imyEvolve
Tree
p240
(dp241
g11
(imyEvolve
Tree
p242
(dp243
g7
I0
sg17
I00
sbsg7
I1
sg18
I01
sg19
g29
sbsg7
I2
sg18
I01
sg19
g21
sbsg18
I00
sg19
g59
sbsg22
(imyEvolve
Tree
p244
(dp245
g11
(imyEvolve
Tree
p246
(dp247
g7
I2
sg8
(imyEvolve
Tree
p248
(dp249
g11
(imyEvolve
Tree
p250
(dp251
g7
I0
sg17
I00
sbsg7
I1
sg18
I01
sg19
g21
sbsg22
(imyEvolve
Tree
p252
(dp253
g11
(imyEvolve
Tree
p254
(dp255
g7
I0
sg17
I00
sbsg7
I1
sg18
I01
sg19
g46
sbsg18
I00
sg19
g59
sbsg7
I3
sg18
I01
sg19
g21
sbsg18
I00
sg19
g59
sba(imyEvolve
Tree
p256
(dp257
g7
I2
sg8
(imyEvolve
Tree
p258
(dp259
g7
I1
sg8
(imyEvolve
Tree
p260
(dp261
g7
I0
sg17
I00
sbsg22
(imyEvolve
Tree
p262
(dp263
g7
I0
sg16
F-3.329894618164919
sg17
I01
sbsg18
I00
sg19
g59
sbsg22
(imyEvolve
Tree
p264
(dp265
g11
(imyEvolve
Tree
p266
(dp267
g7
I0
sg16
F3.5529708537154274
sg17
I01
sbsg7
I1
sg18
I01
sg19
g46
sbsg18
I00
sg19
g45
sba(imyEvolve
Tree
p268
(dp269
g11
(imyEvolve
Tree
p270
(dp271
g7
I2
sg8
(imyEvolve
Tree
p272
(dp273
g7
I1
sg8
(imyEvolve
Tree
p274
(dp275
g7
I0
sg17
I00
sbsg22
(imyEvolve
Tree
p276
(dp277
g7
I0
sg17
I00
sbsg18
I00
sg19
g30
sbsg22
(imyEvolve
Tree
p278
(dp279
g7
I1
sg8
(imyEvolve
Tree
p280
(dp281
g7
I0
sg17
I00
sbsg22
(imyEvolve
Tree
p282
(dp283
g7
I0
sg17
I00
sbsg18
I00
sg19
g45
sbsg18
I00
sg19
g45
sbsg7
I3
sg18
I01
sg19
g29
sba(imyEvolve
Tree
p284
(dp285
g11
(imyEvolve
Tree
p286
(dp287
g11
(imyEvolve
Tree
p288
(dp289
g11
(imyEvolve
Tree
p290
(dp291
g11
(imyEvolve
Tree
p292
(dp293
g7
I0
sg16
F-4.670573064137697
sg17
I01
sbsg7
I1
sg18
I01
sg19
g20
sbsg7
I2
sg18
I01
sg19
g46
sbsg7
I3
sg18
I01
sg19
g29
sbsg7
I4
sg18
I01
sg19
g21
sbaa(lp294
(imyEvolve
Tree
p295
(dp296
g7
I4
sg8
(imyEvolve
Tree
p297
(dp298
g7
I3
sg8
(imyEvolve
Tree
p299
(dp300
g11
(imyEvolve
Tree
p301
(dp302
g7
I1
sg8
(imyEvolve
Tree
p303
(dp304
g7
I0
sg16
F-3.7189019494943243
sg17
I01
sbsg22
(imyEvolve
Tree
p305
(dp306
g7
I0
sg16
F4.857246506132878
sg17
I01
sbsg18
I00
sg19
g45
sbsg7
I2
sg18
I01
sg19
g29
sbsg22
(imyEvolve
Tree
p307
(dp308
g11
(imyEvolve
Tree
p309
(dp310
g11
(imyEvolve
Tree
p311
(dp312
g7
I0
sg17
I00
sbsg7
I1
sg18
I01
sg19
g20
sbsg7
I2
sg18
I01
sg19
g29
sbsg18
I00
sg19
g45
sbsg22
(imyEvolve
Tree
p313
(dp314
g7
I3
sg8
(imyEvolve
Tree
p315
(dp316
g11
(imyEvolve
Tree
p317
(dp318
g11
(imyEvolve
Tree
p319
(dp320
g7
I0
sg17
I00
sbsg7
I1
sg18
I01
sg19
g20
sbsg7
I2
sg18
I01
sg19
g20
sbsg22
(imyEvolve
Tree
p321
(dp322
g7
I2
sg8
(imyEvolve
Tree
p323
(dp324
g7
I1
sg8
(imyEvolve
Tree
p325
(dp326
g7
I0
sg16
F1.92153500807271
sg17
I01
sbsg22
(imyEvolve
Tree
p327
(dp328
g7
I0
sg17
I00
sbsg18
I00
sg19
g30
sbsg22
(imyEvolve
Tree
p329
(dp330
g7
I1
sg8
(imyEvolve
Tree
p331
(dp332
g7
I0
sg17
I00
sbsg22
(imyEvolve
Tree
p333
(dp334
g7
I0
sg16
F-0.4509206452584227
sg17
I01
sbsg18
I00
sg19
g30
sbsg18
I00
sg19
g45
sbsg18
I00
sg19
g59
sbsg18
I00
sg19
g59
sba(imyEvolve
Tree
p335
(dp336
g11
(imyEvolve
Tree
p337
(dp338
g7
I1
sg8
(imyEvolve
Tree
p339
(dp340
g7
I0
sg16
F4.899228252262418
sg17
I01
sbsg22
(imyEvolve
Tree
p341
(dp342
g7
I0
sg16
F0.9853413457611868
sg17
I01
sbsg18
I00
sg19
g30
sbsg7
I2
sg18
I01
sg19
g20
sba(imyEvolve
Tree
p343
(dp344
g11
(imyEvolve
Tree
p345
(dp346
g7
I4
sg8
(imyEvolve
Tree
p347
(dp348
g7
I3
sg8
(imyEvolve
Tree
p349
(dp350
g7
I2
sg8
(imyEvolve
Tree
p351
(dp352
g7
I1
sg8
(imyEvolve
Tree
p353
(dp354
g7
I0
sg16
F3.779450148043445
sg17
I01
sbsg22
(imyEvolve
Tree
p355
(dp356
g7
I0
sg17
I00
sbsg18
I00
sg19
g30
sbsg22
(imyEvolve
Tree
p357
(dp358
g11
(imyEvolve
Tree
p359
(dp360
g7
I0
sg16
F4.743746602562826
sg17
I01
sbsg7
I1
sg18
I01
sg19
g20
sbsg18
I00
sg19
g30
sbsg22
(imyEvolve
Tree
p361
(dp362
g7
I2
sg8
(imyEvolve
Tree
p363
(dp364
g11
(imyEvolve
Tree
p365
(dp366
g7
I0
sg17
I00
sbsg7
I1
sg18
I01
sg19
g20
sbsg22
(imyEvolve
Tree
p367
(dp368
g7
I1
sg8
(imyEvolve
Tree
p369
(dp370
g7
I0
sg16
F-4.359401879421507
sg17
I01
sbsg22
(imyEvolve
Tree
p371
(dp372
g7
I0
sg17
I00
sbsg18
I00
sg19
g59
sbsg18
I00
sg19
g59
sbsg18
I00
sg19
g45
sbsg22
(imyEvolve
Tree
p373
(dp374
g7
I3
sg8
(imyEvolve
Tree
p375
(dp376
g7
I2
sg8
(imyEvolve
Tree
p377
(dp378
g11
(imyEvolve
Tree
p379
(dp380
g7
I0
sg16
F0.7203203996726906
sg17
I01
sbsg7
I1
sg18
I01
sg19
g21
sbsg22
(imyEvolve
Tree
p381
(dp382
g7
I1
sg8
(imyEvolve
Tree
p383
(dp384
g7
I0
sg16
F4.906231976497828
sg17
I01
sbsg22
(imyEvolve
Tree
p385
(dp386
g7
I0
sg17
I00
sbsg18
I00
sg19
g30
sbsg18
I00
sg19
g30
sbsg22
(imyEvolve
Tree
p387
(dp388
g7
I2
sg8
(imyEvolve
Tree
p389
(dp390
g7
I1
sg8
(imyEvolve
Tree
p391
(dp392
g7
I0
sg16
F-3.116883995009523
sg17
I01
sbsg22
(imyEvolve
Tree
p393
(dp394
g7
I0
sg17
I00
sbsg18
I00
sg19
g30
sbsg22
(imyEvolve
Tree
p395
(dp396
g11
(imyEvolve
Tree
p397
(dp398
g7
I0
sg17
I00
sbsg7
I1
sg18
I01
sg19
g21
sbsg18
I00
sg19
g59
sbsg18
I00
sg19
g59
sbsg18
I00
sg19
g45
sbsg7
I5
sg18
I01
sg19
g21
sba(imyEvolve
Tree
p399
(dp400
g7
I3
sg8
(imyEvolve
Tree
p401
(dp402
g7
I2
sg8
(imyEvolve
Tree
p403
(dp404
g11
(imyEvolve
Tree
p405
(dp406
g7
I0
sg17
I00
sbsg7
I1
sg18
I01
sg19
g46
sbsg22
(imyEvolve
Tree
p407
(dp408
g7
I1
sg8
(imyEvolve
Tree
p409
(dp410
g7
I0
sg17
I00
sbsg22
(imyEvolve
Tree
p411
(dp412
g7
I0
sg16
F1.405593441392984
sg17
I01
sbsg18
I00
sg19
g45
sbsg18
I00
sg19
g45
sbsg22
(imyEvolve
Tree
p413
(dp414
g7
I2
sg8
(imyEvolve
Tree
p415
(dp416
g11
(imyEvolve
Tree
p417
(dp418
g7
I0
sg17
I00
sbsg7
I1
sg18
I01
sg19
g46
sbsg22
(imyEvolve
Tree
p419
(dp420
g7
I1
sg8
(imyEvolve
Tree
p421
(dp422
g7
I0
sg16
F3.2306621972632676
sg17
I01
sbsg22
(imyEvolve
Tree
p423
(dp424
g7
I0
sg17
I00
sbsg18
I00
sg19
g30
sbsg18
I00
sg19
g59
sbsg18
I00
sg19
g59
sba(imyEvolve
Tree
p425
(dp426
g7
I5
sg8
(imyEvolve
Tree
p427
(dp428
g11
(imyEvolve
Tree
p429
(dp430
g11
(imyEvolve
Tree
p431
(dp432
g11
(imyEvolve
Tree
p433
(dp434
g11
(imyEvolve
Tree
p435
(dp436
g7
I0
sg17
I00
sbsg7
I1
sg18
I01
sg19
g21
sbsg7
I2
sg18
I01
sg19
g20
sbsg7
I3
sg18
I01
sg19
g20
sbsg7
I4
sg18
I01
sg19
g20
sbsg22
(imyEvolve
Tree
p437
(dp438
g11
(imyEvolve
Tree
p439
(dp440
g7
I3
sg8
(imyEvolve
Tree
p441
(dp442
g7
I2
sg8
(imyEvolve
Tree
p443
(dp444
g7
I1
sg8
(imyEvolve
Tree
p445
(dp446
g7
I0
sg17
I00
sbsg22
(imyEvolve
Tree
p447
(dp448
g7
I0
sg16
F2.406127992552146
sg17
I01
sbsg18
I00
sg19
g59
sbsg22
(imyEvolve
Tree
p449
(dp450
g11
(imyEvolve
Tree
p451
(dp452
g7
I0
sg17
I00
sbsg7
I1
sg18
I01
sg19
g20
sbsg18
I00
sg19
g30
sbsg22
(imyEvolve
Tree
p453
(dp454
g7
I2
sg8
(imyEvolve
Tree
p455
(dp456
g11
(imyEvolve
Tree
p457
(dp458
g7
I0
sg16
F-0.4201027305227809
sg17
I01
sbsg7
I1
sg18
I01
sg19
g29
sbsg22
(imyEvolve
Tree
p459
(dp460
g7
I1
sg8
(imyEvolve
Tree
p461
(dp462
g7
I0
sg16
F0.7722923338639518
sg17
I01
sbsg22
(imyEvolve
Tree
p463
(dp464
g7
I0
sg17
I00
sbsg18
I00
sg19
g59
sbsg18
I00
sg19
g59
sbsg18
I00
sg19
g30
sbsg7
I4
sg18
I01
sg19
g21
sbsg18
I00
sg19
g45
sba(imyEvolve
Tree
p465
(dp466
g11
(imyEvolve
Tree
p467
(dp468
g7
I3
sg8
(imyEvolve
Tree
p469
(dp470
g11
(imyEvolve
Tree
p471
(dp472
g7
I1
sg8
(imyEvolve
Tree
p473
(dp474
g7
I0
sg17
I00
sbsg22
(imyEvolve
Tree
p475
(dp476
g7
I0
sg16
F-0.8803243723750329
sg17
I01
sbsg18
I00
sg19
g30
sbsg7
I2
sg18
I01
sg19
g21
sbsg22
(imyEvolve
Tree
p477
(dp478
g7
I2
sg8
(imyEvolve
Tree
p479
(dp480
g7
I1
sg8
(imyEvolve
Tree
p481
(dp482
g7
I0
sg16
F-3.3531103376441473
sg17
I01
sbsg22
(imyEvolve
Tree
p483
(dp484
g7
I0
sg17
I00
sbsg18
I00
sg19
g45
sbsg22
(imyEvolve
Tree
p485
(dp486
g7
I1
sg8
(imyEvolve
Tree
p487
(dp488
g7
I0
sg16
F1.504727027270886
sg17
I01
sbsg22
(imyEvolve
Tree
p489
(dp490
g7
I0
sg16
F-3.206463940352865
sg17
I01
sbsg18
I00
sg19
g30
sbsg18
I00
sg19
g59
sbsg18
I00
sg19
g45
sbsg7
I4
sg18
I01
sg19
g29
sba(imyEvolve
Tree
p491
(dp492
g7
I4
sg8
(imyEvolve
Tree
p493
(dp494
g7
I3
sg8
(imyEvolve
Tree
p495
(dp496
g7
I2
sg8
(imyEvolve
Tree
p497
(dp498
g11
(imyEvolve
Tree
p499
(dp500
g7
I0
sg16
F-1.5671561831332346
sg17
I01
sbsg7
I1
sg18
I01
sg19
g29
sbsg22
(imyEvolve
Tree
p501
(dp502
g11
(imyEvolve
Tree
p503
(dp504
g7
I0
sg17
I00
sbsg7
I1
sg18
I01
sg19
g20
sbsg18
I00
sg19
g45
sbsg22
(imyEvolve
Tree
p505
(dp506
g7
I2
sg8
(imyEvolve
Tree
p507
(dp508
g11
(imyEvolve
Tree
p509
(dp510
g7
I0
sg16
F-3.853598990314385
sg17
I01
sbsg7
I1
sg18
I01
sg19
g46
sbsg22
(imyEvolve
Tree
p511
(dp512
g7
I1
sg8
(imyEvolve
Tree
p513
(dp514
g7
I0
sg17
I00
sbsg22
(imyEvolve
Tree
p515
(dp516
g7
I0
sg17
I00
sbsg18
I00
sg19
g59
sbsg18
I00
sg19
g59
sbsg18
I00
sg19
g30
sbsg22
(imyEvolve
Tree
p517
(dp518
g11
(imyEvolve
Tree
p519
(dp520
g7
I2
sg8
(imyEvolve
Tree
p521
(dp522
g11
(imyEvolve
Tree
p523
(dp524
g7
I0
sg17
I00
sbsg7
I1
sg18
I01
sg19
g20
sbsg22
(imyEvolve
Tree
p525
(dp526
g7
I1
sg8
(imyEvolve
Tree
p527
(dp528
g7
I0
sg17
I00
sbsg22
(imyEvolve
Tree
p529
(dp530
g7
I0
sg16
F-4.402563825848932
sg17
I01
sbsg18
I00
sg19
g59
sbsg18
I00
sg19
g59
sbsg7
I3
sg18
I01
sg19
g21
sbsg18
I00
sg19
g30
sba(imyEvolve
Tree
p531
(dp532
g7
I4
sg8
(imyEvolve
Tree
p533
(dp534
g11
(imyEvolve
Tree
p535
(dp536
g7
I2
sg8
(imyEvolve
Tree
p537
(dp538
g7
I1
sg8
(imyEvolve
Tree
p539
(dp540
g7
I0
sg17
I00
sbsg22
(imyEvolve
Tree
p541
(dp542
g7
I0
sg16
F0.5488321972932377
sg17
I01
sbsg18
I00
sg19
g59
sbsg22
(imyEvolve
Tree
p543
(dp544
g7
I1
sg8
(imyEvolve
Tree
p545
(dp546
g7
I0
sg17
I00
sbsg22
(imyEvolve
Tree
p547
(dp548
g7
I0
sg17
I00
sbsg18
I00
sg19
g45
sbsg18
I00
sg19
g59
sbsg7
I3
sg18
I01
sg19
g20
sbsg22
(imyEvolve
Tree
p549
(dp550
g7
I3
sg8
(imyEvolve
Tree
p551
(dp552
g7
I2
sg8
(imyEvolve
Tree
p553
(dp554
g7
I1
sg8
(imyEvolve
Tree
p555
(dp556
g7
I0
sg16
F-3.4070181724683724
sg17
I01
sbsg22
(imyEvolve
Tree
p557
(dp558
g7
I0
sg17
I00
sbsg18
I00
sg19
g30
sbsg22
(imyEvolve
Tree
p559
(dp560
g7
I1
sg8
(imyEvolve
Tree
p561
(dp562
g7
I0
sg16
F1.8957363049167242
sg17
I01
sbsg22
(imyEvolve
Tree
p563
(dp564
g7
I0
sg17
I00
sbsg18
I00
sg19
g45
sbsg18
I00
sg19
g45
sbsg22
(imyEvolve
Tree
p565
(dp566
g7
I2
sg8
(imyEvolve
Tree
p567
(dp568
g7
I1
sg8
(imyEvolve
Tree
p569
(dp570
g7
I0
sg17
I00
sbsg22
(imyEvolve
Tree
p571
(dp572
g7
I0
sg17
I00
sbsg18
I00
sg19
g45
sbsg22
(imyEvolve
Tree
p573
(dp574
g7
I1
sg8
(imyEvolve
Tree
p575
(dp576
g7
I0
sg16
F2.8693400044525363
sg17
I01
sbsg22
(imyEvolve
Tree
p577
(dp578
g7
I0
sg17
I00
sbsg18
I00
sg19
g59
sbsg18
I00
sg19
g30
sbsg18
I00
sg19
g59
sbsg18
I00
sg19
g59
sba(imyEvolve
Tree
p579
(dp580
g11
(imyEvolve
Tree
p581
(dp582
g7
I3
sg8
(imyEvolve
Tree
p583
(dp584
g7
I2
sg8
(imyEvolve
Tree
p585
(dp586
g11
(imyEvolve
Tree
p587
(dp588
g7
I0
sg17
I00
sbsg7
I1
sg18
I01
sg19
g21
sbsg22
(imyEvolve
Tree
p589
(dp590
g7
I1
sg8
(imyEvolve
Tree
p591
(dp592
g7
I0
sg17
I00
sbsg22
(imyEvolve
Tree
p593
(dp594
g7
I0
sg17
I00
sbsg18
I00
sg19
g45
sbsg18
I00
sg19
g45
sbsg22
(imyEvolve
Tree
p595
(dp596
g7
I2
sg8
(imyEvolve
Tree
p597
(dp598
g11
(imyEvolve
Tree
p599
(dp600
g7
I0
sg16
F0.7251497534086706
sg17
I01
sbsg7
I1
sg18
I01
sg19
g20
sbsg22
(imyEvolve
Tree
p601
(dp602
g7
I1
sg8
(imyEvolve
Tree
p603
(dp604
g7
I0
sg16
F-0.18810413816508564
sg17
I01
sbsg22
(imyEvolve
Tree
p605
(dp606
g7
I0
sg16
F-1.2871278996055278
sg17
I01
sbsg18
I00
sg19
g45
sbsg18
I00
sg19
g30
sbsg18
I00
sg19
g30
sbsg7
I4
sg18
I01
sg19
g29
sbaasS'weightSharing'
p607
(lp608
I00
aI00
asS'fitnessValid'
p609
I00
sS'fitness'
p610
cnumpy.core.multiarray
scalar
p611
(cnumpy
dtype
p612
(S'f8'
p613
I0
I1
tp614
Rp615
(I3
S'<'
p616
NNNI-1
I-1
I0
tp617
bS'\xb4\xc8v\x0cg(\xe6?'
p618
tp619
Rp620
sS'alpha'
p621
F0.0022210826317317356
sS'resolution'
p622
I39
sb.