(imyEvolve
Individual
p0
(dp1
S'funcs'
p2
(lp3
(lp4
(imyEvolve
Tree
p5
(dp6
S'below'
p7
(imyEvolve
Tree
p8
(dp9
g7
(imyEvolve
Tree
p10
(dp11
g7
(imyEvolve
Tree
p12
(dp13
S'depth'
p14
I0
sS'isConstant'
p15
I00
sbsg14
I1
sS'single'
p16
I01
sS'op'
p17
cmath
cos
p18
sbsg14
I2
sg16
I01
sg17
cmyEvolve
absSqrt
p19
sbsg14
I3
sg16
I01
sg17
g18
sba(imyEvolve
Tree
p20
(dp21
S'left'
p22
(imyEvolve
Tree
p23
(dp24
g7
(imyEvolve
Tree
p25
(dp26
g22
(imyEvolve
Tree
p27
(dp28
g14
I0
sS'constant'
p29
F0.23403116206035524
sg15
I01
sbsg14
I1
sS'right'
p30
(imyEvolve
Tree
p31
(dp32
g14
I0
sg15
I00
sbsg16
I00
sg17
coperator
sub
p33
sbsg14
I2
sg16
I01
sg17
cmyEvolve
square
p34
sbsg14
I3
sg30
(imyEvolve
Tree
p35
(dp36
g22
(imyEvolve
Tree
p37
(dp38
g22
(imyEvolve
Tree
p39
(dp40
g14
I0
sg29
F3.5569515997570402
sg15
I01
sbsg14
I1
sg30
(imyEvolve
Tree
p41
(dp42
g14
I0
sg29
F2.219843764454441
sg15
I01
sbsg16
I00
sg17
coperator
mul
p43
sbsg14
I2
sg30
(imyEvolve
Tree
p44
(dp45
g7
(imyEvolve
Tree
p46
(dp47
g14
I0
sg15
I00
sbsg14
I1
sg16
I01
sg17
cmath
sin
p48
sbsg16
I00
sg17
coperator
add
p49
sbsg16
I00
sg17
g33
sba(imyEvolve
Tree
p50
(dp51
g22
(imyEvolve
Tree
p52
(dp53
g22
(imyEvolve
Tree
p54
(dp55
g14
I0
sg15
I00
sbsg14
I1
sg30
(imyEvolve
Tree
p56
(dp57
g14
I0
sg15
I00
sbsg16
I00
sg17
g33
sbsg14
I2
sg30
(imyEvolve
Tree
p58
(dp59
g22
(imyEvolve
Tree
p60
(dp61
g14
I0
sg15
I00
sbsg14
I1
sg30
(imyEvolve
Tree
p62
(dp63
g14
I0
sg29
F1.1997862212991812
sg15
I01
sbsg16
I00
sg17
g43
sbsg16
I00
sg17
g49
sba(imyEvolve
Tree
p64
(dp65
g14
I5
sg22
(imyEvolve
Tree
p66
(dp67
g7
(imyEvolve
Tree
p68
(dp69
g14
I3
sg22
(imyEvolve
Tree
p70
(dp71
g14
I2
sg22
(imyEvolve
Tree
p72
(dp73
g14
I1
sg22
(imyEvolve
Tree
p74
(dp75
g14
I0
sg15
I00
sbsg30
(imyEvolve
Tree
p76
(dp77
g14
I0
sg15
I00
sbsg16
I00
sg17
g43
sbsg30
(imyEvolve
Tree
p78
(dp79
g14
I1
sg22
(imyEvolve
Tree
p80
(dp81
g14
I0
sg15
I00
sbsg30
(imyEvolve
Tree
p82
(dp83
g14
I0
sg29
F-2.9903733448577086
sg15
I01
sbsg16
I00
sg17
g33
sbsg16
I00
sg17
g43
sbsg30
(imyEvolve
Tree
p84
(dp85
g7
(imyEvolve
Tree
p86
(dp87
g14
I1
sg22
(imyEvolve
Tree
p88
(dp89
g14
I0
sg29
F-1.4780578201164718
sg15
I01
sbsg30
(imyEvolve
Tree
p90
(dp91
g14
I0
sg15
I00
sbsg16
I00
sg17
g49
sbsg14
I2
sg16
I01
sg17
g18
sbsg16
I00
sg17
g33
sbsg14
I4
sg16
I01
sg17
g34
sbsg30
(imyEvolve
Tree
p92
(dp93
g14
I4
sg22
(imyEvolve
Tree
p94
(dp95
g7
(imyEvolve
Tree
p96
(dp97
g7
(imyEvolve
Tree
p98
(dp99
g14
I1
sg22
(imyEvolve
Tree
p100
(dp101
g14
I0
sg15
I00
sbsg30
(imyEvolve
Tree
p102
(dp103
g14
I0
sg29
F1.9013008196074344
sg15
I01
sbsg16
I00
sg17
g49
sbsg14
I2
sg16
I01
sg17
g18
sbsg14
I3
sg16
I01
sg17
g19
sbsg30
(imyEvolve
Tree
p104
(dp105
g14
I3
sg22
(imyEvolve
Tree
p106
(dp107
g14
I2
sg22
(imyEvolve
Tree
p108
(dp109
g14
I1
sg22
(imyEvolve
Tree
p110
(dp111
g14
I0
sg29
F-2.9290420434579554
sg15
I01
sbsg30
(imyEvolve
Tree
p112
(dp113
g14
I0
sg29
F-2.2638782152674364
sg15
I01
sbsg16
I00
sg17
g43
sbsg30
(imyEvolve
Tree
p114
(dp115
g14
I1
sg22
(imyEvolve
Tree
p116
(dp117
g14
I0
sg29
F4.360815581515226
sg15
I01
sbsg30
(imyEvolve
Tree
p118
(dp119
g14
I0
sg29
F1.352440822052837
sg15
I01
sbsg16
I00
sg17
g49
sbsg16
I00
sg17
g49
sbsg30
(imyEvolve
Tree
p120
(dp121
g14
I2
sg22
(imyEvolve
Tree
p122
(dp123
g7
(imyEvolve
Tree
p124
(dp125
g14
I0
sg29
F-3.60662140530427
sg15
I01
sbsg14
I1
sg16
I01
sg17
g34
sbsg30
(imyEvolve
Tree
p126
(dp127
g14
I1
sg22
(imyEvolve
Tree
p128
(dp129
g14
I0
sg29
F3.941018756112939
sg15
I01
sbsg30
(imyEvolve
Tree
p130
(dp131
g14
I0
sg15
I00
sbsg16
I00
sg17
g43
sbsg16
I00
sg17
g43
sbsg16
I00
sg17
g49
sbsg16
I00
sg17
g43
sbsg16
I00
sg17
g49
sba(imyEvolve
Tree
p132
(dp133
g14
I4
sg22
(imyEvolve
Tree
p134
(dp135
g7
(imyEvolve
Tree
p136
(dp137
g14
I2
sg22
(imyEvolve
Tree
p138
(dp139
g14
I1
sg22
(imyEvolve
Tree
p140
(dp141
g14
I0
sg15
I00
sbsg30
(imyEvolve
Tree
p142
(dp143
g14
I0
sg15
I00
sbsg16
I00
sg17
g43
sbsg30
(imyEvolve
Tree
p144
(dp145
g14
I1
sg22
(imyEvolve
Tree
p146
(dp147
g14
I0
sg29
F-1.9795892922754899
sg15
I01
sbsg30
(imyEvolve
Tree
p148
(dp149
g14
I0
sg29
F3.1507358276002257
sg15
I01
sbsg16
I00
sg17
g33
sbsg16
I00
sg17
g33
sbsg14
I3
sg16
I01
sg17
g48
sbsg30
(imyEvolve
Tree
p150
(dp151
g7
(imyEvolve
Tree
p152
(dp153
g14
I2
sg22
(imyEvolve
Tree
p154
(dp155
g14
I1
sg22
(imyEvolve
Tree
p156
(dp157
g14
I0
sg15
I00
sbsg30
(imyEvolve
Tree
p158
(dp159
g14
I0
sg29
F-0.8741310339269548
sg15
I01
sbsg16
I00
sg17
g33
sbsg30
(imyEvolve
Tree
p160
(dp161
g14
I1
sg22
(imyEvolve
Tree
p162
(dp163
g14
I0
sg29
F-1.0654958131324044
sg15
I01
sbsg30
(imyEvolve
Tree
p164
(dp165
g14
I0
sg29
F3.5615747473036006
sg15
I01
sbsg16
I00
sg17
g43
sbsg16
I00
sg17
g33
sbsg14
I3
sg16
I01
sg17
g34
sbsg16
I00
sg17
g33
sba(imyEvolve
Tree
p166
(dp167
g22
(imyEvolve
Tree
p168
(dp169
g22
(imyEvolve
Tree
p170
(dp171
g7
(imyEvolve
Tree
p172
(dp173
g14
I0
sg15
I00
sbsg14
I1
sg16
I01
sg17
g19
sbsg14
I2
sg30
(imyEvolve
Tree
p174
(dp175
g22
(imyEvolve
Tree
p176
(dp177
g14
I0
sg29
F1.6357787650675082
sg15
I01
sbsg14
I1
sg30
(imyEvolve
Tree
p178
(dp179
g14
I0
sg15
I00
sbsg16
I00
sg17
g33
sbsg16
I00
sg17
g33
sbsg14
I3
sg30
(imyEvolve
Tree
p180
(dp181
g7
(imyEvolve
Tree
p182
(dp183
g22
(imyEvolve
Tree
p184
(dp185
g14
I0
sg29
F-0.9555988417013017
sg15
I01
sbsg14
I1
sg30
(imyEvolve
Tree
p186
(dp187
g14
I0
sg15
I00
sbsg16
I00
sg17
g33
sbsg14
I2
sg16
I01
sg17
g18
sbsg16
I00
sg17
g33
sba(imyEvolve
Tree
p188
(dp189
g7
(imyEvolve
Tree
p190
(dp191
g22
(imyEvolve
Tree
p192
(dp193
g14
I0
sg29
F0.7333504045363748
sg15
I01
sbsg14
I1
sg30
(imyEvolve
Tree
p194
(dp195
g14
I0
sg15
I00
sbsg16
I00
sg17
g43
sbsg14
I2
sg16
I01
sg17
g19
sba(imyEvolve
Tree
p196
(dp197
g7
(imyEvolve
Tree
p198
(dp199
g7
(imyEvolve
Tree
p200
(dp201
g7
(imyEvolve
Tree
p202
(dp203
g22
(imyEvolve
Tree
p204
(dp205
g7
(imyEvolve
Tree
p206
(dp207
g14
I0
sg29
F-1.5266529772187711
sg15
I01
sbsg14
I1
sg16
I01
sg17
g18
sbsg14
I2
sg30
(imyEvolve
Tree
p208
(dp209
g22
(imyEvolve
Tree
p210
(dp211
g14
I0
sg29
F2.490962801265403
sg15
I01
sbsg14
I1
sg30
(imyEvolve
Tree
p212
(dp213
g14
I0
sg15
I00
sbsg16
I00
sg17
g33
sbsg16
I00
sg17
g49
sbsg14
I3
sg16
I01
sg17
g48
sbsg14
I4
sg16
I01
sg17
g19
sbsg14
I5
sg16
I01
sg17
g19
sba(imyEvolve
Tree
p214
(dp215
g7
(imyEvolve
Tree
p216
(dp217
g7
(imyEvolve
Tree
p218
(dp219
g22
(imyEvolve
Tree
p220
(dp221
g14
I0
sg15
I00
sbsg14
I1
sg30
(imyEvolve
Tree
p222
(dp223
g14
I0
sg29
F0.12237748139200111
sg15
I01
sbsg16
I00
sg17
g43
sbsg14
I2
sg16
I01
sg17
g48
sbsg14
I3
sg16
I01
sg17
g19
sba(imyEvolve
Tree
p224
(dp225
g22
(imyEvolve
Tree
p226
(dp227
g22
(imyEvolve
Tree
p228
(dp229
g22
(imyEvolve
Tree
p230
(dp231
g22
(imyEvolve
Tree
p232
(dp233
g7
(imyEvolve
Tree
p234
(dp235
g14
I0
sg15
I00
sbsg14
I1
sg16
I01
sg17
g19
sbsg14
I2
sg30
(imyEvolve
Tree
p236
(dp237
g22
(imyEvolve
Tree
p238
(dp239
g14
I0
sg29
F3.24573270997651
sg15
I01
sbsg14
I1
sg30
(imyEvolve
Tree
p240
(dp241
g14
I0
sg15
I00
sbsg16
I00
sg17
g43
sbsg16
I00
sg17
g43
sbsg14
I3
sg30
(imyEvolve
Tree
p242
(dp243
g7
(imyEvolve
Tree
p244
(dp245
g7
(imyEvolve
Tree
p246
(dp247
g14
I0
sg15
I00
sbsg14
I1
sg16
I01
sg17
g19
sbsg14
I2
sg16
I01
sg17
g18
sbsg16
I00
sg17
g43
sbsg14
I4
sg30
(imyEvolve
Tree
p248
(dp249
g7
(imyEvolve
Tree
p250
(dp251
g7
(imyEvolve
Tree
p252
(dp253
g22
(imyEvolve
Tree
p254
(dp255
g14
I0
sg15
I00
sbsg14
I1
sg30
(imyEvolve
Tree
p256
(dp257
g14
I0
sg15
I00
sbsg16
I00
sg17
g43
sbsg14
I2
sg16
I01
sg17
g18
sbsg14
I3
sg16
I01
sg17
g34
sbsg16
I00
sg17
g49
sbsg14
I5
sg30
(imyEvolve
Tree
p258
(dp259
g22
(imyEvolve
Tree
p260
(dp261
g22
(imyEvolve
Tree
p262
(dp263
g7
(imyEvolve
Tree
p264
(dp265
g7
(imyEvolve
Tree
p266
(dp267
g14
I0
sg15
I00
sbsg14
I1
sg16
I01
sg17
g34
sbsg14
I2
sg16
I01
sg17
g34
sbsg14
I3
sg30
(imyEvolve
Tree
p268
(dp269
g22
(imyEvolve
Tree
p270
(dp271
g7
(imyEvolve
Tree
p272
(dp273
g14
I0
sg15
I00
sbsg14
I1
sg16
I01
sg17
g34
sbsg14
I2
sg30
(imyEvolve
Tree
p274
(dp275
g22
(imyEvolve
Tree
p276
(dp277
g14
I0
sg29
F-4.3509255633618515
sg15
I01
sbsg14
I1
sg30
(imyEvolve
Tree
p278
(dp279
g14
I0
sg29
F1.2824754600024848
sg15
I01
sbsg16
I00
sg17
g33
sbsg16
I00
sg17
g43
sbsg16
I00
sg17
g43
sbsg14
I4
sg30
(imyEvolve
Tree
p280
(dp281
g22
(imyEvolve
Tree
p282
(dp283
g7
(imyEvolve
Tree
p284
(dp285
g7
(imyEvolve
Tree
p286
(dp287
g14
I0
sg29
F-4.185139649671111
sg15
I01
sbsg14
I1
sg16
I01
sg17
g19
sbsg14
I2
sg16
I01
sg17
g18
sbsg14
I3
sg30
(imyEvolve
Tree
p288
(dp289
g7
(imyEvolve
Tree
p290
(dp291
g22
(imyEvolve
Tree
p292
(dp293
g14
I0
sg15
I00
sbsg14
I1
sg30
(imyEvolve
Tree
p294
(dp295
g14
I0
sg15
I00
sbsg16
I00
sg17
g33
sbsg14
I2
sg16
I01
sg17
g34
sbsg16
I00
sg17
g43
sbsg16
I00
sg17
g43
sbsg16
I00
sg17
g43
sba(imyEvolve
Tree
p296
(dp297
g7
(imyEvolve
Tree
p298
(dp299
g7
(imyEvolve
Tree
p300
(dp301
g22
(imyEvolve
Tree
p302
(dp303
g14
I0
sg15
I00
sbsg14
I1
sg30
(imyEvolve
Tree
p304
(dp305
g14
I0
sg29
F3.994219386937745
sg15
I01
sbsg16
I00
sg17
g33
sbsg14
I2
sg16
I01
sg17
g48
sbsg14
I3
sg16
I01
sg17
g34
sba(imyEvolve
Tree
p306
(dp307
g22
(imyEvolve
Tree
p308
(dp309
g22
(imyEvolve
Tree
p310
(dp311
g14
I0
sg29
F-1.2994539351659098
sg15
I01
sbsg14
I1
sg30
(imyEvolve
Tree
p312
(dp313
g14
I0
sg29
F-2.5765781421361975
sg15
I01
sbsg16
I00
sg17
g43
sbsg14
I2
sg30
(imyEvolve
Tree
p314
(dp315
g7
(imyEvolve
Tree
p316
(dp317
g14
I0
sg15
I00
sbsg14
I1
sg16
I01
sg17
g18
sbsg16
I00
sg17
g33
sba(imyEvolve
Tree
p318
(dp319
g22
(imyEvolve
Tree
p320
(dp321
g7
(imyEvolve
Tree
p322
(dp323
g7
(imyEvolve
Tree
p324
(dp325
g22
(imyEvolve
Tree
p326
(dp327
g22
(imyEvolve
Tree
p328
(dp329
g14
I0
sg15
I00
sbsg14
I1
sg30
(imyEvolve
Tree
p330
(dp331
g14
I0
sg15
I00
sbsg16
I00
sg17
g33
sbsg14
I2
sg30
(imyEvolve
Tree
p332
(dp333
g22
(imyEvolve
Tree
p334
(dp335
g14
I0
sg29
F4.633644690498791
sg15
I01
sbsg14
I1
sg30
(imyEvolve
Tree
p336
(dp337
g14
I0
sg29
F-1.3904863030402037
sg15
I01
sbsg16
I00
sg17
g43
sbsg16
I00
sg17
g43
sbsg14
I3
sg16
I01
sg17
g48
sbsg14
I4
sg16
I01
sg17
g34
sbsg14
I5
sg30
(imyEvolve
Tree
p338
(dp339
g22
(imyEvolve
Tree
p340
(dp341
g7
(imyEvolve
Tree
p342
(dp343
g7
(imyEvolve
Tree
p344
(dp345
g22
(imyEvolve
Tree
p346
(dp347
g14
I0
sg15
I00
sbsg14
I1
sg30
(imyEvolve
Tree
p348
(dp349
g14
I0
sg15
I00
sbsg16
I00
sg17
g43
sbsg14
I2
sg16
I01
sg17
g19
sbsg14
I3
sg16
I01
sg17
g48
sbsg14
I4
sg30
(imyEvolve
Tree
p350
(dp351
g22
(imyEvolve
Tree
p352
(dp353
g7
(imyEvolve
Tree
p354
(dp355
g7
(imyEvolve
Tree
p356
(dp357
g14
I0
sg29
F2.548957050353157
sg15
I01
sbsg14
I1
sg16
I01
sg17
g48
sbsg14
I2
sg16
I01
sg17
g48
sbsg14
I3
sg30
(imyEvolve
Tree
p358
(dp359
g22
(imyEvolve
Tree
p360
(dp361
g7
(imyEvolve
Tree
p362
(dp363
g14
I0
sg29
F-0.19701794788683635
sg15
I01
sbsg14
I1
sg16
I01
sg17
g34
sbsg14
I2
sg30
(imyEvolve
Tree
p364
(dp365
g22
(imyEvolve
Tree
p366
(dp367
g14
I0
sg15
I00
sbsg14
I1
sg30
(imyEvolve
Tree
p368
(dp369
g14
I0
sg29
F-2.619881128855911
sg15
I01
sbsg16
I00
sg17
g49
sbsg16
I00
sg17
g43
sbsg16
I00
sg17
g43
sbsg16
I00
sg17
g49
sbsg16
I00
sg17
g49
sba(imyEvolve
Tree
p370
(dp371
g7
(imyEvolve
Tree
p372
(dp373
g7
(imyEvolve
Tree
p374
(dp375
g22
(imyEvolve
Tree
p376
(dp377
g7
(imyEvolve
Tree
p378
(dp379
g7
(imyEvolve
Tree
p380
(dp381
g14
I0
sg15
I00
sbsg14
I1
sg16
I01
sg17
g48
sbsg14
I2
sg16
I01
sg17
g34
sbsg14
I3
sg30
(imyEvolve
Tree
p382
(dp383
g22
(imyEvolve
Tree
p384
(dp385
g7
(imyEvolve
Tree
p386
(dp387
g14
I0
sg29
F-4.496614673175651
sg15
I01
sbsg14
I1
sg16
I01
sg17
g19
sbsg14
I2
sg30
(imyEvolve
Tree
p388
(dp389
g7
(imyEvolve
Tree
p390
(dp391
g14
I0
sg15
I00
sbsg14
I1
sg16
I01
sg17
g19
sbsg16
I00
sg17
g33
sbsg16
I00
sg17
g49
sbsg14
I4
sg16
I01
sg17
g48
sbsg14
I5
sg16
I01
sg17
g19
sba(imyEvolve
Tree
p392
(dp393
g14
I4
sg22
(imyEvolve
Tree
p394
(dp395
g7
(imyEvolve
Tree
p396
(dp397
g14
I2
sg22
(imyEvolve
Tree
p398
(dp399
g14
I1
sg22
(imyEvolve
Tree
p400
(dp401
g14
I0
sg15
I00
sbsg30
(imyEvolve
Tree
p402
(dp403
g14
I0
sg15
I00
sbsg16
I00
sg17
g49
sbsg30
(imyEvolve
Tree
p404
(dp405
g14
I1
sg22
(imyEvolve
Tree
p406
(dp407
g14
I0
sg15
I00
sbsg30
(imyEvolve
Tree
p408
(dp409
g14
I0
sg15
I00
sbsg16
I00
sg17
g33
sbsg16
I00
sg17
g43
sbsg14
I3
sg16
I01
sg17
g34
sbsg30
(imyEvolve
Tree
p410
(dp411
g14
I3
sg22
(imyEvolve
Tree
p412
(dp413
g7
(imyEvolve
Tree
p414
(dp415
g14
I1
sg22
(imyEvolve
Tree
p416
(dp417
g14
I0
sg29
F3.1808880100477914
sg15
I01
sbsg30
(imyEvolve
Tree
p418
(dp419
g14
I0
sg15
I00
sbsg16
I00
sg17
g33
sbsg14
I2
sg16
I01
sg17
g48
sbsg30
(imyEvolve
Tree
p420
(dp421
g7
(imyEvolve
Tree
p422
(dp423
g14
I1
sg22
(imyEvolve
Tree
p424
(dp425
g14
I0
sg29
F-3.8447080270779868
sg15
I01
sbsg30
(imyEvolve
Tree
p426
(dp427
g14
I0
sg29
F-2.4613680980530193
sg15
I01
sbsg16
I00
sg17
g49
sbsg14
I2
sg16
I01
sg17
g34
sbsg16
I00
sg17
g43
sbsg16
I00
sg17
g33
sba(imyEvolve
Tree
p428
(dp429
g7
(imyEvolve
Tree
p430
(dp431
g22
(imyEvolve
Tree
p432
(dp433
g7
(imyEvolve
Tree
p434
(dp435
g7
(imyEvolve
Tree
p436
(dp437
g14
I0
sg29
F4.864363591071934
sg15
I01
sbsg14
I1
sg16
I01
sg17
g18
sbsg14
I2
sg16
I01
sg17
g34
sbsg14
I3
sg30
(imyEvolve
Tree
p438
(dp439
g7
(imyEvolve
Tree
p440
(dp441
g22
(imyEvolve
Tree
p442
(dp443
g14
I0
sg15
I00
sbsg14
I1
sg30
(imyEvolve
Tree
p444
(dp445
g14
I0
sg29
F3.9655982467009014
sg15
I01
sbsg16
I00
sg17
g43
sbsg14
I2
sg16
I01
sg17
g34
sbsg16
I00
sg17
g43
sbsg14
I4
sg16
I01
sg17
g34
sba(imyEvolve
Tree
p446
(dp447
g14
I3
sg22
(imyEvolve
Tree
p448
(dp449
g14
I2
sg22
(imyEvolve
Tree
p450
(dp451
g14
I1
sg22
(imyEvolve
Tree
p452
(dp453
g14
I0
sg15
I00
sbsg30
(imyEvolve
Tree
p454
(dp455
g14
I0
sg29
F-4.148007044933616
sg15
I01
sbsg16
I00
sg17
g43
sbsg30
(imyEvolve
Tree
p456
(dp457
g7
(imyEvolve
Tree
p458
(dp459
g14
I0
sg29
F2.073074909503144
sg15
I01
sbsg14
I1
sg16
I01
sg17
g48
sbsg16
I00
sg17
g49
sbsg30
(imyEvolve
Tree
p460
(dp461
g14
I2
sg22
(imyEvolve
Tree
p462
(dp463
g7
(imyEvolve
Tree
p464
(dp465
g14
I0
sg15
I00
sbsg14
I1
sg16
I01
sg17
g19
sbsg30
(imyEvolve
Tree
p466
(dp467
g14
I1
sg22
(imyEvolve
Tree
p468
(dp469
g14
I0
sg15
I00
sbsg30
(imyEvolve
Tree
p470
(dp471
g14
I0
sg29
F3.2389904393458835
sg15
I01
sbsg16
I00
sg17
g33
sbsg16
I00
sg17
g49
sbsg16
I00
sg17
g33
sba(imyEvolve
Tree
p472
(dp473
g22
(imyEvolve
Tree
p474
(dp475
g22
(imyEvolve
Tree
p476
(dp477
g7
(imyEvolve
Tree
p478
(dp479
g14
I0
sg15
I00
sbsg14
I1
sg16
I01
sg17
g48
sbsg14
I2
sg30
(imyEvolve
Tree
p480
(dp481
g22
(imyEvolve
Tree
p482
(dp483
g14
I0
sg29
F4.1338905392528975
sg15
I01
sbsg14
I1
sg30
(imyEvolve
Tree
p484
(dp485
g14
I0
sg29
F-3.429864847490137
sg15
I01
sbsg16
I00
sg17
g49
sbsg16
I00
sg17
g33
sbsg14
I3
sg30
(imyEvolve
Tree
p486
(dp487
g22
(imyEvolve
Tree
p488
(dp489
g7
(imyEvolve
Tree
p490
(dp491
g14
I0
sg15
I00
sbsg14
I1
sg16
I01
sg17
g34
sbsg14
I2
sg30
(imyEvolve
Tree
p492
(dp493
g22
(imyEvolve
Tree
p494
(dp495
g14
I0
sg15
I00
sbsg14
I1
sg30
(imyEvolve
Tree
p496
(dp497
g14
I0
sg15
I00
sbsg16
I00
sg17
g33
sbsg16
I00
sg17
g33
sbsg16
I00
sg17
g43
sba(imyEvolve
Tree
p498
(dp499
g14
I2
sg22
(imyEvolve
Tree
p500
(dp501
g14
I1
sg22
(imyEvolve
Tree
p502
(dp503
g14
I0
sg29
F-0.8300446235548664
sg15
I01
sbsg30
(imyEvolve
Tree
p504
(dp505
g14
I0
sg29
F-0.7847519376764893
sg15
I01
sbsg16
I00
sg17
g49
sbsg30
(imyEvolve
Tree
p506
(dp507
g14
I1
sg22
(imyEvolve
Tree
p508
(dp509
g14
I0
sg29
F2.239709161703166
sg15
I01
sbsg30
(imyEvolve
Tree
p510
(dp511
g14
I0
sg29
F1.6208945207148968
sg15
I01
sbsg16
I00
sg17
g43
sbsg16
I00
sg17
g43
sbaasS'alpha'
p512
F0.0012068478921166473
sS'fitness'
p513
cnumpy.core.multiarray
scalar
p514
(cnumpy
dtype
p515
(S'f8'
p516
I0
I1
tp517
Rp518
(I3
S'<'
p519
NNNI-1
I-1
I0
tp520
bS'\xab\xcf\xd5\xba\x84 \xe6?'
p521
tp522
Rp523
sS'weightSharing'
p524
(lp525
I01
aI00
asS'fitnessValid'
p526
I00
sS'resolution'
p527
I81
sb.