(imyEvolve
Individual
p0
(dp1
S'funcs'
p2
(lp3
(lp4
(imyEvolve
Tree
p5
(dp6
S'depth'
p7
I3
sS'left'
p8
(imyEvolve
Tree
p9
(dp10
g7
I2
sg8
(imyEvolve
Tree
p11
(dp12
S'below'
p13
(imyEvolve
Tree
p14
(dp15
g7
I0
sS'isConstant'
p16
I00
sbsg7
I1
sS'single'
p17
I01
sS'op'
p18
cmath
sin
p19
sbsS'right'
p20
(imyEvolve
Tree
p21
(dp22
g13
(imyEvolve
Tree
p23
(dp24
g7
I0
sS'constant'
p25
F-0.360151883635929
sg16
I01
sbsg7
I1
sg17
I01
sg18
cmyEvolve
absSqrt
p26
sbsg17
I00
sg18
coperator
add
p27
sbsg20
(imyEvolve
Tree
p28
(dp29
g13
(imyEvolve
Tree
p30
(dp31
g13
(imyEvolve
Tree
p32
(dp33
g7
I0
sg25
F2.016527717890111
sg16
I01
sbsg7
I1
sg17
I01
sg18
g26
sbsg7
I2
sg17
I01
sg18
cmyEvolve
square
p34
sbsg17
I00
sg18
coperator
sub
p35
sba(imyEvolve
Tree
p36
(dp37
g7
I3
sg8
(imyEvolve
Tree
p38
(dp39
g7
I2
sg8
(imyEvolve
Tree
p40
(dp41
g13
(imyEvolve
Tree
p42
(dp43
g7
I0
sg16
I00
sbsg7
I1
sg17
I01
sg18
g26
sbsg20
(imyEvolve
Tree
p44
(dp45
g7
I1
sg8
(imyEvolve
Tree
p46
(dp47
g7
I0
sg16
I00
sbsg20
(imyEvolve
Tree
p48
(dp49
g7
I0
sg16
I00
sbsg17
I00
sg18
g35
sbsg17
I00
sg18
g27
sbsg20
(imyEvolve
Tree
p50
(dp51
g13
(imyEvolve
Tree
p52
(dp53
g13
(imyEvolve
Tree
p54
(dp55
g7
I0
sg16
I00
sbsg7
I1
sg17
I01
sg18
g34
sbsg7
I2
sg17
I01
sg18
g34
sbsg17
I00
sg18
g27
sba(imyEvolve
Tree
p56
(dp57
g13
(imyEvolve
Tree
p58
(dp59
g13
(imyEvolve
Tree
p60
(dp61
g13
(imyEvolve
Tree
p62
(dp63
g7
I1
sg8
(imyEvolve
Tree
p64
(dp65
g7
I0
sg25
F2.808569894559467
sg16
I01
sbsg20
(imyEvolve
Tree
p66
(dp67
g7
I0
sg16
I00
sbsg17
I00
sg18
g27
sbsg7
I2
sg17
I01
sg18
g34
sbsg7
I3
sg17
I01
sg18
cmath
cos
p68
sbsg7
I4
sg17
I01
sg18
g34
sba(imyEvolve
Tree
p69
(dp70
g13
(imyEvolve
Tree
p71
(dp72
g7
I3
sg8
(imyEvolve
Tree
p73
(dp74
g7
I2
sg8
(imyEvolve
Tree
p75
(dp76
g13
(imyEvolve
Tree
p77
(dp78
g7
I0
sg16
I00
sbsg7
I1
sg17
I01
sg18
g19
sbsg20
(imyEvolve
Tree
p79
(dp80
g7
I1
sg8
(imyEvolve
Tree
p81
(dp82
g7
I0
sg25
F1.2610896011521335
sg16
I01
sbsg20
(imyEvolve
Tree
p83
(dp84
g7
I0
sg16
I00
sbsg17
I00
sg18
g35
sbsg17
I00
sg18
g35
sbsg20
(imyEvolve
Tree
p85
(dp86
g7
I2
sg8
(imyEvolve
Tree
p87
(dp88
g13
(imyEvolve
Tree
p89
(dp90
g7
I0
sg16
I00
sbsg7
I1
sg17
I01
sg18
g26
sbsg20
(imyEvolve
Tree
p91
(dp92
g13
(imyEvolve
Tree
p93
(dp94
g7
I0
sg25
F-1.3662694942749
sg16
I01
sbsg7
I1
sg17
I01
sg18
g68
sbsg17
I00
sg18
g35
sbsg17
I00
sg18
g27
sbsg7
I4
sg17
I01
sg18
g68
sba(imyEvolve
Tree
p95
(dp96
g13
(imyEvolve
Tree
p97
(dp98
g13
(imyEvolve
Tree
p99
(dp100
g13
(imyEvolve
Tree
p101
(dp102
g7
I0
sg25
F2.390026591333111
sg16
I01
sbsg7
I1
sg17
I01
sg18
g26
sbsg7
I2
sg17
I01
sg18
g68
sbsg7
I3
sg17
I01
sg18
g68
sba(imyEvolve
Tree
p103
(dp104
g13
(imyEvolve
Tree
p105
(dp106
g13
(imyEvolve
Tree
p107
(dp108
g7
I2
sg8
(imyEvolve
Tree
p109
(dp110
g7
I1
sg8
(imyEvolve
Tree
p111
(dp112
g7
I0
sg16
I00
sbsg20
(imyEvolve
Tree
p113
(dp114
g7
I0
sg16
I00
sbsg17
I00
sg18
g35
sbsg20
(imyEvolve
Tree
p115
(dp116
g13
(imyEvolve
Tree
p117
(dp118
g7
I0
sg25
F-0.8515661850900305
sg16
I01
sbsg7
I1
sg17
I01
sg18
g68
sbsg17
I00
sg18
g27
sbsg7
I3
sg17
I01
sg18
g19
sbsg7
I4
sg17
I01
sg18
g68
sba(imyEvolve
Tree
p119
(dp120
g7
I5
sg8
(imyEvolve
Tree
p121
(dp122
g13
(imyEvolve
Tree
p123
(dp124
g7
I3
sg8
(imyEvolve
Tree
p125
(dp126
g13
(imyEvolve
Tree
p127
(dp128
g7
I1
sg8
(imyEvolve
Tree
p129
(dp130
g7
I0
sg16
I00
sbsg20
(imyEvolve
Tree
p131
(dp132
g7
I0
sg16
I00
sbsg17
I00
sg18
g27
sbsg7
I2
sg17
I01
sg18
g34
sbsg20
(imyEvolve
Tree
p133
(dp134
g13
(imyEvolve
Tree
p135
(dp136
g13
(imyEvolve
Tree
p137
(dp138
g7
I0
sg25
F3.1925703269216825
sg16
I01
sbsg7
I1
sg17
I01
sg18
g68
sbsg7
I2
sg17
I01
sg18
g19
sbsg17
I00
sg18
g27
sbsg7
I4
sg17
I01
sg18
g19
sbsg20
(imyEvolve
Tree
p139
(dp140
g13
(imyEvolve
Tree
p141
(dp142
g13
(imyEvolve
Tree
p143
(dp144
g7
I2
sg8
(imyEvolve
Tree
p145
(dp146
g7
I1
sg8
(imyEvolve
Tree
p147
(dp148
g7
I0
sg25
F2.1374964389121374
sg16
I01
sbsg20
(imyEvolve
Tree
p149
(dp150
g7
I0
sg16
I00
sbsg17
I00
sg18
g35
sbsg20
(imyEvolve
Tree
p151
(dp152
g13
(imyEvolve
Tree
p153
(dp154
g7
I0
sg25
F3.6088096561130634
sg16
I01
sbsg7
I1
sg17
I01
sg18
g19
sbsg17
I00
sg18
g35
sbsg7
I3
sg17
I01
sg18
g19
sbsg7
I4
sg17
I01
sg18
g34
sbsg17
I00
sg18
g27
sba(imyEvolve
Tree
p155
(dp156
g13
(imyEvolve
Tree
p157
(dp158
g13
(imyEvolve
Tree
p159
(dp160
g7
I0
sg16
I00
sbsg7
I1
sg17
I01
sg18
g19
sbsg7
I2
sg17
I01
sg18
g19
sba(imyEvolve
Tree
p161
(dp162
g7
I5
sg8
(imyEvolve
Tree
p163
(dp164
g13
(imyEvolve
Tree
p165
(dp166
g13
(imyEvolve
Tree
p167
(dp168
g7
I2
sg8
(imyEvolve
Tree
p169
(dp170
g7
I1
sg8
(imyEvolve
Tree
p171
(dp172
g7
I0
sg16
I00
sbsg20
(imyEvolve
Tree
p173
(dp174
g7
I0
sg16
I00
sbsg17
I00
sg18
coperator
mul
p175
sbsg20
(imyEvolve
Tree
p176
(dp177
g13
(imyEvolve
Tree
p178
(dp179
g7
I0
sg16
I00
sbsg7
I1
sg17
I01
sg18
g19
sbsg17
I00
sg18
g35
sbsg7
I3
sg17
I01
sg18
g34
sbsg7
I4
sg17
I01
sg18
g26
sbsg20
(imyEvolve
Tree
p180
(dp181
g13
(imyEvolve
Tree
p182
(dp183
g13
(imyEvolve
Tree
p184
(dp185
g13
(imyEvolve
Tree
p186
(dp187
g13
(imyEvolve
Tree
p188
(dp189
g7
I0
sg25
F3.5341567855686833
sg16
I01
sbsg7
I1
sg17
I01
sg18
g19
sbsg7
I2
sg17
I01
sg18
g34
sbsg7
I3
sg17
I01
sg18
g68
sbsg7
I4
sg17
I01
sg18
g26
sbsg17
I00
sg18
g175
sba(imyEvolve
Tree
p190
(dp191
g13
(imyEvolve
Tree
p192
(dp193
g13
(imyEvolve
Tree
p194
(dp195
g13
(imyEvolve
Tree
p196
(dp197
g7
I0
sg16
I00
sbsg7
I1
sg17
I01
sg18
g68
sbsg7
I2
sg17
I01
sg18
g26
sbsg7
I3
sg17
I01
sg18
g19
sbaasS'weightSharing'
p198
(lp199
I00
aI00
aI00
aI00
aI00
asS'fitnessValid'
p200
I00
sS'fitness'
p201
cnumpy.core.multiarray
scalar
p202
(cnumpy
dtype
p203
(S'f8'
p204
I0
I1
tp205
Rp206
(I3
S'<'
p207
NNNI-1
I-1
I0
tp208
bS'\x8d(\xed\xddQ,\xe6?'
p209
tp210
Rp211
sS'alpha'
p212
F0.0099426601637558
sS'resolution'
p213
I61
sb.