(imyEvolve
Individual
p0
(dp1
S'funcs'
p2
(lp3
(lp4
(imyEvolve
Tree
p5
(dp6
S'left'
p7
(imyEvolve
Tree
p8
(dp9
S'below'
p10
(imyEvolve
Tree
p11
(dp12
g10
(imyEvolve
Tree
p13
(dp14
S'depth'
p15
I0
sS'constant'
p16
F-3.844949732784144
sS'isConstant'
p17
I01
sbsg15
I1
sS'single'
p18
I01
sS'op'
p19
cmyEvolve
square
p20
sbsg15
I2
sg18
I01
sg19
g20
sbsg15
I3
sS'right'
p21
(imyEvolve
Tree
p22
(dp23
g10
(imyEvolve
Tree
p24
(dp25
g10
(imyEvolve
Tree
p26
(dp27
g15
I0
sg16
F0.9357483577926997
sg17
I01
sbsg15
I1
sg18
I01
sg19
cmyEvolve
absSqrt
p28
sbsg15
I2
sg18
I01
sg19
g28
sbsg18
I00
sg19
coperator
mul
p29
sba(imyEvolve
Tree
p30
(dp31
g10
(imyEvolve
Tree
p32
(dp33
g15
I1
sg7
(imyEvolve
Tree
p34
(dp35
g15
I0
sg16
F0.9177798433109574
sg17
I01
sbsg21
(imyEvolve
Tree
p36
(dp37
g15
I0
sg17
I00
sbsg18
I00
sg19
g29
sbsg15
I2
sg18
I01
sg19
g28
sba(imyEvolve
Tree
p38
(dp39
g10
(imyEvolve
Tree
p40
(dp41
g7
(imyEvolve
Tree
p42
(dp43
g15
I0
sg17
I00
sbsg15
I1
sg21
(imyEvolve
Tree
p44
(dp45
g15
I0
sg16
F-1.5297780222098778
sg17
I01
sbsg18
I00
sg19
coperator
add
p46
sbsg15
I2
sg18
I01
sg19
g20
sba(imyEvolve
Tree
p47
(dp48
g10
(imyEvolve
Tree
p49
(dp50
g15
I1
sg7
(imyEvolve
Tree
p51
(dp52
g15
I0
sg17
I00
sbsg21
(imyEvolve
Tree
p53
(dp54
g15
I0
sg16
F0.5916577586964431
sg17
I01
sbsg18
I00
sg19
g29
sbsg15
I2
sg18
I01
sg19
cmath
cos
p55
sba(imyEvolve
Tree
p56
(dp57
g10
(imyEvolve
Tree
p58
(dp59
g7
(imyEvolve
Tree
p60
(dp61
g7
(imyEvolve
Tree
p62
(dp63
g10
(imyEvolve
Tree
p64
(dp65
g10
(imyEvolve
Tree
p66
(dp67
g15
I0
sg17
I00
sbsg15
I1
sg18
I01
sg19
cmath
sin
p68
sbsg15
I2
sg18
I01
sg19
g28
sbsg15
I3
sg21
(imyEvolve
Tree
p69
(dp70
g7
(imyEvolve
Tree
p71
(dp72
g10
(imyEvolve
Tree
p73
(dp74
g15
I0
sg16
F1.6332381595393155
sg17
I01
sbsg15
I1
sg18
I01
sg19
g28
sbsg15
I2
sg21
(imyEvolve
Tree
p75
(dp76
g10
(imyEvolve
Tree
p77
(dp78
g15
I0
sg17
I00
sbsg15
I1
sg18
I01
sg19
g20
sbsg18
I00
sg19
g46
sbsg18
I00
sg19
g46
sbsg15
I4
sg21
(imyEvolve
Tree
p79
(dp80
g10
(imyEvolve
Tree
p81
(dp82
g7
(imyEvolve
Tree
p83
(dp84
g7
(imyEvolve
Tree
p85
(dp86
g15
I0
sg16
F4.8524345854550965
sg17
I01
sbsg15
I1
sg21
(imyEvolve
Tree
p87
(dp88
g15
I0
sg16
F0.8169634613320884
sg17
I01
sbsg18
I00
sg19
g29
sbsg15
I2
sg21
(imyEvolve
Tree
p89
(dp90
g10
(imyEvolve
Tree
p91
(dp92
g15
I0
sg17
I00
sbsg15
I1
sg18
I01
sg19
g20
sbsg18
I00
sg19
coperator
sub
p93
sbsg15
I3
sg18
I01
sg19
g68
sbsg18
I00
sg19
g29
sbsg15
I5
sg18
I01
sg19
g20
sba(imyEvolve
Tree
p94
(dp95
g10
(imyEvolve
Tree
p96
(dp97
g7
(imyEvolve
Tree
p98
(dp99
g10
(imyEvolve
Tree
p100
(dp101
g15
I0
sg17
I00
sbsg15
I1
sg18
I01
sg19
g28
sbsg15
I2
sg21
(imyEvolve
Tree
p102
(dp103
g7
(imyEvolve
Tree
p104
(dp105
g15
I0
sg16
F-3.4731268840405005
sg17
I01
sbsg15
I1
sg21
(imyEvolve
Tree
p106
(dp107
g15
I0
sg16
F0.7724480232484101
sg17
I01
sbsg18
I00
sg19
g46
sbsg18
I00
sg19
g29
sbsg15
I3
sg18
I01
sg19
g55
sba(imyEvolve
Tree
p108
(dp109
g10
(imyEvolve
Tree
p110
(dp111
g15
I1
sg7
(imyEvolve
Tree
p112
(dp113
g15
I0
sg17
I00
sbsg21
(imyEvolve
Tree
p114
(dp115
g15
I0
sg17
I00
sbsg18
I00
sg19
g46
sbsg15
I2
sg18
I01
sg19
g68
sba(imyEvolve
Tree
p116
(dp117
g10
(imyEvolve
Tree
p118
(dp119
g10
(imyEvolve
Tree
p120
(dp121
g15
I0
sg16
F0.2913606689884407
sg17
I01
sbsg15
I1
sg18
I01
sg19
g28
sbsg15
I2
sg18
I01
sg19
g55
sba(imyEvolve
Tree
p122
(dp123
g10
(imyEvolve
Tree
p124
(dp125
g10
(imyEvolve
Tree
p126
(dp127
g7
(imyEvolve
Tree
p128
(dp129
g7
(imyEvolve
Tree
p130
(dp131
g15
I0
sg16
F-2.029690646546981
sg17
I01
sbsg15
I1
sg21
(imyEvolve
Tree
p132
(dp133
g15
I0
sg16
F3.739655075523169
sg17
I01
sbsg18
I00
sg19
g46
sbsg15
I2
sg21
(imyEvolve
Tree
p134
(dp135
g7
(imyEvolve
Tree
p136
(dp137
g15
I0
sg17
I00
sbsg15
I1
sg21
(imyEvolve
Tree
p138
(dp139
g15
I0
sg17
I00
sbsg18
I00
sg19
g29
sbsg18
I00
sg19
g46
sbsg15
I3
sg18
I01
sg19
g55
sbsg15
I4
sg18
I01
sg19
g68
sba(imyEvolve
Tree
p140
(dp141
g10
(imyEvolve
Tree
p142
(dp143
g10
(imyEvolve
Tree
p144
(dp145
g7
(imyEvolve
Tree
p146
(dp147
g7
(imyEvolve
Tree
p148
(dp149
g15
I0
sg17
I00
sbsg15
I1
sg21
(imyEvolve
Tree
p150
(dp151
g15
I0
sg17
I00
sbsg18
I00
sg19
g46
sbsg15
I2
sg21
(imyEvolve
Tree
p152
(dp153
g10
(imyEvolve
Tree
p154
(dp155
g15
I0
sg17
I00
sbsg15
I1
sg18
I01
sg19
g28
sbsg18
I00
sg19
g93
sbsg15
I3
sg18
I01
sg19
g68
sbsg15
I4
sg18
I01
sg19
g68
sba(imyEvolve
Tree
p156
(dp157
g7
(imyEvolve
Tree
p158
(dp159
g7
(imyEvolve
Tree
p160
(dp161
g15
I0
sg17
I00
sbsg15
I1
sg21
(imyEvolve
Tree
p162
(dp163
g15
I0
sg17
I00
sbsg18
I00
sg19
g29
sbsg15
I2
sg21
(imyEvolve
Tree
p164
(dp165
g10
(imyEvolve
Tree
p166
(dp167
g15
I0
sg17
I00
sbsg15
I1
sg18
I01
sg19
g55
sbsg18
I00
sg19
g29
sba(imyEvolve
Tree
p168
(dp169
g15
I4
sg7
(imyEvolve
Tree
p170
(dp171
g10
(imyEvolve
Tree
p172
(dp173
g15
I2
sg7
(imyEvolve
Tree
p174
(dp175
g15
I1
sg7
(imyEvolve
Tree
p176
(dp177
g15
I0
sg16
F4.132812735673124
sg17
I01
sbsg21
(imyEvolve
Tree
p178
(dp179
g15
I0
sg17
I00
sbsg18
I00
sg19
g29
sbsg21
(imyEvolve
Tree
p180
(dp181
g15
I1
sg7
(imyEvolve
Tree
p182
(dp183
g15
I0
sg16
F-3.330949571120371
sg17
I01
sbsg21
(imyEvolve
Tree
p184
(dp185
g15
I0
sg16
F1.4794436123111963
sg17
I01
sbsg18
I00
sg19
g93
sbsg18
I00
sg19
g93
sbsg15
I3
sg18
I01
sg19
g55
sbsg21
(imyEvolve
Tree
p186
(dp187
g15
I3
sg7
(imyEvolve
Tree
p188
(dp189
g15
I2
sg7
(imyEvolve
Tree
p190
(dp191
g10
(imyEvolve
Tree
p192
(dp193
g15
I0
sg17
I00
sbsg15
I1
sg18
I01
sg19
g28
sbsg21
(imyEvolve
Tree
p194
(dp195
g15
I1
sg7
(imyEvolve
Tree
p196
(dp197
g15
I0
sg17
I00
sbsg21
(imyEvolve
Tree
p198
(dp199
g15
I0
sg16
F3.4540797894668707
sg17
I01
sbsg18
I00
sg19
g46
sbsg18
I00
sg19
g29
sbsg21
(imyEvolve
Tree
p200
(dp201
g10
(imyEvolve
Tree
p202
(dp203
g15
I1
sg7
(imyEvolve
Tree
p204
(dp205
g15
I0
sg16
F-3.1397337861398977
sg17
I01
sbsg21
(imyEvolve
Tree
p206
(dp207
g15
I0
sg17
I00
sbsg18
I00
sg19
g29
sbsg15
I2
sg18
I01
sg19
g68
sbsg18
I00
sg19
g29
sbsg18
I00
sg19
g93
sba(imyEvolve
Tree
p208
(dp209
g10
(imyEvolve
Tree
p210
(dp211
g10
(imyEvolve
Tree
p212
(dp213
g7
(imyEvolve
Tree
p214
(dp215
g15
I0
sg16
F0.9814768532098928
sg17
I01
sbsg15
I1
sg21
(imyEvolve
Tree
p216
(dp217
g15
I0
sg17
I00
sbsg18
I00
sg19
g93
sbsg15
I2
sg18
I01
sg19
g20
sbsg15
I3
sg18
I01
sg19
g55
sba(imyEvolve
Tree
p218
(dp219
g7
(imyEvolve
Tree
p220
(dp221
g10
(imyEvolve
Tree
p222
(dp223
g10
(imyEvolve
Tree
p224
(dp225
g7
(imyEvolve
Tree
p226
(dp227
g15
I0
sg17
I00
sbsg15
I1
sg21
(imyEvolve
Tree
p228
(dp229
g15
I0
sg16
F-4.2658845076695435
sg17
I01
sbsg18
I00
sg19
g46
sbsg15
I2
sg18
I01
sg19
g28
sbsg15
I3
sg18
I01
sg19
g55
sbsg15
I4
sg21
(imyEvolve
Tree
p230
(dp231
g7
(imyEvolve
Tree
p232
(dp233
g7
(imyEvolve
Tree
p234
(dp235
g10
(imyEvolve
Tree
p236
(dp237
g15
I0
sg16
F-0.7151891930270349
sg17
I01
sbsg15
I1
sg18
I01
sg19
g68
sbsg15
I2
sg21
(imyEvolve
Tree
p238
(dp239
g7
(imyEvolve
Tree
p240
(dp241
g15
I0
sg17
I00
sbsg15
I1
sg21
(imyEvolve
Tree
p242
(dp243
g15
I0
sg17
I00
sbsg18
I00
sg19
g93
sbsg18
I00
sg19
g46
sbsg15
I3
sg21
(imyEvolve
Tree
p244
(dp245
g7
(imyEvolve
Tree
p246
(dp247
g7
(imyEvolve
Tree
p248
(dp249
g15
I0
sg17
I00
sbsg15
I1
sg21
(imyEvolve
Tree
p250
(dp251
g15
I0
sg17
I00
sbsg18
I00
sg19
g93
sbsg15
I2
sg21
(imyEvolve
Tree
p252
(dp253
g10
(imyEvolve
Tree
p254
(dp255
g15
I0
sg17
I00
sbsg15
I1
sg18
I01
sg19
g28
sbsg18
I00
sg19
g29
sbsg18
I00
sg19
g46
sbsg18
I00
sg19
g93
sba(imyEvolve
Tree
p256
(dp257
g15
I5
sg7
(imyEvolve
Tree
p258
(dp259
g10
(imyEvolve
Tree
p260
(dp261
g10
(imyEvolve
Tree
p262
(dp263
g10
(imyEvolve
Tree
p264
(dp265
g10
(imyEvolve
Tree
p266
(dp267
g15
I0
sg16
F4.418423678312962
sg17
I01
sbsg15
I1
sg18
I01
sg19
g28
sbsg15
I2
sg18
I01
sg19
g55
sbsg15
I3
sg18
I01
sg19
g28
sbsg15
I4
sg18
I01
sg19
g68
sbsg21
(imyEvolve
Tree
p268
(dp269
g10
(imyEvolve
Tree
p270
(dp271
g10
(imyEvolve
Tree
p272
(dp273
g15
I2
sg7
(imyEvolve
Tree
p274
(dp275
g10
(imyEvolve
Tree
p276
(dp277
g15
I0
sg16
F-0.8802753781495101
sg17
I01
sbsg15
I1
sg18
I01
sg19
g28
sbsg21
(imyEvolve
Tree
p278
(dp279
g10
(imyEvolve
Tree
p280
(dp281
g15
I0
sg16
F-3.6681476594519626
sg17
I01
sbsg15
I1
sg18
I01
sg19
g55
sbsg18
I00
sg19
g29
sbsg15
I3
sg18
I01
sg19
g68
sbsg15
I4
sg18
I01
sg19
g68
sbsg18
I00
sg19
g93
sba(imyEvolve
Tree
p282
(dp283
g7
(imyEvolve
Tree
p284
(dp285
g7
(imyEvolve
Tree
p286
(dp287
g15
I0
sg16
F-2.6035793568859567
sg17
I01
sbsg15
I1
sg21
(imyEvolve
Tree
p288
(dp289
g15
I0
sg17
I00
sbsg18
I00
sg19
g46
sbsg15
I2
sg21
(imyEvolve
Tree
p290
(dp291
g7
(imyEvolve
Tree
p292
(dp293
g15
I0
sg17
I00
sbsg15
I1
sg21
(imyEvolve
Tree
p294
(dp295
g15
I0
sg17
I00
sbsg18
I00
sg19
g93
sbsg18
I00
sg19
g93
sba(imyEvolve
Tree
p296
(dp297
g10
(imyEvolve
Tree
p298
(dp299
g10
(imyEvolve
Tree
p300
(dp301
g15
I3
sg7
(imyEvolve
Tree
p302
(dp303
g10
(imyEvolve
Tree
p304
(dp305
g15
I1
sg7
(imyEvolve
Tree
p306
(dp307
g15
I0
sg17
I00
sbsg21
(imyEvolve
Tree
p308
(dp309
g15
I0
sg17
I00
sbsg18
I00
sg19
g93
sbsg15
I2
sg18
I01
sg19
g68
sbsg21
(imyEvolve
Tree
p310
(dp311
g10
(imyEvolve
Tree
p312
(dp313
g10
(imyEvolve
Tree
p314
(dp315
g15
I0
sg16
F-0.6036946543822328
sg17
I01
sbsg15
I1
sg18
I01
sg19
g20
sbsg15
I2
sg18
I01
sg19
g20
sbsg18
I00
sg19
g46
sbsg15
I4
sg18
I01
sg19
g55
sbsg15
I5
sg18
I01
sg19
g68
sba(imyEvolve
Tree
p316
(dp317
g7
(imyEvolve
Tree
p318
(dp319
g7
(imyEvolve
Tree
p320
(dp321
g15
I0
sg16
F3.178338160170977
sg17
I01
sbsg15
I1
sg21
(imyEvolve
Tree
p322
(dp323
g15
I0
sg17
I00
sbsg18
I00
sg19
g93
sbsg15
I2
sg21
(imyEvolve
Tree
p324
(dp325
g7
(imyEvolve
Tree
p326
(dp327
g15
I0
sg16
F4.65916394773997
sg17
I01
sbsg15
I1
sg21
(imyEvolve
Tree
p328
(dp329
g15
I0
sg17
I00
sbsg18
I00
sg19
g46
sbsg18
I00
sg19
g29
sbaa(lp330
(imyEvolve
Tree
p331
(dp332
g10
(imyEvolve
Tree
p333
(dp334
g7
(imyEvolve
Tree
p335
(dp336
g7
(imyEvolve
Tree
p337
(dp338
g15
I0
sg17
I00
sbsg15
I1
sg21
(imyEvolve
Tree
p339
(dp340
g15
I0
sg17
I00
sbsg18
I00
sg19
g46
sbsg15
I2
sg21
(imyEvolve
Tree
p341
(dp342
g10
(imyEvolve
Tree
p343
(dp344
g15
I0
sg17
I00
sbsg15
I1
sg18
I01
sg19
g28
sbsg18
I00
sg19
g93
sbsg15
I3
sg18
I01
sg19
g20
sba(imyEvolve
Tree
p345
(dp346
g10
(imyEvolve
Tree
p347
(dp348
g7
(imyEvolve
Tree
p349
(dp350
g7
(imyEvolve
Tree
p351
(dp352
g10
(imyEvolve
Tree
p353
(dp354
g15
I0
sg17
I00
sbsg15
I1
sg18
I01
sg19
g20
sbsg15
I2
sg21
(imyEvolve
Tree
p355
(dp356
g10
(imyEvolve
Tree
p357
(dp358
g15
I0
sg17
I00
sbsg15
I1
sg18
I01
sg19
g28
sbsg18
I00
sg19
g46
sbsg15
I3
sg21
(imyEvolve
Tree
p359
(dp360
g7
(imyEvolve
Tree
p361
(dp362
g10
(imyEvolve
Tree
p363
(dp364
g15
I0
sg17
I00
sbsg15
I1
sg18
I01
sg19
g28
sbsg15
I2
sg21
(imyEvolve
Tree
p365
(dp366
g7
(imyEvolve
Tree
p367
(dp368
g15
I0
sg16
F-0.49695795130495135
sg17
I01
sbsg15
I1
sg21
(imyEvolve
Tree
p369
(dp370
g15
I0
sg17
I00
sbsg18
I00
sg19
g29
sbsg18
I00
sg19
g29
sbsg18
I00
sg19
g29
sbsg15
I4
sg18
I01
sg19
g28
sba(imyEvolve
Tree
p371
(dp372
g7
(imyEvolve
Tree
p373
(dp374
g10
(imyEvolve
Tree
p375
(dp376
g10
(imyEvolve
Tree
p377
(dp378
g10
(imyEvolve
Tree
p379
(dp380
g10
(imyEvolve
Tree
p381
(dp382
g15
I0
sg17
I00
sbsg15
I1
sg18
I01
sg19
g20
sbsg15
I2
sg18
I01
sg19
g68
sbsg15
I3
sg18
I01
sg19
g28
sbsg15
I4
sg18
I01
sg19
g28
sbsg15
I5
sg21
(imyEvolve
Tree
p383
(dp384
g10
(imyEvolve
Tree
p385
(dp386
g7
(imyEvolve
Tree
p387
(dp388
g10
(imyEvolve
Tree
p389
(dp390
g10
(imyEvolve
Tree
p391
(dp392
g15
I0
sg17
I00
sbsg15
I1
sg18
I01
sg19
g20
sbsg15
I2
sg18
I01
sg19
g55
sbsg15
I3
sg21
(imyEvolve
Tree
p393
(dp394
g10
(imyEvolve
Tree
p395
(dp396
g7
(imyEvolve
Tree
p397
(dp398
g15
I0
sg16
F0.7053577025429858
sg17
I01
sbsg15
I1
sg21
(imyEvolve
Tree
p399
(dp400
g15
I0
sg17
I00
sbsg18
I00
sg19
g93
sbsg15
I2
sg18
I01
sg19
g68
sbsg18
I00
sg19
g46
sbsg15
I4
sg18
I01
sg19
g55
sbsg18
I00
sg19
g46
sba(imyEvolve
Tree
p401
(dp402
g7
(imyEvolve
Tree
p403
(dp404
g7
(imyEvolve
Tree
p405
(dp406
g15
I0
sg16
F-3.0558260228894008
sg17
I01
sbsg15
I1
sg21
(imyEvolve
Tree
p407
(dp408
g15
I0
sg17
I00
sbsg18
I00
sg19
g46
sbsg15
I2
sg21
(imyEvolve
Tree
p409
(dp410
g7
(imyEvolve
Tree
p411
(dp412
g15
I0
sg16
F-1.4200020506221467
sg17
I01
sbsg15
I1
sg21
(imyEvolve
Tree
p413
(dp414
g15
I0
sg17
I00
sbsg18
I00
sg19
g29
sbsg18
I00
sg19
g46
sba(imyEvolve
Tree
p415
(dp416
g7
(imyEvolve
Tree
p417
(dp418
g7
(imyEvolve
Tree
p419
(dp420
g10
(imyEvolve
Tree
p421
(dp422
g10
(imyEvolve
Tree
p423
(dp424
g15
I0
sg17
I00
sbsg15
I1
sg18
I01
sg19
g68
sbsg15
I2
sg18
I01
sg19
g20
sbsg15
I3
sg21
(imyEvolve
Tree
p425
(dp426
g10
(imyEvolve
Tree
p427
(dp428
g10
(imyEvolve
Tree
p429
(dp430
g15
I0
sg16
F1.0001772943947085
sg17
I01
sbsg15
I1
sg18
I01
sg19
g68
sbsg15
I2
sg18
I01
sg19
g55
sbsg18
I00
sg19
g46
sbsg15
I4
sg21
(imyEvolve
Tree
p431
(dp432
g7
(imyEvolve
Tree
p433
(dp434
g7
(imyEvolve
Tree
p435
(dp436
g7
(imyEvolve
Tree
p437
(dp438
g15
I0
sg17
I00
sbsg15
I1
sg21
(imyEvolve
Tree
p439
(dp440
g15
I0
sg16
F-4.020805249285849
sg17
I01
sbsg18
I00
sg19
g93
sbsg15
I2
sg21
(imyEvolve
Tree
p441
(dp442
g10
(imyEvolve
Tree
p443
(dp444
g15
I0
sg16
F1.3094354558865309
sg17
I01
sbsg15
I1
sg18
I01
sg19
g28
sbsg18
I00
sg19
g93
sbsg15
I3
sg21
(imyEvolve
Tree
p445
(dp446
g10
(imyEvolve
Tree
p447
(dp448
g7
(imyEvolve
Tree
p449
(dp450
g15
I0
sg16
F-3.0168504602466117
sg17
I01
sbsg15
I1
sg21
(imyEvolve
Tree
p451
(dp452
g15
I0
sg16
F0.044594014025860496
sg17
I01
sbsg18
I00
sg19
g29
sbsg15
I2
sg18
I01
sg19
g20
sbsg18
I00
sg19
g29
sbsg18
I00
sg19
g29
sba(imyEvolve
Tree
p453
(dp454
g10
(imyEvolve
Tree
p455
(dp456
g10
(imyEvolve
Tree
p457
(dp458
g10
(imyEvolve
Tree
p459
(dp460
g7
(imyEvolve
Tree
p461
(dp462
g10
(imyEvolve
Tree
p463
(dp464
g15
I0
sg16
F-3.982236252416792
sg17
I01
sbsg15
I1
sg18
I01
sg19
g55
sbsg15
I2
sg21
(imyEvolve
Tree
p465
(dp466
g7
(imyEvolve
Tree
p467
(dp468
g15
I0
sg17
I00
sbsg15
I1
sg21
(imyEvolve
Tree
p469
(dp470
g15
I0
sg16
F-0.7219055781401007
sg17
I01
sbsg18
I00
sg19
g29
sbsg18
I00
sg19
g46
sbsg15
I3
sg18
I01
sg19
g68
sbsg15
I4
sg18
I01
sg19
g20
sbsg15
I5
sg18
I01
sg19
g55
sba(imyEvolve
Tree
p471
(dp472
g10
(imyEvolve
Tree
p473
(dp474
g10
(imyEvolve
Tree
p475
(dp476
g7
(imyEvolve
Tree
p477
(dp478
g10
(imyEvolve
Tree
p479
(dp480
g7
(imyEvolve
Tree
p481
(dp482
g15
I0
sg16
F4.724329071510255
sg17
I01
sbsg15
I1
sg21
(imyEvolve
Tree
p483
(dp484
g15
I0
sg17
I00
sbsg18
I00
sg19
g29
sbsg15
I2
sg18
I01
sg19
g20
sbsg15
I3
sg21
(imyEvolve
Tree
p485
(dp486
g7
(imyEvolve
Tree
p487
(dp488
g10
(imyEvolve
Tree
p489
(dp490
g15
I0
sg16
F3.1712726919715237
sg17
I01
sbsg15
I1
sg18
I01
sg19
g20
sbsg15
I2
sg21
(imyEvolve
Tree
p491
(dp492
g10
(imyEvolve
Tree
p493
(dp494
g15
I0
sg16
F-2.4378044028652592
sg17
I01
sbsg15
I1
sg18
I01
sg19
g20
sbsg18
I00
sg19
g93
sbsg18
I00
sg19
g93
sbsg15
I4
sg18
I01
sg19
g68
sbsg15
I5
sg18
I01
sg19
g28
sba(imyEvolve
Tree
p495
(dp496
g10
(imyEvolve
Tree
p497
(dp498
g10
(imyEvolve
Tree
p499
(dp500
g7
(imyEvolve
Tree
p501
(dp502
g7
(imyEvolve
Tree
p503
(dp504
g15
I0
sg16
F-0.9638951237623434
sg17
I01
sbsg15
I1
sg21
(imyEvolve
Tree
p505
(dp506
g15
I0
sg17
I00
sbsg18
I00
sg19
g29
sbsg15
I2
sg21
(imyEvolve
Tree
p507
(dp508
g7
(imyEvolve
Tree
p509
(dp510
g15
I0
sg16
F0.9251340411452533
sg17
I01
sbsg15
I1
sg21
(imyEvolve
Tree
p511
(dp512
g15
I0
sg16
F4.627826208692214
sg17
I01
sbsg18
I00
sg19
g93
sbsg18
I00
sg19
g93
sbsg15
I3
sg18
I01
sg19
g55
sbsg15
I4
sg18
I01
sg19
g20
sba(imyEvolve
Tree
p513
(dp514
g15
I2
sg7
(imyEvolve
Tree
p515
(dp516
g10
(imyEvolve
Tree
p517
(dp518
g15
I0
sg17
I00
sbsg15
I1
sg18
I01
sg19
g20
sbsg21
(imyEvolve
Tree
p519
(dp520
g15
I1
sg7
(imyEvolve
Tree
p521
(dp522
g15
I0
sg17
I00
sbsg21
(imyEvolve
Tree
p523
(dp524
g15
I0
sg16
F1.3975947255557362
sg17
I01
sbsg18
I00
sg19
g29
sbsg18
I00
sg19
g93
sba(imyEvolve
Tree
p525
(dp526
g10
(imyEvolve
Tree
p527
(dp528
g10
(imyEvolve
Tree
p529
(dp530
g15
I3
sg7
(imyEvolve
Tree
p531
(dp532
g10
(imyEvolve
Tree
p533
(dp534
g10
(imyEvolve
Tree
p535
(dp536
g15
I0
sg17
I00
sbsg15
I1
sg18
I01
sg19
g28
sbsg15
I2
sg18
I01
sg19
g20
sbsg21
(imyEvolve
Tree
p537
(dp538
g15
I2
sg7
(imyEvolve
Tree
p539
(dp540
g10
(imyEvolve
Tree
p541
(dp542
g15
I0
sg16
F-0.38835945558447804
sg17
I01
sbsg15
I1
sg18
I01
sg19
g55
sbsg21
(imyEvolve
Tree
p543
(dp544
g10
(imyEvolve
Tree
p545
(dp546
g15
I0
sg17
I00
sbsg15
I1
sg18
I01
sg19
g55
sbsg18
I00
sg19
g29
sbsg18
I00
sg19
g46
sbsg15
I4
sg18
I01
sg19
g20
sbsg15
I5
sg18
I01
sg19
g28
sba(imyEvolve
Tree
p547
(dp548
g7
(imyEvolve
Tree
p549
(dp550
g7
(imyEvolve
Tree
p551
(dp552
g10
(imyEvolve
Tree
p553
(dp554
g15
I0
sg16
F-4.214676492199663
sg17
I01
sbsg15
I1
sg18
I01
sg19
g28
sbsg15
I2
sg21
(imyEvolve
Tree
p555
(dp556
g10
(imyEvolve
Tree
p557
(dp558
g15
I0
sg17
I00
sbsg15
I1
sg18
I01
sg19
g20
sbsg18
I00
sg19
g93
sbsg15
I3
sg21
(imyEvolve
Tree
p559
(dp560
g7
(imyEvolve
Tree
p561
(dp562
g10
(imyEvolve
Tree
p563
(dp564
g15
I0
sg16
F-1.3479012570209257
sg17
I01
sbsg15
I1
sg18
I01
sg19
g20
sbsg15
I2
sg21
(imyEvolve
Tree
p565
(dp566
g7
(imyEvolve
Tree
p567
(dp568
g15
I0
sg16
F-0.5293546841931214
sg17
I01
sbsg15
I1
sg21
(imyEvolve
Tree
p569
(dp570
g15
I0
sg17
I00
sbsg18
I00
sg19
g46
sbsg18
I00
sg19
g46
sbsg18
I00
sg19
g46
sba(imyEvolve
Tree
p571
(dp572
g10
(imyEvolve
Tree
p573
(dp574
g10
(imyEvolve
Tree
p575
(dp576
g15
I0
sg16
F4.467544528962547
sg17
I01
sbsg15
I1
sg18
I01
sg19
g28
sbsg15
I2
sg18
I01
sg19
g28
sba(imyEvolve
Tree
p577
(dp578
g7
(imyEvolve
Tree
p579
(dp580
g10
(imyEvolve
Tree
p581
(dp582
g10
(imyEvolve
Tree
p583
(dp584
g7
(imyEvolve
Tree
p585
(dp586
g10
(imyEvolve
Tree
p587
(dp588
g15
I0
sg17
I00
sbsg15
I1
sg18
I01
sg19
g20
sbsg15
I2
sg21
(imyEvolve
Tree
p589
(dp590
g10
(imyEvolve
Tree
p591
(dp592
g15
I0
sg16
F-0.03294635525347367
sg17
I01
sbsg15
I1
sg18
I01
sg19
g68
sbsg18
I00
sg19
g93
sbsg15
I3
sg18
I01
sg19
g28
sbsg15
I4
sg18
I01
sg19
g68
sbsg15
I5
sg21
(imyEvolve
Tree
p593
(dp594
g7
(imyEvolve
Tree
p595
(dp596
g7
(imyEvolve
Tree
p597
(dp598
g7
(imyEvolve
Tree
p599
(dp600
g7
(imyEvolve
Tree
p601
(dp602
g15
I0
sg16
F3.5746065104116163
sg17
I01
sbsg15
I1
sg21
(imyEvolve
Tree
p603
(dp604
g15
I0
sg17
I00
sbsg18
I00
sg19
g46
sbsg15
I2
sg21
(imyEvolve
Tree
p605
(dp606
g10
(imyEvolve
Tree
p607
(dp608
g15
I0
sg16
F1.8914341788979359
sg17
I01
sbsg15
I1
sg18
I01
sg19
g28
sbsg18
I00
sg19
g93
sbsg15
I3
sg21
(imyEvolve
Tree
p609
(dp610
g10
(imyEvolve
Tree
p611
(dp612
g10
(imyEvolve
Tree
p613
(dp614
g15
I0
sg17
I00
sbsg15
I1
sg18
I01
sg19
g55
sbsg15
I2
sg18
I01
sg19
g55
sbsg18
I00
sg19
g46
sbsg15
I4
sg21
(imyEvolve
Tree
p615
(dp616
g7
(imyEvolve
Tree
p617
(dp618
g10
(imyEvolve
Tree
p619
(dp620
g7
(imyEvolve
Tree
p621
(dp622
g15
I0
sg16
F4.407086264078725
sg17
I01
sbsg15
I1
sg21
(imyEvolve
Tree
p623
(dp624
g15
I0
sg17
I00
sbsg18
I00
sg19
g46
sbsg15
I2
sg18
I01
sg19
g68
sbsg15
I3
sg21
(imyEvolve
Tree
p625
(dp626
g10
(imyEvolve
Tree
p627
(dp628
g7
(imyEvolve
Tree
p629
(dp630
g15
I0
sg17
I00
sbsg15
I1
sg21
(imyEvolve
Tree
p631
(dp632
g15
I0
sg17
I00
sbsg18
I00
sg19
g46
sbsg15
I2
sg18
I01
sg19
g55
sbsg18
I00
sg19
g46
sbsg18
I00
sg19
g29
sbsg18
I00
sg19
g29
sba(imyEvolve
Tree
p633
(dp634
g7
(imyEvolve
Tree
p635
(dp636
g7
(imyEvolve
Tree
p637
(dp638
g7
(imyEvolve
Tree
p639
(dp640
g15
I0
sg17
I00
sbsg15
I1
sg21
(imyEvolve
Tree
p641
(dp642
g15
I0
sg17
I00
sbsg18
I00
sg19
g93
sbsg15
I2
sg21
(imyEvolve
Tree
p643
(dp644
g10
(imyEvolve
Tree
p645
(dp646
g15
I0
sg16
F-4.895568681079007
sg17
I01
sbsg15
I1
sg18
I01
sg19
g68
sbsg18
I00
sg19
g93
sbsg15
I3
sg21
(imyEvolve
Tree
p647
(dp648
g7
(imyEvolve
Tree
p649
(dp650
g10
(imyEvolve
Tree
p651
(dp652
g15
I0
sg17
I00
sbsg15
I1
sg18
I01
sg19
g28
sbsg15
I2
sg21
(imyEvolve
Tree
p653
(dp654
g10
(imyEvolve
Tree
p655
(dp656
g15
I0
sg17
I00
sbsg15
I1
sg18
I01
sg19
g20
sbsg18
I00
sg19
g29
sbsg18
I00
sg19
g93
sba(imyEvolve
Tree
p657
(dp658
g7
(imyEvolve
Tree
p659
(dp660
g10
(imyEvolve
Tree
p661
(dp662
g15
I0
sg17
I00
sbsg15
I1
sg18
I01
sg19
g20
sbsg15
I2
sg21
(imyEvolve
Tree
p663
(dp664
g10
(imyEvolve
Tree
p665
(dp666
g15
I0
sg16
F4.337476903860351
sg17
I01
sbsg15
I1
sg18
I01
sg19
g68
sbsg18
I00
sg19
g29
sba(imyEvolve
Tree
p667
(dp668
g10
(imyEvolve
Tree
p669
(dp670
g7
(imyEvolve
Tree
p671
(dp672
g7
(imyEvolve
Tree
p673
(dp674
g15
I0
sg17
I00
sbsg15
I1
sg21
(imyEvolve
Tree
p675
(dp676
g15
I0
sg17
I00
sbsg18
I00
sg19
g93
sbsg15
I2
sg21
(imyEvolve
Tree
p677
(dp678
g10
(imyEvolve
Tree
p679
(dp680
g15
I0
sg16
F-4.706496241494607
sg17
I01
sbsg15
I1
sg18
I01
sg19
g20
sbsg18
I00
sg19
g46
sbsg15
I3
sg18
I01
sg19
g20
sba(imyEvolve
Tree
p681
(dp682
g10
(imyEvolve
Tree
p683
(dp684
g10
(imyEvolve
Tree
p685
(dp686
g10
(imyEvolve
Tree
p687
(dp688
g15
I2
sg7
(imyEvolve
Tree
p689
(dp690
g10
(imyEvolve
Tree
p691
(dp692
g15
I0
sg17
I00
sbsg15
I1
sg18
I01
sg19
g68
sbsg21
(imyEvolve
Tree
p693
(dp694
g15
I1
sg7
(imyEvolve
Tree
p695
(dp696
g15
I0
sg16
F0.780130714578342
sg17
I01
sbsg21
(imyEvolve
Tree
p697
(dp698
g15
I0
sg16
F1.17162262435469
sg17
I01
sbsg18
I00
sg19
g93
sbsg18
I00
sg19
g46
sbsg15
I3
sg18
I01
sg19
g68
sbsg15
I4
sg18
I01
sg19
g55
sbsg15
I5
sg18
I01
sg19
g20
sba(imyEvolve
Tree
p699
(dp700
g15
I5
sg7
(imyEvolve
Tree
p701
(dp702
g10
(imyEvolve
Tree
p703
(dp704
g10
(imyEvolve
Tree
p705
(dp706
g10
(imyEvolve
Tree
p707
(dp708
g15
I1
sg7
(imyEvolve
Tree
p709
(dp710
g15
I0
sg16
F2.5643381505323104
sg17
I01
sbsg21
(imyEvolve
Tree
p711
(dp712
g15
I0
sg17
I00
sbsg18
I00
sg19
g29
sbsg15
I2
sg18
I01
sg19
g20
sbsg15
I3
sg18
I01
sg19
g55
sbsg15
I4
sg18
I01
sg19
g68
sbsg21
(imyEvolve
Tree
p713
(dp714
g15
I4
sg7
(imyEvolve
Tree
p715
(dp716
g10
(imyEvolve
Tree
p717
(dp718
g15
I2
sg7
(imyEvolve
Tree
p719
(dp720
g10
(imyEvolve
Tree
p721
(dp722
g15
I0
sg17
I00
sbsg15
I1
sg18
I01
sg19
g55
sbsg21
(imyEvolve
Tree
p723
(dp724
g10
(imyEvolve
Tree
p725
(dp726
g15
I0
sg16
F4.828526095824779
sg17
I01
sbsg15
I1
sg18
I01
sg19
g28
sbsg18
I00
sg19
g46
sbsg15
I3
sg18
I01
sg19
g28
sbsg21
(imyEvolve
Tree
p727
(dp728
g15
I3
sg7
(imyEvolve
Tree
p729
(dp730
g15
I2
sg7
(imyEvolve
Tree
p731
(dp732
g15
I1
sg7
(imyEvolve
Tree
p733
(dp734
g15
I0
sg17
I00
sbsg21
(imyEvolve
Tree
p735
(dp736
g15
I0
sg17
I00
sbsg18
I00
sg19
g29
sbsg21
(imyEvolve
Tree
p737
(dp738
g10
(imyEvolve
Tree
p739
(dp740
g15
I0
sg17
I00
sbsg15
I1
sg18
I01
sg19
g68
sbsg18
I00
sg19
g29
sbsg21
(imyEvolve
Tree
p741
(dp742
g15
I2
sg7
(imyEvolve
Tree
p743
(dp744
g15
I1
sg7
(imyEvolve
Tree
p745
(dp746
g15
I0
sg16
F-4.111940237096853
sg17
I01
sbsg21
(imyEvolve
Tree
p747
(dp748
g15
I0
sg17
I00
sbsg18
I00
sg19
g29
sbsg21
(imyEvolve
Tree
p749
(dp750
g15
I1
sg7
(imyEvolve
Tree
p751
(dp752
g15
I0
sg17
I00
sbsg21
(imyEvolve
Tree
p753
(dp754
g15
I0
sg17
I00
sbsg18
I00
sg19
g93
sbsg18
I00
sg19
g93
sbsg18
I00
sg19
g46
sbsg18
I00
sg19
g93
sbsg18
I00
sg19
g93
sbaasS'alpha'
p755
F0.0036004114766149736
sS'fitness'
p756
cnumpy.core.multiarray
scalar
p757
(cnumpy
dtype
p758
(S'f8'
p759
I0
I1
tp760
Rp761
(I3
S'<'
p762
NNNI-1
I-1
I0
tp763
bS'!\x1f\xf4\xd8\x99#\xe6?'
p764
tp765
Rp766
sS'weightSharing'
p767
(lp768
I01
asS'fitnessValid'
p769
I00
sS'resolution'
p770
I78
sb.