(imyEvolve
Individual
p0
(dp1
S'funcs'
p2
(lp3
(lp4
(imyEvolve
Tree
p5
(dp6
S'depth'
p7
I3
sS'left'
p8
(imyEvolve
Tree
p9
(dp10
g7
I2
sg8
(imyEvolve
Tree
p11
(dp12
g7
I1
sg8
(imyEvolve
Tree
p13
(dp14
g7
I0
sS'isConstant'
p15
I00
sbsS'right'
p16
(imyEvolve
Tree
p17
(dp18
g7
I0
sg15
I00
sbsS'single'
p19
I00
sS'op'
p20
coperator
sub
p21
sbsg16
(imyEvolve
Tree
p22
(dp23
S'below'
p24
(imyEvolve
Tree
p25
(dp26
g7
I0
sg15
I00
sbsg7
I1
sg19
I01
sg20
cmyEvolve
absSqrt
p27
sbsg19
I00
sg20
g21
sbsg16
(imyEvolve
Tree
p28
(dp29
g24
(imyEvolve
Tree
p30
(dp31
g7
I1
sg8
(imyEvolve
Tree
p32
(dp33
g7
I0
sg15
I00
sbsg16
(imyEvolve
Tree
p34
(dp35
g7
I0
sg15
I00
sbsg19
I00
sg20
g21
sbsg7
I2
sg19
I01
sg20
cmyEvolve
square
p36
sbsg19
I00
sg20
g21
sba(imyEvolve
Tree
p37
(dp38
g7
I3
sg8
(imyEvolve
Tree
p39
(dp40
g24
(imyEvolve
Tree
p41
(dp42
g24
(imyEvolve
Tree
p43
(dp44
g7
I0
sg15
I00
sbsg7
I1
sg19
I01
sg20
cmath
cos
p45
sbsg7
I2
sg19
I01
sg20
g36
sbsg16
(imyEvolve
Tree
p46
(dp47
g7
I2
sg8
(imyEvolve
Tree
p48
(dp49
g24
(imyEvolve
Tree
p50
(dp51
g7
I0
sg15
I00
sbsg7
I1
sg19
I01
sg20
g36
sbsg16
(imyEvolve
Tree
p52
(dp53
g24
(imyEvolve
Tree
p54
(dp55
g7
I0
sS'constant'
p56
F-4.209487501191756
sg15
I01
sbsg7
I1
sg19
I01
sg20
g36
sbsg19
I00
sg20
coperator
mul
p57
sbsg19
I00
sg20
g21
sba(imyEvolve
Tree
p58
(dp59
g7
I3
sg8
(imyEvolve
Tree
p60
(dp61
g24
(imyEvolve
Tree
p62
(dp63
g24
(imyEvolve
Tree
p64
(dp65
g7
I0
sg56
F-0.8776032389177955
sg15
I01
sbsg7
I1
sg19
I01
sg20
g27
sbsg7
I2
sg19
I01
sg20
g36
sbsg16
(imyEvolve
Tree
p66
(dp67
g7
I2
sg8
(imyEvolve
Tree
p68
(dp69
g24
(imyEvolve
Tree
p70
(dp71
g7
I0
sg56
F3.2412630510560962
sg15
I01
sbsg7
I1
sg19
I01
sg20
g27
sbsg16
(imyEvolve
Tree
p72
(dp73
g7
I1
sg8
(imyEvolve
Tree
p74
(dp75
g7
I0
sg15
I00
sbsg16
(imyEvolve
Tree
p76
(dp77
g7
I0
sg15
I00
sbsg19
I00
sg20
g57
sbsg19
I00
sg20
g21
sbsg19
I00
sg20
g21
sba(imyEvolve
Tree
p78
(dp79
g24
(imyEvolve
Tree
p80
(dp81
g24
(imyEvolve
Tree
p82
(dp83
g24
(imyEvolve
Tree
p84
(dp85
g7
I1
sg8
(imyEvolve
Tree
p86
(dp87
g7
I0
sg15
I00
sbsg16
(imyEvolve
Tree
p88
(dp89
g7
I0
sg56
F3.4916664077441535
sg15
I01
sbsg19
I00
sg20
g21
sbsg7
I2
sg19
I01
sg20
g45
sbsg7
I3
sg19
I01
sg20
g27
sbsg7
I4
sg19
I01
sg20
g45
sba(imyEvolve
Tree
p90
(dp91
g24
(imyEvolve
Tree
p92
(dp93
g24
(imyEvolve
Tree
p94
(dp95
g24
(imyEvolve
Tree
p96
(dp97
g7
I1
sg8
(imyEvolve
Tree
p98
(dp99
g7
I0
sg56
F0.9370891895477396
sg15
I01
sbsg16
(imyEvolve
Tree
p100
(dp101
g7
I0
sg15
I00
sbsg19
I00
sg20
coperator
add
p102
sbsg7
I2
sg19
I01
sg20
cmath
sin
p103
sbsg7
I3
sg19
I01
sg20
g36
sbsg7
I4
sg19
I01
sg20
g27
sba(imyEvolve
Tree
p104
(dp105
g7
I2
sg8
(imyEvolve
Tree
p106
(dp107
g24
(imyEvolve
Tree
p108
(dp109
g7
I0
sg15
I00
sbsg7
I1
sg19
I01
sg20
g36
sbsg16
(imyEvolve
Tree
p110
(dp111
g7
I1
sg8
(imyEvolve
Tree
p112
(dp113
g7
I0
sg56
F-4.20903038804199
sg15
I01
sbsg16
(imyEvolve
Tree
p114
(dp115
g7
I0
sg56
F-0.12066936052765342
sg15
I01
sbsg19
I00
sg20
g21
sbsg19
I00
sg20
g102
sba(imyEvolve
Tree
p116
(dp117
g7
I4
sg8
(imyEvolve
Tree
p118
(dp119
g7
I3
sg8
(imyEvolve
Tree
p120
(dp121
g7
I2
sg8
(imyEvolve
Tree
p122
(dp123
g24
(imyEvolve
Tree
p124
(dp125
g7
I0
sg15
I00
sbsg7
I1
sg19
I01
sg20
g36
sbsg16
(imyEvolve
Tree
p126
(dp127
g7
I1
sg8
(imyEvolve
Tree
p128
(dp129
g7
I0
sg15
I00
sbsg16
(imyEvolve
Tree
p130
(dp131
g7
I0
sg56
F3.913526956876794
sg15
I01
sbsg19
I00
sg20
g102
sbsg19
I00
sg20
g21
sbsg16
(imyEvolve
Tree
p132
(dp133
g24
(imyEvolve
Tree
p134
(dp135
g7
I1
sg8
(imyEvolve
Tree
p136
(dp137
g7
I0
sg56
F-3.2680960490395017
sg15
I01
sbsg16
(imyEvolve
Tree
p138
(dp139
g7
I0
sg56
F2.1344702096059196
sg15
I01
sbsg19
I00
sg20
g57
sbsg7
I2
sg19
I01
sg20
g103
sbsg19
I00
sg20
g21
sbsg16
(imyEvolve
Tree
p140
(dp141
g7
I3
sg8
(imyEvolve
Tree
p142
(dp143
g7
I2
sg8
(imyEvolve
Tree
p144
(dp145
g7
I1
sg8
(imyEvolve
Tree
p146
(dp147
g7
I0
sg15
I00
sbsg16
(imyEvolve
Tree
p148
(dp149
g7
I0
sg56
F-2.650240460628037
sg15
I01
sbsg19
I00
sg20
g21
sbsg16
(imyEvolve
Tree
p150
(dp151
g7
I1
sg8
(imyEvolve
Tree
p152
(dp153
g7
I0
sg15
I00
sbsg16
(imyEvolve
Tree
p154
(dp155
g7
I0
sg56
F-1.4642274248614138
sg15
I01
sbsg19
I00
sg20
g57
sbsg19
I00
sg20
g57
sbsg16
(imyEvolve
Tree
p156
(dp157
g24
(imyEvolve
Tree
p158
(dp159
g24
(imyEvolve
Tree
p160
(dp161
g7
I0
sg56
F3.2428255893946023
sg15
I01
sbsg7
I1
sg19
I01
sg20
g36
sbsg7
I2
sg19
I01
sg20
g103
sbsg19
I00
sg20
g21
sbsg19
I00
sg20
g102
sba(imyEvolve
Tree
p162
(dp163
g24
(imyEvolve
Tree
p164
(dp165
g24
(imyEvolve
Tree
p166
(dp167
g7
I0
sg56
F0.40926137242105387
sg15
I01
sbsg7
I1
sg19
I01
sg20
g36
sbsg7
I2
sg19
I01
sg20
g36
sba(imyEvolve
Tree
p168
(dp169
g7
I5
sg8
(imyEvolve
Tree
p170
(dp171
g24
(imyEvolve
Tree
p172
(dp173
g7
I3
sg8
(imyEvolve
Tree
p174
(dp175
g24
(imyEvolve
Tree
p176
(dp177
g7
I1
sg8
(imyEvolve
Tree
p178
(dp179
g7
I0
sg56
F-4.161904277421281
sg15
I01
sbsg16
(imyEvolve
Tree
p180
(dp181
g7
I0
sg56
F0.622069942658019
sg15
I01
sbsg19
I00
sg20
g102
sbsg7
I2
sg19
I01
sg20
g103
sbsg16
(imyEvolve
Tree
p182
(dp183
g7
I2
sg8
(imyEvolve
Tree
p184
(dp185
g7
I1
sg8
(imyEvolve
Tree
p186
(dp187
g7
I0
sg56
F3.361905736267005
sg15
I01
sbsg16
(imyEvolve
Tree
p188
(dp189
g7
I0
sg15
I00
sbsg19
I00
sg20
g57
sbsg16
(imyEvolve
Tree
p190
(dp191
g7
I1
sg8
(imyEvolve
Tree
p192
(dp193
g7
I0
sg56
F3.4214016091566197
sg15
I01
sbsg16
(imyEvolve
Tree
p194
(dp195
g7
I0
sg56
F-2.8143006382256086
sg15
I01
sbsg19
I00
sg20
g102
sbsg19
I00
sg20
g102
sbsg19
I00
sg20
g57
sbsg7
I4
sg19
I01
sg20
g103
sbsg16
(imyEvolve
Tree
p196
(dp197
g7
I4
sg8
(imyEvolve
Tree
p198
(dp199
g24
(imyEvolve
Tree
p200
(dp201
g7
I2
sg8
(imyEvolve
Tree
p202
(dp203
g7
I1
sg8
(imyEvolve
Tree
p204
(dp205
g7
I0
sg15
I00
sbsg16
(imyEvolve
Tree
p206
(dp207
g7
I0
sg56
F-1.6173332446603528
sg15
I01
sbsg19
I00
sg20
g102
sbsg16
(imyEvolve
Tree
p208
(dp209
g24
(imyEvolve
Tree
p210
(dp211
g7
I0
sg56
F-2.3392491126596937
sg15
I01
sbsg7
I1
sg19
I01
sg20
g45
sbsg19
I00
sg20
g102
sbsg7
I3
sg19
I01
sg20
g103
sbsg16
(imyEvolve
Tree
p212
(dp213
g24
(imyEvolve
Tree
p214
(dp215
g24
(imyEvolve
Tree
p216
(dp217
g7
I1
sg8
(imyEvolve
Tree
p218
(dp219
g7
I0
sg15
I00
sbsg16
(imyEvolve
Tree
p220
(dp221
g7
I0
sg15
I00
sbsg19
I00
sg20
g102
sbsg7
I2
sg19
I01
sg20
g27
sbsg7
I3
sg19
I01
sg20
g36
sbsg19
I00
sg20
g57
sbsg19
I00
sg20
g21
sba(imyEvolve
Tree
p222
(dp223
g24
(imyEvolve
Tree
p224
(dp225
g7
I1
sg8
(imyEvolve
Tree
p226
(dp227
g7
I0
sg56
F0.4274862988861381
sg15
I01
sbsg16
(imyEvolve
Tree
p228
(dp229
g7
I0
sg56
F4.4734363463491675
sg15
I01
sbsg19
I00
sg20
g21
sbsg7
I2
sg19
I01
sg20
g103
sba(imyEvolve
Tree
p230
(dp231
g24
(imyEvolve
Tree
p232
(dp233
g24
(imyEvolve
Tree
p234
(dp235
g7
I0
sg15
I00
sbsg7
I1
sg19
I01
sg20
g36
sbsg7
I2
sg19
I01
sg20
g27
sba(imyEvolve
Tree
p236
(dp237
g24
(imyEvolve
Tree
p238
(dp239
g24
(imyEvolve
Tree
p240
(dp241
g7
I0
sg15
I00
sbsg7
I1
sg19
I01
sg20
g36
sbsg7
I2
sg19
I01
sg20
g45
sba(imyEvolve
Tree
p242
(dp243
g24
(imyEvolve
Tree
p244
(dp245
g7
I3
sg8
(imyEvolve
Tree
p246
(dp247
g7
I2
sg8
(imyEvolve
Tree
p248
(dp249
g24
(imyEvolve
Tree
p250
(dp251
g7
I0
sg56
F4.275524810983951
sg15
I01
sbsg7
I1
sg19
I01
sg20
g36
sbsg16
(imyEvolve
Tree
p252
(dp253
g7
I1
sg8
(imyEvolve
Tree
p254
(dp255
g7
I0
sg56
F-0.8185933073614731
sg15
I01
sbsg16
(imyEvolve
Tree
p256
(dp257
g7
I0
sg15
I00
sbsg19
I00
sg20
g21
sbsg19
I00
sg20
g102
sbsg16
(imyEvolve
Tree
p258
(dp259
g24
(imyEvolve
Tree
p260
(dp261
g24
(imyEvolve
Tree
p262
(dp263
g7
I0
sg56
F-2.0990910269809526
sg15
I01
sbsg7
I1
sg19
I01
sg20
g103
sbsg7
I2
sg19
I01
sg20
g27
sbsg19
I00
sg20
g102
sbsg7
I4
sg19
I01
sg20
g36
sbaa(lp264
(imyEvolve
Tree
p265
(dp266
g24
(imyEvolve
Tree
p267
(dp268
g24
(imyEvolve
Tree
p269
(dp270
g7
I2
sg8
(imyEvolve
Tree
p271
(dp272
g24
(imyEvolve
Tree
p273
(dp274
g7
I0
sg56
F3.0533964038752384
sg15
I01
sbsg7
I1
sg19
I01
sg20
g36
sbsg16
(imyEvolve
Tree
p275
(dp276
g24
(imyEvolve
Tree
p277
(dp278
g7
I0
sg15
I00
sbsg7
I1
sg19
I01
sg20
g45
sbsg19
I00
sg20
g102
sbsg7
I3
sg19
I01
sg20
g103
sbsg7
I4
sg19
I01
sg20
g45
sba(imyEvolve
Tree
p279
(dp280
g24
(imyEvolve
Tree
p281
(dp282
g7
I3
sg8
(imyEvolve
Tree
p283
(dp284
g7
I2
sg8
(imyEvolve
Tree
p285
(dp286
g24
(imyEvolve
Tree
p287
(dp288
g7
I0
sg56
F-0.2173787501101243
sg15
I01
sbsg7
I1
sg19
I01
sg20
g27
sbsg16
(imyEvolve
Tree
p289
(dp290
g7
I1
sg8
(imyEvolve
Tree
p291
(dp292
g7
I0
sg56
F-3.2079446916981658
sg15
I01
sbsg16
(imyEvolve
Tree
p293
(dp294
g7
I0
sg15
I00
sbsg19
I00
sg20
g102
sbsg19
I00
sg20
g57
sbsg16
(imyEvolve
Tree
p295
(dp296
g24
(imyEvolve
Tree
p297
(dp298
g24
(imyEvolve
Tree
p299
(dp300
g7
I0
sg56
F-3.584430474991598
sg15
I01
sbsg7
I1
sg19
I01
sg20
g45
sbsg7
I2
sg19
I01
sg20
g103
sbsg19
I00
sg20
g57
sbsg7
I4
sg19
I01
sg20
g103
sba(imyEvolve
Tree
p301
(dp302
g7
I4
sg8
(imyEvolve
Tree
p303
(dp304
g24
(imyEvolve
Tree
p305
(dp306
g7
I2
sg8
(imyEvolve
Tree
p307
(dp308
g7
I1
sg8
(imyEvolve
Tree
p309
(dp310
g7
I0
sg15
I00
sbsg16
(imyEvolve
Tree
p311
(dp312
g7
I0
sg15
I00
sbsg19
I00
sg20
g102
sbsg16
(imyEvolve
Tree
p313
(dp314
g24
(imyEvolve
Tree
p315
(dp316
g7
I0
sg56
F3.5081804068839606
sg15
I01
sbsg7
I1
sg19
I01
sg20
g36
sbsg19
I00
sg20
g57
sbsg7
I3
sg19
I01
sg20
g45
sbsg16
(imyEvolve
Tree
p317
(dp318
g7
I3
sg8
(imyEvolve
Tree
p319
(dp320
g24
(imyEvolve
Tree
p321
(dp322
g24
(imyEvolve
Tree
p323
(dp324
g7
I0
sg15
I00
sbsg7
I1
sg19
I01
sg20
g45
sbsg7
I2
sg19
I01
sg20
g36
sbsg16
(imyEvolve
Tree
p325
(dp326
g24
(imyEvolve
Tree
p327
(dp328
g24
(imyEvolve
Tree
p329
(dp330
g7
I0
sg56
F-3.761665944700571
sg15
I01
sbsg7
I1
sg19
I01
sg20
g45
sbsg7
I2
sg19
I01
sg20
g27
sbsg19
I00
sg20
g21
sbsg19
I00
sg20
g21
sba(imyEvolve
Tree
p331
(dp332
g7
I3
sg8
(imyEvolve
Tree
p333
(dp334
g24
(imyEvolve
Tree
p335
(dp336
g7
I1
sg8
(imyEvolve
Tree
p337
(dp338
g7
I0
sg15
I00
sbsg16
(imyEvolve
Tree
p339
(dp340
g7
I0
sg56
F-1.7072704950486783
sg15
I01
sbsg19
I00
sg20
g102
sbsg7
I2
sg19
I01
sg20
g36
sbsg16
(imyEvolve
Tree
p341
(dp342
g24
(imyEvolve
Tree
p343
(dp344
g7
I1
sg8
(imyEvolve
Tree
p345
(dp346
g7
I0
sg15
I00
sbsg16
(imyEvolve
Tree
p347
(dp348
g7
I0
sg15
I00
sbsg19
I00
sg20
g21
sbsg7
I2
sg19
I01
sg20
g103
sbsg19
I00
sg20
g21
sba(imyEvolve
Tree
p349
(dp350
g7
I5
sg8
(imyEvolve
Tree
p351
(dp352
g24
(imyEvolve
Tree
p353
(dp354
g7
I3
sg8
(imyEvolve
Tree
p355
(dp356
g7
I2
sg8
(imyEvolve
Tree
p357
(dp358
g24
(imyEvolve
Tree
p359
(dp360
g7
I0
sg56
F-4.1908352341635755
sg15
I01
sbsg7
I1
sg19
I01
sg20
g36
sbsg16
(imyEvolve
Tree
p361
(dp362
g24
(imyEvolve
Tree
p363
(dp364
g7
I0
sg15
I00
sbsg7
I1
sg19
I01
sg20
g36
sbsg19
I00
sg20
g102
sbsg16
(imyEvolve
Tree
p365
(dp366
g24
(imyEvolve
Tree
p367
(dp368
g7
I1
sg8
(imyEvolve
Tree
p369
(dp370
g7
I0
sg56
F0.80573638217348
sg15
I01
sbsg16
(imyEvolve
Tree
p371
(dp372
g7
I0
sg15
I00
sbsg19
I00
sg20
g21
sbsg7
I2
sg19
I01
sg20
g27
sbsg19
I00
sg20
g21
sbsg7
I4
sg19
I01
sg20
g27
sbsg16
(imyEvolve
Tree
p373
(dp374
g7
I4
sg8
(imyEvolve
Tree
p375
(dp376
g7
I3
sg8
(imyEvolve
Tree
p377
(dp378
g24
(imyEvolve
Tree
p379
(dp380
g24
(imyEvolve
Tree
p381
(dp382
g7
I0
sg15
I00
sbsg7
I1
sg19
I01
sg20
g103
sbsg7
I2
sg19
I01
sg20
g45
sbsg16
(imyEvolve
Tree
p383
(dp384
g24
(imyEvolve
Tree
p385
(dp386
g7
I1
sg8
(imyEvolve
Tree
p387
(dp388
g7
I0
sg15
I00
sbsg16
(imyEvolve
Tree
p389
(dp390
g7
I0
sg56
F4.347447144242523
sg15
I01
sbsg19
I00
sg20
g102
sbsg7
I2
sg19
I01
sg20
g45
sbsg19
I00
sg20
g21
sbsg16
(imyEvolve
Tree
p391
(dp392
g7
I3
sg8
(imyEvolve
Tree
p393
(dp394
g24
(imyEvolve
Tree
p395
(dp396
g24
(imyEvolve
Tree
p397
(dp398
g7
I0
sg15
I00
sbsg7
I1
sg19
I01
sg20
g45
sbsg7
I2
sg19
I01
sg20
g103
sbsg16
(imyEvolve
Tree
p399
(dp400
g24
(imyEvolve
Tree
p401
(dp402
g24
(imyEvolve
Tree
p403
(dp404
g7
I0
sg56
F-2.0040794672247966
sg15
I01
sbsg7
I1
sg19
I01
sg20
g36
sbsg7
I2
sg19
I01
sg20
g103
sbsg19
I00
sg20
g21
sbsg19
I00
sg20
g21
sbsg19
I00
sg20
g57
sba(imyEvolve
Tree
p405
(dp406
g24
(imyEvolve
Tree
p407
(dp408
g24
(imyEvolve
Tree
p409
(dp410
g7
I1
sg8
(imyEvolve
Tree
p411
(dp412
g7
I0
sg15
I00
sbsg16
(imyEvolve
Tree
p413
(dp414
g7
I0
sg15
I00
sbsg19
I00
sg20
g21
sbsg7
I2
sg19
I01
sg20
g27
sbsg7
I3
sg19
I01
sg20
g36
sba(imyEvolve
Tree
p415
(dp416
g24
(imyEvolve
Tree
p417
(dp418
g24
(imyEvolve
Tree
p419
(dp420
g24
(imyEvolve
Tree
p421
(dp422
g7
I1
sg8
(imyEvolve
Tree
p423
(dp424
g7
I0
sg56
F-3.6359058384293563
sg15
I01
sbsg16
(imyEvolve
Tree
p425
(dp426
g7
I0
sg56
F-0.8122816467628198
sg15
I01
sbsg19
I00
sg20
g57
sbsg7
I2
sg19
I01
sg20
g45
sbsg7
I3
sg19
I01
sg20
g103
sbsg7
I4
sg19
I01
sg20
g27
sba(imyEvolve
Tree
p427
(dp428
g24
(imyEvolve
Tree
p429
(dp430
g24
(imyEvolve
Tree
p431
(dp432
g7
I3
sg8
(imyEvolve
Tree
p433
(dp434
g24
(imyEvolve
Tree
p435
(dp436
g24
(imyEvolve
Tree
p437
(dp438
g7
I0
sg15
I00
sbsg7
I1
sg19
I01
sg20
g36
sbsg7
I2
sg19
I01
sg20
g36
sbsg16
(imyEvolve
Tree
p439
(dp440
g7
I2
sg8
(imyEvolve
Tree
p441
(dp442
g24
(imyEvolve
Tree
p443
(dp444
g7
I0
sg56
F-4.29731804760889
sg15
I01
sbsg7
I1
sg19
I01
sg20
g27
sbsg16
(imyEvolve
Tree
p445
(dp446
g24
(imyEvolve
Tree
p447
(dp448
g7
I0
sg56
F-0.18731386149838958
sg15
I01
sbsg7
I1
sg19
I01
sg20
g103
sbsg19
I00
sg20
g57
sbsg19
I00
sg20
g102
sbsg7
I4
sg19
I01
sg20
g103
sbsg7
I5
sg19
I01
sg20
g45
sba(imyEvolve
Tree
p449
(dp450
g7
I4
sg8
(imyEvolve
Tree
p451
(dp452
g7
I3
sg8
(imyEvolve
Tree
p453
(dp454
g7
I2
sg8
(imyEvolve
Tree
p455
(dp456
g7
I1
sg8
(imyEvolve
Tree
p457
(dp458
g7
I0
sg15
I00
sbsg16
(imyEvolve
Tree
p459
(dp460
g7
I0
sg56
F-1.2257047659848475
sg15
I01
sbsg19
I00
sg20
g102
sbsg16
(imyEvolve
Tree
p461
(dp462
g7
I1
sg8
(imyEvolve
Tree
p463
(dp464
g7
I0
sg56
F0.957012241236157
sg15
I01
sbsg16
(imyEvolve
Tree
p465
(dp466
g7
I0
sg15
I00
sbsg19
I00
sg20
g102
sbsg19
I00
sg20
g21
sbsg16
(imyEvolve
Tree
p467
(dp468
g7
I2
sg8
(imyEvolve
Tree
p469
(dp470
g24
(imyEvolve
Tree
p471
(dp472
g7
I0
sg15
I00
sbsg7
I1
sg19
I01
sg20
g103
sbsg16
(imyEvolve
Tree
p473
(dp474
g24
(imyEvolve
Tree
p475
(dp476
g7
I0
sg15
I00
sbsg7
I1
sg19
I01
sg20
g45
sbsg19
I00
sg20
g102
sbsg19
I00
sg20
g102
sbsg16
(imyEvolve
Tree
p477
(dp478
g24
(imyEvolve
Tree
p479
(dp480
g24
(imyEvolve
Tree
p481
(dp482
g24
(imyEvolve
Tree
p483
(dp484
g7
I0
sg15
I00
sbsg7
I1
sg19
I01
sg20
g27
sbsg7
I2
sg19
I01
sg20
g27
sbsg7
I3
sg19
I01
sg20
g36
sbsg19
I00
sg20
g21
sba(imyEvolve
Tree
p485
(dp486
g7
I3
sg8
(imyEvolve
Tree
p487
(dp488
g7
I2
sg8
(imyEvolve
Tree
p489
(dp490
g24
(imyEvolve
Tree
p491
(dp492
g7
I0
sg15
I00
sbsg7
I1
sg19
I01
sg20
g27
sbsg16
(imyEvolve
Tree
p493
(dp494
g24
(imyEvolve
Tree
p495
(dp496
g7
I0
sg56
F2.041847011883343
sg15
I01
sbsg7
I1
sg19
I01
sg20
g103
sbsg19
I00
sg20
g21
sbsg16
(imyEvolve
Tree
p497
(dp498
g7
I2
sg8
(imyEvolve
Tree
p499
(dp500
g7
I1
sg8
(imyEvolve
Tree
p501
(dp502
g7
I0
sg15
I00
sbsg16
(imyEvolve
Tree
p503
(dp504
g7
I0
sg56
F-0.2819816372548196
sg15
I01
sbsg19
I00
sg20
g102
sbsg16
(imyEvolve
Tree
p505
(dp506
g7
I1
sg8
(imyEvolve
Tree
p507
(dp508
g7
I0
sg15
I00
sbsg16
(imyEvolve
Tree
p509
(dp510
g7
I0
sg15
I00
sbsg19
I00
sg20
g102
sbsg19
I00
sg20
g21
sbsg19
I00
sg20
g21
sbaa(lp511
(imyEvolve
Tree
p512
(dp513
g24
(imyEvolve
Tree
p514
(dp515
g24
(imyEvolve
Tree
p516
(dp517
g7
I0
sg56
F3.0148735061490566
sg15
I01
sbsg7
I1
sg19
I01
sg20
g36
sbsg7
I2
sg19
I01
sg20
g45
sba(imyEvolve
Tree
p518
(dp519
g24
(imyEvolve
Tree
p520
(dp521
g24
(imyEvolve
Tree
p522
(dp523
g7
I2
sg8
(imyEvolve
Tree
p524
(dp525
g7
I1
sg8
(imyEvolve
Tree
p526
(dp527
g7
I0
sg15
I00
sbsg16
(imyEvolve
Tree
p528
(dp529
g7
I0
sg56
F0.5187493141254604
sg15
I01
sbsg19
I00
sg20
g21
sbsg16
(imyEvolve
Tree
p530
(dp531
g24
(imyEvolve
Tree
p532
(dp533
g7
I0
sg56
F4.267146088074746
sg15
I01
sbsg7
I1
sg19
I01
sg20
g103
sbsg19
I00
sg20
g57
sbsg7
I3
sg19
I01
sg20
g27
sbsg7
I4
sg19
I01
sg20
g36
sba(imyEvolve
Tree
p534
(dp535
g7
I2
sg8
(imyEvolve
Tree
p536
(dp537
g7
I1
sg8
(imyEvolve
Tree
p538
(dp539
g7
I0
sg56
F4.832903856393418
sg15
I01
sbsg16
(imyEvolve
Tree
p540
(dp541
g7
I0
sg15
I00
sbsg19
I00
sg20
g102
sbsg16
(imyEvolve
Tree
p542
(dp543
g7
I1
sg8
(imyEvolve
Tree
p544
(dp545
g7
I0
sg15
I00
sbsg16
(imyEvolve
Tree
p546
(dp547
g7
I0
sg15
I00
sbsg19
I00
sg20
g102
sbsg19
I00
sg20
g102
sba(imyEvolve
Tree
p548
(dp549
g7
I2
sg8
(imyEvolve
Tree
p550
(dp551
g7
I1
sg8
(imyEvolve
Tree
p552
(dp553
g7
I0
sg56
F-1.7444205151812953
sg15
I01
sbsg16
(imyEvolve
Tree
p554
(dp555
g7
I0
sg56
F4.883210640511411
sg15
I01
sbsg19
I00
sg20
g21
sbsg16
(imyEvolve
Tree
p556
(dp557
g7
I1
sg8
(imyEvolve
Tree
p558
(dp559
g7
I0
sg56
F-4.077838139851854
sg15
I01
sbsg16
(imyEvolve
Tree
p560
(dp561
g7
I0
sg56
F2.9793788821352765
sg15
I01
sbsg19
I00
sg20
g102
sbsg19
I00
sg20
g21
sba(imyEvolve
Tree
p562
(dp563
g24
(imyEvolve
Tree
p564
(dp565
g7
I1
sg8
(imyEvolve
Tree
p566
(dp567
g7
I0
sg56
F1.5829318089814803
sg15
I01
sbsg16
(imyEvolve
Tree
p568
(dp569
g7
I0
sg56
F2.518563678057408
sg15
I01
sbsg19
I00
sg20
g102
sbsg7
I2
sg19
I01
sg20
g103
sba(imyEvolve
Tree
p570
(dp571
g7
I4
sg8
(imyEvolve
Tree
p572
(dp573
g24
(imyEvolve
Tree
p574
(dp575
g7
I2
sg8
(imyEvolve
Tree
p576
(dp577
g24
(imyEvolve
Tree
p578
(dp579
g7
I0
sg15
I00
sbsg7
I1
sg19
I01
sg20
g36
sbsg16
(imyEvolve
Tree
p580
(dp581
g7
I1
sg8
(imyEvolve
Tree
p582
(dp583
g7
I0
sg56
F2.363432044422286
sg15
I01
sbsg16
(imyEvolve
Tree
p584
(dp585
g7
I0
sg15
I00
sbsg19
I00
sg20
g57
sbsg19
I00
sg20
g21
sbsg7
I3
sg19
I01
sg20
g27
sbsg16
(imyEvolve
Tree
p586
(dp587
g7
I3
sg8
(imyEvolve
Tree
p588
(dp589
g24
(imyEvolve
Tree
p590
(dp591
g24
(imyEvolve
Tree
p592
(dp593
g7
I0
sg15
I00
sbsg7
I1
sg19
I01
sg20
g45
sbsg7
I2
sg19
I01
sg20
g103
sbsg16
(imyEvolve
Tree
p594
(dp595
g24
(imyEvolve
Tree
p596
(dp597
g24
(imyEvolve
Tree
p598
(dp599
g7
I0
sg15
I00
sbsg7
I1
sg19
I01
sg20
g103
sbsg7
I2
sg19
I01
sg20
g103
sbsg19
I00
sg20
g21
sbsg19
I00
sg20
g102
sba(imyEvolve
Tree
p600
(dp601
g7
I2
sg8
(imyEvolve
Tree
p602
(dp603
g24
(imyEvolve
Tree
p604
(dp605
g7
I0
sg15
I00
sbsg7
I1
sg19
I01
sg20
g103
sbsg16
(imyEvolve
Tree
p606
(dp607
g24
(imyEvolve
Tree
p608
(dp609
g7
I0
sg15
I00
sbsg7
I1
sg19
I01
sg20
g45
sbsg19
I00
sg20
g57
sba(imyEvolve
Tree
p610
(dp611
g7
I3
sg8
(imyEvolve
Tree
p612
(dp613
g24
(imyEvolve
Tree
p614
(dp615
g7
I1
sg8
(imyEvolve
Tree
p616
(dp617
g7
I0
sg15
I00
sbsg16
(imyEvolve
Tree
p618
(dp619
g7
I0
sg56
F-3.4586048052140983
sg15
I01
sbsg19
I00
sg20
g102
sbsg7
I2
sg19
I01
sg20
g103
sbsg16
(imyEvolve
Tree
p620
(dp621
g7
I2
sg8
(imyEvolve
Tree
p622
(dp623
g24
(imyEvolve
Tree
p624
(dp625
g7
I0
sg56
F3.4145198243162636
sg15
I01
sbsg7
I1
sg19
I01
sg20
g45
sbsg16
(imyEvolve
Tree
p626
(dp627
g7
I1
sg8
(imyEvolve
Tree
p628
(dp629
g7
I0
sg56
F0.7573874501735425
sg15
I01
sbsg16
(imyEvolve
Tree
p630
(dp631
g7
I0
sg15
I00
sbsg19
I00
sg20
g102
sbsg19
I00
sg20
g21
sbsg19
I00
sg20
g102
sba(imyEvolve
Tree
p632
(dp633
g24
(imyEvolve
Tree
p634
(dp635
g24
(imyEvolve
Tree
p636
(dp637
g7
I3
sg8
(imyEvolve
Tree
p638
(dp639
g24
(imyEvolve
Tree
p640
(dp641
g7
I1
sg8
(imyEvolve
Tree
p642
(dp643
g7
I0
sg15
I00
sbsg16
(imyEvolve
Tree
p644
(dp645
g7
I0
sg15
I00
sbsg19
I00
sg20
g21
sbsg7
I2
sg19
I01
sg20
g36
sbsg16
(imyEvolve
Tree
p646
(dp647
g7
I2
sg8
(imyEvolve
Tree
p648
(dp649
g24
(imyEvolve
Tree
p650
(dp651
g7
I0
sg56
F3.0782079961522903
sg15
I01
sbsg7
I1
sg19
I01
sg20
g45
sbsg16
(imyEvolve
Tree
p652
(dp653
g24
(imyEvolve
Tree
p654
(dp655
g7
I0
sg15
I00
sbsg7
I1
sg19
I01
sg20
g36
sbsg19
I00
sg20
g21
sbsg19
I00
sg20
g102
sbsg7
I4
sg19
I01
sg20
g36
sbsg7
I5
sg19
I01
sg20
g45
sba(imyEvolve
Tree
p656
(dp657
g24
(imyEvolve
Tree
p658
(dp659
g7
I1
sg8
(imyEvolve
Tree
p660
(dp661
g7
I0
sg15
I00
sbsg16
(imyEvolve
Tree
p662
(dp663
g7
I0
sg15
I00
sbsg19
I00
sg20
g102
sbsg7
I2
sg19
I01
sg20
g45
sba(imyEvolve
Tree
p664
(dp665
g24
(imyEvolve
Tree
p666
(dp667
g7
I3
sg8
(imyEvolve
Tree
p668
(dp669
g24
(imyEvolve
Tree
p670
(dp671
g7
I1
sg8
(imyEvolve
Tree
p672
(dp673
g7
I0
sg56
F1.0285710234352665
sg15
I01
sbsg16
(imyEvolve
Tree
p674
(dp675
g7
I0
sg15
I00
sbsg19
I00
sg20
g21
sbsg7
I2
sg19
I01
sg20
g103
sbsg16
(imyEvolve
Tree
p676
(dp677
g24
(imyEvolve
Tree
p678
(dp679
g7
I1
sg8
(imyEvolve
Tree
p680
(dp681
g7
I0
sg15
I00
sbsg16
(imyEvolve
Tree
p682
(dp683
g7
I0
sg15
I00
sbsg19
I00
sg20
g57
sbsg7
I2
sg19
I01
sg20
g27
sbsg19
I00
sg20
g102
sbsg7
I4
sg19
I01
sg20
g103
sbaa(lp684
(imyEvolve
Tree
p685
(dp686
g24
(imyEvolve
Tree
p687
(dp688
g24
(imyEvolve
Tree
p689
(dp690
g24
(imyEvolve
Tree
p691
(dp692
g24
(imyEvolve
Tree
p693
(dp694
g7
I1
sg8
(imyEvolve
Tree
p695
(dp696
g7
I0
sg15
I00
sbsg16
(imyEvolve
Tree
p697
(dp698
g7
I0
sg56
F0.9759997984280666
sg15
I01
sbsg19
I00
sg20
g57
sbsg7
I2
sg19
I01
sg20
g36
sbsg7
I3
sg19
I01
sg20
g36
sbsg7
I4
sg19
I01
sg20
g36
sbsg7
I5
sg19
I01
sg20
g27
sba(imyEvolve
Tree
p699
(dp700
g24
(imyEvolve
Tree
p701
(dp702
g24
(imyEvolve
Tree
p703
(dp704
g7
I1
sg8
(imyEvolve
Tree
p705
(dp706
g7
I0
sg56
F2.914249287366779
sg15
I01
sbsg16
(imyEvolve
Tree
p707
(dp708
g7
I0
sg56
F-1.581070178245887
sg15
I01
sbsg19
I00
sg20
g102
sbsg7
I2
sg19
I01
sg20
g36
sbsg7
I3
sg19
I01
sg20
g103
sba(imyEvolve
Tree
p709
(dp710
g24
(imyEvolve
Tree
p711
(dp712
g24
(imyEvolve
Tree
p713
(dp714
g7
I1
sg8
(imyEvolve
Tree
p715
(dp716
g7
I0
sg56
F-1.6610641637732035
sg15
I01
sbsg16
(imyEvolve
Tree
p717
(dp718
g7
I0
sg15
I00
sbsg19
I00
sg20
g21
sbsg7
I2
sg19
I01
sg20
g36
sbsg7
I3
sg19
I01
sg20
g45
sba(imyEvolve
Tree
p719
(dp720
g7
I2
sg8
(imyEvolve
Tree
p721
(dp722
g7
I1
sg8
(imyEvolve
Tree
p723
(dp724
g7
I0
sg56
F2.3048411069816757
sg15
I01
sbsg16
(imyEvolve
Tree
p725
(dp726
g7
I0
sg56
F-4.58945808759307
sg15
I01
sbsg19
I00
sg20
g21
sbsg16
(imyEvolve
Tree
p727
(dp728
g7
I1
sg8
(imyEvolve
Tree
p729
(dp730
g7
I0
sg15
I00
sbsg16
(imyEvolve
Tree
p731
(dp732
g7
I0
sg15
I00
sbsg19
I00
sg20
g21
sbsg19
I00
sg20
g57
sba(imyEvolve
Tree
p733
(dp734
g7
I3
sg8
(imyEvolve
Tree
p735
(dp736
g7
I2
sg8
(imyEvolve
Tree
p737
(dp738
g7
I1
sg8
(imyEvolve
Tree
p739
(dp740
g7
I0
sg56
F1.1743284742335618
sg15
I01
sbsg16
(imyEvolve
Tree
p741
(dp742
g7
I0
sg15
I00
sbsg19
I00
sg20
g21
sbsg16
(imyEvolve
Tree
p743
(dp744
g24
(imyEvolve
Tree
p745
(dp746
g7
I0
sg15
I00
sbsg7
I1
sg19
I01
sg20
g45
sbsg19
I00
sg20
g21
sbsg16
(imyEvolve
Tree
p747
(dp748
g24
(imyEvolve
Tree
p749
(dp750
g24
(imyEvolve
Tree
p751
(dp752
g7
I0
sg56
F1.7996563038153282
sg15
I01
sbsg7
I1
sg19
I01
sg20
g103
sbsg7
I2
sg19
I01
sg20
g27
sbsg19
I00
sg20
g21
sba(imyEvolve
Tree
p753
(dp754
g24
(imyEvolve
Tree
p755
(dp756
g24
(imyEvolve
Tree
p757
(dp758
g24
(imyEvolve
Tree
p759
(dp760
g7
I1
sg8
(imyEvolve
Tree
p761
(dp762
g7
I0
sg15
I00
sbsg16
(imyEvolve
Tree
p763
(dp764
g7
I0
sg56
F1.4043307658968098
sg15
I01
sbsg19
I00
sg20
g21
sbsg7
I2
sg19
I01
sg20
g36
sbsg7
I3
sg19
I01
sg20
g27
sbsg7
I4
sg19
I01
sg20
g45
sba(imyEvolve
Tree
p765
(dp766
g7
I2
sg8
(imyEvolve
Tree
p767
(dp768
g24
(imyEvolve
Tree
p769
(dp770
g7
I0
sg15
I00
sbsg7
I1
sg19
I01
sg20
g103
sbsg16
(imyEvolve
Tree
p771
(dp772
g24
(imyEvolve
Tree
p773
(dp774
g7
I0
sg15
I00
sbsg7
I1
sg19
I01
sg20
g45
sbsg19
I00
sg20
g57
sba(imyEvolve
Tree
p775
(dp776
g7
I3
sg8
(imyEvolve
Tree
p777
(dp778
g24
(imyEvolve
Tree
p779
(dp780
g24
(imyEvolve
Tree
p781
(dp782
g7
I0
sg56
F2.0402049910519704
sg15
I01
sbsg7
I1
sg19
I01
sg20
g27
sbsg7
I2
sg19
I01
sg20
g27
sbsg16
(imyEvolve
Tree
p783
(dp784
g7
I2
sg8
(imyEvolve
Tree
p785
(dp786
g7
I1
sg8
(imyEvolve
Tree
p787
(dp788
g7
I0
sg15
I00
sbsg16
(imyEvolve
Tree
p789
(dp790
g7
I0
sg56
F-4.796898594688191
sg15
I01
sbsg19
I00
sg20
g21
sbsg16
(imyEvolve
Tree
p791
(dp792
g7
I1
sg8
(imyEvolve
Tree
p793
(dp794
g7
I0
sg56
F2.6907278336730736
sg15
I01
sbsg16
(imyEvolve
Tree
p795
(dp796
g7
I0
sg56
F-3.248035667023407
sg15
I01
sbsg19
I00
sg20
g102
sbsg19
I00
sg20
g57
sbsg19
I00
sg20
g57
sba(imyEvolve
Tree
p797
(dp798
g7
I3
sg8
(imyEvolve
Tree
p799
(dp800
g7
I2
sg8
(imyEvolve
Tree
p801
(dp802
g24
(imyEvolve
Tree
p803
(dp804
g7
I0
sg56
F-0.7134283400289396
sg15
I01
sbsg7
I1
sg19
I01
sg20
g103
sbsg16
(imyEvolve
Tree
p805
(dp806
g24
(imyEvolve
Tree
p807
(dp808
g7
I0
sg15
I00
sbsg7
I1
sg19
I01
sg20
g103
sbsg19
I00
sg20
g102
sbsg16
(imyEvolve
Tree
p809
(dp810
g7
I2
sg8
(imyEvolve
Tree
p811
(dp812
g7
I1
sg8
(imyEvolve
Tree
p813
(dp814
g7
I0
sg15
I00
sbsg16
(imyEvolve
Tree
p815
(dp816
g7
I0
sg56
F-4.594337716626221
sg15
I01
sbsg19
I00
sg20
g57
sbsg16
(imyEvolve
Tree
p817
(dp818
g24
(imyEvolve
Tree
p819
(dp820
g7
I0
sg56
F-2.814647809740088
sg15
I01
sbsg7
I1
sg19
I01
sg20
g36
sbsg19
I00
sg20
g57
sbsg19
I00
sg20
g21
sba(imyEvolve
Tree
p821
(dp822
g7
I5
sg8
(imyEvolve
Tree
p823
(dp824
g24
(imyEvolve
Tree
p825
(dp826
g7
I3
sg8
(imyEvolve
Tree
p827
(dp828
g7
I2
sg8
(imyEvolve
Tree
p829
(dp830
g7
I1
sg8
(imyEvolve
Tree
p831
(dp832
g7
I0
sg56
F-2.8753587946687476
sg15
I01
sbsg16
(imyEvolve
Tree
p833
(dp834
g7
I0
sg15
I00
sbsg19
I00
sg20
g102
sbsg16
(imyEvolve
Tree
p835
(dp836
g24
(imyEvolve
Tree
p837
(dp838
g7
I0
sg15
I00
sbsg7
I1
sg19
I01
sg20
g103
sbsg19
I00
sg20
g21
sbsg16
(imyEvolve
Tree
p839
(dp840
g24
(imyEvolve
Tree
p841
(dp842
g7
I1
sg8
(imyEvolve
Tree
p843
(dp844
g7
I0
sg56
F-4.563786655308721
sg15
I01
sbsg16
(imyEvolve
Tree
p845
(dp846
g7
I0
sg15
I00
sbsg19
I00
sg20
g57
sbsg7
I2
sg19
I01
sg20
g45
sbsg19
I00
sg20
g57
sbsg7
I4
sg19
I01
sg20
g36
sbsg16
(imyEvolve
Tree
p847
(dp848
g24
(imyEvolve
Tree
p849
(dp850
g24
(imyEvolve
Tree
p851
(dp852
g7
I2
sg8
(imyEvolve
Tree
p853
(dp854
g7
I1
sg8
(imyEvolve
Tree
p855
(dp856
g7
I0
sg15
I00
sbsg16
(imyEvolve
Tree
p857
(dp858
g7
I0
sg56
F3.9665334075443344
sg15
I01
sbsg19
I00
sg20
g21
sbsg16
(imyEvolve
Tree
p859
(dp860
g24
(imyEvolve
Tree
p861
(dp862
g7
I0
sg15
I00
sbsg7
I1
sg19
I01
sg20
g36
sbsg19
I00
sg20
g21
sbsg7
I3
sg19
I01
sg20
g36
sbsg7
I4
sg19
I01
sg20
g27
sbsg19
I00
sg20
g102
sba(imyEvolve
Tree
p863
(dp864
g24
(imyEvolve
Tree
p865
(dp866
g24
(imyEvolve
Tree
p867
(dp868
g7
I0
sg15
I00
sbsg7
I1
sg19
I01
sg20
g36
sbsg7
I2
sg19
I01
sg20
g103
sba(imyEvolve
Tree
p869
(dp870
g24
(imyEvolve
Tree
p871
(dp872
g7
I3
sg8
(imyEvolve
Tree
p873
(dp874
g24
(imyEvolve
Tree
p875
(dp876
g24
(imyEvolve
Tree
p877
(dp878
g7
I0
sg56
F3.2332290259906937
sg15
I01
sbsg7
I1
sg19
I01
sg20
g45
sbsg7
I2
sg19
I01
sg20
g27
sbsg16
(imyEvolve
Tree
p879
(dp880
g24
(imyEvolve
Tree
p881
(dp882
g24
(imyEvolve
Tree
p883
(dp884
g7
I0
sg56
F-4.223080037679646
sg15
I01
sbsg7
I1
sg19
I01
sg20
g103
sbsg7
I2
sg19
I01
sg20
g45
sbsg19
I00
sg20
g57
sbsg7
I4
sg19
I01
sg20
g45
sba(imyEvolve
Tree
p885
(dp886
g24
(imyEvolve
Tree
p887
(dp888
g24
(imyEvolve
Tree
p889
(dp890
g24
(imyEvolve
Tree
p891
(dp892
g7
I0
sg56
F-0.525521403464559
sg15
I01
sbsg7
I1
sg19
I01
sg20
g45
sbsg7
I2
sg19
I01
sg20
g103
sbsg7
I3
sg19
I01
sg20
g36
sba(imyEvolve
Tree
p893
(dp894
g7
I3
sg8
(imyEvolve
Tree
p895
(dp896
g7
I2
sg8
(imyEvolve
Tree
p897
(dp898
g7
I1
sg8
(imyEvolve
Tree
p899
(dp900
g7
I0
sg56
F-3.6995815181946403
sg15
I01
sbsg16
(imyEvolve
Tree
p901
(dp902
g7
I0
sg15
I00
sbsg19
I00
sg20
g57
sbsg16
(imyEvolve
Tree
p903
(dp904
g7
I1
sg8
(imyEvolve
Tree
p905
(dp906
g7
I0
sg56
F4.39852218170615
sg15
I01
sbsg16
(imyEvolve
Tree
p907
(dp908
g7
I0
sg56
F0.7751002150467903
sg15
I01
sbsg19
I00
sg20
g102
sbsg19
I00
sg20
g102
sbsg16
(imyEvolve
Tree
p909
(dp910
g7
I2
sg8
(imyEvolve
Tree
p911
(dp912
g24
(imyEvolve
Tree
p913
(dp914
g7
I0
sg56
F-1.72300076542916
sg15
I01
sbsg7
I1
sg19
I01
sg20
g27
sbsg16
(imyEvolve
Tree
p915
(dp916
g24
(imyEvolve
Tree
p917
(dp918
g7
I0
sg56
F-3.600216090164947
sg15
I01
sbsg7
I1
sg19
I01
sg20
g27
sbsg19
I00
sg20
g21
sbsg19
I00
sg20
g102
sba(imyEvolve
Tree
p919
(dp920
g24
(imyEvolve
Tree
p921
(dp922
g7
I2
sg8
(imyEvolve
Tree
p923
(dp924
g7
I1
sg8
(imyEvolve
Tree
p925
(dp926
g7
I0
sg15
I00
sbsg16
(imyEvolve
Tree
p927
(dp928
g7
I0
sg15
I00
sbsg19
I00
sg20
g102
sbsg16
(imyEvolve
Tree
p929
(dp930
g7
I1
sg8
(imyEvolve
Tree
p931
(dp932
g7
I0
sg56
F3.3459827561261015
sg15
I01
sbsg16
(imyEvolve
Tree
p933
(dp934
g7
I0
sg15
I00
sbsg19
I00
sg20
g57
sbsg19
I00
sg20
g102
sbsg7
I3
sg19
I01
sg20
g36
sba(imyEvolve
Tree
p935
(dp936
g7
I5
sg8
(imyEvolve
Tree
p937
(dp938
g7
I4
sg8
(imyEvolve
Tree
p939
(dp940
g24
(imyEvolve
Tree
p941
(dp942
g7
I2
sg8
(imyEvolve
Tree
p943
(dp944
g7
I1
sg8
(imyEvolve
Tree
p945
(dp946
g7
I0
sg56
F-4.39492308499903
sg15
I01
sbsg16
(imyEvolve
Tree
p947
(dp948
g7
I0
sg56
F3.311601479535703
sg15
I01
sbsg19
I00
sg20
g57
sbsg16
(imyEvolve
Tree
p949
(dp950
g7
I1
sg8
(imyEvolve
Tree
p951
(dp952
g7
I0
sg15
I00
sbsg16
(imyEvolve
Tree
p953
(dp954
g7
I0
sg56
F-2.0389960386545725
sg15
I01
sbsg19
I00
sg20
g102
sbsg19
I00
sg20
g21
sbsg7
I3
sg19
I01
sg20
g103
sbsg16
(imyEvolve
Tree
p955
(dp956
g24
(imyEvolve
Tree
p957
(dp958
g24
(imyEvolve
Tree
p959
(dp960
g24
(imyEvolve
Tree
p961
(dp962
g7
I0
sg15
I00
sbsg7
I1
sg19
I01
sg20
g103
sbsg7
I2
sg19
I01
sg20
g45
sbsg7
I3
sg19
I01
sg20
g103
sbsg19
I00
sg20
g102
sbsg16
(imyEvolve
Tree
p963
(dp964
g7
I4
sg8
(imyEvolve
Tree
p965
(dp966
g24
(imyEvolve
Tree
p967
(dp968
g7
I2
sg8
(imyEvolve
Tree
p969
(dp970
g7
I1
sg8
(imyEvolve
Tree
p971
(dp972
g7
I0
sg56
F4.605932629151614
sg15
I01
sbsg16
(imyEvolve
Tree
p973
(dp974
g7
I0
sg56
F-2.5163103588657156
sg15
I01
sbsg19
I00
sg20
g102
sbsg16
(imyEvolve
Tree
p975
(dp976
g24
(imyEvolve
Tree
p977
(dp978
g7
I0
sg15
I00
sbsg7
I1
sg19
I01
sg20
g103
sbsg19
I00
sg20
g57
sbsg7
I3
sg19
I01
sg20
g36
sbsg16
(imyEvolve
Tree
p979
(dp980
g24
(imyEvolve
Tree
p981
(dp982
g7
I2
sg8
(imyEvolve
Tree
p983
(dp984
g24
(imyEvolve
Tree
p985
(dp986
g7
I0
sg56
F4.786033627586637
sg15
I01
sbsg7
I1
sg19
I01
sg20
g103
sbsg16
(imyEvolve
Tree
p987
(dp988
g24
(imyEvolve
Tree
p989
(dp990
g7
I0
sg15
I00
sbsg7
I1
sg19
I01
sg20
g36
sbsg19
I00
sg20
g57
sbsg7
I3
sg19
I01
sg20
g103
sbsg19
I00
sg20
g57
sbsg19
I00
sg20
g57
sbaasS'weightSharing'
p991
(lp992
I01
aI01
asS'fitnessValid'
p993
I00
sS'fitness'
p994
cnumpy.core.multiarray
scalar
p995
(cnumpy
dtype
p996
(S'f8'
p997
I0
I1
tp998
Rp999
(I3
S'<'
p1000
NNNI-1
I-1
I0
tp1001
bS'\x80\xa9\x82\xb18\xa8\x95\xbf'
p1002
tp1003
Rp1004
sS'alpha'
p1005
F0.00815235573858417
sS'resolution'
p1006
I47
sb.