(imyEvolve
Individual
p0
(dp1
S'funcs'
p2
(lp3
(lp4
(imyEvolve
Tree
p5
(dp6
S'left'
p7
(imyEvolve
Tree
p8
(dp9
g7
(imyEvolve
Tree
p10
(dp11
g7
(imyEvolve
Tree
p12
(dp13
S'below'
p14
(imyEvolve
Tree
p15
(dp16
S'depth'
p17
I0
sS'constant'
p18
F-4.4590358592361135
sS'isConstant'
p19
I01
sbsg17
I1
sS'single'
p20
I01
sS'op'
p21
cmath
sin
p22
sbsg17
I2
sS'right'
p23
(imyEvolve
Tree
p24
(dp25
g14
(imyEvolve
Tree
p26
(dp27
g17
I0
sg18
F-3.8868358677178003
sg19
I01
sbsg17
I1
sg20
I01
sg21
g22
sbsg20
I00
sg21
coperator
sub
p28
sbsg17
I3
sg23
(imyEvolve
Tree
p29
(dp30
g7
(imyEvolve
Tree
p31
(dp32
g14
(imyEvolve
Tree
p33
(dp34
g17
I0
sg19
I00
sbsg17
I1
sg20
I01
sg21
cmyEvolve
absSqrt
p35
sbsg17
I2
sg23
(imyEvolve
Tree
p36
(dp37
g7
(imyEvolve
Tree
p38
(dp39
g17
I0
sg18
F-0.724028644863516
sg19
I01
sbsg17
I1
sg23
(imyEvolve
Tree
p40
(dp41
g17
I0
sg18
F-4.484443587158648
sg19
I01
sbsg20
I00
sg21
coperator
add
p42
sbsg20
I00
sg21
g28
sbsg20
I00
sg21
coperator
mul
p43
sbsg17
I4
sg23
(imyEvolve
Tree
p44
(dp45
g7
(imyEvolve
Tree
p46
(dp47
g7
(imyEvolve
Tree
p48
(dp49
g7
(imyEvolve
Tree
p50
(dp51
g17
I0
sg18
F0.9673238546036531
sg19
I01
sbsg17
I1
sg23
(imyEvolve
Tree
p52
(dp53
g17
I0
sg19
I00
sbsg20
I00
sg21
g28
sbsg17
I2
sg23
(imyEvolve
Tree
p54
(dp55
g14
(imyEvolve
Tree
p56
(dp57
g17
I0
sg18
F-2.290018084195787
sg19
I01
sbsg17
I1
sg20
I01
sg21
g22
sbsg20
I00
sg21
g43
sbsg17
I3
sg23
(imyEvolve
Tree
p58
(dp59
g7
(imyEvolve
Tree
p60
(dp61
g14
(imyEvolve
Tree
p62
(dp63
g17
I0
sg18
F3.5812980826667093
sg19
I01
sbsg17
I1
sg20
I01
sg21
g22
sbsg17
I2
sg23
(imyEvolve
Tree
p64
(dp65
g14
(imyEvolve
Tree
p66
(dp67
g17
I0
sg18
F-4.775513033527141
sg19
I01
sbsg17
I1
sg20
I01
sg21
g35
sbsg20
I00
sg21
g43
sbsg20
I00
sg21
g28
sbsg20
I00
sg21
g42
sba(imyEvolve
Tree
p68
(dp69
g14
(imyEvolve
Tree
p70
(dp71
g14
(imyEvolve
Tree
p72
(dp73
g17
I1
sg7
(imyEvolve
Tree
p74
(dp75
g17
I0
sg19
I00
sbsg23
(imyEvolve
Tree
p76
(dp77
g17
I0
sg18
F-0.19683799248923606
sg19
I01
sbsg20
I00
sg21
g43
sbsg17
I2
sg20
I01
sg21
g35
sbsg17
I3
sg20
I01
sg21
g35
sba(imyEvolve
Tree
p78
(dp79
g7
(imyEvolve
Tree
p80
(dp81
g7
(imyEvolve
Tree
p82
(dp83
g14
(imyEvolve
Tree
p84
(dp85
g17
I0
sg19
I00
sbsg17
I1
sg20
I01
sg21
cmyEvolve
square
p86
sbsg17
I2
sg23
(imyEvolve
Tree
p87
(dp88
g7
(imyEvolve
Tree
p89
(dp90
g17
I0
sg18
F-3.032380191598122
sg19
I01
sbsg17
I1
sg23
(imyEvolve
Tree
p91
(dp92
g17
I0
sg19
I00
sbsg20
I00
sg21
g42
sbsg20
I00
sg21
g42
sbsg17
I3
sg23
(imyEvolve
Tree
p93
(dp94
g14
(imyEvolve
Tree
p95
(dp96
g7
(imyEvolve
Tree
p97
(dp98
g17
I0
sg18
F-1.8707328902086218
sg19
I01
sbsg17
I1
sg23
(imyEvolve
Tree
p99
(dp100
g17
I0
sg19
I00
sbsg20
I00
sg21
g43
sbsg17
I2
sg20
I01
sg21
cmath
cos
p101
sbsg20
I00
sg21
g28
sba(imyEvolve
Tree
p102
(dp103
g14
(imyEvolve
Tree
p104
(dp105
g17
I3
sg7
(imyEvolve
Tree
p106
(dp107
g14
(imyEvolve
Tree
p108
(dp109
g14
(imyEvolve
Tree
p110
(dp111
g17
I0
sg19
I00
sbsg17
I1
sg20
I01
sg21
g22
sbsg17
I2
sg20
I01
sg21
g35
sbsg23
(imyEvolve
Tree
p112
(dp113
g14
(imyEvolve
Tree
p114
(dp115
g17
I1
sg7
(imyEvolve
Tree
p116
(dp117
g17
I0
sg18
F2.411933899644821
sg19
I01
sbsg23
(imyEvolve
Tree
p118
(dp119
g17
I0
sg18
F-1.3233868042291719
sg19
I01
sbsg20
I00
sg21
g42
sbsg17
I2
sg20
I01
sg21
g86
sbsg20
I00
sg21
g28
sbsg17
I4
sg20
I01
sg21
g101
sba(imyEvolve
Tree
p120
(dp121
g14
(imyEvolve
Tree
p122
(dp123
g14
(imyEvolve
Tree
p124
(dp125
g14
(imyEvolve
Tree
p126
(dp127
g7
(imyEvolve
Tree
p128
(dp129
g14
(imyEvolve
Tree
p130
(dp131
g17
I0
sg19
I00
sbsg17
I1
sg20
I01
sg21
g22
sbsg17
I2
sg23
(imyEvolve
Tree
p132
(dp133
g7
(imyEvolve
Tree
p134
(dp135
g17
I0
sg19
I00
sbsg17
I1
sg23
(imyEvolve
Tree
p136
(dp137
g17
I0
sg18
F-4.766103049801055
sg19
I01
sbsg20
I00
sg21
g28
sbsg20
I00
sg21
g43
sbsg17
I3
sg20
I01
sg21
g35
sbsg17
I4
sg20
I01
sg21
g86
sbsg17
I5
sg20
I01
sg21
g101
sba(imyEvolve
Tree
p138
(dp139
g17
I3
sg7
(imyEvolve
Tree
p140
(dp141
g17
I2
sg7
(imyEvolve
Tree
p142
(dp143
g17
I1
sg7
(imyEvolve
Tree
p144
(dp145
g17
I0
sg18
F3.5546523823262284
sg19
I01
sbsg23
(imyEvolve
Tree
p146
(dp147
g17
I0
sg18
F1.826315694479831
sg19
I01
sbsg20
I00
sg21
g43
sbsg23
(imyEvolve
Tree
p148
(dp149
g17
I1
sg7
(imyEvolve
Tree
p150
(dp151
g17
I0
sg18
F-4.256476382332371
sg19
I01
sbsg23
(imyEvolve
Tree
p152
(dp153
g17
I0
sg19
I00
sbsg20
I00
sg21
g43
sbsg20
I00
sg21
g42
sbsg23
(imyEvolve
Tree
p154
(dp155
g17
I2
sg7
(imyEvolve
Tree
p156
(dp157
g17
I1
sg7
(imyEvolve
Tree
p158
(dp159
g17
I0
sg18
F3.7129885589416958
sg19
I01
sbsg23
(imyEvolve
Tree
p160
(dp161
g17
I0
sg18
F4.262628994037366
sg19
I01
sbsg20
I00
sg21
g28
sbsg23
(imyEvolve
Tree
p162
(dp163
g14
(imyEvolve
Tree
p164
(dp165
g17
I0
sg19
I00
sbsg17
I1
sg20
I01
sg21
g35
sbsg20
I00
sg21
g28
sbsg20
I00
sg21
g43
sba(imyEvolve
Tree
p166
(dp167
g14
(imyEvolve
Tree
p168
(dp169
g7
(imyEvolve
Tree
p170
(dp171
g7
(imyEvolve
Tree
p172
(dp173
g17
I0
sg19
I00
sbsg17
I1
sg23
(imyEvolve
Tree
p174
(dp175
g17
I0
sg18
F-0.0749424781434147
sg19
I01
sbsg20
I00
sg21
g28
sbsg17
I2
sg23
(imyEvolve
Tree
p176
(dp177
g7
(imyEvolve
Tree
p178
(dp179
g17
I0
sg18
F4.875160664368265
sg19
I01
sbsg17
I1
sg23
(imyEvolve
Tree
p180
(dp181
g17
I0
sg19
I00
sbsg20
I00
sg21
g42
sbsg20
I00
sg21
g28
sbsg17
I3
sg20
I01
sg21
g22
sba(imyEvolve
Tree
p182
(dp183
g17
I3
sg7
(imyEvolve
Tree
p184
(dp185
g14
(imyEvolve
Tree
p186
(dp187
g14
(imyEvolve
Tree
p188
(dp189
g17
I0
sg18
F-4.44159640519771
sg19
I01
sbsg17
I1
sg20
I01
sg21
g86
sbsg17
I2
sg20
I01
sg21
g86
sbsg23
(imyEvolve
Tree
p190
(dp191
g14
(imyEvolve
Tree
p192
(dp193
g14
(imyEvolve
Tree
p194
(dp195
g17
I0
sg19
I00
sbsg17
I1
sg20
I01
sg21
g22
sbsg17
I2
sg20
I01
sg21
g86
sbsg20
I00
sg21
g42
sba(imyEvolve
Tree
p196
(dp197
g7
(imyEvolve
Tree
p198
(dp199
g7
(imyEvolve
Tree
p200
(dp201
g17
I0
sg18
F-0.8599608241347321
sg19
I01
sbsg17
I1
sg23
(imyEvolve
Tree
p202
(dp203
g17
I0
sg18
F-2.8794523240010372
sg19
I01
sbsg20
I00
sg21
g28
sbsg17
I2
sg23
(imyEvolve
Tree
p204
(dp205
g14
(imyEvolve
Tree
p206
(dp207
g17
I0
sg19
I00
sbsg17
I1
sg20
I01
sg21
g35
sbsg20
I00
sg21
g28
sba(imyEvolve
Tree
p208
(dp209
g14
(imyEvolve
Tree
p210
(dp211
g7
(imyEvolve
Tree
p212
(dp213
g14
(imyEvolve
Tree
p214
(dp215
g7
(imyEvolve
Tree
p216
(dp217
g17
I0
sg18
F-3.5783751244498108
sg19
I01
sbsg17
I1
sg23
(imyEvolve
Tree
p218
(dp219
g17
I0
sg18
F2.6726658889832677
sg19
I01
sbsg20
I00
sg21
g43
sbsg17
I2
sg20
I01
sg21
g86
sbsg17
I3
sg23
(imyEvolve
Tree
p220
(dp221
g14
(imyEvolve
Tree
p222
(dp223
g14
(imyEvolve
Tree
p224
(dp225
g17
I0
sg19
I00
sbsg17
I1
sg20
I01
sg21
g35
sbsg17
I2
sg20
I01
sg21
g35
sbsg20
I00
sg21
g28
sbsg17
I4
sg20
I01
sg21
g22
sba(imyEvolve
Tree
p226
(dp227
g14
(imyEvolve
Tree
p228
(dp229
g7
(imyEvolve
Tree
p230
(dp231
g14
(imyEvolve
Tree
p232
(dp233
g7
(imyEvolve
Tree
p234
(dp235
g7
(imyEvolve
Tree
p236
(dp237
g17
I0
sg19
I00
sbsg17
I1
sg23
(imyEvolve
Tree
p238
(dp239
g17
I0
sg18
F-0.06953895828225054
sg19
I01
sbsg20
I00
sg21
g28
sbsg17
I2
sg23
(imyEvolve
Tree
p240
(dp241
g14
(imyEvolve
Tree
p242
(dp243
g17
I0
sg19
I00
sbsg17
I1
sg20
I01
sg21
g22
sbsg20
I00
sg21
g43
sbsg17
I3
sg20
I01
sg21
g86
sbsg17
I4
sg23
(imyEvolve
Tree
p244
(dp245
g14
(imyEvolve
Tree
p246
(dp247
g7
(imyEvolve
Tree
p248
(dp249
g7
(imyEvolve
Tree
p250
(dp251
g17
I0
sg18
F2.48718777464293
sg19
I01
sbsg17
I1
sg23
(imyEvolve
Tree
p252
(dp253
g17
I0
sg18
F2.208156005380709
sg19
I01
sbsg20
I00
sg21
g42
sbsg17
I2
sg23
(imyEvolve
Tree
p254
(dp255
g14
(imyEvolve
Tree
p256
(dp257
g17
I0
sg18
F-1.8756103928723844
sg19
I01
sbsg17
I1
sg20
I01
sg21
g35
sbsg20
I00
sg21
g28
sbsg17
I3
sg20
I01
sg21
g101
sbsg20
I00
sg21
g43
sbsg17
I5
sg20
I01
sg21
g101
sba(imyEvolve
Tree
p258
(dp259
g7
(imyEvolve
Tree
p260
(dp261
g7
(imyEvolve
Tree
p262
(dp263
g7
(imyEvolve
Tree
p264
(dp265
g17
I0
sg19
I00
sbsg17
I1
sg23
(imyEvolve
Tree
p266
(dp267
g17
I0
sg19
I00
sbsg20
I00
sg21
g43
sbsg17
I2
sg23
(imyEvolve
Tree
p268
(dp269
g7
(imyEvolve
Tree
p270
(dp271
g17
I0
sg18
F-2.743077610343846
sg19
I01
sbsg17
I1
sg23
(imyEvolve
Tree
p272
(dp273
g17
I0
sg18
F3.283815050504437
sg19
I01
sbsg20
I00
sg21
g28
sbsg20
I00
sg21
g28
sbsg17
I3
sg23
(imyEvolve
Tree
p274
(dp275
g7
(imyEvolve
Tree
p276
(dp277
g7
(imyEvolve
Tree
p278
(dp279
g17
I0
sg19
I00
sbsg17
I1
sg23
(imyEvolve
Tree
p280
(dp281
g17
I0
sg19
I00
sbsg20
I00
sg21
g43
sbsg17
I2
sg23
(imyEvolve
Tree
p282
(dp283
g14
(imyEvolve
Tree
p284
(dp285
g17
I0
sg18
F0.9294295887408701
sg19
I01
sbsg17
I1
sg20
I01
sg21
g35
sbsg20
I00
sg21
g42
sbsg20
I00
sg21
g42
sba(imyEvolve
Tree
p286
(dp287
g7
(imyEvolve
Tree
p288
(dp289
g14
(imyEvolve
Tree
p290
(dp291
g14
(imyEvolve
Tree
p292
(dp293
g14
(imyEvolve
Tree
p294
(dp295
g14
(imyEvolve
Tree
p296
(dp297
g17
I0
sg19
I00
sbsg17
I1
sg20
I01
sg21
g22
sbsg17
I2
sg20
I01
sg21
g35
sbsg17
I3
sg20
I01
sg21
g35
sbsg17
I4
sg20
I01
sg21
g22
sbsg17
I5
sg23
(imyEvolve
Tree
p298
(dp299
g7
(imyEvolve
Tree
p300
(dp301
g7
(imyEvolve
Tree
p302
(dp303
g7
(imyEvolve
Tree
p304
(dp305
g14
(imyEvolve
Tree
p306
(dp307
g17
I0
sg18
F-0.3339038047524001
sg19
I01
sbsg17
I1
sg20
I01
sg21
g86
sbsg17
I2
sg23
(imyEvolve
Tree
p308
(dp309
g14
(imyEvolve
Tree
p310
(dp311
g17
I0
sg19
I00
sbsg17
I1
sg20
I01
sg21
g22
sbsg20
I00
sg21
g28
sbsg17
I3
sg23
(imyEvolve
Tree
p312
(dp313
g14
(imyEvolve
Tree
p314
(dp315
g14
(imyEvolve
Tree
p316
(dp317
g17
I0
sg19
I00
sbsg17
I1
sg20
I01
sg21
g86
sbsg17
I2
sg20
I01
sg21
g86
sbsg20
I00
sg21
g42
sbsg17
I4
sg23
(imyEvolve
Tree
p318
(dp319
g14
(imyEvolve
Tree
p320
(dp321
g7
(imyEvolve
Tree
p322
(dp323
g7
(imyEvolve
Tree
p324
(dp325
g17
I0
sg19
I00
sbsg17
I1
sg23
(imyEvolve
Tree
p326
(dp327
g17
I0
sg19
I00
sbsg20
I00
sg21
g28
sbsg17
I2
sg23
(imyEvolve
Tree
p328
(dp329
g14
(imyEvolve
Tree
p330
(dp331
g17
I0
sg19
I00
sbsg17
I1
sg20
I01
sg21
g35
sbsg20
I00
sg21
g43
sbsg17
I3
sg20
I01
sg21
g22
sbsg20
I00
sg21
g28
sbsg20
I00
sg21
g42
sba(imyEvolve
Tree
p332
(dp333
g14
(imyEvolve
Tree
p334
(dp335
g7
(imyEvolve
Tree
p336
(dp337
g7
(imyEvolve
Tree
p338
(dp339
g14
(imyEvolve
Tree
p340
(dp341
g17
I0
sg19
I00
sbsg17
I1
sg20
I01
sg21
g35
sbsg17
I2
sg23
(imyEvolve
Tree
p342
(dp343
g14
(imyEvolve
Tree
p344
(dp345
g17
I0
sg18
F1.7539509873770154
sg19
I01
sbsg17
I1
sg20
I01
sg21
g86
sbsg20
I00
sg21
g43
sbsg17
I3
sg23
(imyEvolve
Tree
p346
(dp347
g14
(imyEvolve
Tree
p348
(dp349
g7
(imyEvolve
Tree
p350
(dp351
g17
I0
sg19
I00
sbsg17
I1
sg23
(imyEvolve
Tree
p352
(dp353
g17
I0
sg19
I00
sbsg20
I00
sg21
g28
sbsg17
I2
sg20
I01
sg21
g86
sbsg20
I00
sg21
g28
sbsg17
I4
sg20
I01
sg21
g35
sba(imyEvolve
Tree
p354
(dp355
g14
(imyEvolve
Tree
p356
(dp357
g14
(imyEvolve
Tree
p358
(dp359
g14
(imyEvolve
Tree
p360
(dp361
g14
(imyEvolve
Tree
p362
(dp363
g17
I0
sg19
I00
sbsg17
I1
sg20
I01
sg21
g86
sbsg17
I2
sg20
I01
sg21
g101
sbsg17
I3
sg20
I01
sg21
g35
sbsg17
I4
sg20
I01
sg21
g101
sbaa(lp364
(imyEvolve
Tree
p365
(dp366
g7
(imyEvolve
Tree
p367
(dp368
g7
(imyEvolve
Tree
p369
(dp370
g7
(imyEvolve
Tree
p371
(dp372
g14
(imyEvolve
Tree
p373
(dp374
g17
I0
sg19
I00
sbsg17
I1
sg20
I01
sg21
g86
sbsg17
I2
sg23
(imyEvolve
Tree
p375
(dp376
g7
(imyEvolve
Tree
p377
(dp378
g17
I0
sg18
F2.7425479563792976
sg19
I01
sbsg17
I1
sg23
(imyEvolve
Tree
p379
(dp380
g17
I0
sg18
F-3.292245874052284
sg19
I01
sbsg20
I00
sg21
g43
sbsg20
I00
sg21
g43
sbsg17
I3
sg23
(imyEvolve
Tree
p381
(dp382
g7
(imyEvolve
Tree
p383
(dp384
g7
(imyEvolve
Tree
p385
(dp386
g17
I0
sg18
F-0.8385714682470624
sg19
I01
sbsg17
I1
sg23
(imyEvolve
Tree
p387
(dp388
g17
I0
sg19
I00
sbsg20
I00
sg21
g42
sbsg17
I2
sg23
(imyEvolve
Tree
p389
(dp390
g14
(imyEvolve
Tree
p391
(dp392
g17
I0
sg19
I00
sbsg17
I1
sg20
I01
sg21
g22
sbsg20
I00
sg21
g28
sbsg20
I00
sg21
g28
sbsg17
I4
sg23
(imyEvolve
Tree
p393
(dp394
g14
(imyEvolve
Tree
p395
(dp396
g7
(imyEvolve
Tree
p397
(dp398
g7
(imyEvolve
Tree
p399
(dp400
g17
I0
sg19
I00
sbsg17
I1
sg23
(imyEvolve
Tree
p401
(dp402
g17
I0
sg19
I00
sbsg20
I00
sg21
g42
sbsg17
I2
sg23
(imyEvolve
Tree
p403
(dp404
g7
(imyEvolve
Tree
p405
(dp406
g17
I0
sg19
I00
sbsg17
I1
sg23
(imyEvolve
Tree
p407
(dp408
g17
I0
sg18
F3.758704124851013
sg19
I01
sbsg20
I00
sg21
g28
sbsg20
I00
sg21
g28
sbsg17
I3
sg20
I01
sg21
g86
sbsg20
I00
sg21
g42
sba(imyEvolve
Tree
p409
(dp410
g14
(imyEvolve
Tree
p411
(dp412
g14
(imyEvolve
Tree
p413
(dp414
g17
I0
sg18
F4.321177834217041
sg19
I01
sbsg17
I1
sg20
I01
sg21
g22
sbsg17
I2
sg20
I01
sg21
g101
sba(imyEvolve
Tree
p415
(dp416
g14
(imyEvolve
Tree
p417
(dp418
g7
(imyEvolve
Tree
p419
(dp420
g14
(imyEvolve
Tree
p421
(dp422
g14
(imyEvolve
Tree
p423
(dp424
g17
I0
sg19
I00
sbsg17
I1
sg20
I01
sg21
g22
sbsg17
I2
sg20
I01
sg21
g86
sbsg17
I3
sg23
(imyEvolve
Tree
p425
(dp426
g14
(imyEvolve
Tree
p427
(dp428
g14
(imyEvolve
Tree
p429
(dp430
g17
I0
sg19
I00
sbsg17
I1
sg20
I01
sg21
g35
sbsg17
I2
sg20
I01
sg21
g22
sbsg20
I00
sg21
g43
sbsg17
I4
sg20
I01
sg21
g35
sba(imyEvolve
Tree
p431
(dp432
g14
(imyEvolve
Tree
p433
(dp434
g7
(imyEvolve
Tree
p435
(dp436
g14
(imyEvolve
Tree
p437
(dp438
g7
(imyEvolve
Tree
p439
(dp440
g7
(imyEvolve
Tree
p441
(dp442
g17
I0
sg18
F4.501624481026063
sg19
I01
sbsg17
I1
sg23
(imyEvolve
Tree
p443
(dp444
g17
I0
sg18
F1.3137790738959847
sg19
I01
sbsg20
I00
sg21
g43
sbsg17
I2
sg23
(imyEvolve
Tree
p445
(dp446
g7
(imyEvolve
Tree
p447
(dp448
g17
I0
sg19
I00
sbsg17
I1
sg23
(imyEvolve
Tree
p449
(dp450
g17
I0
sg18
F4.671861384209839
sg19
I01
sbsg20
I00
sg21
g28
sbsg20
I00
sg21
g43
sbsg17
I3
sg20
I01
sg21
g86
sbsg17
I4
sg23
(imyEvolve
Tree
p451
(dp452
g14
(imyEvolve
Tree
p453
(dp454
g7
(imyEvolve
Tree
p455
(dp456
g14
(imyEvolve
Tree
p457
(dp458
g17
I0
sg18
F4.579144577383429
sg19
I01
sbsg17
I1
sg20
I01
sg21
g86
sbsg17
I2
sg23
(imyEvolve
Tree
p459
(dp460
g14
(imyEvolve
Tree
p461
(dp462
g17
I0
sg19
I00
sbsg17
I1
sg20
I01
sg21
g22
sbsg20
I00
sg21
g42
sbsg17
I3
sg20
I01
sg21
g101
sbsg20
I00
sg21
g42
sbsg17
I5
sg20
I01
sg21
g22
sba(imyEvolve
Tree
p463
(dp464
g17
I3
sg7
(imyEvolve
Tree
p465
(dp466
g14
(imyEvolve
Tree
p467
(dp468
g14
(imyEvolve
Tree
p469
(dp470
g17
I0
sg19
I00
sbsg17
I1
sg20
I01
sg21
g86
sbsg17
I2
sg20
I01
sg21
g86
sbsg23
(imyEvolve
Tree
p471
(dp472
g17
I2
sg7
(imyEvolve
Tree
p473
(dp474
g17
I1
sg7
(imyEvolve
Tree
p475
(dp476
g17
I0
sg19
I00
sbsg23
(imyEvolve
Tree
p477
(dp478
g17
I0
sg19
I00
sbsg20
I00
sg21
g43
sbsg23
(imyEvolve
Tree
p479
(dp480
g14
(imyEvolve
Tree
p481
(dp482
g17
I0
sg19
I00
sbsg17
I1
sg20
I01
sg21
g101
sbsg20
I00
sg21
g43
sbsg20
I00
sg21
g28
sba(imyEvolve
Tree
p483
(dp484
g14
(imyEvolve
Tree
p485
(dp486
g14
(imyEvolve
Tree
p487
(dp488
g7
(imyEvolve
Tree
p489
(dp490
g14
(imyEvolve
Tree
p491
(dp492
g7
(imyEvolve
Tree
p493
(dp494
g17
I0
sg19
I00
sbsg17
I1
sg23
(imyEvolve
Tree
p495
(dp496
g17
I0
sg19
I00
sbsg20
I00
sg21
g28
sbsg17
I2
sg20
I01
sg21
g22
sbsg17
I3
sg23
(imyEvolve
Tree
p497
(dp498
g14
(imyEvolve
Tree
p499
(dp500
g14
(imyEvolve
Tree
p501
(dp502
g17
I0
sg19
I00
sbsg17
I1
sg20
I01
sg21
g86
sbsg17
I2
sg20
I01
sg21
g22
sbsg20
I00
sg21
g28
sbsg17
I4
sg20
I01
sg21
g35
sbsg17
I5
sg20
I01
sg21
g35
sba(imyEvolve
Tree
p503
(dp504
g7
(imyEvolve
Tree
p505
(dp506
g14
(imyEvolve
Tree
p507
(dp508
g14
(imyEvolve
Tree
p509
(dp510
g17
I0
sg18
F1.1680864695411666
sg19
I01
sbsg17
I1
sg20
I01
sg21
g101
sbsg17
I2
sg20
I01
sg21
g86
sbsg17
I3
sg23
(imyEvolve
Tree
p511
(dp512
g14
(imyEvolve
Tree
p513
(dp514
g14
(imyEvolve
Tree
p515
(dp516
g17
I0
sg19
I00
sbsg17
I1
sg20
I01
sg21
g35
sbsg17
I2
sg20
I01
sg21
g101
sbsg20
I00
sg21
g28
sba(imyEvolve
Tree
p517
(dp518
g14
(imyEvolve
Tree
p519
(dp520
g14
(imyEvolve
Tree
p521
(dp522
g14
(imyEvolve
Tree
p523
(dp524
g14
(imyEvolve
Tree
p525
(dp526
g17
I0
sg19
I00
sbsg17
I1
sg20
I01
sg21
g101
sbsg17
I2
sg20
I01
sg21
g22
sbsg17
I3
sg20
I01
sg21
g86
sbsg17
I4
sg20
I01
sg21
g35
sba(imyEvolve
Tree
p527
(dp528
g14
(imyEvolve
Tree
p529
(dp530
g7
(imyEvolve
Tree
p531
(dp532
g14
(imyEvolve
Tree
p533
(dp534
g14
(imyEvolve
Tree
p535
(dp536
g7
(imyEvolve
Tree
p537
(dp538
g17
I0
sg19
I00
sbsg17
I1
sg23
(imyEvolve
Tree
p539
(dp540
g17
I0
sg19
I00
sbsg20
I00
sg21
g28
sbsg17
I2
sg20
I01
sg21
g101
sbsg17
I3
sg20
I01
sg21
g35
sbsg17
I4
sg23
(imyEvolve
Tree
p541
(dp542
g7
(imyEvolve
Tree
p543
(dp544
g7
(imyEvolve
Tree
p545
(dp546
g7
(imyEvolve
Tree
p547
(dp548
g17
I0
sg19
I00
sbsg17
I1
sg23
(imyEvolve
Tree
p549
(dp550
g17
I0
sg18
F1.742286706766051
sg19
I01
sbsg20
I00
sg21
g43
sbsg17
I2
sg23
(imyEvolve
Tree
p551
(dp552
g14
(imyEvolve
Tree
p553
(dp554
g17
I0
sg18
F-1.2066092056768971
sg19
I01
sbsg17
I1
sg20
I01
sg21
g35
sbsg20
I00
sg21
g42
sbsg17
I3
sg23
(imyEvolve
Tree
p555
(dp556
g14
(imyEvolve
Tree
p557
(dp558
g14
(imyEvolve
Tree
p559
(dp560
g17
I0
sg18
F-3.9375053448004307
sg19
I01
sbsg17
I1
sg20
I01
sg21
g101
sbsg17
I2
sg20
I01
sg21
g86
sbsg20
I00
sg21
g43
sbsg20
I00
sg21
g28
sbsg17
I5
sg20
I01
sg21
g101
sba(imyEvolve
Tree
p561
(dp562
g7
(imyEvolve
Tree
p563
(dp564
g7
(imyEvolve
Tree
p565
(dp566
g7
(imyEvolve
Tree
p567
(dp568
g14
(imyEvolve
Tree
p569
(dp570
g17
I0
sg19
I00
sbsg17
I1
sg20
I01
sg21
g86
sbsg17
I2
sg23
(imyEvolve
Tree
p571
(dp572
g14
(imyEvolve
Tree
p573
(dp574
g17
I0
sg19
I00
sbsg17
I1
sg20
I01
sg21
g22
sbsg20
I00
sg21
g42
sbsg17
I3
sg23
(imyEvolve
Tree
p575
(dp576
g7
(imyEvolve
Tree
p577
(dp578
g7
(imyEvolve
Tree
p579
(dp580
g17
I0
sg18
F4.589783532565184
sg19
I01
sbsg17
I1
sg23
(imyEvolve
Tree
p581
(dp582
g17
I0
sg18
F4.506355044068233
sg19
I01
sbsg20
I00
sg21
g28
sbsg17
I2
sg23
(imyEvolve
Tree
p583
(dp584
g7
(imyEvolve
Tree
p585
(dp586
g17
I0
sg18
F0.3966439209885406
sg19
I01
sbsg17
I1
sg23
(imyEvolve
Tree
p587
(dp588
g17
I0
sg18
F-1.1413834172911197
sg19
I01
sbsg20
I00
sg21
g28
sbsg20
I00
sg21
g28
sbsg20
I00
sg21
g28
sbsg17
I4
sg23
(imyEvolve
Tree
p589
(dp590
g14
(imyEvolve
Tree
p591
(dp592
g7
(imyEvolve
Tree
p593
(dp594
g7
(imyEvolve
Tree
p595
(dp596
g17
I0
sg19
I00
sbsg17
I1
sg23
(imyEvolve
Tree
p597
(dp598
g17
I0
sg19
I00
sbsg20
I00
sg21
g42
sbsg17
I2
sg23
(imyEvolve
Tree
p599
(dp600
g7
(imyEvolve
Tree
p601
(dp602
g17
I0
sg18
F-4.176226819191146
sg19
I01
sbsg17
I1
sg23
(imyEvolve
Tree
p603
(dp604
g17
I0
sg18
F-3.072843717746844
sg19
I01
sbsg20
I00
sg21
g42
sbsg20
I00
sg21
g42
sbsg17
I3
sg20
I01
sg21
g86
sbsg20
I00
sg21
g43
sba(imyEvolve
Tree
p605
(dp606
g14
(imyEvolve
Tree
p607
(dp608
g14
(imyEvolve
Tree
p609
(dp610
g17
I0
sg19
I00
sbsg17
I1
sg20
I01
sg21
g22
sbsg17
I2
sg20
I01
sg21
g35
sba(imyEvolve
Tree
p611
(dp612
g7
(imyEvolve
Tree
p613
(dp614
g14
(imyEvolve
Tree
p615
(dp616
g7
(imyEvolve
Tree
p617
(dp618
g17
I0
sg18
F2.321494126619731
sg19
I01
sbsg17
I1
sg23
(imyEvolve
Tree
p619
(dp620
g17
I0
sg19
I00
sbsg20
I00
sg21
g43
sbsg17
I2
sg20
I01
sg21
g86
sbsg17
I3
sg23
(imyEvolve
Tree
p621
(dp622
g7
(imyEvolve
Tree
p623
(dp624
g7
(imyEvolve
Tree
p625
(dp626
g17
I0
sg18
F4.146970879339333
sg19
I01
sbsg17
I1
sg23
(imyEvolve
Tree
p627
(dp628
g17
I0
sg19
I00
sbsg20
I00
sg21
g28
sbsg17
I2
sg23
(imyEvolve
Tree
p629
(dp630
g7
(imyEvolve
Tree
p631
(dp632
g17
I0
sg19
I00
sbsg17
I1
sg23
(imyEvolve
Tree
p633
(dp634
g17
I0
sg19
I00
sbsg20
I00
sg21
g42
sbsg20
I00
sg21
g42
sbsg20
I00
sg21
g43
sba(imyEvolve
Tree
p635
(dp636
g17
I2
sg7
(imyEvolve
Tree
p637
(dp638
g17
I1
sg7
(imyEvolve
Tree
p639
(dp640
g17
I0
sg18
F-1.8509684942640146
sg19
I01
sbsg23
(imyEvolve
Tree
p641
(dp642
g17
I0
sg19
I00
sbsg20
I00
sg21
g28
sbsg23
(imyEvolve
Tree
p643
(dp644
g17
I1
sg7
(imyEvolve
Tree
p645
(dp646
g17
I0
sg18
F3.8587871592077914
sg19
I01
sbsg23
(imyEvolve
Tree
p647
(dp648
g17
I0
sg19
I00
sbsg20
I00
sg21
g43
sbsg20
I00
sg21
g28
sba(imyEvolve
Tree
p649
(dp650
g17
I5
sg7
(imyEvolve
Tree
p651
(dp652
g14
(imyEvolve
Tree
p653
(dp654
g14
(imyEvolve
Tree
p655
(dp656
g17
I2
sg7
(imyEvolve
Tree
p657
(dp658
g14
(imyEvolve
Tree
p659
(dp660
g17
I0
sg18
F2.5955773736072327
sg19
I01
sbsg17
I1
sg20
I01
sg21
g101
sbsg23
(imyEvolve
Tree
p661
(dp662
g14
(imyEvolve
Tree
p663
(dp664
g17
I0
sg18
F4.507978674181048
sg19
I01
sbsg17
I1
sg20
I01
sg21
g35
sbsg20
I00
sg21
g43
sbsg17
I3
sg20
I01
sg21
g86
sbsg17
I4
sg20
I01
sg21
g101
sbsg23
(imyEvolve
Tree
p665
(dp666
g17
I4
sg7
(imyEvolve
Tree
p667
(dp668
g17
I3
sg7
(imyEvolve
Tree
p669
(dp670
g17
I2
sg7
(imyEvolve
Tree
p671
(dp672
g14
(imyEvolve
Tree
p673
(dp674
g17
I0
sg19
I00
sbsg17
I1
sg20
I01
sg21
g86
sbsg23
(imyEvolve
Tree
p675
(dp676
g14
(imyEvolve
Tree
p677
(dp678
g17
I0
sg19
I00
sbsg17
I1
sg20
I01
sg21
g22
sbsg20
I00
sg21
g43
sbsg23
(imyEvolve
Tree
p679
(dp680
g14
(imyEvolve
Tree
p681
(dp682
g17
I1
sg7
(imyEvolve
Tree
p683
(dp684
g17
I0
sg19
I00
sbsg23
(imyEvolve
Tree
p685
(dp686
g17
I0
sg19
I00
sbsg20
I00
sg21
g28
sbsg17
I2
sg20
I01
sg21
g35
sbsg20
I00
sg21
g42
sbsg23
(imyEvolve
Tree
p687
(dp688
g14
(imyEvolve
Tree
p689
(dp690
g17
I2
sg7
(imyEvolve
Tree
p691
(dp692
g17
I1
sg7
(imyEvolve
Tree
p693
(dp694
g17
I0
sg19
I00
sbsg23
(imyEvolve
Tree
p695
(dp696
g17
I0
sg19
I00
sbsg20
I00
sg21
g28
sbsg23
(imyEvolve
Tree
p697
(dp698
g17
I1
sg7
(imyEvolve
Tree
p699
(dp700
g17
I0
sg18
F3.0448977357931177
sg19
I01
sbsg23
(imyEvolve
Tree
p701
(dp702
g17
I0
sg18
F4.104397356807613
sg19
I01
sbsg20
I00
sg21
g43
sbsg20
I00
sg21
g42
sbsg17
I3
sg20
I01
sg21
g86
sbsg20
I00
sg21
g28
sbsg20
I00
sg21
g42
sba(imyEvolve
Tree
p703
(dp704
g14
(imyEvolve
Tree
p705
(dp706
g7
(imyEvolve
Tree
p707
(dp708
g14
(imyEvolve
Tree
p709
(dp710
g14
(imyEvolve
Tree
p711
(dp712
g17
I0
sg19
I00
sbsg17
I1
sg20
I01
sg21
g101
sbsg17
I2
sg20
I01
sg21
g22
sbsg17
I3
sg23
(imyEvolve
Tree
p713
(dp714
g14
(imyEvolve
Tree
p715
(dp716
g7
(imyEvolve
Tree
p717
(dp718
g17
I0
sg18
F0.9613984775954334
sg19
I01
sbsg17
I1
sg23
(imyEvolve
Tree
p719
(dp720
g17
I0
sg18
F-3.4249081922598146
sg19
I01
sbsg20
I00
sg21
g42
sbsg17
I2
sg20
I01
sg21
g35
sbsg20
I00
sg21
g43
sbsg17
I4
sg20
I01
sg21
g101
sbaa(lp721
(imyEvolve
Tree
p722
(dp723
g14
(imyEvolve
Tree
p724
(dp725
g7
(imyEvolve
Tree
p726
(dp727
g17
I0
sg19
I00
sbsg17
I1
sg23
(imyEvolve
Tree
p728
(dp729
g17
I0
sg18
F-3.143835399766617
sg19
I01
sbsg20
I00
sg21
g42
sbsg17
I2
sg20
I01
sg21
g86
sba(imyEvolve
Tree
p730
(dp731
g7
(imyEvolve
Tree
p732
(dp733
g7
(imyEvolve
Tree
p734
(dp735
g14
(imyEvolve
Tree
p736
(dp737
g7
(imyEvolve
Tree
p738
(dp739
g17
I0
sg18
F4.823466157757888
sg19
I01
sbsg17
I1
sg23
(imyEvolve
Tree
p740
(dp741
g17
I0
sg18
F3.8941421413643713
sg19
I01
sbsg20
I00
sg21
g28
sbsg17
I2
sg20
I01
sg21
g86
sbsg17
I3
sg23
(imyEvolve
Tree
p742
(dp743
g7
(imyEvolve
Tree
p744
(dp745
g7
(imyEvolve
Tree
p746
(dp747
g17
I0
sg18
F1.6769526554327472
sg19
I01
sbsg17
I1
sg23
(imyEvolve
Tree
p748
(dp749
g17
I0
sg19
I00
sbsg20
I00
sg21
g43
sbsg17
I2
sg23
(imyEvolve
Tree
p750
(dp751
g7
(imyEvolve
Tree
p752
(dp753
g17
I0
sg18
F-4.316563486242328
sg19
I01
sbsg17
I1
sg23
(imyEvolve
Tree
p754
(dp755
g17
I0
sg19
I00
sbsg20
I00
sg21
g28
sbsg20
I00
sg21
g43
sbsg20
I00
sg21
g28
sbsg17
I4
sg23
(imyEvolve
Tree
p756
(dp757
g7
(imyEvolve
Tree
p758
(dp759
g14
(imyEvolve
Tree
p760
(dp761
g14
(imyEvolve
Tree
p762
(dp763
g17
I0
sg18
F0.02888294946121661
sg19
I01
sbsg17
I1
sg20
I01
sg21
g101
sbsg17
I2
sg20
I01
sg21
g35
sbsg17
I3
sg23
(imyEvolve
Tree
p764
(dp765
g7
(imyEvolve
Tree
p766
(dp767
g14
(imyEvolve
Tree
p768
(dp769
g17
I0
sg19
I00
sbsg17
I1
sg20
I01
sg21
g101
sbsg17
I2
sg23
(imyEvolve
Tree
p770
(dp771
g7
(imyEvolve
Tree
p772
(dp773
g17
I0
sg18
F4.457041230329866
sg19
I01
sbsg17
I1
sg23
(imyEvolve
Tree
p774
(dp775
g17
I0
sg18
F-4.75218491494917
sg19
I01
sbsg20
I00
sg21
g42
sbsg20
I00
sg21
g28
sbsg20
I00
sg21
g43
sbsg20
I00
sg21
g28
sba(imyEvolve
Tree
p776
(dp777
g7
(imyEvolve
Tree
p778
(dp779
g7
(imyEvolve
Tree
p780
(dp781
g7
(imyEvolve
Tree
p782
(dp783
g14
(imyEvolve
Tree
p784
(dp785
g17
I0
sg19
I00
sbsg17
I1
sg20
I01
sg21
g86
sbsg17
I2
sg23
(imyEvolve
Tree
p786
(dp787
g7
(imyEvolve
Tree
p788
(dp789
g17
I0
sg18
F-1.8699062492470464
sg19
I01
sbsg17
I1
sg23
(imyEvolve
Tree
p790
(dp791
g17
I0
sg19
I00
sbsg20
I00
sg21
g43
sbsg20
I00
sg21
g42
sbsg17
I3
sg23
(imyEvolve
Tree
p792
(dp793
g7
(imyEvolve
Tree
p794
(dp795
g14
(imyEvolve
Tree
p796
(dp797
g17
I0
sg18
F-0.9706739731235059
sg19
I01
sbsg17
I1
sg20
I01
sg21
g22
sbsg17
I2
sg23
(imyEvolve
Tree
p798
(dp799
g7
(imyEvolve
Tree
p800
(dp801
g17
I0
sg18
F-1.2260746446701107
sg19
I01
sbsg17
I1
sg23
(imyEvolve
Tree
p802
(dp803
g17
I0
sg19
I00
sbsg20
I00
sg21
g42
sbsg20
I00
sg21
g43
sbsg20
I00
sg21
g42
sbsg17
I4
sg23
(imyEvolve
Tree
p804
(dp805
g7
(imyEvolve
Tree
p806
(dp807
g7
(imyEvolve
Tree
p808
(dp809
g14
(imyEvolve
Tree
p810
(dp811
g17
I0
sg18
F-4.53896893297225
sg19
I01
sbsg17
I1
sg20
I01
sg21
g101
sbsg17
I2
sg23
(imyEvolve
Tree
p812
(dp813
g7
(imyEvolve
Tree
p814
(dp815
g17
I0
sg18
F3.450327230920987
sg19
I01
sbsg17
I1
sg23
(imyEvolve
Tree
p816
(dp817
g17
I0
sg19
I00
sbsg20
I00
sg21
g28
sbsg20
I00
sg21
g43
sbsg17
I3
sg23
(imyEvolve
Tree
p818
(dp819
g14
(imyEvolve
Tree
p820
(dp821
g7
(imyEvolve
Tree
p822
(dp823
g17
I0
sg19
I00
sbsg17
I1
sg23
(imyEvolve
Tree
p824
(dp825
g17
I0
sg18
F-2.9796109169103016
sg19
I01
sbsg20
I00
sg21
g28
sbsg17
I2
sg20
I01
sg21
g35
sbsg20
I00
sg21
g43
sbsg20
I00
sg21
g42
sba(imyEvolve
Tree
p826
(dp827
g14
(imyEvolve
Tree
p828
(dp829
g14
(imyEvolve
Tree
p830
(dp831
g7
(imyEvolve
Tree
p832
(dp833
g14
(imyEvolve
Tree
p834
(dp835
g17
I0
sg18
F-4.2858587952288785
sg19
I01
sbsg17
I1
sg20
I01
sg21
g22
sbsg17
I2
sg23
(imyEvolve
Tree
p836
(dp837
g14
(imyEvolve
Tree
p838
(dp839
g17
I0
sg18
F-3.0562177345982713
sg19
I01
sbsg17
I1
sg20
I01
sg21
g22
sbsg20
I00
sg21
g28
sbsg17
I3
sg20
I01
sg21
g22
sbsg17
I4
sg20
I01
sg21
g86
sba(imyEvolve
Tree
p840
(dp841
g7
(imyEvolve
Tree
p842
(dp843
g14
(imyEvolve
Tree
p844
(dp845
g14
(imyEvolve
Tree
p846
(dp847
g7
(imyEvolve
Tree
p848
(dp849
g14
(imyEvolve
Tree
p850
(dp851
g17
I0
sg18
F-2.4735955829724277
sg19
I01
sbsg17
I1
sg20
I01
sg21
g86
sbsg17
I2
sg23
(imyEvolve
Tree
p852
(dp853
g14
(imyEvolve
Tree
p854
(dp855
g17
I0
sg19
I00
sbsg17
I1
sg20
I01
sg21
g86
sbsg20
I00
sg21
g28
sbsg17
I3
sg20
I01
sg21
g101
sbsg17
I4
sg20
I01
sg21
g101
sbsg17
I5
sg23
(imyEvolve
Tree
p856
(dp857
g7
(imyEvolve
Tree
p858
(dp859
g14
(imyEvolve
Tree
p860
(dp861
g14
(imyEvolve
Tree
p862
(dp863
g7
(imyEvolve
Tree
p864
(dp865
g17
I0
sg19
I00
sbsg17
I1
sg23
(imyEvolve
Tree
p866
(dp867
g17
I0
sg19
I00
sbsg20
I00
sg21
g28
sbsg17
I2
sg20
I01
sg21
g35
sbsg17
I3
sg20
I01
sg21
g35
sbsg17
I4
sg23
(imyEvolve
Tree
p868
(dp869
g14
(imyEvolve
Tree
p870
(dp871
g14
(imyEvolve
Tree
p872
(dp873
g14
(imyEvolve
Tree
p874
(dp875
g17
I0
sg19
I00
sbsg17
I1
sg20
I01
sg21
g101
sbsg17
I2
sg20
I01
sg21
g35
sbsg17
I3
sg20
I01
sg21
g101
sbsg20
I00
sg21
g42
sbsg20
I00
sg21
g42
sba(imyEvolve
Tree
p876
(dp877
g14
(imyEvolve
Tree
p878
(dp879
g14
(imyEvolve
Tree
p880
(dp881
g7
(imyEvolve
Tree
p882
(dp883
g7
(imyEvolve
Tree
p884
(dp885
g14
(imyEvolve
Tree
p886
(dp887
g17
I0
sg19
I00
sbsg17
I1
sg20
I01
sg21
g22
sbsg17
I2
sg23
(imyEvolve
Tree
p888
(dp889
g7
(imyEvolve
Tree
p890
(dp891
g17
I0
sg19
I00
sbsg17
I1
sg23
(imyEvolve
Tree
p892
(dp893
g17
I0
sg18
F0.729164685032603
sg19
I01
sbsg20
I00
sg21
g43
sbsg20
I00
sg21
g43
sbsg17
I3
sg23
(imyEvolve
Tree
p894
(dp895
g7
(imyEvolve
Tree
p896
(dp897
g7
(imyEvolve
Tree
p898
(dp899
g17
I0
sg19
I00
sbsg17
I1
sg23
(imyEvolve
Tree
p900
(dp901
g17
I0
sg18
F-1.5172239541471209
sg19
I01
sbsg20
I00
sg21
g42
sbsg17
I2
sg23
(imyEvolve
Tree
p902
(dp903
g7
(imyEvolve
Tree
p904
(dp905
g17
I0
sg19
I00
sbsg17
I1
sg23
(imyEvolve
Tree
p906
(dp907
g17
I0
sg19
I00
sbsg20
I00
sg21
g42
sbsg20
I00
sg21
g28
sbsg20
I00
sg21
g42
sbsg17
I4
sg20
I01
sg21
g35
sbsg17
I5
sg20
I01
sg21
g35
sba(imyEvolve
Tree
p908
(dp909
g14
(imyEvolve
Tree
p910
(dp911
g17
I1
sg7
(imyEvolve
Tree
p912
(dp913
g17
I0
sg18
F2.1658433159649224
sg19
I01
sbsg23
(imyEvolve
Tree
p914
(dp915
g17
I0
sg19
I00
sbsg20
I00
sg21
g28
sbsg17
I2
sg20
I01
sg21
g35
sba(imyEvolve
Tree
p916
(dp917
g14
(imyEvolve
Tree
p918
(dp919
g17
I1
sg7
(imyEvolve
Tree
p920
(dp921
g17
I0
sg18
F-2.044782574147135
sg19
I01
sbsg23
(imyEvolve
Tree
p922
(dp923
g17
I0
sg18
F-2.866569419103522
sg19
I01
sbsg20
I00
sg21
g42
sbsg17
I2
sg20
I01
sg21
g22
sba(imyEvolve
Tree
p924
(dp925
g14
(imyEvolve
Tree
p926
(dp927
g14
(imyEvolve
Tree
p928
(dp929
g17
I0
sg18
F-3.798805150816894
sg19
I01
sbsg17
I1
sg20
I01
sg21
g86
sbsg17
I2
sg20
I01
sg21
g35
sba(imyEvolve
Tree
p930
(dp931
g14
(imyEvolve
Tree
p932
(dp933
g7
(imyEvolve
Tree
p934
(dp935
g7
(imyEvolve
Tree
p936
(dp937
g7
(imyEvolve
Tree
p938
(dp939
g17
I0
sg18
F-2.2020377599557364
sg19
I01
sbsg17
I1
sg23
(imyEvolve
Tree
p940
(dp941
g17
I0
sg18
F-3.6271580895520272
sg19
I01
sbsg20
I00
sg21
g43
sbsg17
I2
sg23
(imyEvolve
Tree
p942
(dp943
g14
(imyEvolve
Tree
p944
(dp945
g17
I0
sg18
F-2.5733513684643325
sg19
I01
sbsg17
I1
sg20
I01
sg21
g22
sbsg20
I00
sg21
g28
sbsg17
I3
sg23
(imyEvolve
Tree
p946
(dp947
g14
(imyEvolve
Tree
p948
(dp949
g14
(imyEvolve
Tree
p950
(dp951
g17
I0
sg19
I00
sbsg17
I1
sg20
I01
sg21
g22
sbsg17
I2
sg20
I01
sg21
g22
sbsg20
I00
sg21
g43
sbsg17
I4
sg20
I01
sg21
g35
sba(imyEvolve
Tree
p952
(dp953
g7
(imyEvolve
Tree
p954
(dp955
g7
(imyEvolve
Tree
p956
(dp957
g14
(imyEvolve
Tree
p958
(dp959
g14
(imyEvolve
Tree
p960
(dp961
g7
(imyEvolve
Tree
p962
(dp963
g17
I0
sg19
I00
sbsg17
I1
sg23
(imyEvolve
Tree
p964
(dp965
g17
I0
sg18
F1.6948851448311286
sg19
I01
sbsg20
I00
sg21
g28
sbsg17
I2
sg20
I01
sg21
g101
sbsg17
I3
sg20
I01
sg21
g101
sbsg17
I4
sg23
(imyEvolve
Tree
p966
(dp967
g14
(imyEvolve
Tree
p968
(dp969
g7
(imyEvolve
Tree
p970
(dp971
g7
(imyEvolve
Tree
p972
(dp973
g17
I0
sg19
I00
sbsg17
I1
sg23
(imyEvolve
Tree
p974
(dp975
g17
I0
sg18
F2.8962963575390654
sg19
I01
sbsg20
I00
sg21
g43
sbsg17
I2
sg23
(imyEvolve
Tree
p976
(dp977
g14
(imyEvolve
Tree
p978
(dp979
g17
I0
sg19
I00
sbsg17
I1
sg20
I01
sg21
g101
sbsg20
I00
sg21
g43
sbsg17
I3
sg20
I01
sg21
g86
sbsg20
I00
sg21
g42
sbsg17
I5
sg23
(imyEvolve
Tree
p980
(dp981
g14
(imyEvolve
Tree
p982
(dp983
g14
(imyEvolve
Tree
p984
(dp985
g14
(imyEvolve
Tree
p986
(dp987
g7
(imyEvolve
Tree
p988
(dp989
g17
I0
sg19
I00
sbsg17
I1
sg23
(imyEvolve
Tree
p990
(dp991
g17
I0
sg18
F-0.700644468669327
sg19
I01
sbsg20
I00
sg21
g43
sbsg17
I2
sg20
I01
sg21
g86
sbsg17
I3
sg20
I01
sg21
g35
sbsg17
I4
sg20
I01
sg21
g35
sbsg20
I00
sg21
g42
sba(imyEvolve
Tree
p992
(dp993
g7
(imyEvolve
Tree
p994
(dp995
g7
(imyEvolve
Tree
p996
(dp997
g14
(imyEvolve
Tree
p998
(dp999
g14
(imyEvolve
Tree
p1000
(dp1001
g7
(imyEvolve
Tree
p1002
(dp1003
g17
I0
sg18
F-2.2569961067032542
sg19
I01
sbsg17
I1
sg23
(imyEvolve
Tree
p1004
(dp1005
g17
I0
sg18
F0.983202839378766
sg19
I01
sbsg20
I00
sg21
g43
sbsg17
I2
sg20
I01
sg21
g86
sbsg17
I3
sg20
I01
sg21
g22
sbsg17
I4
sg23
(imyEvolve
Tree
p1006
(dp1007
g7
(imyEvolve
Tree
p1008
(dp1009
g14
(imyEvolve
Tree
p1010
(dp1011
g7
(imyEvolve
Tree
p1012
(dp1013
g17
I0
sg19
I00
sbsg17
I1
sg23
(imyEvolve
Tree
p1014
(dp1015
g17
I0
sg18
F-4.167047866100276
sg19
I01
sbsg20
I00
sg21
g42
sbsg17
I2
sg20
I01
sg21
g22
sbsg17
I3
sg23
(imyEvolve
Tree
p1016
(dp1017
g7
(imyEvolve
Tree
p1018
(dp1019
g14
(imyEvolve
Tree
p1020
(dp1021
g17
I0
sg19
I00
sbsg17
I1
sg20
I01
sg21
g101
sbsg17
I2
sg23
(imyEvolve
Tree
p1022
(dp1023
g7
(imyEvolve
Tree
p1024
(dp1025
g17
I0
sg19
I00
sbsg17
I1
sg23
(imyEvolve
Tree
p1026
(dp1027
g17
I0
sg19
I00
sbsg20
I00
sg21
g42
sbsg20
I00
sg21
g43
sbsg20
I00
sg21
g43
sbsg20
I00
sg21
g28
sbsg17
I5
sg23
(imyEvolve
Tree
p1028
(dp1029
g14
(imyEvolve
Tree
p1030
(dp1031
g7
(imyEvolve
Tree
p1032
(dp1033
g7
(imyEvolve
Tree
p1034
(dp1035
g7
(imyEvolve
Tree
p1036
(dp1037
g17
I0
sg19
I00
sbsg17
I1
sg23
(imyEvolve
Tree
p1038
(dp1039
g17
I0
sg18
F0.6559586929472481
sg19
I01
sbsg20
I00
sg21
g43
sbsg17
I2
sg23
(imyEvolve
Tree
p1040
(dp1041
g14
(imyEvolve
Tree
p1042
(dp1043
g17
I0
sg19
I00
sbsg17
I1
sg20
I01
sg21
g22
sbsg20
I00
sg21
g28
sbsg17
I3
sg23
(imyEvolve
Tree
p1044
(dp1045
g7
(imyEvolve
Tree
p1046
(dp1047
g14
(imyEvolve
Tree
p1048
(dp1049
g17
I0
sg19
I00
sbsg17
I1
sg20
I01
sg21
g86
sbsg17
I2
sg23
(imyEvolve
Tree
p1050
(dp1051
g14
(imyEvolve
Tree
p1052
(dp1053
g17
I0
sg19
I00
sbsg17
I1
sg20
I01
sg21
g86
sbsg20
I00
sg21
g43
sbsg20
I00
sg21
g42
sbsg17
I4
sg20
I01
sg21
g101
sbsg20
I00
sg21
g42
sbaasS'alpha'
p1054
F0.006081428776862099
sS'fitness'
p1055
cnumpy.core.multiarray
scalar
p1056
(cnumpy
dtype
p1057
(S'f8'
p1058
I0
I1
tp1059
Rp1060
(I3
S'<'
p1061
NNNI-1
I-1
I0
tp1062
bS'\x00t\xb5\x15\x0f\xd8\\?'
p1063
tp1064
Rp1065
sS'weightSharing'
p1066
(lp1067
I00
asS'fitnessValid'
p1068
I00
sS'resolution'
p1069
I99
sb.