(imyEvolve
Individual
p0
(dp1
S'funcs'
p2
(lp3
(lp4
(imyEvolve
Tree
p5
(dp6
S'left'
p7
(imyEvolve
Tree
p8
(dp9
g7
(imyEvolve
Tree
p10
(dp11
g7
(imyEvolve
Tree
p12
(dp13
S'below'
p14
(imyEvolve
Tree
p15
(dp16
S'depth'
p17
I0
sS'isConstant'
p18
I00
sbsg17
I1
sS'single'
p19
I01
sS'op'
p20
cmath
sin
p21
sbsg17
I2
sS'right'
p22
(imyEvolve
Tree
p23
(dp24
g7
(imyEvolve
Tree
p25
(dp26
g17
I0
sg18
I00
sbsg17
I1
sg22
(imyEvolve
Tree
p27
(dp28
g17
I0
sg18
I00
sbsg19
I00
sg20
coperator
sub
p29
sbsg19
I00
sg20
g29
sbsg17
I3
sg22
(imyEvolve
Tree
p30
(dp31
g14
(imyEvolve
Tree
p32
(dp33
g7
(imyEvolve
Tree
p34
(dp35
g17
I0
sS'constant'
p36
F0.45543967615086167
sg18
I01
sbsg17
I1
sg22
(imyEvolve
Tree
p37
(dp38
g17
I0
sg18
I00
sbsg19
I00
sg20
coperator
mul
p39
sbsg17
I2
sg19
I01
sg20
g21
sbsg19
I00
sg20
g29
sbsg17
I4
sg22
(imyEvolve
Tree
p40
(dp41
g7
(imyEvolve
Tree
p42
(dp43
g7
(imyEvolve
Tree
p44
(dp45
g14
(imyEvolve
Tree
p46
(dp47
g17
I0
sg36
F4.667359367662119
sg18
I01
sbsg17
I1
sg19
I01
sg20
g21
sbsg17
I2
sg22
(imyEvolve
Tree
p48
(dp49
g14
(imyEvolve
Tree
p50
(dp51
g17
I0
sg18
I00
sbsg17
I1
sg19
I01
sg20
cmyEvolve
absSqrt
p52
sbsg19
I00
sg20
coperator
add
p53
sbsg17
I3
sg22
(imyEvolve
Tree
p54
(dp55
g14
(imyEvolve
Tree
p56
(dp57
g14
(imyEvolve
Tree
p58
(dp59
g17
I0
sg18
I00
sbsg17
I1
sg19
I01
sg20
cmyEvolve
square
p60
sbsg17
I2
sg19
I01
sg20
g60
sbsg19
I00
sg20
g29
sbsg19
I00
sg20
g53
sba(imyEvolve
Tree
p61
(dp62
g7
(imyEvolve
Tree
p63
(dp64
g7
(imyEvolve
Tree
p65
(dp66
g7
(imyEvolve
Tree
p67
(dp68
g7
(imyEvolve
Tree
p69
(dp70
g17
I0
sg18
I00
sbsg17
I1
sg22
(imyEvolve
Tree
p71
(dp72
g17
I0
sg18
I00
sbsg19
I00
sg20
g39
sbsg17
I2
sg22
(imyEvolve
Tree
p73
(dp74
g7
(imyEvolve
Tree
p75
(dp76
g17
I0
sg18
I00
sbsg17
I1
sg22
(imyEvolve
Tree
p77
(dp78
g17
I0
sg18
I00
sbsg19
I00
sg20
g39
sbsg19
I00
sg20
g39
sbsg17
I3
sg22
(imyEvolve
Tree
p79
(dp80
g14
(imyEvolve
Tree
p81
(dp82
g14
(imyEvolve
Tree
p83
(dp84
g17
I0
sg36
F2.5861411745501615
sg18
I01
sbsg17
I1
sg19
I01
sg20
g60
sbsg17
I2
sg19
I01
sg20
g52
sbsg19
I00
sg20
g29
sbsg17
I4
sg22
(imyEvolve
Tree
p85
(dp86
g14
(imyEvolve
Tree
p87
(dp88
g7
(imyEvolve
Tree
p89
(dp90
g7
(imyEvolve
Tree
p91
(dp92
g17
I0
sg18
I00
sbsg17
I1
sg22
(imyEvolve
Tree
p93
(dp94
g17
I0
sg36
F0.4170985738254762
sg18
I01
sbsg19
I00
sg20
g39
sbsg17
I2
sg22
(imyEvolve
Tree
p95
(dp96
g14
(imyEvolve
Tree
p97
(dp98
g17
I0
sg18
I00
sbsg17
I1
sg19
I01
sg20
g21
sbsg19
I00
sg20
g39
sbsg17
I3
sg19
I01
sg20
g52
sbsg19
I00
sg20
g39
sba(imyEvolve
Tree
p99
(dp100
g14
(imyEvolve
Tree
p101
(dp102
g7
(imyEvolve
Tree
p103
(dp104
g14
(imyEvolve
Tree
p105
(dp106
g14
(imyEvolve
Tree
p107
(dp108
g17
I0
sg18
I00
sbsg17
I1
sg19
I01
sg20
g21
sbsg17
I2
sg19
I01
sg20
g21
sbsg17
I3
sg22
(imyEvolve
Tree
p109
(dp110
g7
(imyEvolve
Tree
p111
(dp112
g7
(imyEvolve
Tree
p113
(dp114
g17
I0
sg18
I00
sbsg17
I1
sg22
(imyEvolve
Tree
p115
(dp116
g17
I0
sg18
I00
sbsg19
I00
sg20
g29
sbsg17
I2
sg22
(imyEvolve
Tree
p117
(dp118
g14
(imyEvolve
Tree
p119
(dp120
g17
I0
sg18
I00
sbsg17
I1
sg19
I01
sg20
g52
sbsg19
I00
sg20
g29
sbsg19
I00
sg20
g29
sbsg17
I4
sg19
I01
sg20
g52
sba(imyEvolve
Tree
p121
(dp122
g17
I2
sg7
(imyEvolve
Tree
p123
(dp124
g17
I1
sg7
(imyEvolve
Tree
p125
(dp126
g17
I0
sg18
I00
sbsg22
(imyEvolve
Tree
p127
(dp128
g17
I0
sg36
F2.421479070601893
sg18
I01
sbsg19
I00
sg20
g53
sbsg22
(imyEvolve
Tree
p129
(dp130
g17
I1
sg7
(imyEvolve
Tree
p131
(dp132
g17
I0
sg36
F-3.8051865379669083
sg18
I01
sbsg22
(imyEvolve
Tree
p133
(dp134
g17
I0
sg18
I00
sbsg19
I00
sg20
g53
sbsg19
I00
sg20
g29
sba(imyEvolve
Tree
p135
(dp136
g14
(imyEvolve
Tree
p137
(dp138
g17
I2
sg7
(imyEvolve
Tree
p139
(dp140
g17
I1
sg7
(imyEvolve
Tree
p141
(dp142
g17
I0
sg18
I00
sbsg22
(imyEvolve
Tree
p143
(dp144
g17
I0
sg36
F2.873583232553311
sg18
I01
sbsg19
I00
sg20
g29
sbsg22
(imyEvolve
Tree
p145
(dp146
g14
(imyEvolve
Tree
p147
(dp148
g17
I0
sg18
I00
sbsg17
I1
sg19
I01
sg20
g21
sbsg19
I00
sg20
g29
sbsg17
I3
sg19
I01
sg20
g60
sba(imyEvolve
Tree
p149
(dp150
g7
(imyEvolve
Tree
p151
(dp152
g14
(imyEvolve
Tree
p153
(dp154
g7
(imyEvolve
Tree
p155
(dp156
g17
I0
sg36
F-4.753227574204745
sg18
I01
sbsg17
I1
sg22
(imyEvolve
Tree
p157
(dp158
g17
I0
sg18
I00
sbsg19
I00
sg20
g29
sbsg17
I2
sg19
I01
sg20
g60
sbsg17
I3
sg22
(imyEvolve
Tree
p159
(dp160
g7
(imyEvolve
Tree
p161
(dp162
g7
(imyEvolve
Tree
p163
(dp164
g17
I0
sg36
F-1.5992834107096252
sg18
I01
sbsg17
I1
sg22
(imyEvolve
Tree
p165
(dp166
g17
I0
sg36
F-4.881265711340267
sg18
I01
sbsg19
I00
sg20
g53
sbsg17
I2
sg22
(imyEvolve
Tree
p167
(dp168
g14
(imyEvolve
Tree
p169
(dp170
g17
I0
sg36
F-1.7487135846197366
sg18
I01
sbsg17
I1
sg19
I01
sg20
g60
sbsg19
I00
sg20
g39
sbsg19
I00
sg20
g53
sba(imyEvolve
Tree
p171
(dp172
g14
(imyEvolve
Tree
p173
(dp174
g7
(imyEvolve
Tree
p175
(dp176
g7
(imyEvolve
Tree
p177
(dp178
g17
I0
sg18
I00
sbsg17
I1
sg22
(imyEvolve
Tree
p179
(dp180
g17
I0
sg18
I00
sbsg19
I00
sg20
g39
sbsg17
I2
sg22
(imyEvolve
Tree
p181
(dp182
g14
(imyEvolve
Tree
p183
(dp184
g17
I0
sg36
F0.04177318046119538
sg18
I01
sbsg17
I1
sg19
I01
sg20
g21
sbsg19
I00
sg20
g53
sbsg17
I3
sg19
I01
sg20
cmath
cos
p185
sba(imyEvolve
Tree
p186
(dp187
g7
(imyEvolve
Tree
p188
(dp189
g7
(imyEvolve
Tree
p190
(dp191
g17
I0
sg36
F-2.9053473363768436
sg18
I01
sbsg17
I1
sg22
(imyEvolve
Tree
p192
(dp193
g17
I0
sg36
F-3.528194867560398
sg18
I01
sbsg19
I00
sg20
g39
sbsg17
I2
sg22
(imyEvolve
Tree
p194
(dp195
g14
(imyEvolve
Tree
p196
(dp197
g17
I0
sg36
F-2.8123209310696495
sg18
I01
sbsg17
I1
sg19
I01
sg20
g60
sbsg19
I00
sg20
g29
sba(imyEvolve
Tree
p198
(dp199
g14
(imyEvolve
Tree
p200
(dp201
g17
I4
sg7
(imyEvolve
Tree
p202
(dp203
g17
I3
sg7
(imyEvolve
Tree
p204
(dp205
g14
(imyEvolve
Tree
p206
(dp207
g17
I1
sg7
(imyEvolve
Tree
p208
(dp209
g17
I0
sg18
I00
sbsg22
(imyEvolve
Tree
p210
(dp211
g17
I0
sg36
F1.5108712131365012
sg18
I01
sbsg19
I00
sg20
g39
sbsg17
I2
sg19
I01
sg20
g52
sbsg22
(imyEvolve
Tree
p212
(dp213
g14
(imyEvolve
Tree
p214
(dp215
g14
(imyEvolve
Tree
p216
(dp217
g17
I0
sg18
I00
sbsg17
I1
sg19
I01
sg20
g60
sbsg17
I2
sg19
I01
sg20
g185
sbsg19
I00
sg20
g39
sbsg22
(imyEvolve
Tree
p218
(dp219
g14
(imyEvolve
Tree
p220
(dp221
g14
(imyEvolve
Tree
p222
(dp223
g17
I1
sg7
(imyEvolve
Tree
p224
(dp225
g17
I0
sg18
I00
sbsg22
(imyEvolve
Tree
p226
(dp227
g17
I0
sg36
F-1.5012270010382798
sg18
I01
sbsg19
I00
sg20
g39
sbsg17
I2
sg19
I01
sg20
g60
sbsg17
I3
sg19
I01
sg20
g60
sbsg19
I00
sg20
g29
sbsg17
I5
sg19
I01
sg20
g185
sba(imyEvolve
Tree
p228
(dp229
g14
(imyEvolve
Tree
p230
(dp231
g17
I4
sg7
(imyEvolve
Tree
p232
(dp233
g17
I3
sg7
(imyEvolve
Tree
p234
(dp235
g17
I2
sg7
(imyEvolve
Tree
p236
(dp237
g17
I1
sg7
(imyEvolve
Tree
p238
(dp239
g17
I0
sg36
F-1.4397772150378318
sg18
I01
sbsg22
(imyEvolve
Tree
p240
(dp241
g17
I0
sg36
F4.47262828587507
sg18
I01
sbsg19
I00
sg20
g39
sbsg22
(imyEvolve
Tree
p242
(dp243
g17
I1
sg7
(imyEvolve
Tree
p244
(dp245
g17
I0
sg18
I00
sbsg22
(imyEvolve
Tree
p246
(dp247
g17
I0
sg18
I00
sbsg19
I00
sg20
g29
sbsg19
I00
sg20
g29
sbsg22
(imyEvolve
Tree
p248
(dp249
g14
(imyEvolve
Tree
p250
(dp251
g14
(imyEvolve
Tree
p252
(dp253
g17
I0
sg36
F-2.0265250815605294
sg18
I01
sbsg17
I1
sg19
I01
sg20
g21
sbsg17
I2
sg19
I01
sg20
g185
sbsg19
I00
sg20
g53
sbsg22
(imyEvolve
Tree
p254
(dp255
g14
(imyEvolve
Tree
p256
(dp257
g14
(imyEvolve
Tree
p258
(dp259
g14
(imyEvolve
Tree
p260
(dp261
g17
I0
sg36
F2.253130881689117
sg18
I01
sbsg17
I1
sg19
I01
sg20
g52
sbsg17
I2
sg19
I01
sg20
g21
sbsg17
I3
sg19
I01
sg20
g60
sbsg19
I00
sg20
g29
sbsg17
I5
sg19
I01
sg20
g52
sba(imyEvolve
Tree
p262
(dp263
g7
(imyEvolve
Tree
p264
(dp265
g14
(imyEvolve
Tree
p266
(dp267
g7
(imyEvolve
Tree
p268
(dp269
g17
I0
sg36
F-2.751267333756987
sg18
I01
sbsg17
I1
sg22
(imyEvolve
Tree
p270
(dp271
g17
I0
sg18
I00
sbsg19
I00
sg20
g53
sbsg17
I2
sg19
I01
sg20
g185
sbsg17
I3
sg22
(imyEvolve
Tree
p272
(dp273
g14
(imyEvolve
Tree
p274
(dp275
g7
(imyEvolve
Tree
p276
(dp277
g17
I0
sg18
I00
sbsg17
I1
sg22
(imyEvolve
Tree
p278
(dp279
g17
I0
sg36
F0.9869549587843345
sg18
I01
sbsg19
I00
sg20
g29
sbsg17
I2
sg19
I01
sg20
g60
sbsg19
I00
sg20
g39
sba(imyEvolve
Tree
p280
(dp281
g14
(imyEvolve
Tree
p282
(dp283
g7
(imyEvolve
Tree
p284
(dp285
g17
I0
sg36
F-2.5585455206850174
sg18
I01
sbsg17
I1
sg22
(imyEvolve
Tree
p286
(dp287
g17
I0
sg36
F3.217321101337852
sg18
I01
sbsg19
I00
sg20
g39
sbsg17
I2
sg19
I01
sg20
g185
sba(imyEvolve
Tree
p288
(dp289
g7
(imyEvolve
Tree
p290
(dp291
g14
(imyEvolve
Tree
p292
(dp293
g7
(imyEvolve
Tree
p294
(dp295
g14
(imyEvolve
Tree
p296
(dp297
g7
(imyEvolve
Tree
p298
(dp299
g17
I0
sg18
I00
sbsg17
I1
sg22
(imyEvolve
Tree
p300
(dp301
g17
I0
sg18
I00
sbsg19
I00
sg20
g29
sbsg17
I2
sg19
I01
sg20
g21
sbsg17
I3
sg22
(imyEvolve
Tree
p302
(dp303
g7
(imyEvolve
Tree
p304
(dp305
g7
(imyEvolve
Tree
p306
(dp307
g17
I0
sg36
F1.3322733561383924
sg18
I01
sbsg17
I1
sg22
(imyEvolve
Tree
p308
(dp309
g17
I0
sg36
F-4.33432992587166
sg18
I01
sbsg19
I00
sg20
g39
sbsg17
I2
sg22
(imyEvolve
Tree
p310
(dp311
g7
(imyEvolve
Tree
p312
(dp313
g17
I0
sg18
I00
sbsg17
I1
sg22
(imyEvolve
Tree
p314
(dp315
g17
I0
sg18
I00
sbsg19
I00
sg20
g29
sbsg19
I00
sg20
g53
sbsg19
I00
sg20
g39
sbsg17
I4
sg19
I01
sg20
g60
sbsg17
I5
sg22
(imyEvolve
Tree
p316
(dp317
g7
(imyEvolve
Tree
p318
(dp319
g14
(imyEvolve
Tree
p320
(dp321
g7
(imyEvolve
Tree
p322
(dp323
g14
(imyEvolve
Tree
p324
(dp325
g17
I0
sg18
I00
sbsg17
I1
sg19
I01
sg20
g60
sbsg17
I2
sg22
(imyEvolve
Tree
p326
(dp327
g7
(imyEvolve
Tree
p328
(dp329
g17
I0
sg36
F-0.10358627776562024
sg18
I01
sbsg17
I1
sg22
(imyEvolve
Tree
p330
(dp331
g17
I0
sg18
I00
sbsg19
I00
sg20
g53
sbsg19
I00
sg20
g53
sbsg17
I3
sg19
I01
sg20
g52
sbsg17
I4
sg22
(imyEvolve
Tree
p332
(dp333
g14
(imyEvolve
Tree
p334
(dp335
g14
(imyEvolve
Tree
p336
(dp337
g14
(imyEvolve
Tree
p338
(dp339
g17
I0
sg18
I00
sbsg17
I1
sg19
I01
sg20
g21
sbsg17
I2
sg19
I01
sg20
g185
sbsg17
I3
sg19
I01
sg20
g52
sbsg19
I00
sg20
g29
sbsg19
I00
sg20
g39
sba(imyEvolve
Tree
p340
(dp341
g7
(imyEvolve
Tree
p342
(dp343
g7
(imyEvolve
Tree
p344
(dp345
g7
(imyEvolve
Tree
p346
(dp347
g14
(imyEvolve
Tree
p348
(dp349
g7
(imyEvolve
Tree
p350
(dp351
g17
I0
sg36
F0.16570165781721258
sg18
I01
sbsg17
I1
sg22
(imyEvolve
Tree
p352
(dp353
g17
I0
sg36
F0.6848558439210635
sg18
I01
sbsg19
I00
sg20
g39
sbsg17
I2
sg19
I01
sg20
g60
sbsg17
I3
sg22
(imyEvolve
Tree
p354
(dp355
g7
(imyEvolve
Tree
p356
(dp357
g14
(imyEvolve
Tree
p358
(dp359
g17
I0
sg36
F3.2001790610146017
sg18
I01
sbsg17
I1
sg19
I01
sg20
g52
sbsg17
I2
sg22
(imyEvolve
Tree
p360
(dp361
g14
(imyEvolve
Tree
p362
(dp363
g17
I0
sg18
I00
sbsg17
I1
sg19
I01
sg20
g185
sbsg19
I00
sg20
g39
sbsg19
I00
sg20
g53
sbsg17
I4
sg22
(imyEvolve
Tree
p364
(dp365
g14
(imyEvolve
Tree
p366
(dp367
g7
(imyEvolve
Tree
p368
(dp369
g14
(imyEvolve
Tree
p370
(dp371
g17
I0
sg18
I00
sbsg17
I1
sg19
I01
sg20
g21
sbsg17
I2
sg22
(imyEvolve
Tree
p372
(dp373
g7
(imyEvolve
Tree
p374
(dp375
g17
I0
sg18
I00
sbsg17
I1
sg22
(imyEvolve
Tree
p376
(dp377
g17
I0
sg18
I00
sbsg19
I00
sg20
g53
sbsg19
I00
sg20
g39
sbsg17
I3
sg19
I01
sg20
g52
sbsg19
I00
sg20
g29
sbsg17
I5
sg22
(imyEvolve
Tree
p378
(dp379
g7
(imyEvolve
Tree
p380
(dp381
g14
(imyEvolve
Tree
p382
(dp383
g7
(imyEvolve
Tree
p384
(dp385
g14
(imyEvolve
Tree
p386
(dp387
g17
I0
sg18
I00
sbsg17
I1
sg19
I01
sg20
g60
sbsg17
I2
sg22
(imyEvolve
Tree
p388
(dp389
g14
(imyEvolve
Tree
p390
(dp391
g17
I0
sg36
F-4.067240728503815
sg18
I01
sbsg17
I1
sg19
I01
sg20
g52
sbsg19
I00
sg20
g53
sbsg17
I3
sg19
I01
sg20
g60
sbsg17
I4
sg22
(imyEvolve
Tree
p392
(dp393
g14
(imyEvolve
Tree
p394
(dp395
g7
(imyEvolve
Tree
p396
(dp397
g7
(imyEvolve
Tree
p398
(dp399
g17
I0
sg18
I00
sbsg17
I1
sg22
(imyEvolve
Tree
p400
(dp401
g17
I0
sg36
F-4.405329848433878
sg18
I01
sbsg19
I00
sg20
g39
sbsg17
I2
sg22
(imyEvolve
Tree
p402
(dp403
g7
(imyEvolve
Tree
p404
(dp405
g17
I0
sg36
F3.8547986912957892
sg18
I01
sbsg17
I1
sg22
(imyEvolve
Tree
p406
(dp407
g17
I0
sg36
F1.2866042710604733
sg18
I01
sbsg19
I00
sg20
g39
sbsg19
I00
sg20
g29
sbsg17
I3
sg19
I01
sg20
g60
sbsg19
I00
sg20
g29
sbsg19
I00
sg20
g53
sba(imyEvolve
Tree
p408
(dp409
g14
(imyEvolve
Tree
p410
(dp411
g7
(imyEvolve
Tree
p412
(dp413
g14
(imyEvolve
Tree
p414
(dp415
g14
(imyEvolve
Tree
p416
(dp417
g17
I0
sg36
F-3.464502700019445
sg18
I01
sbsg17
I1
sg19
I01
sg20
g60
sbsg17
I2
sg19
I01
sg20
g185
sbsg17
I3
sg22
(imyEvolve
Tree
p418
(dp419
g7
(imyEvolve
Tree
p420
(dp421
g14
(imyEvolve
Tree
p422
(dp423
g17
I0
sg18
I00
sbsg17
I1
sg19
I01
sg20
g21
sbsg17
I2
sg22
(imyEvolve
Tree
p424
(dp425
g7
(imyEvolve
Tree
p426
(dp427
g17
I0
sg36
F0.6549135843643015
sg18
I01
sbsg17
I1
sg22
(imyEvolve
Tree
p428
(dp429
g17
I0
sg36
F0.8003109284854313
sg18
I01
sbsg19
I00
sg20
g39
sbsg19
I00
sg20
g39
sbsg19
I00
sg20
g29
sbsg17
I4
sg19
I01
sg20
g21
sba(imyEvolve
Tree
p430
(dp431
g7
(imyEvolve
Tree
p432
(dp433
g14
(imyEvolve
Tree
p434
(dp435
g14
(imyEvolve
Tree
p436
(dp437
g17
I0
sg36
F3.9084521129256267
sg18
I01
sbsg17
I1
sg19
I01
sg20
g52
sbsg17
I2
sg19
I01
sg20
g60
sbsg17
I3
sg22
(imyEvolve
Tree
p438
(dp439
g14
(imyEvolve
Tree
p440
(dp441
g14
(imyEvolve
Tree
p442
(dp443
g17
I0
sg18
I00
sbsg17
I1
sg19
I01
sg20
g21
sbsg17
I2
sg19
I01
sg20
g185
sbsg19
I00
sg20
g39
sba(imyEvolve
Tree
p444
(dp445
g14
(imyEvolve
Tree
p446
(dp447
g14
(imyEvolve
Tree
p448
(dp449
g14
(imyEvolve
Tree
p450
(dp451
g7
(imyEvolve
Tree
p452
(dp453
g7
(imyEvolve
Tree
p454
(dp455
g17
I0
sg18
I00
sbsg17
I1
sg22
(imyEvolve
Tree
p456
(dp457
g17
I0
sg18
I00
sbsg19
I00
sg20
g29
sbsg17
I2
sg22
(imyEvolve
Tree
p458
(dp459
g14
(imyEvolve
Tree
p460
(dp461
g17
I0
sg36
F-0.1925303300296477
sg18
I01
sbsg17
I1
sg19
I01
sg20
g60
sbsg19
I00
sg20
g29
sbsg17
I3
sg19
I01
sg20
g185
sbsg17
I4
sg19
I01
sg20
g21
sbsg17
I5
sg19
I01
sg20
g185
sba(imyEvolve
Tree
p462
(dp463
g14
(imyEvolve
Tree
p464
(dp465
g14
(imyEvolve
Tree
p466
(dp467
g14
(imyEvolve
Tree
p468
(dp469
g17
I2
sg7
(imyEvolve
Tree
p470
(dp471
g14
(imyEvolve
Tree
p472
(dp473
g17
I0
sg18
I00
sbsg17
I1
sg19
I01
sg20
g185
sbsg22
(imyEvolve
Tree
p474
(dp475
g14
(imyEvolve
Tree
p476
(dp477
g17
I0
sg36
F3.9711052379793728
sg18
I01
sbsg17
I1
sg19
I01
sg20
g52
sbsg19
I00
sg20
g39
sbsg17
I3
sg19
I01
sg20
g185
sbsg17
I4
sg19
I01
sg20
g52
sbsg17
I5
sg19
I01
sg20
g60
sbaasS'alpha'
p478
F0.004294837489356648
sS'fitness'
p479
cnumpy.core.multiarray
scalar
p480
(cnumpy
dtype
p481
(S'f8'
p482
I0
I1
tp483
Rp484
(I3
S'<'
p485
NNNI-1
I-1
I0
tp486
bS'\xe9H.\x99o,\xe6?'
p487
tp488
Rp489
sS'weightSharing'
p490
(lp491
I00
aI01
asS'fitnessValid'
p492
I00
sS'resolution'
p493
I64
sb.