(imyEvolve
Individual
p0
(dp1
S'funcs'
p2
(lp3
(lp4
(imyEvolve
Tree
p5
(dp6
S'left'
p7
(imyEvolve
Tree
p8
(dp9
S'below'
p10
(imyEvolve
Tree
p11
(dp12
S'depth'
p13
I0
sS'isConstant'
p14
I00
sbsg13
I1
sS'single'
p15
I01
sS'op'
p16
cmyEvolve
square
p17
sbsg13
I2
sS'right'
p18
(imyEvolve
Tree
p19
(dp20
g7
(imyEvolve
Tree
p21
(dp22
g13
I0
sS'constant'
p23
F-1.5327513289949044
sg14
I01
sbsg13
I1
sg18
(imyEvolve
Tree
p24
(dp25
g13
I0
sg23
F0.9729893646949375
sg14
I01
sbsg15
I00
sg16
coperator
mul
p26
sbsg15
I00
sg16
coperator
add
p27
sba(imyEvolve
Tree
p28
(dp29
g13
I5
sg7
(imyEvolve
Tree
p30
(dp31
g13
I4
sg7
(imyEvolve
Tree
p32
(dp33
g13
I3
sg7
(imyEvolve
Tree
p34
(dp35
g10
(imyEvolve
Tree
p36
(dp37
g10
(imyEvolve
Tree
p38
(dp39
g13
I0
sg14
I00
sbsg13
I1
sg15
I01
sg16
cmyEvolve
absSqrt
p40
sbsg13
I2
sg15
I01
sg16
g40
sbsg18
(imyEvolve
Tree
p41
(dp42
g13
I2
sg7
(imyEvolve
Tree
p43
(dp44
g13
I1
sg7
(imyEvolve
Tree
p45
(dp46
g13
I0
sg14
I00
sbsg18
(imyEvolve
Tree
p47
(dp48
g13
I0
sg23
F2.056179067435914
sg14
I01
sbsg15
I00
sg16
coperator
sub
p49
sbsg18
(imyEvolve
Tree
p50
(dp51
g13
I1
sg7
(imyEvolve
Tree
p52
(dp53
g13
I0
sg14
I00
sbsg18
(imyEvolve
Tree
p54
(dp55
g13
I0
sg23
F2.6442215512072043
sg14
I01
sbsg15
I00
sg16
g26
sbsg15
I00
sg16
g49
sbsg15
I00
sg16
g27
sbsg18
(imyEvolve
Tree
p56
(dp57
g10
(imyEvolve
Tree
p58
(dp59
g10
(imyEvolve
Tree
p60
(dp61
g10
(imyEvolve
Tree
p62
(dp63
g13
I0
sg23
F4.583322475858084
sg14
I01
sbsg13
I1
sg15
I01
sg16
g40
sbsg13
I2
sg15
I01
sg16
g17
sbsg13
I3
sg15
I01
sg16
cmath
sin
p64
sbsg15
I00
sg16
g49
sbsg18
(imyEvolve
Tree
p65
(dp66
g13
I4
sg7
(imyEvolve
Tree
p67
(dp68
g10
(imyEvolve
Tree
p69
(dp70
g10
(imyEvolve
Tree
p71
(dp72
g10
(imyEvolve
Tree
p73
(dp74
g13
I0
sg23
F-3.134778401552989
sg14
I01
sbsg13
I1
sg15
I01
sg16
g40
sbsg13
I2
sg15
I01
sg16
g64
sbsg13
I3
sg15
I01
sg16
g17
sbsg18
(imyEvolve
Tree
p75
(dp76
g13
I3
sg7
(imyEvolve
Tree
p77
(dp78
g13
I2
sg7
(imyEvolve
Tree
p79
(dp80
g10
(imyEvolve
Tree
p81
(dp82
g13
I0
sg14
I00
sbsg13
I1
sg15
I01
sg16
cmath
cos
p83
sbsg18
(imyEvolve
Tree
p84
(dp85
g10
(imyEvolve
Tree
p86
(dp87
g13
I0
sg23
F0.06872596121677876
sg14
I01
sbsg13
I1
sg15
I01
sg16
g83
sbsg15
I00
sg16
g49
sbsg18
(imyEvolve
Tree
p88
(dp89
g13
I2
sg7
(imyEvolve
Tree
p90
(dp91
g13
I1
sg7
(imyEvolve
Tree
p92
(dp93
g13
I0
sg23
F2.2949554064859523
sg14
I01
sbsg18
(imyEvolve
Tree
p94
(dp95
g13
I0
sg14
I00
sbsg15
I00
sg16
g49
sbsg18
(imyEvolve
Tree
p96
(dp97
g13
I1
sg7
(imyEvolve
Tree
p98
(dp99
g13
I0
sg14
I00
sbsg18
(imyEvolve
Tree
p100
(dp101
g13
I0
sg14
I00
sbsg15
I00
sg16
g26
sbsg15
I00
sg16
g27
sbsg15
I00
sg16
g26
sbsg15
I00
sg16
g27
sbsg15
I00
sg16
g27
sba(imyEvolve
Tree
p102
(dp103
g10
(imyEvolve
Tree
p104
(dp105
g7
(imyEvolve
Tree
p106
(dp107
g7
(imyEvolve
Tree
p108
(dp109
g10
(imyEvolve
Tree
p110
(dp111
g13
I0
sg14
I00
sbsg13
I1
sg15
I01
sg16
g64
sbsg13
I2
sg18
(imyEvolve
Tree
p112
(dp113
g10
(imyEvolve
Tree
p114
(dp115
g13
I0
sg14
I00
sbsg13
I1
sg15
I01
sg16
g17
sbsg15
I00
sg16
g26
sbsg13
I3
sg18
(imyEvolve
Tree
p116
(dp117
g7
(imyEvolve
Tree
p118
(dp119
g7
(imyEvolve
Tree
p120
(dp121
g13
I0
sg14
I00
sbsg13
I1
sg18
(imyEvolve
Tree
p122
(dp123
g13
I0
sg23
F-4.090391860496188
sg14
I01
sbsg15
I00
sg16
g49
sbsg13
I2
sg18
(imyEvolve
Tree
p124
(dp125
g10
(imyEvolve
Tree
p126
(dp127
g13
I0
sg23
F2.4475927049836157
sg14
I01
sbsg13
I1
sg15
I01
sg16
g83
sbsg15
I00
sg16
g49
sbsg15
I00
sg16
g26
sbsg13
I4
sg15
I01
sg16
g64
sba(imyEvolve
Tree
p128
(dp129
g10
(imyEvolve
Tree
p130
(dp131
g10
(imyEvolve
Tree
p132
(dp133
g10
(imyEvolve
Tree
p134
(dp135
g10
(imyEvolve
Tree
p136
(dp137
g7
(imyEvolve
Tree
p138
(dp139
g13
I0
sg14
I00
sbsg13
I1
sg18
(imyEvolve
Tree
p140
(dp141
g13
I0
sg23
F0.06780091458725135
sg14
I01
sbsg15
I00
sg16
g49
sbsg13
I2
sg15
I01
sg16
g40
sbsg13
I3
sg15
I01
sg16
g64
sbsg13
I4
sg15
I01
sg16
g83
sbsg13
I5
sg15
I01
sg16
g40
sba(imyEvolve
Tree
p142
(dp143
g13
I4
sg7
(imyEvolve
Tree
p144
(dp145
g10
(imyEvolve
Tree
p146
(dp147
g10
(imyEvolve
Tree
p148
(dp149
g10
(imyEvolve
Tree
p150
(dp151
g13
I0
sg14
I00
sbsg13
I1
sg15
I01
sg16
g64
sbsg13
I2
sg15
I01
sg16
g40
sbsg13
I3
sg15
I01
sg16
g64
sbsg18
(imyEvolve
Tree
p152
(dp153
g13
I3
sg7
(imyEvolve
Tree
p154
(dp155
g13
I2
sg7
(imyEvolve
Tree
p156
(dp157
g10
(imyEvolve
Tree
p158
(dp159
g13
I0
sg23
F-0.055174403759360224
sg14
I01
sbsg13
I1
sg15
I01
sg16
g40
sbsg18
(imyEvolve
Tree
p160
(dp161
g13
I1
sg7
(imyEvolve
Tree
p162
(dp163
g13
I0
sg14
I00
sbsg18
(imyEvolve
Tree
p164
(dp165
g13
I0
sg23
F-2.7965915801847174
sg14
I01
sbsg15
I00
sg16
g26
sbsg15
I00
sg16
g26
sbsg18
(imyEvolve
Tree
p166
(dp167
g13
I2
sg7
(imyEvolve
Tree
p168
(dp169
g10
(imyEvolve
Tree
p170
(dp171
g13
I0
sg23
F-1.8630844856628581
sg14
I01
sbsg13
I1
sg15
I01
sg16
g83
sbsg18
(imyEvolve
Tree
p172
(dp173
g13
I1
sg7
(imyEvolve
Tree
p174
(dp175
g13
I0
sg23
F3.2855904716216546
sg14
I01
sbsg18
(imyEvolve
Tree
p176
(dp177
g13
I0
sg14
I00
sbsg15
I00
sg16
g49
sbsg15
I00
sg16
g49
sbsg15
I00
sg16
g27
sbsg15
I00
sg16
g49
sba(imyEvolve
Tree
p178
(dp179
g7
(imyEvolve
Tree
p180
(dp181
g10
(imyEvolve
Tree
p182
(dp183
g10
(imyEvolve
Tree
p184
(dp185
g7
(imyEvolve
Tree
p186
(dp187
g13
I0
sg23
F-3.8996145352988467
sg14
I01
sbsg13
I1
sg18
(imyEvolve
Tree
p188
(dp189
g13
I0
sg23
F-2.8168975876226234
sg14
I01
sbsg15
I00
sg16
g49
sbsg13
I2
sg15
I01
sg16
g83
sbsg13
I3
sg15
I01
sg16
g17
sbsg13
I4
sg18
(imyEvolve
Tree
p190
(dp191
g7
(imyEvolve
Tree
p192
(dp193
g7
(imyEvolve
Tree
p194
(dp195
g7
(imyEvolve
Tree
p196
(dp197
g13
I0
sg23
F-1.1818719150243986
sg14
I01
sbsg13
I1
sg18
(imyEvolve
Tree
p198
(dp199
g13
I0
sg14
I00
sbsg15
I00
sg16
g26
sbsg13
I2
sg18
(imyEvolve
Tree
p200
(dp201
g7
(imyEvolve
Tree
p202
(dp203
g13
I0
sg23
F-0.266751876691278
sg14
I01
sbsg13
I1
sg18
(imyEvolve
Tree
p204
(dp205
g13
I0
sg14
I00
sbsg15
I00
sg16
g49
sbsg15
I00
sg16
g27
sbsg13
I3
sg18
(imyEvolve
Tree
p206
(dp207
g7
(imyEvolve
Tree
p208
(dp209
g10
(imyEvolve
Tree
p210
(dp211
g13
I0
sg14
I00
sbsg13
I1
sg15
I01
sg16
g83
sbsg13
I2
sg18
(imyEvolve
Tree
p212
(dp213
g10
(imyEvolve
Tree
p214
(dp215
g13
I0
sg23
F0.5789172615681712
sg14
I01
sbsg13
I1
sg15
I01
sg16
g17
sbsg15
I00
sg16
g49
sbsg15
I00
sg16
g27
sbsg15
I00
sg16
g49
sba(imyEvolve
Tree
p216
(dp217
g7
(imyEvolve
Tree
p218
(dp219
g7
(imyEvolve
Tree
p220
(dp221
g13
I0
sg14
I00
sbsg13
I1
sg18
(imyEvolve
Tree
p222
(dp223
g13
I0
sg23
F0.7498203774778833
sg14
I01
sbsg15
I00
sg16
g27
sbsg13
I2
sg18
(imyEvolve
Tree
p224
(dp225
g10
(imyEvolve
Tree
p226
(dp227
g13
I0
sg23
F2.3500615334230233
sg14
I01
sbsg13
I1
sg15
I01
sg16
g64
sbsg15
I00
sg16
g26
sba(imyEvolve
Tree
p228
(dp229
g10
(imyEvolve
Tree
p230
(dp231
g10
(imyEvolve
Tree
p232
(dp233
g10
(imyEvolve
Tree
p234
(dp235
g10
(imyEvolve
Tree
p236
(dp237
g13
I1
sg7
(imyEvolve
Tree
p238
(dp239
g13
I0
sg23
F3.4796776484462573
sg14
I01
sbsg18
(imyEvolve
Tree
p240
(dp241
g13
I0
sg14
I00
sbsg15
I00
sg16
g49
sbsg13
I2
sg15
I01
sg16
g17
sbsg13
I3
sg15
I01
sg16
g64
sbsg13
I4
sg15
I01
sg16
g64
sbsg13
I5
sg15
I01
sg16
g17
sba(imyEvolve
Tree
p242
(dp243
g13
I4
sg7
(imyEvolve
Tree
p244
(dp245
g10
(imyEvolve
Tree
p246
(dp247
g13
I2
sg7
(imyEvolve
Tree
p248
(dp249
g10
(imyEvolve
Tree
p250
(dp251
g13
I0
sg14
I00
sbsg13
I1
sg15
I01
sg16
g64
sbsg18
(imyEvolve
Tree
p252
(dp253
g10
(imyEvolve
Tree
p254
(dp255
g13
I0
sg23
F-0.1698930582543765
sg14
I01
sbsg13
I1
sg15
I01
sg16
g64
sbsg15
I00
sg16
g49
sbsg13
I3
sg15
I01
sg16
g83
sbsg18
(imyEvolve
Tree
p256
(dp257
g13
I3
sg7
(imyEvolve
Tree
p258
(dp259
g10
(imyEvolve
Tree
p260
(dp261
g13
I1
sg7
(imyEvolve
Tree
p262
(dp263
g13
I0
sg14
I00
sbsg18
(imyEvolve
Tree
p264
(dp265
g13
I0
sg23
F2.858706919508979
sg14
I01
sbsg15
I00
sg16
g49
sbsg13
I2
sg15
I01
sg16
g64
sbsg18
(imyEvolve
Tree
p266
(dp267
g10
(imyEvolve
Tree
p268
(dp269
g10
(imyEvolve
Tree
p270
(dp271
g13
I0
sg14
I00
sbsg13
I1
sg15
I01
sg16
g64
sbsg13
I2
sg15
I01
sg16
g64
sbsg15
I00
sg16
g49
sbsg15
I00
sg16
g49
sba(imyEvolve
Tree
p272
(dp273
g10
(imyEvolve
Tree
p274
(dp275
g7
(imyEvolve
Tree
p276
(dp277
g10
(imyEvolve
Tree
p278
(dp279
g13
I0
sg23
F2.0522991062125326
sg14
I01
sbsg13
I1
sg15
I01
sg16
g83
sbsg13
I2
sg18
(imyEvolve
Tree
p280
(dp281
g10
(imyEvolve
Tree
p282
(dp283
g13
I0
sg14
I00
sbsg13
I1
sg15
I01
sg16
g64
sbsg15
I00
sg16
g49
sbsg13
I3
sg15
I01
sg16
g64
sba(imyEvolve
Tree
p284
(dp285
g13
I3
sg7
(imyEvolve
Tree
p286
(dp287
g13
I2
sg7
(imyEvolve
Tree
p288
(dp289
g10
(imyEvolve
Tree
p290
(dp291
g13
I0
sg14
I00
sbsg13
I1
sg15
I01
sg16
g83
sbsg18
(imyEvolve
Tree
p292
(dp293
g10
(imyEvolve
Tree
p294
(dp295
g13
I0
sg14
I00
sbsg13
I1
sg15
I01
sg16
g17
sbsg15
I00
sg16
g49
sbsg18
(imyEvolve
Tree
p296
(dp297
g13
I2
sg7
(imyEvolve
Tree
p298
(dp299
g10
(imyEvolve
Tree
p300
(dp301
g13
I0
sg14
I00
sbsg13
I1
sg15
I01
sg16
g40
sbsg18
(imyEvolve
Tree
p302
(dp303
g10
(imyEvolve
Tree
p304
(dp305
g13
I0
sg14
I00
sbsg13
I1
sg15
I01
sg16
g17
sbsg15
I00
sg16
g49
sbsg15
I00
sg16
g49
sba(imyEvolve
Tree
p306
(dp307
g10
(imyEvolve
Tree
p308
(dp309
g7
(imyEvolve
Tree
p310
(dp311
g7
(imyEvolve
Tree
p312
(dp313
g10
(imyEvolve
Tree
p314
(dp315
g7
(imyEvolve
Tree
p316
(dp317
g13
I0
sg14
I00
sbsg13
I1
sg18
(imyEvolve
Tree
p318
(dp319
g13
I0
sg23
F-1.0113882231459828
sg14
I01
sbsg15
I00
sg16
g26
sbsg13
I2
sg15
I01
sg16
g17
sbsg13
I3
sg18
(imyEvolve
Tree
p320
(dp321
g7
(imyEvolve
Tree
p322
(dp323
g10
(imyEvolve
Tree
p324
(dp325
g13
I0
sg14
I00
sbsg13
I1
sg15
I01
sg16
g83
sbsg13
I2
sg18
(imyEvolve
Tree
p326
(dp327
g7
(imyEvolve
Tree
p328
(dp329
g13
I0
sg23
F3.210633958772343
sg14
I01
sbsg13
I1
sg18
(imyEvolve
Tree
p330
(dp331
g13
I0
sg23
F1.378123217879164
sg14
I01
sbsg15
I00
sg16
g26
sbsg15
I00
sg16
g27
sbsg15
I00
sg16
g49
sbsg13
I4
sg18
(imyEvolve
Tree
p332
(dp333
g7
(imyEvolve
Tree
p334
(dp335
g10
(imyEvolve
Tree
p336
(dp337
g7
(imyEvolve
Tree
p338
(dp339
g13
I0
sg23
F-2.1788627147389072
sg14
I01
sbsg13
I1
sg18
(imyEvolve
Tree
p340
(dp341
g13
I0
sg14
I00
sbsg15
I00
sg16
g26
sbsg13
I2
sg15
I01
sg16
g40
sbsg13
I3
sg18
(imyEvolve
Tree
p342
(dp343
g7
(imyEvolve
Tree
p344
(dp345
g7
(imyEvolve
Tree
p346
(dp347
g13
I0
sg14
I00
sbsg13
I1
sg18
(imyEvolve
Tree
p348
(dp349
g13
I0
sg14
I00
sbsg15
I00
sg16
g26
sbsg13
I2
sg18
(imyEvolve
Tree
p350
(dp351
g7
(imyEvolve
Tree
p352
(dp353
g13
I0
sg14
I00
sbsg13
I1
sg18
(imyEvolve
Tree
p354
(dp355
g13
I0
sg23
F2.5786830616325327
sg14
I01
sbsg15
I00
sg16
g49
sbsg15
I00
sg16
g26
sbsg15
I00
sg16
g26
sbsg15
I00
sg16
g26
sbsg13
I5
sg15
I01
sg16
g40
sba(imyEvolve
Tree
p356
(dp357
g10
(imyEvolve
Tree
p358
(dp359
g10
(imyEvolve
Tree
p360
(dp361
g10
(imyEvolve
Tree
p362
(dp363
g10
(imyEvolve
Tree
p364
(dp365
g13
I0
sg14
I00
sbsg13
I1
sg15
I01
sg16
g40
sbsg13
I2
sg15
I01
sg16
g40
sbsg13
I3
sg15
I01
sg16
g40
sbsg13
I4
sg15
I01
sg16
g64
sba(imyEvolve
Tree
p366
(dp367
g13
I2
sg7
(imyEvolve
Tree
p368
(dp369
g10
(imyEvolve
Tree
p370
(dp371
g13
I0
sg23
F-0.8637384467848088
sg14
I01
sbsg13
I1
sg15
I01
sg16
g64
sbsg18
(imyEvolve
Tree
p372
(dp373
g13
I1
sg7
(imyEvolve
Tree
p374
(dp375
g13
I0
sg14
I00
sbsg18
(imyEvolve
Tree
p376
(dp377
g13
I0
sg23
F-1.132649786524016
sg14
I01
sbsg15
I00
sg16
g49
sbsg15
I00
sg16
g27
sba(imyEvolve
Tree
p378
(dp379
g10
(imyEvolve
Tree
p380
(dp381
g7
(imyEvolve
Tree
p382
(dp383
g10
(imyEvolve
Tree
p384
(dp385
g10
(imyEvolve
Tree
p386
(dp387
g13
I0
sg23
F1.2673741460726085
sg14
I01
sbsg13
I1
sg15
I01
sg16
g64
sbsg13
I2
sg15
I01
sg16
g17
sbsg13
I3
sg18
(imyEvolve
Tree
p388
(dp389
g7
(imyEvolve
Tree
p390
(dp391
g7
(imyEvolve
Tree
p392
(dp393
g13
I0
sg14
I00
sbsg13
I1
sg18
(imyEvolve
Tree
p394
(dp395
g13
I0
sg23
F1.1813954358826475
sg14
I01
sbsg15
I00
sg16
g49
sbsg13
I2
sg18
(imyEvolve
Tree
p396
(dp397
g10
(imyEvolve
Tree
p398
(dp399
g13
I0
sg23
F1.9851409186653566
sg14
I01
sbsg13
I1
sg15
I01
sg16
g83
sbsg15
I00
sg16
g26
sbsg15
I00
sg16
g26
sbsg13
I4
sg15
I01
sg16
g40
sba(imyEvolve
Tree
p400
(dp401
g10
(imyEvolve
Tree
p402
(dp403
g13
I4
sg7
(imyEvolve
Tree
p404
(dp405
g10
(imyEvolve
Tree
p406
(dp407
g13
I2
sg7
(imyEvolve
Tree
p408
(dp409
g10
(imyEvolve
Tree
p410
(dp411
g13
I0
sg14
I00
sbsg13
I1
sg15
I01
sg16
g64
sbsg18
(imyEvolve
Tree
p412
(dp413
g10
(imyEvolve
Tree
p414
(dp415
g13
I0
sg14
I00
sbsg13
I1
sg15
I01
sg16
g17
sbsg15
I00
sg16
g27
sbsg13
I3
sg15
I01
sg16
g40
sbsg18
(imyEvolve
Tree
p416
(dp417
g10
(imyEvolve
Tree
p418
(dp419
g10
(imyEvolve
Tree
p420
(dp421
g10
(imyEvolve
Tree
p422
(dp423
g13
I0
sg14
I00
sbsg13
I1
sg15
I01
sg16
g64
sbsg13
I2
sg15
I01
sg16
g40
sbsg13
I3
sg15
I01
sg16
g40
sbsg15
I00
sg16
g27
sbsg13
I5
sg15
I01
sg16
g64
sba(imyEvolve
Tree
p424
(dp425
g10
(imyEvolve
Tree
p426
(dp427
g13
I1
sg7
(imyEvolve
Tree
p428
(dp429
g13
I0
sg14
I00
sbsg18
(imyEvolve
Tree
p430
(dp431
g13
I0
sg14
I00
sbsg15
I00
sg16
g49
sbsg13
I2
sg15
I01
sg16
g40
sba(imyEvolve
Tree
p432
(dp433
g7
(imyEvolve
Tree
p434
(dp435
g10
(imyEvolve
Tree
p436
(dp437
g7
(imyEvolve
Tree
p438
(dp439
g7
(imyEvolve
Tree
p440
(dp441
g13
I0
sg23
F-2.333072058415188
sg14
I01
sbsg13
I1
sg18
(imyEvolve
Tree
p442
(dp443
g13
I0
sg14
I00
sbsg15
I00
sg16
g26
sbsg13
I2
sg18
(imyEvolve
Tree
p444
(dp445
g10
(imyEvolve
Tree
p446
(dp447
g13
I0
sg14
I00
sbsg13
I1
sg15
I01
sg16
g83
sbsg15
I00
sg16
g49
sbsg13
I3
sg15
I01
sg16
g83
sbsg13
I4
sg18
(imyEvolve
Tree
p448
(dp449
g7
(imyEvolve
Tree
p450
(dp451
g10
(imyEvolve
Tree
p452
(dp453
g10
(imyEvolve
Tree
p454
(dp455
g13
I0
sg14
I00
sbsg13
I1
sg15
I01
sg16
g83
sbsg13
I2
sg15
I01
sg16
g17
sbsg13
I3
sg18
(imyEvolve
Tree
p456
(dp457
g7
(imyEvolve
Tree
p458
(dp459
g10
(imyEvolve
Tree
p460
(dp461
g13
I0
sg23
F-1.1860108469205057
sg14
I01
sbsg13
I1
sg15
I01
sg16
g64
sbsg13
I2
sg18
(imyEvolve
Tree
p462
(dp463
g7
(imyEvolve
Tree
p464
(dp465
g13
I0
sg14
I00
sbsg13
I1
sg18
(imyEvolve
Tree
p466
(dp467
g13
I0
sg14
I00
sbsg15
I00
sg16
g26
sbsg15
I00
sg16
g26
sbsg15
I00
sg16
g26
sbsg15
I00
sg16
g49
sba(imyEvolve
Tree
p468
(dp469
g7
(imyEvolve
Tree
p470
(dp471
g7
(imyEvolve
Tree
p472
(dp473
g7
(imyEvolve
Tree
p474
(dp475
g7
(imyEvolve
Tree
p476
(dp477
g13
I0
sg23
F-1.3856725040700613
sg14
I01
sbsg13
I1
sg18
(imyEvolve
Tree
p478
(dp479
g13
I0
sg23
F-2.6666571928058036
sg14
I01
sbsg15
I00
sg16
g49
sbsg13
I2
sg18
(imyEvolve
Tree
p480
(dp481
g7
(imyEvolve
Tree
p482
(dp483
g13
I0
sg23
F4.74265453836958
sg14
I01
sbsg13
I1
sg18
(imyEvolve
Tree
p484
(dp485
g13
I0
sg14
I00
sbsg15
I00
sg16
g27
sbsg15
I00
sg16
g49
sbsg13
I3
sg18
(imyEvolve
Tree
p486
(dp487
g7
(imyEvolve
Tree
p488
(dp489
g7
(imyEvolve
Tree
p490
(dp491
g13
I0
sg23
F-4.571888899603472
sg14
I01
sbsg13
I1
sg18
(imyEvolve
Tree
p492
(dp493
g13
I0
sg14
I00
sbsg15
I00
sg16
g26
sbsg13
I2
sg18
(imyEvolve
Tree
p494
(dp495
g7
(imyEvolve
Tree
p496
(dp497
g13
I0
sg14
I00
sbsg13
I1
sg18
(imyEvolve
Tree
p498
(dp499
g13
I0
sg23
F-4.238122781513663
sg14
I01
sbsg15
I00
sg16
g49
sbsg15
I00
sg16
g27
sbsg15
I00
sg16
g49
sbsg13
I4
sg18
(imyEvolve
Tree
p500
(dp501
g10
(imyEvolve
Tree
p502
(dp503
g7
(imyEvolve
Tree
p504
(dp505
g10
(imyEvolve
Tree
p506
(dp507
g13
I0
sg23
F-4.899822936894786
sg14
I01
sbsg13
I1
sg15
I01
sg16
g83
sbsg13
I2
sg18
(imyEvolve
Tree
p508
(dp509
g10
(imyEvolve
Tree
p510
(dp511
g13
I0
sg23
F0.8133443715456803
sg14
I01
sbsg13
I1
sg15
I01
sg16
g83
sbsg15
I00
sg16
g26
sbsg13
I3
sg15
I01
sg16
g83
sbsg15
I00
sg16
g27
sbaa(lp512
(imyEvolve
Tree
p513
(dp514
g10
(imyEvolve
Tree
p515
(dp516
g7
(imyEvolve
Tree
p517
(dp518
g7
(imyEvolve
Tree
p519
(dp520
g7
(imyEvolve
Tree
p521
(dp522
g7
(imyEvolve
Tree
p523
(dp524
g13
I0
sg14
I00
sbsg13
I1
sg18
(imyEvolve
Tree
p525
(dp526
g13
I0
sg23
F-1.3956777795380306
sg14
I01
sbsg15
I00
sg16
g49
sbsg13
I2
sg18
(imyEvolve
Tree
p527
(dp528
g10
(imyEvolve
Tree
p529
(dp530
g13
I0
sg14
I00
sbsg13
I1
sg15
I01
sg16
g83
sbsg15
I00
sg16
g49
sbsg13
I3
sg18
(imyEvolve
Tree
p531
(dp532
g10
(imyEvolve
Tree
p533
(dp534
g10
(imyEvolve
Tree
p535
(dp536
g13
I0
sg14
I00
sbsg13
I1
sg15
I01
sg16
g40
sbsg13
I2
sg15
I01
sg16
g64
sbsg15
I00
sg16
g27
sbsg13
I4
sg18
(imyEvolve
Tree
p537
(dp538
g10
(imyEvolve
Tree
p539
(dp540
g10
(imyEvolve
Tree
p541
(dp542
g7
(imyEvolve
Tree
p543
(dp544
g13
I0
sg14
I00
sbsg13
I1
sg18
(imyEvolve
Tree
p545
(dp546
g13
I0
sg14
I00
sbsg15
I00
sg16
g26
sbsg13
I2
sg15
I01
sg16
g17
sbsg13
I3
sg15
I01
sg16
g17
sbsg15
I00
sg16
g26
sbsg13
I5
sg15
I01
sg16
g17
sba(imyEvolve
Tree
p547
(dp548
g7
(imyEvolve
Tree
p549
(dp550
g7
(imyEvolve
Tree
p551
(dp552
g10
(imyEvolve
Tree
p553
(dp554
g7
(imyEvolve
Tree
p555
(dp556
g10
(imyEvolve
Tree
p557
(dp558
g13
I0
sg14
I00
sbsg13
I1
sg15
I01
sg16
g17
sbsg13
I2
sg18
(imyEvolve
Tree
p559
(dp560
g7
(imyEvolve
Tree
p561
(dp562
g13
I0
sg14
I00
sbsg13
I1
sg18
(imyEvolve
Tree
p563
(dp564
g13
I0
sg14
I00
sbsg15
I00
sg16
g27
sbsg15
I00
sg16
g27
sbsg13
I3
sg15
I01
sg16
g83
sbsg13
I4
sg18
(imyEvolve
Tree
p565
(dp566
g10
(imyEvolve
Tree
p567
(dp568
g7
(imyEvolve
Tree
p569
(dp570
g7
(imyEvolve
Tree
p571
(dp572
g13
I0
sg23
F0.032535151273632934
sg14
I01
sbsg13
I1
sg18
(imyEvolve
Tree
p573
(dp574
g13
I0
sg23
F-4.010705466895673
sg14
I01
sbsg15
I00
sg16
g26
sbsg13
I2
sg18
(imyEvolve
Tree
p575
(dp576
g7
(imyEvolve
Tree
p577
(dp578
g13
I0
sg14
I00
sbsg13
I1
sg18
(imyEvolve
Tree
p579
(dp580
g13
I0
sg23
F3.0567870152411345
sg14
I01
sbsg15
I00
sg16
g26
sbsg15
I00
sg16
g27
sbsg13
I3
sg15
I01
sg16
g40
sbsg15
I00
sg16
g49
sbsg13
I5
sg18
(imyEvolve
Tree
p581
(dp582
g10
(imyEvolve
Tree
p583
(dp584
g10
(imyEvolve
Tree
p585
(dp586
g7
(imyEvolve
Tree
p587
(dp588
g7
(imyEvolve
Tree
p589
(dp590
g13
I0
sg23
F1.3566357771950122
sg14
I01
sbsg13
I1
sg18
(imyEvolve
Tree
p591
(dp592
g13
I0
sg23
F-1.7038694910070817
sg14
I01
sbsg15
I00
sg16
g49
sbsg13
I2
sg18
(imyEvolve
Tree
p593
(dp594
g7
(imyEvolve
Tree
p595
(dp596
g13
I0
sg23
F-4.805202609685566
sg14
I01
sbsg13
I1
sg18
(imyEvolve
Tree
p597
(dp598
g13
I0
sg14
I00
sbsg15
I00
sg16
g26
sbsg15
I00
sg16
g27
sbsg13
I3
sg15
I01
sg16
g64
sbsg13
I4
sg15
I01
sg16
g40
sbsg15
I00
sg16
g26
sba(imyEvolve
Tree
p599
(dp600
g10
(imyEvolve
Tree
p601
(dp602
g7
(imyEvolve
Tree
p603
(dp604
g7
(imyEvolve
Tree
p605
(dp606
g13
I0
sg23
F3.1456975748575573
sg14
I01
sbsg13
I1
sg18
(imyEvolve
Tree
p607
(dp608
g13
I0
sg14
I00
sbsg15
I00
sg16
g49
sbsg13
I2
sg18
(imyEvolve
Tree
p609
(dp610
g10
(imyEvolve
Tree
p611
(dp612
g13
I0
sg14
I00
sbsg13
I1
sg15
I01
sg16
g17
sbsg15
I00
sg16
g26
sbsg13
I3
sg15
I01
sg16
g17
sba(imyEvolve
Tree
p613
(dp614
g10
(imyEvolve
Tree
p615
(dp616
g10
(imyEvolve
Tree
p617
(dp618
g10
(imyEvolve
Tree
p619
(dp620
g10
(imyEvolve
Tree
p621
(dp622
g13
I1
sg7
(imyEvolve
Tree
p623
(dp624
g13
I0
sg14
I00
sbsg18
(imyEvolve
Tree
p625
(dp626
g13
I0
sg14
I00
sbsg15
I00
sg16
g26
sbsg13
I2
sg15
I01
sg16
g64
sbsg13
I3
sg15
I01
sg16
g40
sbsg13
I4
sg15
I01
sg16
g83
sbsg13
I5
sg15
I01
sg16
g83
sba(imyEvolve
Tree
p627
(dp628
g10
(imyEvolve
Tree
p629
(dp630
g10
(imyEvolve
Tree
p631
(dp632
g7
(imyEvolve
Tree
p633
(dp634
g10
(imyEvolve
Tree
p635
(dp636
g13
I0
sg23
F1.2792557121007562
sg14
I01
sbsg13
I1
sg15
I01
sg16
g64
sbsg13
I2
sg18
(imyEvolve
Tree
p637
(dp638
g7
(imyEvolve
Tree
p639
(dp640
g13
I0
sg14
I00
sbsg13
I1
sg18
(imyEvolve
Tree
p641
(dp642
g13
I0
sg23
F-1.933007594728763
sg14
I01
sbsg15
I00
sg16
g49
sbsg15
I00
sg16
g27
sbsg13
I3
sg15
I01
sg16
g40
sbsg13
I4
sg15
I01
sg16
g64
sba(imyEvolve
Tree
p643
(dp644
g13
I4
sg7
(imyEvolve
Tree
p645
(dp646
g10
(imyEvolve
Tree
p647
(dp648
g13
I2
sg7
(imyEvolve
Tree
p649
(dp650
g10
(imyEvolve
Tree
p651
(dp652
g13
I0
sg23
F0.7248330842762893
sg14
I01
sbsg13
I1
sg15
I01
sg16
g83
sbsg18
(imyEvolve
Tree
p653
(dp654
g13
I1
sg7
(imyEvolve
Tree
p655
(dp656
g13
I0
sg23
F-2.8665186321669656
sg14
I01
sbsg18
(imyEvolve
Tree
p657
(dp658
g13
I0
sg23
F-1.3919408841825751
sg14
I01
sbsg15
I00
sg16
g26
sbsg15
I00
sg16
g49
sbsg13
I3
sg15
I01
sg16
g64
sbsg18
(imyEvolve
Tree
p659
(dp660
g10
(imyEvolve
Tree
p661
(dp662
g13
I2
sg7
(imyEvolve
Tree
p663
(dp664
g13
I1
sg7
(imyEvolve
Tree
p665
(dp666
g13
I0
sg14
I00
sbsg18
(imyEvolve
Tree
p667
(dp668
g13
I0
sg14
I00
sbsg15
I00
sg16
g26
sbsg18
(imyEvolve
Tree
p669
(dp670
g10
(imyEvolve
Tree
p671
(dp672
g13
I0
sg14
I00
sbsg13
I1
sg15
I01
sg16
g40
sbsg15
I00
sg16
g27
sbsg13
I3
sg15
I01
sg16
g83
sbsg15
I00
sg16
g27
sba(imyEvolve
Tree
p673
(dp674
g10
(imyEvolve
Tree
p675
(dp676
g7
(imyEvolve
Tree
p677
(dp678
g13
I0
sg14
I00
sbsg13
I1
sg18
(imyEvolve
Tree
p679
(dp680
g13
I0
sg23
F2.8982093822512036
sg14
I01
sbsg15
I00
sg16
g49
sbsg13
I2
sg15
I01
sg16
g17
sba(imyEvolve
Tree
p681
(dp682
g7
(imyEvolve
Tree
p683
(dp684
g7
(imyEvolve
Tree
p685
(dp686
g13
I0
sg23
F1.909221571340999
sg14
I01
sbsg13
I1
sg18
(imyEvolve
Tree
p687
(dp688
g13
I0
sg23
F0.1717035768885724
sg14
I01
sbsg15
I00
sg16
g27
sbsg13
I2
sg18
(imyEvolve
Tree
p689
(dp690
g10
(imyEvolve
Tree
p691
(dp692
g13
I0
sg23
F-1.1466521072567781
sg14
I01
sbsg13
I1
sg15
I01
sg16
g64
sbsg15
I00
sg16
g27
sba(imyEvolve
Tree
p693
(dp694
g7
(imyEvolve
Tree
p695
(dp696
g10
(imyEvolve
Tree
p697
(dp698
g13
I0
sg23
F2.0040809612078325
sg14
I01
sbsg13
I1
sg15
I01
sg16
g40
sbsg13
I2
sg18
(imyEvolve
Tree
p699
(dp700
g10
(imyEvolve
Tree
p701
(dp702
g13
I0
sg23
F-1.5210632673941293
sg14
I01
sbsg13
I1
sg15
I01
sg16
g83
sbsg15
I00
sg16
g26
sba(imyEvolve
Tree
p703
(dp704
g10
(imyEvolve
Tree
p705
(dp706
g7
(imyEvolve
Tree
p707
(dp708
g13
I0
sg14
I00
sbsg13
I1
sg18
(imyEvolve
Tree
p709
(dp710
g13
I0
sg23
F-0.5790312302945075
sg14
I01
sbsg15
I00
sg16
g49
sbsg13
I2
sg15
I01
sg16
g64
sba(imyEvolve
Tree
p711
(dp712
g13
I4
sg7
(imyEvolve
Tree
p713
(dp714
g10
(imyEvolve
Tree
p715
(dp716
g10
(imyEvolve
Tree
p717
(dp718
g10
(imyEvolve
Tree
p719
(dp720
g13
I0
sg14
I00
sbsg13
I1
sg15
I01
sg16
g83
sbsg13
I2
sg15
I01
sg16
g83
sbsg13
I3
sg15
I01
sg16
g83
sbsg18
(imyEvolve
Tree
p721
(dp722
g10
(imyEvolve
Tree
p723
(dp724
g13
I2
sg7
(imyEvolve
Tree
p725
(dp726
g13
I1
sg7
(imyEvolve
Tree
p727
(dp728
g13
I0
sg23
F2.1348268017287246
sg14
I01
sbsg18
(imyEvolve
Tree
p729
(dp730
g13
I0
sg23
F-2.5735263119639806
sg14
I01
sbsg15
I00
sg16
g49
sbsg18
(imyEvolve
Tree
p731
(dp732
g13
I1
sg7
(imyEvolve
Tree
p733
(dp734
g13
I0
sg14
I00
sbsg18
(imyEvolve
Tree
p735
(dp736
g13
I0
sg23
F0.3255481543122096
sg14
I01
sbsg15
I00
sg16
g49
sbsg15
I00
sg16
g27
sbsg13
I3
sg15
I01
sg16
g64
sbsg15
I00
sg16
g49
sba(imyEvolve
Tree
p737
(dp738
g7
(imyEvolve
Tree
p739
(dp740
g10
(imyEvolve
Tree
p741
(dp742
g7
(imyEvolve
Tree
p743
(dp744
g10
(imyEvolve
Tree
p745
(dp746
g13
I0
sg14
I00
sbsg13
I1
sg15
I01
sg16
g64
sbsg13
I2
sg18
(imyEvolve
Tree
p747
(dp748
g10
(imyEvolve
Tree
p749
(dp750
g13
I0
sg14
I00
sbsg13
I1
sg15
I01
sg16
g17
sbsg15
I00
sg16
g26
sbsg13
I3
sg15
I01
sg16
g17
sbsg13
I4
sg18
(imyEvolve
Tree
p751
(dp752
g7
(imyEvolve
Tree
p753
(dp754
g7
(imyEvolve
Tree
p755
(dp756
g7
(imyEvolve
Tree
p757
(dp758
g13
I0
sg14
I00
sbsg13
I1
sg18
(imyEvolve
Tree
p759
(dp760
g13
I0
sg14
I00
sbsg15
I00
sg16
g26
sbsg13
I2
sg18
(imyEvolve
Tree
p761
(dp762
g7
(imyEvolve
Tree
p763
(dp764
g13
I0
sg14
I00
sbsg13
I1
sg18
(imyEvolve
Tree
p765
(dp766
g13
I0
sg23
F-4.292855173402083
sg14
I01
sbsg15
I00
sg16
g26
sbsg15
I00
sg16
g27
sbsg13
I3
sg18
(imyEvolve
Tree
p767
(dp768
g7
(imyEvolve
Tree
p769
(dp770
g7
(imyEvolve
Tree
p771
(dp772
g13
I0
sg23
F0.9988886356081705
sg14
I01
sbsg13
I1
sg18
(imyEvolve
Tree
p773
(dp774
g13
I0
sg14
I00
sbsg15
I00
sg16
g26
sbsg13
I2
sg18
(imyEvolve
Tree
p775
(dp776
g7
(imyEvolve
Tree
p777
(dp778
g13
I0
sg23
F4.1500390802141
sg14
I01
sbsg13
I1
sg18
(imyEvolve
Tree
p779
(dp780
g13
I0
sg14
I00
sbsg15
I00
sg16
g26
sbsg15
I00
sg16
g49
sbsg15
I00
sg16
g27
sbsg15
I00
sg16
g26
sbaa(lp781
(imyEvolve
Tree
p782
(dp783
g10
(imyEvolve
Tree
p784
(dp785
g13
I4
sg7
(imyEvolve
Tree
p786
(dp787
g10
(imyEvolve
Tree
p788
(dp789
g13
I2
sg7
(imyEvolve
Tree
p790
(dp791
g10
(imyEvolve
Tree
p792
(dp793
g13
I0
sg14
I00
sbsg13
I1
sg15
I01
sg16
g17
sbsg18
(imyEvolve
Tree
p794
(dp795
g10
(imyEvolve
Tree
p796
(dp797
g13
I0
sg14
I00
sbsg13
I1
sg15
I01
sg16
g40
sbsg15
I00
sg16
g49
sbsg13
I3
sg15
I01
sg16
g40
sbsg18
(imyEvolve
Tree
p798
(dp799
g13
I3
sg7
(imyEvolve
Tree
p800
(dp801
g10
(imyEvolve
Tree
p802
(dp803
g10
(imyEvolve
Tree
p804
(dp805
g13
I0
sg14
I00
sbsg13
I1
sg15
I01
sg16
g83
sbsg13
I2
sg15
I01
sg16
g17
sbsg18
(imyEvolve
Tree
p806
(dp807
g10
(imyEvolve
Tree
p808
(dp809
g10
(imyEvolve
Tree
p810
(dp811
g13
I0
sg14
I00
sbsg13
I1
sg15
I01
sg16
g40
sbsg13
I2
sg15
I01
sg16
g40
sbsg15
I00
sg16
g26
sbsg15
I00
sg16
g49
sbsg13
I5
sg15
I01
sg16
g17
sba(imyEvolve
Tree
p812
(dp813
g10
(imyEvolve
Tree
p814
(dp815
g7
(imyEvolve
Tree
p816
(dp817
g13
I0
sg14
I00
sbsg13
I1
sg18
(imyEvolve
Tree
p818
(dp819
g13
I0
sg14
I00
sbsg15
I00
sg16
g26
sbsg13
I2
sg15
I01
sg16
g64
sba(imyEvolve
Tree
p820
(dp821
g10
(imyEvolve
Tree
p822
(dp823
g10
(imyEvolve
Tree
p824
(dp825
g7
(imyEvolve
Tree
p826
(dp827
g7
(imyEvolve
Tree
p828
(dp829
g7
(imyEvolve
Tree
p830
(dp831
g13
I0
sg14
I00
sbsg13
I1
sg18
(imyEvolve
Tree
p832
(dp833
g13
I0
sg23
F-0.6433655500260986
sg14
I01
sbsg15
I00
sg16
g26
sbsg13
I2
sg18
(imyEvolve
Tree
p834
(dp835
g7
(imyEvolve
Tree
p836
(dp837
g13
I0
sg14
I00
sbsg13
I1
sg18
(imyEvolve
Tree
p838
(dp839
g13
I0
sg14
I00
sbsg15
I00
sg16
g26
sbsg15
I00
sg16
g27
sbsg13
I3
sg18
(imyEvolve
Tree
p840
(dp841
g10
(imyEvolve
Tree
p842
(dp843
g7
(imyEvolve
Tree
p844
(dp845
g13
I0
sg14
I00
sbsg13
I1
sg18
(imyEvolve
Tree
p846
(dp847
g13
I0
sg23
F2.94861295901791
sg14
I01
sbsg15
I00
sg16
g27
sbsg13
I2
sg15
I01
sg16
g64
sbsg15
I00
sg16
g26
sbsg13
I4
sg15
I01
sg16
g83
sbsg13
I5
sg15
I01
sg16
g64
sba(imyEvolve
Tree
p848
(dp849
g10
(imyEvolve
Tree
p850
(dp851
g10
(imyEvolve
Tree
p852
(dp853
g10
(imyEvolve
Tree
p854
(dp855
g7
(imyEvolve
Tree
p856
(dp857
g13
I0
sg23
F-3.5981690464944216
sg14
I01
sbsg13
I1
sg18
(imyEvolve
Tree
p858
(dp859
g13
I0
sg14
I00
sbsg15
I00
sg16
g27
sbsg13
I2
sg15
I01
sg16
g83
sbsg13
I3
sg15
I01
sg16
g17
sbsg13
I4
sg15
I01
sg16
g40
sba(imyEvolve
Tree
p860
(dp861
g7
(imyEvolve
Tree
p862
(dp863
g10
(imyEvolve
Tree
p864
(dp865
g10
(imyEvolve
Tree
p866
(dp867
g10
(imyEvolve
Tree
p868
(dp869
g10
(imyEvolve
Tree
p870
(dp871
g13
I0
sg23
F-3.001831422167476
sg14
I01
sbsg13
I1
sg15
I01
sg16
g83
sbsg13
I2
sg15
I01
sg16
g40
sbsg13
I3
sg15
I01
sg16
g40
sbsg13
I4
sg15
I01
sg16
g83
sbsg13
I5
sg18
(imyEvolve
Tree
p872
(dp873
g7
(imyEvolve
Tree
p874
(dp875
g10
(imyEvolve
Tree
p876
(dp877
g7
(imyEvolve
Tree
p878
(dp879
g10
(imyEvolve
Tree
p880
(dp881
g13
I0
sg23
F-1.8652378696750205
sg14
I01
sbsg13
I1
sg15
I01
sg16
g83
sbsg13
I2
sg18
(imyEvolve
Tree
p882
(dp883
g10
(imyEvolve
Tree
p884
(dp885
g13
I0
sg23
F0.2310779613222298
sg14
I01
sbsg13
I1
sg15
I01
sg16
g17
sbsg15
I00
sg16
g26
sbsg13
I3
sg15
I01
sg16
g17
sbsg13
I4
sg18
(imyEvolve
Tree
p886
(dp887
g10
(imyEvolve
Tree
p888
(dp889
g10
(imyEvolve
Tree
p890
(dp891
g10
(imyEvolve
Tree
p892
(dp893
g13
I0
sg14
I00
sbsg13
I1
sg15
I01
sg16
g17
sbsg13
I2
sg15
I01
sg16
g83
sbsg13
I3
sg15
I01
sg16
g40
sbsg15
I00
sg16
g26
sbsg15
I00
sg16
g26
sba(imyEvolve
Tree
p894
(dp895
g10
(imyEvolve
Tree
p896
(dp897
g10
(imyEvolve
Tree
p898
(dp899
g10
(imyEvolve
Tree
p900
(dp901
g13
I0
sg23
F-3.6903171951417226
sg14
I01
sbsg13
I1
sg15
I01
sg16
g83
sbsg13
I2
sg15
I01
sg16
g40
sbsg13
I3
sg15
I01
sg16
g17
sba(imyEvolve
Tree
p902
(dp903
g10
(imyEvolve
Tree
p904
(dp905
g7
(imyEvolve
Tree
p906
(dp907
g10
(imyEvolve
Tree
p908
(dp909
g7
(imyEvolve
Tree
p910
(dp911
g13
I0
sg14
I00
sbsg13
I1
sg18
(imyEvolve
Tree
p912
(dp913
g13
I0
sg14
I00
sbsg15
I00
sg16
g26
sbsg13
I2
sg15
I01
sg16
g17
sbsg13
I3
sg18
(imyEvolve
Tree
p914
(dp915
g7
(imyEvolve
Tree
p916
(dp917
g10
(imyEvolve
Tree
p918
(dp919
g13
I0
sg23
F4.360322128616529
sg14
I01
sbsg13
I1
sg15
I01
sg16
g64
sbsg13
I2
sg18
(imyEvolve
Tree
p920
(dp921
g7
(imyEvolve
Tree
p922
(dp923
g13
I0
sg23
F-2.5715432634681177
sg14
I01
sbsg13
I1
sg18
(imyEvolve
Tree
p924
(dp925
g13
I0
sg23
F1.2020753961071318
sg14
I01
sbsg15
I00
sg16
g27
sbsg15
I00
sg16
g26
sbsg15
I00
sg16
g49
sbsg13
I4
sg15
I01
sg16
g40
sba(imyEvolve
Tree
p926
(dp927
g7
(imyEvolve
Tree
p928
(dp929
g7
(imyEvolve
Tree
p930
(dp931
g7
(imyEvolve
Tree
p932
(dp933
g10
(imyEvolve
Tree
p934
(dp935
g13
I0
sg23
F-2.7682995845769276
sg14
I01
sbsg13
I1
sg15
I01
sg16
g83
sbsg13
I2
sg18
(imyEvolve
Tree
p936
(dp937
g7
(imyEvolve
Tree
p938
(dp939
g13
I0
sg23
F-0.9341798676646231
sg14
I01
sbsg13
I1
sg18
(imyEvolve
Tree
p940
(dp941
g13
I0
sg23
F3.8766547531814037
sg14
I01
sbsg15
I00
sg16
g26
sbsg15
I00
sg16
g27
sbsg13
I3
sg18
(imyEvolve
Tree
p942
(dp943
g10
(imyEvolve
Tree
p944
(dp945
g10
(imyEvolve
Tree
p946
(dp947
g13
I0
sg14
I00
sbsg13
I1
sg15
I01
sg16
g83
sbsg13
I2
sg15
I01
sg16
g17
sbsg15
I00
sg16
g49
sbsg13
I4
sg18
(imyEvolve
Tree
p948
(dp949
g7
(imyEvolve
Tree
p950
(dp951
g7
(imyEvolve
Tree
p952
(dp953
g10
(imyEvolve
Tree
p954
(dp955
g13
I0
sg14
I00
sbsg13
I1
sg15
I01
sg16
g40
sbsg13
I2
sg18
(imyEvolve
Tree
p956
(dp957
g10
(imyEvolve
Tree
p958
(dp959
g13
I0
sg14
I00
sbsg13
I1
sg15
I01
sg16
g17
sbsg15
I00
sg16
g49
sbsg13
I3
sg18
(imyEvolve
Tree
p960
(dp961
g7
(imyEvolve
Tree
p962
(dp963
g7
(imyEvolve
Tree
p964
(dp965
g13
I0
sg23
F-1.8008272400228797
sg14
I01
sbsg13
I1
sg18
(imyEvolve
Tree
p966
(dp967
g13
I0
sg14
I00
sbsg15
I00
sg16
g49
sbsg13
I2
sg18
(imyEvolve
Tree
p968
(dp969
g10
(imyEvolve
Tree
p970
(dp971
g13
I0
sg14
I00
sbsg13
I1
sg15
I01
sg16
g64
sbsg15
I00
sg16
g49
sbsg15
I00
sg16
g49
sbsg15
I00
sg16
g49
sba(imyEvolve
Tree
p972
(dp973
g13
I4
sg7
(imyEvolve
Tree
p974
(dp975
g10
(imyEvolve
Tree
p976
(dp977
g13
I2
sg7
(imyEvolve
Tree
p978
(dp979
g10
(imyEvolve
Tree
p980
(dp981
g13
I0
sg14
I00
sbsg13
I1
sg15
I01
sg16
g83
sbsg18
(imyEvolve
Tree
p982
(dp983
g13
I1
sg7
(imyEvolve
Tree
p984
(dp985
g13
I0
sg14
I00
sbsg18
(imyEvolve
Tree
p986
(dp987
g13
I0
sg14
I00
sbsg15
I00
sg16
g26
sbsg15
I00
sg16
g26
sbsg13
I3
sg15
I01
sg16
g40
sbsg18
(imyEvolve
Tree
p988
(dp989
g13
I3
sg7
(imyEvolve
Tree
p990
(dp991
g10
(imyEvolve
Tree
p992
(dp993
g13
I1
sg7
(imyEvolve
Tree
p994
(dp995
g13
I0
sg14
I00
sbsg18
(imyEvolve
Tree
p996
(dp997
g13
I0
sg14
I00
sbsg15
I00
sg16
g27
sbsg13
I2
sg15
I01
sg16
g40
sbsg18
(imyEvolve
Tree
p998
(dp999
g13
I2
sg7
(imyEvolve
Tree
p1000
(dp1001
g10
(imyEvolve
Tree
p1002
(dp1003
g13
I0
sg23
F-2.48844343483251
sg14
I01
sbsg13
I1
sg15
I01
sg16
g40
sbsg18
(imyEvolve
Tree
p1004
(dp1005
g10
(imyEvolve
Tree
p1006
(dp1007
g13
I0
sg14
I00
sbsg13
I1
sg15
I01
sg16
g17
sbsg15
I00
sg16
g27
sbsg15
I00
sg16
g26
sbsg15
I00
sg16
g26
sba(imyEvolve
Tree
p1008
(dp1009
g10
(imyEvolve
Tree
p1010
(dp1011
g7
(imyEvolve
Tree
p1012
(dp1013
g7
(imyEvolve
Tree
p1014
(dp1015
g13
I0
sg14
I00
sbsg13
I1
sg18
(imyEvolve
Tree
p1016
(dp1017
g13
I0
sg14
I00
sbsg15
I00
sg16
g27
sbsg13
I2
sg18
(imyEvolve
Tree
p1018
(dp1019
g10
(imyEvolve
Tree
p1020
(dp1021
g13
I0
sg14
I00
sbsg13
I1
sg15
I01
sg16
g64
sbsg15
I00
sg16
g49
sbsg13
I3
sg15
I01
sg16
g83
sba(imyEvolve
Tree
p1022
(dp1023
g10
(imyEvolve
Tree
p1024
(dp1025
g10
(imyEvolve
Tree
p1026
(dp1027
g13
I0
sg23
F2.291281480866145
sg14
I01
sbsg13
I1
sg15
I01
sg16
g83
sbsg13
I2
sg15
I01
sg16
g64
sba(imyEvolve
Tree
p1028
(dp1029
g10
(imyEvolve
Tree
p1030
(dp1031
g10
(imyEvolve
Tree
p1032
(dp1033
g10
(imyEvolve
Tree
p1034
(dp1035
g13
I0
sg23
F-0.2566455936625287
sg14
I01
sbsg13
I1
sg15
I01
sg16
g17
sbsg13
I2
sg15
I01
sg16
g64
sbsg13
I3
sg15
I01
sg16
g64
sba(imyEvolve
Tree
p1036
(dp1037
g10
(imyEvolve
Tree
p1038
(dp1039
g7
(imyEvolve
Tree
p1040
(dp1041
g7
(imyEvolve
Tree
p1042
(dp1043
g7
(imyEvolve
Tree
p1044
(dp1045
g7
(imyEvolve
Tree
p1046
(dp1047
g13
I0
sg14
I00
sbsg13
I1
sg18
(imyEvolve
Tree
p1048
(dp1049
g13
I0
sg23
F-4.549928205391498
sg14
I01
sbsg15
I00
sg16
g49
sbsg13
I2
sg18
(imyEvolve
Tree
p1050
(dp1051
g10
(imyEvolve
Tree
p1052
(dp1053
g13
I0
sg14
I00
sbsg13
I1
sg15
I01
sg16
g83
sbsg15
I00
sg16
g26
sbsg13
I3
sg18
(imyEvolve
Tree
p1054
(dp1055
g10
(imyEvolve
Tree
p1056
(dp1057
g10
(imyEvolve
Tree
p1058
(dp1059
g13
I0
sg23
F-2.3494068433804207
sg14
I01
sbsg13
I1
sg15
I01
sg16
g64
sbsg13
I2
sg15
I01
sg16
g40
sbsg15
I00
sg16
g26
sbsg13
I4
sg18
(imyEvolve
Tree
p1060
(dp1061
g10
(imyEvolve
Tree
p1062
(dp1063
g10
(imyEvolve
Tree
p1064
(dp1065
g7
(imyEvolve
Tree
p1066
(dp1067
g13
I0
sg23
F3.9893312898646816
sg14
I01
sbsg13
I1
sg18
(imyEvolve
Tree
p1068
(dp1069
g13
I0
sg23
F0.4108753836374843
sg14
I01
sbsg15
I00
sg16
g26
sbsg13
I2
sg15
I01
sg16
g64
sbsg13
I3
sg15
I01
sg16
g17
sbsg15
I00
sg16
g26
sbsg13
I5
sg15
I01
sg16
g17
sba(imyEvolve
Tree
p1070
(dp1071
g13
I2
sg7
(imyEvolve
Tree
p1072
(dp1073
g13
I1
sg7
(imyEvolve
Tree
p1074
(dp1075
g13
I0
sg14
I00
sbsg18
(imyEvolve
Tree
p1076
(dp1077
g13
I0
sg23
F3.33082569015607
sg14
I01
sbsg15
I00
sg16
g26
sbsg18
(imyEvolve
Tree
p1078
(dp1079
g13
I1
sg7
(imyEvolve
Tree
p1080
(dp1081
g13
I0
sg23
F-0.9255284261214474
sg14
I01
sbsg18
(imyEvolve
Tree
p1082
(dp1083
g13
I0
sg14
I00
sbsg15
I00
sg16
g26
sbsg15
I00
sg16
g26
sba(imyEvolve
Tree
p1084
(dp1085
g7
(imyEvolve
Tree
p1086
(dp1087
g7
(imyEvolve
Tree
p1088
(dp1089
g10
(imyEvolve
Tree
p1090
(dp1091
g7
(imyEvolve
Tree
p1092
(dp1093
g7
(imyEvolve
Tree
p1094
(dp1095
g13
I0
sg23
F-2.467032713470868
sg14
I01
sbsg13
I1
sg18
(imyEvolve
Tree
p1096
(dp1097
g13
I0
sg14
I00
sbsg15
I00
sg16
g49
sbsg13
I2
sg18
(imyEvolve
Tree
p1098
(dp1099
g7
(imyEvolve
Tree
p1100
(dp1101
g13
I0
sg14
I00
sbsg13
I1
sg18
(imyEvolve
Tree
p1102
(dp1103
g13
I0
sg14
I00
sbsg15
I00
sg16
g26
sbsg15
I00
sg16
g27
sbsg13
I3
sg15
I01
sg16
g40
sbsg13
I4
sg18
(imyEvolve
Tree
p1104
(dp1105
g7
(imyEvolve
Tree
p1106
(dp1107
g7
(imyEvolve
Tree
p1108
(dp1109
g10
(imyEvolve
Tree
p1110
(dp1111
g13
I0
sg23
F-4.044949353974122
sg14
I01
sbsg13
I1
sg15
I01
sg16
g64
sbsg13
I2
sg18
(imyEvolve
Tree
p1112
(dp1113
g10
(imyEvolve
Tree
p1114
(dp1115
g13
I0
sg23
F0.6881346226531369
sg14
I01
sbsg13
I1
sg15
I01
sg16
g40
sbsg15
I00
sg16
g49
sbsg13
I3
sg18
(imyEvolve
Tree
p1116
(dp1117
g7
(imyEvolve
Tree
p1118
(dp1119
g10
(imyEvolve
Tree
p1120
(dp1121
g13
I0
sg23
F-1.9785211056273355
sg14
I01
sbsg13
I1
sg15
I01
sg16
g17
sbsg13
I2
sg18
(imyEvolve
Tree
p1122
(dp1123
g10
(imyEvolve
Tree
p1124
(dp1125
g13
I0
sg23
F-2.121036572475361
sg14
I01
sbsg13
I1
sg15
I01
sg16
g40
sbsg15
I00
sg16
g49
sbsg15
I00
sg16
g27
sbsg15
I00
sg16
g49
sbsg13
I5
sg18
(imyEvolve
Tree
p1126
(dp1127
g7
(imyEvolve
Tree
p1128
(dp1129
g10
(imyEvolve
Tree
p1130
(dp1131
g7
(imyEvolve
Tree
p1132
(dp1133
g7
(imyEvolve
Tree
p1134
(dp1135
g13
I0
sg23
F-4.6253276190621495
sg14
I01
sbsg13
I1
sg18
(imyEvolve
Tree
p1136
(dp1137
g13
I0
sg23
F-3.0818344043489496
sg14
I01
sbsg15
I00
sg16
g26
sbsg13
I2
sg18
(imyEvolve
Tree
p1138
(dp1139
g10
(imyEvolve
Tree
p1140
(dp1141
g13
I0
sg23
F3.7202326780769255
sg14
I01
sbsg13
I1
sg15
I01
sg16
g83
sbsg15
I00
sg16
g49
sbsg13
I3
sg15
I01
sg16
g40
sbsg13
I4
sg18
(imyEvolve
Tree
p1142
(dp1143
g7
(imyEvolve
Tree
p1144
(dp1145
g10
(imyEvolve
Tree
p1146
(dp1147
g7
(imyEvolve
Tree
p1148
(dp1149
g13
I0
sg23
F1.2134502705780923
sg14
I01
sbsg13
I1
sg18
(imyEvolve
Tree
p1150
(dp1151
g13
I0
sg14
I00
sbsg15
I00
sg16
g49
sbsg13
I2
sg15
I01
sg16
g17
sbsg13
I3
sg18
(imyEvolve
Tree
p1152
(dp1153
g10
(imyEvolve
Tree
p1154
(dp1155
g10
(imyEvolve
Tree
p1156
(dp1157
g13
I0
sg14
I00
sbsg13
I1
sg15
I01
sg16
g64
sbsg13
I2
sg15
I01
sg16
g17
sbsg15
I00
sg16
g27
sbsg15
I00
sg16
g26
sbsg15
I00
sg16
g49
sba(imyEvolve
Tree
p1158
(dp1159
g10
(imyEvolve
Tree
p1160
(dp1161
g7
(imyEvolve
Tree
p1162
(dp1163
g13
I0
sg14
I00
sbsg13
I1
sg18
(imyEvolve
Tree
p1164
(dp1165
g13
I0
sg23
F-4.581935344887381
sg14
I01
sbsg15
I00
sg16
g26
sbsg13
I2
sg15
I01
sg16
g64
sba(imyEvolve
Tree
p1166
(dp1167
g10
(imyEvolve
Tree
p1168
(dp1169
g10
(imyEvolve
Tree
p1170
(dp1171
g10
(imyEvolve
Tree
p1172
(dp1173
g7
(imyEvolve
Tree
p1174
(dp1175
g13
I0
sg14
I00
sbsg13
I1
sg18
(imyEvolve
Tree
p1176
(dp1177
g13
I0
sg23
F-1.332505910564369
sg14
I01
sbsg15
I00
sg16
g26
sbsg13
I2
sg15
I01
sg16
g64
sbsg13
I3
sg15
I01
sg16
g40
sbsg13
I4
sg15
I01
sg16
g83
sba(imyEvolve
Tree
p1178
(dp1179
g7
(imyEvolve
Tree
p1180
(dp1181
g7
(imyEvolve
Tree
p1182
(dp1183
g10
(imyEvolve
Tree
p1184
(dp1185
g10
(imyEvolve
Tree
p1186
(dp1187
g10
(imyEvolve
Tree
p1188
(dp1189
g13
I0
sg23
F-1.2940471204908919
sg14
I01
sbsg13
I1
sg15
I01
sg16
g83
sbsg13
I2
sg15
I01
sg16
g83
sbsg13
I3
sg15
I01
sg16
g64
sbsg13
I4
sg18
(imyEvolve
Tree
p1190
(dp1191
g7
(imyEvolve
Tree
p1192
(dp1193
g7
(imyEvolve
Tree
p1194
(dp1195
g10
(imyEvolve
Tree
p1196
(dp1197
g13
I0
sg23
F0.8758270607402752
sg14
I01
sbsg13
I1
sg15
I01
sg16
g17
sbsg13
I2
sg18
(imyEvolve
Tree
p1198
(dp1199
g10
(imyEvolve
Tree
p1200
(dp1201
g13
I0
sg23
F3.72760214680579
sg14
I01
sbsg13
I1
sg15
I01
sg16
g40
sbsg15
I00
sg16
g49
sbsg13
I3
sg18
(imyEvolve
Tree
p1202
(dp1203
g7
(imyEvolve
Tree
p1204
(dp1205
g7
(imyEvolve
Tree
p1206
(dp1207
g13
I0
sg14
I00
sbsg13
I1
sg18
(imyEvolve
Tree
p1208
(dp1209
g13
I0
sg14
I00
sbsg15
I00
sg16
g27
sbsg13
I2
sg18
(imyEvolve
Tree
p1210
(dp1211
g7
(imyEvolve
Tree
p1212
(dp1213
g13
I0
sg14
I00
sbsg13
I1
sg18
(imyEvolve
Tree
p1214
(dp1215
g13
I0
sg14
I00
sbsg15
I00
sg16
g26
sbsg15
I00
sg16
g26
sbsg15
I00
sg16
g26
sbsg15
I00
sg16
g27
sbsg13
I5
sg18
(imyEvolve
Tree
p1216
(dp1217
g10
(imyEvolve
Tree
p1218
(dp1219
g10
(imyEvolve
Tree
p1220
(dp1221
g7
(imyEvolve
Tree
p1222
(dp1223
g10
(imyEvolve
Tree
p1224
(dp1225
g13
I0
sg14
I00
sbsg13
I1
sg15
I01
sg16
g17
sbsg13
I2
sg18
(imyEvolve
Tree
p1226
(dp1227
g7
(imyEvolve
Tree
p1228
(dp1229
g13
I0
sg14
I00
sbsg13
I1
sg18
(imyEvolve
Tree
p1230
(dp1231
g13
I0
sg23
F-4.829857477061563
sg14
I01
sbsg15
I00
sg16
g27
sbsg15
I00
sg16
g27
sbsg13
I3
sg15
I01
sg16
g40
sbsg13
I4
sg15
I01
sg16
g83
sbsg15
I00
sg16
g49
sba(imyEvolve
Tree
p1232
(dp1233
g10
(imyEvolve
Tree
p1234
(dp1235
g10
(imyEvolve
Tree
p1236
(dp1237
g13
I0
sg23
F4.8993089203707445
sg14
I01
sbsg13
I1
sg15
I01
sg16
g17
sbsg13
I2
sg15
I01
sg16
g64
sbaa(lp1238
(imyEvolve
Tree
p1239
(dp1240
g10
(imyEvolve
Tree
p1241
(dp1242
g10
(imyEvolve
Tree
p1243
(dp1244
g13
I0
sg23
F-1.8591403602891599
sg14
I01
sbsg13
I1
sg15
I01
sg16
g83
sbsg13
I2
sg15
I01
sg16
g40
sba(imyEvolve
Tree
p1245
(dp1246
g13
I2
sg7
(imyEvolve
Tree
p1247
(dp1248
g13
I1
sg7
(imyEvolve
Tree
p1249
(dp1250
g13
I0
sg23
F-2.7286029344923635
sg14
I01
sbsg18
(imyEvolve
Tree
p1251
(dp1252
g13
I0
sg23
F-4.896964532850193
sg14
I01
sbsg15
I00
sg16
g49
sbsg18
(imyEvolve
Tree
p1253
(dp1254
g10
(imyEvolve
Tree
p1255
(dp1256
g13
I0
sg14
I00
sbsg13
I1
sg15
I01
sg16
g64
sbsg15
I00
sg16
g49
sba(imyEvolve
Tree
p1257
(dp1258
g7
(imyEvolve
Tree
p1259
(dp1260
g10
(imyEvolve
Tree
p1261
(dp1262
g10
(imyEvolve
Tree
p1263
(dp1264
g10
(imyEvolve
Tree
p1265
(dp1266
g10
(imyEvolve
Tree
p1267
(dp1268
g13
I0
sg23
F1.6064537190007497
sg14
I01
sbsg13
I1
sg15
I01
sg16
g83
sbsg13
I2
sg15
I01
sg16
g64
sbsg13
I3
sg15
I01
sg16
g83
sbsg13
I4
sg15
I01
sg16
g17
sbsg13
I5
sg18
(imyEvolve
Tree
p1269
(dp1270
g10
(imyEvolve
Tree
p1271
(dp1272
g7
(imyEvolve
Tree
p1273
(dp1274
g10
(imyEvolve
Tree
p1275
(dp1276
g10
(imyEvolve
Tree
p1277
(dp1278
g13
I0
sg23
F-0.4523132483933612
sg14
I01
sbsg13
I1
sg15
I01
sg16
g83
sbsg13
I2
sg15
I01
sg16
g83
sbsg13
I3
sg18
(imyEvolve
Tree
p1279
(dp1280
g10
(imyEvolve
Tree
p1281
(dp1282
g7
(imyEvolve
Tree
p1283
(dp1284
g13
I0
sg23
F3.917590243693928
sg14
I01
sbsg13
I1
sg18
(imyEvolve
Tree
p1285
(dp1286
g13
I0
sg23
F-2.6463471473152325
sg14
I01
sbsg15
I00
sg16
g26
sbsg13
I2
sg15
I01
sg16
g64
sbsg15
I00
sg16
g27
sbsg13
I4
sg15
I01
sg16
g83
sbsg15
I00
sg16
g49
sba(imyEvolve
Tree
p1287
(dp1288
g10
(imyEvolve
Tree
p1289
(dp1290
g10
(imyEvolve
Tree
p1291
(dp1292
g7
(imyEvolve
Tree
p1293
(dp1294
g7
(imyEvolve
Tree
p1295
(dp1296
g13
I0
sg23
F4.790517447131739
sg14
I01
sbsg13
I1
sg18
(imyEvolve
Tree
p1297
(dp1298
g13
I0
sg14
I00
sbsg15
I00
sg16
g27
sbsg13
I2
sg18
(imyEvolve
Tree
p1299
(dp1300
g10
(imyEvolve
Tree
p1301
(dp1302
g13
I0
sg14
I00
sbsg13
I1
sg15
I01
sg16
g40
sbsg15
I00
sg16
g26
sbsg13
I3
sg15
I01
sg16
g40
sbsg13
I4
sg15
I01
sg16
g64
sba(imyEvolve
Tree
p1303
(dp1304
g10
(imyEvolve
Tree
p1305
(dp1306
g10
(imyEvolve
Tree
p1307
(dp1308
g7
(imyEvolve
Tree
p1309
(dp1310
g13
I0
sg23
F-3.1681336061847887
sg14
I01
sbsg13
I1
sg18
(imyEvolve
Tree
p1311
(dp1312
g13
I0
sg23
F-0.1440430449900143
sg14
I01
sbsg15
I00
sg16
g27
sbsg13
I2
sg15
I01
sg16
g83
sbsg13
I3
sg15
I01
sg16
g64
sba(imyEvolve
Tree
p1313
(dp1314
g7
(imyEvolve
Tree
p1315
(dp1316
g7
(imyEvolve
Tree
p1317
(dp1318
g13
I0
sg23
F0.1284264709628129
sg14
I01
sbsg13
I1
sg18
(imyEvolve
Tree
p1319
(dp1320
g13
I0
sg14
I00
sbsg15
I00
sg16
g26
sbsg13
I2
sg18
(imyEvolve
Tree
p1321
(dp1322
g10
(imyEvolve
Tree
p1323
(dp1324
g13
I0
sg14
I00
sbsg13
I1
sg15
I01
sg16
g40
sbsg15
I00
sg16
g27
sba(imyEvolve
Tree
p1325
(dp1326
g10
(imyEvolve
Tree
p1327
(dp1328
g13
I1
sg7
(imyEvolve
Tree
p1329
(dp1330
g13
I0
sg23
F-0.08443459229731687
sg14
I01
sbsg18
(imyEvolve
Tree
p1331
(dp1332
g13
I0
sg23
F4.132074077828886
sg14
I01
sbsg15
I00
sg16
g26
sbsg13
I2
sg15
I01
sg16
g64
sba(imyEvolve
Tree
p1333
(dp1334
g13
I3
sg7
(imyEvolve
Tree
p1335
(dp1336
g10
(imyEvolve
Tree
p1337
(dp1338
g13
I1
sg7
(imyEvolve
Tree
p1339
(dp1340
g13
I0
sg14
I00
sbsg18
(imyEvolve
Tree
p1341
(dp1342
g13
I0
sg14
I00
sbsg15
I00
sg16
g49
sbsg13
I2
sg15
I01
sg16
g64
sbsg18
(imyEvolve
Tree
p1343
(dp1344
g13
I2
sg7
(imyEvolve
Tree
p1345
(dp1346
g10
(imyEvolve
Tree
p1347
(dp1348
g13
I0
sg14
I00
sbsg13
I1
sg15
I01
sg16
g64
sbsg18
(imyEvolve
Tree
p1349
(dp1350
g10
(imyEvolve
Tree
p1351
(dp1352
g13
I0
sg14
I00
sbsg13
I1
sg15
I01
sg16
g64
sbsg15
I00
sg16
g27
sbsg15
I00
sg16
g26
sba(imyEvolve
Tree
p1353
(dp1354
g10
(imyEvolve
Tree
p1355
(dp1356
g10
(imyEvolve
Tree
p1357
(dp1358
g7
(imyEvolve
Tree
p1359
(dp1360
g10
(imyEvolve
Tree
p1361
(dp1362
g7
(imyEvolve
Tree
p1363
(dp1364
g13
I0
sg23
F-0.6080087650503998
sg14
I01
sbsg13
I1
sg18
(imyEvolve
Tree
p1365
(dp1366
g13
I0
sg14
I00
sbsg15
I00
sg16
g27
sbsg13
I2
sg15
I01
sg16
g40
sbsg13
I3
sg18
(imyEvolve
Tree
p1367
(dp1368
g10
(imyEvolve
Tree
p1369
(dp1370
g7
(imyEvolve
Tree
p1371
(dp1372
g13
I0
sg23
F-3.4187239164983896
sg14
I01
sbsg13
I1
sg18
(imyEvolve
Tree
p1373
(dp1374
g13
I0
sg23
F2.8769472926969497
sg14
I01
sbsg15
I00
sg16
g49
sbsg13
I2
sg15
I01
sg16
g64
sbsg15
I00
sg16
g49
sbsg13
I4
sg15
I01
sg16
g83
sbsg13
I5
sg15
I01
sg16
g17
sba(imyEvolve
Tree
p1375
(dp1376
g13
I3
sg7
(imyEvolve
Tree
p1377
(dp1378
g10
(imyEvolve
Tree
p1379
(dp1380
g10
(imyEvolve
Tree
p1381
(dp1382
g13
I0
sg14
I00
sbsg13
I1
sg15
I01
sg16
g40
sbsg13
I2
sg15
I01
sg16
g83
sbsg18
(imyEvolve
Tree
p1383
(dp1384
g13
I2
sg7
(imyEvolve
Tree
p1385
(dp1386
g13
I1
sg7
(imyEvolve
Tree
p1387
(dp1388
g13
I0
sg14
I00
sbsg18
(imyEvolve
Tree
p1389
(dp1390
g13
I0
sg14
I00
sbsg15
I00
sg16
g49
sbsg18
(imyEvolve
Tree
p1391
(dp1392
g13
I1
sg7
(imyEvolve
Tree
p1393
(dp1394
g13
I0
sg14
I00
sbsg18
(imyEvolve
Tree
p1395
(dp1396
g13
I0
sg23
F-3.141402401624467
sg14
I01
sbsg15
I00
sg16
g26
sbsg15
I00
sg16
g49
sbsg15
I00
sg16
g27
sbaasS'alpha'
p1397
F0.006235283429227879
sS'fitness'
p1398
cnumpy.core.multiarray
scalar
p1399
(cnumpy
dtype
p1400
(S'f8'
p1401
I0
I1
tp1402
Rp1403
(I3
S'<'
p1404
NNNI-1
I-1
I0
tp1405
bS'\x00p\xa3\x01<\xb8(\xbf'
p1406
tp1407
Rp1408
sS'weightSharing'
p1409
(lp1410
I00
aI00
asS'fitnessValid'
p1411
I00
sS'resolution'
p1412
I89
sb.