(imyEvolve
Individual
p0
(dp1
S'funcs'
p2
(lp3
(lp4
(imyEvolve
Tree
p5
(dp6
S'below'
p7
(imyEvolve
Tree
p8
(dp9
S'depth'
p10
I1
sS'left'
p11
(imyEvolve
Tree
p12
(dp13
g10
I0
sS'isConstant'
p14
I00
sbsS'right'
p15
(imyEvolve
Tree
p16
(dp17
g10
I0
sS'constant'
p18
F-1.8121950135469653
sg14
I01
sbsS'single'
p19
I00
sS'op'
p20
coperator
mul
p21
sbsg10
I2
sg19
I01
sg20
cmath
sin
p22
sba(imyEvolve
Tree
p23
(dp24
g7
(imyEvolve
Tree
p25
(dp26
g7
(imyEvolve
Tree
p27
(dp28
g10
I0
sg18
F0.912255509032855
sg14
I01
sbsg10
I1
sg19
I01
sg20
cmyEvolve
absSqrt
p29
sbsg10
I2
sg19
I01
sg20
cmyEvolve
square
p30
sba(imyEvolve
Tree
p31
(dp32
g7
(imyEvolve
Tree
p33
(dp34
g10
I4
sg11
(imyEvolve
Tree
p35
(dp36
g7
(imyEvolve
Tree
p37
(dp38
g7
(imyEvolve
Tree
p39
(dp40
g7
(imyEvolve
Tree
p41
(dp42
g10
I0
sg14
I00
sbsg10
I1
sg19
I01
sg20
g29
sbsg10
I2
sg19
I01
sg20
g22
sbsg10
I3
sg19
I01
sg20
g22
sbsg15
(imyEvolve
Tree
p43
(dp44
g7
(imyEvolve
Tree
p45
(dp46
g10
I2
sg11
(imyEvolve
Tree
p47
(dp48
g10
I1
sg11
(imyEvolve
Tree
p49
(dp50
g10
I0
sg14
I00
sbsg15
(imyEvolve
Tree
p51
(dp52
g10
I0
sg14
I00
sbsg19
I00
sg20
coperator
add
p53
sbsg15
(imyEvolve
Tree
p54
(dp55
g7
(imyEvolve
Tree
p56
(dp57
g10
I0
sg18
F2.600719046853585
sg14
I01
sbsg10
I1
sg19
I01
sg20
g29
sbsg19
I00
sg20
coperator
sub
p58
sbsg10
I3
sg19
I01
sg20
g30
sbsg19
I00
sg20
g21
sbsg10
I5
sg19
I01
sg20
cmath
cos
p59
sba(imyEvolve
Tree
p60
(dp61
g10
I2
sg11
(imyEvolve
Tree
p62
(dp63
g10
I1
sg11
(imyEvolve
Tree
p64
(dp65
g10
I0
sg18
F3.404060302472601
sg14
I01
sbsg15
(imyEvolve
Tree
p66
(dp67
g10
I0
sg18
F4.614142004492221
sg14
I01
sbsg19
I00
sg20
g58
sbsg15
(imyEvolve
Tree
p68
(dp69
g10
I1
sg11
(imyEvolve
Tree
p70
(dp71
g10
I0
sg14
I00
sbsg15
(imyEvolve
Tree
p72
(dp73
g10
I0
sg18
F-3.025699786791991
sg14
I01
sbsg19
I00
sg20
g53
sbsg19
I00
sg20
g53
sba(imyEvolve
Tree
p74
(dp75
g7
(imyEvolve
Tree
p76
(dp77
g7
(imyEvolve
Tree
p78
(dp79
g7
(imyEvolve
Tree
p80
(dp81
g7
(imyEvolve
Tree
p82
(dp83
g10
I0
sg14
I00
sbsg10
I1
sg19
I01
sg20
g22
sbsg10
I2
sg19
I01
sg20
g22
sbsg10
I3
sg19
I01
sg20
g29
sbsg10
I4
sg19
I01
sg20
g29
sba(imyEvolve
Tree
p84
(dp85
g10
I2
sg11
(imyEvolve
Tree
p86
(dp87
g10
I1
sg11
(imyEvolve
Tree
p88
(dp89
g10
I0
sg14
I00
sbsg15
(imyEvolve
Tree
p90
(dp91
g10
I0
sg14
I00
sbsg19
I00
sg20
g53
sbsg15
(imyEvolve
Tree
p92
(dp93
g7
(imyEvolve
Tree
p94
(dp95
g10
I0
sg18
F0.4155725155045502
sg14
I01
sbsg10
I1
sg19
I01
sg20
g22
sbsg19
I00
sg20
g58
sba(imyEvolve
Tree
p96
(dp97
g7
(imyEvolve
Tree
p98
(dp99
g7
(imyEvolve
Tree
p100
(dp101
g10
I0
sg18
F2.628065428308142
sg14
I01
sbsg10
I1
sg19
I01
sg20
g29
sbsg10
I2
sg19
I01
sg20
g59
sba(imyEvolve
Tree
p102
(dp103
g7
(imyEvolve
Tree
p104
(dp105
g10
I1
sg11
(imyEvolve
Tree
p106
(dp107
g10
I0
sg18
F4.878419177056127
sg14
I01
sbsg15
(imyEvolve
Tree
p108
(dp109
g10
I0
sg14
I00
sbsg19
I00
sg20
g21
sbsg10
I2
sg19
I01
sg20
g22
sba(imyEvolve
Tree
p110
(dp111
g7
(imyEvolve
Tree
p112
(dp113
g7
(imyEvolve
Tree
p114
(dp115
g10
I1
sg11
(imyEvolve
Tree
p116
(dp117
g10
I0
sg18
F0.951679187556211
sg14
I01
sbsg15
(imyEvolve
Tree
p118
(dp119
g10
I0
sg14
I00
sbsg19
I00
sg20
g53
sbsg10
I2
sg19
I01
sg20
g29
sbsg10
I3
sg19
I01
sg20
g59
sba(imyEvolve
Tree
p120
(dp121
g7
(imyEvolve
Tree
p122
(dp123
g10
I2
sg11
(imyEvolve
Tree
p124
(dp125
g7
(imyEvolve
Tree
p126
(dp127
g10
I0
sg18
F2.380731869353447
sg14
I01
sbsg10
I1
sg19
I01
sg20
g22
sbsg15
(imyEvolve
Tree
p128
(dp129
g7
(imyEvolve
Tree
p130
(dp131
g10
I0
sg18
F-1.2434803019902798
sg14
I01
sbsg10
I1
sg19
I01
sg20
g59
sbsg19
I00
sg20
g58
sbsg10
I3
sg19
I01
sg20
g29
sba(imyEvolve
Tree
p132
(dp133
g10
I3
sg11
(imyEvolve
Tree
p134
(dp135
g7
(imyEvolve
Tree
p136
(dp137
g10
I1
sg11
(imyEvolve
Tree
p138
(dp139
g10
I0
sg18
F1.4724218436907037
sg14
I01
sbsg15
(imyEvolve
Tree
p140
(dp141
g10
I0
sg14
I00
sbsg19
I00
sg20
g21
sbsg10
I2
sg19
I01
sg20
g22
sbsg15
(imyEvolve
Tree
p142
(dp143
g10
I2
sg11
(imyEvolve
Tree
p144
(dp145
g10
I1
sg11
(imyEvolve
Tree
p146
(dp147
g10
I0
sg18
F4.7626491691950665
sg14
I01
sbsg15
(imyEvolve
Tree
p148
(dp149
g10
I0
sg14
I00
sbsg19
I00
sg20
g53
sbsg15
(imyEvolve
Tree
p150
(dp151
g7
(imyEvolve
Tree
p152
(dp153
g10
I0
sg14
I00
sbsg10
I1
sg19
I01
sg20
g30
sbsg19
I00
sg20
g21
sbsg19
I00
sg20
g53
sbaa(lp154
(imyEvolve
Tree
p155
(dp156
g7
(imyEvolve
Tree
p157
(dp158
g10
I4
sg11
(imyEvolve
Tree
p159
(dp160
g7
(imyEvolve
Tree
p161
(dp162
g10
I2
sg11
(imyEvolve
Tree
p163
(dp164
g7
(imyEvolve
Tree
p165
(dp166
g10
I0
sg18
F0.045997052390980286
sg14
I01
sbsg10
I1
sg19
I01
sg20
g22
sbsg15
(imyEvolve
Tree
p167
(dp168
g7
(imyEvolve
Tree
p169
(dp170
g10
I0
sg18
F-3.787796551975149
sg14
I01
sbsg10
I1
sg19
I01
sg20
g22
sbsg19
I00
sg20
g53
sbsg10
I3
sg19
I01
sg20
g22
sbsg15
(imyEvolve
Tree
p171
(dp172
g10
I3
sg11
(imyEvolve
Tree
p173
(dp174
g7
(imyEvolve
Tree
p175
(dp176
g7
(imyEvolve
Tree
p177
(dp178
g10
I0
sg14
I00
sbsg10
I1
sg19
I01
sg20
g30
sbsg10
I2
sg19
I01
sg20
g29
sbsg15
(imyEvolve
Tree
p179
(dp180
g7
(imyEvolve
Tree
p181
(dp182
g7
(imyEvolve
Tree
p183
(dp184
g10
I0
sg18
F-4.249434987604584
sg14
I01
sbsg10
I1
sg19
I01
sg20
g59
sbsg10
I2
sg19
I01
sg20
g22
sbsg19
I00
sg20
g53
sbsg19
I00
sg20
g21
sbsg10
I5
sg19
I01
sg20
g30
sba(imyEvolve
Tree
p185
(dp186
g7
(imyEvolve
Tree
p187
(dp188
g7
(imyEvolve
Tree
p189
(dp190
g10
I0
sg18
F3.134737466013867
sg14
I01
sbsg10
I1
sg19
I01
sg20
g29
sbsg10
I2
sg19
I01
sg20
g29
sba(imyEvolve
Tree
p191
(dp192
g10
I4
sg11
(imyEvolve
Tree
p193
(dp194
g10
I3
sg11
(imyEvolve
Tree
p195
(dp196
g7
(imyEvolve
Tree
p197
(dp198
g7
(imyEvolve
Tree
p199
(dp200
g10
I0
sg18
F-0.12673269305246393
sg14
I01
sbsg10
I1
sg19
I01
sg20
g30
sbsg10
I2
sg19
I01
sg20
g22
sbsg15
(imyEvolve
Tree
p201
(dp202
g7
(imyEvolve
Tree
p203
(dp204
g7
(imyEvolve
Tree
p205
(dp206
g10
I0
sg18
F-0.5067021246257077
sg14
I01
sbsg10
I1
sg19
I01
sg20
g30
sbsg10
I2
sg19
I01
sg20
g29
sbsg19
I00
sg20
g21
sbsg15
(imyEvolve
Tree
p207
(dp208
g7
(imyEvolve
Tree
p209
(dp210
g10
I2
sg11
(imyEvolve
Tree
p211
(dp212
g7
(imyEvolve
Tree
p213
(dp214
g10
I0
sg18
F-4.885976085010188
sg14
I01
sbsg10
I1
sg19
I01
sg20
g22
sbsg15
(imyEvolve
Tree
p215
(dp216
g10
I1
sg11
(imyEvolve
Tree
p217
(dp218
g10
I0
sg18
F3.65138664989831
sg14
I01
sbsg15
(imyEvolve
Tree
p219
(dp220
g10
I0
sg14
I00
sbsg19
I00
sg20
g21
sbsg19
I00
sg20
g21
sbsg10
I3
sg19
I01
sg20
g30
sbsg19
I00
sg20
g58
sba(imyEvolve
Tree
p221
(dp222
g7
(imyEvolve
Tree
p223
(dp224
g10
I4
sg11
(imyEvolve
Tree
p225
(dp226
g7
(imyEvolve
Tree
p227
(dp228
g7
(imyEvolve
Tree
p229
(dp230
g10
I1
sg11
(imyEvolve
Tree
p231
(dp232
g10
I0
sg18
F2.003543235894454
sg14
I01
sbsg15
(imyEvolve
Tree
p233
(dp234
g10
I0
sg18
F4.703576171867121
sg14
I01
sbsg19
I00
sg20
g58
sbsg10
I2
sg19
I01
sg20
g22
sbsg10
I3
sg19
I01
sg20
g30
sbsg15
(imyEvolve
Tree
p235
(dp236
g10
I3
sg11
(imyEvolve
Tree
p237
(dp238
g7
(imyEvolve
Tree
p239
(dp240
g7
(imyEvolve
Tree
p241
(dp242
g10
I0
sg14
I00
sbsg10
I1
sg19
I01
sg20
g30
sbsg10
I2
sg19
I01
sg20
g22
sbsg15
(imyEvolve
Tree
p243
(dp244
g10
I2
sg11
(imyEvolve
Tree
p245
(dp246
g10
I1
sg11
(imyEvolve
Tree
p247
(dp248
g10
I0
sg18
F-2.748558906355898
sg14
I01
sbsg15
(imyEvolve
Tree
p249
(dp250
g10
I0
sg18
F4.982693911528941
sg14
I01
sbsg19
I00
sg20
g21
sbsg15
(imyEvolve
Tree
p251
(dp252
g10
I1
sg11
(imyEvolve
Tree
p253
(dp254
g10
I0
sg14
I00
sbsg15
(imyEvolve
Tree
p255
(dp256
g10
I0
sg14
I00
sbsg19
I00
sg20
g53
sbsg19
I00
sg20
g58
sbsg19
I00
sg20
g58
sbsg19
I00
sg20
g58
sbsg10
I5
sg19
I01
sg20
g29
sba(imyEvolve
Tree
p257
(dp258
g7
(imyEvolve
Tree
p259
(dp260
g10
I1
sg11
(imyEvolve
Tree
p261
(dp262
g10
I0
sg14
I00
sbsg15
(imyEvolve
Tree
p263
(dp264
g10
I0
sg18
F-3.4692581423448265
sg14
I01
sbsg19
I00
sg20
g58
sbsg10
I2
sg19
I01
sg20
g29
sba(imyEvolve
Tree
p265
(dp266
g7
(imyEvolve
Tree
p267
(dp268
g10
I3
sg11
(imyEvolve
Tree
p269
(dp270
g10
I2
sg11
(imyEvolve
Tree
p271
(dp272
g7
(imyEvolve
Tree
p273
(dp274
g10
I0
sg14
I00
sbsg10
I1
sg19
I01
sg20
g30
sbsg15
(imyEvolve
Tree
p275
(dp276
g10
I1
sg11
(imyEvolve
Tree
p277
(dp278
g10
I0
sg18
F3.6549372935527717
sg14
I01
sbsg15
(imyEvolve
Tree
p279
(dp280
g10
I0
sg18
F3.5071475103619427
sg14
I01
sbsg19
I00
sg20
g53
sbsg19
I00
sg20
g53
sbsg15
(imyEvolve
Tree
p281
(dp282
g7
(imyEvolve
Tree
p283
(dp284
g10
I1
sg11
(imyEvolve
Tree
p285
(dp286
g10
I0
sg14
I00
sbsg15
(imyEvolve
Tree
p287
(dp288
g10
I0
sg14
I00
sbsg19
I00
sg20
g58
sbsg10
I2
sg19
I01
sg20
g22
sbsg19
I00
sg20
g53
sbsg10
I4
sg19
I01
sg20
g29
sba(imyEvolve
Tree
p289
(dp290
g10
I3
sg11
(imyEvolve
Tree
p291
(dp292
g7
(imyEvolve
Tree
p293
(dp294
g10
I1
sg11
(imyEvolve
Tree
p295
(dp296
g10
I0
sg18
F-0.21155256414718338
sg14
I01
sbsg15
(imyEvolve
Tree
p297
(dp298
g10
I0
sg14
I00
sbsg19
I00
sg20
g21
sbsg10
I2
sg19
I01
sg20
g59
sbsg15
(imyEvolve
Tree
p299
(dp300
g10
I2
sg11
(imyEvolve
Tree
p301
(dp302
g7
(imyEvolve
Tree
p303
(dp304
g10
I0
sg18
F0.3445723350208034
sg14
I01
sbsg10
I1
sg19
I01
sg20
g59
sbsg15
(imyEvolve
Tree
p305
(dp306
g10
I1
sg11
(imyEvolve
Tree
p307
(dp308
g10
I0
sg14
I00
sbsg15
(imyEvolve
Tree
p309
(dp310
g10
I0
sg14
I00
sbsg19
I00
sg20
g53
sbsg19
I00
sg20
g21
sbsg19
I00
sg20
g21
sba(imyEvolve
Tree
p311
(dp312
g10
I3
sg11
(imyEvolve
Tree
p313
(dp314
g10
I2
sg11
(imyEvolve
Tree
p315
(dp316
g10
I1
sg11
(imyEvolve
Tree
p317
(dp318
g10
I0
sg18
F-0.9003475994689989
sg14
I01
sbsg15
(imyEvolve
Tree
p319
(dp320
g10
I0
sg14
I00
sbsg19
I00
sg20
g21
sbsg15
(imyEvolve
Tree
p321
(dp322
g7
(imyEvolve
Tree
p323
(dp324
g10
I0
sg14
I00
sbsg10
I1
sg19
I01
sg20
g29
sbsg19
I00
sg20
g21
sbsg15
(imyEvolve
Tree
p325
(dp326
g7
(imyEvolve
Tree
p327
(dp328
g7
(imyEvolve
Tree
p329
(dp330
g10
I0
sg14
I00
sbsg10
I1
sg19
I01
sg20
g29
sbsg10
I2
sg19
I01
sg20
g30
sbsg19
I00
sg20
g21
sba(imyEvolve
Tree
p331
(dp332
g10
I3
sg11
(imyEvolve
Tree
p333
(dp334
g7
(imyEvolve
Tree
p335
(dp336
g7
(imyEvolve
Tree
p337
(dp338
g10
I0
sg14
I00
sbsg10
I1
sg19
I01
sg20
g29
sbsg10
I2
sg19
I01
sg20
g59
sbsg15
(imyEvolve
Tree
p339
(dp340
g7
(imyEvolve
Tree
p341
(dp342
g10
I1
sg11
(imyEvolve
Tree
p343
(dp344
g10
I0
sg18
F-4.872050072609443
sg14
I01
sbsg15
(imyEvolve
Tree
p345
(dp346
g10
I0
sg14
I00
sbsg19
I00
sg20
g58
sbsg10
I2
sg19
I01
sg20
g29
sbsg19
I00
sg20
g58
sba(imyEvolve
Tree
p347
(dp348
g7
(imyEvolve
Tree
p349
(dp350
g7
(imyEvolve
Tree
p351
(dp352
g7
(imyEvolve
Tree
p353
(dp354
g10
I2
sg11
(imyEvolve
Tree
p355
(dp356
g7
(imyEvolve
Tree
p357
(dp358
g10
I0
sg18
F2.3249739018366338
sg14
I01
sbsg10
I1
sg19
I01
sg20
g59
sbsg15
(imyEvolve
Tree
p359
(dp360
g7
(imyEvolve
Tree
p361
(dp362
g10
I0
sg18
F1.0131986162427733
sg14
I01
sbsg10
I1
sg19
I01
sg20
g22
sbsg19
I00
sg20
g58
sbsg10
I3
sg19
I01
sg20
g22
sbsg10
I4
sg19
I01
sg20
g59
sbsg10
I5
sg19
I01
sg20
g29
sba(imyEvolve
Tree
p363
(dp364
g10
I4
sg11
(imyEvolve
Tree
p365
(dp366
g7
(imyEvolve
Tree
p367
(dp368
g7
(imyEvolve
Tree
p369
(dp370
g10
I1
sg11
(imyEvolve
Tree
p371
(dp372
g10
I0
sg18
F-4.23916061137906
sg14
I01
sbsg15
(imyEvolve
Tree
p373
(dp374
g10
I0
sg18
F3.756347894413567
sg14
I01
sbsg19
I00
sg20
g21
sbsg10
I2
sg19
I01
sg20
g22
sbsg10
I3
sg19
I01
sg20
g29
sbsg15
(imyEvolve
Tree
p375
(dp376
g7
(imyEvolve
Tree
p377
(dp378
g7
(imyEvolve
Tree
p379
(dp380
g10
I1
sg11
(imyEvolve
Tree
p381
(dp382
g10
I0
sg14
I00
sbsg15
(imyEvolve
Tree
p383
(dp384
g10
I0
sg14
I00
sbsg19
I00
sg20
g21
sbsg10
I2
sg19
I01
sg20
g59
sbsg10
I3
sg19
I01
sg20
g30
sbsg19
I00
sg20
g58
sba(imyEvolve
Tree
p385
(dp386
g7
(imyEvolve
Tree
p387
(dp388
g10
I2
sg11
(imyEvolve
Tree
p389
(dp390
g7
(imyEvolve
Tree
p391
(dp392
g10
I0
sg14
I00
sbsg10
I1
sg19
I01
sg20
g22
sbsg15
(imyEvolve
Tree
p393
(dp394
g10
I1
sg11
(imyEvolve
Tree
p395
(dp396
g10
I0
sg14
I00
sbsg15
(imyEvolve
Tree
p397
(dp398
g10
I0
sg14
I00
sbsg19
I00
sg20
g58
sbsg19
I00
sg20
g58
sbsg10
I3
sg19
I01
sg20
g22
sba(imyEvolve
Tree
p399
(dp400
g10
I5
sg11
(imyEvolve
Tree
p401
(dp402
g7
(imyEvolve
Tree
p403
(dp404
g10
I3
sg11
(imyEvolve
Tree
p405
(dp406
g7
(imyEvolve
Tree
p407
(dp408
g10
I1
sg11
(imyEvolve
Tree
p409
(dp410
g10
I0
sg18
F-3.466281437238894
sg14
I01
sbsg15
(imyEvolve
Tree
p411
(dp412
g10
I0
sg14
I00
sbsg19
I00
sg20
g21
sbsg10
I2
sg19
I01
sg20
g30
sbsg15
(imyEvolve
Tree
p413
(dp414
g7
(imyEvolve
Tree
p415
(dp416
g10
I1
sg11
(imyEvolve
Tree
p417
(dp418
g10
I0
sg18
F-4.789392110940468
sg14
I01
sbsg15
(imyEvolve
Tree
p419
(dp420
g10
I0
sg18
F0.9659979600743815
sg14
I01
sbsg19
I00
sg20
g58
sbsg10
I2
sg19
I01
sg20
g59
sbsg19
I00
sg20
g21
sbsg10
I4
sg19
I01
sg20
g30
sbsg15
(imyEvolve
Tree
p421
(dp422
g10
I4
sg11
(imyEvolve
Tree
p423
(dp424
g7
(imyEvolve
Tree
p425
(dp426
g7
(imyEvolve
Tree
p427
(dp428
g10
I1
sg11
(imyEvolve
Tree
p429
(dp430
g10
I0
sg18
F0.6548181415015222
sg14
I01
sbsg15
(imyEvolve
Tree
p431
(dp432
g10
I0
sg18
F2.1542915441732795
sg14
I01
sbsg19
I00
sg20
g53
sbsg10
I2
sg19
I01
sg20
g22
sbsg10
I3
sg19
I01
sg20
g22
sbsg15
(imyEvolve
Tree
p433
(dp434
g10
I3
sg11
(imyEvolve
Tree
p435
(dp436
g10
I2
sg11
(imyEvolve
Tree
p437
(dp438
g10
I1
sg11
(imyEvolve
Tree
p439
(dp440
g10
I0
sg14
I00
sbsg15
(imyEvolve
Tree
p441
(dp442
g10
I0
sg18
F-3.8867411139870933
sg14
I01
sbsg19
I00
sg20
g21
sbsg15
(imyEvolve
Tree
p443
(dp444
g10
I1
sg11
(imyEvolve
Tree
p445
(dp446
g10
I0
sg18
F-1.2966635838221894
sg14
I01
sbsg15
(imyEvolve
Tree
p447
(dp448
g10
I0
sg18
F-0.5721042493927193
sg14
I01
sbsg19
I00
sg20
g53
sbsg19
I00
sg20
g58
sbsg15
(imyEvolve
Tree
p449
(dp450
g10
I2
sg11
(imyEvolve
Tree
p451
(dp452
g7
(imyEvolve
Tree
p453
(dp454
g10
I0
sg18
F0.2928874552956726
sg14
I01
sbsg10
I1
sg19
I01
sg20
g22
sbsg15
(imyEvolve
Tree
p455
(dp456
g10
I1
sg11
(imyEvolve
Tree
p457
(dp458
g10
I0
sg18
F3.0197182561103535
sg14
I01
sbsg15
(imyEvolve
Tree
p459
(dp460
g10
I0
sg18
F2.5365219892113986
sg14
I01
sbsg19
I00
sg20
g21
sbsg19
I00
sg20
g21
sbsg19
I00
sg20
g58
sbsg19
I00
sg20
g58
sbsg19
I00
sg20
g53
sba(imyEvolve
Tree
p461
(dp462
g7
(imyEvolve
Tree
p463
(dp464
g7
(imyEvolve
Tree
p465
(dp466
g7
(imyEvolve
Tree
p467
(dp468
g10
I0
sg14
I00
sbsg10
I1
sg19
I01
sg20
g29
sbsg10
I2
sg19
I01
sg20
g59
sbsg10
I3
sg19
I01
sg20
g22
sba(imyEvolve
Tree
p469
(dp470
g10
I2
sg11
(imyEvolve
Tree
p471
(dp472
g7
(imyEvolve
Tree
p473
(dp474
g10
I0
sg18
F-0.8130004752418181
sg14
I01
sbsg10
I1
sg19
I01
sg20
g22
sbsg15
(imyEvolve
Tree
p475
(dp476
g10
I1
sg11
(imyEvolve
Tree
p477
(dp478
g10
I0
sg18
F4.869727490325651
sg14
I01
sbsg15
(imyEvolve
Tree
p479
(dp480
g10
I0
sg14
I00
sbsg19
I00
sg20
g58
sbsg19
I00
sg20
g58
sba(imyEvolve
Tree
p481
(dp482
g10
I3
sg11
(imyEvolve
Tree
p483
(dp484
g7
(imyEvolve
Tree
p485
(dp486
g7
(imyEvolve
Tree
p487
(dp488
g10
I0
sg14
I00
sbsg10
I1
sg19
I01
sg20
g59
sbsg10
I2
sg19
I01
sg20
g29
sbsg15
(imyEvolve
Tree
p489
(dp490
g7
(imyEvolve
Tree
p491
(dp492
g10
I1
sg11
(imyEvolve
Tree
p493
(dp494
g10
I0
sg14
I00
sbsg15
(imyEvolve
Tree
p495
(dp496
g10
I0
sg14
I00
sbsg19
I00
sg20
g21
sbsg10
I2
sg19
I01
sg20
g30
sbsg19
I00
sg20
g21
sbaasS'weightSharing'
p497
(lp498
I00
aI00
asS'fitnessValid'
p499
I00
sS'fitness'
p500
cnumpy.core.multiarray
scalar
p501
(cnumpy
dtype
p502
(S'f8'
p503
I0
I1
tp504
Rp505
(I3
S'<'
p506
NNNI-1
I-1
I0
tp507
bS'\x00\x92\xcb\x7f\x00-T?'
p508
tp509
Rp510
sS'alpha'
p511
F0.0055192484733377215
sS'resolution'
p512
I66
sb.