(imyEvolve
Individual
p0
(dp1
S'funcs'
p2
(lp3
(lp4
(imyEvolve
Tree
p5
(dp6
S'depth'
p7
I3
sS'left'
p8
(imyEvolve
Tree
p9
(dp10
S'below'
p11
(imyEvolve
Tree
p12
(dp13
g11
(imyEvolve
Tree
p14
(dp15
g7
I0
sS'constant'
p16
F-4.7974980055207315
sS'isConstant'
p17
I01
sbsg7
I1
sS'single'
p18
I01
sS'op'
p19
cmath
cos
p20
sbsg7
I2
sg18
I01
sg19
cmyEvolve
square
p21
sbsS'right'
p22
(imyEvolve
Tree
p23
(dp24
g11
(imyEvolve
Tree
p25
(dp26
g11
(imyEvolve
Tree
p27
(dp28
g7
I0
sg17
I00
sbsg7
I1
sg18
I01
sg19
cmyEvolve
absSqrt
p29
sbsg7
I2
sg18
I01
sg19
cmath
sin
p30
sbsg18
I00
sg19
coperator
add
p31
sba(imyEvolve
Tree
p32
(dp33
g11
(imyEvolve
Tree
p34
(dp35
g11
(imyEvolve
Tree
p36
(dp37
g7
I1
sg8
(imyEvolve
Tree
p38
(dp39
g7
I0
sg16
F3.3786013016253396
sg17
I01
sbsg22
(imyEvolve
Tree
p40
(dp41
g7
I0
sg17
I00
sbsg18
I00
sg19
g31
sbsg7
I2
sg18
I01
sg19
g30
sbsg7
I3
sg18
I01
sg19
g30
sba(imyEvolve
Tree
p42
(dp43
g7
I3
sg8
(imyEvolve
Tree
p44
(dp45
g11
(imyEvolve
Tree
p46
(dp47
g11
(imyEvolve
Tree
p48
(dp49
g7
I0
sg16
F-0.8330815688729007
sg17
I01
sbsg7
I1
sg18
I01
sg19
g21
sbsg7
I2
sg18
I01
sg19
g30
sbsg22
(imyEvolve
Tree
p50
(dp51
g7
I2
sg8
(imyEvolve
Tree
p52
(dp53
g11
(imyEvolve
Tree
p54
(dp55
g7
I0
sg17
I00
sbsg7
I1
sg18
I01
sg19
g30
sbsg22
(imyEvolve
Tree
p56
(dp57
g11
(imyEvolve
Tree
p58
(dp59
g7
I0
sg16
F0.43030693960972144
sg17
I01
sbsg7
I1
sg18
I01
sg19
g20
sbsg18
I00
sg19
g31
sbsg18
I00
sg19
g31
sba(imyEvolve
Tree
p60
(dp61
g11
(imyEvolve
Tree
p62
(dp63
g11
(imyEvolve
Tree
p64
(dp65
g11
(imyEvolve
Tree
p66
(dp67
g7
I1
sg8
(imyEvolve
Tree
p68
(dp69
g7
I0
sg16
F0.30772806360927873
sg17
I01
sbsg22
(imyEvolve
Tree
p70
(dp71
g7
I0
sg16
F-2.84914368609262
sg17
I01
sbsg18
I00
sg19
coperator
sub
p72
sbsg7
I2
sg18
I01
sg19
g29
sbsg7
I3
sg18
I01
sg19
g20
sbsg7
I4
sg18
I01
sg19
g29
sba(imyEvolve
Tree
p73
(dp74
g7
I5
sg8
(imyEvolve
Tree
p75
(dp76
g11
(imyEvolve
Tree
p77
(dp78
g11
(imyEvolve
Tree
p79
(dp80
g7
I2
sg8
(imyEvolve
Tree
p81
(dp82
g7
I1
sg8
(imyEvolve
Tree
p83
(dp84
g7
I0
sg17
I00
sbsg22
(imyEvolve
Tree
p85
(dp86
g7
I0
sg16
F3.508575355806526
sg17
I01
sbsg18
I00
sg19
coperator
mul
p87
sbsg22
(imyEvolve
Tree
p88
(dp89
g11
(imyEvolve
Tree
p90
(dp91
g7
I0
sg16
F3.6245653351072953
sg17
I01
sbsg7
I1
sg18
I01
sg19
g29
sbsg18
I00
sg19
g31
sbsg7
I3
sg18
I01
sg19
g30
sbsg7
I4
sg18
I01
sg19
g20
sbsg22
(imyEvolve
Tree
p92
(dp93
g11
(imyEvolve
Tree
p94
(dp95
g11
(imyEvolve
Tree
p96
(dp97
g7
I2
sg8
(imyEvolve
Tree
p98
(dp99
g11
(imyEvolve
Tree
p100
(dp101
g7
I0
sg16
F4.1238316312028225
sg17
I01
sbsg7
I1
sg18
I01
sg19
g20
sbsg22
(imyEvolve
Tree
p102
(dp103
g11
(imyEvolve
Tree
p104
(dp105
g7
I0
sg16
F4.413113069992072
sg17
I01
sbsg7
I1
sg18
I01
sg19
g30
sbsg18
I00
sg19
g72
sbsg7
I3
sg18
I01
sg19
g29
sbsg7
I4
sg18
I01
sg19
g20
sbsg18
I00
sg19
g87
sba(imyEvolve
Tree
p106
(dp107
g7
I4
sg8
(imyEvolve
Tree
p108
(dp109
g11
(imyEvolve
Tree
p110
(dp111
g11
(imyEvolve
Tree
p112
(dp113
g7
I1
sg8
(imyEvolve
Tree
p114
(dp115
g7
I0
sg17
I00
sbsg22
(imyEvolve
Tree
p116
(dp117
g7
I0
sg16
F2.8026338679308793
sg17
I01
sbsg18
I00
sg19
g31
sbsg7
I2
sg18
I01
sg19
g20
sbsg7
I3
sg18
I01
sg19
g21
sbsg22
(imyEvolve
Tree
p118
(dp119
g11
(imyEvolve
Tree
p120
(dp121
g11
(imyEvolve
Tree
p122
(dp123
g7
I1
sg8
(imyEvolve
Tree
p124
(dp125
g7
I0
sg16
F0.12526214941683733
sg17
I01
sbsg22
(imyEvolve
Tree
p126
(dp127
g7
I0
sg17
I00
sbsg18
I00
sg19
g87
sbsg7
I2
sg18
I01
sg19
g30
sbsg7
I3
sg18
I01
sg19
g20
sbsg18
I00
sg19
g72
sba(imyEvolve
Tree
p128
(dp129
g11
(imyEvolve
Tree
p130
(dp131
g7
I3
sg8
(imyEvolve
Tree
p132
(dp133
g11
(imyEvolve
Tree
p134
(dp135
g11
(imyEvolve
Tree
p136
(dp137
g7
I0
sg16
F1.8247965091094294
sg17
I01
sbsg7
I1
sg18
I01
sg19
g21
sbsg7
I2
sg18
I01
sg19
g29
sbsg22
(imyEvolve
Tree
p138
(dp139
g11
(imyEvolve
Tree
p140
(dp141
g7
I1
sg8
(imyEvolve
Tree
p142
(dp143
g7
I0
sg17
I00
sbsg22
(imyEvolve
Tree
p144
(dp145
g7
I0
sg16
F1.7691585344300185
sg17
I01
sbsg18
I00
sg19
g31
sbsg7
I2
sg18
I01
sg19
g30
sbsg18
I00
sg19
g72
sbsg7
I4
sg18
I01
sg19
g30
sba(imyEvolve
Tree
p146
(dp147
g7
I4
sg8
(imyEvolve
Tree
p148
(dp149
g11
(imyEvolve
Tree
p150
(dp151
g7
I2
sg8
(imyEvolve
Tree
p152
(dp153
g7
I1
sg8
(imyEvolve
Tree
p154
(dp155
g7
I0
sg17
I00
sbsg22
(imyEvolve
Tree
p156
(dp157
g7
I0
sg16
F-3.1076122771617634
sg17
I01
sbsg18
I00
sg19
g72
sbsg22
(imyEvolve
Tree
p158
(dp159
g7
I1
sg8
(imyEvolve
Tree
p160
(dp161
g7
I0
sg16
F4.833705015609581
sg17
I01
sbsg22
(imyEvolve
Tree
p162
(dp163
g7
I0
sg17
I00
sbsg18
I00
sg19
g72
sbsg18
I00
sg19
g72
sbsg7
I3
sg18
I01
sg19
g30
sbsg22
(imyEvolve
Tree
p164
(dp165
g7
I3
sg8
(imyEvolve
Tree
p166
(dp167
g7
I2
sg8
(imyEvolve
Tree
p168
(dp169
g11
(imyEvolve
Tree
p170
(dp171
g7
I0
sg16
F-0.16114878672643407
sg17
I01
sbsg7
I1
sg18
I01
sg19
g29
sbsg22
(imyEvolve
Tree
p172
(dp173
g7
I1
sg8
(imyEvolve
Tree
p174
(dp175
g7
I0
sg16
F1.5839895719505073
sg17
I01
sbsg22
(imyEvolve
Tree
p176
(dp177
g7
I0
sg16
F-1.954138278100471
sg17
I01
sbsg18
I00
sg19
g72
sbsg18
I00
sg19
g87
sbsg22
(imyEvolve
Tree
p178
(dp179
g11
(imyEvolve
Tree
p180
(dp181
g7
I1
sg8
(imyEvolve
Tree
p182
(dp183
g7
I0
sg16
F2.7799326736346464
sg17
I01
sbsg22
(imyEvolve
Tree
p184
(dp185
g7
I0
sg16
F-3.121043507921307
sg17
I01
sbsg18
I00
sg19
g31
sbsg7
I2
sg18
I01
sg19
g30
sbsg18
I00
sg19
g31
sbsg18
I00
sg19
g31
sba(imyEvolve
Tree
p186
(dp187
g7
I2
sg8
(imyEvolve
Tree
p188
(dp189
g11
(imyEvolve
Tree
p190
(dp191
g7
I0
sg16
F-3.36667163016231
sg17
I01
sbsg7
I1
sg18
I01
sg19
g21
sbsg22
(imyEvolve
Tree
p192
(dp193
g7
I1
sg8
(imyEvolve
Tree
p194
(dp195
g7
I0
sg16
F1.7019673809839375
sg17
I01
sbsg22
(imyEvolve
Tree
p196
(dp197
g7
I0
sg16
F-3.5002657923470837
sg17
I01
sbsg18
I00
sg19
g87
sbsg18
I00
sg19
g31
sba(imyEvolve
Tree
p198
(dp199
g7
I5
sg8
(imyEvolve
Tree
p200
(dp201
g11
(imyEvolve
Tree
p202
(dp203
g11
(imyEvolve
Tree
p204
(dp205
g11
(imyEvolve
Tree
p206
(dp207
g11
(imyEvolve
Tree
p208
(dp209
g7
I0
sg17
I00
sbsg7
I1
sg18
I01
sg19
g29
sbsg7
I2
sg18
I01
sg19
g20
sbsg7
I3
sg18
I01
sg19
g29
sbsg7
I4
sg18
I01
sg19
g30
sbsg22
(imyEvolve
Tree
p210
(dp211
g7
I4
sg8
(imyEvolve
Tree
p212
(dp213
g11
(imyEvolve
Tree
p214
(dp215
g11
(imyEvolve
Tree
p216
(dp217
g7
I1
sg8
(imyEvolve
Tree
p218
(dp219
g7
I0
sg17
I00
sbsg22
(imyEvolve
Tree
p220
(dp221
g7
I0
sg17
I00
sbsg18
I00
sg19
g72
sbsg7
I2
sg18
I01
sg19
g30
sbsg7
I3
sg18
I01
sg19
g20
sbsg22
(imyEvolve
Tree
p222
(dp223
g11
(imyEvolve
Tree
p224
(dp225
g7
I2
sg8
(imyEvolve
Tree
p226
(dp227
g11
(imyEvolve
Tree
p228
(dp229
g7
I0
sg17
I00
sbsg7
I1
sg18
I01
sg19
g21
sbsg22
(imyEvolve
Tree
p230
(dp231
g11
(imyEvolve
Tree
p232
(dp233
g7
I0
sg16
F-0.23164368304816296
sg17
I01
sbsg7
I1
sg18
I01
sg19
g30
sbsg18
I00
sg19
g31
sbsg7
I3
sg18
I01
sg19
g29
sbsg18
I00
sg19
g72
sbsg18
I00
sg19
g72
sba(imyEvolve
Tree
p234
(dp235
g7
I5
sg8
(imyEvolve
Tree
p236
(dp237
g7
I4
sg8
(imyEvolve
Tree
p238
(dp239
g7
I3
sg8
(imyEvolve
Tree
p240
(dp241
g11
(imyEvolve
Tree
p242
(dp243
g7
I1
sg8
(imyEvolve
Tree
p244
(dp245
g7
I0
sg17
I00
sbsg22
(imyEvolve
Tree
p246
(dp247
g7
I0
sg17
I00
sbsg18
I00
sg19
g72
sbsg7
I2
sg18
I01
sg19
g20
sbsg22
(imyEvolve
Tree
p248
(dp249
g11
(imyEvolve
Tree
p250
(dp251
g11
(imyEvolve
Tree
p252
(dp253
g7
I0
sg17
I00
sbsg7
I1
sg18
I01
sg19
g21
sbsg7
I2
sg18
I01
sg19
g20
sbsg18
I00
sg19
g31
sbsg22
(imyEvolve
Tree
p254
(dp255
g7
I3
sg8
(imyEvolve
Tree
p256
(dp257
g11
(imyEvolve
Tree
p258
(dp259
g7
I1
sg8
(imyEvolve
Tree
p260
(dp261
g7
I0
sg16
F4.445151953304213
sg17
I01
sbsg22
(imyEvolve
Tree
p262
(dp263
g7
I0
sg17
I00
sbsg18
I00
sg19
g72
sbsg7
I2
sg18
I01
sg19
g29
sbsg22
(imyEvolve
Tree
p264
(dp265
g7
I2
sg8
(imyEvolve
Tree
p266
(dp267
g11
(imyEvolve
Tree
p268
(dp269
g7
I0
sg17
I00
sbsg7
I1
sg18
I01
sg19
g29
sbsg22
(imyEvolve
Tree
p270
(dp271
g7
I1
sg8
(imyEvolve
Tree
p272
(dp273
g7
I0
sg17
I00
sbsg22
(imyEvolve
Tree
p274
(dp275
g7
I0
sg17
I00
sbsg18
I00
sg19
g31
sbsg18
I00
sg19
g31
sbsg18
I00
sg19
g72
sbsg18
I00
sg19
g87
sbsg22
(imyEvolve
Tree
p276
(dp277
g7
I4
sg8
(imyEvolve
Tree
p278
(dp279
g11
(imyEvolve
Tree
p280
(dp281
g11
(imyEvolve
Tree
p282
(dp283
g11
(imyEvolve
Tree
p284
(dp285
g7
I0
sg17
I00
sbsg7
I1
sg18
I01
sg19
g21
sbsg7
I2
sg18
I01
sg19
g29
sbsg7
I3
sg18
I01
sg19
g20
sbsg22
(imyEvolve
Tree
p286
(dp287
g7
I3
sg8
(imyEvolve
Tree
p288
(dp289
g7
I2
sg8
(imyEvolve
Tree
p290
(dp291
g11
(imyEvolve
Tree
p292
(dp293
g7
I0
sg16
F0.5544255179239865
sg17
I01
sbsg7
I1
sg18
I01
sg19
g30
sbsg22
(imyEvolve
Tree
p294
(dp295
g11
(imyEvolve
Tree
p296
(dp297
g7
I0
sg16
F3.526812880437939
sg17
I01
sbsg7
I1
sg18
I01
sg19
g30
sbsg18
I00
sg19
g31
sbsg22
(imyEvolve
Tree
p298
(dp299
g11
(imyEvolve
Tree
p300
(dp301
g7
I1
sg8
(imyEvolve
Tree
p302
(dp303
g7
I0
sg17
I00
sbsg22
(imyEvolve
Tree
p304
(dp305
g7
I0
sg17
I00
sbsg18
I00
sg19
g31
sbsg7
I2
sg18
I01
sg19
g30
sbsg18
I00
sg19
g31
sbsg18
I00
sg19
g87
sbsg18
I00
sg19
g87
sba(imyEvolve
Tree
p306
(dp307
g7
I5
sg8
(imyEvolve
Tree
p308
(dp309
g7
I4
sg8
(imyEvolve
Tree
p310
(dp311
g7
I3
sg8
(imyEvolve
Tree
p312
(dp313
g11
(imyEvolve
Tree
p314
(dp315
g11
(imyEvolve
Tree
p316
(dp317
g7
I0
sg17
I00
sbsg7
I1
sg18
I01
sg19
g20
sbsg7
I2
sg18
I01
sg19
g29
sbsg22
(imyEvolve
Tree
p318
(dp319
g7
I2
sg8
(imyEvolve
Tree
p320
(dp321
g7
I1
sg8
(imyEvolve
Tree
p322
(dp323
g7
I0
sg16
F2.9121898899312715
sg17
I01
sbsg22
(imyEvolve
Tree
p324
(dp325
g7
I0
sg17
I00
sbsg18
I00
sg19
g87
sbsg22
(imyEvolve
Tree
p326
(dp327
g7
I1
sg8
(imyEvolve
Tree
p328
(dp329
g7
I0
sg16
F4.482424301516426
sg17
I01
sbsg22
(imyEvolve
Tree
p330
(dp331
g7
I0
sg17
I00
sbsg18
I00
sg19
g31
sbsg18
I00
sg19
g31
sbsg18
I00
sg19
g87
sbsg22
(imyEvolve
Tree
p332
(dp333
g11
(imyEvolve
Tree
p334
(dp335
g11
(imyEvolve
Tree
p336
(dp337
g11
(imyEvolve
Tree
p338
(dp339
g7
I0
sg17
I00
sbsg7
I1
sg18
I01
sg19
g21
sbsg7
I2
sg18
I01
sg19
g30
sbsg7
I3
sg18
I01
sg19
g20
sbsg18
I00
sg19
g31
sbsg22
(imyEvolve
Tree
p340
(dp341
g7
I4
sg8
(imyEvolve
Tree
p342
(dp343
g11
(imyEvolve
Tree
p344
(dp345
g11
(imyEvolve
Tree
p346
(dp347
g11
(imyEvolve
Tree
p348
(dp349
g7
I0
sg16
F2.672941128215359
sg17
I01
sbsg7
I1
sg18
I01
sg19
g20
sbsg7
I2
sg18
I01
sg19
g21
sbsg7
I3
sg18
I01
sg19
g21
sbsg22
(imyEvolve
Tree
p350
(dp351
g7
I3
sg8
(imyEvolve
Tree
p352
(dp353
g7
I2
sg8
(imyEvolve
Tree
p354
(dp355
g7
I1
sg8
(imyEvolve
Tree
p356
(dp357
g7
I0
sg16
F1.7072859474678221
sg17
I01
sbsg22
(imyEvolve
Tree
p358
(dp359
g7
I0
sg16
F3.9390389746010825
sg17
I01
sbsg18
I00
sg19
g87
sbsg22
(imyEvolve
Tree
p360
(dp361
g11
(imyEvolve
Tree
p362
(dp363
g7
I0
sg16
F-1.4357682049523337
sg17
I01
sbsg7
I1
sg18
I01
sg19
g20
sbsg18
I00
sg19
g72
sbsg22
(imyEvolve
Tree
p364
(dp365
g7
I2
sg8
(imyEvolve
Tree
p366
(dp367
g7
I1
sg8
(imyEvolve
Tree
p368
(dp369
g7
I0
sg16
F-4.879698432292826
sg17
I01
sbsg22
(imyEvolve
Tree
p370
(dp371
g7
I0
sg17
I00
sbsg18
I00
sg19
g87
sbsg22
(imyEvolve
Tree
p372
(dp373
g11
(imyEvolve
Tree
p374
(dp375
g7
I0
sg16
F4.585467715636339
sg17
I01
sbsg7
I1
sg18
I01
sg19
g30
sbsg18
I00
sg19
g31
sbsg18
I00
sg19
g87
sbsg18
I00
sg19
g31
sbsg18
I00
sg19
g72
sba(imyEvolve
Tree
p376
(dp377
g11
(imyEvolve
Tree
p378
(dp379
g7
I2
sg8
(imyEvolve
Tree
p380
(dp381
g11
(imyEvolve
Tree
p382
(dp383
g7
I0
sg17
I00
sbsg7
I1
sg18
I01
sg19
g20
sbsg22
(imyEvolve
Tree
p384
(dp385
g11
(imyEvolve
Tree
p386
(dp387
g7
I0
sg17
I00
sbsg7
I1
sg18
I01
sg19
g30
sbsg18
I00
sg19
g87
sbsg7
I3
sg18
I01
sg19
g29
sba(imyEvolve
Tree
p388
(dp389
g11
(imyEvolve
Tree
p390
(dp391
g11
(imyEvolve
Tree
p392
(dp393
g11
(imyEvolve
Tree
p394
(dp395
g7
I0
sg17
I00
sbsg7
I1
sg18
I01
sg19
g21
sbsg7
I2
sg18
I01
sg19
g20
sbsg7
I3
sg18
I01
sg19
g29
sbaa(lp396
(imyEvolve
Tree
p397
(dp398
g11
(imyEvolve
Tree
p399
(dp400
g11
(imyEvolve
Tree
p401
(dp402
g11
(imyEvolve
Tree
p403
(dp404
g7
I1
sg8
(imyEvolve
Tree
p405
(dp406
g7
I0
sg16
F3.0215497638496984
sg17
I01
sbsg22
(imyEvolve
Tree
p407
(dp408
g7
I0
sg17
I00
sbsg18
I00
sg19
g31
sbsg7
I2
sg18
I01
sg19
g29
sbsg7
I3
sg18
I01
sg19
g20
sbsg7
I4
sg18
I01
sg19
g21
sba(imyEvolve
Tree
p409
(dp410
g7
I2
sg8
(imyEvolve
Tree
p411
(dp412
g7
I1
sg8
(imyEvolve
Tree
p413
(dp414
g7
I0
sg17
I00
sbsg22
(imyEvolve
Tree
p415
(dp416
g7
I0
sg16
F1.7359743240409138
sg17
I01
sbsg18
I00
sg19
g87
sbsg22
(imyEvolve
Tree
p417
(dp418
g11
(imyEvolve
Tree
p419
(dp420
g7
I0
sg17
I00
sbsg7
I1
sg18
I01
sg19
g30
sbsg18
I00
sg19
g87
sba(imyEvolve
Tree
p421
(dp422
g11
(imyEvolve
Tree
p423
(dp424
g11
(imyEvolve
Tree
p425
(dp426
g7
I0
sg16
F-0.5426677091768131
sg17
I01
sbsg7
I1
sg18
I01
sg19
g29
sbsg7
I2
sg18
I01
sg19
g20
sba(imyEvolve
Tree
p427
(dp428
g7
I3
sg8
(imyEvolve
Tree
p429
(dp430
g11
(imyEvolve
Tree
p431
(dp432
g7
I1
sg8
(imyEvolve
Tree
p433
(dp434
g7
I0
sg16
F-3.771852229506459
sg17
I01
sbsg22
(imyEvolve
Tree
p435
(dp436
g7
I0
sg16
F-2.3882806443286295
sg17
I01
sbsg18
I00
sg19
g72
sbsg7
I2
sg18
I01
sg19
g21
sbsg22
(imyEvolve
Tree
p437
(dp438
g7
I2
sg8
(imyEvolve
Tree
p439
(dp440
g7
I1
sg8
(imyEvolve
Tree
p441
(dp442
g7
I0
sg16
F4.938535812753329
sg17
I01
sbsg22
(imyEvolve
Tree
p443
(dp444
g7
I0
sg16
F0.7757289900431505
sg17
I01
sbsg18
I00
sg19
g72
sbsg22
(imyEvolve
Tree
p445
(dp446
g7
I1
sg8
(imyEvolve
Tree
p447
(dp448
g7
I0
sg16
F-3.9736833769957993
sg17
I01
sbsg22
(imyEvolve
Tree
p449
(dp450
g7
I0
sg16
F0.3291465993752585
sg17
I01
sbsg18
I00
sg19
g72
sbsg18
I00
sg19
g87
sbsg18
I00
sg19
g72
sba(imyEvolve
Tree
p451
(dp452
g7
I5
sg8
(imyEvolve
Tree
p453
(dp454
g11
(imyEvolve
Tree
p455
(dp456
g7
I3
sg8
(imyEvolve
Tree
p457
(dp458
g7
I2
sg8
(imyEvolve
Tree
p459
(dp460
g7
I1
sg8
(imyEvolve
Tree
p461
(dp462
g7
I0
sg16
F-3.053312919927663
sg17
I01
sbsg22
(imyEvolve
Tree
p463
(dp464
g7
I0
sg17
I00
sbsg18
I00
sg19
g72
sbsg22
(imyEvolve
Tree
p465
(dp466
g7
I1
sg8
(imyEvolve
Tree
p467
(dp468
g7
I0
sg16
F2.3163071941520297
sg17
I01
sbsg22
(imyEvolve
Tree
p469
(dp470
g7
I0
sg17
I00
sbsg18
I00
sg19
g72
sbsg18
I00
sg19
g31
sbsg22
(imyEvolve
Tree
p471
(dp472
g11
(imyEvolve
Tree
p473
(dp474
g11
(imyEvolve
Tree
p475
(dp476
g7
I0
sg16
F-0.5323773074233431
sg17
I01
sbsg7
I1
sg18
I01
sg19
g29
sbsg7
I2
sg18
I01
sg19
g29
sbsg18
I00
sg19
g72
sbsg7
I4
sg18
I01
sg19
g20
sbsg22
(imyEvolve
Tree
p477
(dp478
g11
(imyEvolve
Tree
p479
(dp480
g11
(imyEvolve
Tree
p481
(dp482
g7
I2
sg8
(imyEvolve
Tree
p483
(dp484
g11
(imyEvolve
Tree
p485
(dp486
g7
I0
sg17
I00
sbsg7
I1
sg18
I01
sg19
g29
sbsg22
(imyEvolve
Tree
p487
(dp488
g7
I1
sg8
(imyEvolve
Tree
p489
(dp490
g7
I0
sg16
F0.7619137614025338
sg17
I01
sbsg22
(imyEvolve
Tree
p491
(dp492
g7
I0
sg17
I00
sbsg18
I00
sg19
g87
sbsg18
I00
sg19
g31
sbsg7
I3
sg18
I01
sg19
g29
sbsg7
I4
sg18
I01
sg19
g29
sbsg18
I00
sg19
g87
sba(imyEvolve
Tree
p493
(dp494
g7
I4
sg8
(imyEvolve
Tree
p495
(dp496
g7
I3
sg8
(imyEvolve
Tree
p497
(dp498
g7
I2
sg8
(imyEvolve
Tree
p499
(dp500
g11
(imyEvolve
Tree
p501
(dp502
g7
I0
sg16
F-3.057392623866387
sg17
I01
sbsg7
I1
sg18
I01
sg19
g30
sbsg22
(imyEvolve
Tree
p503
(dp504
g11
(imyEvolve
Tree
p505
(dp506
g7
I0
sg16
F1.2993190936062593
sg17
I01
sbsg7
I1
sg18
I01
sg19
g29
sbsg18
I00
sg19
g72
sbsg22
(imyEvolve
Tree
p507
(dp508
g7
I2
sg8
(imyEvolve
Tree
p509
(dp510
g11
(imyEvolve
Tree
p511
(dp512
g7
I0
sg16
F-0.799474400254562
sg17
I01
sbsg7
I1
sg18
I01
sg19
g29
sbsg22
(imyEvolve
Tree
p513
(dp514
g7
I1
sg8
(imyEvolve
Tree
p515
(dp516
g7
I0
sg16
F0.08384118253128658
sg17
I01
sbsg22
(imyEvolve
Tree
p517
(dp518
g7
I0
sg16
F4.751288861254169
sg17
I01
sbsg18
I00
sg19
g31
sbsg18
I00
sg19
g72
sbsg18
I00
sg19
g72
sbsg22
(imyEvolve
Tree
p519
(dp520
g11
(imyEvolve
Tree
p521
(dp522
g11
(imyEvolve
Tree
p523
(dp524
g7
I1
sg8
(imyEvolve
Tree
p525
(dp526
g7
I0
sg16
F-4.868022672591574
sg17
I01
sbsg22
(imyEvolve
Tree
p527
(dp528
g7
I0
sg17
I00
sbsg18
I00
sg19
g87
sbsg7
I2
sg18
I01
sg19
g21
sbsg7
I3
sg18
I01
sg19
g30
sbsg18
I00
sg19
g87
sba(imyEvolve
Tree
p529
(dp530
g7
I2
sg8
(imyEvolve
Tree
p531
(dp532
g7
I1
sg8
(imyEvolve
Tree
p533
(dp534
g7
I0
sg16
F-0.8441444697119991
sg17
I01
sbsg22
(imyEvolve
Tree
p535
(dp536
g7
I0
sg17
I00
sbsg18
I00
sg19
g87
sbsg22
(imyEvolve
Tree
p537
(dp538
g11
(imyEvolve
Tree
p539
(dp540
g7
I0
sg17
I00
sbsg7
I1
sg18
I01
sg19
g30
sbsg18
I00
sg19
g72
sba(imyEvolve
Tree
p541
(dp542
g7
I2
sg8
(imyEvolve
Tree
p543
(dp544
g11
(imyEvolve
Tree
p545
(dp546
g7
I0
sg16
F-1.9816542886468271
sg17
I01
sbsg7
I1
sg18
I01
sg19
g21
sbsg22
(imyEvolve
Tree
p547
(dp548
g7
I1
sg8
(imyEvolve
Tree
p549
(dp550
g7
I0
sg16
F2.021745596556209
sg17
I01
sbsg22
(imyEvolve
Tree
p551
(dp552
g7
I0
sg16
F-4.874569731094387
sg17
I01
sbsg18
I00
sg19
g87
sbsg18
I00
sg19
g31
sba(imyEvolve
Tree
p553
(dp554
g7
I5
sg8
(imyEvolve
Tree
p555
(dp556
g11
(imyEvolve
Tree
p557
(dp558
g11
(imyEvolve
Tree
p559
(dp560
g11
(imyEvolve
Tree
p561
(dp562
g7
I1
sg8
(imyEvolve
Tree
p563
(dp564
g7
I0
sg17
I00
sbsg22
(imyEvolve
Tree
p565
(dp566
g7
I0
sg17
I00
sbsg18
I00
sg19
g87
sbsg7
I2
sg18
I01
sg19
g30
sbsg7
I3
sg18
I01
sg19
g30
sbsg7
I4
sg18
I01
sg19
g29
sbsg22
(imyEvolve
Tree
p567
(dp568
g11
(imyEvolve
Tree
p569
(dp570
g7
I3
sg8
(imyEvolve
Tree
p571
(dp572
g11
(imyEvolve
Tree
p573
(dp574
g7
I1
sg8
(imyEvolve
Tree
p575
(dp576
g7
I0
sg17
I00
sbsg22
(imyEvolve
Tree
p577
(dp578
g7
I0
sg17
I00
sbsg18
I00
sg19
g87
sbsg7
I2
sg18
I01
sg19
g20
sbsg22
(imyEvolve
Tree
p579
(dp580
g11
(imyEvolve
Tree
p581
(dp582
g7
I1
sg8
(imyEvolve
Tree
p583
(dp584
g7
I0
sg17
I00
sbsg22
(imyEvolve
Tree
p585
(dp586
g7
I0
sg17
I00
sbsg18
I00
sg19
g31
sbsg7
I2
sg18
I01
sg19
g21
sbsg18
I00
sg19
g31
sbsg7
I4
sg18
I01
sg19
g20
sbsg18
I00
sg19
g31
sba(imyEvolve
Tree
p587
(dp588
g11
(imyEvolve
Tree
p589
(dp590
g7
I2
sg8
(imyEvolve
Tree
p591
(dp592
g7
I1
sg8
(imyEvolve
Tree
p593
(dp594
g7
I0
sg16
F-4.512865121510863
sg17
I01
sbsg22
(imyEvolve
Tree
p595
(dp596
g7
I0
sg16
F2.0249088101583945
sg17
I01
sbsg18
I00
sg19
g31
sbsg22
(imyEvolve
Tree
p597
(dp598
g7
I1
sg8
(imyEvolve
Tree
p599
(dp600
g7
I0
sg16
F3.9884765311307007
sg17
I01
sbsg22
(imyEvolve
Tree
p601
(dp602
g7
I0
sg17
I00
sbsg18
I00
sg19
g31
sbsg18
I00
sg19
g87
sbsg7
I3
sg18
I01
sg19
g29
sba(imyEvolve
Tree
p603
(dp604
g7
I3
sg8
(imyEvolve
Tree
p605
(dp606
g11
(imyEvolve
Tree
p607
(dp608
g11
(imyEvolve
Tree
p609
(dp610
g7
I0
sg16
F-1.470263040775345
sg17
I01
sbsg7
I1
sg18
I01
sg19
g29
sbsg7
I2
sg18
I01
sg19
g30
sbsg22
(imyEvolve
Tree
p611
(dp612
g11
(imyEvolve
Tree
p613
(dp614
g11
(imyEvolve
Tree
p615
(dp616
g7
I0
sg17
I00
sbsg7
I1
sg18
I01
sg19
g21
sbsg7
I2
sg18
I01
sg19
g21
sbsg18
I00
sg19
g72
sba(imyEvolve
Tree
p617
(dp618
g7
I4
sg8
(imyEvolve
Tree
p619
(dp620
g7
I3
sg8
(imyEvolve
Tree
p621
(dp622
g7
I2
sg8
(imyEvolve
Tree
p623
(dp624
g7
I1
sg8
(imyEvolve
Tree
p625
(dp626
g7
I0
sg17
I00
sbsg22
(imyEvolve
Tree
p627
(dp628
g7
I0
sg16
F-1.5739378019663928
sg17
I01
sbsg18
I00
sg19
g31
sbsg22
(imyEvolve
Tree
p629
(dp630
g7
I1
sg8
(imyEvolve
Tree
p631
(dp632
g7
I0
sg16
F4.313170345546123
sg17
I01
sbsg22
(imyEvolve
Tree
p633
(dp634
g7
I0
sg16
F-1.804282927068476
sg17
I01
sbsg18
I00
sg19
g87
sbsg18
I00
sg19
g87
sbsg22
(imyEvolve
Tree
p635
(dp636
g7
I2
sg8
(imyEvolve
Tree
p637
(dp638
g7
I1
sg8
(imyEvolve
Tree
p639
(dp640
g7
I0
sg16
F1.9017808062685493
sg17
I01
sbsg22
(imyEvolve
Tree
p641
(dp642
g7
I0
sg17
I00
sbsg18
I00
sg19
g31
sbsg22
(imyEvolve
Tree
p643
(dp644
g11
(imyEvolve
Tree
p645
(dp646
g7
I0
sg16
F-4.19393691266656
sg17
I01
sbsg7
I1
sg18
I01
sg19
g21
sbsg18
I00
sg19
g87
sbsg18
I00
sg19
g87
sbsg22
(imyEvolve
Tree
p647
(dp648
g11
(imyEvolve
Tree
p649
(dp650
g11
(imyEvolve
Tree
p651
(dp652
g7
I1
sg8
(imyEvolve
Tree
p653
(dp654
g7
I0
sg16
F-3.9995243596237904
sg17
I01
sbsg22
(imyEvolve
Tree
p655
(dp656
g7
I0
sg16
F-0.41499821353169963
sg17
I01
sbsg18
I00
sg19
g72
sbsg7
I2
sg18
I01
sg19
g20
sbsg7
I3
sg18
I01
sg19
g30
sbsg18
I00
sg19
g87
sba(imyEvolve
Tree
p657
(dp658
g7
I4
sg8
(imyEvolve
Tree
p659
(dp660
g11
(imyEvolve
Tree
p661
(dp662
g11
(imyEvolve
Tree
p663
(dp664
g7
I1
sg8
(imyEvolve
Tree
p665
(dp666
g7
I0
sg16
F-2.851498455806883
sg17
I01
sbsg22
(imyEvolve
Tree
p667
(dp668
g7
I0
sg17
I00
sbsg18
I00
sg19
g87
sbsg7
I2
sg18
I01
sg19
g21
sbsg7
I3
sg18
I01
sg19
g30
sbsg22
(imyEvolve
Tree
p669
(dp670
g7
I3
sg8
(imyEvolve
Tree
p671
(dp672
g7
I2
sg8
(imyEvolve
Tree
p673
(dp674
g11
(imyEvolve
Tree
p675
(dp676
g7
I0
sg16
F4.5007777269041505
sg17
I01
sbsg7
I1
sg18
I01
sg19
g30
sbsg22
(imyEvolve
Tree
p677
(dp678
g7
I1
sg8
(imyEvolve
Tree
p679
(dp680
g7
I0
sg17
I00
sbsg22
(imyEvolve
Tree
p681
(dp682
g7
I0
sg16
F-1.4484629656459855
sg17
I01
sbsg18
I00
sg19
g31
sbsg18
I00
sg19
g31
sbsg22
(imyEvolve
Tree
p683
(dp684
g7
I2
sg8
(imyEvolve
Tree
p685
(dp686
g11
(imyEvolve
Tree
p687
(dp688
g7
I0
sg16
F-1.0041059080642887
sg17
I01
sbsg7
I1
sg18
I01
sg19
g21
sbsg22
(imyEvolve
Tree
p689
(dp690
g11
(imyEvolve
Tree
p691
(dp692
g7
I0
sg17
I00
sbsg7
I1
sg18
I01
sg19
g20
sbsg18
I00
sg19
g72
sbsg18
I00
sg19
g87
sbsg18
I00
sg19
g72
sba(imyEvolve
Tree
p693
(dp694
g11
(imyEvolve
Tree
p695
(dp696
g7
I2
sg8
(imyEvolve
Tree
p697
(dp698
g7
I1
sg8
(imyEvolve
Tree
p699
(dp700
g7
I0
sg17
I00
sbsg22
(imyEvolve
Tree
p701
(dp702
g7
I0
sg16
F0.014053160236292328
sg17
I01
sbsg18
I00
sg19
g31
sbsg22
(imyEvolve
Tree
p703
(dp704
g11
(imyEvolve
Tree
p705
(dp706
g7
I0
sg16
F1.7271495743644785
sg17
I01
sbsg7
I1
sg18
I01
sg19
g21
sbsg18
I00
sg19
g72
sbsg7
I3
sg18
I01
sg19
g30
sba(imyEvolve
Tree
p707
(dp708
g11
(imyEvolve
Tree
p709
(dp710
g11
(imyEvolve
Tree
p711
(dp712
g11
(imyEvolve
Tree
p713
(dp714
g7
I0
sg16
F0.7804640037049797
sg17
I01
sbsg7
I1
sg18
I01
sg19
g20
sbsg7
I2
sg18
I01
sg19
g29
sbsg7
I3
sg18
I01
sg19
g20
sba(imyEvolve
Tree
p715
(dp716
g11
(imyEvolve
Tree
p717
(dp718
g11
(imyEvolve
Tree
p719
(dp720
g7
I2
sg8
(imyEvolve
Tree
p721
(dp722
g11
(imyEvolve
Tree
p723
(dp724
g7
I0
sg16
F-1.4394931630766763
sg17
I01
sbsg7
I1
sg18
I01
sg19
g20
sbsg22
(imyEvolve
Tree
p725
(dp726
g7
I1
sg8
(imyEvolve
Tree
p727
(dp728
g7
I0
sg16
F-4.108679695284665
sg17
I01
sbsg22
(imyEvolve
Tree
p729
(dp730
g7
I0
sg16
F2.268597900910949
sg17
I01
sbsg18
I00
sg19
g72
sbsg18
I00
sg19
g87
sbsg7
I3
sg18
I01
sg19
g30
sbsg7
I4
sg18
I01
sg19
g30
sba(imyEvolve
Tree
p731
(dp732
g11
(imyEvolve
Tree
p733
(dp734
g7
I3
sg8
(imyEvolve
Tree
p735
(dp736
g11
(imyEvolve
Tree
p737
(dp738
g11
(imyEvolve
Tree
p739
(dp740
g7
I0
sg17
I00
sbsg7
I1
sg18
I01
sg19
g30
sbsg7
I2
sg18
I01
sg19
g21
sbsg22
(imyEvolve
Tree
p741
(dp742
g7
I2
sg8
(imyEvolve
Tree
p743
(dp744
g11
(imyEvolve
Tree
p745
(dp746
g7
I0
sg16
F2.5278276905370047
sg17
I01
sbsg7
I1
sg18
I01
sg19
g29
sbsg22
(imyEvolve
Tree
p747
(dp748
g7
I1
sg8
(imyEvolve
Tree
p749
(dp750
g7
I0
sg17
I00
sbsg22
(imyEvolve
Tree
p751
(dp752
g7
I0
sg17
I00
sbsg18
I00
sg19
g72
sbsg18
I00
sg19
g87
sbsg18
I00
sg19
g87
sbsg7
I4
sg18
I01
sg19
g20
sbaa(lp753
(imyEvolve
Tree
p754
(dp755
g7
I2
sg8
(imyEvolve
Tree
p756
(dp757
g7
I1
sg8
(imyEvolve
Tree
p758
(dp759
g7
I0
sg17
I00
sbsg22
(imyEvolve
Tree
p760
(dp761
g7
I0
sg17
I00
sbsg18
I00
sg19
g31
sbsg22
(imyEvolve
Tree
p762
(dp763
g11
(imyEvolve
Tree
p764
(dp765
g7
I0
sg17
I00
sbsg7
I1
sg18
I01
sg19
g21
sbsg18
I00
sg19
g72
sba(imyEvolve
Tree
p766
(dp767
g11
(imyEvolve
Tree
p768
(dp769
g11
(imyEvolve
Tree
p770
(dp771
g7
I2
sg8
(imyEvolve
Tree
p772
(dp773
g7
I1
sg8
(imyEvolve
Tree
p774
(dp775
g7
I0
sg17
I00
sbsg22
(imyEvolve
Tree
p776
(dp777
g7
I0
sg17
I00
sbsg18
I00
sg19
g31
sbsg22
(imyEvolve
Tree
p778
(dp779
g7
I1
sg8
(imyEvolve
Tree
p780
(dp781
g7
I0
sg16
F-0.34425577059255996
sg17
I01
sbsg22
(imyEvolve
Tree
p782
(dp783
g7
I0
sg17
I00
sbsg18
I00
sg19
g31
sbsg18
I00
sg19
g31
sbsg7
I3
sg18
I01
sg19
g30
sbsg7
I4
sg18
I01
sg19
g29
sba(imyEvolve
Tree
p784
(dp785
g7
I4
sg8
(imyEvolve
Tree
p786
(dp787
g11
(imyEvolve
Tree
p788
(dp789
g7
I2
sg8
(imyEvolve
Tree
p790
(dp791
g7
I1
sg8
(imyEvolve
Tree
p792
(dp793
g7
I0
sg17
I00
sbsg22
(imyEvolve
Tree
p794
(dp795
g7
I0
sg17
I00
sbsg18
I00
sg19
g72
sbsg22
(imyEvolve
Tree
p796
(dp797
g7
I1
sg8
(imyEvolve
Tree
p798
(dp799
g7
I0
sg16
F2.840300337870419
sg17
I01
sbsg22
(imyEvolve
Tree
p800
(dp801
g7
I0
sg17
I00
sbsg18
I00
sg19
g31
sbsg18
I00
sg19
g31
sbsg7
I3
sg18
I01
sg19
g30
sbsg22
(imyEvolve
Tree
p802
(dp803
g7
I3
sg8
(imyEvolve
Tree
p804
(dp805
g7
I2
sg8
(imyEvolve
Tree
p806
(dp807
g11
(imyEvolve
Tree
p808
(dp809
g7
I0
sg16
F-1.7409701486551885
sg17
I01
sbsg7
I1
sg18
I01
sg19
g21
sbsg22
(imyEvolve
Tree
p810
(dp811
g7
I1
sg8
(imyEvolve
Tree
p812
(dp813
g7
I0
sg16
F1.0299265184480202
sg17
I01
sbsg22
(imyEvolve
Tree
p814
(dp815
g7
I0
sg16
F2.8328739348828353
sg17
I01
sbsg18
I00
sg19
g87
sbsg18
I00
sg19
g87
sbsg22
(imyEvolve
Tree
p816
(dp817
g7
I2
sg8
(imyEvolve
Tree
p818
(dp819
g7
I1
sg8
(imyEvolve
Tree
p820
(dp821
g7
I0
sg17
I00
sbsg22
(imyEvolve
Tree
p822
(dp823
g7
I0
sg17
I00
sbsg18
I00
sg19
g31
sbsg22
(imyEvolve
Tree
p824
(dp825
g11
(imyEvolve
Tree
p826
(dp827
g7
I0
sg17
I00
sbsg7
I1
sg18
I01
sg19
g21
sbsg18
I00
sg19
g72
sbsg18
I00
sg19
g31
sbsg18
I00
sg19
g72
sba(imyEvolve
Tree
p828
(dp829
g7
I2
sg8
(imyEvolve
Tree
p830
(dp831
g7
I1
sg8
(imyEvolve
Tree
p832
(dp833
g7
I0
sg17
I00
sbsg22
(imyEvolve
Tree
p834
(dp835
g7
I0
sg16
F-0.14571278724815784
sg17
I01
sbsg18
I00
sg19
g87
sbsg22
(imyEvolve
Tree
p836
(dp837
g11
(imyEvolve
Tree
p838
(dp839
g7
I0
sg17
I00
sbsg7
I1
sg18
I01
sg19
g29
sbsg18
I00
sg19
g72
sba(imyEvolve
Tree
p840
(dp841
g7
I5
sg8
(imyEvolve
Tree
p842
(dp843
g11
(imyEvolve
Tree
p844
(dp845
g11
(imyEvolve
Tree
p846
(dp847
g11
(imyEvolve
Tree
p848
(dp849
g7
I1
sg8
(imyEvolve
Tree
p850
(dp851
g7
I0
sg16
F2.8816342045675647
sg17
I01
sbsg22
(imyEvolve
Tree
p852
(dp853
g7
I0
sg17
I00
sbsg18
I00
sg19
g31
sbsg7
I2
sg18
I01
sg19
g29
sbsg7
I3
sg18
I01
sg19
g20
sbsg7
I4
sg18
I01
sg19
g20
sbsg22
(imyEvolve
Tree
p854
(dp855
g11
(imyEvolve
Tree
p856
(dp857
g11
(imyEvolve
Tree
p858
(dp859
g11
(imyEvolve
Tree
p860
(dp861
g11
(imyEvolve
Tree
p862
(dp863
g7
I0
sg17
I00
sbsg7
I1
sg18
I01
sg19
g30
sbsg7
I2
sg18
I01
sg19
g21
sbsg7
I3
sg18
I01
sg19
g29
sbsg7
I4
sg18
I01
sg19
g20
sbsg18
I00
sg19
g72
sba(imyEvolve
Tree
p864
(dp865
g7
I5
sg8
(imyEvolve
Tree
p866
(dp867
g7
I4
sg8
(imyEvolve
Tree
p868
(dp869
g7
I3
sg8
(imyEvolve
Tree
p870
(dp871
g7
I2
sg8
(imyEvolve
Tree
p872
(dp873
g11
(imyEvolve
Tree
p874
(dp875
g7
I0
sg17
I00
sbsg7
I1
sg18
I01
sg19
g29
sbsg22
(imyEvolve
Tree
p876
(dp877
g11
(imyEvolve
Tree
p878
(dp879
g7
I0
sg16
F2.6804321130876785
sg17
I01
sbsg7
I1
sg18
I01
sg19
g30
sbsg18
I00
sg19
g31
sbsg22
(imyEvolve
Tree
p880
(dp881
g11
(imyEvolve
Tree
p882
(dp883
g7
I1
sg8
(imyEvolve
Tree
p884
(dp885
g7
I0
sg17
I00
sbsg22
(imyEvolve
Tree
p886
(dp887
g7
I0
sg16
F1.024332632013758
sg17
I01
sbsg18
I00
sg19
g72
sbsg7
I2
sg18
I01
sg19
g29
sbsg18
I00
sg19
g72
sbsg22
(imyEvolve
Tree
p888
(dp889
g7
I3
sg8
(imyEvolve
Tree
p890
(dp891
g11
(imyEvolve
Tree
p892
(dp893
g11
(imyEvolve
Tree
p894
(dp895
g7
I0
sg17
I00
sbsg7
I1
sg18
I01
sg19
g29
sbsg7
I2
sg18
I01
sg19
g21
sbsg22
(imyEvolve
Tree
p896
(dp897
g7
I2
sg8
(imyEvolve
Tree
p898
(dp899
g11
(imyEvolve
Tree
p900
(dp901
g7
I0
sg16
F-3.740011382716589
sg17
I01
sbsg7
I1
sg18
I01
sg19
g29
sbsg22
(imyEvolve
Tree
p902
(dp903
g7
I1
sg8
(imyEvolve
Tree
p904
(dp905
g7
I0
sg16
F0.43637932487591957
sg17
I01
sbsg22
(imyEvolve
Tree
p906
(dp907
g7
I0
sg16
F-3.3954856395118904
sg17
I01
sbsg18
I00
sg19
g72
sbsg18
I00
sg19
g31
sbsg18
I00
sg19
g87
sbsg18
I00
sg19
g87
sbsg22
(imyEvolve
Tree
p908
(dp909
g7
I4
sg8
(imyEvolve
Tree
p910
(dp911
g7
I3
sg8
(imyEvolve
Tree
p912
(dp913
g7
I2
sg8
(imyEvolve
Tree
p914
(dp915
g7
I1
sg8
(imyEvolve
Tree
p916
(dp917
g7
I0
sg16
F-4.110243240681709
sg17
I01
sbsg22
(imyEvolve
Tree
p918
(dp919
g7
I0
sg16
F1.664887734564112
sg17
I01
sbsg18
I00
sg19
g72
sbsg22
(imyEvolve
Tree
p920
(dp921
g11
(imyEvolve
Tree
p922
(dp923
g7
I0
sg17
I00
sbsg7
I1
sg18
I01
sg19
g20
sbsg18
I00
sg19
g31
sbsg22
(imyEvolve
Tree
p924
(dp925
g11
(imyEvolve
Tree
p926
(dp927
g7
I1
sg8
(imyEvolve
Tree
p928
(dp929
g7
I0
sg16
F-0.47579687084342215
sg17
I01
sbsg22
(imyEvolve
Tree
p930
(dp931
g7
I0
sg16
F2.3645083389539217
sg17
I01
sbsg18
I00
sg19
g87
sbsg7
I2
sg18
I01
sg19
g20
sbsg18
I00
sg19
g72
sbsg22
(imyEvolve
Tree
p932
(dp933
g7
I3
sg8
(imyEvolve
Tree
p934
(dp935
g7
I2
sg8
(imyEvolve
Tree
p936
(dp937
g11
(imyEvolve
Tree
p938
(dp939
g7
I0
sg17
I00
sbsg7
I1
sg18
I01
sg19
g20
sbsg22
(imyEvolve
Tree
p940
(dp941
g11
(imyEvolve
Tree
p942
(dp943
g7
I0
sg16
F-2.930956144102459
sg17
I01
sbsg7
I1
sg18
I01
sg19
g20
sbsg18
I00
sg19
g87
sbsg22
(imyEvolve
Tree
p944
(dp945
g7
I2
sg8
(imyEvolve
Tree
p946
(dp947
g7
I1
sg8
(imyEvolve
Tree
p948
(dp949
g7
I0
sg17
I00
sbsg22
(imyEvolve
Tree
p950
(dp951
g7
I0
sg16
F-2.8657714242367627
sg17
I01
sbsg18
I00
sg19
g72
sbsg22
(imyEvolve
Tree
p952
(dp953
g11
(imyEvolve
Tree
p954
(dp955
g7
I0
sg17
I00
sbsg7
I1
sg18
I01
sg19
g21
sbsg18
I00
sg19
g72
sbsg18
I00
sg19
g72
sbsg18
I00
sg19
g87
sbsg18
I00
sg19
g31
sba(imyEvolve
Tree
p956
(dp957
g7
I5
sg8
(imyEvolve
Tree
p958
(dp959
g11
(imyEvolve
Tree
p960
(dp961
g11
(imyEvolve
Tree
p962
(dp963
g11
(imyEvolve
Tree
p964
(dp965
g7
I1
sg8
(imyEvolve
Tree
p966
(dp967
g7
I0
sg16
F-1.4164164567878998
sg17
I01
sbsg22
(imyEvolve
Tree
p968
(dp969
g7
I0
sg16
F-4.0709996274344515
sg17
I01
sbsg18
I00
sg19
g87
sbsg7
I2
sg18
I01
sg19
g30
sbsg7
I3
sg18
I01
sg19
g21
sbsg7
I4
sg18
I01
sg19
g29
sbsg22
(imyEvolve
Tree
p970
(dp971
g11
(imyEvolve
Tree
p972
(dp973
g11
(imyEvolve
Tree
p974
(dp975
g7
I2
sg8
(imyEvolve
Tree
p976
(dp977
g7
I1
sg8
(imyEvolve
Tree
p978
(dp979
g7
I0
sg16
F-0.29517793582281104
sg17
I01
sbsg22
(imyEvolve
Tree
p980
(dp981
g7
I0
sg17
I00
sbsg18
I00
sg19
g87
sbsg22
(imyEvolve
Tree
p982
(dp983
g7
I1
sg8
(imyEvolve
Tree
p984
(dp985
g7
I0
sg17
I00
sbsg22
(imyEvolve
Tree
p986
(dp987
g7
I0
sg16
F-0.8526942561085091
sg17
I01
sbsg18
I00
sg19
g31
sbsg18
I00
sg19
g72
sbsg7
I3
sg18
I01
sg19
g30
sbsg7
I4
sg18
I01
sg19
g21
sbsg18
I00
sg19
g31
sba(imyEvolve
Tree
p988
(dp989
g7
I5
sg8
(imyEvolve
Tree
p990
(dp991
g7
I4
sg8
(imyEvolve
Tree
p992
(dp993
g7
I3
sg8
(imyEvolve
Tree
p994
(dp995
g7
I2
sg8
(imyEvolve
Tree
p996
(dp997
g11
(imyEvolve
Tree
p998
(dp999
g7
I0
sg17
I00
sbsg7
I1
sg18
I01
sg19
g29
sbsg22
(imyEvolve
Tree
p1000
(dp1001
g11
(imyEvolve
Tree
p1002
(dp1003
g7
I0
sg16
F4.838422327246665
sg17
I01
sbsg7
I1
sg18
I01
sg19
g29
sbsg18
I00
sg19
g72
sbsg22
(imyEvolve
Tree
p1004
(dp1005
g7
I2
sg8
(imyEvolve
Tree
p1006
(dp1007
g7
I1
sg8
(imyEvolve
Tree
p1008
(dp1009
g7
I0
sg16
F1.3174386259978395
sg17
I01
sbsg22
(imyEvolve
Tree
p1010
(dp1011
g7
I0
sg16
F1.6843051886947773
sg17
I01
sbsg18
I00
sg19
g31
sbsg22
(imyEvolve
Tree
p1012
(dp1013
g11
(imyEvolve
Tree
p1014
(dp1015
g7
I0
sg16
F-3.199697429656425
sg17
I01
sbsg7
I1
sg18
I01
sg19
g20
sbsg18
I00
sg19
g72
sbsg18
I00
sg19
g87
sbsg22
(imyEvolve
Tree
p1016
(dp1017
g11
(imyEvolve
Tree
p1018
(dp1019
g7
I2
sg8
(imyEvolve
Tree
p1020
(dp1021
g7
I1
sg8
(imyEvolve
Tree
p1022
(dp1023
g7
I0
sg17
I00
sbsg22
(imyEvolve
Tree
p1024
(dp1025
g7
I0
sg17
I00
sbsg18
I00
sg19
g31
sbsg22
(imyEvolve
Tree
p1026
(dp1027
g11
(imyEvolve
Tree
p1028
(dp1029
g7
I0
sg16
F-0.7862341985098906
sg17
I01
sbsg7
I1
sg18
I01
sg19
g21
sbsg18
I00
sg19
g72
sbsg7
I3
sg18
I01
sg19
g21
sbsg18
I00
sg19
g31
sbsg22
(imyEvolve
Tree
p1030
(dp1031
g7
I4
sg8
(imyEvolve
Tree
p1032
(dp1033
g11
(imyEvolve
Tree
p1034
(dp1035
g7
I2
sg8
(imyEvolve
Tree
p1036
(dp1037
g11
(imyEvolve
Tree
p1038
(dp1039
g7
I0
sg17
I00
sbsg7
I1
sg18
I01
sg19
g21
sbsg22
(imyEvolve
Tree
p1040
(dp1041
g11
(imyEvolve
Tree
p1042
(dp1043
g7
I0
sg16
F-2.222921901522197
sg17
I01
sbsg7
I1
sg18
I01
sg19
g20
sbsg18
I00
sg19
g72
sbsg7
I3
sg18
I01
sg19
g21
sbsg22
(imyEvolve
Tree
p1044
(dp1045
g7
I3
sg8
(imyEvolve
Tree
p1046
(dp1047
g11
(imyEvolve
Tree
p1048
(dp1049
g7
I1
sg8
(imyEvolve
Tree
p1050
(dp1051
g7
I0
sg16
F-0.9996322078749706
sg17
I01
sbsg22
(imyEvolve
Tree
p1052
(dp1053
g7
I0
sg16
F-3.1682633945157814
sg17
I01
sbsg18
I00
sg19
g87
sbsg7
I2
sg18
I01
sg19
g30
sbsg22
(imyEvolve
Tree
p1054
(dp1055
g7
I2
sg8
(imyEvolve
Tree
p1056
(dp1057
g11
(imyEvolve
Tree
p1058
(dp1059
g7
I0
sg17
I00
sbsg7
I1
sg18
I01
sg19
g29
sbsg22
(imyEvolve
Tree
p1060
(dp1061
g7
I1
sg8
(imyEvolve
Tree
p1062
(dp1063
g7
I0
sg17
I00
sbsg22
(imyEvolve
Tree
p1064
(dp1065
g7
I0
sg17
I00
sbsg18
I00
sg19
g31
sbsg18
I00
sg19
g87
sbsg18
I00
sg19
g72
sbsg18
I00
sg19
g87
sbsg18
I00
sg19
g31
sba(imyEvolve
Tree
p1066
(dp1067
g7
I5
sg8
(imyEvolve
Tree
p1068
(dp1069
g7
I4
sg8
(imyEvolve
Tree
p1070
(dp1071
g11
(imyEvolve
Tree
p1072
(dp1073
g11
(imyEvolve
Tree
p1074
(dp1075
g11
(imyEvolve
Tree
p1076
(dp1077
g7
I0
sg16
F-4.398622345362387
sg17
I01
sbsg7
I1
sg18
I01
sg19
g20
sbsg7
I2
sg18
I01
sg19
g29
sbsg7
I3
sg18
I01
sg19
g20
sbsg22
(imyEvolve
Tree
p1078
(dp1079
g7
I3
sg8
(imyEvolve
Tree
p1080
(dp1081
g11
(imyEvolve
Tree
p1082
(dp1083
g11
(imyEvolve
Tree
p1084
(dp1085
g7
I0
sg16
F1.7360944302884942
sg17
I01
sbsg7
I1
sg18
I01
sg19
g29
sbsg7
I2
sg18
I01
sg19
g29
sbsg22
(imyEvolve
Tree
p1086
(dp1087
g7
I2
sg8
(imyEvolve
Tree
p1088
(dp1089
g11
(imyEvolve
Tree
p1090
(dp1091
g7
I0
sg17
I00
sbsg7
I1
sg18
I01
sg19
g30
sbsg22
(imyEvolve
Tree
p1092
(dp1093
g11
(imyEvolve
Tree
p1094
(dp1095
g7
I0
sg16
F4.831995153288121
sg17
I01
sbsg7
I1
sg18
I01
sg19
g29
sbsg18
I00
sg19
g72
sbsg18
I00
sg19
g87
sbsg18
I00
sg19
g72
sbsg22
(imyEvolve
Tree
p1096
(dp1097
g7
I4
sg8
(imyEvolve
Tree
p1098
(dp1099
g11
(imyEvolve
Tree
p1100
(dp1101
g11
(imyEvolve
Tree
p1102
(dp1103
g11
(imyEvolve
Tree
p1104
(dp1105
g7
I0
sg16
F1.8516349689855538
sg17
I01
sbsg7
I1
sg18
I01
sg19
g29
sbsg7
I2
sg18
I01
sg19
g21
sbsg7
I3
sg18
I01
sg19
g21
sbsg22
(imyEvolve
Tree
p1106
(dp1107
g11
(imyEvolve
Tree
p1108
(dp1109
g11
(imyEvolve
Tree
p1110
(dp1111
g11
(imyEvolve
Tree
p1112
(dp1113
g7
I0
sg17
I00
sbsg7
I1
sg18
I01
sg19
g29
sbsg7
I2
sg18
I01
sg19
g20
sbsg7
I3
sg18
I01
sg19
g29
sbsg18
I00
sg19
g87
sbsg18
I00
sg19
g72
sba(imyEvolve
Tree
p1114
(dp1115
g11
(imyEvolve
Tree
p1116
(dp1117
g11
(imyEvolve
Tree
p1118
(dp1119
g7
I3
sg8
(imyEvolve
Tree
p1120
(dp1121
g7
I2
sg8
(imyEvolve
Tree
p1122
(dp1123
g11
(imyEvolve
Tree
p1124
(dp1125
g7
I0
sg16
F-3.385491467363919
sg17
I01
sbsg7
I1
sg18
I01
sg19
g21
sbsg22
(imyEvolve
Tree
p1126
(dp1127
g11
(imyEvolve
Tree
p1128
(dp1129
g7
I0
sg17
I00
sbsg7
I1
sg18
I01
sg19
g21
sbsg18
I00
sg19
g87
sbsg22
(imyEvolve
Tree
p1130
(dp1131
g11
(imyEvolve
Tree
p1132
(dp1133
g7
I1
sg8
(imyEvolve
Tree
p1134
(dp1135
g7
I0
sg16
F-3.603405366049955
sg17
I01
sbsg22
(imyEvolve
Tree
p1136
(dp1137
g7
I0
sg16
F-1.6372377304558086
sg17
I01
sbsg18
I00
sg19
g31
sbsg7
I2
sg18
I01
sg19
g30
sbsg18
I00
sg19
g31
sbsg7
I4
sg18
I01
sg19
g30
sbsg7
I5
sg18
I01
sg19
g30
sba(imyEvolve
Tree
p1138
(dp1139
g7
I4
sg8
(imyEvolve
Tree
p1140
(dp1141
g11
(imyEvolve
Tree
p1142
(dp1143
g7
I2
sg8
(imyEvolve
Tree
p1144
(dp1145
g11
(imyEvolve
Tree
p1146
(dp1147
g7
I0
sg17
I00
sbsg7
I1
sg18
I01
sg19
g20
sbsg22
(imyEvolve
Tree
p1148
(dp1149
g11
(imyEvolve
Tree
p1150
(dp1151
g7
I0
sg17
I00
sbsg7
I1
sg18
I01
sg19
g30
sbsg18
I00
sg19
g72
sbsg7
I3
sg18
I01
sg19
g21
sbsg22
(imyEvolve
Tree
p1152
(dp1153
g11
(imyEvolve
Tree
p1154
(dp1155
g7
I2
sg8
(imyEvolve
Tree
p1156
(dp1157
g7
I1
sg8
(imyEvolve
Tree
p1158
(dp1159
g7
I0
sg17
I00
sbsg22
(imyEvolve
Tree
p1160
(dp1161
g7
I0
sg16
F-2.4090028249463655
sg17
I01
sbsg18
I00
sg19
g87
sbsg22
(imyEvolve
Tree
p1162
(dp1163
g7
I1
sg8
(imyEvolve
Tree
p1164
(dp1165
g7
I0
sg17
I00
sbsg22
(imyEvolve
Tree
p1166
(dp1167
g7
I0
sg16
F-0.26933896046444694
sg17
I01
sbsg18
I00
sg19
g87
sbsg18
I00
sg19
g31
sbsg7
I3
sg18
I01
sg19
g29
sbsg18
I00
sg19
g72
sba(imyEvolve
Tree
p1168
(dp1169
g7
I2
sg8
(imyEvolve
Tree
p1170
(dp1171
g11
(imyEvolve
Tree
p1172
(dp1173
g7
I0
sg17
I00
sbsg7
I1
sg18
I01
sg19
g20
sbsg22
(imyEvolve
Tree
p1174
(dp1175
g7
I1
sg8
(imyEvolve
Tree
p1176
(dp1177
g7
I0
sg17
I00
sbsg22
(imyEvolve
Tree
p1178
(dp1179
g7
I0
sg17
I00
sbsg18
I00
sg19
g72
sbsg18
I00
sg19
g72
sba(imyEvolve
Tree
p1180
(dp1181
g7
I4
sg8
(imyEvolve
Tree
p1182
(dp1183
g7
I3
sg8
(imyEvolve
Tree
p1184
(dp1185
g7
I2
sg8
(imyEvolve
Tree
p1186
(dp1187
g11
(imyEvolve
Tree
p1188
(dp1189
g7
I0
sg16
F1.0592805263415785
sg17
I01
sbsg7
I1
sg18
I01
sg19
g29
sbsg22
(imyEvolve
Tree
p1190
(dp1191
g11
(imyEvolve
Tree
p1192
(dp1193
g7
I0
sg16
F1.3609785031138948
sg17
I01
sbsg7
I1
sg18
I01
sg19
g20
sbsg18
I00
sg19
g72
sbsg22
(imyEvolve
Tree
p1194
(dp1195
g7
I2
sg8
(imyEvolve
Tree
p1196
(dp1197
g11
(imyEvolve
Tree
p1198
(dp1199
g7
I0
sg17
I00
sbsg7
I1
sg18
I01
sg19
g30
sbsg22
(imyEvolve
Tree
p1200
(dp1201
g7
I1
sg8
(imyEvolve
Tree
p1202
(dp1203
g7
I0
sg16
F-0.7251423132866899
sg17
I01
sbsg22
(imyEvolve
Tree
p1204
(dp1205
g7
I0
sg16
F-4.4909167542823445
sg17
I01
sbsg18
I00
sg19
g87
sbsg18
I00
sg19
g72
sbsg18
I00
sg19
g72
sbsg22
(imyEvolve
Tree
p1206
(dp1207
g11
(imyEvolve
Tree
p1208
(dp1209
g7
I2
sg8
(imyEvolve
Tree
p1210
(dp1211
g7
I1
sg8
(imyEvolve
Tree
p1212
(dp1213
g7
I0
sg16
F-0.20561358113025197
sg17
I01
sbsg22
(imyEvolve
Tree
p1214
(dp1215
g7
I0
sg16
F-1.5907018439771994
sg17
I01
sbsg18
I00
sg19
g72
sbsg22
(imyEvolve
Tree
p1216
(dp1217
g7
I1
sg8
(imyEvolve
Tree
p1218
(dp1219
g7
I0
sg16
F-2.1217485135662284
sg17
I01
sbsg22
(imyEvolve
Tree
p1220
(dp1221
g7
I0
sg16
F1.7143632106276545
sg17
I01
sbsg18
I00
sg19
g72
sbsg18
I00
sg19
g87
sbsg7
I3
sg18
I01
sg19
g21
sbsg18
I00
sg19
g87
sba(imyEvolve
Tree
p1222
(dp1223
g11
(imyEvolve
Tree
p1224
(dp1225
g7
I2
sg8
(imyEvolve
Tree
p1226
(dp1227
g11
(imyEvolve
Tree
p1228
(dp1229
g7
I0
sg17
I00
sbsg7
I1
sg18
I01
sg19
g30
sbsg22
(imyEvolve
Tree
p1230
(dp1231
g11
(imyEvolve
Tree
p1232
(dp1233
g7
I0
sg16
F3.112145261436339
sg17
I01
sbsg7
I1
sg18
I01
sg19
g20
sbsg18
I00
sg19
g87
sbsg7
I3
sg18
I01
sg19
g20
sbaa(lp1234
(imyEvolve
Tree
p1235
(dp1236
g11
(imyEvolve
Tree
p1237
(dp1238
g11
(imyEvolve
Tree
p1239
(dp1240
g7
I1
sg8
(imyEvolve
Tree
p1241
(dp1242
g7
I0
sg16
F-0.48569384048609887
sg17
I01
sbsg22
(imyEvolve
Tree
p1243
(dp1244
g7
I0
sg17
I00
sbsg18
I00
sg19
g72
sbsg7
I2
sg18
I01
sg19
g21
sbsg7
I3
sg18
I01
sg19
g20
sba(imyEvolve
Tree
p1245
(dp1246
g11
(imyEvolve
Tree
p1247
(dp1248
g11
(imyEvolve
Tree
p1249
(dp1250
g7
I2
sg8
(imyEvolve
Tree
p1251
(dp1252
g11
(imyEvolve
Tree
p1253
(dp1254
g7
I0
sg16
F-2.4529216976440815
sg17
I01
sbsg7
I1
sg18
I01
sg19
g21
sbsg22
(imyEvolve
Tree
p1255
(dp1256
g11
(imyEvolve
Tree
p1257
(dp1258
g7
I0
sg17
I00
sbsg7
I1
sg18
I01
sg19
g20
sbsg18
I00
sg19
g87
sbsg7
I3
sg18
I01
sg19
g30
sbsg7
I4
sg18
I01
sg19
g20
sba(imyEvolve
Tree
p1259
(dp1260
g11
(imyEvolve
Tree
p1261
(dp1262
g7
I1
sg8
(imyEvolve
Tree
p1263
(dp1264
g7
I0
sg17
I00
sbsg22
(imyEvolve
Tree
p1265
(dp1266
g7
I0
sg17
I00
sbsg18
I00
sg19
g31
sbsg7
I2
sg18
I01
sg19
g20
sba(imyEvolve
Tree
p1267
(dp1268
g11
(imyEvolve
Tree
p1269
(dp1270
g11
(imyEvolve
Tree
p1271
(dp1272
g7
I0
sg17
I00
sbsg7
I1
sg18
I01
sg19
g20
sbsg7
I2
sg18
I01
sg19
g21
sba(imyEvolve
Tree
p1273
(dp1274
g7
I3
sg8
(imyEvolve
Tree
p1275
(dp1276
g11
(imyEvolve
Tree
p1277
(dp1278
g11
(imyEvolve
Tree
p1279
(dp1280
g7
I0
sg16
F-2.4846318144411472
sg17
I01
sbsg7
I1
sg18
I01
sg19
g30
sbsg7
I2
sg18
I01
sg19
g30
sbsg22
(imyEvolve
Tree
p1281
(dp1282
g7
I2
sg8
(imyEvolve
Tree
p1283
(dp1284
g11
(imyEvolve
Tree
p1285
(dp1286
g7
I0
sg17
I00
sbsg7
I1
sg18
I01
sg19
g30
sbsg22
(imyEvolve
Tree
p1287
(dp1288
g11
(imyEvolve
Tree
p1289
(dp1290
g7
I0
sg17
I00
sbsg7
I1
sg18
I01
sg19
g21
sbsg18
I00
sg19
g87
sbsg18
I00
sg19
g31
sba(imyEvolve
Tree
p1291
(dp1292
g7
I2
sg8
(imyEvolve
Tree
p1293
(dp1294
g7
I1
sg8
(imyEvolve
Tree
p1295
(dp1296
g7
I0
sg16
F1.465056201048439
sg17
I01
sbsg22
(imyEvolve
Tree
p1297
(dp1298
g7
I0
sg16
F-0.1254440077223009
sg17
I01
sbsg18
I00
sg19
g31
sbsg22
(imyEvolve
Tree
p1299
(dp1300
g7
I1
sg8
(imyEvolve
Tree
p1301
(dp1302
g7
I0
sg16
F0.663748806180724
sg17
I01
sbsg22
(imyEvolve
Tree
p1303
(dp1304
g7
I0
sg16
F-0.2333138979616045
sg17
I01
sbsg18
I00
sg19
g31
sbsg18
I00
sg19
g87
sba(imyEvolve
Tree
p1305
(dp1306
g7
I2
sg8
(imyEvolve
Tree
p1307
(dp1308
g11
(imyEvolve
Tree
p1309
(dp1310
g7
I0
sg17
I00
sbsg7
I1
sg18
I01
sg19
g20
sbsg22
(imyEvolve
Tree
p1311
(dp1312
g7
I1
sg8
(imyEvolve
Tree
p1313
(dp1314
g7
I0
sg17
I00
sbsg22
(imyEvolve
Tree
p1315
(dp1316
g7
I0
sg16
F1.1297603615075875
sg17
I01
sbsg18
I00
sg19
g72
sbsg18
I00
sg19
g72
sba(imyEvolve
Tree
p1317
(dp1318
g7
I2
sg8
(imyEvolve
Tree
p1319
(dp1320
g7
I1
sg8
(imyEvolve
Tree
p1321
(dp1322
g7
I0
sg17
I00
sbsg22
(imyEvolve
Tree
p1323
(dp1324
g7
I0
sg17
I00
sbsg18
I00
sg19
g72
sbsg22
(imyEvolve
Tree
p1325
(dp1326
g7
I1
sg8
(imyEvolve
Tree
p1327
(dp1328
g7
I0
sg16
F3.3060421552408563
sg17
I01
sbsg22
(imyEvolve
Tree
p1329
(dp1330
g7
I0
sg17
I00
sbsg18
I00
sg19
g72
sbsg18
I00
sg19
g31
sba(imyEvolve
Tree
p1331
(dp1332
g11
(imyEvolve
Tree
p1333
(dp1334
g7
I1
sg8
(imyEvolve
Tree
p1335
(dp1336
g7
I0
sg17
I00
sbsg22
(imyEvolve
Tree
p1337
(dp1338
g7
I0
sg16
F-2.6293610363933384
sg17
I01
sbsg18
I00
sg19
g87
sbsg7
I2
sg18
I01
sg19
g30
sba(imyEvolve
Tree
p1339
(dp1340
g11
(imyEvolve
Tree
p1341
(dp1342
g11
(imyEvolve
Tree
p1343
(dp1344
g7
I1
sg8
(imyEvolve
Tree
p1345
(dp1346
g7
I0
sg17
I00
sbsg22
(imyEvolve
Tree
p1347
(dp1348
g7
I0
sg16
F1.019530333427011
sg17
I01
sbsg18
I00
sg19
g87
sbsg7
I2
sg18
I01
sg19
g21
sbsg7
I3
sg18
I01
sg19
g30
sbaasS'weightSharing'
p1349
(lp1350
I00
asS'fitnessValid'
p1351
I00
sS'fitness'
p1352
cnumpy.core.multiarray
scalar
p1353
(cnumpy
dtype
p1354
(S'f8'
p1355
I0
I1
tp1356
Rp1357
(I3
S'<'
p1358
NNNI-1
I-1
I0
tp1359
bS'\xbdR\x96I\xb4\x1e\xe6?'
p1360
tp1361
Rp1362
sS'alpha'
p1363
F0.009849296114034047
sS'resolution'
p1364
I72
sb.