(imyEvolve
Individual
p0
(dp1
S'funcs'
p2
(lp3
(lp4
(imyEvolve
Tree
p5
(dp6
S'depth'
p7
I4
sS'left'
p8
(imyEvolve
Tree
p9
(dp10
S'below'
p11
(imyEvolve
Tree
p12
(dp13
g11
(imyEvolve
Tree
p14
(dp15
g7
I1
sg8
(imyEvolve
Tree
p16
(dp17
g7
I0
sS'isConstant'
p18
I00
sbsS'right'
p19
(imyEvolve
Tree
p20
(dp21
g7
I0
sS'constant'
p22
F1.005750370815103
sg18
I01
sbsS'single'
p23
I00
sS'op'
p24
coperator
sub
p25
sbsg7
I2
sg23
I01
sg24
cmyEvolve
square
p26
sbsg7
I3
sg23
I01
sg24
cmath
sin
p27
sbsg19
(imyEvolve
Tree
p28
(dp29
g11
(imyEvolve
Tree
p30
(dp31
g7
I2
sg8
(imyEvolve
Tree
p32
(dp33
g7
I1
sg8
(imyEvolve
Tree
p34
(dp35
g7
I0
sg18
I00
sbsg19
(imyEvolve
Tree
p36
(dp37
g7
I0
sg18
I00
sbsg23
I00
sg24
coperator
add
p38
sbsg19
(imyEvolve
Tree
p39
(dp40
g7
I1
sg8
(imyEvolve
Tree
p41
(dp42
g7
I0
sg22
F0.22460142693000584
sg18
I01
sbsg19
(imyEvolve
Tree
p43
(dp44
g7
I0
sg18
I00
sbsg23
I00
sg24
g25
sbsg23
I00
sg24
g38
sbsg7
I3
sg23
I01
sg24
g26
sbsg23
I00
sg24
g38
sba(imyEvolve
Tree
p45
(dp46
g11
(imyEvolve
Tree
p47
(dp48
g7
I3
sg8
(imyEvolve
Tree
p49
(dp50
g7
I2
sg8
(imyEvolve
Tree
p51
(dp52
g7
I1
sg8
(imyEvolve
Tree
p53
(dp54
g7
I0
sg18
I00
sbsg19
(imyEvolve
Tree
p55
(dp56
g7
I0
sg22
F-4.224063810697255
sg18
I01
sbsg23
I00
sg24
coperator
mul
p57
sbsg19
(imyEvolve
Tree
p58
(dp59
g7
I1
sg8
(imyEvolve
Tree
p60
(dp61
g7
I0
sg22
F-4.96602280402737
sg18
I01
sbsg19
(imyEvolve
Tree
p62
(dp63
g7
I0
sg18
I00
sbsg23
I00
sg24
g38
sbsg23
I00
sg24
g38
sbsg19
(imyEvolve
Tree
p64
(dp65
g11
(imyEvolve
Tree
p66
(dp67
g7
I1
sg8
(imyEvolve
Tree
p68
(dp69
g7
I0
sg22
F-1.4823355148652837
sg18
I01
sbsg19
(imyEvolve
Tree
p70
(dp71
g7
I0
sg18
I00
sbsg23
I00
sg24
g25
sbsg7
I2
sg23
I01
sg24
g27
sbsg23
I00
sg24
g38
sbsg7
I4
sg23
I01
sg24
g27
sba(imyEvolve
Tree
p72
(dp73
g11
(imyEvolve
Tree
p74
(dp75
g7
I3
sg8
(imyEvolve
Tree
p76
(dp77
g11
(imyEvolve
Tree
p78
(dp79
g7
I1
sg8
(imyEvolve
Tree
p80
(dp81
g7
I0
sg18
I00
sbsg19
(imyEvolve
Tree
p82
(dp83
g7
I0
sg22
F2.8104631818473873
sg18
I01
sbsg23
I00
sg24
g57
sbsg7
I2
sg23
I01
sg24
g26
sbsg19
(imyEvolve
Tree
p84
(dp85
g7
I2
sg8
(imyEvolve
Tree
p86
(dp87
g7
I1
sg8
(imyEvolve
Tree
p88
(dp89
g7
I0
sg18
I00
sbsg19
(imyEvolve
Tree
p90
(dp91
g7
I0
sg18
I00
sbsg23
I00
sg24
g38
sbsg19
(imyEvolve
Tree
p92
(dp93
g11
(imyEvolve
Tree
p94
(dp95
g7
I0
sg18
I00
sbsg7
I1
sg23
I01
sg24
g26
sbsg23
I00
sg24
g57
sbsg23
I00
sg24
g25
sbsg7
I4
sg23
I01
sg24
g27
sba(imyEvolve
Tree
p96
(dp97
g11
(imyEvolve
Tree
p98
(dp99
g11
(imyEvolve
Tree
p100
(dp101
g7
I0
sg22
F-0.7854289172001847
sg18
I01
sbsg7
I1
sg23
I01
sg24
cmyEvolve
absSqrt
p102
sbsg7
I2
sg23
I01
sg24
g102
sba(imyEvolve
Tree
p103
(dp104
g11
(imyEvolve
Tree
p105
(dp106
g7
I4
sg8
(imyEvolve
Tree
p107
(dp108
g11
(imyEvolve
Tree
p109
(dp110
g11
(imyEvolve
Tree
p111
(dp112
g11
(imyEvolve
Tree
p113
(dp114
g7
I0
sg18
I00
sbsg7
I1
sg23
I01
sg24
cmath
cos
p115
sbsg7
I2
sg23
I01
sg24
g27
sbsg7
I3
sg23
I01
sg24
g115
sbsg19
(imyEvolve
Tree
p116
(dp117
g11
(imyEvolve
Tree
p118
(dp119
g7
I2
sg8
(imyEvolve
Tree
p120
(dp121
g7
I1
sg8
(imyEvolve
Tree
p122
(dp123
g7
I0
sg22
F1.0500849651688302
sg18
I01
sbsg19
(imyEvolve
Tree
p124
(dp125
g7
I0
sg22
F-4.728152334930639
sg18
I01
sbsg23
I00
sg24
g38
sbsg19
(imyEvolve
Tree
p126
(dp127
g11
(imyEvolve
Tree
p128
(dp129
g7
I0
sg18
I00
sbsg7
I1
sg23
I01
sg24
g115
sbsg23
I00
sg24
g25
sbsg7
I3
sg23
I01
sg24
g102
sbsg23
I00
sg24
g38
sbsg7
I5
sg23
I01
sg24
g26
sba(imyEvolve
Tree
p130
(dp131
g7
I5
sg8
(imyEvolve
Tree
p132
(dp133
g7
I4
sg8
(imyEvolve
Tree
p134
(dp135
g7
I3
sg8
(imyEvolve
Tree
p136
(dp137
g7
I2
sg8
(imyEvolve
Tree
p138
(dp139
g11
(imyEvolve
Tree
p140
(dp141
g7
I0
sg22
F-2.7311726106947223
sg18
I01
sbsg7
I1
sg23
I01
sg24
g27
sbsg19
(imyEvolve
Tree
p142
(dp143
g7
I1
sg8
(imyEvolve
Tree
p144
(dp145
g7
I0
sg22
F0.2345818194636884
sg18
I01
sbsg19
(imyEvolve
Tree
p146
(dp147
g7
I0
sg22
F-0.06291756580451757
sg18
I01
sbsg23
I00
sg24
g38
sbsg23
I00
sg24
g25
sbsg19
(imyEvolve
Tree
p148
(dp149
g11
(imyEvolve
Tree
p150
(dp151
g11
(imyEvolve
Tree
p152
(dp153
g7
I0
sg18
I00
sbsg7
I1
sg23
I01
sg24
g115
sbsg7
I2
sg23
I01
sg24
g115
sbsg23
I00
sg24
g57
sbsg19
(imyEvolve
Tree
p154
(dp155
g11
(imyEvolve
Tree
p156
(dp157
g7
I2
sg8
(imyEvolve
Tree
p158
(dp159
g11
(imyEvolve
Tree
p160
(dp161
g7
I0
sg18
I00
sbsg7
I1
sg23
I01
sg24
g26
sbsg19
(imyEvolve
Tree
p162
(dp163
g7
I1
sg8
(imyEvolve
Tree
p164
(dp165
g7
I0
sg22
F-2.641029066971756
sg18
I01
sbsg19
(imyEvolve
Tree
p166
(dp167
g7
I0
sg22
F4.987908269318456
sg18
I01
sbsg23
I00
sg24
g38
sbsg23
I00
sg24
g57
sbsg7
I3
sg23
I01
sg24
g26
sbsg23
I00
sg24
g38
sbsg19
(imyEvolve
Tree
p168
(dp169
g7
I4
sg8
(imyEvolve
Tree
p170
(dp171
g7
I3
sg8
(imyEvolve
Tree
p172
(dp173
g7
I2
sg8
(imyEvolve
Tree
p174
(dp175
g11
(imyEvolve
Tree
p176
(dp177
g7
I0
sg18
I00
sbsg7
I1
sg23
I01
sg24
g27
sbsg19
(imyEvolve
Tree
p178
(dp179
g11
(imyEvolve
Tree
p180
(dp181
g7
I0
sg22
F-3.7289405230270187
sg18
I01
sbsg7
I1
sg23
I01
sg24
g27
sbsg23
I00
sg24
g25
sbsg19
(imyEvolve
Tree
p182
(dp183
g7
I2
sg8
(imyEvolve
Tree
p184
(dp185
g7
I1
sg8
(imyEvolve
Tree
p186
(dp187
g7
I0
sg22
F3.97629137097249
sg18
I01
sbsg19
(imyEvolve
Tree
p188
(dp189
g7
I0
sg18
I00
sbsg23
I00
sg24
g38
sbsg19
(imyEvolve
Tree
p190
(dp191
g11
(imyEvolve
Tree
p192
(dp193
g7
I0
sg18
I00
sbsg7
I1
sg23
I01
sg24
g102
sbsg23
I00
sg24
g38
sbsg23
I00
sg24
g57
sbsg19
(imyEvolve
Tree
p194
(dp195
g11
(imyEvolve
Tree
p196
(dp197
g7
I2
sg8
(imyEvolve
Tree
p198
(dp199
g11
(imyEvolve
Tree
p200
(dp201
g7
I0
sg18
I00
sbsg7
I1
sg23
I01
sg24
g26
sbsg19
(imyEvolve
Tree
p202
(dp203
g7
I1
sg8
(imyEvolve
Tree
p204
(dp205
g7
I0
sg18
I00
sbsg19
(imyEvolve
Tree
p206
(dp207
g7
I0
sg22
F-0.8323475488250072
sg18
I01
sbsg23
I00
sg24
g25
sbsg23
I00
sg24
g57
sbsg7
I3
sg23
I01
sg24
g27
sbsg23
I00
sg24
g38
sbsg23
I00
sg24
g57
sba(imyEvolve
Tree
p208
(dp209
g11
(imyEvolve
Tree
p210
(dp211
g11
(imyEvolve
Tree
p212
(dp213
g7
I0
sg22
F3.2521458343725715
sg18
I01
sbsg7
I1
sg23
I01
sg24
g115
sbsg7
I2
sg23
I01
sg24
g102
sba(imyEvolve
Tree
p214
(dp215
g7
I2
sg8
(imyEvolve
Tree
p216
(dp217
g11
(imyEvolve
Tree
p218
(dp219
g7
I0
sg18
I00
sbsg7
I1
sg23
I01
sg24
g102
sbsg19
(imyEvolve
Tree
p220
(dp221
g11
(imyEvolve
Tree
p222
(dp223
g7
I0
sg18
I00
sbsg7
I1
sg23
I01
sg24
g27
sbsg23
I00
sg24
g38
sba(imyEvolve
Tree
p224
(dp225
g11
(imyEvolve
Tree
p226
(dp227
g11
(imyEvolve
Tree
p228
(dp229
g11
(imyEvolve
Tree
p230
(dp231
g7
I1
sg8
(imyEvolve
Tree
p232
(dp233
g7
I0
sg22
F-2.050550227253609
sg18
I01
sbsg19
(imyEvolve
Tree
p234
(dp235
g7
I0
sg18
I00
sbsg23
I00
sg24
g25
sbsg7
I2
sg23
I01
sg24
g26
sbsg7
I3
sg23
I01
sg24
g102
sbsg7
I4
sg23
I01
sg24
g27
sba(imyEvolve
Tree
p236
(dp237
g11
(imyEvolve
Tree
p238
(dp239
g11
(imyEvolve
Tree
p240
(dp241
g11
(imyEvolve
Tree
p242
(dp243
g7
I1
sg8
(imyEvolve
Tree
p244
(dp245
g7
I0
sg22
F-2.982301805063715
sg18
I01
sbsg19
(imyEvolve
Tree
p246
(dp247
g7
I0
sg22
F1.7321814373751643
sg18
I01
sbsg23
I00
sg24
g25
sbsg7
I2
sg23
I01
sg24
g27
sbsg7
I3
sg23
I01
sg24
g102
sbsg7
I4
sg23
I01
sg24
g102
sba(imyEvolve
Tree
p248
(dp249
g11
(imyEvolve
Tree
p250
(dp251
g7
I3
sg8
(imyEvolve
Tree
p252
(dp253
g7
I2
sg8
(imyEvolve
Tree
p254
(dp255
g11
(imyEvolve
Tree
p256
(dp257
g7
I0
sg22
F3.705715427874779
sg18
I01
sbsg7
I1
sg23
I01
sg24
g115
sbsg19
(imyEvolve
Tree
p258
(dp259
g7
I1
sg8
(imyEvolve
Tree
p260
(dp261
g7
I0
sg18
I00
sbsg19
(imyEvolve
Tree
p262
(dp263
g7
I0
sg22
F4.748234229081271
sg18
I01
sbsg23
I00
sg24
g25
sbsg23
I00
sg24
g57
sbsg19
(imyEvolve
Tree
p264
(dp265
g11
(imyEvolve
Tree
p266
(dp267
g7
I1
sg8
(imyEvolve
Tree
p268
(dp269
g7
I0
sg22
F4.216004314037644
sg18
I01
sbsg19
(imyEvolve
Tree
p270
(dp271
g7
I0
sg18
I00
sbsg23
I00
sg24
g25
sbsg7
I2
sg23
I01
sg24
g26
sbsg23
I00
sg24
g38
sbsg7
I4
sg23
I01
sg24
g115
sba(imyEvolve
Tree
p272
(dp273
g11
(imyEvolve
Tree
p274
(dp275
g11
(imyEvolve
Tree
p276
(dp277
g7
I0
sg18
I00
sbsg7
I1
sg23
I01
sg24
g26
sbsg7
I2
sg23
I01
sg24
g115
sba(imyEvolve
Tree
p278
(dp279
g11
(imyEvolve
Tree
p280
(dp281
g7
I3
sg8
(imyEvolve
Tree
p282
(dp283
g7
I2
sg8
(imyEvolve
Tree
p284
(dp285
g11
(imyEvolve
Tree
p286
(dp287
g7
I0
sg18
I00
sbsg7
I1
sg23
I01
sg24
g115
sbsg19
(imyEvolve
Tree
p288
(dp289
g11
(imyEvolve
Tree
p290
(dp291
g7
I0
sg22
F0.8820266266668577
sg18
I01
sbsg7
I1
sg23
I01
sg24
g115
sbsg23
I00
sg24
g25
sbsg19
(imyEvolve
Tree
p292
(dp293
g11
(imyEvolve
Tree
p294
(dp295
g7
I1
sg8
(imyEvolve
Tree
p296
(dp297
g7
I0
sg22
F-4.553099480308942
sg18
I01
sbsg19
(imyEvolve
Tree
p298
(dp299
g7
I0
sg18
I00
sbsg23
I00
sg24
g25
sbsg7
I2
sg23
I01
sg24
g26
sbsg23
I00
sg24
g57
sbsg7
I4
sg23
I01
sg24
g102
sbaa(lp300
(imyEvolve
Tree
p301
(dp302
g11
(imyEvolve
Tree
p303
(dp304
g11
(imyEvolve
Tree
p305
(dp306
g7
I0
sg22
F3.2670278275167846
sg18
I01
sbsg7
I1
sg23
I01
sg24
g26
sbsg7
I2
sg23
I01
sg24
g102
sba(imyEvolve
Tree
p307
(dp308
g11
(imyEvolve
Tree
p309
(dp310
g11
(imyEvolve
Tree
p311
(dp312
g7
I0
sg18
I00
sbsg7
I1
sg23
I01
sg24
g115
sbsg7
I2
sg23
I01
sg24
g26
sba(imyEvolve
Tree
p313
(dp314
g7
I3
sg8
(imyEvolve
Tree
p315
(dp316
g7
I2
sg8
(imyEvolve
Tree
p317
(dp318
g7
I1
sg8
(imyEvolve
Tree
p319
(dp320
g7
I0
sg22
F2.3510385103022937
sg18
I01
sbsg19
(imyEvolve
Tree
p321
(dp322
g7
I0
sg22
F0.38957781687290893
sg18
I01
sbsg23
I00
sg24
g57
sbsg19
(imyEvolve
Tree
p323
(dp324
g11
(imyEvolve
Tree
p325
(dp326
g7
I0
sg18
I00
sbsg7
I1
sg23
I01
sg24
g27
sbsg23
I00
sg24
g38
sbsg19
(imyEvolve
Tree
p327
(dp328
g7
I2
sg8
(imyEvolve
Tree
p329
(dp330
g7
I1
sg8
(imyEvolve
Tree
p331
(dp332
g7
I0
sg22
F-0.39963569149680467
sg18
I01
sbsg19
(imyEvolve
Tree
p333
(dp334
g7
I0
sg22
F-2.6685478775265583
sg18
I01
sbsg23
I00
sg24
g38
sbsg19
(imyEvolve
Tree
p335
(dp336
g7
I1
sg8
(imyEvolve
Tree
p337
(dp338
g7
I0
sg22
F1.206553401380976
sg18
I01
sbsg19
(imyEvolve
Tree
p339
(dp340
g7
I0
sg18
I00
sbsg23
I00
sg24
g25
sbsg23
I00
sg24
g57
sbsg23
I00
sg24
g38
sba(imyEvolve
Tree
p341
(dp342
g11
(imyEvolve
Tree
p343
(dp344
g11
(imyEvolve
Tree
p345
(dp346
g11
(imyEvolve
Tree
p347
(dp348
g11
(imyEvolve
Tree
p349
(dp350
g7
I0
sg18
I00
sbsg7
I1
sg23
I01
sg24
g115
sbsg7
I2
sg23
I01
sg24
g115
sbsg7
I3
sg23
I01
sg24
g102
sbsg7
I4
sg23
I01
sg24
g115
sba(imyEvolve
Tree
p351
(dp352
g7
I3
sg8
(imyEvolve
Tree
p353
(dp354
g11
(imyEvolve
Tree
p355
(dp356
g7
I1
sg8
(imyEvolve
Tree
p357
(dp358
g7
I0
sg22
F0.9182444365986333
sg18
I01
sbsg19
(imyEvolve
Tree
p359
(dp360
g7
I0
sg18
I00
sbsg23
I00
sg24
g38
sbsg7
I2
sg23
I01
sg24
g27
sbsg19
(imyEvolve
Tree
p361
(dp362
g11
(imyEvolve
Tree
p363
(dp364
g11
(imyEvolve
Tree
p365
(dp366
g7
I0
sg22
F-0.5014946755867022
sg18
I01
sbsg7
I1
sg23
I01
sg24
g102
sbsg7
I2
sg23
I01
sg24
g27
sbsg23
I00
sg24
g25
sba(imyEvolve
Tree
p367
(dp368
g7
I5
sg8
(imyEvolve
Tree
p369
(dp370
g11
(imyEvolve
Tree
p371
(dp372
g7
I3
sg8
(imyEvolve
Tree
p373
(dp374
g11
(imyEvolve
Tree
p375
(dp376
g11
(imyEvolve
Tree
p377
(dp378
g7
I0
sg22
F4.156484856660805
sg18
I01
sbsg7
I1
sg23
I01
sg24
g115
sbsg7
I2
sg23
I01
sg24
g115
sbsg19
(imyEvolve
Tree
p379
(dp380
g11
(imyEvolve
Tree
p381
(dp382
g11
(imyEvolve
Tree
p383
(dp384
g7
I0
sg22
F-1.208302906332622
sg18
I01
sbsg7
I1
sg23
I01
sg24
g115
sbsg7
I2
sg23
I01
sg24
g26
sbsg23
I00
sg24
g38
sbsg7
I4
sg23
I01
sg24
g115
sbsg19
(imyEvolve
Tree
p385
(dp386
g11
(imyEvolve
Tree
p387
(dp388
g7
I3
sg8
(imyEvolve
Tree
p389
(dp390
g7
I2
sg8
(imyEvolve
Tree
p391
(dp392
g11
(imyEvolve
Tree
p393
(dp394
g7
I0
sg22
F2.7811504833081973
sg18
I01
sbsg7
I1
sg23
I01
sg24
g102
sbsg19
(imyEvolve
Tree
p395
(dp396
g7
I1
sg8
(imyEvolve
Tree
p397
(dp398
g7
I0
sg22
F-1.725812304836296
sg18
I01
sbsg19
(imyEvolve
Tree
p399
(dp400
g7
I0
sg22
F0.6941344781077543
sg18
I01
sbsg23
I00
sg24
g38
sbsg23
I00
sg24
g38
sbsg19
(imyEvolve
Tree
p401
(dp402
g7
I2
sg8
(imyEvolve
Tree
p403
(dp404
g11
(imyEvolve
Tree
p405
(dp406
g7
I0
sg22
F-4.030665140044869
sg18
I01
sbsg7
I1
sg23
I01
sg24
g115
sbsg19
(imyEvolve
Tree
p407
(dp408
g11
(imyEvolve
Tree
p409
(dp410
g7
I0
sg18
I00
sbsg7
I1
sg23
I01
sg24
g27
sbsg23
I00
sg24
g57
sbsg23
I00
sg24
g57
sbsg7
I4
sg23
I01
sg24
g102
sbsg23
I00
sg24
g38
sba(imyEvolve
Tree
p411
(dp412
g11
(imyEvolve
Tree
p413
(dp414
g7
I3
sg8
(imyEvolve
Tree
p415
(dp416
g7
I2
sg8
(imyEvolve
Tree
p417
(dp418
g11
(imyEvolve
Tree
p419
(dp420
g7
I0
sg22
F-1.3524546146819585
sg18
I01
sbsg7
I1
sg23
I01
sg24
g115
sbsg19
(imyEvolve
Tree
p421
(dp422
g11
(imyEvolve
Tree
p423
(dp424
g7
I0
sg18
I00
sbsg7
I1
sg23
I01
sg24
g27
sbsg23
I00
sg24
g38
sbsg19
(imyEvolve
Tree
p425
(dp426
g11
(imyEvolve
Tree
p427
(dp428
g11
(imyEvolve
Tree
p429
(dp430
g7
I0
sg18
I00
sbsg7
I1
sg23
I01
sg24
g102
sbsg7
I2
sg23
I01
sg24
g115
sbsg23
I00
sg24
g57
sbsg7
I4
sg23
I01
sg24
g115
sba(imyEvolve
Tree
p431
(dp432
g7
I2
sg8
(imyEvolve
Tree
p433
(dp434
g7
I1
sg8
(imyEvolve
Tree
p435
(dp436
g7
I0
sg18
I00
sbsg19
(imyEvolve
Tree
p437
(dp438
g7
I0
sg18
I00
sbsg23
I00
sg24
g25
sbsg19
(imyEvolve
Tree
p439
(dp440
g11
(imyEvolve
Tree
p441
(dp442
g7
I0
sg18
I00
sbsg7
I1
sg23
I01
sg24
g102
sbsg23
I00
sg24
g25
sbaasS'weightSharing'
p443
(lp444
I01
aI00
aI00
asS'fitnessValid'
p445
I00
sS'fitness'
p446
cnumpy.core.multiarray
scalar
p447
(cnumpy
dtype
p448
(S'f8'
p449
I0
I1
tp450
Rp451
(I3
S'<'
p452
NNNI-1
I-1
I0
tp453
bS'\x00\x98L\x15tsI\xbf'
p454
tp455
Rp456
sS'alpha'
p457
F0.006018719664604352
sS'resolution'
p458
I62
sb.