(imyEvolve
Individual
p0
(dp1
S'funcs'
p2
(lp3
(lp4
(imyEvolve
Tree
p5
(dp6
S'depth'
p7
I3
sS'left'
p8
(imyEvolve
Tree
p9
(dp10
S'below'
p11
(imyEvolve
Tree
p12
(dp13
g7
I1
sg8
(imyEvolve
Tree
p14
(dp15
g7
I0
sS'isConstant'
p16
I00
sbsS'right'
p17
(imyEvolve
Tree
p18
(dp19
g7
I0
sS'constant'
p20
F3.0512194659195835
sg16
I01
sbsS'single'
p21
I00
sS'op'
p22
coperator
add
p23
sbsg7
I2
sg21
I01
sg22
cmyEvolve
square
p24
sbsg17
(imyEvolve
Tree
p25
(dp26
g11
(imyEvolve
Tree
p27
(dp28
g11
(imyEvolve
Tree
p29
(dp30
g7
I0
sg16
I00
sbsg7
I1
sg21
I01
sg22
cmath
sin
p31
sbsg7
I2
sg21
I01
sg22
g31
sbsg21
I00
sg22
coperator
sub
p32
sba(imyEvolve
Tree
p33
(dp34
g7
I3
sg8
(imyEvolve
Tree
p35
(dp36
g7
I2
sg8
(imyEvolve
Tree
p37
(dp38
g7
I1
sg8
(imyEvolve
Tree
p39
(dp40
g7
I0
sg16
I00
sbsg17
(imyEvolve
Tree
p41
(dp42
g7
I0
sg20
F-0.20698689913066026
sg16
I01
sbsg21
I00
sg22
coperator
mul
p43
sbsg17
(imyEvolve
Tree
p44
(dp45
g11
(imyEvolve
Tree
p46
(dp47
g7
I0
sg16
I00
sbsg7
I1
sg21
I01
sg22
cmyEvolve
absSqrt
p48
sbsg21
I00
sg22
g32
sbsg17
(imyEvolve
Tree
p49
(dp50
g11
(imyEvolve
Tree
p51
(dp52
g7
I1
sg8
(imyEvolve
Tree
p53
(dp54
g7
I0
sg16
I00
sbsg17
(imyEvolve
Tree
p55
(dp56
g7
I0
sg16
I00
sbsg21
I00
sg22
g23
sbsg7
I2
sg21
I01
sg22
cmath
cos
p57
sbsg21
I00
sg22
g43
sba(imyEvolve
Tree
p58
(dp59
g8
(imyEvolve
Tree
p60
(dp61
g8
(imyEvolve
Tree
p62
(dp63
g11
(imyEvolve
Tree
p64
(dp65
g7
I0
sg16
I00
sbsg7
I1
sg21
I01
sg22
g24
sbsg7
I2
sg17
(imyEvolve
Tree
p66
(dp67
g8
(imyEvolve
Tree
p68
(dp69
g7
I0
sg20
F-3.032380191598122
sg16
I01
sbsg7
I1
sg17
(imyEvolve
Tree
p70
(dp71
g7
I0
sg16
I00
sbsg21
I00
sg22
g23
sbsg21
I00
sg22
g23
sbsg7
I3
sg17
(imyEvolve
Tree
p72
(dp73
g11
(imyEvolve
Tree
p74
(dp75
g8
(imyEvolve
Tree
p76
(dp77
g7
I0
sg20
F-1.8707328902086218
sg16
I01
sbsg7
I1
sg17
(imyEvolve
Tree
p78
(dp79
g7
I0
sg16
I00
sbsg21
I00
sg22
g43
sbsg7
I2
sg21
I01
sg22
g57
sbsg21
I00
sg22
g32
sba(imyEvolve
Tree
p80
(dp81
g11
(imyEvolve
Tree
p82
(dp83
g11
(imyEvolve
Tree
p84
(dp85
g7
I0
sg16
I00
sbsg7
I1
sg21
I01
sg22
g31
sbsg7
I2
sg21
I01
sg22
g48
sba(imyEvolve
Tree
p86
(dp87
g11
(imyEvolve
Tree
p88
(dp89
g11
(imyEvolve
Tree
p90
(dp91
g11
(imyEvolve
Tree
p92
(dp93
g8
(imyEvolve
Tree
p94
(dp95
g11
(imyEvolve
Tree
p96
(dp97
g7
I0
sg16
I00
sbsg7
I1
sg21
I01
sg22
g31
sbsg7
I2
sg17
(imyEvolve
Tree
p98
(dp99
g8
(imyEvolve
Tree
p100
(dp101
g7
I0
sg16
I00
sbsg7
I1
sg17
(imyEvolve
Tree
p102
(dp103
g7
I0
sg20
F-4.766103049801055
sg16
I01
sbsg21
I00
sg22
g32
sbsg21
I00
sg22
g43
sbsg7
I3
sg21
I01
sg22
g48
sbsg7
I4
sg21
I01
sg22
g24
sbsg7
I5
sg21
I01
sg22
g57
sba(imyEvolve
Tree
p104
(dp105
g8
(imyEvolve
Tree
p106
(dp107
g11
(imyEvolve
Tree
p108
(dp109
g11
(imyEvolve
Tree
p110
(dp111
g7
I0
sg16
I00
sbsg7
I1
sg21
I01
sg22
g24
sbsg7
I2
sg21
I01
sg22
g31
sbsg7
I3
sg17
(imyEvolve
Tree
p112
(dp113
g11
(imyEvolve
Tree
p114
(dp115
g8
(imyEvolve
Tree
p116
(dp117
g7
I0
sg20
F-3.763745197392746
sg16
I01
sbsg7
I1
sg17
(imyEvolve
Tree
p118
(dp119
g7
I0
sg16
I00
sbsg21
I00
sg22
g23
sbsg7
I2
sg21
I01
sg22
g31
sbsg21
I00
sg22
g23
sba(imyEvolve
Tree
p120
(dp121
g11
(imyEvolve
Tree
p122
(dp123
g8
(imyEvolve
Tree
p124
(dp125
g8
(imyEvolve
Tree
p126
(dp127
g7
I0
sg16
I00
sbsg7
I1
sg17
(imyEvolve
Tree
p128
(dp129
g7
I0
sg20
F-0.0749424781434147
sg16
I01
sbsg21
I00
sg22
g32
sbsg7
I2
sg17
(imyEvolve
Tree
p130
(dp131
g8
(imyEvolve
Tree
p132
(dp133
g7
I0
sg20
F4.875160664368265
sg16
I01
sbsg7
I1
sg17
(imyEvolve
Tree
p134
(dp135
g7
I0
sg16
I00
sbsg21
I00
sg22
g23
sbsg21
I00
sg22
g32
sbsg7
I3
sg21
I01
sg22
g31
sba(imyEvolve
Tree
p136
(dp137
g8
(imyEvolve
Tree
p138
(dp139
g11
(imyEvolve
Tree
p140
(dp141
g11
(imyEvolve
Tree
p142
(dp143
g7
I0
sg16
I00
sbsg7
I1
sg21
I01
sg22
g24
sbsg7
I2
sg21
I01
sg22
g31
sbsg7
I3
sg17
(imyEvolve
Tree
p144
(dp145
g11
(imyEvolve
Tree
p146
(dp147
g8
(imyEvolve
Tree
p148
(dp149
g7
I0
sg16
I00
sbsg7
I1
sg17
(imyEvolve
Tree
p150
(dp151
g7
I0
sg16
I00
sbsg21
I00
sg22
g43
sbsg7
I2
sg21
I01
sg22
g31
sbsg21
I00
sg22
g32
sba(imyEvolve
Tree
p152
(dp153
g7
I3
sg8
(imyEvolve
Tree
p154
(dp155
g7
I2
sg8
(imyEvolve
Tree
p156
(dp157
g11
(imyEvolve
Tree
p158
(dp159
g7
I0
sg20
F3.7973584928544746
sg16
I01
sbsg7
I1
sg21
I01
sg22
g48
sbsg17
(imyEvolve
Tree
p160
(dp161
g11
(imyEvolve
Tree
p162
(dp163
g7
I0
sg16
I00
sbsg7
I1
sg21
I01
sg22
g31
sbsg21
I00
sg22
g32
sbsg17
(imyEvolve
Tree
p164
(dp165
g11
(imyEvolve
Tree
p166
(dp167
g7
I1
sg8
(imyEvolve
Tree
p168
(dp169
g7
I0
sg16
I00
sbsg17
(imyEvolve
Tree
p170
(dp171
g7
I0
sg16
I00
sbsg21
I00
sg22
g32
sbsg7
I2
sg21
I01
sg22
g57
sbsg21
I00
sg22
g32
sba(imyEvolve
Tree
p172
(dp173
g11
(imyEvolve
Tree
p174
(dp175
g8
(imyEvolve
Tree
p176
(dp177
g11
(imyEvolve
Tree
p178
(dp179
g8
(imyEvolve
Tree
p180
(dp181
g7
I0
sg20
F-3.5783751244498108
sg16
I01
sbsg7
I1
sg17
(imyEvolve
Tree
p182
(dp183
g7
I0
sg20
F2.6726658889832677
sg16
I01
sbsg21
I00
sg22
g43
sbsg7
I2
sg21
I01
sg22
g24
sbsg7
I3
sg17
(imyEvolve
Tree
p184
(dp185
g11
(imyEvolve
Tree
p186
(dp187
g11
(imyEvolve
Tree
p188
(dp189
g7
I0
sg16
I00
sbsg7
I1
sg21
I01
sg22
g48
sbsg7
I2
sg21
I01
sg22
g48
sbsg21
I00
sg22
g32
sbsg7
I4
sg21
I01
sg22
g31
sba(imyEvolve
Tree
p190
(dp191
g11
(imyEvolve
Tree
p192
(dp193
g8
(imyEvolve
Tree
p194
(dp195
g11
(imyEvolve
Tree
p196
(dp197
g8
(imyEvolve
Tree
p198
(dp199
g8
(imyEvolve
Tree
p200
(dp201
g7
I0
sg16
I00
sbsg7
I1
sg17
(imyEvolve
Tree
p202
(dp203
g7
I0
sg20
F-0.06953895828225054
sg16
I01
sbsg21
I00
sg22
g32
sbsg7
I2
sg17
(imyEvolve
Tree
p204
(dp205
g11
(imyEvolve
Tree
p206
(dp207
g7
I0
sg16
I00
sbsg7
I1
sg21
I01
sg22
g31
sbsg21
I00
sg22
g43
sbsg7
I3
sg21
I01
sg22
g24
sbsg7
I4
sg17
(imyEvolve
Tree
p208
(dp209
g11
(imyEvolve
Tree
p210
(dp211
g8
(imyEvolve
Tree
p212
(dp213
g8
(imyEvolve
Tree
p214
(dp215
g7
I0
sg20
F2.48718777464293
sg16
I01
sbsg7
I1
sg17
(imyEvolve
Tree
p216
(dp217
g7
I0
sg20
F2.208156005380709
sg16
I01
sbsg21
I00
sg22
g23
sbsg7
I2
sg17
(imyEvolve
Tree
p218
(dp219
g11
(imyEvolve
Tree
p220
(dp221
g7
I0
sg20
F-1.8756103928723844
sg16
I01
sbsg7
I1
sg21
I01
sg22
g48
sbsg21
I00
sg22
g32
sbsg7
I3
sg21
I01
sg22
g57
sbsg21
I00
sg22
g43
sbsg7
I5
sg21
I01
sg22
g57
sba(imyEvolve
Tree
p222
(dp223
g8
(imyEvolve
Tree
p224
(dp225
g8
(imyEvolve
Tree
p226
(dp227
g8
(imyEvolve
Tree
p228
(dp229
g7
I0
sg16
I00
sbsg7
I1
sg17
(imyEvolve
Tree
p230
(dp231
g7
I0
sg16
I00
sbsg21
I00
sg22
g43
sbsg7
I2
sg17
(imyEvolve
Tree
p232
(dp233
g8
(imyEvolve
Tree
p234
(dp235
g7
I0
sg20
F-2.743077610343846
sg16
I01
sbsg7
I1
sg17
(imyEvolve
Tree
p236
(dp237
g7
I0
sg20
F3.283815050504437
sg16
I01
sbsg21
I00
sg22
g32
sbsg21
I00
sg22
g32
sbsg7
I3
sg17
(imyEvolve
Tree
p238
(dp239
g8
(imyEvolve
Tree
p240
(dp241
g8
(imyEvolve
Tree
p242
(dp243
g7
I0
sg16
I00
sbsg7
I1
sg17
(imyEvolve
Tree
p244
(dp245
g7
I0
sg16
I00
sbsg21
I00
sg22
g43
sbsg7
I2
sg17
(imyEvolve
Tree
p246
(dp247
g11
(imyEvolve
Tree
p248
(dp249
g7
I0
sg20
F0.9294295887408701
sg16
I01
sbsg7
I1
sg21
I01
sg22
g48
sbsg21
I00
sg22
g23
sbsg21
I00
sg22
g23
sba(imyEvolve
Tree
p250
(dp251
g8
(imyEvolve
Tree
p252
(dp253
g11
(imyEvolve
Tree
p254
(dp255
g11
(imyEvolve
Tree
p256
(dp257
g11
(imyEvolve
Tree
p258
(dp259
g11
(imyEvolve
Tree
p260
(dp261
g7
I0
sg16
I00
sbsg7
I1
sg21
I01
sg22
g31
sbsg7
I2
sg21
I01
sg22
g48
sbsg7
I3
sg21
I01
sg22
g48
sbsg7
I4
sg21
I01
sg22
g31
sbsg7
I5
sg17
(imyEvolve
Tree
p262
(dp263
g8
(imyEvolve
Tree
p264
(dp265
g8
(imyEvolve
Tree
p266
(dp267
g8
(imyEvolve
Tree
p268
(dp269
g11
(imyEvolve
Tree
p270
(dp271
g7
I0
sg20
F-0.3339038047524001
sg16
I01
sbsg7
I1
sg21
I01
sg22
g24
sbsg7
I2
sg17
(imyEvolve
Tree
p272
(dp273
g11
(imyEvolve
Tree
p274
(dp275
g7
I0
sg16
I00
sbsg7
I1
sg21
I01
sg22
g31
sbsg21
I00
sg22
g32
sbsg7
I3
sg17
(imyEvolve
Tree
p276
(dp277
g11
(imyEvolve
Tree
p278
(dp279
g11
(imyEvolve
Tree
p280
(dp281
g7
I0
sg16
I00
sbsg7
I1
sg21
I01
sg22
g24
sbsg7
I2
sg21
I01
sg22
g24
sbsg21
I00
sg22
g23
sbsg7
I4
sg17
(imyEvolve
Tree
p282
(dp283
g11
(imyEvolve
Tree
p284
(dp285
g8
(imyEvolve
Tree
p286
(dp287
g8
(imyEvolve
Tree
p288
(dp289
g7
I0
sg16
I00
sbsg7
I1
sg17
(imyEvolve
Tree
p290
(dp291
g7
I0
sg16
I00
sbsg21
I00
sg22
g32
sbsg7
I2
sg17
(imyEvolve
Tree
p292
(dp293
g11
(imyEvolve
Tree
p294
(dp295
g7
I0
sg16
I00
sbsg7
I1
sg21
I01
sg22
g48
sbsg21
I00
sg22
g43
sbsg7
I3
sg21
I01
sg22
g31
sbsg21
I00
sg22
g32
sbsg21
I00
sg22
g23
sba(imyEvolve
Tree
p296
(dp297
g11
(imyEvolve
Tree
p298
(dp299
g8
(imyEvolve
Tree
p300
(dp301
g8
(imyEvolve
Tree
p302
(dp303
g11
(imyEvolve
Tree
p304
(dp305
g7
I0
sg16
I00
sbsg7
I1
sg21
I01
sg22
g48
sbsg7
I2
sg17
(imyEvolve
Tree
p306
(dp307
g11
(imyEvolve
Tree
p308
(dp309
g7
I0
sg20
F1.7539509873770154
sg16
I01
sbsg7
I1
sg21
I01
sg22
g24
sbsg21
I00
sg22
g43
sbsg7
I3
sg17
(imyEvolve
Tree
p310
(dp311
g11
(imyEvolve
Tree
p312
(dp313
g8
(imyEvolve
Tree
p314
(dp315
g7
I0
sg16
I00
sbsg7
I1
sg17
(imyEvolve
Tree
p316
(dp317
g7
I0
sg16
I00
sbsg21
I00
sg22
g32
sbsg7
I2
sg21
I01
sg22
g24
sbsg21
I00
sg22
g32
sbsg7
I4
sg21
I01
sg22
g48
sba(imyEvolve
Tree
p318
(dp319
g11
(imyEvolve
Tree
p320
(dp321
g11
(imyEvolve
Tree
p322
(dp323
g11
(imyEvolve
Tree
p324
(dp325
g11
(imyEvolve
Tree
p326
(dp327
g7
I0
sg16
I00
sbsg7
I1
sg21
I01
sg22
g24
sbsg7
I2
sg21
I01
sg22
g57
sbsg7
I3
sg21
I01
sg22
g48
sbsg7
I4
sg21
I01
sg22
g57
sbaa(lp328
(imyEvolve
Tree
p329
(dp330
g7
I4
sg8
(imyEvolve
Tree
p331
(dp332
g11
(imyEvolve
Tree
p333
(dp334
g11
(imyEvolve
Tree
p335
(dp336
g7
I1
sg8
(imyEvolve
Tree
p337
(dp338
g7
I0
sg20
F-1.1251176059563637
sg16
I01
sbsg17
(imyEvolve
Tree
p339
(dp340
g7
I0
sg16
I00
sbsg21
I00
sg22
g32
sbsg7
I2
sg21
I01
sg22
g57
sbsg7
I3
sg21
I01
sg22
g24
sbsg17
(imyEvolve
Tree
p341
(dp342
g7
I3
sg8
(imyEvolve
Tree
p343
(dp344
g7
I2
sg8
(imyEvolve
Tree
p345
(dp346
g11
(imyEvolve
Tree
p347
(dp348
g7
I0
sg20
F0.3042326196935141
sg16
I01
sbsg7
I1
sg21
I01
sg22
g31
sbsg17
(imyEvolve
Tree
p349
(dp350
g11
(imyEvolve
Tree
p351
(dp352
g7
I0
sg20
F-1.5544483316392
sg16
I01
sbsg7
I1
sg21
I01
sg22
g48
sbsg21
I00
sg22
g32
sbsg17
(imyEvolve
Tree
p353
(dp354
g7
I2
sg8
(imyEvolve
Tree
p355
(dp356
g7
I1
sg8
(imyEvolve
Tree
p357
(dp358
g7
I0
sg20
F-2.8989730086481136
sg16
I01
sbsg17
(imyEvolve
Tree
p359
(dp360
g7
I0
sg20
F-4.557480678853889
sg16
I01
sbsg21
I00
sg22
g23
sbsg17
(imyEvolve
Tree
p361
(dp362
g11
(imyEvolve
Tree
p363
(dp364
g7
I0
sg20
F4.8800167681288364
sg16
I01
sbsg7
I1
sg21
I01
sg22
g31
sbsg21
I00
sg22
g43
sbsg21
I00
sg22
g23
sbsg21
I00
sg22
g23
sba(imyEvolve
Tree
p365
(dp366
g11
(imyEvolve
Tree
p367
(dp368
g11
(imyEvolve
Tree
p369
(dp370
g7
I0
sg20
F4.321177834217041
sg16
I01
sbsg7
I1
sg21
I01
sg22
g31
sbsg7
I2
sg21
I01
sg22
g57
sba(imyEvolve
Tree
p371
(dp372
g11
(imyEvolve
Tree
p373
(dp374
g11
(imyEvolve
Tree
p375
(dp376
g11
(imyEvolve
Tree
p377
(dp378
g11
(imyEvolve
Tree
p379
(dp380
g11
(imyEvolve
Tree
p381
(dp382
g7
I0
sg20
F-0.5292210195605289
sg16
I01
sbsg7
I1
sg21
I01
sg22
g24
sbsg7
I2
sg21
I01
sg22
g24
sbsg7
I3
sg21
I01
sg22
g48
sbsg7
I4
sg21
I01
sg22
g31
sbsg7
I5
sg21
I01
sg22
g48
sba(imyEvolve
Tree
p383
(dp384
g11
(imyEvolve
Tree
p385
(dp386
g8
(imyEvolve
Tree
p387
(dp388
g11
(imyEvolve
Tree
p389
(dp390
g8
(imyEvolve
Tree
p391
(dp392
g8
(imyEvolve
Tree
p393
(dp394
g7
I0
sg20
F4.501624481026063
sg16
I01
sbsg7
I1
sg17
(imyEvolve
Tree
p395
(dp396
g7
I0
sg20
F1.3137790738959847
sg16
I01
sbsg21
I00
sg22
g43
sbsg7
I2
sg17
(imyEvolve
Tree
p397
(dp398
g8
(imyEvolve
Tree
p399
(dp400
g7
I0
sg16
I00
sbsg7
I1
sg17
(imyEvolve
Tree
p401
(dp402
g7
I0
sg20
F4.671861384209839
sg16
I01
sbsg21
I00
sg22
g32
sbsg21
I00
sg22
g43
sbsg7
I3
sg21
I01
sg22
g24
sbsg7
I4
sg17
(imyEvolve
Tree
p403
(dp404
g11
(imyEvolve
Tree
p405
(dp406
g8
(imyEvolve
Tree
p407
(dp408
g11
(imyEvolve
Tree
p409
(dp410
g7
I0
sg20
F4.579144577383429
sg16
I01
sbsg7
I1
sg21
I01
sg22
g24
sbsg7
I2
sg17
(imyEvolve
Tree
p411
(dp412
g11
(imyEvolve
Tree
p413
(dp414
g7
I0
sg16
I00
sbsg7
I1
sg21
I01
sg22
g31
sbsg21
I00
sg22
g23
sbsg7
I3
sg21
I01
sg22
g57
sbsg21
I00
sg22
g23
sbsg7
I5
sg21
I01
sg22
g31
sba(imyEvolve
Tree
p415
(dp416
g8
(imyEvolve
Tree
p417
(dp418
g8
(imyEvolve
Tree
p419
(dp420
g7
I0
sg16
I00
sbsg7
I1
sg17
(imyEvolve
Tree
p421
(dp422
g7
I0
sg20
F-4.5864258147774075
sg16
I01
sbsg21
I00
sg22
g23
sbsg7
I2
sg17
(imyEvolve
Tree
p423
(dp424
g11
(imyEvolve
Tree
p425
(dp426
g7
I0
sg20
F-3.8022819772201077
sg16
I01
sbsg7
I1
sg21
I01
sg22
g24
sbsg21
I00
sg22
g32
sba(imyEvolve
Tree
p427
(dp428
g11
(imyEvolve
Tree
p429
(dp430
g11
(imyEvolve
Tree
p431
(dp432
g8
(imyEvolve
Tree
p433
(dp434
g11
(imyEvolve
Tree
p435
(dp436
g8
(imyEvolve
Tree
p437
(dp438
g7
I0
sg16
I00
sbsg7
I1
sg17
(imyEvolve
Tree
p439
(dp440
g7
I0
sg16
I00
sbsg21
I00
sg22
g32
sbsg7
I2
sg21
I01
sg22
g31
sbsg7
I3
sg17
(imyEvolve
Tree
p441
(dp442
g11
(imyEvolve
Tree
p443
(dp444
g11
(imyEvolve
Tree
p445
(dp446
g7
I0
sg16
I00
sbsg7
I1
sg21
I01
sg22
g24
sbsg7
I2
sg21
I01
sg22
g31
sbsg21
I00
sg22
g32
sbsg7
I4
sg21
I01
sg22
g48
sbsg7
I5
sg21
I01
sg22
g48
sba(imyEvolve
Tree
p447
(dp448
g7
I5
sg8
(imyEvolve
Tree
p449
(dp450
g11
(imyEvolve
Tree
p451
(dp452
g11
(imyEvolve
Tree
p453
(dp454
g7
I2
sg8
(imyEvolve
Tree
p455
(dp456
g11
(imyEvolve
Tree
p457
(dp458
g7
I0
sg20
F0.24854477247033824
sg16
I01
sbsg7
I1
sg21
I01
sg22
g57
sbsg17
(imyEvolve
Tree
p459
(dp460
g7
I1
sg8
(imyEvolve
Tree
p461
(dp462
g7
I0
sg16
I00
sbsg17
(imyEvolve
Tree
p463
(dp464
g7
I0
sg16
I00
sbsg21
I00
sg22
g23
sbsg21
I00
sg22
g43
sbsg7
I3
sg21
I01
sg22
g31
sbsg7
I4
sg21
I01
sg22
g31
sbsg17
(imyEvolve
Tree
p465
(dp466
g7
I4
sg8
(imyEvolve
Tree
p467
(dp468
g7
I3
sg8
(imyEvolve
Tree
p469
(dp470
g11
(imyEvolve
Tree
p471
(dp472
g11
(imyEvolve
Tree
p473
(dp474
g7
I0
sg16
I00
sbsg7
I1
sg21
I01
sg22
g31
sbsg7
I2
sg21
I01
sg22
g31
sbsg17
(imyEvolve
Tree
p475
(dp476
g11
(imyEvolve
Tree
p477
(dp478
g11
(imyEvolve
Tree
p479
(dp480
g7
I0
sg20
F-2.7587719778609077
sg16
I01
sbsg7
I1
sg21
I01
sg22
g24
sbsg7
I2
sg21
I01
sg22
g57
sbsg21
I00
sg22
g23
sbsg17
(imyEvolve
Tree
p481
(dp482
g11
(imyEvolve
Tree
p483
(dp484
g7
I2
sg8
(imyEvolve
Tree
p485
(dp486
g11
(imyEvolve
Tree
p487
(dp488
g7
I0
sg16
I00
sbsg7
I1
sg21
I01
sg22
g57
sbsg17
(imyEvolve
Tree
p489
(dp490
g7
I1
sg8
(imyEvolve
Tree
p491
(dp492
g7
I0
sg16
I00
sbsg17
(imyEvolve
Tree
p493
(dp494
g7
I0
sg16
I00
sbsg21
I00
sg22
g43
sbsg21
I00
sg22
g23
sbsg7
I3
sg21
I01
sg22
g31
sbsg21
I00
sg22
g43
sbsg21
I00
sg22
g23
sba(imyEvolve
Tree
p495
(dp496
g7
I2
sg8
(imyEvolve
Tree
p497
(dp498
g11
(imyEvolve
Tree
p499
(dp500
g7
I0
sg16
I00
sbsg7
I1
sg21
I01
sg22
g24
sbsg17
(imyEvolve
Tree
p501
(dp502
g7
I1
sg8
(imyEvolve
Tree
p503
(dp504
g7
I0
sg16
I00
sbsg17
(imyEvolve
Tree
p505
(dp506
g7
I0
sg16
I00
sbsg21
I00
sg22
g43
sbsg21
I00
sg22
g43
sba(imyEvolve
Tree
p507
(dp508
g11
(imyEvolve
Tree
p509
(dp510
g8
(imyEvolve
Tree
p511
(dp512
g11
(imyEvolve
Tree
p513
(dp514
g11
(imyEvolve
Tree
p515
(dp516
g8
(imyEvolve
Tree
p517
(dp518
g7
I0
sg16
I00
sbsg7
I1
sg17
(imyEvolve
Tree
p519
(dp520
g7
I0
sg16
I00
sbsg21
I00
sg22
g32
sbsg7
I2
sg21
I01
sg22
g57
sbsg7
I3
sg21
I01
sg22
g48
sbsg7
I4
sg17
(imyEvolve
Tree
p521
(dp522
g8
(imyEvolve
Tree
p523
(dp524
g8
(imyEvolve
Tree
p525
(dp526
g8
(imyEvolve
Tree
p527
(dp528
g7
I0
sg16
I00
sbsg7
I1
sg17
(imyEvolve
Tree
p529
(dp530
g7
I0
sg20
F1.742286706766051
sg16
I01
sbsg21
I00
sg22
g43
sbsg7
I2
sg17
(imyEvolve
Tree
p531
(dp532
g11
(imyEvolve
Tree
p533
(dp534
g7
I0
sg20
F-1.2066092056768971
sg16
I01
sbsg7
I1
sg21
I01
sg22
g48
sbsg21
I00
sg22
g23
sbsg7
I3
sg17
(imyEvolve
Tree
p535
(dp536
g11
(imyEvolve
Tree
p537
(dp538
g11
(imyEvolve
Tree
p539
(dp540
g7
I0
sg20
F-3.9375053448004307
sg16
I01
sbsg7
I1
sg21
I01
sg22
g57
sbsg7
I2
sg21
I01
sg22
g24
sbsg21
I00
sg22
g43
sbsg21
I00
sg22
g32
sbsg7
I5
sg21
I01
sg22
g57
sba(imyEvolve
Tree
p541
(dp542
g8
(imyEvolve
Tree
p543
(dp544
g8
(imyEvolve
Tree
p545
(dp546
g8
(imyEvolve
Tree
p547
(dp548
g11
(imyEvolve
Tree
p549
(dp550
g7
I0
sg16
I00
sbsg7
I1
sg21
I01
sg22
g24
sbsg7
I2
sg17
(imyEvolve
Tree
p551
(dp552
g11
(imyEvolve
Tree
p553
(dp554
g7
I0
sg16
I00
sbsg7
I1
sg21
I01
sg22
g31
sbsg21
I00
sg22
g23
sbsg7
I3
sg17
(imyEvolve
Tree
p555
(dp556
g8
(imyEvolve
Tree
p557
(dp558
g8
(imyEvolve
Tree
p559
(dp560
g7
I0
sg20
F4.589783532565184
sg16
I01
sbsg7
I1
sg17
(imyEvolve
Tree
p561
(dp562
g7
I0
sg20
F4.506355044068233
sg16
I01
sbsg21
I00
sg22
g32
sbsg7
I2
sg17
(imyEvolve
Tree
p563
(dp564
g8
(imyEvolve
Tree
p565
(dp566
g7
I0
sg20
F0.3966439209885406
sg16
I01
sbsg7
I1
sg17
(imyEvolve
Tree
p567
(dp568
g7
I0
sg20
F-1.1413834172911197
sg16
I01
sbsg21
I00
sg22
g32
sbsg21
I00
sg22
g32
sbsg21
I00
sg22
g32
sbsg7
I4
sg17
(imyEvolve
Tree
p569
(dp570
g11
(imyEvolve
Tree
p571
(dp572
g8
(imyEvolve
Tree
p573
(dp574
g8
(imyEvolve
Tree
p575
(dp576
g7
I0
sg16
I00
sbsg7
I1
sg17
(imyEvolve
Tree
p577
(dp578
g7
I0
sg16
I00
sbsg21
I00
sg22
g23
sbsg7
I2
sg17
(imyEvolve
Tree
p579
(dp580
g8
(imyEvolve
Tree
p581
(dp582
g7
I0
sg20
F-4.176226819191146
sg16
I01
sbsg7
I1
sg17
(imyEvolve
Tree
p583
(dp584
g7
I0
sg20
F-3.072843717746844
sg16
I01
sbsg21
I00
sg22
g23
sbsg21
I00
sg22
g23
sbsg7
I3
sg21
I01
sg22
g24
sbsg21
I00
sg22
g43
sba(imyEvolve
Tree
p585
(dp586
g11
(imyEvolve
Tree
p587
(dp588
g11
(imyEvolve
Tree
p589
(dp590
g7
I0
sg16
I00
sbsg7
I1
sg21
I01
sg22
g31
sbsg7
I2
sg21
I01
sg22
g48
sba(imyEvolve
Tree
p591
(dp592
g8
(imyEvolve
Tree
p593
(dp594
g11
(imyEvolve
Tree
p595
(dp596
g8
(imyEvolve
Tree
p597
(dp598
g7
I0
sg20
F2.321494126619731
sg16
I01
sbsg7
I1
sg17
(imyEvolve
Tree
p599
(dp600
g7
I0
sg16
I00
sbsg21
I00
sg22
g43
sbsg7
I2
sg21
I01
sg22
g24
sbsg7
I3
sg17
(imyEvolve
Tree
p601
(dp602
g8
(imyEvolve
Tree
p603
(dp604
g8
(imyEvolve
Tree
p605
(dp606
g7
I0
sg20
F4.146970879339333
sg16
I01
sbsg7
I1
sg17
(imyEvolve
Tree
p607
(dp608
g7
I0
sg16
I00
sbsg21
I00
sg22
g32
sbsg7
I2
sg17
(imyEvolve
Tree
p609
(dp610
g8
(imyEvolve
Tree
p611
(dp612
g7
I0
sg16
I00
sbsg7
I1
sg17
(imyEvolve
Tree
p613
(dp614
g7
I0
sg16
I00
sbsg21
I00
sg22
g23
sbsg21
I00
sg22
g23
sbsg21
I00
sg22
g43
sba(imyEvolve
Tree
p615
(dp616
g11
(imyEvolve
Tree
p617
(dp618
g8
(imyEvolve
Tree
p619
(dp620
g11
(imyEvolve
Tree
p621
(dp622
g8
(imyEvolve
Tree
p623
(dp624
g8
(imyEvolve
Tree
p625
(dp626
g7
I0
sg20
F0.5511436931047857
sg16
I01
sbsg7
I1
sg17
(imyEvolve
Tree
p627
(dp628
g7
I0
sg20
F-2.5696910390620054
sg16
I01
sbsg21
I00
sg22
g32
sbsg7
I2
sg17
(imyEvolve
Tree
p629
(dp630
g11
(imyEvolve
Tree
p631
(dp632
g7
I0
sg20
F-0.5505085284148006
sg16
I01
sbsg7
I1
sg21
I01
sg22
g24
sbsg21
I00
sg22
g32
sbsg7
I3
sg21
I01
sg22
g24
sbsg7
I4
sg17
(imyEvolve
Tree
p633
(dp634
g11
(imyEvolve
Tree
p635
(dp636
g8
(imyEvolve
Tree
p637
(dp638
g8
(imyEvolve
Tree
p639
(dp640
g7
I0
sg16
I00
sbsg7
I1
sg17
(imyEvolve
Tree
p641
(dp642
g7
I0
sg20
F1.4226051635491297
sg16
I01
sbsg21
I00
sg22
g32
sbsg7
I2
sg17
(imyEvolve
Tree
p643
(dp644
g11
(imyEvolve
Tree
p645
(dp646
g7
I0
sg20
F-0.5949524360961753
sg16
I01
sbsg7
I1
sg21
I01
sg22
g48
sbsg21
I00
sg22
g23
sbsg7
I3
sg21
I01
sg22
g57
sbsg21
I00
sg22
g23
sbsg7
I5
sg21
I01
sg22
g57
sba(imyEvolve
Tree
p647
(dp648
g7
I5
sg8
(imyEvolve
Tree
p649
(dp650
g11
(imyEvolve
Tree
p651
(dp652
g7
I3
sg8
(imyEvolve
Tree
p653
(dp654
g7
I2
sg8
(imyEvolve
Tree
p655
(dp656
g7
I1
sg8
(imyEvolve
Tree
p657
(dp658
g7
I0
sg20
F-0.4681846957124307
sg16
I01
sbsg17
(imyEvolve
Tree
p659
(dp660
g7
I0
sg20
F4.754539744248776
sg16
I01
sbsg21
I00
sg22
g32
sbsg17
(imyEvolve
Tree
p661
(dp662
g7
I1
sg8
(imyEvolve
Tree
p663
(dp664
g7
I0
sg16
I00
sbsg17
(imyEvolve
Tree
p665
(dp666
g7
I0
sg16
I00
sbsg21
I00
sg22
g32
sbsg21
I00
sg22
g43
sbsg17
(imyEvolve
Tree
p667
(dp668
g11
(imyEvolve
Tree
p669
(dp670
g11
(imyEvolve
Tree
p671
(dp672
g7
I0
sg20
F3.934406792380786
sg16
I01
sbsg7
I1
sg21
I01
sg22
g57
sbsg7
I2
sg21
I01
sg22
g31
sbsg21
I00
sg22
g32
sbsg7
I4
sg21
I01
sg22
g24
sbsg17
(imyEvolve
Tree
p673
(dp674
g7
I4
sg8
(imyEvolve
Tree
p675
(dp676
g7
I3
sg8
(imyEvolve
Tree
p677
(dp678
g11
(imyEvolve
Tree
p679
(dp680
g11
(imyEvolve
Tree
p681
(dp682
g7
I0
sg20
F-2.559544298993183
sg16
I01
sbsg7
I1
sg21
I01
sg22
g24
sbsg7
I2
sg21
I01
sg22
g57
sbsg17
(imyEvolve
Tree
p683
(dp684
g7
I2
sg8
(imyEvolve
Tree
p685
(dp686
g11
(imyEvolve
Tree
p687
(dp688
g7
I0
sg20
F-1.9665438303400364
sg16
I01
sbsg7
I1
sg21
I01
sg22
g31
sbsg17
(imyEvolve
Tree
p689
(dp690
g7
I1
sg8
(imyEvolve
Tree
p691
(dp692
g7
I0
sg16
I00
sbsg17
(imyEvolve
Tree
p693
(dp694
g7
I0
sg16
I00
sbsg21
I00
sg22
g23
sbsg21
I00
sg22
g23
sbsg21
I00
sg22
g23
sbsg17
(imyEvolve
Tree
p695
(dp696
g11
(imyEvolve
Tree
p697
(dp698
g11
(imyEvolve
Tree
p699
(dp700
g11
(imyEvolve
Tree
p701
(dp702
g7
I0
sg16
I00
sbsg7
I1
sg21
I01
sg22
g57
sbsg7
I2
sg21
I01
sg22
g57
sbsg7
I3
sg21
I01
sg22
g31
sbsg21
I00
sg22
g32
sbsg21
I00
sg22
g23
sba(imyEvolve
Tree
p703
(dp704
g11
(imyEvolve
Tree
p705
(dp706
g8
(imyEvolve
Tree
p707
(dp708
g11
(imyEvolve
Tree
p709
(dp710
g11
(imyEvolve
Tree
p711
(dp712
g7
I0
sg16
I00
sbsg7
I1
sg21
I01
sg22
g57
sbsg7
I2
sg21
I01
sg22
g31
sbsg7
I3
sg17
(imyEvolve
Tree
p713
(dp714
g11
(imyEvolve
Tree
p715
(dp716
g8
(imyEvolve
Tree
p717
(dp718
g7
I0
sg20
F0.9613984775954334
sg16
I01
sbsg7
I1
sg17
(imyEvolve
Tree
p719
(dp720
g7
I0
sg20
F-3.4249081922598146
sg16
I01
sbsg21
I00
sg22
g23
sbsg7
I2
sg21
I01
sg22
g48
sbsg21
I00
sg22
g43
sbsg7
I4
sg21
I01
sg22
g57
sbaasS'alpha'
p721
F0.008530226302857699
sS'fitness'
p722
cnumpy.core.multiarray
scalar
p723
(cnumpy
dtype
p724
(S'f8'
p725
I0
I1
tp726
Rp727
(I3
S'<'
p728
NNNI-1
I-1
I0
tp729
bS'\x00,e\x19\x9a\xa6\\?'
p730
tp731
Rp732
sS'weightSharing'
p733
(lp734
I00
aI00
asS'fitnessValid'
p735
I00
sS'resolution'
p736
I99
sb.