(imyEvolve
Individual
p0
(dp1
S'funcs'
p2
(lp3
(lp4
(imyEvolve
Tree
p5
(dp6
S'below'
p7
(imyEvolve
Tree
p8
(dp9
S'depth'
p10
I4
sS'left'
p11
(imyEvolve
Tree
p12
(dp13
g7
(imyEvolve
Tree
p14
(dp15
g10
I2
sg11
(imyEvolve
Tree
p16
(dp17
g7
(imyEvolve
Tree
p18
(dp19
g10
I0
sS'constant'
p20
F-2.9364946928065008
sS'isConstant'
p21
I01
sbsg10
I1
sS'single'
p22
I01
sS'op'
p23
cmath
cos
p24
sbsS'right'
p25
(imyEvolve
Tree
p26
(dp27
g7
(imyEvolve
Tree
p28
(dp29
g10
I0
sg20
F-3.572471582026553
sg21
I01
sbsg10
I1
sg22
I01
sg23
g24
sbsg22
I00
sg23
coperator
mul
p30
sbsg10
I3
sg22
I01
sg23
g24
sbsg25
(imyEvolve
Tree
p31
(dp32
g10
I3
sg11
(imyEvolve
Tree
p33
(dp34
g10
I2
sg11
(imyEvolve
Tree
p35
(dp36
g10
I1
sg11
(imyEvolve
Tree
p37
(dp38
g10
I0
sg21
I00
sbsg25
(imyEvolve
Tree
p39
(dp40
g10
I0
sg21
I00
sbsg22
I00
sg23
coperator
sub
p41
sbsg25
(imyEvolve
Tree
p42
(dp43
g7
(imyEvolve
Tree
p44
(dp45
g10
I0
sg20
F2.1304730869402917
sg21
I01
sbsg10
I1
sg22
I01
sg23
cmyEvolve
square
p46
sbsg22
I00
sg23
g30
sbsg25
(imyEvolve
Tree
p47
(dp48
g7
(imyEvolve
Tree
p49
(dp50
g7
(imyEvolve
Tree
p51
(dp52
g10
I0
sg21
I00
sbsg10
I1
sg22
I01
sg23
g24
sbsg10
I2
sg22
I01
sg23
cmyEvolve
absSqrt
p53
sbsg22
I00
sg23
g30
sbsg22
I00
sg23
coperator
add
p54
sbsg10
I5
sg22
I01
sg23
g24
sba(imyEvolve
Tree
p55
(dp56
g7
(imyEvolve
Tree
p57
(dp58
g10
I1
sg11
(imyEvolve
Tree
p59
(dp60
g10
I0
sg21
I00
sbsg25
(imyEvolve
Tree
p61
(dp62
g10
I0
sg21
I00
sbsg22
I00
sg23
g30
sbsg10
I2
sg22
I01
sg23
g46
sba(imyEvolve
Tree
p63
(dp64
g10
I5
sg11
(imyEvolve
Tree
p65
(dp66
g10
I4
sg11
(imyEvolve
Tree
p67
(dp68
g7
(imyEvolve
Tree
p69
(dp70
g7
(imyEvolve
Tree
p71
(dp72
g7
(imyEvolve
Tree
p73
(dp74
g10
I0
sg21
I00
sbsg10
I1
sg22
I01
sg23
g46
sbsg10
I2
sg22
I01
sg23
cmath
sin
p75
sbsg10
I3
sg22
I01
sg23
g75
sbsg25
(imyEvolve
Tree
p76
(dp77
g10
I3
sg11
(imyEvolve
Tree
p78
(dp79
g10
I2
sg11
(imyEvolve
Tree
p80
(dp81
g7
(imyEvolve
Tree
p82
(dp83
g10
I0
sg20
F-2.194625601492215
sg21
I01
sbsg10
I1
sg22
I01
sg23
g53
sbsg25
(imyEvolve
Tree
p84
(dp85
g7
(imyEvolve
Tree
p86
(dp87
g10
I0
sg21
I00
sbsg10
I1
sg22
I01
sg23
g53
sbsg22
I00
sg23
g30
sbsg25
(imyEvolve
Tree
p88
(dp89
g7
(imyEvolve
Tree
p90
(dp91
g10
I1
sg11
(imyEvolve
Tree
p92
(dp93
g10
I0
sg20
F-3.0780543946744086
sg21
I01
sbsg25
(imyEvolve
Tree
p94
(dp95
g10
I0
sg20
F-0.23402464932056333
sg21
I01
sbsg22
I00
sg23
g30
sbsg10
I2
sg22
I01
sg23
g75
sbsg22
I00
sg23
g41
sbsg22
I00
sg23
g54
sbsg25
(imyEvolve
Tree
p96
(dp97
g7
(imyEvolve
Tree
p98
(dp99
g7
(imyEvolve
Tree
p100
(dp101
g7
(imyEvolve
Tree
p102
(dp103
g7
(imyEvolve
Tree
p104
(dp105
g10
I0
sg21
I00
sbsg10
I1
sg22
I01
sg23
g53
sbsg10
I2
sg22
I01
sg23
g46
sbsg10
I3
sg22
I01
sg23
g24
sbsg10
I4
sg22
I01
sg23
g75
sbsg22
I00
sg23
g30
sba(imyEvolve
Tree
p106
(dp107
g10
I5
sg11
(imyEvolve
Tree
p108
(dp109
g7
(imyEvolve
Tree
p110
(dp111
g7
(imyEvolve
Tree
p112
(dp113
g10
I2
sg11
(imyEvolve
Tree
p114
(dp115
g10
I1
sg11
(imyEvolve
Tree
p116
(dp117
g10
I0
sg21
I00
sbsg25
(imyEvolve
Tree
p118
(dp119
g10
I0
sg20
F4.0335451256297326
sg21
I01
sbsg22
I00
sg23
g30
sbsg25
(imyEvolve
Tree
p120
(dp121
g7
(imyEvolve
Tree
p122
(dp123
g10
I0
sg21
I00
sbsg10
I1
sg22
I01
sg23
g24
sbsg22
I00
sg23
g54
sbsg10
I3
sg22
I01
sg23
g53
sbsg10
I4
sg22
I01
sg23
g75
sbsg25
(imyEvolve
Tree
p124
(dp125
g10
I4
sg11
(imyEvolve
Tree
p126
(dp127
g10
I3
sg11
(imyEvolve
Tree
p128
(dp129
g10
I2
sg11
(imyEvolve
Tree
p130
(dp131
g10
I1
sg11
(imyEvolve
Tree
p132
(dp133
g10
I0
sg20
F4.914571258548197
sg21
I01
sbsg25
(imyEvolve
Tree
p134
(dp135
g10
I0
sg20
F2.958972057203794
sg21
I01
sbsg22
I00
sg23
g54
sbsg25
(imyEvolve
Tree
p136
(dp137
g10
I1
sg11
(imyEvolve
Tree
p138
(dp139
g10
I0
sg21
I00
sbsg25
(imyEvolve
Tree
p140
(dp141
g10
I0
sg20
F1.6082563923527768
sg21
I01
sbsg22
I00
sg23
g30
sbsg22
I00
sg23
g54
sbsg25
(imyEvolve
Tree
p142
(dp143
g7
(imyEvolve
Tree
p144
(dp145
g10
I1
sg11
(imyEvolve
Tree
p146
(dp147
g10
I0
sg20
F-2.077475977782166
sg21
I01
sbsg25
(imyEvolve
Tree
p148
(dp149
g10
I0
sg21
I00
sbsg22
I00
sg23
g30
sbsg10
I2
sg22
I01
sg23
g24
sbsg22
I00
sg23
g30
sbsg25
(imyEvolve
Tree
p150
(dp151
g7
(imyEvolve
Tree
p152
(dp153
g10
I2
sg11
(imyEvolve
Tree
p154
(dp155
g10
I1
sg11
(imyEvolve
Tree
p156
(dp157
g10
I0
sg20
F4.40289127860782
sg21
I01
sbsg25
(imyEvolve
Tree
p158
(dp159
g10
I0
sg21
I00
sbsg22
I00
sg23
g30
sbsg25
(imyEvolve
Tree
p160
(dp161
g7
(imyEvolve
Tree
p162
(dp163
g10
I0
sg21
I00
sbsg10
I1
sg22
I01
sg23
g46
sbsg22
I00
sg23
g41
sbsg10
I3
sg22
I01
sg23
g46
sbsg22
I00
sg23
g41
sbsg22
I00
sg23
g54
sba(imyEvolve
Tree
p164
(dp165
g7
(imyEvolve
Tree
p166
(dp167
g7
(imyEvolve
Tree
p168
(dp169
g10
I3
sg11
(imyEvolve
Tree
p170
(dp171
g7
(imyEvolve
Tree
p172
(dp173
g7
(imyEvolve
Tree
p174
(dp175
g10
I0
sg20
F-3.5605797211046495
sg21
I01
sbsg10
I1
sg22
I01
sg23
g46
sbsg10
I2
sg22
I01
sg23
g53
sbsg25
(imyEvolve
Tree
p176
(dp177
g7
(imyEvolve
Tree
p178
(dp179
g7
(imyEvolve
Tree
p180
(dp181
g10
I0
sg21
I00
sbsg10
I1
sg22
I01
sg23
g53
sbsg10
I2
sg22
I01
sg23
g75
sbsg22
I00
sg23
g41
sbsg10
I4
sg22
I01
sg23
g24
sbsg10
I5
sg22
I01
sg23
g24
sba(imyEvolve
Tree
p182
(dp183
g7
(imyEvolve
Tree
p184
(dp185
g10
I1
sg11
(imyEvolve
Tree
p186
(dp187
g10
I0
sg21
I00
sbsg25
(imyEvolve
Tree
p188
(dp189
g10
I0
sg21
I00
sbsg22
I00
sg23
g41
sbsg10
I2
sg22
I01
sg23
g24
sba(imyEvolve
Tree
p190
(dp191
g10
I4
sg11
(imyEvolve
Tree
p192
(dp193
g7
(imyEvolve
Tree
p194
(dp195
g10
I2
sg11
(imyEvolve
Tree
p196
(dp197
g7
(imyEvolve
Tree
p198
(dp199
g10
I0
sg21
I00
sbsg10
I1
sg22
I01
sg23
g53
sbsg25
(imyEvolve
Tree
p200
(dp201
g10
I1
sg11
(imyEvolve
Tree
p202
(dp203
g10
I0
sg20
F-1.4711310797438673
sg21
I01
sbsg25
(imyEvolve
Tree
p204
(dp205
g10
I0
sg21
I00
sbsg22
I00
sg23
g41
sbsg22
I00
sg23
g41
sbsg10
I3
sg22
I01
sg23
g75
sbsg25
(imyEvolve
Tree
p206
(dp207
g7
(imyEvolve
Tree
p208
(dp209
g7
(imyEvolve
Tree
p210
(dp211
g7
(imyEvolve
Tree
p212
(dp213
g10
I0
sg20
F4.093173283460931
sg21
I01
sbsg10
I1
sg22
I01
sg23
g53
sbsg10
I2
sg22
I01
sg23
g46
sbsg10
I3
sg22
I01
sg23
g24
sbsg22
I00
sg23
g30
sba(imyEvolve
Tree
p214
(dp215
g7
(imyEvolve
Tree
p216
(dp217
g7
(imyEvolve
Tree
p218
(dp219
g7
(imyEvolve
Tree
p220
(dp221
g10
I0
sg21
I00
sbsg10
I1
sg22
I01
sg23
g24
sbsg10
I2
sg22
I01
sg23
g53
sbsg10
I3
sg22
I01
sg23
g46
sba(imyEvolve
Tree
p222
(dp223
g10
I5
sg11
(imyEvolve
Tree
p224
(dp225
g10
I4
sg11
(imyEvolve
Tree
p226
(dp227
g10
I3
sg11
(imyEvolve
Tree
p228
(dp229
g7
(imyEvolve
Tree
p230
(dp231
g10
I1
sg11
(imyEvolve
Tree
p232
(dp233
g10
I0
sg21
I00
sbsg25
(imyEvolve
Tree
p234
(dp235
g10
I0
sg20
F-3.1588421602934655
sg21
I01
sbsg22
I00
sg23
g30
sbsg10
I2
sg22
I01
sg23
g24
sbsg25
(imyEvolve
Tree
p236
(dp237
g10
I2
sg11
(imyEvolve
Tree
p238
(dp239
g7
(imyEvolve
Tree
p240
(dp241
g10
I0
sg20
F2.3521657001242726
sg21
I01
sbsg10
I1
sg22
I01
sg23
g46
sbsg25
(imyEvolve
Tree
p242
(dp243
g10
I1
sg11
(imyEvolve
Tree
p244
(dp245
g10
I0
sg21
I00
sbsg25
(imyEvolve
Tree
p246
(dp247
g10
I0
sg20
F1.687607381302314
sg21
I01
sbsg22
I00
sg23
g41
sbsg22
I00
sg23
g30
sbsg22
I00
sg23
g41
sbsg25
(imyEvolve
Tree
p248
(dp249
g7
(imyEvolve
Tree
p250
(dp251
g10
I2
sg11
(imyEvolve
Tree
p252
(dp253
g7
(imyEvolve
Tree
p254
(dp255
g10
I0
sg21
I00
sbsg10
I1
sg22
I01
sg23
g24
sbsg25
(imyEvolve
Tree
p256
(dp257
g7
(imyEvolve
Tree
p258
(dp259
g10
I0
sg20
F3.2501511916158012
sg21
I01
sbsg10
I1
sg22
I01
sg23
g53
sbsg22
I00
sg23
g41
sbsg10
I3
sg22
I01
sg23
g53
sbsg22
I00
sg23
g54
sbsg25
(imyEvolve
Tree
p260
(dp261
g7
(imyEvolve
Tree
p262
(dp263
g10
I3
sg11
(imyEvolve
Tree
p264
(dp265
g7
(imyEvolve
Tree
p266
(dp267
g10
I1
sg11
(imyEvolve
Tree
p268
(dp269
g10
I0
sg21
I00
sbsg25
(imyEvolve
Tree
p270
(dp271
g10
I0
sg20
F-0.4971146818405314
sg21
I01
sbsg22
I00
sg23
g54
sbsg10
I2
sg22
I01
sg23
g24
sbsg25
(imyEvolve
Tree
p272
(dp273
g7
(imyEvolve
Tree
p274
(dp275
g10
I1
sg11
(imyEvolve
Tree
p276
(dp277
g10
I0
sg21
I00
sbsg25
(imyEvolve
Tree
p278
(dp279
g10
I0
sg21
I00
sbsg22
I00
sg23
g30
sbsg10
I2
sg22
I01
sg23
g75
sbsg22
I00
sg23
g41
sbsg10
I4
sg22
I01
sg23
g24
sbsg22
I00
sg23
g41
sba(imyEvolve
Tree
p280
(dp281
g7
(imyEvolve
Tree
p282
(dp283
g7
(imyEvolve
Tree
p284
(dp285
g7
(imyEvolve
Tree
p286
(dp287
g10
I2
sg11
(imyEvolve
Tree
p288
(dp289
g7
(imyEvolve
Tree
p290
(dp291
g10
I0
sg21
I00
sbsg10
I1
sg22
I01
sg23
g75
sbsg25
(imyEvolve
Tree
p292
(dp293
g10
I1
sg11
(imyEvolve
Tree
p294
(dp295
g10
I0
sg21
I00
sbsg25
(imyEvolve
Tree
p296
(dp297
g10
I0
sg20
F0.8911251189838865
sg21
I01
sbsg22
I00
sg23
g41
sbsg22
I00
sg23
g54
sbsg10
I3
sg22
I01
sg23
g53
sbsg10
I4
sg22
I01
sg23
g46
sbsg10
I5
sg22
I01
sg23
g24
sba(imyEvolve
Tree
p298
(dp299
g10
I4
sg11
(imyEvolve
Tree
p300
(dp301
g10
I3
sg11
(imyEvolve
Tree
p302
(dp303
g7
(imyEvolve
Tree
p304
(dp305
g7
(imyEvolve
Tree
p306
(dp307
g10
I0
sg21
I00
sbsg10
I1
sg22
I01
sg23
g46
sbsg10
I2
sg22
I01
sg23
g75
sbsg25
(imyEvolve
Tree
p308
(dp309
g7
(imyEvolve
Tree
p310
(dp311
g10
I1
sg11
(imyEvolve
Tree
p312
(dp313
g10
I0
sg21
I00
sbsg25
(imyEvolve
Tree
p314
(dp315
g10
I0
sg21
I00
sbsg22
I00
sg23
g30
sbsg10
I2
sg22
I01
sg23
g53
sbsg22
I00
sg23
g41
sbsg25
(imyEvolve
Tree
p316
(dp317
g7
(imyEvolve
Tree
p318
(dp319
g10
I2
sg11
(imyEvolve
Tree
p320
(dp321
g10
I1
sg11
(imyEvolve
Tree
p322
(dp323
g10
I0
sg20
F-2.8845711841019894
sg21
I01
sbsg25
(imyEvolve
Tree
p324
(dp325
g10
I0
sg21
I00
sbsg22
I00
sg23
g41
sbsg25
(imyEvolve
Tree
p326
(dp327
g10
I1
sg11
(imyEvolve
Tree
p328
(dp329
g10
I0
sg20
F4.932791729972729
sg21
I01
sbsg25
(imyEvolve
Tree
p330
(dp331
g10
I0
sg21
I00
sbsg22
I00
sg23
g41
sbsg22
I00
sg23
g41
sbsg10
I3
sg22
I01
sg23
g53
sbsg22
I00
sg23
g30
sba(imyEvolve
Tree
p332
(dp333
g7
(imyEvolve
Tree
p334
(dp335
g10
I3
sg11
(imyEvolve
Tree
p336
(dp337
g7
(imyEvolve
Tree
p338
(dp339
g7
(imyEvolve
Tree
p340
(dp341
g10
I0
sg20
F2.0741948645207398
sg21
I01
sbsg10
I1
sg22
I01
sg23
g46
sbsg10
I2
sg22
I01
sg23
g53
sbsg25
(imyEvolve
Tree
p342
(dp343
g10
I2
sg11
(imyEvolve
Tree
p344
(dp345
g10
I1
sg11
(imyEvolve
Tree
p346
(dp347
g10
I0
sg21
I00
sbsg25
(imyEvolve
Tree
p348
(dp349
g10
I0
sg20
F1.6146527970256024
sg21
I01
sbsg22
I00
sg23
g54
sbsg25
(imyEvolve
Tree
p350
(dp351
g7
(imyEvolve
Tree
p352
(dp353
g10
I0
sg21
I00
sbsg10
I1
sg22
I01
sg23
g24
sbsg22
I00
sg23
g54
sbsg22
I00
sg23
g30
sbsg10
I4
sg22
I01
sg23
g75
sba(imyEvolve
Tree
p354
(dp355
g7
(imyEvolve
Tree
p356
(dp357
g7
(imyEvolve
Tree
p358
(dp359
g10
I0
sg20
F3.194390632773045
sg21
I01
sbsg10
I1
sg22
I01
sg23
g24
sbsg10
I2
sg22
I01
sg23
g75
sba(imyEvolve
Tree
p360
(dp361
g7
(imyEvolve
Tree
p362
(dp363
g7
(imyEvolve
Tree
p364
(dp365
g10
I0
sg20
F2.6897504296398678
sg21
I01
sbsg10
I1
sg22
I01
sg23
g46
sbsg10
I2
sg22
I01
sg23
g46
sba(imyEvolve
Tree
p366
(dp367
g10
I2
sg11
(imyEvolve
Tree
p368
(dp369
g7
(imyEvolve
Tree
p370
(dp371
g10
I0
sg20
F-0.5873046072918147
sg21
I01
sbsg10
I1
sg22
I01
sg23
g53
sbsg25
(imyEvolve
Tree
p372
(dp373
g7
(imyEvolve
Tree
p374
(dp375
g10
I0
sg20
F-1.2324085631721218
sg21
I01
sbsg10
I1
sg22
I01
sg23
g53
sbsg22
I00
sg23
g30
sba(imyEvolve
Tree
p376
(dp377
g7
(imyEvolve
Tree
p378
(dp379
g7
(imyEvolve
Tree
p380
(dp381
g7
(imyEvolve
Tree
p382
(dp383
g10
I0
sg21
I00
sbsg10
I1
sg22
I01
sg23
g75
sbsg10
I2
sg22
I01
sg23
g53
sbsg10
I3
sg22
I01
sg23
g46
sba(imyEvolve
Tree
p384
(dp385
g10
I2
sg11
(imyEvolve
Tree
p386
(dp387
g7
(imyEvolve
Tree
p388
(dp389
g10
I0
sg21
I00
sbsg10
I1
sg22
I01
sg23
g53
sbsg25
(imyEvolve
Tree
p390
(dp391
g7
(imyEvolve
Tree
p392
(dp393
g10
I0
sg21
I00
sbsg10
I1
sg22
I01
sg23
g24
sbsg22
I00
sg23
g54
sba(imyEvolve
Tree
p394
(dp395
g7
(imyEvolve
Tree
p396
(dp397
g7
(imyEvolve
Tree
p398
(dp399
g10
I0
sg20
F-4.790618614740372
sg21
I01
sbsg10
I1
sg22
I01
sg23
g24
sbsg10
I2
sg22
I01
sg23
g75
sbaa(lp400
(imyEvolve
Tree
p401
(dp402
g7
(imyEvolve
Tree
p403
(dp404
g10
I2
sg11
(imyEvolve
Tree
p405
(dp406
g7
(imyEvolve
Tree
p407
(dp408
g10
I0
sg21
I00
sbsg10
I1
sg22
I01
sg23
g53
sbsg25
(imyEvolve
Tree
p409
(dp410
g7
(imyEvolve
Tree
p411
(dp412
g10
I0
sg21
I00
sbsg10
I1
sg22
I01
sg23
g75
sbsg22
I00
sg23
g41
sbsg10
I3
sg22
I01
sg23
g53
sba(imyEvolve
Tree
p413
(dp414
g10
I2
sg11
(imyEvolve
Tree
p415
(dp416
g10
I1
sg11
(imyEvolve
Tree
p417
(dp418
g10
I0
sg21
I00
sbsg25
(imyEvolve
Tree
p419
(dp420
g10
I0
sg20
F2.094479066317895
sg21
I01
sbsg22
I00
sg23
g54
sbsg25
(imyEvolve
Tree
p421
(dp422
g10
I1
sg11
(imyEvolve
Tree
p423
(dp424
g10
I0
sg20
F-2.436449475619007
sg21
I01
sbsg25
(imyEvolve
Tree
p425
(dp426
g10
I0
sg21
I00
sbsg22
I00
sg23
g54
sbsg22
I00
sg23
g30
sba(imyEvolve
Tree
p427
(dp428
g10
I4
sg11
(imyEvolve
Tree
p429
(dp430
g7
(imyEvolve
Tree
p431
(dp432
g10
I2
sg11
(imyEvolve
Tree
p433
(dp434
g10
I1
sg11
(imyEvolve
Tree
p435
(dp436
g10
I0
sg20
F3.1394676834238346
sg21
I01
sbsg25
(imyEvolve
Tree
p437
(dp438
g10
I0
sg21
I00
sbsg22
I00
sg23
g30
sbsg25
(imyEvolve
Tree
p439
(dp440
g7
(imyEvolve
Tree
p441
(dp442
g10
I0
sg21
I00
sbsg10
I1
sg22
I01
sg23
g75
sbsg22
I00
sg23
g41
sbsg10
I3
sg22
I01
sg23
g46
sbsg25
(imyEvolve
Tree
p443
(dp444
g7
(imyEvolve
Tree
p445
(dp446
g7
(imyEvolve
Tree
p447
(dp448
g7
(imyEvolve
Tree
p449
(dp450
g10
I0
sg20
F3.7594321066930085
sg21
I01
sbsg10
I1
sg22
I01
sg23
g75
sbsg10
I2
sg22
I01
sg23
g75
sbsg10
I3
sg22
I01
sg23
g46
sbsg22
I00
sg23
g41
sba(imyEvolve
Tree
p451
(dp452
g10
I3
sg11
(imyEvolve
Tree
p453
(dp454
g10
I2
sg11
(imyEvolve
Tree
p455
(dp456
g10
I1
sg11
(imyEvolve
Tree
p457
(dp458
g10
I0
sg21
I00
sbsg25
(imyEvolve
Tree
p459
(dp460
g10
I0
sg21
I00
sbsg22
I00
sg23
g41
sbsg25
(imyEvolve
Tree
p461
(dp462
g10
I1
sg11
(imyEvolve
Tree
p463
(dp464
g10
I0
sg20
F-1.1848850667596675
sg21
I01
sbsg25
(imyEvolve
Tree
p465
(dp466
g10
I0
sg21
I00
sbsg22
I00
sg23
g54
sbsg22
I00
sg23
g30
sbsg25
(imyEvolve
Tree
p467
(dp468
g10
I2
sg11
(imyEvolve
Tree
p469
(dp470
g7
(imyEvolve
Tree
p471
(dp472
g10
I0
sg21
I00
sbsg10
I1
sg22
I01
sg23
g75
sbsg25
(imyEvolve
Tree
p473
(dp474
g7
(imyEvolve
Tree
p475
(dp476
g10
I0
sg21
I00
sbsg10
I1
sg22
I01
sg23
g75
sbsg22
I00
sg23
g41
sbsg22
I00
sg23
g54
sba(imyEvolve
Tree
p477
(dp478
g10
I3
sg11
(imyEvolve
Tree
p479
(dp480
g7
(imyEvolve
Tree
p481
(dp482
g7
(imyEvolve
Tree
p483
(dp484
g10
I0
sg21
I00
sbsg10
I1
sg22
I01
sg23
g46
sbsg10
I2
sg22
I01
sg23
g53
sbsg25
(imyEvolve
Tree
p485
(dp486
g10
I2
sg11
(imyEvolve
Tree
p487
(dp488
g7
(imyEvolve
Tree
p489
(dp490
g10
I0
sg21
I00
sbsg10
I1
sg22
I01
sg23
g53
sbsg25
(imyEvolve
Tree
p491
(dp492
g10
I1
sg11
(imyEvolve
Tree
p493
(dp494
g10
I0
sg21
I00
sbsg25
(imyEvolve
Tree
p495
(dp496
g10
I0
sg20
F-1.1608927083942042
sg21
I01
sbsg22
I00
sg23
g41
sbsg22
I00
sg23
g41
sbsg22
I00
sg23
g30
sba(imyEvolve
Tree
p497
(dp498
g7
(imyEvolve
Tree
p499
(dp500
g10
I4
sg11
(imyEvolve
Tree
p501
(dp502
g10
I3
sg11
(imyEvolve
Tree
p503
(dp504
g7
(imyEvolve
Tree
p505
(dp506
g7
(imyEvolve
Tree
p507
(dp508
g10
I0
sg20
F-0.21640550541881964
sg21
I01
sbsg10
I1
sg22
I01
sg23
g24
sbsg10
I2
sg22
I01
sg23
g53
sbsg25
(imyEvolve
Tree
p509
(dp510
g7
(imyEvolve
Tree
p511
(dp512
g7
(imyEvolve
Tree
p513
(dp514
g10
I0
sg20
F4.189804943670252
sg21
I01
sbsg10
I1
sg22
I01
sg23
g53
sbsg10
I2
sg22
I01
sg23
g24
sbsg22
I00
sg23
g54
sbsg25
(imyEvolve
Tree
p515
(dp516
g7
(imyEvolve
Tree
p517
(dp518
g10
I2
sg11
(imyEvolve
Tree
p519
(dp520
g10
I1
sg11
(imyEvolve
Tree
p521
(dp522
g10
I0
sg20
F-0.42110337692014443
sg21
I01
sbsg25
(imyEvolve
Tree
p523
(dp524
g10
I0
sg21
I00
sbsg22
I00
sg23
g30
sbsg25
(imyEvolve
Tree
p525
(dp526
g10
I1
sg11
(imyEvolve
Tree
p527
(dp528
g10
I0
sg20
F2.174813463627099
sg21
I01
sbsg25
(imyEvolve
Tree
p529
(dp530
g10
I0
sg21
I00
sbsg22
I00
sg23
g54
sbsg22
I00
sg23
g54
sbsg10
I3
sg22
I01
sg23
g46
sbsg22
I00
sg23
g30
sbsg10
I5
sg22
I01
sg23
g53
sba(imyEvolve
Tree
p531
(dp532
g7
(imyEvolve
Tree
p533
(dp534
g10
I3
sg11
(imyEvolve
Tree
p535
(dp536
g10
I2
sg11
(imyEvolve
Tree
p537
(dp538
g10
I1
sg11
(imyEvolve
Tree
p539
(dp540
g10
I0
sg20
F-3.708706885759232
sg21
I01
sbsg25
(imyEvolve
Tree
p541
(dp542
g10
I0
sg21
I00
sbsg22
I00
sg23
g54
sbsg25
(imyEvolve
Tree
p543
(dp544
g10
I1
sg11
(imyEvolve
Tree
p545
(dp546
g10
I0
sg21
I00
sbsg25
(imyEvolve
Tree
p547
(dp548
g10
I0
sg21
I00
sbsg22
I00
sg23
g54
sbsg22
I00
sg23
g30
sbsg25
(imyEvolve
Tree
p549
(dp550
g7
(imyEvolve
Tree
p551
(dp552
g7
(imyEvolve
Tree
p553
(dp554
g10
I0
sg20
F2.741288991206935
sg21
I01
sbsg10
I1
sg22
I01
sg23
g75
sbsg10
I2
sg22
I01
sg23
g24
sbsg22
I00
sg23
g30
sbsg10
I4
sg22
I01
sg23
g46
sba(imyEvolve
Tree
p555
(dp556
g7
(imyEvolve
Tree
p557
(dp558
g7
(imyEvolve
Tree
p559
(dp560
g10
I2
sg11
(imyEvolve
Tree
p561
(dp562
g10
I1
sg11
(imyEvolve
Tree
p563
(dp564
g10
I0
sg21
I00
sbsg25
(imyEvolve
Tree
p565
(dp566
g10
I0
sg21
I00
sbsg22
I00
sg23
g54
sbsg25
(imyEvolve
Tree
p567
(dp568
g10
I1
sg11
(imyEvolve
Tree
p569
(dp570
g10
I0
sg20
F0.9746131049444156
sg21
I01
sbsg25
(imyEvolve
Tree
p571
(dp572
g10
I0
sg21
I00
sbsg22
I00
sg23
g54
sbsg22
I00
sg23
g54
sbsg10
I3
sg22
I01
sg23
g53
sbsg10
I4
sg22
I01
sg23
g75
sba(imyEvolve
Tree
p573
(dp574
g10
I4
sg11
(imyEvolve
Tree
p575
(dp576
g7
(imyEvolve
Tree
p577
(dp578
g10
I2
sg11
(imyEvolve
Tree
p579
(dp580
g10
I1
sg11
(imyEvolve
Tree
p581
(dp582
g10
I0
sg20
F1.8350864855726314
sg21
I01
sbsg25
(imyEvolve
Tree
p583
(dp584
g10
I0
sg20
F-3.0034564982267264
sg21
I01
sbsg22
I00
sg23
g54
sbsg25
(imyEvolve
Tree
p585
(dp586
g10
I1
sg11
(imyEvolve
Tree
p587
(dp588
g10
I0
sg20
F-0.46726028503963946
sg21
I01
sbsg25
(imyEvolve
Tree
p589
(dp590
g10
I0
sg20
F-1.3072025904848958
sg21
I01
sbsg22
I00
sg23
g30
sbsg22
I00
sg23
g30
sbsg10
I3
sg22
I01
sg23
g53
sbsg25
(imyEvolve
Tree
p591
(dp592
g10
I3
sg11
(imyEvolve
Tree
p593
(dp594
g10
I2
sg11
(imyEvolve
Tree
p595
(dp596
g7
(imyEvolve
Tree
p597
(dp598
g10
I0
sg20
F-3.047439035591247
sg21
I01
sbsg10
I1
sg22
I01
sg23
g75
sbsg25
(imyEvolve
Tree
p599
(dp600
g7
(imyEvolve
Tree
p601
(dp602
g10
I0
sg20
F-4.147117588052968
sg21
I01
sbsg10
I1
sg22
I01
sg23
g24
sbsg22
I00
sg23
g54
sbsg25
(imyEvolve
Tree
p603
(dp604
g10
I2
sg11
(imyEvolve
Tree
p605
(dp606
g10
I1
sg11
(imyEvolve
Tree
p607
(dp608
g10
I0
sg20
F-2.2769031731218723
sg21
I01
sbsg25
(imyEvolve
Tree
p609
(dp610
g10
I0
sg21
I00
sbsg22
I00
sg23
g41
sbsg25
(imyEvolve
Tree
p611
(dp612
g7
(imyEvolve
Tree
p613
(dp614
g10
I0
sg21
I00
sbsg10
I1
sg22
I01
sg23
g46
sbsg22
I00
sg23
g41
sbsg22
I00
sg23
g54
sbsg22
I00
sg23
g30
sba(imyEvolve
Tree
p615
(dp616
g7
(imyEvolve
Tree
p617
(dp618
g7
(imyEvolve
Tree
p619
(dp620
g7
(imyEvolve
Tree
p621
(dp622
g10
I0
sg21
I00
sbsg10
I1
sg22
I01
sg23
g75
sbsg10
I2
sg22
I01
sg23
g53
sbsg10
I3
sg22
I01
sg23
g53
sba(imyEvolve
Tree
p623
(dp624
g7
(imyEvolve
Tree
p625
(dp626
g10
I1
sg11
(imyEvolve
Tree
p627
(dp628
g10
I0
sg21
I00
sbsg25
(imyEvolve
Tree
p629
(dp630
g10
I0
sg21
I00
sbsg22
I00
sg23
g30
sbsg10
I2
sg22
I01
sg23
g75
sba(imyEvolve
Tree
p631
(dp632
g7
(imyEvolve
Tree
p633
(dp634
g7
(imyEvolve
Tree
p635
(dp636
g7
(imyEvolve
Tree
p637
(dp638
g7
(imyEvolve
Tree
p639
(dp640
g10
I0
sg20
F-2.3807552443199063
sg21
I01
sbsg10
I1
sg22
I01
sg23
g53
sbsg10
I2
sg22
I01
sg23
g75
sbsg10
I3
sg22
I01
sg23
g24
sbsg10
I4
sg22
I01
sg23
g75
sba(imyEvolve
Tree
p641
(dp642
g7
(imyEvolve
Tree
p643
(dp644
g7
(imyEvolve
Tree
p645
(dp646
g10
I0
sg20
F-0.6539168139617226
sg21
I01
sbsg10
I1
sg22
I01
sg23
g53
sbsg10
I2
sg22
I01
sg23
g24
sbaa(lp647
(imyEvolve
Tree
p648
(dp649
g10
I4
sg11
(imyEvolve
Tree
p650
(dp651
g7
(imyEvolve
Tree
p652
(dp653
g7
(imyEvolve
Tree
p654
(dp655
g10
I1
sg11
(imyEvolve
Tree
p656
(dp657
g10
I0
sg20
F-3.146289141146129
sg21
I01
sbsg25
(imyEvolve
Tree
p658
(dp659
g10
I0
sg21
I00
sbsg22
I00
sg23
g30
sbsg10
I2
sg22
I01
sg23
g75
sbsg10
I3
sg22
I01
sg23
g46
sbsg25
(imyEvolve
Tree
p660
(dp661
g7
(imyEvolve
Tree
p662
(dp663
g7
(imyEvolve
Tree
p664
(dp665
g10
I1
sg11
(imyEvolve
Tree
p666
(dp667
g10
I0
sg20
F2.8422988932532114
sg21
I01
sbsg25
(imyEvolve
Tree
p668
(dp669
g10
I0
sg21
I00
sbsg22
I00
sg23
g54
sbsg10
I2
sg22
I01
sg23
g46
sbsg10
I3
sg22
I01
sg23
g46
sbsg22
I00
sg23
g30
sba(imyEvolve
Tree
p670
(dp671
g7
(imyEvolve
Tree
p672
(dp673
g10
I4
sg11
(imyEvolve
Tree
p674
(dp675
g7
(imyEvolve
Tree
p676
(dp677
g7
(imyEvolve
Tree
p678
(dp679
g10
I1
sg11
(imyEvolve
Tree
p680
(dp681
g10
I0
sg20
F2.614108993147531
sg21
I01
sbsg25
(imyEvolve
Tree
p682
(dp683
g10
I0
sg20
F-1.2425068391727434
sg21
I01
sbsg22
I00
sg23
g30
sbsg10
I2
sg22
I01
sg23
g53
sbsg10
I3
sg22
I01
sg23
g75
sbsg25
(imyEvolve
Tree
p684
(dp685
g7
(imyEvolve
Tree
p686
(dp687
g7
(imyEvolve
Tree
p688
(dp689
g10
I1
sg11
(imyEvolve
Tree
p690
(dp691
g10
I0
sg21
I00
sbsg25
(imyEvolve
Tree
p692
(dp693
g10
I0
sg20
F-4.684047032647596
sg21
I01
sbsg22
I00
sg23
g41
sbsg10
I2
sg22
I01
sg23
g75
sbsg10
I3
sg22
I01
sg23
g53
sbsg22
I00
sg23
g41
sbsg10
I5
sg22
I01
sg23
g75
sba(imyEvolve
Tree
p694
(dp695
g10
I3
sg11
(imyEvolve
Tree
p696
(dp697
g10
I2
sg11
(imyEvolve
Tree
p698
(dp699
g10
I1
sg11
(imyEvolve
Tree
p700
(dp701
g10
I0
sg21
I00
sbsg25
(imyEvolve
Tree
p702
(dp703
g10
I0
sg20
F2.990293128824457
sg21
I01
sbsg22
I00
sg23
g30
sbsg25
(imyEvolve
Tree
p704
(dp705
g10
I1
sg11
(imyEvolve
Tree
p706
(dp707
g10
I0
sg21
I00
sbsg25
(imyEvolve
Tree
p708
(dp709
g10
I0
sg20
F4.9090558008745635
sg21
I01
sbsg22
I00
sg23
g30
sbsg22
I00
sg23
g54
sbsg25
(imyEvolve
Tree
p710
(dp711
g10
I2
sg11
(imyEvolve
Tree
p712
(dp713
g7
(imyEvolve
Tree
p714
(dp715
g10
I0
sg20
F1.2555744269221014
sg21
I01
sbsg10
I1
sg22
I01
sg23
g75
sbsg25
(imyEvolve
Tree
p716
(dp717
g7
(imyEvolve
Tree
p718
(dp719
g10
I0
sg21
I00
sbsg10
I1
sg22
I01
sg23
g75
sbsg22
I00
sg23
g30
sbsg22
I00
sg23
g54
sba(imyEvolve
Tree
p720
(dp721
g7
(imyEvolve
Tree
p722
(dp723
g7
(imyEvolve
Tree
p724
(dp725
g10
I1
sg11
(imyEvolve
Tree
p726
(dp727
g10
I0
sg20
F3.4594628217190238
sg21
I01
sbsg25
(imyEvolve
Tree
p728
(dp729
g10
I0
sg20
F2.727825275691295
sg21
I01
sbsg22
I00
sg23
g30
sbsg10
I2
sg22
I01
sg23
g75
sbsg10
I3
sg22
I01
sg23
g24
sba(imyEvolve
Tree
p730
(dp731
g7
(imyEvolve
Tree
p732
(dp733
g7
(imyEvolve
Tree
p734
(dp735
g7
(imyEvolve
Tree
p736
(dp737
g10
I0
sg21
I00
sbsg10
I1
sg22
I01
sg23
g24
sbsg10
I2
sg22
I01
sg23
g53
sbsg10
I3
sg22
I01
sg23
g53
sba(imyEvolve
Tree
p738
(dp739
g7
(imyEvolve
Tree
p740
(dp741
g7
(imyEvolve
Tree
p742
(dp743
g10
I0
sg21
I00
sbsg10
I1
sg22
I01
sg23
g75
sbsg10
I2
sg22
I01
sg23
g24
sba(imyEvolve
Tree
p744
(dp745
g7
(imyEvolve
Tree
p746
(dp747
g7
(imyEvolve
Tree
p748
(dp749
g7
(imyEvolve
Tree
p750
(dp751
g7
(imyEvolve
Tree
p752
(dp753
g10
I0
sg21
I00
sbsg10
I1
sg22
I01
sg23
g46
sbsg10
I2
sg22
I01
sg23
g46
sbsg10
I3
sg22
I01
sg23
g53
sbsg10
I4
sg22
I01
sg23
g24
sba(imyEvolve
Tree
p754
(dp755
g10
I5
sg11
(imyEvolve
Tree
p756
(dp757
g10
I4
sg11
(imyEvolve
Tree
p758
(dp759
g10
I3
sg11
(imyEvolve
Tree
p760
(dp761
g7
(imyEvolve
Tree
p762
(dp763
g7
(imyEvolve
Tree
p764
(dp765
g10
I0
sg21
I00
sbsg10
I1
sg22
I01
sg23
g75
sbsg10
I2
sg22
I01
sg23
g24
sbsg25
(imyEvolve
Tree
p766
(dp767
g7
(imyEvolve
Tree
p768
(dp769
g10
I1
sg11
(imyEvolve
Tree
p770
(dp771
g10
I0
sg20
F-1.240229286136889
sg21
I01
sbsg25
(imyEvolve
Tree
p772
(dp773
g10
I0
sg20
F-1.6876441099316963
sg21
I01
sbsg22
I00
sg23
g54
sbsg10
I2
sg22
I01
sg23
g53
sbsg22
I00
sg23
g54
sbsg25
(imyEvolve
Tree
p774
(dp775
g7
(imyEvolve
Tree
p776
(dp777
g7
(imyEvolve
Tree
p778
(dp779
g10
I1
sg11
(imyEvolve
Tree
p780
(dp781
g10
I0
sg20
F2.3178851560157074
sg21
I01
sbsg25
(imyEvolve
Tree
p782
(dp783
g10
I0
sg20
F3.3761057168468263
sg21
I01
sbsg22
I00
sg23
g41
sbsg10
I2
sg22
I01
sg23
g53
sbsg10
I3
sg22
I01
sg23
g53
sbsg22
I00
sg23
g41
sbsg25
(imyEvolve
Tree
p784
(dp785
g10
I4
sg11
(imyEvolve
Tree
p786
(dp787
g7
(imyEvolve
Tree
p788
(dp789
g7
(imyEvolve
Tree
p790
(dp791
g7
(imyEvolve
Tree
p792
(dp793
g10
I0
sg20
F0.31604404884666515
sg21
I01
sbsg10
I1
sg22
I01
sg23
g24
sbsg10
I2
sg22
I01
sg23
g75
sbsg10
I3
sg22
I01
sg23
g53
sbsg25
(imyEvolve
Tree
p794
(dp795
g7
(imyEvolve
Tree
p796
(dp797
g7
(imyEvolve
Tree
p798
(dp799
g10
I1
sg11
(imyEvolve
Tree
p800
(dp801
g10
I0
sg21
I00
sbsg25
(imyEvolve
Tree
p802
(dp803
g10
I0
sg21
I00
sbsg22
I00
sg23
g41
sbsg10
I2
sg22
I01
sg23
g53
sbsg10
I3
sg22
I01
sg23
g24
sbsg22
I00
sg23
g41
sbsg22
I00
sg23
g30
sba(imyEvolve
Tree
p804
(dp805
g10
I2
sg11
(imyEvolve
Tree
p806
(dp807
g7
(imyEvolve
Tree
p808
(dp809
g10
I0
sg20
F0.5955304716844445
sg21
I01
sbsg10
I1
sg22
I01
sg23
g24
sbsg25
(imyEvolve
Tree
p810
(dp811
g7
(imyEvolve
Tree
p812
(dp813
g10
I0
sg20
F3.624182451095665
sg21
I01
sbsg10
I1
sg22
I01
sg23
g24
sbsg22
I00
sg23
g41
sba(imyEvolve
Tree
p814
(dp815
g7
(imyEvolve
Tree
p816
(dp817
g10
I4
sg11
(imyEvolve
Tree
p818
(dp819
g10
I3
sg11
(imyEvolve
Tree
p820
(dp821
g10
I2
sg11
(imyEvolve
Tree
p822
(dp823
g7
(imyEvolve
Tree
p824
(dp825
g10
I0
sg20
F3.697586480831692
sg21
I01
sbsg10
I1
sg22
I01
sg23
g53
sbsg25
(imyEvolve
Tree
p826
(dp827
g10
I1
sg11
(imyEvolve
Tree
p828
(dp829
g10
I0
sg20
F0.5143511989658132
sg21
I01
sbsg25
(imyEvolve
Tree
p830
(dp831
g10
I0
sg21
I00
sbsg22
I00
sg23
g41
sbsg22
I00
sg23
g30
sbsg25
(imyEvolve
Tree
p832
(dp833
g10
I2
sg11
(imyEvolve
Tree
p834
(dp835
g10
I1
sg11
(imyEvolve
Tree
p836
(dp837
g10
I0
sg21
I00
sbsg25
(imyEvolve
Tree
p838
(dp839
g10
I0
sg20
F0.9996839117788863
sg21
I01
sbsg22
I00
sg23
g54
sbsg25
(imyEvolve
Tree
p840
(dp841
g7
(imyEvolve
Tree
p842
(dp843
g10
I0
sg21
I00
sbsg10
I1
sg22
I01
sg23
g46
sbsg22
I00
sg23
g41
sbsg22
I00
sg23
g54
sbsg25
(imyEvolve
Tree
p844
(dp845
g7
(imyEvolve
Tree
p846
(dp847
g10
I2
sg11
(imyEvolve
Tree
p848
(dp849
g7
(imyEvolve
Tree
p850
(dp851
g10
I0
sg20
F0.07527355194029184
sg21
I01
sbsg10
I1
sg22
I01
sg23
g75
sbsg25
(imyEvolve
Tree
p852
(dp853
g7
(imyEvolve
Tree
p854
(dp855
g10
I0
sg21
I00
sbsg10
I1
sg22
I01
sg23
g46
sbsg22
I00
sg23
g54
sbsg10
I3
sg22
I01
sg23
g53
sbsg22
I00
sg23
g41
sbsg10
I5
sg22
I01
sg23
g53
sba(imyEvolve
Tree
p856
(dp857
g10
I3
sg11
(imyEvolve
Tree
p858
(dp859
g10
I2
sg11
(imyEvolve
Tree
p860
(dp861
g7
(imyEvolve
Tree
p862
(dp863
g10
I0
sg21
I00
sbsg10
I1
sg22
I01
sg23
g24
sbsg25
(imyEvolve
Tree
p864
(dp865
g10
I1
sg11
(imyEvolve
Tree
p866
(dp867
g10
I0
sg20
F3.4420438171397425
sg21
I01
sbsg25
(imyEvolve
Tree
p868
(dp869
g10
I0
sg21
I00
sbsg22
I00
sg23
g41
sbsg22
I00
sg23
g30
sbsg25
(imyEvolve
Tree
p870
(dp871
g10
I2
sg11
(imyEvolve
Tree
p872
(dp873
g10
I1
sg11
(imyEvolve
Tree
p874
(dp875
g10
I0
sg21
I00
sbsg25
(imyEvolve
Tree
p876
(dp877
g10
I0
sg21
I00
sbsg22
I00
sg23
g41
sbsg25
(imyEvolve
Tree
p878
(dp879
g7
(imyEvolve
Tree
p880
(dp881
g10
I0
sg20
F-3.405643021607742
sg21
I01
sbsg10
I1
sg22
I01
sg23
g24
sbsg22
I00
sg23
g54
sbsg22
I00
sg23
g54
sba(imyEvolve
Tree
p882
(dp883
g7
(imyEvolve
Tree
p884
(dp885
g7
(imyEvolve
Tree
p886
(dp887
g7
(imyEvolve
Tree
p888
(dp889
g10
I2
sg11
(imyEvolve
Tree
p890
(dp891
g7
(imyEvolve
Tree
p892
(dp893
g10
I0
sg20
F1.562701981123233
sg21
I01
sbsg10
I1
sg22
I01
sg23
g24
sbsg25
(imyEvolve
Tree
p894
(dp895
g7
(imyEvolve
Tree
p896
(dp897
g10
I0
sg20
F-4.431106215619116
sg21
I01
sbsg10
I1
sg22
I01
sg23
g24
sbsg22
I00
sg23
g30
sbsg10
I3
sg22
I01
sg23
g75
sbsg10
I4
sg22
I01
sg23
g75
sbsg10
I5
sg22
I01
sg23
g53
sba(imyEvolve
Tree
p898
(dp899
g7
(imyEvolve
Tree
p900
(dp901
g10
I3
sg11
(imyEvolve
Tree
p902
(dp903
g10
I2
sg11
(imyEvolve
Tree
p904
(dp905
g7
(imyEvolve
Tree
p906
(dp907
g10
I0
sg21
I00
sbsg10
I1
sg22
I01
sg23
g46
sbsg25
(imyEvolve
Tree
p908
(dp909
g7
(imyEvolve
Tree
p910
(dp911
g10
I0
sg20
F-1.4685759705920698
sg21
I01
sbsg10
I1
sg22
I01
sg23
g24
sbsg22
I00
sg23
g54
sbsg25
(imyEvolve
Tree
p912
(dp913
g7
(imyEvolve
Tree
p914
(dp915
g10
I1
sg11
(imyEvolve
Tree
p916
(dp917
g10
I0
sg21
I00
sbsg25
(imyEvolve
Tree
p918
(dp919
g10
I0
sg20
F1.4144764119125695
sg21
I01
sbsg22
I00
sg23
g41
sbsg10
I2
sg22
I01
sg23
g24
sbsg22
I00
sg23
g54
sbsg10
I4
sg22
I01
sg23
g46
sba(imyEvolve
Tree
p920
(dp921
g7
(imyEvolve
Tree
p922
(dp923
g7
(imyEvolve
Tree
p924
(dp925
g7
(imyEvolve
Tree
p926
(dp927
g10
I2
sg11
(imyEvolve
Tree
p928
(dp929
g7
(imyEvolve
Tree
p930
(dp931
g10
I0
sg20
F-0.9498957414187341
sg21
I01
sbsg10
I1
sg22
I01
sg23
g24
sbsg25
(imyEvolve
Tree
p932
(dp933
g7
(imyEvolve
Tree
p934
(dp935
g10
I0
sg20
F-2.071042229581983
sg21
I01
sbsg10
I1
sg22
I01
sg23
g75
sbsg22
I00
sg23
g30
sbsg10
I3
sg22
I01
sg23
g24
sbsg10
I4
sg22
I01
sg23
g53
sbsg10
I5
sg22
I01
sg23
g46
sba(imyEvolve
Tree
p936
(dp937
g10
I5
sg11
(imyEvolve
Tree
p938
(dp939
g10
I4
sg11
(imyEvolve
Tree
p940
(dp941
g7
(imyEvolve
Tree
p942
(dp943
g10
I2
sg11
(imyEvolve
Tree
p944
(dp945
g10
I1
sg11
(imyEvolve
Tree
p946
(dp947
g10
I0
sg21
I00
sbsg25
(imyEvolve
Tree
p948
(dp949
g10
I0
sg21
I00
sbsg22
I00
sg23
g54
sbsg25
(imyEvolve
Tree
p950
(dp951
g10
I1
sg11
(imyEvolve
Tree
p952
(dp953
g10
I0
sg21
I00
sbsg25
(imyEvolve
Tree
p954
(dp955
g10
I0
sg21
I00
sbsg22
I00
sg23
g54
sbsg22
I00
sg23
g41
sbsg10
I3
sg22
I01
sg23
g53
sbsg25
(imyEvolve
Tree
p956
(dp957
g10
I3
sg11
(imyEvolve
Tree
p958
(dp959
g7
(imyEvolve
Tree
p960
(dp961
g10
I1
sg11
(imyEvolve
Tree
p962
(dp963
g10
I0
sg21
I00
sbsg25
(imyEvolve
Tree
p964
(dp965
g10
I0
sg21
I00
sbsg22
I00
sg23
g41
sbsg10
I2
sg22
I01
sg23
g24
sbsg25
(imyEvolve
Tree
p966
(dp967
g10
I2
sg11
(imyEvolve
Tree
p968
(dp969
g10
I1
sg11
(imyEvolve
Tree
p970
(dp971
g10
I0
sg20
F-2.4102431878276906
sg21
I01
sbsg25
(imyEvolve
Tree
p972
(dp973
g10
I0
sg21
I00
sbsg22
I00
sg23
g54
sbsg25
(imyEvolve
Tree
p974
(dp975
g10
I1
sg11
(imyEvolve
Tree
p976
(dp977
g10
I0
sg20
F-3.421561858880505
sg21
I01
sbsg25
(imyEvolve
Tree
p978
(dp979
g10
I0
sg20
F1.5368872836073786
sg21
I01
sbsg22
I00
sg23
g30
sbsg22
I00
sg23
g41
sbsg22
I00
sg23
g54
sbsg22
I00
sg23
g54
sbsg25
(imyEvolve
Tree
p980
(dp981
g7
(imyEvolve
Tree
p982
(dp983
g10
I3
sg11
(imyEvolve
Tree
p984
(dp985
g10
I2
sg11
(imyEvolve
Tree
p986
(dp987
g7
(imyEvolve
Tree
p988
(dp989
g10
I0
sg20
F-2.077716268761888
sg21
I01
sbsg10
I1
sg22
I01
sg23
g75
sbsg25
(imyEvolve
Tree
p990
(dp991
g10
I1
sg11
(imyEvolve
Tree
p992
(dp993
g10
I0
sg21
I00
sbsg25
(imyEvolve
Tree
p994
(dp995
g10
I0
sg20
F1.6207186343718973
sg21
I01
sbsg22
I00
sg23
g41
sbsg22
I00
sg23
g30
sbsg25
(imyEvolve
Tree
p996
(dp997
g10
I2
sg11
(imyEvolve
Tree
p998
(dp999
g10
I1
sg11
(imyEvolve
Tree
p1000
(dp1001
g10
I0
sg21
I00
sbsg25
(imyEvolve
Tree
p1002
(dp1003
g10
I0
sg21
I00
sbsg22
I00
sg23
g54
sbsg25
(imyEvolve
Tree
p1004
(dp1005
g10
I1
sg11
(imyEvolve
Tree
p1006
(dp1007
g10
I0
sg21
I00
sbsg25
(imyEvolve
Tree
p1008
(dp1009
g10
I0
sg20
F-4.089960714817754
sg21
I01
sbsg22
I00
sg23
g54
sbsg22
I00
sg23
g54
sbsg22
I00
sg23
g30
sbsg10
I4
sg22
I01
sg23
g46
sbsg22
I00
sg23
g41
sba(imyEvolve
Tree
p1010
(dp1011
g7
(imyEvolve
Tree
p1012
(dp1013
g10
I3
sg11
(imyEvolve
Tree
p1014
(dp1015
g10
I2
sg11
(imyEvolve
Tree
p1016
(dp1017
g10
I1
sg11
(imyEvolve
Tree
p1018
(dp1019
g10
I0
sg21
I00
sbsg25
(imyEvolve
Tree
p1020
(dp1021
g10
I0
sg20
F-3.1728552362278517
sg21
I01
sbsg22
I00
sg23
g54
sbsg25
(imyEvolve
Tree
p1022
(dp1023
g10
I1
sg11
(imyEvolve
Tree
p1024
(dp1025
g10
I0
sg21
I00
sbsg25
(imyEvolve
Tree
p1026
(dp1027
g10
I0
sg20
F1.8388820017201146
sg21
I01
sbsg22
I00
sg23
g30
sbsg22
I00
sg23
g54
sbsg25
(imyEvolve
Tree
p1028
(dp1029
g7
(imyEvolve
Tree
p1030
(dp1031
g10
I1
sg11
(imyEvolve
Tree
p1032
(dp1033
g10
I0
sg21
I00
sbsg25
(imyEvolve
Tree
p1034
(dp1035
g10
I0
sg20
F0.5987293816904158
sg21
I01
sbsg22
I00
sg23
g30
sbsg10
I2
sg22
I01
sg23
g75
sbsg22
I00
sg23
g30
sbsg10
I4
sg22
I01
sg23
g75
sba(imyEvolve
Tree
p1036
(dp1037
g7
(imyEvolve
Tree
p1038
(dp1039
g7
(imyEvolve
Tree
p1040
(dp1041
g10
I3
sg11
(imyEvolve
Tree
p1042
(dp1043
g10
I2
sg11
(imyEvolve
Tree
p1044
(dp1045
g7
(imyEvolve
Tree
p1046
(dp1047
g10
I0
sg21
I00
sbsg10
I1
sg22
I01
sg23
g46
sbsg25
(imyEvolve
Tree
p1048
(dp1049
g10
I1
sg11
(imyEvolve
Tree
p1050
(dp1051
g10
I0
sg20
F2.3817589044586738
sg21
I01
sbsg25
(imyEvolve
Tree
p1052
(dp1053
g10
I0
sg21
I00
sbsg22
I00
sg23
g54
sbsg22
I00
sg23
g41
sbsg25
(imyEvolve
Tree
p1054
(dp1055
g7
(imyEvolve
Tree
p1056
(dp1057
g10
I1
sg11
(imyEvolve
Tree
p1058
(dp1059
g10
I0
sg21
I00
sbsg25
(imyEvolve
Tree
p1060
(dp1061
g10
I0
sg20
F3.6685387771237696
sg21
I01
sbsg22
I00
sg23
g41
sbsg10
I2
sg22
I01
sg23
g75
sbsg22
I00
sg23
g54
sbsg10
I4
sg22
I01
sg23
g24
sbsg10
I5
sg22
I01
sg23
g75
sbaa(lp1062
(imyEvolve
Tree
p1063
(dp1064
g10
I2
sg11
(imyEvolve
Tree
p1065
(dp1066
g10
I1
sg11
(imyEvolve
Tree
p1067
(dp1068
g10
I0
sg20
F-0.5843394252735781
sg21
I01
sbsg25
(imyEvolve
Tree
p1069
(dp1070
g10
I0
sg21
I00
sbsg22
I00
sg23
g30
sbsg25
(imyEvolve
Tree
p1071
(dp1072
g7
(imyEvolve
Tree
p1073
(dp1074
g10
I0
sg21
I00
sbsg10
I1
sg22
I01
sg23
g75
sbsg22
I00
sg23
g54
sba(imyEvolve
Tree
p1075
(dp1076
g7
(imyEvolve
Tree
p1077
(dp1078
g10
I1
sg11
(imyEvolve
Tree
p1079
(dp1080
g10
I0
sg21
I00
sbsg25
(imyEvolve
Tree
p1081
(dp1082
g10
I0
sg20
F-2.831558952170503
sg21
I01
sbsg22
I00
sg23
g30
sbsg10
I2
sg22
I01
sg23
g53
sba(imyEvolve
Tree
p1083
(dp1084
g10
I2
sg11
(imyEvolve
Tree
p1085
(dp1086
g7
(imyEvolve
Tree
p1087
(dp1088
g10
I0
sg20
F-1.0895144454311403
sg21
I01
sbsg10
I1
sg22
I01
sg23
g75
sbsg25
(imyEvolve
Tree
p1089
(dp1090
g7
(imyEvolve
Tree
p1091
(dp1092
g10
I0
sg21
I00
sbsg10
I1
sg22
I01
sg23
g24
sbsg22
I00
sg23
g30
sba(imyEvolve
Tree
p1093
(dp1094
g10
I2
sg11
(imyEvolve
Tree
p1095
(dp1096
g7
(imyEvolve
Tree
p1097
(dp1098
g10
I0
sg20
F4.947777101668791
sg21
I01
sbsg10
I1
sg22
I01
sg23
g75
sbsg25
(imyEvolve
Tree
p1099
(dp1100
g10
I1
sg11
(imyEvolve
Tree
p1101
(dp1102
g10
I0
sg21
I00
sbsg25
(imyEvolve
Tree
p1103
(dp1104
g10
I0
sg20
F2.4518456031410647
sg21
I01
sbsg22
I00
sg23
g30
sbsg22
I00
sg23
g54
sba(imyEvolve
Tree
p1105
(dp1106
g7
(imyEvolve
Tree
p1107
(dp1108
g7
(imyEvolve
Tree
p1109
(dp1110
g10
I3
sg11
(imyEvolve
Tree
p1111
(dp1112
g10
I2
sg11
(imyEvolve
Tree
p1113
(dp1114
g7
(imyEvolve
Tree
p1115
(dp1116
g10
I0
sg20
F2.5926218817362425
sg21
I01
sbsg10
I1
sg22
I01
sg23
g46
sbsg25
(imyEvolve
Tree
p1117
(dp1118
g7
(imyEvolve
Tree
p1119
(dp1120
g10
I0
sg20
F-0.45959643209134704
sg21
I01
sbsg10
I1
sg22
I01
sg23
g46
sbsg22
I00
sg23
g30
sbsg25
(imyEvolve
Tree
p1121
(dp1122
g10
I2
sg11
(imyEvolve
Tree
p1123
(dp1124
g10
I1
sg11
(imyEvolve
Tree
p1125
(dp1126
g10
I0
sg20
F-4.361364717395535
sg21
I01
sbsg25
(imyEvolve
Tree
p1127
(dp1128
g10
I0
sg20
F1.7752490353528056
sg21
I01
sbsg22
I00
sg23
g30
sbsg25
(imyEvolve
Tree
p1129
(dp1130
g10
I1
sg11
(imyEvolve
Tree
p1131
(dp1132
g10
I0
sg20
F0.43599663260302624
sg21
I01
sbsg25
(imyEvolve
Tree
p1133
(dp1134
g10
I0
sg20
F0.44715213863757786
sg21
I01
sbsg22
I00
sg23
g41
sbsg22
I00
sg23
g41
sbsg22
I00
sg23
g41
sbsg10
I4
sg22
I01
sg23
g53
sbsg10
I5
sg22
I01
sg23
g75
sba(imyEvolve
Tree
p1135
(dp1136
g10
I5
sg11
(imyEvolve
Tree
p1137
(dp1138
g7
(imyEvolve
Tree
p1139
(dp1140
g7
(imyEvolve
Tree
p1141
(dp1142
g10
I2
sg11
(imyEvolve
Tree
p1143
(dp1144
g7
(imyEvolve
Tree
p1145
(dp1146
g10
I0
sg20
F-4.083010619636087
sg21
I01
sbsg10
I1
sg22
I01
sg23
g46
sbsg25
(imyEvolve
Tree
p1147
(dp1148
g10
I1
sg11
(imyEvolve
Tree
p1149
(dp1150
g10
I0
sg20
F-0.09718018710264076
sg21
I01
sbsg25
(imyEvolve
Tree
p1151
(dp1152
g10
I0
sg20
F-0.2621862515918938
sg21
I01
sbsg22
I00
sg23
g30
sbsg22
I00
sg23
g41
sbsg10
I3
sg22
I01
sg23
g24
sbsg10
I4
sg22
I01
sg23
g75
sbsg25
(imyEvolve
Tree
p1153
(dp1154
g10
I4
sg11
(imyEvolve
Tree
p1155
(dp1156
g10
I3
sg11
(imyEvolve
Tree
p1157
(dp1158
g7
(imyEvolve
Tree
p1159
(dp1160
g10
I1
sg11
(imyEvolve
Tree
p1161
(dp1162
g10
I0
sg21
I00
sbsg25
(imyEvolve
Tree
p1163
(dp1164
g10
I0
sg21
I00
sbsg22
I00
sg23
g41
sbsg10
I2
sg22
I01
sg23
g75
sbsg25
(imyEvolve
Tree
p1165
(dp1166
g10
I2
sg11
(imyEvolve
Tree
p1167
(dp1168
g7
(imyEvolve
Tree
p1169
(dp1170
g10
I0
sg21
I00
sbsg10
I1
sg22
I01
sg23
g46
sbsg25
(imyEvolve
Tree
p1171
(dp1172
g7
(imyEvolve
Tree
p1173
(dp1174
g10
I0
sg20
F1.2627839341203595
sg21
I01
sbsg10
I1
sg22
I01
sg23
g75
sbsg22
I00
sg23
g54
sbsg22
I00
sg23
g41
sbsg25
(imyEvolve
Tree
p1175
(dp1176
g7
(imyEvolve
Tree
p1177
(dp1178
g10
I2
sg11
(imyEvolve
Tree
p1179
(dp1180
g10
I1
sg11
(imyEvolve
Tree
p1181
(dp1182
g10
I0
sg21
I00
sbsg25
(imyEvolve
Tree
p1183
(dp1184
g10
I0
sg20
F2.936507695421838
sg21
I01
sbsg22
I00
sg23
g41
sbsg25
(imyEvolve
Tree
p1185
(dp1186
g10
I1
sg11
(imyEvolve
Tree
p1187
(dp1188
g10
I0
sg21
I00
sbsg25
(imyEvolve
Tree
p1189
(dp1190
g10
I0
sg21
I00
sbsg22
I00
sg23
g41
sbsg22
I00
sg23
g41
sbsg10
I3
sg22
I01
sg23
g24
sbsg22
I00
sg23
g30
sbsg22
I00
sg23
g41
sba(imyEvolve
Tree
p1191
(dp1192
g10
I4
sg11
(imyEvolve
Tree
p1193
(dp1194
g7
(imyEvolve
Tree
p1195
(dp1196
g10
I2
sg11
(imyEvolve
Tree
p1197
(dp1198
g10
I1
sg11
(imyEvolve
Tree
p1199
(dp1200
g10
I0
sg20
F-4.793533076644307
sg21
I01
sbsg25
(imyEvolve
Tree
p1201
(dp1202
g10
I0
sg21
I00
sbsg22
I00
sg23
g54
sbsg25
(imyEvolve
Tree
p1203
(dp1204
g10
I1
sg11
(imyEvolve
Tree
p1205
(dp1206
g10
I0
sg21
I00
sbsg25
(imyEvolve
Tree
p1207
(dp1208
g10
I0
sg20
F0.10807504635459964
sg21
I01
sbsg22
I00
sg23
g41
sbsg22
I00
sg23
g41
sbsg10
I3
sg22
I01
sg23
g24
sbsg25
(imyEvolve
Tree
p1209
(dp1210
g10
I3
sg11
(imyEvolve
Tree
p1211
(dp1212
g10
I2
sg11
(imyEvolve
Tree
p1213
(dp1214
g10
I1
sg11
(imyEvolve
Tree
p1215
(dp1216
g10
I0
sg20
F-3.7765587349647456
sg21
I01
sbsg25
(imyEvolve
Tree
p1217
(dp1218
g10
I0
sg21
I00
sbsg22
I00
sg23
g41
sbsg25
(imyEvolve
Tree
p1219
(dp1220
g7
(imyEvolve
Tree
p1221
(dp1222
g10
I0
sg20
F-4.065546622945709
sg21
I01
sbsg10
I1
sg22
I01
sg23
g75
sbsg22
I00
sg23
g41
sbsg25
(imyEvolve
Tree
p1223
(dp1224
g7
(imyEvolve
Tree
p1225
(dp1226
g7
(imyEvolve
Tree
p1227
(dp1228
g10
I0
sg20
F2.9336722802778903
sg21
I01
sbsg10
I1
sg22
I01
sg23
g46
sbsg10
I2
sg22
I01
sg23
g75
sbsg22
I00
sg23
g41
sbsg22
I00
sg23
g54
sba(imyEvolve
Tree
p1229
(dp1230
g10
I4
sg11
(imyEvolve
Tree
p1231
(dp1232
g10
I3
sg11
(imyEvolve
Tree
p1233
(dp1234
g7
(imyEvolve
Tree
p1235
(dp1236
g10
I1
sg11
(imyEvolve
Tree
p1237
(dp1238
g10
I0
sg21
I00
sbsg25
(imyEvolve
Tree
p1239
(dp1240
g10
I0
sg21
I00
sbsg22
I00
sg23
g54
sbsg10
I2
sg22
I01
sg23
g24
sbsg25
(imyEvolve
Tree
p1241
(dp1242
g7
(imyEvolve
Tree
p1243
(dp1244
g10
I1
sg11
(imyEvolve
Tree
p1245
(dp1246
g10
I0
sg21
I00
sbsg25
(imyEvolve
Tree
p1247
(dp1248
g10
I0
sg21
I00
sbsg22
I00
sg23
g30
sbsg10
I2
sg22
I01
sg23
g46
sbsg22
I00
sg23
g41
sbsg25
(imyEvolve
Tree
p1249
(dp1250
g10
I3
sg11
(imyEvolve
Tree
p1251
(dp1252
g7
(imyEvolve
Tree
p1253
(dp1254
g10
I1
sg11
(imyEvolve
Tree
p1255
(dp1256
g10
I0
sg21
I00
sbsg25
(imyEvolve
Tree
p1257
(dp1258
g10
I0
sg20
F2.4058283995222665
sg21
I01
sbsg22
I00
sg23
g41
sbsg10
I2
sg22
I01
sg23
g24
sbsg25
(imyEvolve
Tree
p1259
(dp1260
g7
(imyEvolve
Tree
p1261
(dp1262
g10
I1
sg11
(imyEvolve
Tree
p1263
(dp1264
g10
I0
sg20
F1.0828271140064007
sg21
I01
sbsg25
(imyEvolve
Tree
p1265
(dp1266
g10
I0
sg21
I00
sbsg22
I00
sg23
g30
sbsg10
I2
sg22
I01
sg23
g46
sbsg22
I00
sg23
g41
sbsg22
I00
sg23
g54
sba(imyEvolve
Tree
p1267
(dp1268
g10
I2
sg11
(imyEvolve
Tree
p1269
(dp1270
g10
I1
sg11
(imyEvolve
Tree
p1271
(dp1272
g10
I0
sg21
I00
sbsg25
(imyEvolve
Tree
p1273
(dp1274
g10
I0
sg21
I00
sbsg22
I00
sg23
g41
sbsg25
(imyEvolve
Tree
p1275
(dp1276
g7
(imyEvolve
Tree
p1277
(dp1278
g10
I0
sg20
F2.573320952615356
sg21
I01
sbsg10
I1
sg22
I01
sg23
g53
sbsg22
I00
sg23
g41
sba(imyEvolve
Tree
p1279
(dp1280
g10
I2
sg11
(imyEvolve
Tree
p1281
(dp1282
g10
I1
sg11
(imyEvolve
Tree
p1283
(dp1284
g10
I0
sg20
F0.9518227170328242
sg21
I01
sbsg25
(imyEvolve
Tree
p1285
(dp1286
g10
I0
sg20
F4.584046267804091
sg21
I01
sbsg22
I00
sg23
g54
sbsg25
(imyEvolve
Tree
p1287
(dp1288
g7
(imyEvolve
Tree
p1289
(dp1290
g10
I0
sg20
F-1.3794602726212024
sg21
I01
sbsg10
I1
sg22
I01
sg23
g75
sbsg22
I00
sg23
g54
sba(imyEvolve
Tree
p1291
(dp1292
g10
I2
sg11
(imyEvolve
Tree
p1293
(dp1294
g10
I1
sg11
(imyEvolve
Tree
p1295
(dp1296
g10
I0
sg20
F2.1491065406087726
sg21
I01
sbsg25
(imyEvolve
Tree
p1297
(dp1298
g10
I0
sg21
I00
sbsg22
I00
sg23
g41
sbsg25
(imyEvolve
Tree
p1299
(dp1300
g10
I1
sg11
(imyEvolve
Tree
p1301
(dp1302
g10
I0
sg20
F-3.348261948098238
sg21
I01
sbsg25
(imyEvolve
Tree
p1303
(dp1304
g10
I0
sg21
I00
sbsg22
I00
sg23
g41
sbsg22
I00
sg23
g30
sba(imyEvolve
Tree
p1305
(dp1306
g10
I5
sg11
(imyEvolve
Tree
p1307
(dp1308
g7
(imyEvolve
Tree
p1309
(dp1310
g10
I3
sg11
(imyEvolve
Tree
p1311
(dp1312
g7
(imyEvolve
Tree
p1313
(dp1314
g7
(imyEvolve
Tree
p1315
(dp1316
g10
I0
sg21
I00
sbsg10
I1
sg22
I01
sg23
g24
sbsg10
I2
sg22
I01
sg23
g75
sbsg25
(imyEvolve
Tree
p1317
(dp1318
g7
(imyEvolve
Tree
p1319
(dp1320
g7
(imyEvolve
Tree
p1321
(dp1322
g10
I0
sg21
I00
sbsg10
I1
sg22
I01
sg23
g46
sbsg10
I2
sg22
I01
sg23
g53
sbsg22
I00
sg23
g30
sbsg10
I4
sg22
I01
sg23
g24
sbsg25
(imyEvolve
Tree
p1323
(dp1324
g10
I4
sg11
(imyEvolve
Tree
p1325
(dp1326
g7
(imyEvolve
Tree
p1327
(dp1328
g7
(imyEvolve
Tree
p1329
(dp1330
g7
(imyEvolve
Tree
p1331
(dp1332
g10
I0
sg20
F3.2600198604411155
sg21
I01
sbsg10
I1
sg22
I01
sg23
g46
sbsg10
I2
sg22
I01
sg23
g75
sbsg10
I3
sg22
I01
sg23
g75
sbsg25
(imyEvolve
Tree
p1333
(dp1334
g10
I3
sg11
(imyEvolve
Tree
p1335
(dp1336
g7
(imyEvolve
Tree
p1337
(dp1338
g10
I1
sg11
(imyEvolve
Tree
p1339
(dp1340
g10
I0
sg21
I00
sbsg25
(imyEvolve
Tree
p1341
(dp1342
g10
I0
sg21
I00
sbsg22
I00
sg23
g30
sbsg10
I2
sg22
I01
sg23
g24
sbsg25
(imyEvolve
Tree
p1343
(dp1344
g10
I2
sg11
(imyEvolve
Tree
p1345
(dp1346
g7
(imyEvolve
Tree
p1347
(dp1348
g10
I0
sg20
F-4.612824562255577
sg21
I01
sbsg10
I1
sg22
I01
sg23
g24
sbsg25
(imyEvolve
Tree
p1349
(dp1350
g10
I1
sg11
(imyEvolve
Tree
p1351
(dp1352
g10
I0
sg20
F0.1635481450091527
sg21
I01
sbsg25
(imyEvolve
Tree
p1353
(dp1354
g10
I0
sg21
I00
sbsg22
I00
sg23
g54
sbsg22
I00
sg23
g41
sbsg22
I00
sg23
g41
sbsg22
I00
sg23
g30
sbsg22
I00
sg23
g54
sba(imyEvolve
Tree
p1355
(dp1356
g7
(imyEvolve
Tree
p1357
(dp1358
g7
(imyEvolve
Tree
p1359
(dp1360
g10
I0
sg21
I00
sbsg10
I1
sg22
I01
sg23
g53
sbsg10
I2
sg22
I01
sg23
g53
sba(imyEvolve
Tree
p1361
(dp1362
g10
I2
sg11
(imyEvolve
Tree
p1363
(dp1364
g10
I1
sg11
(imyEvolve
Tree
p1365
(dp1366
g10
I0
sg20
F-2.9536163258247026
sg21
I01
sbsg25
(imyEvolve
Tree
p1367
(dp1368
g10
I0
sg20
F-1.6670561860067523
sg21
I01
sbsg22
I00
sg23
g30
sbsg25
(imyEvolve
Tree
p1369
(dp1370
g7
(imyEvolve
Tree
p1371
(dp1372
g10
I0
sg21
I00
sbsg10
I1
sg22
I01
sg23
g53
sbsg22
I00
sg23
g41
sba(imyEvolve
Tree
p1373
(dp1374
g10
I3
sg11
(imyEvolve
Tree
p1375
(dp1376
g7
(imyEvolve
Tree
p1377
(dp1378
g10
I1
sg11
(imyEvolve
Tree
p1379
(dp1380
g10
I0
sg21
I00
sbsg25
(imyEvolve
Tree
p1381
(dp1382
g10
I0
sg20
F-0.02834982059538227
sg21
I01
sbsg22
I00
sg23
g41
sbsg10
I2
sg22
I01
sg23
g24
sbsg25
(imyEvolve
Tree
p1383
(dp1384
g10
I2
sg11
(imyEvolve
Tree
p1385
(dp1386
g7
(imyEvolve
Tree
p1387
(dp1388
g10
I0
sg21
I00
sbsg10
I1
sg22
I01
sg23
g75
sbsg25
(imyEvolve
Tree
p1389
(dp1390
g10
I1
sg11
(imyEvolve
Tree
p1391
(dp1392
g10
I0
sg21
I00
sbsg25
(imyEvolve
Tree
p1393
(dp1394
g10
I0
sg20
F2.3351014017462726
sg21
I01
sbsg22
I00
sg23
g41
sbsg22
I00
sg23
g41
sbsg22
I00
sg23
g41
sba(imyEvolve
Tree
p1395
(dp1396
g10
I3
sg11
(imyEvolve
Tree
p1397
(dp1398
g10
I2
sg11
(imyEvolve
Tree
p1399
(dp1400
g7
(imyEvolve
Tree
p1401
(dp1402
g10
I0
sg20
F-3.450725471731453
sg21
I01
sbsg10
I1
sg22
I01
sg23
g75
sbsg25
(imyEvolve
Tree
p1403
(dp1404
g7
(imyEvolve
Tree
p1405
(dp1406
g10
I0
sg21
I00
sbsg10
I1
sg22
I01
sg23
g53
sbsg22
I00
sg23
g54
sbsg25
(imyEvolve
Tree
p1407
(dp1408
g10
I2
sg11
(imyEvolve
Tree
p1409
(dp1410
g10
I1
sg11
(imyEvolve
Tree
p1411
(dp1412
g10
I0
sg20
F1.7418202671002163
sg21
I01
sbsg25
(imyEvolve
Tree
p1413
(dp1414
g10
I0
sg21
I00
sbsg22
I00
sg23
g30
sbsg25
(imyEvolve
Tree
p1415
(dp1416
g7
(imyEvolve
Tree
p1417
(dp1418
g10
I0
sg21
I00
sbsg10
I1
sg22
I01
sg23
g24
sbsg22
I00
sg23
g30
sbsg22
I00
sg23
g30
sba(imyEvolve
Tree
p1419
(dp1420
g10
I4
sg11
(imyEvolve
Tree
p1421
(dp1422
g10
I3
sg11
(imyEvolve
Tree
p1423
(dp1424
g10
I2
sg11
(imyEvolve
Tree
p1425
(dp1426
g7
(imyEvolve
Tree
p1427
(dp1428
g10
I0
sg20
F2.8048389280797714
sg21
I01
sbsg10
I1
sg22
I01
sg23
g46
sbsg25
(imyEvolve
Tree
p1429
(dp1430
g10
I1
sg11
(imyEvolve
Tree
p1431
(dp1432
g10
I0
sg20
F1.0378444848066
sg21
I01
sbsg25
(imyEvolve
Tree
p1433
(dp1434
g10
I0
sg20
F2.2369877367530977
sg21
I01
sbsg22
I00
sg23
g30
sbsg22
I00
sg23
g41
sbsg25
(imyEvolve
Tree
p1435
(dp1436
g10
I2
sg11
(imyEvolve
Tree
p1437
(dp1438
g7
(imyEvolve
Tree
p1439
(dp1440
g10
I0
sg20
F-4.7118949049670364
sg21
I01
sbsg10
I1
sg22
I01
sg23
g53
sbsg25
(imyEvolve
Tree
p1441
(dp1442
g10
I1
sg11
(imyEvolve
Tree
p1443
(dp1444
g10
I0
sg20
F-0.04402812613342455
sg21
I01
sbsg25
(imyEvolve
Tree
p1445
(dp1446
g10
I0
sg20
F-1.6790409857239643
sg21
I01
sbsg22
I00
sg23
g54
sbsg22
I00
sg23
g30
sbsg22
I00
sg23
g54
sbsg25
(imyEvolve
Tree
p1447
(dp1448
g7
(imyEvolve
Tree
p1449
(dp1450
g10
I2
sg11
(imyEvolve
Tree
p1451
(dp1452
g10
I1
sg11
(imyEvolve
Tree
p1453
(dp1454
g10
I0
sg20
F-2.484365699439417
sg21
I01
sbsg25
(imyEvolve
Tree
p1455
(dp1456
g10
I0
sg21
I00
sbsg22
I00
sg23
g30
sbsg25
(imyEvolve
Tree
p1457
(dp1458
g10
I1
sg11
(imyEvolve
Tree
p1459
(dp1460
g10
I0
sg21
I00
sbsg25
(imyEvolve
Tree
p1461
(dp1462
g10
I0
sg20
F-1.8522587652902702
sg21
I01
sbsg22
I00
sg23
g30
sbsg22
I00
sg23
g30
sbsg10
I3
sg22
I01
sg23
g53
sbsg22
I00
sg23
g41
sbaasS'weightSharing'
p1463
(lp1464
I00
asS'fitnessValid'
p1465
I00
sS'fitness'
p1466
cnumpy.core.multiarray
scalar
p1467
(cnumpy
dtype
p1468
(S'f8'
p1469
I0
I1
tp1470
Rp1471
(I3
S'<'
p1472
NNNI-1
I-1
I0
tp1473
bS'\xa3\x01\xbc\x0bM\x1b\xe6?'
p1474
tp1475
Rp1476
sS'alpha'
p1477
F0.0036983268320204083
sS'resolution'
p1478
I65
sb.