(imyEvolve
Individual
p0
(dp1
S'funcs'
p2
(lp3
(lp4
(imyEvolve
Tree
p5
(dp6
S'below'
p7
(imyEvolve
Tree
p8
(dp9
g7
(imyEvolve
Tree
p10
(dp11
S'depth'
p12
I0
sS'constant'
p13
F4.3774636858276
sS'isConstant'
p14
I01
sbsg12
I1
sS'single'
p15
I01
sS'op'
p16
cmath
sin
p17
sbsg12
I2
sg15
I01
sg16
g17
sba(imyEvolve
Tree
p18
(dp19
g7
(imyEvolve
Tree
p20
(dp21
g12
I3
sS'left'
p22
(imyEvolve
Tree
p23
(dp24
g7
(imyEvolve
Tree
p25
(dp26
g12
I1
sg22
(imyEvolve
Tree
p27
(dp28
g12
I0
sg13
F-3.190625875703409
sg14
I01
sbsS'right'
p29
(imyEvolve
Tree
p30
(dp31
g12
I0
sg14
I00
sbsg15
I00
sg16
coperator
mul
p32
sbsg12
I2
sg15
I01
sg16
cmath
cos
p33
sbsg29
(imyEvolve
Tree
p34
(dp35
g7
(imyEvolve
Tree
p36
(dp37
g7
(imyEvolve
Tree
p38
(dp39
g12
I0
sg13
F3.058973827461241
sg14
I01
sbsg12
I1
sg15
I01
sg16
cmyEvolve
square
p40
sbsg12
I2
sg15
I01
sg16
g33
sbsg15
I00
sg16
coperator
add
p41
sbsg12
I4
sg15
I01
sg16
g17
sba(imyEvolve
Tree
p42
(dp43
g12
I2
sg22
(imyEvolve
Tree
p44
(dp45
g7
(imyEvolve
Tree
p46
(dp47
g12
I0
sg13
F-1.7750498715572514
sg14
I01
sbsg12
I1
sg15
I01
sg16
g17
sbsg29
(imyEvolve
Tree
p48
(dp49
g12
I1
sg22
(imyEvolve
Tree
p50
(dp51
g12
I0
sg14
I00
sbsg29
(imyEvolve
Tree
p52
(dp53
g12
I0
sg13
F-4.821902634336609
sg14
I01
sbsg15
I00
sg16
coperator
sub
p54
sbsg15
I00
sg16
g41
sba(imyEvolve
Tree
p55
(dp56
g12
I5
sg22
(imyEvolve
Tree
p57
(dp58
g12
I4
sg22
(imyEvolve
Tree
p59
(dp60
g12
I3
sg22
(imyEvolve
Tree
p61
(dp62
g12
I2
sg22
(imyEvolve
Tree
p63
(dp64
g7
(imyEvolve
Tree
p65
(dp66
g12
I0
sg14
I00
sbsg12
I1
sg15
I01
sg16
g17
sbsg29
(imyEvolve
Tree
p67
(dp68
g12
I1
sg22
(imyEvolve
Tree
p69
(dp70
g12
I0
sg14
I00
sbsg29
(imyEvolve
Tree
p71
(dp72
g12
I0
sg14
I00
sbsg15
I00
sg16
g32
sbsg15
I00
sg16
g32
sbsg29
(imyEvolve
Tree
p73
(dp74
g12
I2
sg22
(imyEvolve
Tree
p75
(dp76
g7
(imyEvolve
Tree
p77
(dp78
g12
I0
sg13
F2.2848996511031148
sg14
I01
sbsg12
I1
sg15
I01
sg16
cmyEvolve
absSqrt
p79
sbsg29
(imyEvolve
Tree
p80
(dp81
g12
I1
sg22
(imyEvolve
Tree
p82
(dp83
g12
I0
sg13
F3.0032851933671143
sg14
I01
sbsg29
(imyEvolve
Tree
p84
(dp85
g12
I0
sg13
F-0.022652485098379138
sg14
I01
sbsg15
I00
sg16
g41
sbsg15
I00
sg16
g32
sbsg15
I00
sg16
g54
sbsg29
(imyEvolve
Tree
p86
(dp87
g12
I3
sg22
(imyEvolve
Tree
p88
(dp89
g7
(imyEvolve
Tree
p90
(dp91
g12
I1
sg22
(imyEvolve
Tree
p92
(dp93
g12
I0
sg14
I00
sbsg29
(imyEvolve
Tree
p94
(dp95
g12
I0
sg14
I00
sbsg15
I00
sg16
g41
sbsg12
I2
sg15
I01
sg16
g79
sbsg29
(imyEvolve
Tree
p96
(dp97
g12
I2
sg22
(imyEvolve
Tree
p98
(dp99
g12
I1
sg22
(imyEvolve
Tree
p100
(dp101
g12
I0
sg13
F4.682438462593733
sg14
I01
sbsg29
(imyEvolve
Tree
p102
(dp103
g12
I0
sg13
F0.7064603397941465
sg14
I01
sbsg15
I00
sg16
g41
sbsg29
(imyEvolve
Tree
p104
(dp105
g7
(imyEvolve
Tree
p106
(dp107
g12
I0
sg13
F-2.454103889141738
sg14
I01
sbsg12
I1
sg15
I01
sg16
g79
sbsg15
I00
sg16
g32
sbsg15
I00
sg16
g41
sbsg15
I00
sg16
g32
sbsg29
(imyEvolve
Tree
p108
(dp109
g7
(imyEvolve
Tree
p110
(dp111
g7
(imyEvolve
Tree
p112
(dp113
g12
I2
sg22
(imyEvolve
Tree
p114
(dp115
g12
I1
sg22
(imyEvolve
Tree
p116
(dp117
g12
I0
sg13
F0.8948443796780445
sg14
I01
sbsg29
(imyEvolve
Tree
p118
(dp119
g12
I0
sg13
F-0.08401581658712054
sg14
I01
sbsg15
I00
sg16
g54
sbsg29
(imyEvolve
Tree
p120
(dp121
g12
I1
sg22
(imyEvolve
Tree
p122
(dp123
g12
I0
sg13
F-3.303894237384688
sg14
I01
sbsg29
(imyEvolve
Tree
p124
(dp125
g12
I0
sg13
F0.07304660864555057
sg14
I01
sbsg15
I00
sg16
g41
sbsg15
I00
sg16
g41
sbsg12
I3
sg15
I01
sg16
g40
sbsg12
I4
sg15
I01
sg16
g79
sbsg15
I00
sg16
g41
sba(imyEvolve
Tree
p126
(dp127
g12
I2
sg22
(imyEvolve
Tree
p128
(dp129
g7
(imyEvolve
Tree
p130
(dp131
g12
I0
sg13
F-1.714241824703524
sg14
I01
sbsg12
I1
sg15
I01
sg16
g40
sbsg29
(imyEvolve
Tree
p132
(dp133
g7
(imyEvolve
Tree
p134
(dp135
g12
I0
sg14
I00
sbsg12
I1
sg15
I01
sg16
g79
sbsg15
I00
sg16
g54
sba(imyEvolve
Tree
p136
(dp137
g7
(imyEvolve
Tree
p138
(dp139
g12
I4
sg22
(imyEvolve
Tree
p140
(dp141
g12
I3
sg22
(imyEvolve
Tree
p142
(dp143
g12
I2
sg22
(imyEvolve
Tree
p144
(dp145
g7
(imyEvolve
Tree
p146
(dp147
g12
I0
sg14
I00
sbsg12
I1
sg15
I01
sg16
g33
sbsg29
(imyEvolve
Tree
p148
(dp149
g7
(imyEvolve
Tree
p150
(dp151
g12
I0
sg13
F-1.8935609666090447
sg14
I01
sbsg12
I1
sg15
I01
sg16
g79
sbsg15
I00
sg16
g54
sbsg29
(imyEvolve
Tree
p152
(dp153
g7
(imyEvolve
Tree
p154
(dp155
g12
I1
sg22
(imyEvolve
Tree
p156
(dp157
g12
I0
sg13
F-3.235556756440517
sg14
I01
sbsg29
(imyEvolve
Tree
p158
(dp159
g12
I0
sg13
F0.9458914936051581
sg14
I01
sbsg15
I00
sg16
g32
sbsg12
I2
sg15
I01
sg16
g40
sbsg15
I00
sg16
g32
sbsg29
(imyEvolve
Tree
p160
(dp161
g7
(imyEvolve
Tree
p162
(dp163
g7
(imyEvolve
Tree
p164
(dp165
g12
I1
sg22
(imyEvolve
Tree
p166
(dp167
g12
I0
sg13
F-1.4592993249140775
sg14
I01
sbsg29
(imyEvolve
Tree
p168
(dp169
g12
I0
sg13
F1.398145195583104
sg14
I01
sbsg15
I00
sg16
g32
sbsg12
I2
sg15
I01
sg16
g17
sbsg12
I3
sg15
I01
sg16
g40
sbsg15
I00
sg16
g32
sbsg12
I5
sg15
I01
sg16
g33
sba(imyEvolve
Tree
p170
(dp171
g12
I3
sg22
(imyEvolve
Tree
p172
(dp173
g7
(imyEvolve
Tree
p174
(dp175
g7
(imyEvolve
Tree
p176
(dp177
g12
I0
sg13
F4.32988926092089
sg14
I01
sbsg12
I1
sg15
I01
sg16
g17
sbsg12
I2
sg15
I01
sg16
g17
sbsg29
(imyEvolve
Tree
p178
(dp179
g7
(imyEvolve
Tree
p180
(dp181
g7
(imyEvolve
Tree
p182
(dp183
g12
I0
sg14
I00
sbsg12
I1
sg15
I01
sg16
g79
sbsg12
I2
sg15
I01
sg16
g79
sbsg15
I00
sg16
g41
sba(imyEvolve
Tree
p184
(dp185
g12
I5
sg22
(imyEvolve
Tree
p186
(dp187
g7
(imyEvolve
Tree
p188
(dp189
g7
(imyEvolve
Tree
p190
(dp191
g7
(imyEvolve
Tree
p192
(dp193
g7
(imyEvolve
Tree
p194
(dp195
g12
I0
sg14
I00
sbsg12
I1
sg15
I01
sg16
g33
sbsg12
I2
sg15
I01
sg16
g79
sbsg12
I3
sg15
I01
sg16
g40
sbsg12
I4
sg15
I01
sg16
g40
sbsg29
(imyEvolve
Tree
p196
(dp197
g7
(imyEvolve
Tree
p198
(dp199
g7
(imyEvolve
Tree
p200
(dp201
g12
I2
sg22
(imyEvolve
Tree
p202
(dp203
g7
(imyEvolve
Tree
p204
(dp205
g12
I0
sg14
I00
sbsg12
I1
sg15
I01
sg16
g33
sbsg29
(imyEvolve
Tree
p206
(dp207
g7
(imyEvolve
Tree
p208
(dp209
g12
I0
sg13
F2.0515721782704945
sg14
I01
sbsg12
I1
sg15
I01
sg16
g40
sbsg15
I00
sg16
g54
sbsg12
I3
sg15
I01
sg16
g33
sbsg12
I4
sg15
I01
sg16
g40
sbsg15
I00
sg16
g32
sba(imyEvolve
Tree
p210
(dp211
g12
I4
sg22
(imyEvolve
Tree
p212
(dp213
g12
I3
sg22
(imyEvolve
Tree
p214
(dp215
g7
(imyEvolve
Tree
p216
(dp217
g7
(imyEvolve
Tree
p218
(dp219
g12
I0
sg13
F1.5610387499201783
sg14
I01
sbsg12
I1
sg15
I01
sg16
g33
sbsg12
I2
sg15
I01
sg16
g79
sbsg29
(imyEvolve
Tree
p220
(dp221
g7
(imyEvolve
Tree
p222
(dp223
g12
I1
sg22
(imyEvolve
Tree
p224
(dp225
g12
I0
sg14
I00
sbsg29
(imyEvolve
Tree
p226
(dp227
g12
I0
sg14
I00
sbsg15
I00
sg16
g41
sbsg12
I2
sg15
I01
sg16
g40
sbsg15
I00
sg16
g32
sbsg29
(imyEvolve
Tree
p228
(dp229
g7
(imyEvolve
Tree
p230
(dp231
g7
(imyEvolve
Tree
p232
(dp233
g7
(imyEvolve
Tree
p234
(dp235
g12
I0
sg14
I00
sbsg12
I1
sg15
I01
sg16
g17
sbsg12
I2
sg15
I01
sg16
g40
sbsg12
I3
sg15
I01
sg16
g40
sbsg15
I00
sg16
g41
sbaa(lp236
(imyEvolve
Tree
p237
(dp238
g7
(imyEvolve
Tree
p239
(dp240
g12
I1
sg22
(imyEvolve
Tree
p241
(dp242
g12
I0
sg14
I00
sbsg29
(imyEvolve
Tree
p243
(dp244
g12
I0
sg13
F1.1551292917490708
sg14
I01
sbsg15
I00
sg16
g32
sbsg12
I2
sg15
I01
sg16
g79
sba(imyEvolve
Tree
p245
(dp246
g7
(imyEvolve
Tree
p247
(dp248
g7
(imyEvolve
Tree
p249
(dp250
g7
(imyEvolve
Tree
p251
(dp252
g7
(imyEvolve
Tree
p253
(dp254
g12
I0
sg13
F4.928228870013244
sg14
I01
sbsg12
I1
sg15
I01
sg16
g17
sbsg12
I2
sg15
I01
sg16
g40
sbsg12
I3
sg15
I01
sg16
g33
sbsg12
I4
sg15
I01
sg16
g17
sba(imyEvolve
Tree
p255
(dp256
g12
I4
sg22
(imyEvolve
Tree
p257
(dp258
g12
I3
sg22
(imyEvolve
Tree
p259
(dp260
g12
I2
sg22
(imyEvolve
Tree
p261
(dp262
g12
I1
sg22
(imyEvolve
Tree
p263
(dp264
g12
I0
sg13
F-3.988060601387268
sg14
I01
sbsg29
(imyEvolve
Tree
p265
(dp266
g12
I0
sg14
I00
sbsg15
I00
sg16
g54
sbsg29
(imyEvolve
Tree
p267
(dp268
g12
I1
sg22
(imyEvolve
Tree
p269
(dp270
g12
I0
sg13
F-1.0726877353355944
sg14
I01
sbsg29
(imyEvolve
Tree
p271
(dp272
g12
I0
sg14
I00
sbsg15
I00
sg16
g32
sbsg15
I00
sg16
g32
sbsg29
(imyEvolve
Tree
p273
(dp274
g7
(imyEvolve
Tree
p275
(dp276
g7
(imyEvolve
Tree
p277
(dp278
g12
I0
sg13
F-0.10611663053005138
sg14
I01
sbsg12
I1
sg15
I01
sg16
g33
sbsg12
I2
sg15
I01
sg16
g17
sbsg15
I00
sg16
g41
sbsg29
(imyEvolve
Tree
p279
(dp280
g12
I3
sg22
(imyEvolve
Tree
p281
(dp282
g12
I2
sg22
(imyEvolve
Tree
p283
(dp284
g12
I1
sg22
(imyEvolve
Tree
p285
(dp286
g12
I0
sg14
I00
sbsg29
(imyEvolve
Tree
p287
(dp288
g12
I0
sg13
F-0.49265437758273833
sg14
I01
sbsg15
I00
sg16
g32
sbsg29
(imyEvolve
Tree
p289
(dp290
g12
I1
sg22
(imyEvolve
Tree
p291
(dp292
g12
I0
sg13
F0.6245080811091777
sg14
I01
sbsg29
(imyEvolve
Tree
p293
(dp294
g12
I0
sg13
F0.6932458098629555
sg14
I01
sbsg15
I00
sg16
g54
sbsg15
I00
sg16
g54
sbsg29
(imyEvolve
Tree
p295
(dp296
g7
(imyEvolve
Tree
p297
(dp298
g7
(imyEvolve
Tree
p299
(dp300
g12
I0
sg13
F-0.5610094433032202
sg14
I01
sbsg12
I1
sg15
I01
sg16
g33
sbsg12
I2
sg15
I01
sg16
g40
sbsg15
I00
sg16
g41
sbsg15
I00
sg16
g41
sba(imyEvolve
Tree
p301
(dp302
g7
(imyEvolve
Tree
p303
(dp304
g7
(imyEvolve
Tree
p305
(dp306
g7
(imyEvolve
Tree
p307
(dp308
g7
(imyEvolve
Tree
p309
(dp310
g7
(imyEvolve
Tree
p311
(dp312
g12
I0
sg14
I00
sbsg12
I1
sg15
I01
sg16
g40
sbsg12
I2
sg15
I01
sg16
g40
sbsg12
I3
sg15
I01
sg16
g17
sbsg12
I4
sg15
I01
sg16
g40
sbsg12
I5
sg15
I01
sg16
g33
sba(imyEvolve
Tree
p313
(dp314
g12
I3
sg22
(imyEvolve
Tree
p315
(dp316
g7
(imyEvolve
Tree
p317
(dp318
g7
(imyEvolve
Tree
p319
(dp320
g12
I0
sg13
F-3.4817165019452845
sg14
I01
sbsg12
I1
sg15
I01
sg16
g79
sbsg12
I2
sg15
I01
sg16
g79
sbsg29
(imyEvolve
Tree
p321
(dp322
g7
(imyEvolve
Tree
p323
(dp324
g12
I1
sg22
(imyEvolve
Tree
p325
(dp326
g12
I0
sg13
F-4.95240781362558
sg14
I01
sbsg29
(imyEvolve
Tree
p327
(dp328
g12
I0
sg13
F-0.5957533817976746
sg14
I01
sbsg15
I00
sg16
g41
sbsg12
I2
sg15
I01
sg16
g40
sbsg15
I00
sg16
g54
sba(imyEvolve
Tree
p329
(dp330
g12
I4
sg22
(imyEvolve
Tree
p331
(dp332
g7
(imyEvolve
Tree
p333
(dp334
g12
I2
sg22
(imyEvolve
Tree
p335
(dp336
g7
(imyEvolve
Tree
p337
(dp338
g12
I0
sg13
F4.7643693759733114
sg14
I01
sbsg12
I1
sg15
I01
sg16
g79
sbsg29
(imyEvolve
Tree
p339
(dp340
g12
I1
sg22
(imyEvolve
Tree
p341
(dp342
g12
I0
sg14
I00
sbsg29
(imyEvolve
Tree
p343
(dp344
g12
I0
sg14
I00
sbsg15
I00
sg16
g41
sbsg15
I00
sg16
g41
sbsg12
I3
sg15
I01
sg16
g17
sbsg29
(imyEvolve
Tree
p345
(dp346
g7
(imyEvolve
Tree
p347
(dp348
g7
(imyEvolve
Tree
p349
(dp350
g12
I1
sg22
(imyEvolve
Tree
p351
(dp352
g12
I0
sg14
I00
sbsg29
(imyEvolve
Tree
p353
(dp354
g12
I0
sg13
F-1.3892642741941086
sg14
I01
sbsg15
I00
sg16
g41
sbsg12
I2
sg15
I01
sg16
g17
sbsg12
I3
sg15
I01
sg16
g33
sbsg15
I00
sg16
g54
sba(imyEvolve
Tree
p355
(dp356
g12
I4
sg22
(imyEvolve
Tree
p357
(dp358
g12
I3
sg22
(imyEvolve
Tree
p359
(dp360
g7
(imyEvolve
Tree
p361
(dp362
g12
I1
sg22
(imyEvolve
Tree
p363
(dp364
g12
I0
sg13
F-4.097673464242798
sg14
I01
sbsg29
(imyEvolve
Tree
p365
(dp366
g12
I0
sg13
F1.6403291494372239
sg14
I01
sbsg15
I00
sg16
g41
sbsg12
I2
sg15
I01
sg16
g33
sbsg29
(imyEvolve
Tree
p367
(dp368
g7
(imyEvolve
Tree
p369
(dp370
g7
(imyEvolve
Tree
p371
(dp372
g12
I0
sg13
F0.8613601534900539
sg14
I01
sbsg12
I1
sg15
I01
sg16
g40
sbsg12
I2
sg15
I01
sg16
g40
sbsg15
I00
sg16
g54
sbsg29
(imyEvolve
Tree
p373
(dp374
g12
I3
sg22
(imyEvolve
Tree
p375
(dp376
g7
(imyEvolve
Tree
p377
(dp378
g7
(imyEvolve
Tree
p379
(dp380
g12
I0
sg13
F0.5488880009634309
sg14
I01
sbsg12
I1
sg15
I01
sg16
g79
sbsg12
I2
sg15
I01
sg16
g79
sbsg29
(imyEvolve
Tree
p381
(dp382
g7
(imyEvolve
Tree
p383
(dp384
g12
I1
sg22
(imyEvolve
Tree
p385
(dp386
g12
I0
sg14
I00
sbsg29
(imyEvolve
Tree
p387
(dp388
g12
I0
sg14
I00
sbsg15
I00
sg16
g54
sbsg12
I2
sg15
I01
sg16
g17
sbsg15
I00
sg16
g41
sbsg15
I00
sg16
g41
sba(imyEvolve
Tree
p389
(dp390
g7
(imyEvolve
Tree
p391
(dp392
g7
(imyEvolve
Tree
p393
(dp394
g7
(imyEvolve
Tree
p395
(dp396
g12
I0
sg14
I00
sbsg12
I1
sg15
I01
sg16
g33
sbsg12
I2
sg15
I01
sg16
g33
sbsg12
I3
sg15
I01
sg16
g79
sba(imyEvolve
Tree
p397
(dp398
g7
(imyEvolve
Tree
p399
(dp400
g7
(imyEvolve
Tree
p401
(dp402
g12
I2
sg22
(imyEvolve
Tree
p403
(dp404
g12
I1
sg22
(imyEvolve
Tree
p405
(dp406
g12
I0
sg14
I00
sbsg29
(imyEvolve
Tree
p407
(dp408
g12
I0
sg13
F4.063295203344298
sg14
I01
sbsg15
I00
sg16
g41
sbsg29
(imyEvolve
Tree
p409
(dp410
g7
(imyEvolve
Tree
p411
(dp412
g12
I0
sg13
F-3.4222369423742993
sg14
I01
sbsg12
I1
sg15
I01
sg16
g40
sbsg15
I00
sg16
g41
sbsg12
I3
sg15
I01
sg16
g17
sbsg12
I4
sg15
I01
sg16
g33
sba(imyEvolve
Tree
p413
(dp414
g12
I2
sg22
(imyEvolve
Tree
p415
(dp416
g7
(imyEvolve
Tree
p417
(dp418
g12
I0
sg14
I00
sbsg12
I1
sg15
I01
sg16
g40
sbsg29
(imyEvolve
Tree
p419
(dp420
g12
I1
sg22
(imyEvolve
Tree
p421
(dp422
g12
I0
sg14
I00
sbsg29
(imyEvolve
Tree
p423
(dp424
g12
I0
sg14
I00
sbsg15
I00
sg16
g54
sbsg15
I00
sg16
g32
sba(imyEvolve
Tree
p425
(dp426
g7
(imyEvolve
Tree
p427
(dp428
g12
I2
sg22
(imyEvolve
Tree
p429
(dp430
g7
(imyEvolve
Tree
p431
(dp432
g12
I0
sg13
F1.1076138988912723
sg14
I01
sbsg12
I1
sg15
I01
sg16
g40
sbsg29
(imyEvolve
Tree
p433
(dp434
g12
I1
sg22
(imyEvolve
Tree
p435
(dp436
g12
I0
sg14
I00
sbsg29
(imyEvolve
Tree
p437
(dp438
g12
I0
sg14
I00
sbsg15
I00
sg16
g54
sbsg15
I00
sg16
g32
sbsg12
I3
sg15
I01
sg16
g33
sba(imyEvolve
Tree
p439
(dp440
g12
I2
sg22
(imyEvolve
Tree
p441
(dp442
g7
(imyEvolve
Tree
p443
(dp444
g12
I0
sg13
F1.0834081462175966
sg14
I01
sbsg12
I1
sg15
I01
sg16
g17
sbsg29
(imyEvolve
Tree
p445
(dp446
g12
I1
sg22
(imyEvolve
Tree
p447
(dp448
g12
I0
sg14
I00
sbsg29
(imyEvolve
Tree
p449
(dp450
g12
I0
sg14
I00
sbsg15
I00
sg16
g41
sbsg15
I00
sg16
g54
sba(imyEvolve
Tree
p451
(dp452
g12
I3
sg22
(imyEvolve
Tree
p453
(dp454
g12
I2
sg22
(imyEvolve
Tree
p455
(dp456
g12
I1
sg22
(imyEvolve
Tree
p457
(dp458
g12
I0
sg14
I00
sbsg29
(imyEvolve
Tree
p459
(dp460
g12
I0
sg13
F1.6461690269571605
sg14
I01
sbsg15
I00
sg16
g54
sbsg29
(imyEvolve
Tree
p461
(dp462
g12
I1
sg22
(imyEvolve
Tree
p463
(dp464
g12
I0
sg13
F0.8842624596106132
sg14
I01
sbsg29
(imyEvolve
Tree
p465
(dp466
g12
I0
sg14
I00
sbsg15
I00
sg16
g32
sbsg15
I00
sg16
g54
sbsg29
(imyEvolve
Tree
p467
(dp468
g7
(imyEvolve
Tree
p469
(dp470
g7
(imyEvolve
Tree
p471
(dp472
g12
I0
sg14
I00
sbsg12
I1
sg15
I01
sg16
g33
sbsg12
I2
sg15
I01
sg16
g33
sbsg15
I00
sg16
g54
sba(imyEvolve
Tree
p473
(dp474
g7
(imyEvolve
Tree
p475
(dp476
g12
I2
sg22
(imyEvolve
Tree
p477
(dp478
g12
I1
sg22
(imyEvolve
Tree
p479
(dp480
g12
I0
sg13
F-4.364584465984765
sg14
I01
sbsg29
(imyEvolve
Tree
p481
(dp482
g12
I0
sg14
I00
sbsg15
I00
sg16
g54
sbsg29
(imyEvolve
Tree
p483
(dp484
g7
(imyEvolve
Tree
p485
(dp486
g12
I0
sg13
F-2.524906454388691
sg14
I01
sbsg12
I1
sg15
I01
sg16
g17
sbsg15
I00
sg16
g41
sbsg12
I3
sg15
I01
sg16
g40
sba(imyEvolve
Tree
p487
(dp488
g12
I2
sg22
(imyEvolve
Tree
p489
(dp490
g7
(imyEvolve
Tree
p491
(dp492
g12
I0
sg13
F-2.6387496755109927
sg14
I01
sbsg12
I1
sg15
I01
sg16
g79
sbsg29
(imyEvolve
Tree
p493
(dp494
g7
(imyEvolve
Tree
p495
(dp496
g12
I0
sg13
F-3.227398724263267
sg14
I01
sbsg12
I1
sg15
I01
sg16
g40
sbsg15
I00
sg16
g54
sba(imyEvolve
Tree
p497
(dp498
g7
(imyEvolve
Tree
p499
(dp500
g7
(imyEvolve
Tree
p501
(dp502
g12
I1
sg22
(imyEvolve
Tree
p503
(dp504
g12
I0
sg14
I00
sbsg29
(imyEvolve
Tree
p505
(dp506
g12
I0
sg13
F-3.283225647621224
sg14
I01
sbsg15
I00
sg16
g32
sbsg12
I2
sg15
I01
sg16
g17
sbsg12
I3
sg15
I01
sg16
g17
sba(imyEvolve
Tree
p507
(dp508
g7
(imyEvolve
Tree
p509
(dp510
g7
(imyEvolve
Tree
p511
(dp512
g7
(imyEvolve
Tree
p513
(dp514
g7
(imyEvolve
Tree
p515
(dp516
g12
I0
sg14
I00
sbsg12
I1
sg15
I01
sg16
g79
sbsg12
I2
sg15
I01
sg16
g17
sbsg12
I3
sg15
I01
sg16
g33
sbsg12
I4
sg15
I01
sg16
g40
sba(imyEvolve
Tree
p517
(dp518
g7
(imyEvolve
Tree
p519
(dp520
g7
(imyEvolve
Tree
p521
(dp522
g7
(imyEvolve
Tree
p523
(dp524
g12
I0
sg13
F-1.6287937620451096
sg14
I01
sbsg12
I1
sg15
I01
sg16
g33
sbsg12
I2
sg15
I01
sg16
g79
sbsg12
I3
sg15
I01
sg16
g17
sba(imyEvolve
Tree
p525
(dp526
g7
(imyEvolve
Tree
p527
(dp528
g12
I1
sg22
(imyEvolve
Tree
p529
(dp530
g12
I0
sg13
F-1.027873910591588
sg14
I01
sbsg29
(imyEvolve
Tree
p531
(dp532
g12
I0
sg14
I00
sbsg15
I00
sg16
g41
sbsg12
I2
sg15
I01
sg16
g33
sbaa(lp533
(imyEvolve
Tree
p534
(dp535
g12
I2
sg22
(imyEvolve
Tree
p536
(dp537
g12
I1
sg22
(imyEvolve
Tree
p538
(dp539
g12
I0
sg13
F-2.572410143724988
sg14
I01
sbsg29
(imyEvolve
Tree
p540
(dp541
g12
I0
sg14
I00
sbsg15
I00
sg16
g54
sbsg29
(imyEvolve
Tree
p542
(dp543
g12
I1
sg22
(imyEvolve
Tree
p544
(dp545
g12
I0
sg13
F-1.5773312349893267
sg14
I01
sbsg29
(imyEvolve
Tree
p546
(dp547
g12
I0
sg13
F-2.5997547876112725
sg14
I01
sbsg15
I00
sg16
g54
sbsg15
I00
sg16
g32
sba(imyEvolve
Tree
p548
(dp549
g12
I3
sg22
(imyEvolve
Tree
p550
(dp551
g7
(imyEvolve
Tree
p552
(dp553
g12
I1
sg22
(imyEvolve
Tree
p554
(dp555
g12
I0
sg13
F-1.911077222135594
sg14
I01
sbsg29
(imyEvolve
Tree
p556
(dp557
g12
I0
sg14
I00
sbsg15
I00
sg16
g54
sbsg12
I2
sg15
I01
sg16
g33
sbsg29
(imyEvolve
Tree
p558
(dp559
g12
I2
sg22
(imyEvolve
Tree
p560
(dp561
g7
(imyEvolve
Tree
p562
(dp563
g12
I0
sg14
I00
sbsg12
I1
sg15
I01
sg16
g17
sbsg29
(imyEvolve
Tree
p564
(dp565
g7
(imyEvolve
Tree
p566
(dp567
g12
I0
sg13
F-2.7956063855500455
sg14
I01
sbsg12
I1
sg15
I01
sg16
g17
sbsg15
I00
sg16
g54
sbsg15
I00
sg16
g54
sba(imyEvolve
Tree
p568
(dp569
g12
I4
sg22
(imyEvolve
Tree
p570
(dp571
g12
I3
sg22
(imyEvolve
Tree
p572
(dp573
g7
(imyEvolve
Tree
p574
(dp575
g12
I1
sg22
(imyEvolve
Tree
p576
(dp577
g12
I0
sg14
I00
sbsg29
(imyEvolve
Tree
p578
(dp579
g12
I0
sg14
I00
sbsg15
I00
sg16
g41
sbsg12
I2
sg15
I01
sg16
g33
sbsg29
(imyEvolve
Tree
p580
(dp581
g7
(imyEvolve
Tree
p582
(dp583
g7
(imyEvolve
Tree
p584
(dp585
g12
I0
sg14
I00
sbsg12
I1
sg15
I01
sg16
g33
sbsg12
I2
sg15
I01
sg16
g33
sbsg15
I00
sg16
g32
sbsg29
(imyEvolve
Tree
p586
(dp587
g7
(imyEvolve
Tree
p588
(dp589
g12
I2
sg22
(imyEvolve
Tree
p590
(dp591
g7
(imyEvolve
Tree
p592
(dp593
g12
I0
sg13
F3.07160773757313
sg14
I01
sbsg12
I1
sg15
I01
sg16
g40
sbsg29
(imyEvolve
Tree
p594
(dp595
g7
(imyEvolve
Tree
p596
(dp597
g12
I0
sg13
F4.439316079266316
sg14
I01
sbsg12
I1
sg15
I01
sg16
g40
sbsg15
I00
sg16
g54
sbsg12
I3
sg15
I01
sg16
g79
sbsg15
I00
sg16
g32
sba(imyEvolve
Tree
p598
(dp599
g7
(imyEvolve
Tree
p600
(dp601
g12
I3
sg22
(imyEvolve
Tree
p602
(dp603
g7
(imyEvolve
Tree
p604
(dp605
g7
(imyEvolve
Tree
p606
(dp607
g12
I0
sg14
I00
sbsg12
I1
sg15
I01
sg16
g40
sbsg12
I2
sg15
I01
sg16
g17
sbsg29
(imyEvolve
Tree
p608
(dp609
g7
(imyEvolve
Tree
p610
(dp611
g12
I1
sg22
(imyEvolve
Tree
p612
(dp613
g12
I0
sg14
I00
sbsg29
(imyEvolve
Tree
p614
(dp615
g12
I0
sg14
I00
sbsg15
I00
sg16
g32
sbsg12
I2
sg15
I01
sg16
g40
sbsg15
I00
sg16
g41
sbsg12
I4
sg15
I01
sg16
g33
sba(imyEvolve
Tree
p616
(dp617
g12
I2
sg22
(imyEvolve
Tree
p618
(dp619
g7
(imyEvolve
Tree
p620
(dp621
g12
I0
sg14
I00
sbsg12
I1
sg15
I01
sg16
g17
sbsg29
(imyEvolve
Tree
p622
(dp623
g12
I1
sg22
(imyEvolve
Tree
p624
(dp625
g12
I0
sg14
I00
sbsg29
(imyEvolve
Tree
p626
(dp627
g12
I0
sg13
F1.498460815052396
sg14
I01
sbsg15
I00
sg16
g54
sbsg15
I00
sg16
g54
sba(imyEvolve
Tree
p628
(dp629
g12
I5
sg22
(imyEvolve
Tree
p630
(dp631
g12
I4
sg22
(imyEvolve
Tree
p632
(dp633
g12
I3
sg22
(imyEvolve
Tree
p634
(dp635
g12
I2
sg22
(imyEvolve
Tree
p636
(dp637
g7
(imyEvolve
Tree
p638
(dp639
g12
I0
sg13
F-4.517798077577263
sg14
I01
sbsg12
I1
sg15
I01
sg16
g40
sbsg29
(imyEvolve
Tree
p640
(dp641
g12
I1
sg22
(imyEvolve
Tree
p642
(dp643
g12
I0
sg13
F-0.2195066408980324
sg14
I01
sbsg29
(imyEvolve
Tree
p644
(dp645
g12
I0
sg13
F-0.15596869306242134
sg14
I01
sbsg15
I00
sg16
g32
sbsg15
I00
sg16
g41
sbsg29
(imyEvolve
Tree
p646
(dp647
g7
(imyEvolve
Tree
p648
(dp649
g12
I1
sg22
(imyEvolve
Tree
p650
(dp651
g12
I0
sg14
I00
sbsg29
(imyEvolve
Tree
p652
(dp653
g12
I0
sg14
I00
sbsg15
I00
sg16
g54
sbsg12
I2
sg15
I01
sg16
g33
sbsg15
I00
sg16
g54
sbsg29
(imyEvolve
Tree
p654
(dp655
g7
(imyEvolve
Tree
p656
(dp657
g7
(imyEvolve
Tree
p658
(dp659
g12
I1
sg22
(imyEvolve
Tree
p660
(dp661
g12
I0
sg14
I00
sbsg29
(imyEvolve
Tree
p662
(dp663
g12
I0
sg14
I00
sbsg15
I00
sg16
g41
sbsg12
I2
sg15
I01
sg16
g40
sbsg12
I3
sg15
I01
sg16
g40
sbsg15
I00
sg16
g54
sbsg29
(imyEvolve
Tree
p664
(dp665
g12
I4
sg22
(imyEvolve
Tree
p666
(dp667
g7
(imyEvolve
Tree
p668
(dp669
g7
(imyEvolve
Tree
p670
(dp671
g12
I1
sg22
(imyEvolve
Tree
p672
(dp673
g12
I0
sg13
F-3.3646999433456304
sg14
I01
sbsg29
(imyEvolve
Tree
p674
(dp675
g12
I0
sg14
I00
sbsg15
I00
sg16
g41
sbsg12
I2
sg15
I01
sg16
g33
sbsg12
I3
sg15
I01
sg16
g79
sbsg29
(imyEvolve
Tree
p676
(dp677
g7
(imyEvolve
Tree
p678
(dp679
g7
(imyEvolve
Tree
p680
(dp681
g12
I1
sg22
(imyEvolve
Tree
p682
(dp683
g12
I0
sg14
I00
sbsg29
(imyEvolve
Tree
p684
(dp685
g12
I0
sg14
I00
sbsg15
I00
sg16
g54
sbsg12
I2
sg15
I01
sg16
g33
sbsg12
I3
sg15
I01
sg16
g33
sbsg15
I00
sg16
g32
sbsg15
I00
sg16
g41
sba(imyEvolve
Tree
p686
(dp687
g12
I2
sg22
(imyEvolve
Tree
p688
(dp689
g7
(imyEvolve
Tree
p690
(dp691
g12
I0
sg14
I00
sbsg12
I1
sg15
I01
sg16
g79
sbsg29
(imyEvolve
Tree
p692
(dp693
g12
I1
sg22
(imyEvolve
Tree
p694
(dp695
g12
I0
sg14
I00
sbsg29
(imyEvolve
Tree
p696
(dp697
g12
I0
sg14
I00
sbsg15
I00
sg16
g32
sbsg15
I00
sg16
g32
sba(imyEvolve
Tree
p698
(dp699
g12
I3
sg22
(imyEvolve
Tree
p700
(dp701
g12
I2
sg22
(imyEvolve
Tree
p702
(dp703
g12
I1
sg22
(imyEvolve
Tree
p704
(dp705
g12
I0
sg13
F1.0760660149677337
sg14
I01
sbsg29
(imyEvolve
Tree
p706
(dp707
g12
I0
sg14
I00
sbsg15
I00
sg16
g32
sbsg29
(imyEvolve
Tree
p708
(dp709
g7
(imyEvolve
Tree
p710
(dp711
g12
I0
sg14
I00
sbsg12
I1
sg15
I01
sg16
g33
sbsg15
I00
sg16
g41
sbsg29
(imyEvolve
Tree
p712
(dp713
g7
(imyEvolve
Tree
p714
(dp715
g7
(imyEvolve
Tree
p716
(dp717
g12
I0
sg13
F-0.6168853914992081
sg14
I01
sbsg12
I1
sg15
I01
sg16
g79
sbsg12
I2
sg15
I01
sg16
g79
sbsg15
I00
sg16
g41
sba(imyEvolve
Tree
p718
(dp719
g12
I2
sg22
(imyEvolve
Tree
p720
(dp721
g7
(imyEvolve
Tree
p722
(dp723
g12
I0
sg13
F-1.4677758942932604
sg14
I01
sbsg12
I1
sg15
I01
sg16
g17
sbsg29
(imyEvolve
Tree
p724
(dp725
g12
I1
sg22
(imyEvolve
Tree
p726
(dp727
g12
I0
sg13
F-4.976613899808283
sg14
I01
sbsg29
(imyEvolve
Tree
p728
(dp729
g12
I0
sg14
I00
sbsg15
I00
sg16
g41
sbsg15
I00
sg16
g54
sba(imyEvolve
Tree
p730
(dp731
g12
I3
sg22
(imyEvolve
Tree
p732
(dp733
g12
I2
sg22
(imyEvolve
Tree
p734
(dp735
g12
I1
sg22
(imyEvolve
Tree
p736
(dp737
g12
I0
sg13
F2.1552113983638277
sg14
I01
sbsg29
(imyEvolve
Tree
p738
(dp739
g12
I0
sg14
I00
sbsg15
I00
sg16
g32
sbsg29
(imyEvolve
Tree
p740
(dp741
g12
I1
sg22
(imyEvolve
Tree
p742
(dp743
g12
I0
sg14
I00
sbsg29
(imyEvolve
Tree
p744
(dp745
g12
I0
sg14
I00
sbsg15
I00
sg16
g41
sbsg15
I00
sg16
g32
sbsg29
(imyEvolve
Tree
p746
(dp747
g7
(imyEvolve
Tree
p748
(dp749
g12
I1
sg22
(imyEvolve
Tree
p750
(dp751
g12
I0
sg14
I00
sbsg29
(imyEvolve
Tree
p752
(dp753
g12
I0
sg13
F0.5524229045082771
sg14
I01
sbsg15
I00
sg16
g54
sbsg12
I2
sg15
I01
sg16
g40
sbsg15
I00
sg16
g32
sba(imyEvolve
Tree
p754
(dp755
g12
I3
sg22
(imyEvolve
Tree
p756
(dp757
g7
(imyEvolve
Tree
p758
(dp759
g7
(imyEvolve
Tree
p760
(dp761
g12
I0
sg13
F-4.262496857529857
sg14
I01
sbsg12
I1
sg15
I01
sg16
g40
sbsg12
I2
sg15
I01
sg16
g17
sbsg29
(imyEvolve
Tree
p762
(dp763
g12
I2
sg22
(imyEvolve
Tree
p764
(dp765
g7
(imyEvolve
Tree
p766
(dp767
g12
I0
sg14
I00
sbsg12
I1
sg15
I01
sg16
g33
sbsg29
(imyEvolve
Tree
p768
(dp769
g12
I1
sg22
(imyEvolve
Tree
p770
(dp771
g12
I0
sg14
I00
sbsg29
(imyEvolve
Tree
p772
(dp773
g12
I0
sg13
F0.14350444728007972
sg14
I01
sbsg15
I00
sg16
g41
sbsg15
I00
sg16
g54
sbsg15
I00
sg16
g41
sba(imyEvolve
Tree
p774
(dp775
g12
I2
sg22
(imyEvolve
Tree
p776
(dp777
g7
(imyEvolve
Tree
p778
(dp779
g12
I0
sg13
F-0.38966726634506976
sg14
I01
sbsg12
I1
sg15
I01
sg16
g40
sbsg29
(imyEvolve
Tree
p780
(dp781
g12
I1
sg22
(imyEvolve
Tree
p782
(dp783
g12
I0
sg14
I00
sbsg29
(imyEvolve
Tree
p784
(dp785
g12
I0
sg14
I00
sbsg15
I00
sg16
g54
sbsg15
I00
sg16
g54
sba(imyEvolve
Tree
p786
(dp787
g12
I5
sg22
(imyEvolve
Tree
p788
(dp789
g7
(imyEvolve
Tree
p790
(dp791
g12
I3
sg22
(imyEvolve
Tree
p792
(dp793
g7
(imyEvolve
Tree
p794
(dp795
g7
(imyEvolve
Tree
p796
(dp797
g12
I0
sg14
I00
sbsg12
I1
sg15
I01
sg16
g40
sbsg12
I2
sg15
I01
sg16
g79
sbsg29
(imyEvolve
Tree
p798
(dp799
g7
(imyEvolve
Tree
p800
(dp801
g7
(imyEvolve
Tree
p802
(dp803
g12
I0
sg13
F1.7699379309858978
sg14
I01
sbsg12
I1
sg15
I01
sg16
g17
sbsg12
I2
sg15
I01
sg16
g40
sbsg15
I00
sg16
g32
sbsg12
I4
sg15
I01
sg16
g40
sbsg29
(imyEvolve
Tree
p804
(dp805
g7
(imyEvolve
Tree
p806
(dp807
g7
(imyEvolve
Tree
p808
(dp809
g7
(imyEvolve
Tree
p810
(dp811
g7
(imyEvolve
Tree
p812
(dp813
g12
I0
sg13
F1.5992621549393942
sg14
I01
sbsg12
I1
sg15
I01
sg16
g79
sbsg12
I2
sg15
I01
sg16
g33
sbsg12
I3
sg15
I01
sg16
g33
sbsg12
I4
sg15
I01
sg16
g17
sbsg15
I00
sg16
g41
sba(imyEvolve
Tree
p814
(dp815
g12
I2
sg22
(imyEvolve
Tree
p816
(dp817
g12
I1
sg22
(imyEvolve
Tree
p818
(dp819
g12
I0
sg13
F-3.4489867141145014
sg14
I01
sbsg29
(imyEvolve
Tree
p820
(dp821
g12
I0
sg13
F3.573743688524795
sg14
I01
sbsg15
I00
sg16
g32
sbsg29
(imyEvolve
Tree
p822
(dp823
g12
I1
sg22
(imyEvolve
Tree
p824
(dp825
g12
I0
sg14
I00
sbsg29
(imyEvolve
Tree
p826
(dp827
g12
I0
sg13
F-3.4756891034567063
sg14
I01
sbsg15
I00
sg16
g41
sbsg15
I00
sg16
g41
sba(imyEvolve
Tree
p828
(dp829
g7
(imyEvolve
Tree
p830
(dp831
g7
(imyEvolve
Tree
p832
(dp833
g12
I0
sg14
I00
sbsg12
I1
sg15
I01
sg16
g79
sbsg12
I2
sg15
I01
sg16
g40
sba(imyEvolve
Tree
p834
(dp835
g7
(imyEvolve
Tree
p836
(dp837
g7
(imyEvolve
Tree
p838
(dp839
g12
I0
sg14
I00
sbsg12
I1
sg15
I01
sg16
g40
sbsg12
I2
sg15
I01
sg16
g40
sba(imyEvolve
Tree
p840
(dp841
g7
(imyEvolve
Tree
p842
(dp843
g7
(imyEvolve
Tree
p844
(dp845
g7
(imyEvolve
Tree
p846
(dp847
g7
(imyEvolve
Tree
p848
(dp849
g7
(imyEvolve
Tree
p850
(dp851
g12
I0
sg14
I00
sbsg12
I1
sg15
I01
sg16
g40
sbsg12
I2
sg15
I01
sg16
g33
sbsg12
I3
sg15
I01
sg16
g17
sbsg12
I4
sg15
I01
sg16
g33
sbsg12
I5
sg15
I01
sg16
g40
sba(imyEvolve
Tree
p852
(dp853
g12
I4
sg22
(imyEvolve
Tree
p854
(dp855
g7
(imyEvolve
Tree
p856
(dp857
g7
(imyEvolve
Tree
p858
(dp859
g12
I1
sg22
(imyEvolve
Tree
p860
(dp861
g12
I0
sg13
F-0.8640292037338293
sg14
I01
sbsg29
(imyEvolve
Tree
p862
(dp863
g12
I0
sg14
I00
sbsg15
I00
sg16
g41
sbsg12
I2
sg15
I01
sg16
g33
sbsg12
I3
sg15
I01
sg16
g40
sbsg29
(imyEvolve
Tree
p864
(dp865
g7
(imyEvolve
Tree
p866
(dp867
g12
I2
sg22
(imyEvolve
Tree
p868
(dp869
g7
(imyEvolve
Tree
p870
(dp871
g12
I0
sg14
I00
sbsg12
I1
sg15
I01
sg16
g17
sbsg29
(imyEvolve
Tree
p872
(dp873
g12
I1
sg22
(imyEvolve
Tree
p874
(dp875
g12
I0
sg14
I00
sbsg29
(imyEvolve
Tree
p876
(dp877
g12
I0
sg14
I00
sbsg15
I00
sg16
g41
sbsg15
I00
sg16
g41
sbsg12
I3
sg15
I01
sg16
g33
sbsg15
I00
sg16
g32
sba(imyEvolve
Tree
p878
(dp879
g12
I2
sg22
(imyEvolve
Tree
p880
(dp881
g7
(imyEvolve
Tree
p882
(dp883
g12
I0
sg14
I00
sbsg12
I1
sg15
I01
sg16
g17
sbsg29
(imyEvolve
Tree
p884
(dp885
g12
I1
sg22
(imyEvolve
Tree
p886
(dp887
g12
I0
sg14
I00
sbsg29
(imyEvolve
Tree
p888
(dp889
g12
I0
sg14
I00
sbsg15
I00
sg16
g54
sbsg15
I00
sg16
g54
sba(imyEvolve
Tree
p890
(dp891
g12
I5
sg22
(imyEvolve
Tree
p892
(dp893
g12
I4
sg22
(imyEvolve
Tree
p894
(dp895
g7
(imyEvolve
Tree
p896
(dp897
g12
I2
sg22
(imyEvolve
Tree
p898
(dp899
g12
I1
sg22
(imyEvolve
Tree
p900
(dp901
g12
I0
sg13
F1.8074954501569342
sg14
I01
sbsg29
(imyEvolve
Tree
p902
(dp903
g12
I0
sg14
I00
sbsg15
I00
sg16
g32
sbsg29
(imyEvolve
Tree
p904
(dp905
g12
I1
sg22
(imyEvolve
Tree
p906
(dp907
g12
I0
sg14
I00
sbsg29
(imyEvolve
Tree
p908
(dp909
g12
I0
sg14
I00
sbsg15
I00
sg16
g32
sbsg15
I00
sg16
g54
sbsg12
I3
sg15
I01
sg16
g33
sbsg29
(imyEvolve
Tree
p910
(dp911
g7
(imyEvolve
Tree
p912
(dp913
g12
I2
sg22
(imyEvolve
Tree
p914
(dp915
g12
I1
sg22
(imyEvolve
Tree
p916
(dp917
g12
I0
sg14
I00
sbsg29
(imyEvolve
Tree
p918
(dp919
g12
I0
sg13
F2.6891958056323233
sg14
I01
sbsg15
I00
sg16
g32
sbsg29
(imyEvolve
Tree
p920
(dp921
g12
I1
sg22
(imyEvolve
Tree
p922
(dp923
g12
I0
sg13
F4.781317974802208
sg14
I01
sbsg29
(imyEvolve
Tree
p924
(dp925
g12
I0
sg14
I00
sbsg15
I00
sg16
g41
sbsg15
I00
sg16
g41
sbsg12
I3
sg15
I01
sg16
g40
sbsg15
I00
sg16
g41
sbsg29
(imyEvolve
Tree
p926
(dp927
g7
(imyEvolve
Tree
p928
(dp929
g12
I3
sg22
(imyEvolve
Tree
p930
(dp931
g12
I2
sg22
(imyEvolve
Tree
p932
(dp933
g7
(imyEvolve
Tree
p934
(dp935
g12
I0
sg14
I00
sbsg12
I1
sg15
I01
sg16
g33
sbsg29
(imyEvolve
Tree
p936
(dp937
g7
(imyEvolve
Tree
p938
(dp939
g12
I0
sg14
I00
sbsg12
I1
sg15
I01
sg16
g33
sbsg15
I00
sg16
g54
sbsg29
(imyEvolve
Tree
p940
(dp941
g12
I2
sg22
(imyEvolve
Tree
p942
(dp943
g7
(imyEvolve
Tree
p944
(dp945
g12
I0
sg14
I00
sbsg12
I1
sg15
I01
sg16
g17
sbsg29
(imyEvolve
Tree
p946
(dp947
g12
I1
sg22
(imyEvolve
Tree
p948
(dp949
g12
I0
sg14
I00
sbsg29
(imyEvolve
Tree
p950
(dp951
g12
I0
sg14
I00
sbsg15
I00
sg16
g41
sbsg15
I00
sg16
g32
sbsg15
I00
sg16
g32
sbsg12
I4
sg15
I01
sg16
g40
sbsg15
I00
sg16
g54
sbaa(lp952
(imyEvolve
Tree
p953
(dp954
g12
I2
sg22
(imyEvolve
Tree
p955
(dp956
g7
(imyEvolve
Tree
p957
(dp958
g12
I0
sg13
F-2.1555696594263996
sg14
I01
sbsg12
I1
sg15
I01
sg16
g17
sbsg29
(imyEvolve
Tree
p959
(dp960
g7
(imyEvolve
Tree
p961
(dp962
g12
I0
sg14
I00
sbsg12
I1
sg15
I01
sg16
g17
sbsg15
I00
sg16
g32
sba(imyEvolve
Tree
p963
(dp964
g12
I2
sg22
(imyEvolve
Tree
p965
(dp966
g12
I1
sg22
(imyEvolve
Tree
p967
(dp968
g12
I0
sg14
I00
sbsg29
(imyEvolve
Tree
p969
(dp970
g12
I0
sg13
F-3.96518655310087
sg14
I01
sbsg15
I00
sg16
g41
sbsg29
(imyEvolve
Tree
p971
(dp972
g12
I1
sg22
(imyEvolve
Tree
p973
(dp974
g12
I0
sg14
I00
sbsg29
(imyEvolve
Tree
p975
(dp976
g12
I0
sg14
I00
sbsg15
I00
sg16
g54
sbsg15
I00
sg16
g32
sba(imyEvolve
Tree
p977
(dp978
g7
(imyEvolve
Tree
p979
(dp980
g12
I3
sg22
(imyEvolve
Tree
p981
(dp982
g7
(imyEvolve
Tree
p983
(dp984
g7
(imyEvolve
Tree
p985
(dp986
g12
I0
sg13
F0.066678670106187
sg14
I01
sbsg12
I1
sg15
I01
sg16
g40
sbsg12
I2
sg15
I01
sg16
g40
sbsg29
(imyEvolve
Tree
p987
(dp988
g12
I2
sg22
(imyEvolve
Tree
p989
(dp990
g7
(imyEvolve
Tree
p991
(dp992
g12
I0
sg14
I00
sbsg12
I1
sg15
I01
sg16
g17
sbsg29
(imyEvolve
Tree
p993
(dp994
g12
I1
sg22
(imyEvolve
Tree
p995
(dp996
g12
I0
sg14
I00
sbsg29
(imyEvolve
Tree
p997
(dp998
g12
I0
sg13
F3.537667924573473
sg14
I01
sbsg15
I00
sg16
g32
sbsg15
I00
sg16
g32
sbsg15
I00
sg16
g54
sbsg12
I4
sg15
I01
sg16
g33
sba(imyEvolve
Tree
p999
(dp1000
g12
I5
sg22
(imyEvolve
Tree
p1001
(dp1002
g7
(imyEvolve
Tree
p1003
(dp1004
g7
(imyEvolve
Tree
p1005
(dp1006
g12
I2
sg22
(imyEvolve
Tree
p1007
(dp1008
g7
(imyEvolve
Tree
p1009
(dp1010
g12
I0
sg13
F-3.1566763807560037
sg14
I01
sbsg12
I1
sg15
I01
sg16
g33
sbsg29
(imyEvolve
Tree
p1011
(dp1012
g12
I1
sg22
(imyEvolve
Tree
p1013
(dp1014
g12
I0
sg14
I00
sbsg29
(imyEvolve
Tree
p1015
(dp1016
g12
I0
sg14
I00
sbsg15
I00
sg16
g41
sbsg15
I00
sg16
g54
sbsg12
I3
sg15
I01
sg16
g40
sbsg12
I4
sg15
I01
sg16
g33
sbsg29
(imyEvolve
Tree
p1017
(dp1018
g12
I4
sg22
(imyEvolve
Tree
p1019
(dp1020
g12
I3
sg22
(imyEvolve
Tree
p1021
(dp1022
g12
I2
sg22
(imyEvolve
Tree
p1023
(dp1024
g12
I1
sg22
(imyEvolve
Tree
p1025
(dp1026
g12
I0
sg14
I00
sbsg29
(imyEvolve
Tree
p1027
(dp1028
g12
I0
sg14
I00
sbsg15
I00
sg16
g54
sbsg29
(imyEvolve
Tree
p1029
(dp1030
g12
I1
sg22
(imyEvolve
Tree
p1031
(dp1032
g12
I0
sg13
F-2.8813694104248
sg14
I01
sbsg29
(imyEvolve
Tree
p1033
(dp1034
g12
I0
sg13
F4.68113868334923
sg14
I01
sbsg15
I00
sg16
g54
sbsg15
I00
sg16
g41
sbsg29
(imyEvolve
Tree
p1035
(dp1036
g12
I2
sg22
(imyEvolve
Tree
p1037
(dp1038
g7
(imyEvolve
Tree
p1039
(dp1040
g12
I0
sg13
F4.161571192744656
sg14
I01
sbsg12
I1
sg15
I01
sg16
g40
sbsg29
(imyEvolve
Tree
p1041
(dp1042
g7
(imyEvolve
Tree
p1043
(dp1044
g12
I0
sg14
I00
sbsg12
I1
sg15
I01
sg16
g33
sbsg15
I00
sg16
g32
sbsg15
I00
sg16
g32
sbsg29
(imyEvolve
Tree
p1045
(dp1046
g7
(imyEvolve
Tree
p1047
(dp1048
g7
(imyEvolve
Tree
p1049
(dp1050
g12
I1
sg22
(imyEvolve
Tree
p1051
(dp1052
g12
I0
sg14
I00
sbsg29
(imyEvolve
Tree
p1053
(dp1054
g12
I0
sg14
I00
sbsg15
I00
sg16
g54
sbsg12
I2
sg15
I01
sg16
g79
sbsg12
I3
sg15
I01
sg16
g40
sbsg15
I00
sg16
g32
sbsg15
I00
sg16
g54
sba(imyEvolve
Tree
p1055
(dp1056
g12
I2
sg22
(imyEvolve
Tree
p1057
(dp1058
g12
I1
sg22
(imyEvolve
Tree
p1059
(dp1060
g12
I0
sg13
F0.660156133987698
sg14
I01
sbsg29
(imyEvolve
Tree
p1061
(dp1062
g12
I0
sg14
I00
sbsg15
I00
sg16
g41
sbsg29
(imyEvolve
Tree
p1063
(dp1064
g12
I1
sg22
(imyEvolve
Tree
p1065
(dp1066
g12
I0
sg13
F-0.8635809074529233
sg14
I01
sbsg29
(imyEvolve
Tree
p1067
(dp1068
g12
I0
sg14
I00
sbsg15
I00
sg16
g32
sbsg15
I00
sg16
g41
sba(imyEvolve
Tree
p1069
(dp1070
g7
(imyEvolve
Tree
p1071
(dp1072
g12
I2
sg22
(imyEvolve
Tree
p1073
(dp1074
g12
I1
sg22
(imyEvolve
Tree
p1075
(dp1076
g12
I0
sg14
I00
sbsg29
(imyEvolve
Tree
p1077
(dp1078
g12
I0
sg13
F2.9463192845350825
sg14
I01
sbsg15
I00
sg16
g32
sbsg29
(imyEvolve
Tree
p1079
(dp1080
g12
I1
sg22
(imyEvolve
Tree
p1081
(dp1082
g12
I0
sg13
F2.5884531740922334
sg14
I01
sbsg29
(imyEvolve
Tree
p1083
(dp1084
g12
I0
sg14
I00
sbsg15
I00
sg16
g54
sbsg15
I00
sg16
g32
sbsg12
I3
sg15
I01
sg16
g40
sba(imyEvolve
Tree
p1085
(dp1086
g12
I3
sg22
(imyEvolve
Tree
p1087
(dp1088
g7
(imyEvolve
Tree
p1089
(dp1090
g7
(imyEvolve
Tree
p1091
(dp1092
g12
I0
sg13
F-3.9059804538137435
sg14
I01
sbsg12
I1
sg15
I01
sg16
g33
sbsg12
I2
sg15
I01
sg16
g33
sbsg29
(imyEvolve
Tree
p1093
(dp1094
g7
(imyEvolve
Tree
p1095
(dp1096
g7
(imyEvolve
Tree
p1097
(dp1098
g12
I0
sg13
F-1.2995957614519291
sg14
I01
sbsg12
I1
sg15
I01
sg16
g33
sbsg12
I2
sg15
I01
sg16
g79
sbsg15
I00
sg16
g54
sba(imyEvolve
Tree
p1099
(dp1100
g12
I3
sg22
(imyEvolve
Tree
p1101
(dp1102
g12
I2
sg22
(imyEvolve
Tree
p1103
(dp1104
g7
(imyEvolve
Tree
p1105
(dp1106
g12
I0
sg13
F-4.4875753116118915
sg14
I01
sbsg12
I1
sg15
I01
sg16
g40
sbsg29
(imyEvolve
Tree
p1107
(dp1108
g7
(imyEvolve
Tree
p1109
(dp1110
g12
I0
sg13
F-3.466321532505805
sg14
I01
sbsg12
I1
sg15
I01
sg16
g17
sbsg15
I00
sg16
g54
sbsg29
(imyEvolve
Tree
p1111
(dp1112
g7
(imyEvolve
Tree
p1113
(dp1114
g12
I1
sg22
(imyEvolve
Tree
p1115
(dp1116
g12
I0
sg13
F-3.768256841055079
sg14
I01
sbsg29
(imyEvolve
Tree
p1117
(dp1118
g12
I0
sg14
I00
sbsg15
I00
sg16
g54
sbsg12
I2
sg15
I01
sg16
g79
sbsg15
I00
sg16
g32
sba(imyEvolve
Tree
p1119
(dp1120
g7
(imyEvolve
Tree
p1121
(dp1122
g7
(imyEvolve
Tree
p1123
(dp1124
g7
(imyEvolve
Tree
p1125
(dp1126
g12
I1
sg22
(imyEvolve
Tree
p1127
(dp1128
g12
I0
sg14
I00
sbsg29
(imyEvolve
Tree
p1129
(dp1130
g12
I0
sg14
I00
sbsg15
I00
sg16
g54
sbsg12
I2
sg15
I01
sg16
g40
sbsg12
I3
sg15
I01
sg16
g17
sbsg12
I4
sg15
I01
sg16
g17
sba(imyEvolve
Tree
p1131
(dp1132
g7
(imyEvolve
Tree
p1133
(dp1134
g7
(imyEvolve
Tree
p1135
(dp1136
g12
I3
sg22
(imyEvolve
Tree
p1137
(dp1138
g12
I2
sg22
(imyEvolve
Tree
p1139
(dp1140
g12
I1
sg22
(imyEvolve
Tree
p1141
(dp1142
g12
I0
sg13
F1.6964897630010745
sg14
I01
sbsg29
(imyEvolve
Tree
p1143
(dp1144
g12
I0
sg13
F-3.742720987034346
sg14
I01
sbsg15
I00
sg16
g41
sbsg29
(imyEvolve
Tree
p1145
(dp1146
g12
I1
sg22
(imyEvolve
Tree
p1147
(dp1148
g12
I0
sg14
I00
sbsg29
(imyEvolve
Tree
p1149
(dp1150
g12
I0
sg14
I00
sbsg15
I00
sg16
g32
sbsg15
I00
sg16
g32
sbsg29
(imyEvolve
Tree
p1151
(dp1152
g12
I2
sg22
(imyEvolve
Tree
p1153
(dp1154
g7
(imyEvolve
Tree
p1155
(dp1156
g12
I0
sg13
F-0.8458298279540042
sg14
I01
sbsg12
I1
sg15
I01
sg16
g17
sbsg29
(imyEvolve
Tree
p1157
(dp1158
g7
(imyEvolve
Tree
p1159
(dp1160
g12
I0
sg13
F-2.2890147113171064
sg14
I01
sbsg12
I1
sg15
I01
sg16
g17
sbsg15
I00
sg16
g54
sbsg15
I00
sg16
g41
sbsg12
I4
sg15
I01
sg16
g33
sbsg12
I5
sg15
I01
sg16
g17
sba(imyEvolve
Tree
p1161
(dp1162
g7
(imyEvolve
Tree
p1163
(dp1164
g7
(imyEvolve
Tree
p1165
(dp1166
g12
I1
sg22
(imyEvolve
Tree
p1167
(dp1168
g12
I0
sg13
F3.3201177007463336
sg14
I01
sbsg29
(imyEvolve
Tree
p1169
(dp1170
g12
I0
sg14
I00
sbsg15
I00
sg16
g32
sbsg12
I2
sg15
I01
sg16
g33
sbsg12
I3
sg15
I01
sg16
g33
sba(imyEvolve
Tree
p1171
(dp1172
g7
(imyEvolve
Tree
p1173
(dp1174
g12
I4
sg22
(imyEvolve
Tree
p1175
(dp1176
g7
(imyEvolve
Tree
p1177
(dp1178
g12
I2
sg22
(imyEvolve
Tree
p1179
(dp1180
g7
(imyEvolve
Tree
p1181
(dp1182
g12
I0
sg13
F-0.9931320008147617
sg14
I01
sbsg12
I1
sg15
I01
sg16
g17
sbsg29
(imyEvolve
Tree
p1183
(dp1184
g7
(imyEvolve
Tree
p1185
(dp1186
g12
I0
sg13
F-3.7090462506535946
sg14
I01
sbsg12
I1
sg15
I01
sg16
g17
sbsg15
I00
sg16
g41
sbsg12
I3
sg15
I01
sg16
g79
sbsg29
(imyEvolve
Tree
p1187
(dp1188
g7
(imyEvolve
Tree
p1189
(dp1190
g7
(imyEvolve
Tree
p1191
(dp1192
g12
I1
sg22
(imyEvolve
Tree
p1193
(dp1194
g12
I0
sg14
I00
sbsg29
(imyEvolve
Tree
p1195
(dp1196
g12
I0
sg13
F-2.102217850714746
sg14
I01
sbsg15
I00
sg16
g54
sbsg12
I2
sg15
I01
sg16
g17
sbsg12
I3
sg15
I01
sg16
g79
sbsg15
I00
sg16
g54
sbsg12
I5
sg15
I01
sg16
g33
sba(imyEvolve
Tree
p1197
(dp1198
g12
I2
sg22
(imyEvolve
Tree
p1199
(dp1200
g7
(imyEvolve
Tree
p1201
(dp1202
g12
I0
sg14
I00
sbsg12
I1
sg15
I01
sg16
g79
sbsg29
(imyEvolve
Tree
p1203
(dp1204
g7
(imyEvolve
Tree
p1205
(dp1206
g12
I0
sg14
I00
sbsg12
I1
sg15
I01
sg16
g17
sbsg15
I00
sg16
g32
sba(imyEvolve
Tree
p1207
(dp1208
g7
(imyEvolve
Tree
p1209
(dp1210
g7
(imyEvolve
Tree
p1211
(dp1212
g12
I2
sg22
(imyEvolve
Tree
p1213
(dp1214
g12
I1
sg22
(imyEvolve
Tree
p1215
(dp1216
g12
I0
sg14
I00
sbsg29
(imyEvolve
Tree
p1217
(dp1218
g12
I0
sg14
I00
sbsg15
I00
sg16
g32
sbsg29
(imyEvolve
Tree
p1219
(dp1220
g12
I1
sg22
(imyEvolve
Tree
p1221
(dp1222
g12
I0
sg13
F2.720264478575702
sg14
I01
sbsg29
(imyEvolve
Tree
p1223
(dp1224
g12
I0
sg14
I00
sbsg15
I00
sg16
g54
sbsg15
I00
sg16
g41
sbsg12
I3
sg15
I01
sg16
g40
sbsg12
I4
sg15
I01
sg16
g79
sba(imyEvolve
Tree
p1225
(dp1226
g12
I2
sg22
(imyEvolve
Tree
p1227
(dp1228
g7
(imyEvolve
Tree
p1229
(dp1230
g12
I0
sg13
F2.930346188483904
sg14
I01
sbsg12
I1
sg15
I01
sg16
g17
sbsg29
(imyEvolve
Tree
p1231
(dp1232
g12
I1
sg22
(imyEvolve
Tree
p1233
(dp1234
g12
I0
sg13
F-4.3046632571849495
sg14
I01
sbsg29
(imyEvolve
Tree
p1235
(dp1236
g12
I0
sg14
I00
sbsg15
I00
sg16
g41
sbsg15
I00
sg16
g54
sba(imyEvolve
Tree
p1237
(dp1238
g12
I2
sg22
(imyEvolve
Tree
p1239
(dp1240
g7
(imyEvolve
Tree
p1241
(dp1242
g12
I0
sg13
F1.0196194791461997
sg14
I01
sbsg12
I1
sg15
I01
sg16
g33
sbsg29
(imyEvolve
Tree
p1243
(dp1244
g12
I1
sg22
(imyEvolve
Tree
p1245
(dp1246
g12
I0
sg13
F-4.222022127364119
sg14
I01
sbsg29
(imyEvolve
Tree
p1247
(dp1248
g12
I0
sg14
I00
sbsg15
I00
sg16
g41
sbsg15
I00
sg16
g32
sba(imyEvolve
Tree
p1249
(dp1250
g7
(imyEvolve
Tree
p1251
(dp1252
g7
(imyEvolve
Tree
p1253
(dp1254
g12
I1
sg22
(imyEvolve
Tree
p1255
(dp1256
g12
I0
sg14
I00
sbsg29
(imyEvolve
Tree
p1257
(dp1258
g12
I0
sg13
F-3.1930243941507577
sg14
I01
sbsg15
I00
sg16
g41
sbsg12
I2
sg15
I01
sg16
g17
sbsg12
I3
sg15
I01
sg16
g79
sbaa(lp1259
(imyEvolve
Tree
p1260
(dp1261
g7
(imyEvolve
Tree
p1262
(dp1263
g7
(imyEvolve
Tree
p1264
(dp1265
g12
I2
sg22
(imyEvolve
Tree
p1266
(dp1267
g7
(imyEvolve
Tree
p1268
(dp1269
g12
I0
sg13
F2.617687602464599
sg14
I01
sbsg12
I1
sg15
I01
sg16
g33
sbsg29
(imyEvolve
Tree
p1270
(dp1271
g7
(imyEvolve
Tree
p1272
(dp1273
g12
I0
sg13
F-3.323350361884171
sg14
I01
sbsg12
I1
sg15
I01
sg16
g33
sbsg15
I00
sg16
g41
sbsg12
I3
sg15
I01
sg16
g79
sbsg12
I4
sg15
I01
sg16
g17
sba(imyEvolve
Tree
p1274
(dp1275
g7
(imyEvolve
Tree
p1276
(dp1277
g7
(imyEvolve
Tree
p1278
(dp1279
g12
I2
sg22
(imyEvolve
Tree
p1280
(dp1281
g7
(imyEvolve
Tree
p1282
(dp1283
g12
I0
sg14
I00
sbsg12
I1
sg15
I01
sg16
g33
sbsg29
(imyEvolve
Tree
p1284
(dp1285
g12
I1
sg22
(imyEvolve
Tree
p1286
(dp1287
g12
I0
sg14
I00
sbsg29
(imyEvolve
Tree
p1288
(dp1289
g12
I0
sg13
F2.727475743721241
sg14
I01
sbsg15
I00
sg16
g32
sbsg15
I00
sg16
g41
sbsg12
I3
sg15
I01
sg16
g79
sbsg12
I4
sg15
I01
sg16
g17
sba(imyEvolve
Tree
p1290
(dp1291
g7
(imyEvolve
Tree
p1292
(dp1293
g7
(imyEvolve
Tree
p1294
(dp1295
g12
I2
sg22
(imyEvolve
Tree
p1296
(dp1297
g12
I1
sg22
(imyEvolve
Tree
p1298
(dp1299
g12
I0
sg14
I00
sbsg29
(imyEvolve
Tree
p1300
(dp1301
g12
I0
sg14
I00
sbsg15
I00
sg16
g54
sbsg29
(imyEvolve
Tree
p1302
(dp1303
g7
(imyEvolve
Tree
p1304
(dp1305
g12
I0
sg14
I00
sbsg12
I1
sg15
I01
sg16
g17
sbsg15
I00
sg16
g54
sbsg12
I3
sg15
I01
sg16
g79
sbsg12
I4
sg15
I01
sg16
g33
sba(imyEvolve
Tree
p1306
(dp1307
g12
I4
sg22
(imyEvolve
Tree
p1308
(dp1309
g12
I3
sg22
(imyEvolve
Tree
p1310
(dp1311
g7
(imyEvolve
Tree
p1312
(dp1313
g12
I1
sg22
(imyEvolve
Tree
p1314
(dp1315
g12
I0
sg14
I00
sbsg29
(imyEvolve
Tree
p1316
(dp1317
g12
I0
sg13
F-1.516349149971644
sg14
I01
sbsg15
I00
sg16
g41
sbsg12
I2
sg15
I01
sg16
g40
sbsg29
(imyEvolve
Tree
p1318
(dp1319
g7
(imyEvolve
Tree
p1320
(dp1321
g7
(imyEvolve
Tree
p1322
(dp1323
g12
I0
sg13
F0.9869309087664879
sg14
I01
sbsg12
I1
sg15
I01
sg16
g33
sbsg12
I2
sg15
I01
sg16
g79
sbsg15
I00
sg16
g54
sbsg29
(imyEvolve
Tree
p1324
(dp1325
g12
I3
sg22
(imyEvolve
Tree
p1326
(dp1327
g12
I2
sg22
(imyEvolve
Tree
p1328
(dp1329
g7
(imyEvolve
Tree
p1330
(dp1331
g12
I0
sg14
I00
sbsg12
I1
sg15
I01
sg16
g33
sbsg29
(imyEvolve
Tree
p1332
(dp1333
g7
(imyEvolve
Tree
p1334
(dp1335
g12
I0
sg14
I00
sbsg12
I1
sg15
I01
sg16
g40
sbsg15
I00
sg16
g54
sbsg29
(imyEvolve
Tree
p1336
(dp1337
g7
(imyEvolve
Tree
p1338
(dp1339
g12
I1
sg22
(imyEvolve
Tree
p1340
(dp1341
g12
I0
sg13
F-1.225250715415739
sg14
I01
sbsg29
(imyEvolve
Tree
p1342
(dp1343
g12
I0
sg13
F4.9529385679211675
sg14
I01
sbsg15
I00
sg16
g54
sbsg12
I2
sg15
I01
sg16
g40
sbsg15
I00
sg16
g54
sbsg15
I00
sg16
g41
sba(imyEvolve
Tree
p1344
(dp1345
g12
I3
sg22
(imyEvolve
Tree
p1346
(dp1347
g7
(imyEvolve
Tree
p1348
(dp1349
g12
I1
sg22
(imyEvolve
Tree
p1350
(dp1351
g12
I0
sg13
F2.1828640680558786
sg14
I01
sbsg29
(imyEvolve
Tree
p1352
(dp1353
g12
I0
sg14
I00
sbsg15
I00
sg16
g32
sbsg12
I2
sg15
I01
sg16
g79
sbsg29
(imyEvolve
Tree
p1354
(dp1355
g12
I2
sg22
(imyEvolve
Tree
p1356
(dp1357
g7
(imyEvolve
Tree
p1358
(dp1359
g12
I0
sg13
F1.7006430780642203
sg14
I01
sbsg12
I1
sg15
I01
sg16
g17
sbsg29
(imyEvolve
Tree
p1360
(dp1361
g7
(imyEvolve
Tree
p1362
(dp1363
g12
I0
sg13
F3.32733713055476
sg14
I01
sbsg12
I1
sg15
I01
sg16
g17
sbsg15
I00
sg16
g32
sbsg15
I00
sg16
g41
sba(imyEvolve
Tree
p1364
(dp1365
g12
I2
sg22
(imyEvolve
Tree
p1366
(dp1367
g12
I1
sg22
(imyEvolve
Tree
p1368
(dp1369
g12
I0
sg14
I00
sbsg29
(imyEvolve
Tree
p1370
(dp1371
g12
I0
sg14
I00
sbsg15
I00
sg16
g41
sbsg29
(imyEvolve
Tree
p1372
(dp1373
g12
I1
sg22
(imyEvolve
Tree
p1374
(dp1375
g12
I0
sg14
I00
sbsg29
(imyEvolve
Tree
p1376
(dp1377
g12
I0
sg13
F2.675217750451563
sg14
I01
sbsg15
I00
sg16
g54
sbsg15
I00
sg16
g32
sba(imyEvolve
Tree
p1378
(dp1379
g7
(imyEvolve
Tree
p1380
(dp1381
g7
(imyEvolve
Tree
p1382
(dp1383
g12
I2
sg22
(imyEvolve
Tree
p1384
(dp1385
g12
I1
sg22
(imyEvolve
Tree
p1386
(dp1387
g12
I0
sg14
I00
sbsg29
(imyEvolve
Tree
p1388
(dp1389
g12
I0
sg14
I00
sbsg15
I00
sg16
g32
sbsg29
(imyEvolve
Tree
p1390
(dp1391
g7
(imyEvolve
Tree
p1392
(dp1393
g12
I0
sg14
I00
sbsg12
I1
sg15
I01
sg16
g17
sbsg15
I00
sg16
g41
sbsg12
I3
sg15
I01
sg16
g33
sbsg12
I4
sg15
I01
sg16
g79
sba(imyEvolve
Tree
p1394
(dp1395
g12
I4
sg22
(imyEvolve
Tree
p1396
(dp1397
g7
(imyEvolve
Tree
p1398
(dp1399
g12
I2
sg22
(imyEvolve
Tree
p1400
(dp1401
g7
(imyEvolve
Tree
p1402
(dp1403
g12
I0
sg13
F-4.60465038163715
sg14
I01
sbsg12
I1
sg15
I01
sg16
g40
sbsg29
(imyEvolve
Tree
p1404
(dp1405
g12
I1
sg22
(imyEvolve
Tree
p1406
(dp1407
g12
I0
sg14
I00
sbsg29
(imyEvolve
Tree
p1408
(dp1409
g12
I0
sg14
I00
sbsg15
I00
sg16
g54
sbsg15
I00
sg16
g54
sbsg12
I3
sg15
I01
sg16
g17
sbsg29
(imyEvolve
Tree
p1410
(dp1411
g12
I3
sg22
(imyEvolve
Tree
p1412
(dp1413
g7
(imyEvolve
Tree
p1414
(dp1415
g7
(imyEvolve
Tree
p1416
(dp1417
g12
I0
sg14
I00
sbsg12
I1
sg15
I01
sg16
g33
sbsg12
I2
sg15
I01
sg16
g40
sbsg29
(imyEvolve
Tree
p1418
(dp1419
g12
I2
sg22
(imyEvolve
Tree
p1420
(dp1421
g7
(imyEvolve
Tree
p1422
(dp1423
g12
I0
sg13
F3.906640025114033
sg14
I01
sbsg12
I1
sg15
I01
sg16
g17
sbsg29
(imyEvolve
Tree
p1424
(dp1425
g12
I1
sg22
(imyEvolve
Tree
p1426
(dp1427
g12
I0
sg13
F-2.1531979135661174
sg14
I01
sbsg29
(imyEvolve
Tree
p1428
(dp1429
g12
I0
sg13
F-1.7451100779172082
sg14
I01
sbsg15
I00
sg16
g41
sbsg15
I00
sg16
g32
sbsg15
I00
sg16
g32
sbsg15
I00
sg16
g41
sbaasS'weightSharing'
p1430
(lp1431
I01
aI01
aI01
aI01
asS'fitnessValid'
p1432
I00
sS'fitness'
p1433
cnumpy.core.multiarray
scalar
p1434
(cnumpy
dtype
p1435
(S'f8'
p1436
I0
I1
tp1437
Rp1438
(I3
S'<'
p1439
NNNI-1
I-1
I0
tp1440
bS'\xd1"\xdb\xffg!\xe6?'
p1441
tp1442
Rp1443
sS'alpha'
p1444
F0.008187631282629594
sS'resolution'
p1445
I32
sb.