(imyEvolve
Individual
p0
(dp1
S'funcs'
p2
(lp3
(lp4
(imyEvolve
Tree
p5
(dp6
S'below'
p7
(imyEvolve
Tree
p8
(dp9
S'depth'
p10
I3
sS'left'
p11
(imyEvolve
Tree
p12
(dp13
g10
I2
sg11
(imyEvolve
Tree
p14
(dp15
g7
(imyEvolve
Tree
p16
(dp17
g10
I0
sS'constant'
p18
F1.6881201864735393
sS'isConstant'
p19
I01
sbsg10
I1
sS'single'
p20
I01
sS'op'
p21
cmyEvolve
square
p22
sbsS'right'
p23
(imyEvolve
Tree
p24
(dp25
g10
I1
sg11
(imyEvolve
Tree
p26
(dp27
g10
I0
sg18
F2.0769920283008716
sg19
I01
sbsg23
(imyEvolve
Tree
p28
(dp29
g10
I0
sg19
I00
sbsg20
I00
sg21
coperator
sub
p30
sbsg20
I00
sg21
coperator
mul
p31
sbsg23
(imyEvolve
Tree
p32
(dp33
g10
I2
sg11
(imyEvolve
Tree
p34
(dp35
g7
(imyEvolve
Tree
p36
(dp37
g10
I0
sg18
F4.130986842243509
sg19
I01
sbsg10
I1
sg20
I01
sg21
cmath
sin
p38
sbsg23
(imyEvolve
Tree
p39
(dp40
g10
I1
sg11
(imyEvolve
Tree
p41
(dp42
g10
I0
sg19
I00
sbsg23
(imyEvolve
Tree
p43
(dp44
g10
I0
sg18
F2.9220807815346745
sg19
I01
sbsg20
I00
sg21
g31
sbsg20
I00
sg21
coperator
add
p45
sbsg20
I00
sg21
g45
sbsg10
I4
sg20
I01
sg21
cmath
cos
p46
sba(imyEvolve
Tree
p47
(dp48
g10
I2
sg11
(imyEvolve
Tree
p49
(dp50
g7
(imyEvolve
Tree
p51
(dp52
g10
I0
sg19
I00
sbsg10
I1
sg20
I01
sg21
g22
sbsg23
(imyEvolve
Tree
p53
(dp54
g7
(imyEvolve
Tree
p55
(dp56
g10
I0
sg19
I00
sbsg10
I1
sg20
I01
sg21
g38
sbsg20
I00
sg21
g30
sba(imyEvolve
Tree
p57
(dp58
g10
I2
sg11
(imyEvolve
Tree
p59
(dp60
g7
(imyEvolve
Tree
p61
(dp62
g10
I0
sg18
F-1.463569250664687
sg19
I01
sbsg10
I1
sg20
I01
sg21
g46
sbsg23
(imyEvolve
Tree
p63
(dp64
g7
(imyEvolve
Tree
p65
(dp66
g10
I0
sg19
I00
sbsg10
I1
sg20
I01
sg21
g22
sbsg20
I00
sg21
g31
sba(imyEvolve
Tree
p67
(dp68
g10
I4
sg11
(imyEvolve
Tree
p69
(dp70
g7
(imyEvolve
Tree
p71
(dp72
g10
I2
sg11
(imyEvolve
Tree
p73
(dp74
g10
I1
sg11
(imyEvolve
Tree
p75
(dp76
g10
I0
sg19
I00
sbsg23
(imyEvolve
Tree
p77
(dp78
g10
I0
sg19
I00
sbsg20
I00
sg21
g31
sbsg23
(imyEvolve
Tree
p79
(dp80
g10
I1
sg11
(imyEvolve
Tree
p81
(dp82
g10
I0
sg19
I00
sbsg23
(imyEvolve
Tree
p83
(dp84
g10
I0
sg19
I00
sbsg20
I00
sg21
g31
sbsg20
I00
sg21
g31
sbsg10
I3
sg20
I01
sg21
cmyEvolve
absSqrt
p85
sbsg23
(imyEvolve
Tree
p86
(dp87
g7
(imyEvolve
Tree
p88
(dp89
g10
I2
sg11
(imyEvolve
Tree
p90
(dp91
g10
I1
sg11
(imyEvolve
Tree
p92
(dp93
g10
I0
sg19
I00
sbsg23
(imyEvolve
Tree
p94
(dp95
g10
I0
sg19
I00
sbsg20
I00
sg21
g45
sbsg23
(imyEvolve
Tree
p96
(dp97
g10
I1
sg11
(imyEvolve
Tree
p98
(dp99
g10
I0
sg18
F3.40939808103926
sg19
I01
sbsg23
(imyEvolve
Tree
p100
(dp101
g10
I0
sg19
I00
sbsg20
I00
sg21
g30
sbsg20
I00
sg21
g31
sbsg10
I3
sg20
I01
sg21
g22
sbsg20
I00
sg21
g30
sba(imyEvolve
Tree
p102
(dp103
g7
(imyEvolve
Tree
p104
(dp105
g7
(imyEvolve
Tree
p106
(dp107
g10
I3
sg11
(imyEvolve
Tree
p108
(dp109
g10
I2
sg11
(imyEvolve
Tree
p110
(dp111
g10
I1
sg11
(imyEvolve
Tree
p112
(dp113
g10
I0
sg18
F1.4254366073594502
sg19
I01
sbsg23
(imyEvolve
Tree
p114
(dp115
g10
I0
sg18
F2.980437568402796
sg19
I01
sbsg20
I00
sg21
g45
sbsg23
(imyEvolve
Tree
p116
(dp117
g7
(imyEvolve
Tree
p118
(dp119
g10
I0
sg18
F3.6719874162572452
sg19
I01
sbsg10
I1
sg20
I01
sg21
g46
sbsg20
I00
sg21
g45
sbsg23
(imyEvolve
Tree
p120
(dp121
g10
I2
sg11
(imyEvolve
Tree
p122
(dp123
g7
(imyEvolve
Tree
p124
(dp125
g10
I0
sg19
I00
sbsg10
I1
sg20
I01
sg21
g38
sbsg23
(imyEvolve
Tree
p126
(dp127
g10
I1
sg11
(imyEvolve
Tree
p128
(dp129
g10
I0
sg19
I00
sbsg23
(imyEvolve
Tree
p130
(dp131
g10
I0
sg18
F4.175121650673475
sg19
I01
sbsg20
I00
sg21
g30
sbsg20
I00
sg21
g45
sbsg20
I00
sg21
g31
sbsg10
I4
sg20
I01
sg21
g22
sbsg10
I5
sg20
I01
sg21
g38
sba(imyEvolve
Tree
p132
(dp133
g10
I5
sg11
(imyEvolve
Tree
p134
(dp135
g7
(imyEvolve
Tree
p136
(dp137
g7
(imyEvolve
Tree
p138
(dp139
g10
I2
sg11
(imyEvolve
Tree
p140
(dp141
g10
I1
sg11
(imyEvolve
Tree
p142
(dp143
g10
I0
sg19
I00
sbsg23
(imyEvolve
Tree
p144
(dp145
g10
I0
sg18
F3.483159369385376
sg19
I01
sbsg20
I00
sg21
g31
sbsg23
(imyEvolve
Tree
p146
(dp147
g10
I1
sg11
(imyEvolve
Tree
p148
(dp149
g10
I0
sg18
F2.977121810316178
sg19
I01
sbsg23
(imyEvolve
Tree
p150
(dp151
g10
I0
sg18
F-3.216010917853682
sg19
I01
sbsg20
I00
sg21
g45
sbsg20
I00
sg21
g30
sbsg10
I3
sg20
I01
sg21
g22
sbsg10
I4
sg20
I01
sg21
g85
sbsg23
(imyEvolve
Tree
p152
(dp153
g10
I4
sg11
(imyEvolve
Tree
p154
(dp155
g10
I3
sg11
(imyEvolve
Tree
p156
(dp157
g7
(imyEvolve
Tree
p158
(dp159
g7
(imyEvolve
Tree
p160
(dp161
g10
I0
sg18
F-3.7137763069364302
sg19
I01
sbsg10
I1
sg20
I01
sg21
g46
sbsg10
I2
sg20
I01
sg21
g46
sbsg23
(imyEvolve
Tree
p162
(dp163
g7
(imyEvolve
Tree
p164
(dp165
g10
I1
sg11
(imyEvolve
Tree
p166
(dp167
g10
I0
sg18
F-2.280329411084944
sg19
I01
sbsg23
(imyEvolve
Tree
p168
(dp169
g10
I0
sg19
I00
sbsg20
I00
sg21
g45
sbsg10
I2
sg20
I01
sg21
g22
sbsg20
I00
sg21
g45
sbsg23
(imyEvolve
Tree
p170
(dp171
g10
I3
sg11
(imyEvolve
Tree
p172
(dp173
g10
I2
sg11
(imyEvolve
Tree
p174
(dp175
g7
(imyEvolve
Tree
p176
(dp177
g10
I0
sg19
I00
sbsg10
I1
sg20
I01
sg21
g85
sbsg23
(imyEvolve
Tree
p178
(dp179
g10
I1
sg11
(imyEvolve
Tree
p180
(dp181
g10
I0
sg19
I00
sbsg23
(imyEvolve
Tree
p182
(dp183
g10
I0
sg19
I00
sbsg20
I00
sg21
g31
sbsg20
I00
sg21
g45
sbsg23
(imyEvolve
Tree
p184
(dp185
g10
I2
sg11
(imyEvolve
Tree
p186
(dp187
g10
I1
sg11
(imyEvolve
Tree
p188
(dp189
g10
I0
sg19
I00
sbsg23
(imyEvolve
Tree
p190
(dp191
g10
I0
sg18
F-0.041688319337989554
sg19
I01
sbsg20
I00
sg21
g45
sbsg23
(imyEvolve
Tree
p192
(dp193
g7
(imyEvolve
Tree
p194
(dp195
g10
I0
sg18
F1.8050004350053284
sg19
I01
sbsg10
I1
sg20
I01
sg21
g85
sbsg20
I00
sg21
g30
sbsg20
I00
sg21
g31
sbsg20
I00
sg21
g30
sbsg20
I00
sg21
g45
sba(imyEvolve
Tree
p196
(dp197
g10
I2
sg11
(imyEvolve
Tree
p198
(dp199
g7
(imyEvolve
Tree
p200
(dp201
g10
I0
sg19
I00
sbsg10
I1
sg20
I01
sg21
g22
sbsg23
(imyEvolve
Tree
p202
(dp203
g10
I1
sg11
(imyEvolve
Tree
p204
(dp205
g10
I0
sg18
F1.9174545801300962
sg19
I01
sbsg23
(imyEvolve
Tree
p206
(dp207
g10
I0
sg18
F-0.6342292809168759
sg19
I01
sbsg20
I00
sg21
g30
sbsg20
I00
sg21
g31
sba(imyEvolve
Tree
p208
(dp209
g10
I2
sg11
(imyEvolve
Tree
p210
(dp211
g10
I1
sg11
(imyEvolve
Tree
p212
(dp213
g10
I0
sg19
I00
sbsg23
(imyEvolve
Tree
p214
(dp215
g10
I0
sg18
F0.9954853160194874
sg19
I01
sbsg20
I00
sg21
g31
sbsg23
(imyEvolve
Tree
p216
(dp217
g10
I1
sg11
(imyEvolve
Tree
p218
(dp219
g10
I0
sg18
F-3.3200379540022418
sg19
I01
sbsg23
(imyEvolve
Tree
p220
(dp221
g10
I0
sg19
I00
sbsg20
I00
sg21
g30
sbsg20
I00
sg21
g31
sbaasS'weightSharing'
p222
(lp223
I01
aI01
aI00
aI00
aI00
aI00
aI00
aI00
aI00
aI00
aI00
aI00
aI00
aI00
aI00
aI00
aI00
aI00
aI00
aI00
asS'fitnessValid'
p224
I00
sS'fitness'
p225
cnumpy.core.multiarray
scalar
p226
(cnumpy
dtype
p227
(S'f8'
p228
I0
I1
tp229
Rp230
(I3
S'<'
p231
NNNI-1
I-1
I0
tp232
bS'\x80q\x1b\rE\xf8\x80\xbf'
p233
tp234
Rp235
sS'alpha'
p236
F0.0014255048131920497
sS'resolution'
p237
I81
sb.