(imyEvolve
Individual
p0
(dp1
S'funcs'
p2
(lp3
(lp4
(imyEvolve
Tree
p5
(dp6
S'below'
p7
(imyEvolve
Tree
p8
(dp9
S'depth'
p10
I1
sS'left'
p11
(imyEvolve
Tree
p12
(dp13
g10
I0
sS'constant'
p14
F-2.420159773746552
sS'isConstant'
p15
I01
sbsS'right'
p16
(imyEvolve
Tree
p17
(dp18
g10
I0
sg15
I00
sbsS'single'
p19
I00
sS'op'
p20
coperator
mul
p21
sbsg10
I2
sg19
I01
sg20
cmyEvolve
absSqrt
p22
sba(imyEvolve
Tree
p23
(dp24
g10
I4
sg11
(imyEvolve
Tree
p25
(dp26
g7
(imyEvolve
Tree
p27
(dp28
g7
(imyEvolve
Tree
p29
(dp30
g10
I1
sg11
(imyEvolve
Tree
p31
(dp32
g10
I0
sg14
F4.729349522072571
sg15
I01
sbsg16
(imyEvolve
Tree
p33
(dp34
g10
I0
sg15
I00
sbsg19
I00
sg20
g21
sbsg10
I2
sg19
I01
sg20
cmyEvolve
square
p35
sbsg10
I3
sg19
I01
sg20
g22
sbsg16
(imyEvolve
Tree
p36
(dp37
g10
I3
sg11
(imyEvolve
Tree
p38
(dp39
g10
I2
sg11
(imyEvolve
Tree
p40
(dp41
g7
(imyEvolve
Tree
p42
(dp43
g10
I0
sg14
F-1.3151169754545355
sg15
I01
sbsg10
I1
sg19
I01
sg20
cmath
sin
p44
sbsg16
(imyEvolve
Tree
p45
(dp46
g10
I1
sg11
(imyEvolve
Tree
p47
(dp48
g10
I0
sg14
F0.9600874453815242
sg15
I01
sbsg16
(imyEvolve
Tree
p49
(dp50
g10
I0
sg14
F4.642608542868649
sg15
I01
sbsg19
I00
sg20
coperator
sub
p51
sbsg19
I00
sg20
g51
sbsg16
(imyEvolve
Tree
p52
(dp53
g7
(imyEvolve
Tree
p54
(dp55
g7
(imyEvolve
Tree
p56
(dp57
g10
I0
sg14
F-2.8141717711542746
sg15
I01
sbsg10
I1
sg19
I01
sg20
g22
sbsg10
I2
sg19
I01
sg20
g22
sbsg19
I00
sg20
coperator
add
p58
sbsg19
I00
sg20
g58
sba(imyEvolve
Tree
p59
(dp60
g7
(imyEvolve
Tree
p61
(dp62
g10
I2
sg11
(imyEvolve
Tree
p63
(dp64
g10
I1
sg11
(imyEvolve
Tree
p65
(dp66
g10
I0
sg14
F2.2319217494355224
sg15
I01
sbsg16
(imyEvolve
Tree
p67
(dp68
g10
I0
sg15
I00
sbsg19
I00
sg20
g58
sbsg16
(imyEvolve
Tree
p69
(dp70
g7
(imyEvolve
Tree
p71
(dp72
g10
I0
sg14
F-0.3409865089491957
sg15
I01
sbsg10
I1
sg19
I01
sg20
g44
sbsg19
I00
sg20
g51
sbsg10
I3
sg19
I01
sg20
cmath
cos
p73
sba(imyEvolve
Tree
p74
(dp75
g7
(imyEvolve
Tree
p76
(dp77
g7
(imyEvolve
Tree
p78
(dp79
g7
(imyEvolve
Tree
p80
(dp81
g10
I2
sg11
(imyEvolve
Tree
p82
(dp83
g7
(imyEvolve
Tree
p84
(dp85
g10
I0
sg14
F4.155953490504277
sg15
I01
sbsg10
I1
sg19
I01
sg20
g35
sbsg16
(imyEvolve
Tree
p86
(dp87
g10
I1
sg11
(imyEvolve
Tree
p88
(dp89
g10
I0
sg15
I00
sbsg16
(imyEvolve
Tree
p90
(dp91
g10
I0
sg15
I00
sbsg19
I00
sg20
g51
sbsg19
I00
sg20
g58
sbsg10
I3
sg19
I01
sg20
g44
sbsg10
I4
sg19
I01
sg20
g35
sbsg10
I5
sg19
I01
sg20
g35
sba(imyEvolve
Tree
p92
(dp93
g10
I2
sg11
(imyEvolve
Tree
p94
(dp95
g7
(imyEvolve
Tree
p96
(dp97
g10
I0
sg14
F-2.3164428029190978
sg15
I01
sbsg10
I1
sg19
I01
sg20
g22
sbsg16
(imyEvolve
Tree
p98
(dp99
g10
I1
sg11
(imyEvolve
Tree
p100
(dp101
g10
I0
sg14
F-0.05976061692627521
sg15
I01
sbsg16
(imyEvolve
Tree
p102
(dp103
g10
I0
sg14
F-3.3627088587149667
sg15
I01
sbsg19
I00
sg20
g58
sbsg19
I00
sg20
g58
sba(imyEvolve
Tree
p104
(dp105
g7
(imyEvolve
Tree
p106
(dp107
g7
(imyEvolve
Tree
p108
(dp109
g10
I0
sg15
I00
sbsg10
I1
sg19
I01
sg20
g73
sbsg10
I2
sg19
I01
sg20
g44
sba(imyEvolve
Tree
p110
(dp111
g10
I4
sg11
(imyEvolve
Tree
p112
(dp113
g10
I3
sg11
(imyEvolve
Tree
p114
(dp115
g7
(imyEvolve
Tree
p116
(dp117
g10
I1
sg11
(imyEvolve
Tree
p118
(dp119
g10
I0
sg15
I00
sbsg16
(imyEvolve
Tree
p120
(dp121
g10
I0
sg15
I00
sbsg19
I00
sg20
g58
sbsg10
I2
sg19
I01
sg20
g73
sbsg16
(imyEvolve
Tree
p122
(dp123
g10
I2
sg11
(imyEvolve
Tree
p124
(dp125
g10
I1
sg11
(imyEvolve
Tree
p126
(dp127
g10
I0
sg14
F0.0009089147083640725
sg15
I01
sbsg16
(imyEvolve
Tree
p128
(dp129
g10
I0
sg14
F-0.8090218472712003
sg15
I01
sbsg19
I00
sg20
g58
sbsg16
(imyEvolve
Tree
p130
(dp131
g7
(imyEvolve
Tree
p132
(dp133
g10
I0
sg14
F4.379012946825572
sg15
I01
sbsg10
I1
sg19
I01
sg20
g35
sbsg19
I00
sg20
g51
sbsg19
I00
sg20
g58
sbsg16
(imyEvolve
Tree
p134
(dp135
g10
I3
sg11
(imyEvolve
Tree
p136
(dp137
g7
(imyEvolve
Tree
p138
(dp139
g7
(imyEvolve
Tree
p140
(dp141
g10
I0
sg14
F1.2916590394751868
sg15
I01
sbsg10
I1
sg19
I01
sg20
g22
sbsg10
I2
sg19
I01
sg20
g35
sbsg16
(imyEvolve
Tree
p142
(dp143
g7
(imyEvolve
Tree
p144
(dp145
g7
(imyEvolve
Tree
p146
(dp147
g10
I0
sg14
F-2.824787556171348
sg15
I01
sbsg10
I1
sg19
I01
sg20
g22
sbsg10
I2
sg19
I01
sg20
g22
sbsg19
I00
sg20
g58
sbsg19
I00
sg20
g51
sba(imyEvolve
Tree
p148
(dp149
g10
I5
sg11
(imyEvolve
Tree
p150
(dp151
g10
I4
sg11
(imyEvolve
Tree
p152
(dp153
g7
(imyEvolve
Tree
p154
(dp155
g7
(imyEvolve
Tree
p156
(dp157
g7
(imyEvolve
Tree
p158
(dp159
g10
I0
sg14
F-4.48245630872133
sg15
I01
sbsg10
I1
sg19
I01
sg20
g35
sbsg10
I2
sg19
I01
sg20
g22
sbsg10
I3
sg19
I01
sg20
g35
sbsg16
(imyEvolve
Tree
p160
(dp161
g10
I3
sg11
(imyEvolve
Tree
p162
(dp163
g7
(imyEvolve
Tree
p164
(dp165
g7
(imyEvolve
Tree
p166
(dp167
g10
I0
sg15
I00
sbsg10
I1
sg19
I01
sg20
g35
sbsg10
I2
sg19
I01
sg20
g44
sbsg16
(imyEvolve
Tree
p168
(dp169
g10
I2
sg11
(imyEvolve
Tree
p170
(dp171
g7
(imyEvolve
Tree
p172
(dp173
g10
I0
sg15
I00
sbsg10
I1
sg19
I01
sg20
g22
sbsg16
(imyEvolve
Tree
p174
(dp175
g7
(imyEvolve
Tree
p176
(dp177
g10
I0
sg14
F2.3849178718043245
sg15
I01
sbsg10
I1
sg19
I01
sg20
g22
sbsg19
I00
sg20
g51
sbsg19
I00
sg20
g51
sbsg19
I00
sg20
g21
sbsg16
(imyEvolve
Tree
p178
(dp179
g10
I4
sg11
(imyEvolve
Tree
p180
(dp181
g7
(imyEvolve
Tree
p182
(dp183
g10
I2
sg11
(imyEvolve
Tree
p184
(dp185
g10
I1
sg11
(imyEvolve
Tree
p186
(dp187
g10
I0
sg14
F-0.13172266393432697
sg15
I01
sbsg16
(imyEvolve
Tree
p188
(dp189
g10
I0
sg14
F-2.472356673034668
sg15
I01
sbsg19
I00
sg20
g21
sbsg16
(imyEvolve
Tree
p190
(dp191
g7
(imyEvolve
Tree
p192
(dp193
g10
I0
sg14
F3.145667067503549
sg15
I01
sbsg10
I1
sg19
I01
sg20
g35
sbsg19
I00
sg20
g58
sbsg10
I3
sg19
I01
sg20
g73
sbsg16
(imyEvolve
Tree
p194
(dp195
g10
I3
sg11
(imyEvolve
Tree
p196
(dp197
g7
(imyEvolve
Tree
p198
(dp199
g7
(imyEvolve
Tree
p200
(dp201
g10
I0
sg14
F4.253227416441527
sg15
I01
sbsg10
I1
sg19
I01
sg20
g44
sbsg10
I2
sg19
I01
sg20
g44
sbsg16
(imyEvolve
Tree
p202
(dp203
g7
(imyEvolve
Tree
p204
(dp205
g10
I1
sg11
(imyEvolve
Tree
p206
(dp207
g10
I0
sg15
I00
sbsg16
(imyEvolve
Tree
p208
(dp209
g10
I0
sg15
I00
sbsg19
I00
sg20
g58
sbsg10
I2
sg19
I01
sg20
g22
sbsg19
I00
sg20
g21
sbsg19
I00
sg20
g58
sbsg19
I00
sg20
g21
sba(imyEvolve
Tree
p210
(dp211
g10
I3
sg11
(imyEvolve
Tree
p212
(dp213
g7
(imyEvolve
Tree
p214
(dp215
g7
(imyEvolve
Tree
p216
(dp217
g10
I0
sg14
F1.9912690561799167
sg15
I01
sbsg10
I1
sg19
I01
sg20
g35
sbsg10
I2
sg19
I01
sg20
g73
sbsg16
(imyEvolve
Tree
p218
(dp219
g7
(imyEvolve
Tree
p220
(dp221
g7
(imyEvolve
Tree
p222
(dp223
g10
I0
sg15
I00
sbsg10
I1
sg19
I01
sg20
g22
sbsg10
I2
sg19
I01
sg20
g73
sbsg19
I00
sg20
g51
sba(imyEvolve
Tree
p224
(dp225
g7
(imyEvolve
Tree
p226
(dp227
g7
(imyEvolve
Tree
p228
(dp229
g10
I1
sg11
(imyEvolve
Tree
p230
(dp231
g10
I0
sg14
F0.2738719388766784
sg15
I01
sbsg16
(imyEvolve
Tree
p232
(dp233
g10
I0
sg15
I00
sbsg19
I00
sg20
g58
sbsg10
I2
sg19
I01
sg20
g73
sbsg10
I3
sg19
I01
sg20
g35
sbaa(lp234
(imyEvolve
Tree
p235
(dp236
g10
I5
sg11
(imyEvolve
Tree
p237
(dp238
g7
(imyEvolve
Tree
p239
(dp240
g10
I3
sg11
(imyEvolve
Tree
p241
(dp242
g7
(imyEvolve
Tree
p243
(dp244
g10
I1
sg11
(imyEvolve
Tree
p245
(dp246
g10
I0
sg14
F2.701764062725874
sg15
I01
sbsg16
(imyEvolve
Tree
p247
(dp248
g10
I0
sg15
I00
sbsg19
I00
sg20
g58
sbsg10
I2
sg19
I01
sg20
g73
sbsg16
(imyEvolve
Tree
p249
(dp250
g10
I2
sg11
(imyEvolve
Tree
p251
(dp252
g10
I1
sg11
(imyEvolve
Tree
p253
(dp254
g10
I0
sg14
F-1.9955986432172046
sg15
I01
sbsg16
(imyEvolve
Tree
p255
(dp256
g10
I0
sg14
F2.977186484969004
sg15
I01
sbsg19
I00
sg20
g58
sbsg16
(imyEvolve
Tree
p257
(dp258
g7
(imyEvolve
Tree
p259
(dp260
g10
I0
sg15
I00
sbsg10
I1
sg19
I01
sg20
g73
sbsg19
I00
sg20
g51
sbsg19
I00
sg20
g51
sbsg10
I4
sg19
I01
sg20
g44
sbsg16
(imyEvolve
Tree
p261
(dp262
g7
(imyEvolve
Tree
p263
(dp264
g7
(imyEvolve
Tree
p265
(dp266
g10
I2
sg11
(imyEvolve
Tree
p267
(dp268
g7
(imyEvolve
Tree
p269
(dp270
g10
I0
sg15
I00
sbsg10
I1
sg19
I01
sg20
g35
sbsg16
(imyEvolve
Tree
p271
(dp272
g10
I1
sg11
(imyEvolve
Tree
p273
(dp274
g10
I0
sg15
I00
sbsg16
(imyEvolve
Tree
p275
(dp276
g10
I0
sg14
F-2.7862556791615067
sg15
I01
sbsg19
I00
sg20
g51
sbsg19
I00
sg20
g21
sbsg10
I3
sg19
I01
sg20
g73
sbsg10
I4
sg19
I01
sg20
g35
sbsg19
I00
sg20
g21
sba(imyEvolve
Tree
p277
(dp278
g10
I5
sg11
(imyEvolve
Tree
p279
(dp280
g10
I4
sg11
(imyEvolve
Tree
p281
(dp282
g10
I3
sg11
(imyEvolve
Tree
p283
(dp284
g7
(imyEvolve
Tree
p285
(dp286
g7
(imyEvolve
Tree
p287
(dp288
g10
I0
sg14
F-1.5386867486486877
sg15
I01
sbsg10
I1
sg19
I01
sg20
g73
sbsg10
I2
sg19
I01
sg20
g44
sbsg16
(imyEvolve
Tree
p289
(dp290
g10
I2
sg11
(imyEvolve
Tree
p291
(dp292
g7
(imyEvolve
Tree
p293
(dp294
g10
I0
sg14
F-3.135561200543846
sg15
I01
sbsg10
I1
sg19
I01
sg20
g35
sbsg16
(imyEvolve
Tree
p295
(dp296
g7
(imyEvolve
Tree
p297
(dp298
g10
I0
sg15
I00
sbsg10
I1
sg19
I01
sg20
g35
sbsg19
I00
sg20
g58
sbsg19
I00
sg20
g21
sbsg16
(imyEvolve
Tree
p299
(dp300
g10
I3
sg11
(imyEvolve
Tree
p301
(dp302
g7
(imyEvolve
Tree
p303
(dp304
g10
I1
sg11
(imyEvolve
Tree
p305
(dp306
g10
I0
sg15
I00
sbsg16
(imyEvolve
Tree
p307
(dp308
g10
I0
sg14
F0.41701433412101174
sg15
I01
sbsg19
I00
sg20
g51
sbsg10
I2
sg19
I01
sg20
g35
sbsg16
(imyEvolve
Tree
p309
(dp310
g7
(imyEvolve
Tree
p311
(dp312
g10
I1
sg11
(imyEvolve
Tree
p313
(dp314
g10
I0
sg14
F1.308354244078739
sg15
I01
sbsg16
(imyEvolve
Tree
p315
(dp316
g10
I0
sg15
I00
sbsg19
I00
sg20
g21
sbsg10
I2
sg19
I01
sg20
g44
sbsg19
I00
sg20
g51
sbsg19
I00
sg20
g21
sbsg16
(imyEvolve
Tree
p317
(dp318
g10
I4
sg11
(imyEvolve
Tree
p319
(dp320
g10
I3
sg11
(imyEvolve
Tree
p321
(dp322
g7
(imyEvolve
Tree
p323
(dp324
g10
I1
sg11
(imyEvolve
Tree
p325
(dp326
g10
I0
sg14
F-2.68994407807695
sg15
I01
sbsg16
(imyEvolve
Tree
p327
(dp328
g10
I0
sg14
F2.133132041469673
sg15
I01
sbsg19
I00
sg20
g21
sbsg10
I2
sg19
I01
sg20
g73
sbsg16
(imyEvolve
Tree
p329
(dp330
g7
(imyEvolve
Tree
p331
(dp332
g10
I1
sg11
(imyEvolve
Tree
p333
(dp334
g10
I0
sg14
F2.4313836051125364
sg15
I01
sbsg16
(imyEvolve
Tree
p335
(dp336
g10
I0
sg14
F-3.44212142412578
sg15
I01
sbsg19
I00
sg20
g21
sbsg10
I2
sg19
I01
sg20
g44
sbsg19
I00
sg20
g21
sbsg16
(imyEvolve
Tree
p337
(dp338
g10
I3
sg11
(imyEvolve
Tree
p339
(dp340
g10
I2
sg11
(imyEvolve
Tree
p341
(dp342
g7
(imyEvolve
Tree
p343
(dp344
g10
I0
sg14
F1.551888212384136
sg15
I01
sbsg10
I1
sg19
I01
sg20
g73
sbsg16
(imyEvolve
Tree
p345
(dp346
g10
I1
sg11
(imyEvolve
Tree
p347
(dp348
g10
I0
sg15
I00
sbsg16
(imyEvolve
Tree
p349
(dp350
g10
I0
sg15
I00
sbsg19
I00
sg20
g21
sbsg19
I00
sg20
g58
sbsg16
(imyEvolve
Tree
p351
(dp352
g10
I2
sg11
(imyEvolve
Tree
p353
(dp354
g7
(imyEvolve
Tree
p355
(dp356
g10
I0
sg14
F0.587633106159827
sg15
I01
sbsg10
I1
sg19
I01
sg20
g35
sbsg16
(imyEvolve
Tree
p357
(dp358
g10
I1
sg11
(imyEvolve
Tree
p359
(dp360
g10
I0
sg14
F3.2833768755738753
sg15
I01
sbsg16
(imyEvolve
Tree
p361
(dp362
g10
I0
sg15
I00
sbsg19
I00
sg20
g58
sbsg19
I00
sg20
g51
sbsg19
I00
sg20
g58
sbsg19
I00
sg20
g21
sbsg19
I00
sg20
g58
sba(imyEvolve
Tree
p363
(dp364
g10
I2
sg11
(imyEvolve
Tree
p365
(dp366
g7
(imyEvolve
Tree
p367
(dp368
g10
I0
sg14
F4.9179727732924405
sg15
I01
sbsg10
I1
sg19
I01
sg20
g44
sbsg16
(imyEvolve
Tree
p369
(dp370
g7
(imyEvolve
Tree
p371
(dp372
g10
I0
sg14
F-2.2953310714722175
sg15
I01
sbsg10
I1
sg19
I01
sg20
g22
sbsg19
I00
sg20
g51
sba(imyEvolve
Tree
p373
(dp374
g10
I3
sg11
(imyEvolve
Tree
p375
(dp376
g7
(imyEvolve
Tree
p377
(dp378
g10
I1
sg11
(imyEvolve
Tree
p379
(dp380
g10
I0
sg14
F-3.3308637848663802
sg15
I01
sbsg16
(imyEvolve
Tree
p381
(dp382
g10
I0
sg15
I00
sbsg19
I00
sg20
g51
sbsg10
I2
sg19
I01
sg20
g44
sbsg16
(imyEvolve
Tree
p383
(dp384
g10
I2
sg11
(imyEvolve
Tree
p385
(dp386
g10
I1
sg11
(imyEvolve
Tree
p387
(dp388
g10
I0
sg15
I00
sbsg16
(imyEvolve
Tree
p389
(dp390
g10
I0
sg14
F0.6745456138373225
sg15
I01
sbsg19
I00
sg20
g51
sbsg16
(imyEvolve
Tree
p391
(dp392
g10
I1
sg11
(imyEvolve
Tree
p393
(dp394
g10
I0
sg15
I00
sbsg16
(imyEvolve
Tree
p395
(dp396
g10
I0
sg14
F1.2413538534732087
sg15
I01
sbsg19
I00
sg20
g51
sbsg19
I00
sg20
g21
sbsg19
I00
sg20
g21
sba(imyEvolve
Tree
p397
(dp398
g10
I2
sg11
(imyEvolve
Tree
p399
(dp400
g7
(imyEvolve
Tree
p401
(dp402
g10
I0
sg15
I00
sbsg10
I1
sg19
I01
sg20
g73
sbsg16
(imyEvolve
Tree
p403
(dp404
g7
(imyEvolve
Tree
p405
(dp406
g10
I0
sg14
F-3.980156948437962
sg15
I01
sbsg10
I1
sg19
I01
sg20
g44
sbsg19
I00
sg20
g58
sba(imyEvolve
Tree
p407
(dp408
g10
I3
sg11
(imyEvolve
Tree
p409
(dp410
g10
I2
sg11
(imyEvolve
Tree
p411
(dp412
g10
I1
sg11
(imyEvolve
Tree
p413
(dp414
g10
I0
sg15
I00
sbsg16
(imyEvolve
Tree
p415
(dp416
g10
I0
sg15
I00
sbsg19
I00
sg20
g21
sbsg16
(imyEvolve
Tree
p417
(dp418
g10
I1
sg11
(imyEvolve
Tree
p419
(dp420
g10
I0
sg15
I00
sbsg16
(imyEvolve
Tree
p421
(dp422
g10
I0
sg14
F-1.1328669172462136
sg15
I01
sbsg19
I00
sg20
g21
sbsg19
I00
sg20
g21
sbsg16
(imyEvolve
Tree
p423
(dp424
g7
(imyEvolve
Tree
p425
(dp426
g7
(imyEvolve
Tree
p427
(dp428
g10
I0
sg14
F0.6206557821199254
sg15
I01
sbsg10
I1
sg19
I01
sg20
g22
sbsg10
I2
sg19
I01
sg20
g22
sbsg19
I00
sg20
g51
sba(imyEvolve
Tree
p429
(dp430
g7
(imyEvolve
Tree
p431
(dp432
g10
I1
sg11
(imyEvolve
Tree
p433
(dp434
g10
I0
sg14
F-1.670732204528853
sg15
I01
sbsg16
(imyEvolve
Tree
p435
(dp436
g10
I0
sg14
F1.8162007749378217
sg15
I01
sbsg19
I00
sg20
g58
sbsg10
I2
sg19
I01
sg20
g73
sba(imyEvolve
Tree
p437
(dp438
g7
(imyEvolve
Tree
p439
(dp440
g7
(imyEvolve
Tree
p441
(dp442
g7
(imyEvolve
Tree
p443
(dp444
g7
(imyEvolve
Tree
p445
(dp446
g7
(imyEvolve
Tree
p447
(dp448
g10
I0
sg14
F1.4388757737973101
sg15
I01
sbsg10
I1
sg19
I01
sg20
g44
sbsg10
I2
sg19
I01
sg20
g44
sbsg10
I3
sg19
I01
sg20
g44
sbsg10
I4
sg19
I01
sg20
g44
sbsg10
I5
sg19
I01
sg20
g35
sba(imyEvolve
Tree
p449
(dp450
g10
I4
sg11
(imyEvolve
Tree
p451
(dp452
g10
I3
sg11
(imyEvolve
Tree
p453
(dp454
g10
I2
sg11
(imyEvolve
Tree
p455
(dp456
g7
(imyEvolve
Tree
p457
(dp458
g10
I0
sg14
F2.3658066652920207
sg15
I01
sbsg10
I1
sg19
I01
sg20
g22
sbsg16
(imyEvolve
Tree
p459
(dp460
g10
I1
sg11
(imyEvolve
Tree
p461
(dp462
g10
I0
sg15
I00
sbsg16
(imyEvolve
Tree
p463
(dp464
g10
I0
sg14
F4.344465684919911
sg15
I01
sbsg19
I00
sg20
g51
sbsg19
I00
sg20
g21
sbsg16
(imyEvolve
Tree
p465
(dp466
g10
I2
sg11
(imyEvolve
Tree
p467
(dp468
g7
(imyEvolve
Tree
p469
(dp470
g10
I0
sg14
F-4.804447582870859
sg15
I01
sbsg10
I1
sg19
I01
sg20
g73
sbsg16
(imyEvolve
Tree
p471
(dp472
g10
I1
sg11
(imyEvolve
Tree
p473
(dp474
g10
I0
sg15
I00
sbsg16
(imyEvolve
Tree
p475
(dp476
g10
I0
sg15
I00
sbsg19
I00
sg20
g51
sbsg19
I00
sg20
g21
sbsg19
I00
sg20
g51
sbsg16
(imyEvolve
Tree
p477
(dp478
g10
I3
sg11
(imyEvolve
Tree
p479
(dp480
g7
(imyEvolve
Tree
p481
(dp482
g10
I1
sg11
(imyEvolve
Tree
p483
(dp484
g10
I0
sg15
I00
sbsg16
(imyEvolve
Tree
p485
(dp486
g10
I0
sg14
F-0.36969481209459776
sg15
I01
sbsg19
I00
sg20
g21
sbsg10
I2
sg19
I01
sg20
g44
sbsg16
(imyEvolve
Tree
p487
(dp488
g7
(imyEvolve
Tree
p489
(dp490
g7
(imyEvolve
Tree
p491
(dp492
g10
I0
sg15
I00
sbsg10
I1
sg19
I01
sg20
g35
sbsg10
I2
sg19
I01
sg20
g22
sbsg19
I00
sg20
g21
sbsg19
I00
sg20
g58
sba(imyEvolve
Tree
p493
(dp494
g10
I5
sg11
(imyEvolve
Tree
p495
(dp496
g10
I4
sg11
(imyEvolve
Tree
p497
(dp498
g10
I3
sg11
(imyEvolve
Tree
p499
(dp500
g7
(imyEvolve
Tree
p501
(dp502
g10
I1
sg11
(imyEvolve
Tree
p503
(dp504
g10
I0
sg14
F-4.282234419800814
sg15
I01
sbsg16
(imyEvolve
Tree
p505
(dp506
g10
I0
sg15
I00
sbsg19
I00
sg20
g58
sbsg10
I2
sg19
I01
sg20
g44
sbsg16
(imyEvolve
Tree
p507
(dp508
g7
(imyEvolve
Tree
p509
(dp510
g7
(imyEvolve
Tree
p511
(dp512
g10
I0
sg14
F4.11943159062711
sg15
I01
sbsg10
I1
sg19
I01
sg20
g44
sbsg10
I2
sg19
I01
sg20
g73
sbsg19
I00
sg20
g51
sbsg16
(imyEvolve
Tree
p513
(dp514
g10
I3
sg11
(imyEvolve
Tree
p515
(dp516
g7
(imyEvolve
Tree
p517
(dp518
g10
I1
sg11
(imyEvolve
Tree
p519
(dp520
g10
I0
sg14
F4.0181882799213415
sg15
I01
sbsg16
(imyEvolve
Tree
p521
(dp522
g10
I0
sg15
I00
sbsg19
I00
sg20
g51
sbsg10
I2
sg19
I01
sg20
g22
sbsg16
(imyEvolve
Tree
p523
(dp524
g7
(imyEvolve
Tree
p525
(dp526
g7
(imyEvolve
Tree
p527
(dp528
g10
I0
sg15
I00
sbsg10
I1
sg19
I01
sg20
g44
sbsg10
I2
sg19
I01
sg20
g22
sbsg19
I00
sg20
g58
sbsg19
I00
sg20
g21
sbsg16
(imyEvolve
Tree
p529
(dp530
g10
I4
sg11
(imyEvolve
Tree
p531
(dp532
g7
(imyEvolve
Tree
p533
(dp534
g7
(imyEvolve
Tree
p535
(dp536
g7
(imyEvolve
Tree
p537
(dp538
g10
I0
sg14
F-4.612954848894208
sg15
I01
sbsg10
I1
sg19
I01
sg20
g44
sbsg10
I2
sg19
I01
sg20
g44
sbsg10
I3
sg19
I01
sg20
g35
sbsg16
(imyEvolve
Tree
p539
(dp540
g10
I3
sg11
(imyEvolve
Tree
p541
(dp542
g7
(imyEvolve
Tree
p543
(dp544
g7
(imyEvolve
Tree
p545
(dp546
g10
I0
sg15
I00
sbsg10
I1
sg19
I01
sg20
g44
sbsg10
I2
sg19
I01
sg20
g22
sbsg16
(imyEvolve
Tree
p547
(dp548
g10
I2
sg11
(imyEvolve
Tree
p549
(dp550
g10
I1
sg11
(imyEvolve
Tree
p551
(dp552
g10
I0
sg15
I00
sbsg16
(imyEvolve
Tree
p553
(dp554
g10
I0
sg14
F3.174707703145801
sg15
I01
sbsg19
I00
sg20
g58
sbsg16
(imyEvolve
Tree
p555
(dp556
g7
(imyEvolve
Tree
p557
(dp558
g10
I0
sg14
F2.9297273227542107
sg15
I01
sbsg10
I1
sg19
I01
sg20
g22
sbsg19
I00
sg20
g58
sbsg19
I00
sg20
g58
sbsg19
I00
sg20
g51
sbsg19
I00
sg20
g51
sba(imyEvolve
Tree
p559
(dp560
g10
I2
sg11
(imyEvolve
Tree
p561
(dp562
g7
(imyEvolve
Tree
p563
(dp564
g10
I0
sg15
I00
sbsg10
I1
sg19
I01
sg20
g35
sbsg16
(imyEvolve
Tree
p565
(dp566
g10
I1
sg11
(imyEvolve
Tree
p567
(dp568
g10
I0
sg14
F-0.3736039556976518
sg15
I01
sbsg16
(imyEvolve
Tree
p569
(dp570
g10
I0
sg14
F-3.0187915794278175
sg15
I01
sbsg19
I00
sg20
g21
sbsg19
I00
sg20
g51
sba(imyEvolve
Tree
p571
(dp572
g10
I4
sg11
(imyEvolve
Tree
p573
(dp574
g10
I3
sg11
(imyEvolve
Tree
p575
(dp576
g7
(imyEvolve
Tree
p577
(dp578
g7
(imyEvolve
Tree
p579
(dp580
g10
I0
sg15
I00
sbsg10
I1
sg19
I01
sg20
g22
sbsg10
I2
sg19
I01
sg20
g35
sbsg16
(imyEvolve
Tree
p581
(dp582
g10
I2
sg11
(imyEvolve
Tree
p583
(dp584
g10
I1
sg11
(imyEvolve
Tree
p585
(dp586
g10
I0
sg14
F-4.423423947442432
sg15
I01
sbsg16
(imyEvolve
Tree
p587
(dp588
g10
I0
sg14
F4.833050363317023
sg15
I01
sbsg19
I00
sg20
g58
sbsg16
(imyEvolve
Tree
p589
(dp590
g10
I1
sg11
(imyEvolve
Tree
p591
(dp592
g10
I0
sg14
F-0.7942127245360187
sg15
I01
sbsg16
(imyEvolve
Tree
p593
(dp594
g10
I0
sg14
F-2.34204478262635
sg15
I01
sbsg19
I00
sg20
g58
sbsg19
I00
sg20
g21
sbsg19
I00
sg20
g21
sbsg16
(imyEvolve
Tree
p595
(dp596
g7
(imyEvolve
Tree
p597
(dp598
g7
(imyEvolve
Tree
p599
(dp600
g7
(imyEvolve
Tree
p601
(dp602
g10
I0
sg15
I00
sbsg10
I1
sg19
I01
sg20
g22
sbsg10
I2
sg19
I01
sg20
g22
sbsg10
I3
sg19
I01
sg20
g73
sbsg19
I00
sg20
g58
sba(imyEvolve
Tree
p603
(dp604
g10
I3
sg11
(imyEvolve
Tree
p605
(dp606
g10
I2
sg11
(imyEvolve
Tree
p607
(dp608
g7
(imyEvolve
Tree
p609
(dp610
g10
I0
sg15
I00
sbsg10
I1
sg19
I01
sg20
g35
sbsg16
(imyEvolve
Tree
p611
(dp612
g7
(imyEvolve
Tree
p613
(dp614
g10
I0
sg15
I00
sbsg10
I1
sg19
I01
sg20
g35
sbsg19
I00
sg20
g51
sbsg16
(imyEvolve
Tree
p615
(dp616
g10
I2
sg11
(imyEvolve
Tree
p617
(dp618
g10
I1
sg11
(imyEvolve
Tree
p619
(dp620
g10
I0
sg14
F0.9337042266210567
sg15
I01
sbsg16
(imyEvolve
Tree
p621
(dp622
g10
I0
sg15
I00
sbsg19
I00
sg20
g58
sbsg16
(imyEvolve
Tree
p623
(dp624
g7
(imyEvolve
Tree
p625
(dp626
g10
I0
sg15
I00
sbsg10
I1
sg19
I01
sg20
g35
sbsg19
I00
sg20
g21
sbsg19
I00
sg20
g51
sba(imyEvolve
Tree
p627
(dp628
g7
(imyEvolve
Tree
p629
(dp630
g7
(imyEvolve
Tree
p631
(dp632
g10
I1
sg11
(imyEvolve
Tree
p633
(dp634
g10
I0
sg15
I00
sbsg16
(imyEvolve
Tree
p635
(dp636
g10
I0
sg15
I00
sbsg19
I00
sg20
g51
sbsg10
I2
sg19
I01
sg20
g73
sbsg10
I3
sg19
I01
sg20
g22
sba(imyEvolve
Tree
p637
(dp638
g10
I2
sg11
(imyEvolve
Tree
p639
(dp640
g7
(imyEvolve
Tree
p641
(dp642
g10
I0
sg14
F3.994050143043385
sg15
I01
sbsg10
I1
sg19
I01
sg20
g22
sbsg16
(imyEvolve
Tree
p643
(dp644
g10
I1
sg11
(imyEvolve
Tree
p645
(dp646
g10
I0
sg14
F2.9973203939098223
sg15
I01
sbsg16
(imyEvolve
Tree
p647
(dp648
g10
I0
sg15
I00
sbsg19
I00
sg20
g21
sbsg19
I00
sg20
g58
sba(imyEvolve
Tree
p649
(dp650
g7
(imyEvolve
Tree
p651
(dp652
g10
I3
sg11
(imyEvolve
Tree
p653
(dp654
g7
(imyEvolve
Tree
p655
(dp656
g7
(imyEvolve
Tree
p657
(dp658
g10
I0
sg14
F2.92503874599298
sg15
I01
sbsg10
I1
sg19
I01
sg20
g73
sbsg10
I2
sg19
I01
sg20
g35
sbsg16
(imyEvolve
Tree
p659
(dp660
g10
I2
sg11
(imyEvolve
Tree
p661
(dp662
g7
(imyEvolve
Tree
p663
(dp664
g10
I0
sg14
F2.5958220262385776
sg15
I01
sbsg10
I1
sg19
I01
sg20
g73
sbsg16
(imyEvolve
Tree
p665
(dp666
g10
I1
sg11
(imyEvolve
Tree
p667
(dp668
g10
I0
sg15
I00
sbsg16
(imyEvolve
Tree
p669
(dp670
g10
I0
sg14
F-2.2422711397105144
sg15
I01
sbsg19
I00
sg20
g21
sbsg19
I00
sg20
g21
sbsg19
I00
sg20
g58
sbsg10
I4
sg19
I01
sg20
g35
sbaasS'weightSharing'
p671
(lp672
I01
aI00
asS'fitnessValid'
p673
I00
sS'fitness'
p674
cnumpy.core.multiarray
scalar
p675
(cnumpy
dtype
p676
(S'f8'
p677
I0
I1
tp678
Rp679
(I3
S'<'
p680
NNNI-1
I-1
I0
tp681
bS'\xd2o_\x11\xad)\xe6?'
p682
tp683
Rp684
sS'alpha'
p685
F0.002786213541922442
sS'resolution'
p686
I27
sb.