(imyEvolve
Individual
p0
(dp1
S'funcs'
p2
(lp3
(lp4
(imyEvolve
Tree
p5
(dp6
S'below'
p7
(imyEvolve
Tree
p8
(dp9
g7
(imyEvolve
Tree
p10
(dp11
g7
(imyEvolve
Tree
p12
(dp13
g7
(imyEvolve
Tree
p14
(dp15
S'depth'
p16
I0
sS'isConstant'
p17
I00
sbsg16
I1
sS'single'
p18
I01
sS'op'
p19
cmath
cos
p20
sbsg16
I2
sg18
I01
sg19
g20
sbsg16
I3
sg18
I01
sg19
cmath
sin
p21
sbsg16
I4
sg18
I01
sg19
g21
sba(imyEvolve
Tree
p22
(dp23
g7
(imyEvolve
Tree
p24
(dp25
g7
(imyEvolve
Tree
p26
(dp27
g16
I3
sS'left'
p28
(imyEvolve
Tree
p29
(dp30
g16
I2
sg28
(imyEvolve
Tree
p31
(dp32
g16
I1
sg28
(imyEvolve
Tree
p33
(dp34
g16
I0
sS'constant'
p35
F2.4339155834676838
sg17
I01
sbsS'right'
p36
(imyEvolve
Tree
p37
(dp38
g16
I0
sg17
I00
sbsg18
I00
sg19
coperator
mul
p39
sbsg36
(imyEvolve
Tree
p40
(dp41
g16
I1
sg28
(imyEvolve
Tree
p42
(dp43
g16
I0
sg17
I00
sbsg36
(imyEvolve
Tree
p44
(dp45
g16
I0
sg35
F-1.4597995600159064
sg17
I01
sbsg18
I00
sg19
coperator
sub
p46
sbsg18
I00
sg19
g39
sbsg36
(imyEvolve
Tree
p47
(dp48
g16
I2
sg28
(imyEvolve
Tree
p49
(dp50
g16
I1
sg28
(imyEvolve
Tree
p51
(dp52
g16
I0
sg35
F-3.2502338063704994
sg17
I01
sbsg36
(imyEvolve
Tree
p53
(dp54
g16
I0
sg35
F-0.42396673653601624
sg17
I01
sbsg18
I00
sg19
g46
sbsg36
(imyEvolve
Tree
p55
(dp56
g7
(imyEvolve
Tree
p57
(dp58
g16
I0
sg35
F-2.1432740452616383
sg17
I01
sbsg16
I1
sg18
I01
sg19
cmyEvolve
square
p59
sbsg18
I00
sg19
g39
sbsg18
I00
sg19
g46
sbsg16
I4
sg18
I01
sg19
g59
sbsg16
I5
sg18
I01
sg19
g59
sba(imyEvolve
Tree
p60
(dp61
g16
I5
sg28
(imyEvolve
Tree
p62
(dp63
g7
(imyEvolve
Tree
p64
(dp65
g16
I3
sg28
(imyEvolve
Tree
p66
(dp67
g7
(imyEvolve
Tree
p68
(dp69
g16
I1
sg28
(imyEvolve
Tree
p70
(dp71
g16
I0
sg17
I00
sbsg36
(imyEvolve
Tree
p72
(dp73
g16
I0
sg35
F0.43762464276299173
sg17
I01
sbsg18
I00
sg19
g39
sbsg16
I2
sg18
I01
sg19
cmyEvolve
absSqrt
p74
sbsg36
(imyEvolve
Tree
p75
(dp76
g7
(imyEvolve
Tree
p77
(dp78
g7
(imyEvolve
Tree
p79
(dp80
g16
I0
sg17
I00
sbsg16
I1
sg18
I01
sg19
g74
sbsg16
I2
sg18
I01
sg19
g59
sbsg18
I00
sg19
coperator
add
p81
sbsg16
I4
sg18
I01
sg19
g20
sbsg36
(imyEvolve
Tree
p82
(dp83
g16
I4
sg28
(imyEvolve
Tree
p84
(dp85
g7
(imyEvolve
Tree
p86
(dp87
g7
(imyEvolve
Tree
p88
(dp89
g7
(imyEvolve
Tree
p90
(dp91
g16
I0
sg17
I00
sbsg16
I1
sg18
I01
sg19
g59
sbsg16
I2
sg18
I01
sg19
g21
sbsg16
I3
sg18
I01
sg19
g59
sbsg36
(imyEvolve
Tree
p92
(dp93
g16
I3
sg28
(imyEvolve
Tree
p94
(dp95
g7
(imyEvolve
Tree
p96
(dp97
g7
(imyEvolve
Tree
p98
(dp99
g16
I0
sg35
F2.5950714282294784
sg17
I01
sbsg16
I1
sg18
I01
sg19
g21
sbsg16
I2
sg18
I01
sg19
g59
sbsg36
(imyEvolve
Tree
p100
(dp101
g7
(imyEvolve
Tree
p102
(dp103
g7
(imyEvolve
Tree
p104
(dp105
g16
I0
sg17
I00
sbsg16
I1
sg18
I01
sg19
g59
sbsg16
I2
sg18
I01
sg19
g20
sbsg18
I00
sg19
g39
sbsg18
I00
sg19
g39
sbsg18
I00
sg19
g39
sba(imyEvolve
Tree
p106
(dp107
g16
I5
sg28
(imyEvolve
Tree
p108
(dp109
g16
I4
sg28
(imyEvolve
Tree
p110
(dp111
g16
I3
sg28
(imyEvolve
Tree
p112
(dp113
g16
I2
sg28
(imyEvolve
Tree
p114
(dp115
g16
I1
sg28
(imyEvolve
Tree
p116
(dp117
g16
I0
sg35
F-2.9019999922109116
sg17
I01
sbsg36
(imyEvolve
Tree
p118
(dp119
g16
I0
sg35
F-2.603187804784095
sg17
I01
sbsg18
I00
sg19
g46
sbsg36
(imyEvolve
Tree
p120
(dp121
g7
(imyEvolve
Tree
p122
(dp123
g16
I0
sg17
I00
sbsg16
I1
sg18
I01
sg19
g59
sbsg18
I00
sg19
g81
sbsg36
(imyEvolve
Tree
p124
(dp125
g16
I2
sg28
(imyEvolve
Tree
p126
(dp127
g7
(imyEvolve
Tree
p128
(dp129
g16
I0
sg35
F0.1097069041823655
sg17
I01
sbsg16
I1
sg18
I01
sg19
g21
sbsg36
(imyEvolve
Tree
p130
(dp131
g16
I1
sg28
(imyEvolve
Tree
p132
(dp133
g16
I0
sg35
F-0.5576498376361672
sg17
I01
sbsg36
(imyEvolve
Tree
p134
(dp135
g16
I0
sg35
F-4.911047715754444
sg17
I01
sbsg18
I00
sg19
g39
sbsg18
I00
sg19
g46
sbsg18
I00
sg19
g81
sbsg36
(imyEvolve
Tree
p136
(dp137
g7
(imyEvolve
Tree
p138
(dp139
g16
I2
sg28
(imyEvolve
Tree
p140
(dp141
g7
(imyEvolve
Tree
p142
(dp143
g16
I0
sg17
I00
sbsg16
I1
sg18
I01
sg19
g21
sbsg36
(imyEvolve
Tree
p144
(dp145
g7
(imyEvolve
Tree
p146
(dp147
g16
I0
sg17
I00
sbsg16
I1
sg18
I01
sg19
g59
sbsg18
I00
sg19
g46
sbsg16
I3
sg18
I01
sg19
g74
sbsg18
I00
sg19
g46
sbsg36
(imyEvolve
Tree
p148
(dp149
g16
I4
sg28
(imyEvolve
Tree
p150
(dp151
g7
(imyEvolve
Tree
p152
(dp153
g16
I2
sg28
(imyEvolve
Tree
p154
(dp155
g7
(imyEvolve
Tree
p156
(dp157
g16
I0
sg17
I00
sbsg16
I1
sg18
I01
sg19
g74
sbsg36
(imyEvolve
Tree
p158
(dp159
g7
(imyEvolve
Tree
p160
(dp161
g16
I0
sg17
I00
sbsg16
I1
sg18
I01
sg19
g20
sbsg18
I00
sg19
g39
sbsg16
I3
sg18
I01
sg19
g21
sbsg36
(imyEvolve
Tree
p162
(dp163
g16
I3
sg28
(imyEvolve
Tree
p164
(dp165
g16
I2
sg28
(imyEvolve
Tree
p166
(dp167
g7
(imyEvolve
Tree
p168
(dp169
g16
I0
sg17
I00
sbsg16
I1
sg18
I01
sg19
g21
sbsg36
(imyEvolve
Tree
p170
(dp171
g7
(imyEvolve
Tree
p172
(dp173
g16
I0
sg35
F1.6489006129109551
sg17
I01
sbsg16
I1
sg18
I01
sg19
g20
sbsg18
I00
sg19
g46
sbsg36
(imyEvolve
Tree
p174
(dp175
g16
I2
sg28
(imyEvolve
Tree
p176
(dp177
g16
I1
sg28
(imyEvolve
Tree
p178
(dp179
g16
I0
sg35
F4.076987990762994
sg17
I01
sbsg36
(imyEvolve
Tree
p180
(dp181
g16
I0
sg17
I00
sbsg18
I00
sg19
g39
sbsg36
(imyEvolve
Tree
p182
(dp183
g7
(imyEvolve
Tree
p184
(dp185
g16
I0
sg17
I00
sbsg16
I1
sg18
I01
sg19
g20
sbsg18
I00
sg19
g46
sbsg18
I00
sg19
g46
sbsg18
I00
sg19
g81
sbsg18
I00
sg19
g39
sba(imyEvolve
Tree
p186
(dp187
g16
I4
sg28
(imyEvolve
Tree
p188
(dp189
g16
I3
sg28
(imyEvolve
Tree
p190
(dp191
g16
I2
sg28
(imyEvolve
Tree
p192
(dp193
g16
I1
sg28
(imyEvolve
Tree
p194
(dp195
g16
I0
sg35
F1.03185282630207
sg17
I01
sbsg36
(imyEvolve
Tree
p196
(dp197
g16
I0
sg17
I00
sbsg18
I00
sg19
g46
sbsg36
(imyEvolve
Tree
p198
(dp199
g16
I1
sg28
(imyEvolve
Tree
p200
(dp201
g16
I0
sg17
I00
sbsg36
(imyEvolve
Tree
p202
(dp203
g16
I0
sg17
I00
sbsg18
I00
sg19
g46
sbsg18
I00
sg19
g81
sbsg36
(imyEvolve
Tree
p204
(dp205
g7
(imyEvolve
Tree
p206
(dp207
g16
I1
sg28
(imyEvolve
Tree
p208
(dp209
g16
I0
sg35
F-4.018111235958358
sg17
I01
sbsg36
(imyEvolve
Tree
p210
(dp211
g16
I0
sg17
I00
sbsg18
I00
sg19
g39
sbsg16
I2
sg18
I01
sg19
g74
sbsg18
I00
sg19
g39
sbsg36
(imyEvolve
Tree
p212
(dp213
g7
(imyEvolve
Tree
p214
(dp215
g7
(imyEvolve
Tree
p216
(dp217
g7
(imyEvolve
Tree
p218
(dp219
g16
I0
sg17
I00
sbsg16
I1
sg18
I01
sg19
g74
sbsg16
I2
sg18
I01
sg19
g59
sbsg16
I3
sg18
I01
sg19
g59
sbsg18
I00
sg19
g39
sba(imyEvolve
Tree
p220
(dp221
g7
(imyEvolve
Tree
p222
(dp223
g7
(imyEvolve
Tree
p224
(dp225
g7
(imyEvolve
Tree
p226
(dp227
g16
I2
sg28
(imyEvolve
Tree
p228
(dp229
g7
(imyEvolve
Tree
p230
(dp231
g16
I0
sg17
I00
sbsg16
I1
sg18
I01
sg19
g21
sbsg36
(imyEvolve
Tree
p232
(dp233
g16
I1
sg28
(imyEvolve
Tree
p234
(dp235
g16
I0
sg35
F4.172290200460536
sg17
I01
sbsg36
(imyEvolve
Tree
p236
(dp237
g16
I0
sg35
F2.3681284400810227
sg17
I01
sbsg18
I00
sg19
g81
sbsg18
I00
sg19
g46
sbsg16
I3
sg18
I01
sg19
g21
sbsg16
I4
sg18
I01
sg19
g59
sbsg16
I5
sg18
I01
sg19
g20
sba(imyEvolve
Tree
p238
(dp239
g16
I3
sg28
(imyEvolve
Tree
p240
(dp241
g7
(imyEvolve
Tree
p242
(dp243
g7
(imyEvolve
Tree
p244
(dp245
g16
I0
sg35
F-3.313514441505203
sg17
I01
sbsg16
I1
sg18
I01
sg19
g74
sbsg16
I2
sg18
I01
sg19
g59
sbsg36
(imyEvolve
Tree
p246
(dp247
g7
(imyEvolve
Tree
p248
(dp249
g16
I1
sg28
(imyEvolve
Tree
p250
(dp251
g16
I0
sg17
I00
sbsg36
(imyEvolve
Tree
p252
(dp253
g16
I0
sg17
I00
sbsg18
I00
sg19
g81
sbsg16
I2
sg18
I01
sg19
g20
sbsg18
I00
sg19
g81
sba(imyEvolve
Tree
p254
(dp255
g7
(imyEvolve
Tree
p256
(dp257
g16
I3
sg28
(imyEvolve
Tree
p258
(dp259
g16
I2
sg28
(imyEvolve
Tree
p260
(dp261
g7
(imyEvolve
Tree
p262
(dp263
g16
I0
sg17
I00
sbsg16
I1
sg18
I01
sg19
g20
sbsg36
(imyEvolve
Tree
p264
(dp265
g16
I1
sg28
(imyEvolve
Tree
p266
(dp267
g16
I0
sg35
F1.8480311023798182
sg17
I01
sbsg36
(imyEvolve
Tree
p268
(dp269
g16
I0
sg35
F-1.6905818675894713
sg17
I01
sbsg18
I00
sg19
g39
sbsg18
I00
sg19
g46
sbsg36
(imyEvolve
Tree
p270
(dp271
g7
(imyEvolve
Tree
p272
(dp273
g7
(imyEvolve
Tree
p274
(dp275
g16
I0
sg35
F1.491237111452751
sg17
I01
sbsg16
I1
sg18
I01
sg19
g21
sbsg16
I2
sg18
I01
sg19
g20
sbsg18
I00
sg19
g39
sbsg16
I4
sg18
I01
sg19
g21
sba(imyEvolve
Tree
p276
(dp277
g7
(imyEvolve
Tree
p278
(dp279
g7
(imyEvolve
Tree
p280
(dp281
g16
I0
sg35
F-4.409057695559118
sg17
I01
sbsg16
I1
sg18
I01
sg19
g21
sbsg16
I2
sg18
I01
sg19
g59
sba(imyEvolve
Tree
p282
(dp283
g7
(imyEvolve
Tree
p284
(dp285
g16
I4
sg28
(imyEvolve
Tree
p286
(dp287
g7
(imyEvolve
Tree
p288
(dp289
g7
(imyEvolve
Tree
p290
(dp291
g7
(imyEvolve
Tree
p292
(dp293
g16
I0
sg17
I00
sbsg16
I1
sg18
I01
sg19
g59
sbsg16
I2
sg18
I01
sg19
g21
sbsg16
I3
sg18
I01
sg19
g59
sbsg36
(imyEvolve
Tree
p294
(dp295
g16
I3
sg28
(imyEvolve
Tree
p296
(dp297
g7
(imyEvolve
Tree
p298
(dp299
g7
(imyEvolve
Tree
p300
(dp301
g16
I0
sg35
F-3.7257657191766436
sg17
I01
sbsg16
I1
sg18
I01
sg19
g74
sbsg16
I2
sg18
I01
sg19
g20
sbsg36
(imyEvolve
Tree
p302
(dp303
g7
(imyEvolve
Tree
p304
(dp305
g7
(imyEvolve
Tree
p306
(dp307
g16
I0
sg17
I00
sbsg16
I1
sg18
I01
sg19
g74
sbsg16
I2
sg18
I01
sg19
g59
sbsg18
I00
sg19
g81
sbsg18
I00
sg19
g81
sbsg16
I5
sg18
I01
sg19
g21
sba(imyEvolve
Tree
p308
(dp309
g16
I2
sg28
(imyEvolve
Tree
p310
(dp311
g7
(imyEvolve
Tree
p312
(dp313
g16
I0
sg35
F-1.838269370827057
sg17
I01
sbsg16
I1
sg18
I01
sg19
g74
sbsg36
(imyEvolve
Tree
p314
(dp315
g16
I1
sg28
(imyEvolve
Tree
p316
(dp317
g16
I0
sg17
I00
sbsg36
(imyEvolve
Tree
p318
(dp319
g16
I0
sg35
F2.9060020740472297
sg17
I01
sbsg18
I00
sg19
g46
sbsg18
I00
sg19
g46
sba(imyEvolve
Tree
p320
(dp321
g7
(imyEvolve
Tree
p322
(dp323
g16
I2
sg28
(imyEvolve
Tree
p324
(dp325
g7
(imyEvolve
Tree
p326
(dp327
g16
I0
sg35
F-4.087561522359772
sg17
I01
sbsg16
I1
sg18
I01
sg19
g20
sbsg36
(imyEvolve
Tree
p328
(dp329
g16
I1
sg28
(imyEvolve
Tree
p330
(dp331
g16
I0
sg35
F0.43368313122012836
sg17
I01
sbsg36
(imyEvolve
Tree
p332
(dp333
g16
I0
sg17
I00
sbsg18
I00
sg19
g39
sbsg18
I00
sg19
g39
sbsg16
I3
sg18
I01
sg19
g59
sba(imyEvolve
Tree
p334
(dp335
g16
I2
sg28
(imyEvolve
Tree
p336
(dp337
g16
I1
sg28
(imyEvolve
Tree
p338
(dp339
g16
I0
sg35
F-0.1770167308062458
sg17
I01
sbsg36
(imyEvolve
Tree
p340
(dp341
g16
I0
sg17
I00
sbsg18
I00
sg19
g46
sbsg36
(imyEvolve
Tree
p342
(dp343
g7
(imyEvolve
Tree
p344
(dp345
g16
I0
sg17
I00
sbsg16
I1
sg18
I01
sg19
g59
sbsg18
I00
sg19
g81
sba(imyEvolve
Tree
p346
(dp347
g7
(imyEvolve
Tree
p348
(dp349
g7
(imyEvolve
Tree
p350
(dp351
g16
I0
sg35
F4.876786548197234
sg17
I01
sbsg16
I1
sg18
I01
sg19
g74
sbsg16
I2
sg18
I01
sg19
g59
sbaa(lp352
(imyEvolve
Tree
p353
(dp354
g16
I2
sg28
(imyEvolve
Tree
p355
(dp356
g16
I1
sg28
(imyEvolve
Tree
p357
(dp358
g16
I0
sg17
I00
sbsg36
(imyEvolve
Tree
p359
(dp360
g16
I0
sg35
F-0.3385295717143961
sg17
I01
sbsg18
I00
sg19
g81
sbsg36
(imyEvolve
Tree
p361
(dp362
g7
(imyEvolve
Tree
p363
(dp364
g16
I0
sg17
I00
sbsg16
I1
sg18
I01
sg19
g59
sbsg18
I00
sg19
g39
sba(imyEvolve
Tree
p365
(dp366
g7
(imyEvolve
Tree
p367
(dp368
g7
(imyEvolve
Tree
p369
(dp370
g7
(imyEvolve
Tree
p371
(dp372
g7
(imyEvolve
Tree
p373
(dp374
g16
I0
sg17
I00
sbsg16
I1
sg18
I01
sg19
g74
sbsg16
I2
sg18
I01
sg19
g59
sbsg16
I3
sg18
I01
sg19
g59
sbsg16
I4
sg18
I01
sg19
g74
sba(imyEvolve
Tree
p375
(dp376
g7
(imyEvolve
Tree
p377
(dp378
g7
(imyEvolve
Tree
p379
(dp380
g16
I1
sg28
(imyEvolve
Tree
p381
(dp382
g16
I0
sg35
F2.030658973182218
sg17
I01
sbsg36
(imyEvolve
Tree
p383
(dp384
g16
I0
sg35
F-0.9250632315235228
sg17
I01
sbsg18
I00
sg19
g81
sbsg16
I2
sg18
I01
sg19
g20
sbsg16
I3
sg18
I01
sg19
g20
sba(imyEvolve
Tree
p385
(dp386
g7
(imyEvolve
Tree
p387
(dp388
g7
(imyEvolve
Tree
p389
(dp390
g7
(imyEvolve
Tree
p391
(dp392
g16
I2
sg28
(imyEvolve
Tree
p393
(dp394
g16
I1
sg28
(imyEvolve
Tree
p395
(dp396
g16
I0
sg17
I00
sbsg36
(imyEvolve
Tree
p397
(dp398
g16
I0
sg17
I00
sbsg18
I00
sg19
g81
sbsg36
(imyEvolve
Tree
p399
(dp400
g7
(imyEvolve
Tree
p401
(dp402
g16
I0
sg17
I00
sbsg16
I1
sg18
I01
sg19
g59
sbsg18
I00
sg19
g46
sbsg16
I3
sg18
I01
sg19
g20
sbsg16
I4
sg18
I01
sg19
g59
sbsg16
I5
sg18
I01
sg19
g21
sba(imyEvolve
Tree
p403
(dp404
g7
(imyEvolve
Tree
p405
(dp406
g7
(imyEvolve
Tree
p407
(dp408
g7
(imyEvolve
Tree
p409
(dp410
g7
(imyEvolve
Tree
p411
(dp412
g16
I0
sg35
F-4.4929926909306195
sg17
I01
sbsg16
I1
sg18
I01
sg19
g59
sbsg16
I2
sg18
I01
sg19
g59
sbsg16
I3
sg18
I01
sg19
g21
sbsg16
I4
sg18
I01
sg19
g59
sba(imyEvolve
Tree
p413
(dp414
g16
I4
sg28
(imyEvolve
Tree
p415
(dp416
g16
I3
sg28
(imyEvolve
Tree
p417
(dp418
g16
I2
sg28
(imyEvolve
Tree
p419
(dp420
g7
(imyEvolve
Tree
p421
(dp422
g16
I0
sg17
I00
sbsg16
I1
sg18
I01
sg19
g21
sbsg36
(imyEvolve
Tree
p423
(dp424
g16
I1
sg28
(imyEvolve
Tree
p425
(dp426
g16
I0
sg35
F-2.510556525767633
sg17
I01
sbsg36
(imyEvolve
Tree
p427
(dp428
g16
I0
sg17
I00
sbsg18
I00
sg19
g81
sbsg18
I00
sg19
g39
sbsg36
(imyEvolve
Tree
p429
(dp430
g16
I2
sg28
(imyEvolve
Tree
p431
(dp432
g16
I1
sg28
(imyEvolve
Tree
p433
(dp434
g16
I0
sg35
F-4.760542284352604
sg17
I01
sbsg36
(imyEvolve
Tree
p435
(dp436
g16
I0
sg35
F2.2345248200719876
sg17
I01
sbsg18
I00
sg19
g46
sbsg36
(imyEvolve
Tree
p437
(dp438
g16
I1
sg28
(imyEvolve
Tree
p439
(dp440
g16
I0
sg35
F0.9065306997069875
sg17
I01
sbsg36
(imyEvolve
Tree
p441
(dp442
g16
I0
sg35
F2.497237591687009
sg17
I01
sbsg18
I00
sg19
g46
sbsg18
I00
sg19
g46
sbsg18
I00
sg19
g39
sbsg36
(imyEvolve
Tree
p443
(dp444
g7
(imyEvolve
Tree
p445
(dp446
g16
I2
sg28
(imyEvolve
Tree
p447
(dp448
g7
(imyEvolve
Tree
p449
(dp450
g16
I0
sg35
F0.05210767063694721
sg17
I01
sbsg16
I1
sg18
I01
sg19
g59
sbsg36
(imyEvolve
Tree
p451
(dp452
g16
I1
sg28
(imyEvolve
Tree
p453
(dp454
g16
I0
sg17
I00
sbsg36
(imyEvolve
Tree
p455
(dp456
g16
I0
sg35
F2.6455165462378574
sg17
I01
sbsg18
I00
sg19
g81
sbsg18
I00
sg19
g39
sbsg16
I3
sg18
I01
sg19
g59
sbsg18
I00
sg19
g39
sba(imyEvolve
Tree
p457
(dp458
g16
I2
sg28
(imyEvolve
Tree
p459
(dp460
g7
(imyEvolve
Tree
p461
(dp462
g16
I0
sg17
I00
sbsg16
I1
sg18
I01
sg19
g20
sbsg36
(imyEvolve
Tree
p463
(dp464
g7
(imyEvolve
Tree
p465
(dp466
g16
I0
sg35
F1.5261953871107234
sg17
I01
sbsg16
I1
sg18
I01
sg19
g59
sbsg18
I00
sg19
g39
sba(imyEvolve
Tree
p467
(dp468
g16
I5
sg28
(imyEvolve
Tree
p469
(dp470
g16
I4
sg28
(imyEvolve
Tree
p471
(dp472
g16
I3
sg28
(imyEvolve
Tree
p473
(dp474
g7
(imyEvolve
Tree
p475
(dp476
g16
I1
sg28
(imyEvolve
Tree
p477
(dp478
g16
I0
sg35
F3.2718600943844365
sg17
I01
sbsg36
(imyEvolve
Tree
p479
(dp480
g16
I0
sg35
F1.0055480527417355
sg17
I01
sbsg18
I00
sg19
g39
sbsg16
I2
sg18
I01
sg19
g59
sbsg36
(imyEvolve
Tree
p481
(dp482
g16
I2
sg28
(imyEvolve
Tree
p483
(dp484
g7
(imyEvolve
Tree
p485
(dp486
g16
I0
sg35
F4.015545252520932
sg17
I01
sbsg16
I1
sg18
I01
sg19
g20
sbsg36
(imyEvolve
Tree
p487
(dp488
g7
(imyEvolve
Tree
p489
(dp490
g16
I0
sg35
F1.0009877481187788
sg17
I01
sbsg16
I1
sg18
I01
sg19
g74
sbsg18
I00
sg19
g39
sbsg18
I00
sg19
g39
sbsg36
(imyEvolve
Tree
p491
(dp492
g7
(imyEvolve
Tree
p493
(dp494
g16
I2
sg28
(imyEvolve
Tree
p495
(dp496
g7
(imyEvolve
Tree
p497
(dp498
g16
I0
sg35
F-2.8760626492355144
sg17
I01
sbsg16
I1
sg18
I01
sg19
g59
sbsg36
(imyEvolve
Tree
p499
(dp500
g16
I1
sg28
(imyEvolve
Tree
p501
(dp502
g16
I0
sg17
I00
sbsg36
(imyEvolve
Tree
p503
(dp504
g16
I0
sg35
F1.968722114488072
sg17
I01
sbsg18
I00
sg19
g39
sbsg18
I00
sg19
g39
sbsg16
I3
sg18
I01
sg19
g20
sbsg18
I00
sg19
g39
sbsg36
(imyEvolve
Tree
p505
(dp506
g7
(imyEvolve
Tree
p507
(dp508
g7
(imyEvolve
Tree
p509
(dp510
g16
I2
sg28
(imyEvolve
Tree
p511
(dp512
g16
I1
sg28
(imyEvolve
Tree
p513
(dp514
g16
I0
sg17
I00
sbsg36
(imyEvolve
Tree
p515
(dp516
g16
I0
sg35
F1.431999519900316
sg17
I01
sbsg18
I00
sg19
g39
sbsg36
(imyEvolve
Tree
p517
(dp518
g7
(imyEvolve
Tree
p519
(dp520
g16
I0
sg35
F-1.6695901457665183
sg17
I01
sbsg16
I1
sg18
I01
sg19
g74
sbsg18
I00
sg19
g46
sbsg16
I3
sg18
I01
sg19
g20
sbsg16
I4
sg18
I01
sg19
g20
sbsg18
I00
sg19
g46
sba(imyEvolve
Tree
p521
(dp522
g16
I4
sg28
(imyEvolve
Tree
p523
(dp524
g16
I3
sg28
(imyEvolve
Tree
p525
(dp526
g16
I2
sg28
(imyEvolve
Tree
p527
(dp528
g16
I1
sg28
(imyEvolve
Tree
p529
(dp530
g16
I0
sg35
F0.2671745745398022
sg17
I01
sbsg36
(imyEvolve
Tree
p531
(dp532
g16
I0
sg17
I00
sbsg18
I00
sg19
g39
sbsg36
(imyEvolve
Tree
p533
(dp534
g7
(imyEvolve
Tree
p535
(dp536
g16
I0
sg17
I00
sbsg16
I1
sg18
I01
sg19
g59
sbsg18
I00
sg19
g46
sbsg36
(imyEvolve
Tree
p537
(dp538
g16
I2
sg28
(imyEvolve
Tree
p539
(dp540
g16
I1
sg28
(imyEvolve
Tree
p541
(dp542
g16
I0
sg35
F-2.808128997573629
sg17
I01
sbsg36
(imyEvolve
Tree
p543
(dp544
g16
I0
sg35
F1.7803760536601443
sg17
I01
sbsg18
I00
sg19
g39
sbsg36
(imyEvolve
Tree
p545
(dp546
g16
I1
sg28
(imyEvolve
Tree
p547
(dp548
g16
I0
sg17
I00
sbsg36
(imyEvolve
Tree
p549
(dp550
g16
I0
sg17
I00
sbsg18
I00
sg19
g39
sbsg18
I00
sg19
g46
sbsg18
I00
sg19
g39
sbsg36
(imyEvolve
Tree
p551
(dp552
g16
I3
sg28
(imyEvolve
Tree
p553
(dp554
g7
(imyEvolve
Tree
p555
(dp556
g16
I1
sg28
(imyEvolve
Tree
p557
(dp558
g16
I0
sg17
I00
sbsg36
(imyEvolve
Tree
p559
(dp560
g16
I0
sg35
F4.243245749976728
sg17
I01
sbsg18
I00
sg19
g46
sbsg16
I2
sg18
I01
sg19
g21
sbsg36
(imyEvolve
Tree
p561
(dp562
g16
I2
sg28
(imyEvolve
Tree
p563
(dp564
g7
(imyEvolve
Tree
p565
(dp566
g16
I0
sg35
F-0.17893809434619534
sg17
I01
sbsg16
I1
sg18
I01
sg19
g20
sbsg36
(imyEvolve
Tree
p567
(dp568
g7
(imyEvolve
Tree
p569
(dp570
g16
I0
sg17
I00
sbsg16
I1
sg18
I01
sg19
g74
sbsg18
I00
sg19
g39
sbsg18
I00
sg19
g81
sbsg18
I00
sg19
g81
sba(imyEvolve
Tree
p571
(dp572
g7
(imyEvolve
Tree
p573
(dp574
g16
I1
sg28
(imyEvolve
Tree
p575
(dp576
g16
I0
sg35
F-3.3378265328413512
sg17
I01
sbsg36
(imyEvolve
Tree
p577
(dp578
g16
I0
sg17
I00
sbsg18
I00
sg19
g46
sbsg16
I2
sg18
I01
sg19
g59
sba(imyEvolve
Tree
p579
(dp580
g7
(imyEvolve
Tree
p581
(dp582
g7
(imyEvolve
Tree
p583
(dp584
g16
I0
sg17
I00
sbsg16
I1
sg18
I01
sg19
g74
sbsg16
I2
sg18
I01
sg19
g74
sba(imyEvolve
Tree
p585
(dp586
g7
(imyEvolve
Tree
p587
(dp588
g7
(imyEvolve
Tree
p589
(dp590
g16
I1
sg28
(imyEvolve
Tree
p591
(dp592
g16
I0
sg35
F-2.8648800735563396
sg17
I01
sbsg36
(imyEvolve
Tree
p593
(dp594
g16
I0
sg17
I00
sbsg18
I00
sg19
g39
sbsg16
I2
sg18
I01
sg19
g59
sbsg16
I3
sg18
I01
sg19
g59
sba(imyEvolve
Tree
p595
(dp596
g16
I4
sg28
(imyEvolve
Tree
p597
(dp598
g16
I3
sg28
(imyEvolve
Tree
p599
(dp600
g16
I2
sg28
(imyEvolve
Tree
p601
(dp602
g16
I1
sg28
(imyEvolve
Tree
p603
(dp604
g16
I0
sg35
F3.1628615423005755
sg17
I01
sbsg36
(imyEvolve
Tree
p605
(dp606
g16
I0
sg17
I00
sbsg18
I00
sg19
g81
sbsg36
(imyEvolve
Tree
p607
(dp608
g16
I1
sg28
(imyEvolve
Tree
p609
(dp610
g16
I0
sg35
F3.5738097932670083
sg17
I01
sbsg36
(imyEvolve
Tree
p611
(dp612
g16
I0
sg35
F4.852727039494942
sg17
I01
sbsg18
I00
sg19
g81
sbsg18
I00
sg19
g81
sbsg36
(imyEvolve
Tree
p613
(dp614
g16
I2
sg28
(imyEvolve
Tree
p615
(dp616
g16
I1
sg28
(imyEvolve
Tree
p617
(dp618
g16
I0
sg17
I00
sbsg36
(imyEvolve
Tree
p619
(dp620
g16
I0
sg35
F4.542582360153176
sg17
I01
sbsg18
I00
sg19
g39
sbsg36
(imyEvolve
Tree
p621
(dp622
g7
(imyEvolve
Tree
p623
(dp624
g16
I0
sg35
F0.7052520086029546
sg17
I01
sbsg16
I1
sg18
I01
sg19
g59
sbsg18
I00
sg19
g39
sbsg18
I00
sg19
g81
sbsg36
(imyEvolve
Tree
p625
(dp626
g16
I3
sg28
(imyEvolve
Tree
p627
(dp628
g16
I2
sg28
(imyEvolve
Tree
p629
(dp630
g16
I1
sg28
(imyEvolve
Tree
p631
(dp632
g16
I0
sg35
F1.8097447400297852
sg17
I01
sbsg36
(imyEvolve
Tree
p633
(dp634
g16
I0
sg17
I00
sbsg18
I00
sg19
g81
sbsg36
(imyEvolve
Tree
p635
(dp636
g7
(imyEvolve
Tree
p637
(dp638
g16
I0
sg35
F0.4910174394098563
sg17
I01
sbsg16
I1
sg18
I01
sg19
g21
sbsg18
I00
sg19
g81
sbsg36
(imyEvolve
Tree
p639
(dp640
g7
(imyEvolve
Tree
p641
(dp642
g16
I1
sg28
(imyEvolve
Tree
p643
(dp644
g16
I0
sg35
F4.4796254743259585
sg17
I01
sbsg36
(imyEvolve
Tree
p645
(dp646
g16
I0
sg17
I00
sbsg18
I00
sg19
g81
sbsg16
I2
sg18
I01
sg19
g59
sbsg18
I00
sg19
g81
sbsg18
I00
sg19
g81
sba(imyEvolve
Tree
p647
(dp648
g7
(imyEvolve
Tree
p649
(dp650
g7
(imyEvolve
Tree
p651
(dp652
g16
I2
sg28
(imyEvolve
Tree
p653
(dp654
g7
(imyEvolve
Tree
p655
(dp656
g16
I0
sg35
F2.2124796884439597
sg17
I01
sbsg16
I1
sg18
I01
sg19
g20
sbsg36
(imyEvolve
Tree
p657
(dp658
g7
(imyEvolve
Tree
p659
(dp660
g16
I0
sg17
I00
sbsg16
I1
sg18
I01
sg19
g21
sbsg18
I00
sg19
g81
sbsg16
I3
sg18
I01
sg19
g59
sbsg16
I4
sg18
I01
sg19
g59
sba(imyEvolve
Tree
p661
(dp662
g7
(imyEvolve
Tree
p663
(dp664
g7
(imyEvolve
Tree
p665
(dp666
g7
(imyEvolve
Tree
p667
(dp668
g7
(imyEvolve
Tree
p669
(dp670
g16
I0
sg35
F-0.874637013108412
sg17
I01
sbsg16
I1
sg18
I01
sg19
g59
sbsg16
I2
sg18
I01
sg19
g59
sbsg16
I3
sg18
I01
sg19
g20
sbsg16
I4
sg18
I01
sg19
g74
sbaa(lp671
(imyEvolve
Tree
p672
(dp673
g7
(imyEvolve
Tree
p674
(dp675
g16
I4
sg28
(imyEvolve
Tree
p676
(dp677
g16
I3
sg28
(imyEvolve
Tree
p678
(dp679
g16
I2
sg28
(imyEvolve
Tree
p680
(dp681
g16
I1
sg28
(imyEvolve
Tree
p682
(dp683
g16
I0
sg17
I00
sbsg36
(imyEvolve
Tree
p684
(dp685
g16
I0
sg35
F-0.2517683163616109
sg17
I01
sbsg18
I00
sg19
g46
sbsg36
(imyEvolve
Tree
p686
(dp687
g7
(imyEvolve
Tree
p688
(dp689
g16
I0
sg35
F-0.08813022374301038
sg17
I01
sbsg16
I1
sg18
I01
sg19
g74
sbsg18
I00
sg19
g81
sbsg36
(imyEvolve
Tree
p690
(dp691
g16
I2
sg28
(imyEvolve
Tree
p692
(dp693
g7
(imyEvolve
Tree
p694
(dp695
g16
I0
sg17
I00
sbsg16
I1
sg18
I01
sg19
g59
sbsg36
(imyEvolve
Tree
p696
(dp697
g16
I1
sg28
(imyEvolve
Tree
p698
(dp699
g16
I0
sg17
I00
sbsg36
(imyEvolve
Tree
p700
(dp701
g16
I0
sg17
I00
sbsg18
I00
sg19
g81
sbsg18
I00
sg19
g39
sbsg18
I00
sg19
g39
sbsg36
(imyEvolve
Tree
p702
(dp703
g7
(imyEvolve
Tree
p704
(dp705
g7
(imyEvolve
Tree
p706
(dp707
g16
I1
sg28
(imyEvolve
Tree
p708
(dp709
g16
I0
sg35
F-2.3564775016343917
sg17
I01
sbsg36
(imyEvolve
Tree
p710
(dp711
g16
I0
sg17
I00
sbsg18
I00
sg19
g81
sbsg16
I2
sg18
I01
sg19
g59
sbsg16
I3
sg18
I01
sg19
g21
sbsg18
I00
sg19
g39
sbsg16
I5
sg18
I01
sg19
g20
sba(imyEvolve
Tree
p712
(dp713
g16
I2
sg28
(imyEvolve
Tree
p714
(dp715
g7
(imyEvolve
Tree
p716
(dp717
g16
I0
sg35
F-4.956637524407721
sg17
I01
sbsg16
I1
sg18
I01
sg19
g20
sbsg36
(imyEvolve
Tree
p718
(dp719
g16
I1
sg28
(imyEvolve
Tree
p720
(dp721
g16
I0
sg17
I00
sbsg36
(imyEvolve
Tree
p722
(dp723
g16
I0
sg35
F0.6852002485029782
sg17
I01
sbsg18
I00
sg19
g39
sbsg18
I00
sg19
g81
sba(imyEvolve
Tree
p724
(dp725
g7
(imyEvolve
Tree
p726
(dp727
g7
(imyEvolve
Tree
p728
(dp729
g16
I0
sg35
F-0.8820878329544124
sg17
I01
sbsg16
I1
sg18
I01
sg19
g21
sbsg16
I2
sg18
I01
sg19
g20
sba(imyEvolve
Tree
p730
(dp731
g16
I2
sg28
(imyEvolve
Tree
p732
(dp733
g16
I1
sg28
(imyEvolve
Tree
p734
(dp735
g16
I0
sg35
F3.578647078784144
sg17
I01
sbsg36
(imyEvolve
Tree
p736
(dp737
g16
I0
sg35
F-3.88773369079218
sg17
I01
sbsg18
I00
sg19
g46
sbsg36
(imyEvolve
Tree
p738
(dp739
g16
I1
sg28
(imyEvolve
Tree
p740
(dp741
g16
I0
sg35
F2.4690663679605613
sg17
I01
sbsg36
(imyEvolve
Tree
p742
(dp743
g16
I0
sg17
I00
sbsg18
I00
sg19
g39
sbsg18
I00
sg19
g81
sba(imyEvolve
Tree
p744
(dp745
g16
I2
sg28
(imyEvolve
Tree
p746
(dp747
g7
(imyEvolve
Tree
p748
(dp749
g16
I0
sg35
F2.4704778918696
sg17
I01
sbsg16
I1
sg18
I01
sg19
g21
sbsg36
(imyEvolve
Tree
p750
(dp751
g16
I1
sg28
(imyEvolve
Tree
p752
(dp753
g16
I0
sg35
F-1.085594238386618
sg17
I01
sbsg36
(imyEvolve
Tree
p754
(dp755
g16
I0
sg17
I00
sbsg18
I00
sg19
g46
sbsg18
I00
sg19
g39
sba(imyEvolve
Tree
p756
(dp757
g7
(imyEvolve
Tree
p758
(dp759
g16
I2
sg28
(imyEvolve
Tree
p760
(dp761
g16
I1
sg28
(imyEvolve
Tree
p762
(dp763
g16
I0
sg35
F1.723493124924608
sg17
I01
sbsg36
(imyEvolve
Tree
p764
(dp765
g16
I0
sg35
F2.92467134347281
sg17
I01
sbsg18
I00
sg19
g39
sbsg36
(imyEvolve
Tree
p766
(dp767
g7
(imyEvolve
Tree
p768
(dp769
g16
I0
sg35
F-2.4636624141800914
sg17
I01
sbsg16
I1
sg18
I01
sg19
g21
sbsg18
I00
sg19
g81
sbsg16
I3
sg18
I01
sg19
g74
sba(imyEvolve
Tree
p770
(dp771
g16
I2
sg28
(imyEvolve
Tree
p772
(dp773
g7
(imyEvolve
Tree
p774
(dp775
g16
I0
sg35
F-0.3236099560866563
sg17
I01
sbsg16
I1
sg18
I01
sg19
g20
sbsg36
(imyEvolve
Tree
p776
(dp777
g7
(imyEvolve
Tree
p778
(dp779
g16
I0
sg35
F-1.6268289823359394
sg17
I01
sbsg16
I1
sg18
I01
sg19
g74
sbsg18
I00
sg19
g81
sba(imyEvolve
Tree
p780
(dp781
g7
(imyEvolve
Tree
p782
(dp783
g16
I1
sg28
(imyEvolve
Tree
p784
(dp785
g16
I0
sg17
I00
sbsg36
(imyEvolve
Tree
p786
(dp787
g16
I0
sg35
F-2.9472259038573734
sg17
I01
sbsg18
I00
sg19
g39
sbsg16
I2
sg18
I01
sg19
g21
sba(imyEvolve
Tree
p788
(dp789
g16
I2
sg28
(imyEvolve
Tree
p790
(dp791
g7
(imyEvolve
Tree
p792
(dp793
g16
I0
sg35
F-4.819248226810936
sg17
I01
sbsg16
I1
sg18
I01
sg19
g59
sbsg36
(imyEvolve
Tree
p794
(dp795
g16
I1
sg28
(imyEvolve
Tree
p796
(dp797
g16
I0
sg17
I00
sbsg36
(imyEvolve
Tree
p798
(dp799
g16
I0
sg17
I00
sbsg18
I00
sg19
g46
sbsg18
I00
sg19
g39
sba(imyEvolve
Tree
p800
(dp801
g16
I4
sg28
(imyEvolve
Tree
p802
(dp803
g16
I3
sg28
(imyEvolve
Tree
p804
(dp805
g16
I2
sg28
(imyEvolve
Tree
p806
(dp807
g16
I1
sg28
(imyEvolve
Tree
p808
(dp809
g16
I0
sg35
F-1.2369559754779247
sg17
I01
sbsg36
(imyEvolve
Tree
p810
(dp811
g16
I0
sg17
I00
sbsg18
I00
sg19
g39
sbsg36
(imyEvolve
Tree
p812
(dp813
g16
I1
sg28
(imyEvolve
Tree
p814
(dp815
g16
I0
sg35
F2.6957794839115037
sg17
I01
sbsg36
(imyEvolve
Tree
p816
(dp817
g16
I0
sg17
I00
sbsg18
I00
sg19
g81
sbsg18
I00
sg19
g81
sbsg36
(imyEvolve
Tree
p818
(dp819
g7
(imyEvolve
Tree
p820
(dp821
g7
(imyEvolve
Tree
p822
(dp823
g16
I0
sg35
F4.562249200018272
sg17
I01
sbsg16
I1
sg18
I01
sg19
g59
sbsg16
I2
sg18
I01
sg19
g59
sbsg18
I00
sg19
g46
sbsg36
(imyEvolve
Tree
p824
(dp825
g16
I3
sg28
(imyEvolve
Tree
p826
(dp827
g16
I2
sg28
(imyEvolve
Tree
p828
(dp829
g16
I1
sg28
(imyEvolve
Tree
p830
(dp831
g16
I0
sg17
I00
sbsg36
(imyEvolve
Tree
p832
(dp833
g16
I0
sg17
I00
sbsg18
I00
sg19
g46
sbsg36
(imyEvolve
Tree
p834
(dp835
g16
I1
sg28
(imyEvolve
Tree
p836
(dp837
g16
I0
sg35
F0.6331957975851408
sg17
I01
sbsg36
(imyEvolve
Tree
p838
(dp839
g16
I0
sg17
I00
sbsg18
I00
sg19
g39
sbsg18
I00
sg19
g81
sbsg36
(imyEvolve
Tree
p840
(dp841
g7
(imyEvolve
Tree
p842
(dp843
g16
I1
sg28
(imyEvolve
Tree
p844
(dp845
g16
I0
sg17
I00
sbsg36
(imyEvolve
Tree
p846
(dp847
g16
I0
sg35
F-2.475378268662757
sg17
I01
sbsg18
I00
sg19
g46
sbsg16
I2
sg18
I01
sg19
g59
sbsg18
I00
sg19
g39
sbsg18
I00
sg19
g39
sba(imyEvolve
Tree
p848
(dp849
g16
I5
sg28
(imyEvolve
Tree
p850
(dp851
g16
I4
sg28
(imyEvolve
Tree
p852
(dp853
g7
(imyEvolve
Tree
p854
(dp855
g16
I2
sg28
(imyEvolve
Tree
p856
(dp857
g7
(imyEvolve
Tree
p858
(dp859
g16
I0
sg17
I00
sbsg16
I1
sg18
I01
sg19
g20
sbsg36
(imyEvolve
Tree
p860
(dp861
g7
(imyEvolve
Tree
p862
(dp863
g16
I0
sg35
F-2.636616152473117
sg17
I01
sbsg16
I1
sg18
I01
sg19
g59
sbsg18
I00
sg19
g39
sbsg16
I3
sg18
I01
sg19
g20
sbsg36
(imyEvolve
Tree
p864
(dp865
g7
(imyEvolve
Tree
p866
(dp867
g7
(imyEvolve
Tree
p868
(dp869
g7
(imyEvolve
Tree
p870
(dp871
g16
I0
sg17
I00
sbsg16
I1
sg18
I01
sg19
g59
sbsg16
I2
sg18
I01
sg19
g59
sbsg16
I3
sg18
I01
sg19
g20
sbsg18
I00
sg19
g39
sbsg36
(imyEvolve
Tree
p872
(dp873
g7
(imyEvolve
Tree
p874
(dp875
g16
I3
sg28
(imyEvolve
Tree
p876
(dp877
g7
(imyEvolve
Tree
p878
(dp879
g16
I1
sg28
(imyEvolve
Tree
p880
(dp881
g16
I0
sg35
F-4.522811132953295
sg17
I01
sbsg36
(imyEvolve
Tree
p882
(dp883
g16
I0
sg17
I00
sbsg18
I00
sg19
g46
sbsg16
I2
sg18
I01
sg19
g74
sbsg36
(imyEvolve
Tree
p884
(dp885
g7
(imyEvolve
Tree
p886
(dp887
g7
(imyEvolve
Tree
p888
(dp889
g16
I0
sg35
F3.916600487714536
sg17
I01
sbsg16
I1
sg18
I01
sg19
g59
sbsg16
I2
sg18
I01
sg19
g20
sbsg18
I00
sg19
g81
sbsg16
I4
sg18
I01
sg19
g20
sbsg18
I00
sg19
g46
sba(imyEvolve
Tree
p890
(dp891
g7
(imyEvolve
Tree
p892
(dp893
g16
I2
sg28
(imyEvolve
Tree
p894
(dp895
g7
(imyEvolve
Tree
p896
(dp897
g16
I0
sg17
I00
sbsg16
I1
sg18
I01
sg19
g59
sbsg36
(imyEvolve
Tree
p898
(dp899
g7
(imyEvolve
Tree
p900
(dp901
g16
I0
sg35
F-1.885707631940904
sg17
I01
sbsg16
I1
sg18
I01
sg19
g59
sbsg18
I00
sg19
g81
sbsg16
I3
sg18
I01
sg19
g21
sba(imyEvolve
Tree
p902
(dp903
g16
I4
sg28
(imyEvolve
Tree
p904
(dp905
g16
I3
sg28
(imyEvolve
Tree
p906
(dp907
g7
(imyEvolve
Tree
p908
(dp909
g16
I1
sg28
(imyEvolve
Tree
p910
(dp911
g16
I0
sg17
I00
sbsg36
(imyEvolve
Tree
p912
(dp913
g16
I0
sg17
I00
sbsg18
I00
sg19
g81
sbsg16
I2
sg18
I01
sg19
g21
sbsg36
(imyEvolve
Tree
p914
(dp915
g16
I2
sg28
(imyEvolve
Tree
p916
(dp917
g7
(imyEvolve
Tree
p918
(dp919
g16
I0
sg35
F0.922808885004704
sg17
I01
sbsg16
I1
sg18
I01
sg19
g59
sbsg36
(imyEvolve
Tree
p920
(dp921
g7
(imyEvolve
Tree
p922
(dp923
g16
I0
sg35
F-0.13128353130810488
sg17
I01
sbsg16
I1
sg18
I01
sg19
g20
sbsg18
I00
sg19
g46
sbsg18
I00
sg19
g39
sbsg36
(imyEvolve
Tree
p924
(dp925
g7
(imyEvolve
Tree
p926
(dp927
g16
I2
sg28
(imyEvolve
Tree
p928
(dp929
g16
I1
sg28
(imyEvolve
Tree
p930
(dp931
g16
I0
sg35
F0.8434276205026103
sg17
I01
sbsg36
(imyEvolve
Tree
p932
(dp933
g16
I0
sg35
F2.4286872964998416
sg17
I01
sbsg18
I00
sg19
g81
sbsg36
(imyEvolve
Tree
p934
(dp935
g7
(imyEvolve
Tree
p936
(dp937
g16
I0
sg17
I00
sbsg16
I1
sg18
I01
sg19
g21
sbsg18
I00
sg19
g46
sbsg16
I3
sg18
I01
sg19
g59
sbsg18
I00
sg19
g81
sba(imyEvolve
Tree
p938
(dp939
g16
I5
sg28
(imyEvolve
Tree
p940
(dp941
g7
(imyEvolve
Tree
p942
(dp943
g16
I3
sg28
(imyEvolve
Tree
p944
(dp945
g7
(imyEvolve
Tree
p946
(dp947
g7
(imyEvolve
Tree
p948
(dp949
g16
I0
sg35
F-1.2216693593649963
sg17
I01
sbsg16
I1
sg18
I01
sg19
g21
sbsg16
I2
sg18
I01
sg19
g21
sbsg36
(imyEvolve
Tree
p950
(dp951
g16
I2
sg28
(imyEvolve
Tree
p952
(dp953
g16
I1
sg28
(imyEvolve
Tree
p954
(dp955
g16
I0
sg17
I00
sbsg36
(imyEvolve
Tree
p956
(dp957
g16
I0
sg17
I00
sbsg18
I00
sg19
g46
sbsg36
(imyEvolve
Tree
p958
(dp959
g16
I1
sg28
(imyEvolve
Tree
p960
(dp961
g16
I0
sg17
I00
sbsg36
(imyEvolve
Tree
p962
(dp963
g16
I0
sg17
I00
sbsg18
I00
sg19
g46
sbsg18
I00
sg19
g81
sbsg18
I00
sg19
g39
sbsg16
I4
sg18
I01
sg19
g20
sbsg36
(imyEvolve
Tree
p964
(dp965
g16
I4
sg28
(imyEvolve
Tree
p966
(dp967
g16
I3
sg28
(imyEvolve
Tree
p968
(dp969
g16
I2
sg28
(imyEvolve
Tree
p970
(dp971
g16
I1
sg28
(imyEvolve
Tree
p972
(dp973
g16
I0
sg17
I00
sbsg36
(imyEvolve
Tree
p974
(dp975
g16
I0
sg35
F-4.293387777495031
sg17
I01
sbsg18
I00
sg19
g46
sbsg36
(imyEvolve
Tree
p976
(dp977
g7
(imyEvolve
Tree
p978
(dp979
g16
I0
sg35
F-3.5166640688409165
sg17
I01
sbsg16
I1
sg18
I01
sg19
g20
sbsg18
I00
sg19
g81
sbsg36
(imyEvolve
Tree
p980
(dp981
g16
I2
sg28
(imyEvolve
Tree
p982
(dp983
g7
(imyEvolve
Tree
p984
(dp985
g16
I0
sg17
I00
sbsg16
I1
sg18
I01
sg19
g74
sbsg36
(imyEvolve
Tree
p986
(dp987
g7
(imyEvolve
Tree
p988
(dp989
g16
I0
sg17
I00
sbsg16
I1
sg18
I01
sg19
g74
sbsg18
I00
sg19
g81
sbsg18
I00
sg19
g39
sbsg36
(imyEvolve
Tree
p990
(dp991
g16
I3
sg28
(imyEvolve
Tree
p992
(dp993
g7
(imyEvolve
Tree
p994
(dp995
g16
I1
sg28
(imyEvolve
Tree
p996
(dp997
g16
I0
sg35
F-4.853787216154237
sg17
I01
sbsg36
(imyEvolve
Tree
p998
(dp999
g16
I0
sg17
I00
sbsg18
I00
sg19
g46
sbsg16
I2
sg18
I01
sg19
g20
sbsg36
(imyEvolve
Tree
p1000
(dp1001
g7
(imyEvolve
Tree
p1002
(dp1003
g7
(imyEvolve
Tree
p1004
(dp1005
g16
I0
sg17
I00
sbsg16
I1
sg18
I01
sg19
g20
sbsg16
I2
sg18
I01
sg19
g20
sbsg18
I00
sg19
g39
sbsg18
I00
sg19
g39
sbsg18
I00
sg19
g81
sba(imyEvolve
Tree
p1006
(dp1007
g16
I2
sg28
(imyEvolve
Tree
p1008
(dp1009
g7
(imyEvolve
Tree
p1010
(dp1011
g16
I0
sg17
I00
sbsg16
I1
sg18
I01
sg19
g59
sbsg36
(imyEvolve
Tree
p1012
(dp1013
g16
I1
sg28
(imyEvolve
Tree
p1014
(dp1015
g16
I0
sg35
F-1.061666166699692
sg17
I01
sbsg36
(imyEvolve
Tree
p1016
(dp1017
g16
I0
sg35
F-0.4383770099773585
sg17
I01
sbsg18
I00
sg19
g39
sbsg18
I00
sg19
g39
sbaa(lp1018
(imyEvolve
Tree
p1019
(dp1020
g7
(imyEvolve
Tree
p1021
(dp1022
g16
I1
sg28
(imyEvolve
Tree
p1023
(dp1024
g16
I0
sg17
I00
sbsg36
(imyEvolve
Tree
p1025
(dp1026
g16
I0
sg35
F-1.2864223571323175
sg17
I01
sbsg18
I00
sg19
g46
sbsg16
I2
sg18
I01
sg19
g20
sba(imyEvolve
Tree
p1027
(dp1028
g7
(imyEvolve
Tree
p1029
(dp1030
g16
I4
sg28
(imyEvolve
Tree
p1031
(dp1032
g7
(imyEvolve
Tree
p1033
(dp1034
g16
I2
sg28
(imyEvolve
Tree
p1035
(dp1036
g16
I1
sg28
(imyEvolve
Tree
p1037
(dp1038
g16
I0
sg35
F2.9460986154415227
sg17
I01
sbsg36
(imyEvolve
Tree
p1039
(dp1040
g16
I0
sg17
I00
sbsg18
I00
sg19
g46
sbsg36
(imyEvolve
Tree
p1041
(dp1042
g7
(imyEvolve
Tree
p1043
(dp1044
g16
I0
sg35
F3.6446485286031134
sg17
I01
sbsg16
I1
sg18
I01
sg19
g20
sbsg18
I00
sg19
g46
sbsg16
I3
sg18
I01
sg19
g21
sbsg36
(imyEvolve
Tree
p1045
(dp1046
g16
I3
sg28
(imyEvolve
Tree
p1047
(dp1048
g16
I2
sg28
(imyEvolve
Tree
p1049
(dp1050
g7
(imyEvolve
Tree
p1051
(dp1052
g16
I0
sg35
F-1.2096205991216893
sg17
I01
sbsg16
I1
sg18
I01
sg19
g74
sbsg36
(imyEvolve
Tree
p1053
(dp1054
g7
(imyEvolve
Tree
p1055
(dp1056
g16
I0
sg17
I00
sbsg16
I1
sg18
I01
sg19
g74
sbsg18
I00
sg19
g46
sbsg36
(imyEvolve
Tree
p1057
(dp1058
g16
I2
sg28
(imyEvolve
Tree
p1059
(dp1060
g7
(imyEvolve
Tree
p1061
(dp1062
g16
I0
sg35
F3.812344537474967
sg17
I01
sbsg16
I1
sg18
I01
sg19
g74
sbsg36
(imyEvolve
Tree
p1063
(dp1064
g7
(imyEvolve
Tree
p1065
(dp1066
g16
I0
sg17
I00
sbsg16
I1
sg18
I01
sg19
g21
sbsg18
I00
sg19
g39
sbsg18
I00
sg19
g39
sbsg18
I00
sg19
g46
sbsg16
I5
sg18
I01
sg19
g74
sba(imyEvolve
Tree
p1067
(dp1068
g7
(imyEvolve
Tree
p1069
(dp1070
g16
I4
sg28
(imyEvolve
Tree
p1071
(dp1072
g7
(imyEvolve
Tree
p1073
(dp1074
g16
I2
sg28
(imyEvolve
Tree
p1075
(dp1076
g16
I1
sg28
(imyEvolve
Tree
p1077
(dp1078
g16
I0
sg17
I00
sbsg36
(imyEvolve
Tree
p1079
(dp1080
g16
I0
sg17
I00
sbsg18
I00
sg19
g39
sbsg36
(imyEvolve
Tree
p1081
(dp1082
g16
I1
sg28
(imyEvolve
Tree
p1083
(dp1084
g16
I0
sg17
I00
sbsg36
(imyEvolve
Tree
p1085
(dp1086
g16
I0
sg35
F-0.35764345054880486
sg17
I01
sbsg18
I00
sg19
g81
sbsg18
I00
sg19
g81
sbsg16
I3
sg18
I01
sg19
g20
sbsg36
(imyEvolve
Tree
p1087
(dp1088
g7
(imyEvolve
Tree
p1089
(dp1090
g16
I2
sg28
(imyEvolve
Tree
p1091
(dp1092
g16
I1
sg28
(imyEvolve
Tree
p1093
(dp1094
g16
I0
sg17
I00
sbsg36
(imyEvolve
Tree
p1095
(dp1096
g16
I0
sg35
F-2.1848674202809795
sg17
I01
sbsg18
I00
sg19
g39
sbsg36
(imyEvolve
Tree
p1097
(dp1098
g16
I1
sg28
(imyEvolve
Tree
p1099
(dp1100
g16
I0
sg17
I00
sbsg36
(imyEvolve
Tree
p1101
(dp1102
g16
I0
sg35
F3.126183545025654
sg17
I01
sbsg18
I00
sg19
g46
sbsg18
I00
sg19
g39
sbsg16
I3
sg18
I01
sg19
g21
sbsg18
I00
sg19
g39
sbsg16
I5
sg18
I01
sg19
g21
sba(imyEvolve
Tree
p1103
(dp1104
g7
(imyEvolve
Tree
p1105
(dp1106
g7
(imyEvolve
Tree
p1107
(dp1108
g7
(imyEvolve
Tree
p1109
(dp1110
g16
I1
sg28
(imyEvolve
Tree
p1111
(dp1112
g16
I0
sg35
F0.920021125428919
sg17
I01
sbsg36
(imyEvolve
Tree
p1113
(dp1114
g16
I0
sg17
I00
sbsg18
I00
sg19
g81
sbsg16
I2
sg18
I01
sg19
g21
sbsg16
I3
sg18
I01
sg19
g21
sbsg16
I4
sg18
I01
sg19
g21
sba(imyEvolve
Tree
p1115
(dp1116
g7
(imyEvolve
Tree
p1117
(dp1118
g7
(imyEvolve
Tree
p1119
(dp1120
g7
(imyEvolve
Tree
p1121
(dp1122
g7
(imyEvolve
Tree
p1123
(dp1124
g16
I0
sg17
I00
sbsg16
I1
sg18
I01
sg19
g20
sbsg16
I2
sg18
I01
sg19
g74
sbsg16
I3
sg18
I01
sg19
g20
sbsg16
I4
sg18
I01
sg19
g21
sba(imyEvolve
Tree
p1125
(dp1126
g7
(imyEvolve
Tree
p1127
(dp1128
g16
I4
sg28
(imyEvolve
Tree
p1129
(dp1130
g16
I3
sg28
(imyEvolve
Tree
p1131
(dp1132
g16
I2
sg28
(imyEvolve
Tree
p1133
(dp1134
g7
(imyEvolve
Tree
p1135
(dp1136
g16
I0
sg35
F-4.309587430712883
sg17
I01
sbsg16
I1
sg18
I01
sg19
g59
sbsg36
(imyEvolve
Tree
p1137
(dp1138
g16
I1
sg28
(imyEvolve
Tree
p1139
(dp1140
g16
I0
sg17
I00
sbsg36
(imyEvolve
Tree
p1141
(dp1142
g16
I0
sg35
F1.366594033327634
sg17
I01
sbsg18
I00
sg19
g81
sbsg18
I00
sg19
g46
sbsg36
(imyEvolve
Tree
p1143
(dp1144
g7
(imyEvolve
Tree
p1145
(dp1146
g7
(imyEvolve
Tree
p1147
(dp1148
g16
I0
sg35
F3.672636581580729
sg17
I01
sbsg16
I1
sg18
I01
sg19
g20
sbsg16
I2
sg18
I01
sg19
g21
sbsg18
I00
sg19
g81
sbsg36
(imyEvolve
Tree
p1149
(dp1150
g7
(imyEvolve
Tree
p1151
(dp1152
g16
I2
sg28
(imyEvolve
Tree
p1153
(dp1154
g16
I1
sg28
(imyEvolve
Tree
p1155
(dp1156
g16
I0
sg17
I00
sbsg36
(imyEvolve
Tree
p1157
(dp1158
g16
I0
sg17
I00
sbsg18
I00
sg19
g39
sbsg36
(imyEvolve
Tree
p1159
(dp1160
g16
I1
sg28
(imyEvolve
Tree
p1161
(dp1162
g16
I0
sg35
F-4.921045440292419
sg17
I01
sbsg36
(imyEvolve
Tree
p1163
(dp1164
g16
I0
sg35
F-1.4600425695762898
sg17
I01
sbsg18
I00
sg19
g46
sbsg18
I00
sg19
g39
sbsg16
I3
sg18
I01
sg19
g74
sbsg18
I00
sg19
g81
sbsg16
I5
sg18
I01
sg19
g74
sba(imyEvolve
Tree
p1165
(dp1166
g16
I5
sg28
(imyEvolve
Tree
p1167
(dp1168
g7
(imyEvolve
Tree
p1169
(dp1170
g16
I3
sg28
(imyEvolve
Tree
p1171
(dp1172
g7
(imyEvolve
Tree
p1173
(dp1174
g16
I1
sg28
(imyEvolve
Tree
p1175
(dp1176
g16
I0
sg35
F4.196042597697025
sg17
I01
sbsg36
(imyEvolve
Tree
p1177
(dp1178
g16
I0
sg17
I00
sbsg18
I00
sg19
g46
sbsg16
I2
sg18
I01
sg19
g21
sbsg36
(imyEvolve
Tree
p1179
(dp1180
g7
(imyEvolve
Tree
p1181
(dp1182
g16
I1
sg28
(imyEvolve
Tree
p1183
(dp1184
g16
I0
sg17
I00
sbsg36
(imyEvolve
Tree
p1185
(dp1186
g16
I0
sg35
F4.869975646747701
sg17
I01
sbsg18
I00
sg19
g39
sbsg16
I2
sg18
I01
sg19
g74
sbsg18
I00
sg19
g81
sbsg16
I4
sg18
I01
sg19
g59
sbsg36
(imyEvolve
Tree
p1187
(dp1188
g7
(imyEvolve
Tree
p1189
(dp1190
g16
I3
sg28
(imyEvolve
Tree
p1191
(dp1192
g16
I2
sg28
(imyEvolve
Tree
p1193
(dp1194
g7
(imyEvolve
Tree
p1195
(dp1196
g16
I0
sg35
F-2.3081245989253807
sg17
I01
sbsg16
I1
sg18
I01
sg19
g74
sbsg36
(imyEvolve
Tree
p1197
(dp1198
g7
(imyEvolve
Tree
p1199
(dp1200
g16
I0
sg35
F4.620565313151312
sg17
I01
sbsg16
I1
sg18
I01
sg19
g20
sbsg18
I00
sg19
g46
sbsg36
(imyEvolve
Tree
p1201
(dp1202
g7
(imyEvolve
Tree
p1203
(dp1204
g7
(imyEvolve
Tree
p1205
(dp1206
g16
I0
sg35
F4.282665668628988
sg17
I01
sbsg16
I1
sg18
I01
sg19
g20
sbsg16
I2
sg18
I01
sg19
g21
sbsg18
I00
sg19
g39
sbsg16
I4
sg18
I01
sg19
g59
sbsg18
I00
sg19
g46
sba(imyEvolve
Tree
p1207
(dp1208
g16
I2
sg28
(imyEvolve
Tree
p1209
(dp1210
g16
I1
sg28
(imyEvolve
Tree
p1211
(dp1212
g16
I0
sg35
F-2.512367057389743
sg17
I01
sbsg36
(imyEvolve
Tree
p1213
(dp1214
g16
I0
sg35
F-1.1328307407110314
sg17
I01
sbsg18
I00
sg19
g46
sbsg36
(imyEvolve
Tree
p1215
(dp1216
g7
(imyEvolve
Tree
p1217
(dp1218
g16
I0
sg35
F4.4176749425449735
sg17
I01
sbsg16
I1
sg18
I01
sg19
g21
sbsg18
I00
sg19
g46
sba(imyEvolve
Tree
p1219
(dp1220
g16
I3
sg28
(imyEvolve
Tree
p1221
(dp1222
g7
(imyEvolve
Tree
p1223
(dp1224
g7
(imyEvolve
Tree
p1225
(dp1226
g16
I0
sg35
F3.9615661096718
sg17
I01
sbsg16
I1
sg18
I01
sg19
g59
sbsg16
I2
sg18
I01
sg19
g59
sbsg36
(imyEvolve
Tree
p1227
(dp1228
g7
(imyEvolve
Tree
p1229
(dp1230
g16
I1
sg28
(imyEvolve
Tree
p1231
(dp1232
g16
I0
sg35
F-2.5165322598965645
sg17
I01
sbsg36
(imyEvolve
Tree
p1233
(dp1234
g16
I0
sg17
I00
sbsg18
I00
sg19
g39
sbsg16
I2
sg18
I01
sg19
g20
sbsg18
I00
sg19
g39
sbaasS'weightSharing'
p1235
(lp1236
I00
asS'fitnessValid'
p1237
I00
sS'fitness'
p1238
cnumpy.core.multiarray
scalar
p1239
(cnumpy
dtype
p1240
(S'f8'
p1241
I0
I1
tp1242
Rp1243
(I3
S'<'
p1244
NNNI-1
I-1
I0
tp1245
bS'\x00{6\xab\xeb\x99b\xbf'
p1246
tp1247
Rp1248
sS'alpha'
p1249
F0.008936729471007522
sS'resolution'
p1250
I89
sb.