(imyEvolve
Individual
p0
(dp1
S'funcs'
p2
(lp3
(lp4
(imyEvolve
Tree
p5
(dp6
S'below'
p7
(imyEvolve
Tree
p8
(dp9
S'depth'
p10
I4
sS'left'
p11
(imyEvolve
Tree
p12
(dp13
g7
(imyEvolve
Tree
p14
(dp15
g7
(imyEvolve
Tree
p16
(dp17
g7
(imyEvolve
Tree
p18
(dp19
g10
I0
sS'constant'
p20
F-0.6247364831626694
sS'isConstant'
p21
I01
sbsg10
I1
sS'single'
p22
I01
sS'op'
p23
cmath
sin
p24
sbsg10
I2
sg22
I01
sg23
g24
sbsg10
I3
sg22
I01
sg23
cmyEvolve
absSqrt
p25
sbsS'right'
p26
(imyEvolve
Tree
p27
(dp28
g7
(imyEvolve
Tree
p29
(dp30
g10
I2
sg11
(imyEvolve
Tree
p31
(dp32
g7
(imyEvolve
Tree
p33
(dp34
g10
I0
sg20
F3.99555234888199
sg21
I01
sbsg10
I1
sg22
I01
sg23
cmyEvolve
square
p35
sbsg26
(imyEvolve
Tree
p36
(dp37
g10
I1
sg11
(imyEvolve
Tree
p38
(dp39
g10
I0
sg21
I00
sbsg26
(imyEvolve
Tree
p40
(dp41
g10
I0
sg21
I00
sbsg22
I00
sg23
coperator
add
p42
sbsg22
I00
sg23
g42
sbsg10
I3
sg22
I01
sg23
cmath
cos
p43
sbsg22
I00
sg23
coperator
mul
p44
sbsg10
I5
sg22
I01
sg23
g24
sba(imyEvolve
Tree
p45
(dp46
g7
(imyEvolve
Tree
p47
(dp48
g11
(imyEvolve
Tree
p49
(dp50
g11
(imyEvolve
Tree
p51
(dp52
g11
(imyEvolve
Tree
p53
(dp54
g10
I0
sg20
F-1.5787364402262218
sg21
I01
sbsg10
I1
sg26
(imyEvolve
Tree
p55
(dp56
g10
I0
sg21
I00
sbsg22
I00
sg23
g42
sbsg10
I2
sg26
(imyEvolve
Tree
p57
(dp58
g11
(imyEvolve
Tree
p59
(dp60
g10
I0
sg21
I00
sbsg10
I1
sg26
(imyEvolve
Tree
p61
(dp62
g10
I0
sg21
I00
sbsg22
I00
sg23
g42
sbsg22
I00
sg23
g42
sbsg10
I3
sg26
(imyEvolve
Tree
p63
(dp64
g11
(imyEvolve
Tree
p65
(dp66
g11
(imyEvolve
Tree
p67
(dp68
g10
I0
sg21
I00
sbsg10
I1
sg26
(imyEvolve
Tree
p69
(dp70
g10
I0
sg20
F-4.071317450982369
sg21
I01
sbsg22
I00
sg23
g42
sbsg10
I2
sg26
(imyEvolve
Tree
p71
(dp72
g11
(imyEvolve
Tree
p73
(dp74
g10
I0
sg20
F-3.595530767154006
sg21
I01
sbsg10
I1
sg26
(imyEvolve
Tree
p75
(dp76
g10
I0
sg20
F1.584900337646033
sg21
I01
sbsg22
I00
sg23
g42
sbsg22
I00
sg23
coperator
sub
p77
sbsg22
I00
sg23
g44
sbsg10
I4
sg22
I01
sg23
g35
sba(imyEvolve
Tree
p78
(dp79
g7
(imyEvolve
Tree
p80
(dp81
g7
(imyEvolve
Tree
p82
(dp83
g10
I2
sg11
(imyEvolve
Tree
p84
(dp85
g10
I1
sg11
(imyEvolve
Tree
p86
(dp87
g10
I0
sg20
F-2.3784145209071053
sg21
I01
sbsg26
(imyEvolve
Tree
p88
(dp89
g10
I0
sg20
F3.564853628798833
sg21
I01
sbsg22
I00
sg23
g44
sbsg26
(imyEvolve
Tree
p90
(dp91
g7
(imyEvolve
Tree
p92
(dp93
g10
I0
sg21
I00
sbsg10
I1
sg22
I01
sg23
g25
sbsg22
I00
sg23
g42
sbsg10
I3
sg22
I01
sg23
g24
sbsg10
I4
sg22
I01
sg23
g25
sba(imyEvolve
Tree
p94
(dp95
g11
(imyEvolve
Tree
p96
(dp97
g11
(imyEvolve
Tree
p98
(dp99
g7
(imyEvolve
Tree
p100
(dp101
g10
I0
sg20
F-1.5210010609949176
sg21
I01
sbsg10
I1
sg22
I01
sg23
g35
sbsg10
I2
sg26
(imyEvolve
Tree
p102
(dp103
g7
(imyEvolve
Tree
p104
(dp105
g10
I0
sg20
F-1.4220263173903436
sg21
I01
sbsg10
I1
sg22
I01
sg23
g43
sbsg22
I00
sg23
g44
sbsg10
I3
sg26
(imyEvolve
Tree
p106
(dp107
g7
(imyEvolve
Tree
p108
(dp109
g11
(imyEvolve
Tree
p110
(dp111
g10
I0
sg21
I00
sbsg10
I1
sg26
(imyEvolve
Tree
p112
(dp113
g10
I0
sg21
I00
sbsg22
I00
sg23
g44
sbsg10
I2
sg22
I01
sg23
g43
sbsg22
I00
sg23
g77
sba(imyEvolve
Tree
p114
(dp115
g7
(imyEvolve
Tree
p116
(dp117
g7
(imyEvolve
Tree
p118
(dp119
g7
(imyEvolve
Tree
p120
(dp121
g10
I0
sg20
F-4.049959457236541
sg21
I01
sbsg10
I1
sg22
I01
sg23
g35
sbsg10
I2
sg22
I01
sg23
g43
sbsg10
I3
sg22
I01
sg23
g43
sba(imyEvolve
Tree
p122
(dp123
g7
(imyEvolve
Tree
p124
(dp125
g7
(imyEvolve
Tree
p126
(dp127
g11
(imyEvolve
Tree
p128
(dp129
g7
(imyEvolve
Tree
p130
(dp131
g7
(imyEvolve
Tree
p132
(dp133
g10
I0
sg21
I00
sbsg10
I1
sg22
I01
sg23
g24
sbsg10
I2
sg22
I01
sg23
g24
sbsg10
I3
sg26
(imyEvolve
Tree
p134
(dp135
g7
(imyEvolve
Tree
p136
(dp137
g11
(imyEvolve
Tree
p138
(dp139
g10
I0
sg20
F-1.1861224669500436
sg21
I01
sbsg10
I1
sg26
(imyEvolve
Tree
p140
(dp141
g10
I0
sg21
I00
sbsg22
I00
sg23
g42
sbsg10
I2
sg22
I01
sg23
g24
sbsg22
I00
sg23
g44
sbsg10
I4
sg22
I01
sg23
g35
sbsg10
I5
sg22
I01
sg23
g35
sba(imyEvolve
Tree
p142
(dp143
g11
(imyEvolve
Tree
p144
(dp145
g7
(imyEvolve
Tree
p146
(dp147
g11
(imyEvolve
Tree
p148
(dp149
g10
I0
sg21
I00
sbsg10
I1
sg26
(imyEvolve
Tree
p150
(dp151
g10
I0
sg20
F1.0217643525660849
sg21
I01
sbsg22
I00
sg23
g77
sbsg10
I2
sg22
I01
sg23
g43
sbsg10
I3
sg26
(imyEvolve
Tree
p152
(dp153
g7
(imyEvolve
Tree
p154
(dp155
g7
(imyEvolve
Tree
p156
(dp157
g10
I0
sg20
F2.7183803353093055
sg21
I01
sbsg10
I1
sg22
I01
sg23
g24
sbsg10
I2
sg22
I01
sg23
g43
sbsg22
I00
sg23
g44
sba(imyEvolve
Tree
p158
(dp159
g11
(imyEvolve
Tree
p160
(dp161
g7
(imyEvolve
Tree
p162
(dp163
g11
(imyEvolve
Tree
p164
(dp165
g7
(imyEvolve
Tree
p166
(dp167
g11
(imyEvolve
Tree
p168
(dp169
g10
I0
sg21
I00
sbsg10
I1
sg26
(imyEvolve
Tree
p170
(dp171
g10
I0
sg21
I00
sbsg22
I00
sg23
g42
sbsg10
I2
sg22
I01
sg23
g43
sbsg10
I3
sg26
(imyEvolve
Tree
p172
(dp173
g11
(imyEvolve
Tree
p174
(dp175
g7
(imyEvolve
Tree
p176
(dp177
g10
I0
sg20
F0.46885582864117037
sg21
I01
sbsg10
I1
sg22
I01
sg23
g25
sbsg10
I2
sg26
(imyEvolve
Tree
p178
(dp179
g11
(imyEvolve
Tree
p180
(dp181
g10
I0
sg21
I00
sbsg10
I1
sg26
(imyEvolve
Tree
p182
(dp183
g10
I0
sg21
I00
sbsg22
I00
sg23
g77
sbsg22
I00
sg23
g77
sbsg22
I00
sg23
g44
sbsg10
I4
sg22
I01
sg23
g24
sbsg10
I5
sg26
(imyEvolve
Tree
p184
(dp185
g7
(imyEvolve
Tree
p186
(dp187
g11
(imyEvolve
Tree
p188
(dp189
g7
(imyEvolve
Tree
p190
(dp191
g11
(imyEvolve
Tree
p192
(dp193
g10
I0
sg20
F3.705529910164774
sg21
I01
sbsg10
I1
sg26
(imyEvolve
Tree
p194
(dp195
g10
I0
sg20
F-4.5397349346008395
sg21
I01
sbsg22
I00
sg23
g42
sbsg10
I2
sg22
I01
sg23
g25
sbsg10
I3
sg26
(imyEvolve
Tree
p196
(dp197
g7
(imyEvolve
Tree
p198
(dp199
g7
(imyEvolve
Tree
p200
(dp201
g10
I0
sg20
F-2.9443916459360175
sg21
I01
sbsg10
I1
sg22
I01
sg23
g35
sbsg10
I2
sg22
I01
sg23
g35
sbsg22
I00
sg23
g77
sbsg10
I4
sg22
I01
sg23
g43
sbsg22
I00
sg23
g77
sbaa(lp202
(imyEvolve
Tree
p203
(dp204
g7
(imyEvolve
Tree
p205
(dp206
g7
(imyEvolve
Tree
p207
(dp208
g7
(imyEvolve
Tree
p209
(dp210
g10
I0
sg20
F2.7799744554251893
sg21
I01
sbsg10
I1
sg22
I01
sg23
g43
sbsg10
I2
sg22
I01
sg23
g35
sbsg10
I3
sg22
I01
sg23
g35
sba(imyEvolve
Tree
p211
(dp212
g11
(imyEvolve
Tree
p213
(dp214
g11
(imyEvolve
Tree
p215
(dp216
g7
(imyEvolve
Tree
p217
(dp218
g11
(imyEvolve
Tree
p219
(dp220
g7
(imyEvolve
Tree
p221
(dp222
g10
I0
sg20
F4.276482765628039
sg21
I01
sbsg10
I1
sg22
I01
sg23
g25
sbsg10
I2
sg26
(imyEvolve
Tree
p223
(dp224
g7
(imyEvolve
Tree
p225
(dp226
g10
I0
sg20
F0.1902149452745121
sg21
I01
sbsg10
I1
sg22
I01
sg23
g25
sbsg22
I00
sg23
g42
sbsg10
I3
sg22
I01
sg23
g43
sbsg10
I4
sg26
(imyEvolve
Tree
p227
(dp228
g11
(imyEvolve
Tree
p229
(dp230
g7
(imyEvolve
Tree
p231
(dp232
g11
(imyEvolve
Tree
p233
(dp234
g10
I0
sg21
I00
sbsg10
I1
sg26
(imyEvolve
Tree
p235
(dp236
g10
I0
sg20
F-3.7382981899894894
sg21
I01
sbsg22
I00
sg23
g77
sbsg10
I2
sg22
I01
sg23
g25
sbsg10
I3
sg26
(imyEvolve
Tree
p237
(dp238
g11
(imyEvolve
Tree
p239
(dp240
g11
(imyEvolve
Tree
p241
(dp242
g10
I0
sg21
I00
sbsg10
I1
sg26
(imyEvolve
Tree
p243
(dp244
g10
I0
sg20
F-3.699354253628384
sg21
I01
sbsg22
I00
sg23
g44
sbsg10
I2
sg26
(imyEvolve
Tree
p245
(dp246
g7
(imyEvolve
Tree
p247
(dp248
g10
I0
sg21
I00
sbsg10
I1
sg22
I01
sg23
g43
sbsg22
I00
sg23
g42
sbsg22
I00
sg23
g77
sbsg22
I00
sg23
g77
sbsg10
I5
sg26
(imyEvolve
Tree
p249
(dp250
g7
(imyEvolve
Tree
p251
(dp252
g7
(imyEvolve
Tree
p253
(dp254
g11
(imyEvolve
Tree
p255
(dp256
g7
(imyEvolve
Tree
p257
(dp258
g10
I0
sg21
I00
sbsg10
I1
sg22
I01
sg23
g24
sbsg10
I2
sg26
(imyEvolve
Tree
p259
(dp260
g11
(imyEvolve
Tree
p261
(dp262
g10
I0
sg20
F2.6501444584697555
sg21
I01
sbsg10
I1
sg26
(imyEvolve
Tree
p263
(dp264
g10
I0
sg21
I00
sbsg22
I00
sg23
g42
sbsg22
I00
sg23
g42
sbsg10
I3
sg22
I01
sg23
g43
sbsg10
I4
sg22
I01
sg23
g24
sbsg22
I00
sg23
g44
sba(imyEvolve
Tree
p265
(dp266
g11
(imyEvolve
Tree
p267
(dp268
g7
(imyEvolve
Tree
p269
(dp270
g7
(imyEvolve
Tree
p271
(dp272
g10
I0
sg20
F-2.3311905986264083
sg21
I01
sbsg10
I1
sg22
I01
sg23
g43
sbsg10
I2
sg22
I01
sg23
g24
sbsg10
I3
sg26
(imyEvolve
Tree
p273
(dp274
g7
(imyEvolve
Tree
p275
(dp276
g7
(imyEvolve
Tree
p277
(dp278
g10
I0
sg21
I00
sbsg10
I1
sg22
I01
sg23
g24
sbsg10
I2
sg22
I01
sg23
g25
sbsg22
I00
sg23
g42
sba(imyEvolve
Tree
p279
(dp280
g7
(imyEvolve
Tree
p281
(dp282
g10
I4
sg11
(imyEvolve
Tree
p283
(dp284
g10
I3
sg11
(imyEvolve
Tree
p285
(dp286
g7
(imyEvolve
Tree
p287
(dp288
g7
(imyEvolve
Tree
p289
(dp290
g10
I0
sg20
F-0.7411954876986702
sg21
I01
sbsg10
I1
sg22
I01
sg23
g43
sbsg10
I2
sg22
I01
sg23
g24
sbsg26
(imyEvolve
Tree
p291
(dp292
g7
(imyEvolve
Tree
p293
(dp294
g7
(imyEvolve
Tree
p295
(dp296
g10
I0
sg20
F1.0501808795628733
sg21
I01
sbsg10
I1
sg22
I01
sg23
g25
sbsg10
I2
sg22
I01
sg23
g24
sbsg22
I00
sg23
g42
sbsg26
(imyEvolve
Tree
p297
(dp298
g7
(imyEvolve
Tree
p299
(dp300
g7
(imyEvolve
Tree
p301
(dp302
g10
I1
sg11
(imyEvolve
Tree
p303
(dp304
g10
I0
sg20
F4.702427389629939
sg21
I01
sbsg26
(imyEvolve
Tree
p305
(dp306
g10
I0
sg20
F-0.26209282124298916
sg21
I01
sbsg22
I00
sg23
g44
sbsg10
I2
sg22
I01
sg23
g25
sbsg10
I3
sg22
I01
sg23
g24
sbsg22
I00
sg23
g42
sbsg10
I5
sg22
I01
sg23
g25
sba(imyEvolve
Tree
p307
(dp308
g10
I3
sg11
(imyEvolve
Tree
p309
(dp310
g7
(imyEvolve
Tree
p311
(dp312
g7
(imyEvolve
Tree
p313
(dp314
g10
I0
sg20
F3.609815388691988
sg21
I01
sbsg10
I1
sg22
I01
sg23
g24
sbsg10
I2
sg22
I01
sg23
g35
sbsg26
(imyEvolve
Tree
p315
(dp316
g7
(imyEvolve
Tree
p317
(dp318
g7
(imyEvolve
Tree
p319
(dp320
g10
I0
sg21
I00
sbsg10
I1
sg22
I01
sg23
g24
sbsg10
I2
sg22
I01
sg23
g24
sbsg22
I00
sg23
g42
sba(imyEvolve
Tree
p321
(dp322
g7
(imyEvolve
Tree
p323
(dp324
g10
I1
sg11
(imyEvolve
Tree
p325
(dp326
g10
I0
sg21
I00
sbsg26
(imyEvolve
Tree
p327
(dp328
g10
I0
sg20
F-3.9591753133116523
sg21
I01
sbsg22
I00
sg23
g77
sbsg10
I2
sg22
I01
sg23
g24
sba(imyEvolve
Tree
p329
(dp330
g7
(imyEvolve
Tree
p331
(dp332
g7
(imyEvolve
Tree
p333
(dp334
g11
(imyEvolve
Tree
p335
(dp336
g11
(imyEvolve
Tree
p337
(dp338
g10
I0
sg21
I00
sbsg10
I1
sg26
(imyEvolve
Tree
p339
(dp340
g10
I0
sg21
I00
sbsg22
I00
sg23
g42
sbsg10
I2
sg26
(imyEvolve
Tree
p341
(dp342
g11
(imyEvolve
Tree
p343
(dp344
g10
I0
sg20
F-4.661466121407454
sg21
I01
sbsg10
I1
sg26
(imyEvolve
Tree
p345
(dp346
g10
I0
sg21
I00
sbsg22
I00
sg23
g42
sbsg22
I00
sg23
g44
sbsg10
I3
sg22
I01
sg23
g24
sbsg10
I4
sg22
I01
sg23
g43
sba(imyEvolve
Tree
p347
(dp348
g7
(imyEvolve
Tree
p349
(dp350
g7
(imyEvolve
Tree
p351
(dp352
g10
I3
sg11
(imyEvolve
Tree
p353
(dp354
g10
I2
sg11
(imyEvolve
Tree
p355
(dp356
g7
(imyEvolve
Tree
p357
(dp358
g10
I0
sg21
I00
sbsg10
I1
sg22
I01
sg23
g43
sbsg26
(imyEvolve
Tree
p359
(dp360
g10
I1
sg11
(imyEvolve
Tree
p361
(dp362
g10
I0
sg21
I00
sbsg26
(imyEvolve
Tree
p363
(dp364
g10
I0
sg20
F-1.4665299276821706
sg21
I01
sbsg22
I00
sg23
g42
sbsg22
I00
sg23
g44
sbsg26
(imyEvolve
Tree
p365
(dp366
g10
I2
sg11
(imyEvolve
Tree
p367
(dp368
g7
(imyEvolve
Tree
p369
(dp370
g10
I0
sg20
F2.038432809957433
sg21
I01
sbsg10
I1
sg22
I01
sg23
g43
sbsg26
(imyEvolve
Tree
p371
(dp372
g7
(imyEvolve
Tree
p373
(dp374
g10
I0
sg21
I00
sbsg10
I1
sg22
I01
sg23
g43
sbsg22
I00
sg23
g44
sbsg22
I00
sg23
g42
sbsg10
I4
sg22
I01
sg23
g35
sbsg10
I5
sg22
I01
sg23
g35
sba(imyEvolve
Tree
p375
(dp376
g11
(imyEvolve
Tree
p377
(dp378
g7
(imyEvolve
Tree
p379
(dp380
g11
(imyEvolve
Tree
p381
(dp382
g7
(imyEvolve
Tree
p383
(dp384
g7
(imyEvolve
Tree
p385
(dp386
g10
I0
sg21
I00
sbsg10
I1
sg22
I01
sg23
g24
sbsg10
I2
sg22
I01
sg23
g43
sbsg10
I3
sg26
(imyEvolve
Tree
p387
(dp388
g11
(imyEvolve
Tree
p389
(dp390
g7
(imyEvolve
Tree
p391
(dp392
g10
I0
sg21
I00
sbsg10
I1
sg22
I01
sg23
g25
sbsg10
I2
sg26
(imyEvolve
Tree
p393
(dp394
g7
(imyEvolve
Tree
p395
(dp396
g10
I0
sg21
I00
sbsg10
I1
sg22
I01
sg23
g25
sbsg22
I00
sg23
g42
sbsg22
I00
sg23
g77
sbsg10
I4
sg22
I01
sg23
g24
sbsg10
I5
sg26
(imyEvolve
Tree
p397
(dp398
g11
(imyEvolve
Tree
p399
(dp400
g7
(imyEvolve
Tree
p401
(dp402
g7
(imyEvolve
Tree
p403
(dp404
g7
(imyEvolve
Tree
p405
(dp406
g10
I0
sg21
I00
sbsg10
I1
sg22
I01
sg23
g35
sbsg10
I2
sg22
I01
sg23
g25
sbsg10
I3
sg22
I01
sg23
g25
sbsg10
I4
sg26
(imyEvolve
Tree
p407
(dp408
g11
(imyEvolve
Tree
p409
(dp410
g7
(imyEvolve
Tree
p411
(dp412
g11
(imyEvolve
Tree
p413
(dp414
g10
I0
sg21
I00
sbsg10
I1
sg26
(imyEvolve
Tree
p415
(dp416
g10
I0
sg21
I00
sbsg22
I00
sg23
g42
sbsg10
I2
sg22
I01
sg23
g24
sbsg10
I3
sg26
(imyEvolve
Tree
p417
(dp418
g7
(imyEvolve
Tree
p419
(dp420
g7
(imyEvolve
Tree
p421
(dp422
g10
I0
sg20
F-3.2077212438364433
sg21
I01
sbsg10
I1
sg22
I01
sg23
g35
sbsg10
I2
sg22
I01
sg23
g24
sbsg22
I00
sg23
g44
sbsg22
I00
sg23
g44
sbsg22
I00
sg23
g42
sba(imyEvolve
Tree
p423
(dp424
g11
(imyEvolve
Tree
p425
(dp426
g7
(imyEvolve
Tree
p427
(dp428
g7
(imyEvolve
Tree
p429
(dp430
g7
(imyEvolve
Tree
p431
(dp432
g11
(imyEvolve
Tree
p433
(dp434
g10
I0
sg20
F4.3656886241889055
sg21
I01
sbsg10
I1
sg26
(imyEvolve
Tree
p435
(dp436
g10
I0
sg21
I00
sbsg22
I00
sg23
g44
sbsg10
I2
sg22
I01
sg23
g43
sbsg10
I3
sg22
I01
sg23
g35
sbsg10
I4
sg22
I01
sg23
g43
sbsg10
I5
sg26
(imyEvolve
Tree
p437
(dp438
g7
(imyEvolve
Tree
p439
(dp440
g7
(imyEvolve
Tree
p441
(dp442
g7
(imyEvolve
Tree
p443
(dp444
g11
(imyEvolve
Tree
p445
(dp446
g10
I0
sg20
F-0.19306148715914961
sg21
I01
sbsg10
I1
sg26
(imyEvolve
Tree
p447
(dp448
g10
I0
sg21
I00
sbsg22
I00
sg23
g77
sbsg10
I2
sg22
I01
sg23
g43
sbsg10
I3
sg22
I01
sg23
g43
sbsg10
I4
sg22
I01
sg23
g25
sbsg22
I00
sg23
g77
sba(imyEvolve
Tree
p449
(dp450
g11
(imyEvolve
Tree
p451
(dp452
g11
(imyEvolve
Tree
p453
(dp454
g7
(imyEvolve
Tree
p455
(dp456
g10
I0
sg21
I00
sbsg10
I1
sg22
I01
sg23
g35
sbsg10
I2
sg26
(imyEvolve
Tree
p457
(dp458
g11
(imyEvolve
Tree
p459
(dp460
g10
I0
sg21
I00
sbsg10
I1
sg26
(imyEvolve
Tree
p461
(dp462
g10
I0
sg21
I00
sbsg22
I00
sg23
g77
sbsg22
I00
sg23
g77
sbsg10
I3
sg26
(imyEvolve
Tree
p463
(dp464
g7
(imyEvolve
Tree
p465
(dp466
g7
(imyEvolve
Tree
p467
(dp468
g10
I0
sg20
F-4.700930982825623
sg21
I01
sbsg10
I1
sg22
I01
sg23
g24
sbsg10
I2
sg22
I01
sg23
g24
sbsg22
I00
sg23
g77
sba(imyEvolve
Tree
p469
(dp470
g7
(imyEvolve
Tree
p471
(dp472
g7
(imyEvolve
Tree
p473
(dp474
g11
(imyEvolve
Tree
p475
(dp476
g10
I0
sg21
I00
sbsg10
I1
sg26
(imyEvolve
Tree
p477
(dp478
g10
I0
sg21
I00
sbsg22
I00
sg23
g44
sbsg10
I2
sg22
I01
sg23
g43
sbsg10
I3
sg22
I01
sg23
g43
sba(imyEvolve
Tree
p479
(dp480
g11
(imyEvolve
Tree
p481
(dp482
g11
(imyEvolve
Tree
p483
(dp484
g11
(imyEvolve
Tree
p485
(dp486
g11
(imyEvolve
Tree
p487
(dp488
g10
I0
sg20
F-1.6936525170870476
sg21
I01
sbsg10
I1
sg26
(imyEvolve
Tree
p489
(dp490
g10
I0
sg21
I00
sbsg22
I00
sg23
g42
sbsg10
I2
sg26
(imyEvolve
Tree
p491
(dp492
g11
(imyEvolve
Tree
p493
(dp494
g10
I0
sg21
I00
sbsg10
I1
sg26
(imyEvolve
Tree
p495
(dp496
g10
I0
sg20
F-1.521540828356096
sg21
I01
sbsg22
I00
sg23
g42
sbsg22
I00
sg23
g42
sbsg10
I3
sg26
(imyEvolve
Tree
p497
(dp498
g11
(imyEvolve
Tree
p499
(dp500
g7
(imyEvolve
Tree
p501
(dp502
g10
I0
sg21
I00
sbsg10
I1
sg22
I01
sg23
g24
sbsg10
I2
sg26
(imyEvolve
Tree
p503
(dp504
g7
(imyEvolve
Tree
p505
(dp506
g10
I0
sg21
I00
sbsg10
I1
sg22
I01
sg23
g24
sbsg22
I00
sg23
g77
sbsg22
I00
sg23
g44
sbsg10
I4
sg26
(imyEvolve
Tree
p507
(dp508
g11
(imyEvolve
Tree
p509
(dp510
g11
(imyEvolve
Tree
p511
(dp512
g11
(imyEvolve
Tree
p513
(dp514
g10
I0
sg21
I00
sbsg10
I1
sg26
(imyEvolve
Tree
p515
(dp516
g10
I0
sg20
F-4.295276679830261
sg21
I01
sbsg22
I00
sg23
g44
sbsg10
I2
sg26
(imyEvolve
Tree
p517
(dp518
g11
(imyEvolve
Tree
p519
(dp520
g10
I0
sg21
I00
sbsg10
I1
sg26
(imyEvolve
Tree
p521
(dp522
g10
I0
sg21
I00
sbsg22
I00
sg23
g77
sbsg22
I00
sg23
g44
sbsg10
I3
sg26
(imyEvolve
Tree
p523
(dp524
g11
(imyEvolve
Tree
p525
(dp526
g11
(imyEvolve
Tree
p527
(dp528
g10
I0
sg20
F-1.4969336506450026
sg21
I01
sbsg10
I1
sg26
(imyEvolve
Tree
p529
(dp530
g10
I0
sg21
I00
sbsg22
I00
sg23
g42
sbsg10
I2
sg26
(imyEvolve
Tree
p531
(dp532
g7
(imyEvolve
Tree
p533
(dp534
g10
I0
sg21
I00
sbsg10
I1
sg22
I01
sg23
g24
sbsg22
I00
sg23
g42
sbsg22
I00
sg23
g44
sbsg22
I00
sg23
g44
sba(imyEvolve
Tree
p535
(dp536
g7
(imyEvolve
Tree
p537
(dp538
g7
(imyEvolve
Tree
p539
(dp540
g7
(imyEvolve
Tree
p541
(dp542
g7
(imyEvolve
Tree
p543
(dp544
g10
I1
sg11
(imyEvolve
Tree
p545
(dp546
g10
I0
sg20
F3.1817495001045106
sg21
I01
sbsg26
(imyEvolve
Tree
p547
(dp548
g10
I0
sg20
F1.876125165832219
sg21
I01
sbsg22
I00
sg23
g42
sbsg10
I2
sg22
I01
sg23
g43
sbsg10
I3
sg22
I01
sg23
g24
sbsg10
I4
sg22
I01
sg23
g25
sbsg10
I5
sg22
I01
sg23
g24
sba(imyEvolve
Tree
p549
(dp550
g11
(imyEvolve
Tree
p551
(dp552
g7
(imyEvolve
Tree
p553
(dp554
g10
I0
sg20
F-3.594012668945904
sg21
I01
sbsg10
I1
sg22
I01
sg23
g35
sbsg10
I2
sg26
(imyEvolve
Tree
p555
(dp556
g11
(imyEvolve
Tree
p557
(dp558
g10
I0
sg21
I00
sbsg10
I1
sg26
(imyEvolve
Tree
p559
(dp560
g10
I0
sg21
I00
sbsg22
I00
sg23
g77
sbsg22
I00
sg23
g44
sbaa(lp561
(imyEvolve
Tree
p562
(dp563
g7
(imyEvolve
Tree
p564
(dp565
g7
(imyEvolve
Tree
p566
(dp567
g10
I2
sg11
(imyEvolve
Tree
p568
(dp569
g7
(imyEvolve
Tree
p570
(dp571
g10
I0
sg20
F2.532735094536905
sg21
I01
sbsg10
I1
sg22
I01
sg23
g43
sbsg26
(imyEvolve
Tree
p572
(dp573
g7
(imyEvolve
Tree
p574
(dp575
g10
I0
sg21
I00
sbsg10
I1
sg22
I01
sg23
g24
sbsg22
I00
sg23
g42
sbsg10
I3
sg22
I01
sg23
g35
sbsg10
I4
sg22
I01
sg23
g35
sba(imyEvolve
Tree
p576
(dp577
g11
(imyEvolve
Tree
p578
(dp579
g7
(imyEvolve
Tree
p580
(dp581
g10
I0
sg21
I00
sbsg10
I1
sg22
I01
sg23
g35
sbsg10
I2
sg26
(imyEvolve
Tree
p582
(dp583
g11
(imyEvolve
Tree
p584
(dp585
g10
I0
sg20
F-2.7625417990029746
sg21
I01
sbsg10
I1
sg26
(imyEvolve
Tree
p586
(dp587
g10
I0
sg20
F-0.37170770325699465
sg21
I01
sbsg22
I00
sg23
g77
sbsg22
I00
sg23
g44
sba(imyEvolve
Tree
p588
(dp589
g11
(imyEvolve
Tree
p590
(dp591
g11
(imyEvolve
Tree
p592
(dp593
g10
I0
sg21
I00
sbsg10
I1
sg26
(imyEvolve
Tree
p594
(dp595
g10
I0
sg21
I00
sbsg22
I00
sg23
g44
sbsg10
I2
sg26
(imyEvolve
Tree
p596
(dp597
g11
(imyEvolve
Tree
p598
(dp599
g10
I0
sg21
I00
sbsg10
I1
sg26
(imyEvolve
Tree
p600
(dp601
g10
I0
sg20
F4.892517680927174
sg21
I01
sbsg22
I00
sg23
g44
sbsg22
I00
sg23
g77
sba(imyEvolve
Tree
p602
(dp603
g11
(imyEvolve
Tree
p604
(dp605
g11
(imyEvolve
Tree
p606
(dp607
g11
(imyEvolve
Tree
p608
(dp609
g11
(imyEvolve
Tree
p610
(dp611
g10
I0
sg21
I00
sbsg10
I1
sg26
(imyEvolve
Tree
p612
(dp613
g10
I0
sg21
I00
sbsg22
I00
sg23
g77
sbsg10
I2
sg26
(imyEvolve
Tree
p614
(dp615
g7
(imyEvolve
Tree
p616
(dp617
g10
I0
sg21
I00
sbsg10
I1
sg22
I01
sg23
g24
sbsg22
I00
sg23
g77
sbsg10
I3
sg26
(imyEvolve
Tree
p618
(dp619
g11
(imyEvolve
Tree
p620
(dp621
g11
(imyEvolve
Tree
p622
(dp623
g10
I0
sg21
I00
sbsg10
I1
sg26
(imyEvolve
Tree
p624
(dp625
g10
I0
sg20
F-0.6212005546131003
sg21
I01
sbsg22
I00
sg23
g42
sbsg10
I2
sg26
(imyEvolve
Tree
p626
(dp627
g11
(imyEvolve
Tree
p628
(dp629
g10
I0
sg21
I00
sbsg10
I1
sg26
(imyEvolve
Tree
p630
(dp631
g10
I0
sg20
F4.7304303209193534
sg21
I01
sbsg22
I00
sg23
g44
sbsg22
I00
sg23
g77
sbsg22
I00
sg23
g44
sbsg10
I4
sg26
(imyEvolve
Tree
p632
(dp633
g11
(imyEvolve
Tree
p634
(dp635
g7
(imyEvolve
Tree
p636
(dp637
g11
(imyEvolve
Tree
p638
(dp639
g10
I0
sg20
F2.819326682676082
sg21
I01
sbsg10
I1
sg26
(imyEvolve
Tree
p640
(dp641
g10
I0
sg20
F-4.893844115724075
sg21
I01
sbsg22
I00
sg23
g42
sbsg10
I2
sg22
I01
sg23
g43
sbsg10
I3
sg26
(imyEvolve
Tree
p642
(dp643
g7
(imyEvolve
Tree
p644
(dp645
g11
(imyEvolve
Tree
p646
(dp647
g10
I0
sg20
F4.827115676323343
sg21
I01
sbsg10
I1
sg26
(imyEvolve
Tree
p648
(dp649
g10
I0
sg21
I00
sbsg22
I00
sg23
g42
sbsg10
I2
sg22
I01
sg23
g35
sbsg22
I00
sg23
g44
sbsg22
I00
sg23
g77
sba(imyEvolve
Tree
p650
(dp651
g11
(imyEvolve
Tree
p652
(dp653
g7
(imyEvolve
Tree
p654
(dp655
g10
I0
sg20
F-3.6178532335385185
sg21
I01
sbsg10
I1
sg22
I01
sg23
g35
sbsg10
I2
sg26
(imyEvolve
Tree
p656
(dp657
g7
(imyEvolve
Tree
p658
(dp659
g10
I0
sg21
I00
sbsg10
I1
sg22
I01
sg23
g25
sbsg22
I00
sg23
g44
sba(imyEvolve
Tree
p660
(dp661
g7
(imyEvolve
Tree
p662
(dp663
g11
(imyEvolve
Tree
p664
(dp665
g11
(imyEvolve
Tree
p666
(dp667
g10
I0
sg21
I00
sbsg10
I1
sg26
(imyEvolve
Tree
p668
(dp669
g10
I0
sg20
F4.57318657479089
sg21
I01
sbsg22
I00
sg23
g77
sbsg10
I2
sg26
(imyEvolve
Tree
p670
(dp671
g7
(imyEvolve
Tree
p672
(dp673
g10
I0
sg21
I00
sbsg10
I1
sg22
I01
sg23
g24
sbsg22
I00
sg23
g42
sbsg10
I3
sg22
I01
sg23
g25
sba(imyEvolve
Tree
p674
(dp675
g10
I5
sg11
(imyEvolve
Tree
p676
(dp677
g10
I4
sg11
(imyEvolve
Tree
p678
(dp679
g7
(imyEvolve
Tree
p680
(dp681
g7
(imyEvolve
Tree
p682
(dp683
g10
I1
sg11
(imyEvolve
Tree
p684
(dp685
g10
I0
sg20
F0.47523960055504055
sg21
I01
sbsg26
(imyEvolve
Tree
p686
(dp687
g10
I0
sg21
I00
sbsg22
I00
sg23
g44
sbsg10
I2
sg22
I01
sg23
g35
sbsg10
I3
sg22
I01
sg23
g25
sbsg26
(imyEvolve
Tree
p688
(dp689
g10
I3
sg11
(imyEvolve
Tree
p690
(dp691
g10
I2
sg11
(imyEvolve
Tree
p692
(dp693
g10
I1
sg11
(imyEvolve
Tree
p694
(dp695
g10
I0
sg20
F4.913920402687674
sg21
I01
sbsg26
(imyEvolve
Tree
p696
(dp697
g10
I0
sg20
F-1.1058984562649297
sg21
I01
sbsg22
I00
sg23
g44
sbsg26
(imyEvolve
Tree
p698
(dp699
g7
(imyEvolve
Tree
p700
(dp701
g10
I0
sg21
I00
sbsg10
I1
sg22
I01
sg23
g24
sbsg22
I00
sg23
g42
sbsg26
(imyEvolve
Tree
p702
(dp703
g10
I2
sg11
(imyEvolve
Tree
p704
(dp705
g10
I1
sg11
(imyEvolve
Tree
p706
(dp707
g10
I0
sg21
I00
sbsg26
(imyEvolve
Tree
p708
(dp709
g10
I0
sg21
I00
sbsg22
I00
sg23
g42
sbsg26
(imyEvolve
Tree
p710
(dp711
g10
I1
sg11
(imyEvolve
Tree
p712
(dp713
g10
I0
sg21
I00
sbsg26
(imyEvolve
Tree
p714
(dp715
g10
I0
sg21
I00
sbsg22
I00
sg23
g44
sbsg22
I00
sg23
g42
sbsg22
I00
sg23
g42
sbsg22
I00
sg23
g77
sbsg26
(imyEvolve
Tree
p716
(dp717
g10
I4
sg11
(imyEvolve
Tree
p718
(dp719
g7
(imyEvolve
Tree
p720
(dp721
g7
(imyEvolve
Tree
p722
(dp723
g7
(imyEvolve
Tree
p724
(dp725
g10
I0
sg21
I00
sbsg10
I1
sg22
I01
sg23
g25
sbsg10
I2
sg22
I01
sg23
g24
sbsg10
I3
sg22
I01
sg23
g35
sbsg26
(imyEvolve
Tree
p726
(dp727
g7
(imyEvolve
Tree
p728
(dp729
g7
(imyEvolve
Tree
p730
(dp731
g7
(imyEvolve
Tree
p732
(dp733
g10
I0
sg21
I00
sbsg10
I1
sg22
I01
sg23
g25
sbsg10
I2
sg22
I01
sg23
g35
sbsg10
I3
sg22
I01
sg23
g24
sbsg22
I00
sg23
g77
sbsg22
I00
sg23
g44
sba(imyEvolve
Tree
p734
(dp735
g7
(imyEvolve
Tree
p736
(dp737
g7
(imyEvolve
Tree
p738
(dp739
g11
(imyEvolve
Tree
p740
(dp741
g11
(imyEvolve
Tree
p742
(dp743
g10
I0
sg21
I00
sbsg10
I1
sg26
(imyEvolve
Tree
p744
(dp745
g10
I0
sg20
F2.6312471590262723
sg21
I01
sbsg22
I00
sg23
g42
sbsg10
I2
sg26
(imyEvolve
Tree
p746
(dp747
g7
(imyEvolve
Tree
p748
(dp749
g10
I0
sg20
F-0.9703541138704193
sg21
I01
sbsg10
I1
sg22
I01
sg23
g25
sbsg22
I00
sg23
g77
sbsg10
I3
sg22
I01
sg23
g35
sbsg10
I4
sg22
I01
sg23
g25
sba(imyEvolve
Tree
p750
(dp751
g11
(imyEvolve
Tree
p752
(dp753
g11
(imyEvolve
Tree
p754
(dp755
g7
(imyEvolve
Tree
p756
(dp757
g11
(imyEvolve
Tree
p758
(dp759
g10
I0
sg20
F1.4396042513113718
sg21
I01
sbsg10
I1
sg26
(imyEvolve
Tree
p760
(dp761
g10
I0
sg20
F2.207175636606186
sg21
I01
sbsg22
I00
sg23
g42
sbsg10
I2
sg22
I01
sg23
g43
sbsg10
I3
sg26
(imyEvolve
Tree
p762
(dp763
g7
(imyEvolve
Tree
p764
(dp765
g11
(imyEvolve
Tree
p766
(dp767
g10
I0
sg21
I00
sbsg10
I1
sg26
(imyEvolve
Tree
p768
(dp769
g10
I0
sg20
F3.861996641265476
sg21
I01
sbsg22
I00
sg23
g77
sbsg10
I2
sg22
I01
sg23
g35
sbsg22
I00
sg23
g42
sbsg10
I4
sg26
(imyEvolve
Tree
p770
(dp771
g11
(imyEvolve
Tree
p772
(dp773
g7
(imyEvolve
Tree
p774
(dp775
g7
(imyEvolve
Tree
p776
(dp777
g10
I0
sg20
F-4.414610067947651
sg21
I01
sbsg10
I1
sg22
I01
sg23
g43
sbsg10
I2
sg22
I01
sg23
g25
sbsg10
I3
sg26
(imyEvolve
Tree
p778
(dp779
g11
(imyEvolve
Tree
p780
(dp781
g7
(imyEvolve
Tree
p782
(dp783
g10
I0
sg20
F-3.2306758995993823
sg21
I01
sbsg10
I1
sg22
I01
sg23
g24
sbsg10
I2
sg26
(imyEvolve
Tree
p784
(dp785
g11
(imyEvolve
Tree
p786
(dp787
g10
I0
sg20
F-1.4674133880890716
sg21
I01
sbsg10
I1
sg26
(imyEvolve
Tree
p788
(dp789
g10
I0
sg21
I00
sbsg22
I00
sg23
g42
sbsg22
I00
sg23
g44
sbsg22
I00
sg23
g44
sbsg22
I00
sg23
g77
sba(imyEvolve
Tree
p790
(dp791
g7
(imyEvolve
Tree
p792
(dp793
g11
(imyEvolve
Tree
p794
(dp795
g11
(imyEvolve
Tree
p796
(dp797
g10
I0
sg21
I00
sbsg10
I1
sg26
(imyEvolve
Tree
p798
(dp799
g10
I0
sg20
F-3.975322356800314
sg21
I01
sbsg22
I00
sg23
g42
sbsg10
I2
sg26
(imyEvolve
Tree
p800
(dp801
g11
(imyEvolve
Tree
p802
(dp803
g10
I0
sg20
F-0.5660603997116382
sg21
I01
sbsg10
I1
sg26
(imyEvolve
Tree
p804
(dp805
g10
I0
sg21
I00
sbsg22
I00
sg23
g42
sbsg22
I00
sg23
g77
sbsg10
I3
sg22
I01
sg23
g25
sba(imyEvolve
Tree
p806
(dp807
g7
(imyEvolve
Tree
p808
(dp809
g10
I2
sg11
(imyEvolve
Tree
p810
(dp811
g7
(imyEvolve
Tree
p812
(dp813
g10
I0
sg21
I00
sbsg10
I1
sg22
I01
sg23
g35
sbsg26
(imyEvolve
Tree
p814
(dp815
g10
I1
sg11
(imyEvolve
Tree
p816
(dp817
g10
I0
sg20
F0.15726073547717334
sg21
I01
sbsg26
(imyEvolve
Tree
p818
(dp819
g10
I0
sg20
F3.2328100069882755
sg21
I01
sbsg22
I00
sg23
g42
sbsg22
I00
sg23
g44
sbsg10
I3
sg22
I01
sg23
g43
sba(imyEvolve
Tree
p820
(dp821
g7
(imyEvolve
Tree
p822
(dp823
g7
(imyEvolve
Tree
p824
(dp825
g7
(imyEvolve
Tree
p826
(dp827
g11
(imyEvolve
Tree
p828
(dp829
g11
(imyEvolve
Tree
p830
(dp831
g10
I0
sg20
F-1.6967562311127917
sg21
I01
sbsg10
I1
sg26
(imyEvolve
Tree
p832
(dp833
g10
I0
sg20
F3.6644943057405186
sg21
I01
sbsg22
I00
sg23
g42
sbsg10
I2
sg26
(imyEvolve
Tree
p834
(dp835
g11
(imyEvolve
Tree
p836
(dp837
g10
I0
sg20
F2.3081921395933778
sg21
I01
sbsg10
I1
sg26
(imyEvolve
Tree
p838
(dp839
g10
I0
sg20
F4.799859945263806
sg21
I01
sbsg22
I00
sg23
g77
sbsg22
I00
sg23
g77
sbsg10
I3
sg22
I01
sg23
g24
sbsg10
I4
sg22
I01
sg23
g25
sbsg10
I5
sg22
I01
sg23
g43
sba(imyEvolve
Tree
p840
(dp841
g11
(imyEvolve
Tree
p842
(dp843
g7
(imyEvolve
Tree
p844
(dp845
g10
I0
sg20
F-0.8815828922941593
sg21
I01
sbsg10
I1
sg22
I01
sg23
g24
sbsg10
I2
sg26
(imyEvolve
Tree
p846
(dp847
g7
(imyEvolve
Tree
p848
(dp849
g10
I0
sg21
I00
sbsg10
I1
sg22
I01
sg23
g43
sbsg22
I00
sg23
g42
sba(imyEvolve
Tree
p850
(dp851
g10
I4
sg11
(imyEvolve
Tree
p852
(dp853
g7
(imyEvolve
Tree
p854
(dp855
g7
(imyEvolve
Tree
p856
(dp857
g7
(imyEvolve
Tree
p858
(dp859
g10
I0
sg21
I00
sbsg10
I1
sg22
I01
sg23
g43
sbsg10
I2
sg22
I01
sg23
g43
sbsg10
I3
sg22
I01
sg23
g43
sbsg26
(imyEvolve
Tree
p860
(dp861
g10
I3
sg11
(imyEvolve
Tree
p862
(dp863
g10
I2
sg11
(imyEvolve
Tree
p864
(dp865
g10
I1
sg11
(imyEvolve
Tree
p866
(dp867
g10
I0
sg21
I00
sbsg26
(imyEvolve
Tree
p868
(dp869
g10
I0
sg21
I00
sbsg22
I00
sg23
g77
sbsg26
(imyEvolve
Tree
p870
(dp871
g7
(imyEvolve
Tree
p872
(dp873
g10
I0
sg21
I00
sbsg10
I1
sg22
I01
sg23
g25
sbsg22
I00
sg23
g42
sbsg26
(imyEvolve
Tree
p874
(dp875
g10
I2
sg11
(imyEvolve
Tree
p876
(dp877
g7
(imyEvolve
Tree
p878
(dp879
g10
I0
sg21
I00
sbsg10
I1
sg22
I01
sg23
g35
sbsg26
(imyEvolve
Tree
p880
(dp881
g10
I1
sg11
(imyEvolve
Tree
p882
(dp883
g10
I0
sg20
F-0.1320824590142795
sg21
I01
sbsg26
(imyEvolve
Tree
p884
(dp885
g10
I0
sg21
I00
sbsg22
I00
sg23
g77
sbsg22
I00
sg23
g42
sbsg22
I00
sg23
g42
sbsg22
I00
sg23
g77
sbaasS'alpha'
p886
F0.007471123144049652
sS'fitness'
p887
cnumpy.core.multiarray
scalar
p888
(cnumpy
dtype
p889
(S'f8'
p890
I0
I1
tp891
Rp892
(I3
S'<'
p893
NNNI-1
I-1
I0
tp894
bS'\x00,\x90\xa0l\x9e[?'
p895
tp896
Rp897
sS'weightSharing'
p898
(lp899
I00
asS'fitnessValid'
p900
I00
sS'resolution'
p901
I68
sb.