(imyEvolve
Individual
p0
(dp1
S'funcs'
p2
(lp3
(lp4
(imyEvolve
Tree
p5
(dp6
S'left'
p7
(imyEvolve
Tree
p8
(dp9
g7
(imyEvolve
Tree
p10
(dp11
S'below'
p12
(imyEvolve
Tree
p13
(dp14
g12
(imyEvolve
Tree
p15
(dp16
g7
(imyEvolve
Tree
p17
(dp18
S'depth'
p19
I0
sS'constant'
p20
F-0.820905403248271
sS'isConstant'
p21
I01
sbsg19
I1
sS'right'
p22
(imyEvolve
Tree
p23
(dp24
g19
I0
sg21
I00
sbsS'single'
p25
I00
sS'op'
p26
coperator
sub
p27
sbsg19
I2
sg25
I01
sg26
cmyEvolve
absSqrt
p28
sbsg19
I3
sg25
I01
sg26
cmath
cos
p29
sbsg19
I4
sg22
(imyEvolve
Tree
p30
(dp31
g12
(imyEvolve
Tree
p32
(dp33
g7
(imyEvolve
Tree
p34
(dp35
g12
(imyEvolve
Tree
p36
(dp37
g19
I0
sg20
F-2.4024472704446556
sg21
I01
sbsg19
I1
sg25
I01
sg26
cmyEvolve
square
p38
sbsg19
I2
sg22
(imyEvolve
Tree
p39
(dp40
g12
(imyEvolve
Tree
p41
(dp42
g19
I0
sg20
F-2.266019131571423
sg21
I01
sbsg19
I1
sg25
I01
sg26
cmath
sin
p43
sbsg25
I00
sg26
coperator
add
p44
sbsg19
I3
sg25
I01
sg26
g43
sbsg25
I00
sg26
g27
sbsg19
I5
sg22
(imyEvolve
Tree
p45
(dp46
g12
(imyEvolve
Tree
p47
(dp48
g7
(imyEvolve
Tree
p49
(dp50
g12
(imyEvolve
Tree
p51
(dp52
g7
(imyEvolve
Tree
p53
(dp54
g19
I0
sg21
I00
sbsg19
I1
sg22
(imyEvolve
Tree
p55
(dp56
g19
I0
sg20
F-4.478477798029309
sg21
I01
sbsg25
I00
sg26
coperator
mul
p57
sbsg19
I2
sg25
I01
sg26
g38
sbsg19
I3
sg22
(imyEvolve
Tree
p58
(dp59
g12
(imyEvolve
Tree
p60
(dp61
g7
(imyEvolve
Tree
p62
(dp63
g19
I0
sg20
F1.3568793180248306
sg21
I01
sbsg19
I1
sg22
(imyEvolve
Tree
p64
(dp65
g19
I0
sg20
F0.06625150833711224
sg21
I01
sbsg25
I00
sg26
g27
sbsg19
I2
sg25
I01
sg26
g43
sbsg25
I00
sg26
g27
sbsg19
I4
sg25
I01
sg26
g43
sbsg25
I00
sg26
g57
sba(imyEvolve
Tree
p66
(dp67
g7
(imyEvolve
Tree
p68
(dp69
g12
(imyEvolve
Tree
p70
(dp71
g7
(imyEvolve
Tree
p72
(dp73
g19
I0
sg20
F0.23403116206035524
sg21
I01
sbsg19
I1
sg22
(imyEvolve
Tree
p74
(dp75
g19
I0
sg21
I00
sbsg25
I00
sg26
g27
sbsg19
I2
sg25
I01
sg26
g38
sbsg19
I3
sg22
(imyEvolve
Tree
p76
(dp77
g7
(imyEvolve
Tree
p78
(dp79
g7
(imyEvolve
Tree
p80
(dp81
g19
I0
sg20
F3.5569515997570402
sg21
I01
sbsg19
I1
sg22
(imyEvolve
Tree
p82
(dp83
g19
I0
sg20
F2.219843764454441
sg21
I01
sbsg25
I00
sg26
g57
sbsg19
I2
sg22
(imyEvolve
Tree
p84
(dp85
g12
(imyEvolve
Tree
p86
(dp87
g19
I0
sg21
I00
sbsg19
I1
sg25
I01
sg26
g43
sbsg25
I00
sg26
g44
sbsg25
I00
sg26
g27
sba(imyEvolve
Tree
p88
(dp89
g7
(imyEvolve
Tree
p90
(dp91
g7
(imyEvolve
Tree
p92
(dp93
g19
I0
sg21
I00
sbsg19
I1
sg22
(imyEvolve
Tree
p94
(dp95
g19
I0
sg21
I00
sbsg25
I00
sg26
g27
sbsg19
I2
sg22
(imyEvolve
Tree
p96
(dp97
g7
(imyEvolve
Tree
p98
(dp99
g19
I0
sg21
I00
sbsg19
I1
sg22
(imyEvolve
Tree
p100
(dp101
g19
I0
sg20
F1.1997862212991812
sg21
I01
sbsg25
I00
sg26
g57
sbsg25
I00
sg26
g44
sba(imyEvolve
Tree
p102
(dp103
g12
(imyEvolve
Tree
p104
(dp105
g7
(imyEvolve
Tree
p106
(dp107
g7
(imyEvolve
Tree
p108
(dp109
g19
I0
sg20
F0.36826992967050387
sg21
I01
sbsg19
I1
sg22
(imyEvolve
Tree
p110
(dp111
g19
I0
sg20
F4.856780197386492
sg21
I01
sbsg25
I00
sg26
g27
sbsg19
I2
sg22
(imyEvolve
Tree
p112
(dp113
g7
(imyEvolve
Tree
p114
(dp115
g19
I0
sg20
F-0.5563782429086759
sg21
I01
sbsg19
I1
sg22
(imyEvolve
Tree
p116
(dp117
g19
I0
sg20
F3.779247722163099
sg21
I01
sbsg25
I00
sg26
g57
sbsg25
I00
sg26
g27
sbsg19
I3
sg25
I01
sg26
g43
sba(imyEvolve
Tree
p118
(dp119
g12
(imyEvolve
Tree
p120
(dp121
g7
(imyEvolve
Tree
p122
(dp123
g7
(imyEvolve
Tree
p124
(dp125
g19
I0
sg21
I00
sbsg19
I1
sg22
(imyEvolve
Tree
p126
(dp127
g19
I0
sg21
I00
sbsg25
I00
sg26
g57
sbsg19
I2
sg22
(imyEvolve
Tree
p128
(dp129
g7
(imyEvolve
Tree
p130
(dp131
g19
I0
sg20
F0.9827745072408769
sg21
I01
sbsg19
I1
sg22
(imyEvolve
Tree
p132
(dp133
g19
I0
sg20
F-4.647679124196761
sg21
I01
sbsg25
I00
sg26
g57
sbsg25
I00
sg26
g44
sbsg19
I3
sg25
I01
sg26
g43
sba(imyEvolve
Tree
p134
(dp135
g7
(imyEvolve
Tree
p136
(dp137
g7
(imyEvolve
Tree
p138
(dp139
g12
(imyEvolve
Tree
p140
(dp141
g19
I0
sg21
I00
sbsg19
I1
sg25
I01
sg26
g28
sbsg19
I2
sg22
(imyEvolve
Tree
p142
(dp143
g7
(imyEvolve
Tree
p144
(dp145
g19
I0
sg20
F1.6357787650675082
sg21
I01
sbsg19
I1
sg22
(imyEvolve
Tree
p146
(dp147
g19
I0
sg21
I00
sbsg25
I00
sg26
g27
sbsg25
I00
sg26
g27
sbsg19
I3
sg22
(imyEvolve
Tree
p148
(dp149
g12
(imyEvolve
Tree
p150
(dp151
g7
(imyEvolve
Tree
p152
(dp153
g19
I0
sg20
F-0.9555988417013017
sg21
I01
sbsg19
I1
sg22
(imyEvolve
Tree
p154
(dp155
g19
I0
sg21
I00
sbsg25
I00
sg26
g27
sbsg19
I2
sg25
I01
sg26
g29
sbsg25
I00
sg26
g27
sba(imyEvolve
Tree
p156
(dp157
g12
(imyEvolve
Tree
p158
(dp159
g7
(imyEvolve
Tree
p160
(dp161
g19
I0
sg20
F0.7333504045363748
sg21
I01
sbsg19
I1
sg22
(imyEvolve
Tree
p162
(dp163
g19
I0
sg21
I00
sbsg25
I00
sg26
g57
sbsg19
I2
sg25
I01
sg26
g28
sba(imyEvolve
Tree
p164
(dp165
g12
(imyEvolve
Tree
p166
(dp167
g12
(imyEvolve
Tree
p168
(dp169
g12
(imyEvolve
Tree
p170
(dp171
g7
(imyEvolve
Tree
p172
(dp173
g12
(imyEvolve
Tree
p174
(dp175
g19
I0
sg20
F-1.5266529772187711
sg21
I01
sbsg19
I1
sg25
I01
sg26
g29
sbsg19
I2
sg22
(imyEvolve
Tree
p176
(dp177
g7
(imyEvolve
Tree
p178
(dp179
g19
I0
sg20
F2.490962801265403
sg21
I01
sbsg19
I1
sg22
(imyEvolve
Tree
p180
(dp181
g19
I0
sg21
I00
sbsg25
I00
sg26
g27
sbsg25
I00
sg26
g44
sbsg19
I3
sg25
I01
sg26
g43
sbsg19
I4
sg25
I01
sg26
g28
sbsg19
I5
sg25
I01
sg26
g28
sba(imyEvolve
Tree
p182
(dp183
g12
(imyEvolve
Tree
p184
(dp185
g12
(imyEvolve
Tree
p186
(dp187
g7
(imyEvolve
Tree
p188
(dp189
g19
I0
sg21
I00
sbsg19
I1
sg22
(imyEvolve
Tree
p190
(dp191
g19
I0
sg20
F0.12237748139200111
sg21
I01
sbsg25
I00
sg26
g57
sbsg19
I2
sg25
I01
sg26
g43
sbsg19
I3
sg25
I01
sg26
g28
sba(imyEvolve
Tree
p192
(dp193
g12
(imyEvolve
Tree
p194
(dp195
g12
(imyEvolve
Tree
p196
(dp197
g19
I3
sg7
(imyEvolve
Tree
p198
(dp199
g19
I2
sg7
(imyEvolve
Tree
p200
(dp201
g12
(imyEvolve
Tree
p202
(dp203
g19
I0
sg20
F-3.7131963274147095
sg21
I01
sbsg19
I1
sg25
I01
sg26
g38
sbsg22
(imyEvolve
Tree
p204
(dp205
g12
(imyEvolve
Tree
p206
(dp207
g19
I0
sg21
I00
sbsg19
I1
sg25
I01
sg26
g28
sbsg25
I00
sg26
g27
sbsg22
(imyEvolve
Tree
p208
(dp209
g19
I2
sg7
(imyEvolve
Tree
p210
(dp211
g12
(imyEvolve
Tree
p212
(dp213
g19
I0
sg21
I00
sbsg19
I1
sg25
I01
sg26
g28
sbsg22
(imyEvolve
Tree
p214
(dp215
g19
I1
sg7
(imyEvolve
Tree
p216
(dp217
g19
I0
sg20
F-1.4319301702149456
sg21
I01
sbsg22
(imyEvolve
Tree
p218
(dp219
g19
I0
sg21
I00
sbsg25
I00
sg26
g27
sbsg25
I00
sg26
g27
sbsg25
I00
sg26
g44
sbsg19
I4
sg25
I01
sg26
g29
sbsg19
I5
sg25
I01
sg26
g38
sba(imyEvolve
Tree
p220
(dp221
g12
(imyEvolve
Tree
p222
(dp223
g19
I2
sg7
(imyEvolve
Tree
p224
(dp225
g12
(imyEvolve
Tree
p226
(dp227
g19
I0
sg20
F2.193048481238753
sg21
I01
sbsg19
I1
sg25
I01
sg26
g29
sbsg22
(imyEvolve
Tree
p228
(dp229
g12
(imyEvolve
Tree
p230
(dp231
g19
I0
sg21
I00
sbsg19
I1
sg25
I01
sg26
g29
sbsg25
I00
sg26
g44
sbsg19
I3
sg25
I01
sg26
g28
sba(imyEvolve
Tree
p232
(dp233
g7
(imyEvolve
Tree
p234
(dp235
g7
(imyEvolve
Tree
p236
(dp237
g7
(imyEvolve
Tree
p238
(dp239
g12
(imyEvolve
Tree
p240
(dp241
g19
I0
sg20
F-2.540485090379707
sg21
I01
sbsg19
I1
sg25
I01
sg26
g28
sbsg19
I2
sg22
(imyEvolve
Tree
p242
(dp243
g12
(imyEvolve
Tree
p244
(dp245
g19
I0
sg20
F-1.4904376319115045
sg21
I01
sbsg19
I1
sg25
I01
sg26
g43
sbsg25
I00
sg26
g44
sbsg19
I3
sg22
(imyEvolve
Tree
p246
(dp247
g12
(imyEvolve
Tree
p248
(dp249
g7
(imyEvolve
Tree
p250
(dp251
g19
I0
sg21
I00
sbsg19
I1
sg22
(imyEvolve
Tree
p252
(dp253
g19
I0
sg20
F-2.2459016666025944
sg21
I01
sbsg25
I00
sg26
g44
sbsg19
I2
sg25
I01
sg26
g43
sbsg25
I00
sg26
g57
sbsg19
I4
sg22
(imyEvolve
Tree
p254
(dp255
g12
(imyEvolve
Tree
p256
(dp257
g12
(imyEvolve
Tree
p258
(dp259
g12
(imyEvolve
Tree
p260
(dp261
g19
I0
sg20
F-2.8656185528392273
sg21
I01
sbsg19
I1
sg25
I01
sg26
g43
sbsg19
I2
sg25
I01
sg26
g43
sbsg19
I3
sg25
I01
sg26
g29
sbsg25
I00
sg26
g27
sba(imyEvolve
Tree
p262
(dp263
g12
(imyEvolve
Tree
p264
(dp265
g12
(imyEvolve
Tree
p266
(dp267
g19
I0
sg21
I00
sbsg19
I1
sg25
I01
sg26
g43
sbsg19
I2
sg25
I01
sg26
g43
sba(imyEvolve
Tree
p268
(dp269
g12
(imyEvolve
Tree
p270
(dp271
g12
(imyEvolve
Tree
p272
(dp273
g7
(imyEvolve
Tree
p274
(dp275
g12
(imyEvolve
Tree
p276
(dp277
g12
(imyEvolve
Tree
p278
(dp279
g19
I0
sg21
I00
sbsg19
I1
sg25
I01
sg26
g43
sbsg19
I2
sg25
I01
sg26
g38
sbsg19
I3
sg22
(imyEvolve
Tree
p280
(dp281
g7
(imyEvolve
Tree
p282
(dp283
g12
(imyEvolve
Tree
p284
(dp285
g19
I0
sg20
F-4.496614673175651
sg21
I01
sbsg19
I1
sg25
I01
sg26
g28
sbsg19
I2
sg22
(imyEvolve
Tree
p286
(dp287
g12
(imyEvolve
Tree
p288
(dp289
g19
I0
sg21
I00
sbsg19
I1
sg25
I01
sg26
g28
sbsg25
I00
sg26
g27
sbsg25
I00
sg26
g44
sbsg19
I4
sg25
I01
sg26
g43
sbsg19
I5
sg25
I01
sg26
g28
sba(imyEvolve
Tree
p290
(dp291
g12
(imyEvolve
Tree
p292
(dp293
g12
(imyEvolve
Tree
p294
(dp295
g19
I1
sg7
(imyEvolve
Tree
p296
(dp297
g19
I0
sg20
F0.8657382212465752
sg21
I01
sbsg22
(imyEvolve
Tree
p298
(dp299
g19
I0
sg20
F4.646080436204043
sg21
I01
sbsg25
I00
sg26
g57
sbsg19
I2
sg25
I01
sg26
g43
sbsg19
I3
sg25
I01
sg26
g43
sba(imyEvolve
Tree
p300
(dp301
g12
(imyEvolve
Tree
p302
(dp303
g7
(imyEvolve
Tree
p304
(dp305
g12
(imyEvolve
Tree
p306
(dp307
g7
(imyEvolve
Tree
p308
(dp309
g19
I0
sg21
I00
sbsg19
I1
sg22
(imyEvolve
Tree
p310
(dp311
g19
I0
sg21
I00
sbsg25
I00
sg26
g27
sbsg19
I2
sg25
I01
sg26
g43
sbsg19
I3
sg22
(imyEvolve
Tree
p312
(dp313
g12
(imyEvolve
Tree
p314
(dp315
g12
(imyEvolve
Tree
p316
(dp317
g19
I0
sg20
F3.2715046571225788
sg21
I01
sbsg19
I1
sg25
I01
sg26
g29
sbsg19
I2
sg25
I01
sg26
g38
sbsg25
I00
sg26
g27
sbsg19
I4
sg25
I01
sg26
g29
sba(imyEvolve
Tree
p318
(dp319
g7
(imyEvolve
Tree
p320
(dp321
g7
(imyEvolve
Tree
p322
(dp323
g12
(imyEvolve
Tree
p324
(dp325
g19
I0
sg20
F-1.5928010025755048
sg21
I01
sbsg19
I1
sg25
I01
sg26
g29
sbsg19
I2
sg22
(imyEvolve
Tree
p326
(dp327
g7
(imyEvolve
Tree
p328
(dp329
g19
I0
sg20
F-0.2856660002625251
sg21
I01
sbsg19
I1
sg22
(imyEvolve
Tree
p330
(dp331
g19
I0
sg20
F4.192145816549843
sg21
I01
sbsg25
I00
sg26
g57
sbsg25
I00
sg26
g27
sbsg19
I3
sg22
(imyEvolve
Tree
p332
(dp333
g7
(imyEvolve
Tree
p334
(dp335
g7
(imyEvolve
Tree
p336
(dp337
g19
I0
sg20
F4.963102354681556
sg21
I01
sbsg19
I1
sg22
(imyEvolve
Tree
p338
(dp339
g19
I0
sg21
I00
sbsg25
I00
sg26
g27
sbsg19
I2
sg22
(imyEvolve
Tree
p340
(dp341
g12
(imyEvolve
Tree
p342
(dp343
g19
I0
sg21
I00
sbsg19
I1
sg25
I01
sg26
g43
sbsg25
I00
sg26
g44
sbsg25
I00
sg26
g44
sba(imyEvolve
Tree
p344
(dp345
g7
(imyEvolve
Tree
p346
(dp347
g7
(imyEvolve
Tree
p348
(dp349
g12
(imyEvolve
Tree
p350
(dp351
g19
I0
sg21
I00
sbsg19
I1
sg25
I01
sg26
g43
sbsg19
I2
sg22
(imyEvolve
Tree
p352
(dp353
g7
(imyEvolve
Tree
p354
(dp355
g19
I0
sg20
F4.1338905392528975
sg21
I01
sbsg19
I1
sg22
(imyEvolve
Tree
p356
(dp357
g19
I0
sg20
F-3.429864847490137
sg21
I01
sbsg25
I00
sg26
g44
sbsg25
I00
sg26
g27
sbsg19
I3
sg22
(imyEvolve
Tree
p358
(dp359
g7
(imyEvolve
Tree
p360
(dp361
g12
(imyEvolve
Tree
p362
(dp363
g19
I0
sg21
I00
sbsg19
I1
sg25
I01
sg26
g38
sbsg19
I2
sg22
(imyEvolve
Tree
p364
(dp365
g7
(imyEvolve
Tree
p366
(dp367
g19
I0
sg21
I00
sbsg19
I1
sg22
(imyEvolve
Tree
p368
(dp369
g19
I0
sg21
I00
sbsg25
I00
sg26
g27
sbsg25
I00
sg26
g27
sbsg25
I00
sg26
g57
sba(imyEvolve
Tree
p370
(dp371
g12
(imyEvolve
Tree
p372
(dp373
g7
(imyEvolve
Tree
p374
(dp375
g12
(imyEvolve
Tree
p376
(dp377
g12
(imyEvolve
Tree
p378
(dp379
g12
(imyEvolve
Tree
p380
(dp381
g19
I0
sg20
F2.323600104004817
sg21
I01
sbsg19
I1
sg25
I01
sg26
g38
sbsg19
I2
sg25
I01
sg26
g28
sbsg19
I3
sg25
I01
sg26
g43
sbsg19
I4
sg22
(imyEvolve
Tree
p382
(dp383
g12
(imyEvolve
Tree
p384
(dp385
g7
(imyEvolve
Tree
p386
(dp387
g7
(imyEvolve
Tree
p388
(dp389
g19
I0
sg21
I00
sbsg19
I1
sg22
(imyEvolve
Tree
p390
(dp391
g19
I0
sg20
F4.859813911713006
sg21
I01
sbsg25
I00
sg26
g27
sbsg19
I2
sg22
(imyEvolve
Tree
p392
(dp393
g7
(imyEvolve
Tree
p394
(dp395
g19
I0
sg21
I00
sbsg19
I1
sg22
(imyEvolve
Tree
p396
(dp397
g19
I0
sg21
I00
sbsg25
I00
sg26
g27
sbsg25
I00
sg26
g57
sbsg19
I3
sg25
I01
sg26
g43
sbsg25
I00
sg26
g44
sbsg19
I5
sg25
I01
sg26
g38
sbaa(lp398
(imyEvolve
Tree
p399
(dp400
g12
(imyEvolve
Tree
p401
(dp402
g7
(imyEvolve
Tree
p403
(dp404
g19
I0
sg20
F-4.845945771346235
sg21
I01
sbsg19
I1
sg22
(imyEvolve
Tree
p405
(dp406
g19
I0
sg20
F-2.649149601009241
sg21
I01
sbsg25
I00
sg26
g57
sbsg19
I2
sg25
I01
sg26
g38
sba(imyEvolve
Tree
p407
(dp408
g7
(imyEvolve
Tree
p409
(dp410
g12
(imyEvolve
Tree
p411
(dp412
g19
I0
sg20
F-1.2821020582512679
sg21
I01
sbsg19
I1
sg25
I01
sg26
g43
sbsg19
I2
sg22
(imyEvolve
Tree
p413
(dp414
g7
(imyEvolve
Tree
p415
(dp416
g19
I0
sg21
I00
sbsg19
I1
sg22
(imyEvolve
Tree
p417
(dp418
g19
I0
sg21
I00
sbsg25
I00
sg26
g57
sbsg25
I00
sg26
g44
sba(imyEvolve
Tree
p419
(dp420
g12
(imyEvolve
Tree
p421
(dp422
g12
(imyEvolve
Tree
p423
(dp424
g19
I3
sg7
(imyEvolve
Tree
p425
(dp426
g12
(imyEvolve
Tree
p427
(dp428
g12
(imyEvolve
Tree
p429
(dp430
g19
I0
sg20
F1.0473261215311531
sg21
I01
sbsg19
I1
sg25
I01
sg26
g38
sbsg19
I2
sg25
I01
sg26
g43
sbsg22
(imyEvolve
Tree
p431
(dp432
g12
(imyEvolve
Tree
p433
(dp434
g12
(imyEvolve
Tree
p435
(dp436
g19
I0
sg20
F0.6293544360213428
sg21
I01
sbsg19
I1
sg25
I01
sg26
g38
sbsg19
I2
sg25
I01
sg26
g29
sbsg25
I00
sg26
g44
sbsg19
I4
sg25
I01
sg26
g28
sbsg19
I5
sg25
I01
sg26
g28
sba(imyEvolve
Tree
p437
(dp438
g12
(imyEvolve
Tree
p439
(dp440
g12
(imyEvolve
Tree
p441
(dp442
g19
I0
sg20
F3.935054401414334
sg21
I01
sbsg19
I1
sg25
I01
sg26
g28
sbsg19
I2
sg25
I01
sg26
g29
sba(imyEvolve
Tree
p443
(dp444
g12
(imyEvolve
Tree
p445
(dp446
g7
(imyEvolve
Tree
p447
(dp448
g12
(imyEvolve
Tree
p449
(dp450
g19
I0
sg21
I00
sbsg19
I1
sg25
I01
sg26
g38
sbsg19
I2
sg22
(imyEvolve
Tree
p451
(dp452
g7
(imyEvolve
Tree
p453
(dp454
g19
I0
sg20
F-2.700757692288296
sg21
I01
sbsg19
I1
sg22
(imyEvolve
Tree
p455
(dp456
g19
I0
sg20
F-2.4673139301749893
sg21
I01
sbsg25
I00
sg26
g57
sbsg25
I00
sg26
g27
sbsg19
I3
sg25
I01
sg26
g43
sba(imyEvolve
Tree
p457
(dp458
g7
(imyEvolve
Tree
p459
(dp460
g7
(imyEvolve
Tree
p461
(dp462
g12
(imyEvolve
Tree
p463
(dp464
g7
(imyEvolve
Tree
p465
(dp466
g19
I0
sg21
I00
sbsg19
I1
sg22
(imyEvolve
Tree
p467
(dp468
g19
I0
sg21
I00
sbsg25
I00
sg26
g57
sbsg19
I2
sg25
I01
sg26
g38
sbsg19
I3
sg22
(imyEvolve
Tree
p469
(dp470
g7
(imyEvolve
Tree
p471
(dp472
g12
(imyEvolve
Tree
p473
(dp474
g19
I0
sg20
F4.497734608389969
sg21
I01
sbsg19
I1
sg25
I01
sg26
g28
sbsg19
I2
sg22
(imyEvolve
Tree
p475
(dp476
g7
(imyEvolve
Tree
p477
(dp478
g19
I0
sg20
F3.11461189347337
sg21
I01
sbsg19
I1
sg22
(imyEvolve
Tree
p479
(dp480
g19
I0
sg20
F-3.0537480652818747
sg21
I01
sbsg25
I00
sg26
g57
sbsg25
I00
sg26
g57
sbsg25
I00
sg26
g57
sbsg19
I4
sg22
(imyEvolve
Tree
p481
(dp482
g12
(imyEvolve
Tree
p483
(dp484
g12
(imyEvolve
Tree
p485
(dp486
g7
(imyEvolve
Tree
p487
(dp488
g19
I0
sg20
F1.9375955660859159
sg21
I01
sbsg19
I1
sg22
(imyEvolve
Tree
p489
(dp490
g19
I0
sg21
I00
sbsg25
I00
sg26
g57
sbsg19
I2
sg25
I01
sg26
g28
sbsg19
I3
sg25
I01
sg26
g43
sbsg25
I00
sg26
g27
sba(imyEvolve
Tree
p491
(dp492
g12
(imyEvolve
Tree
p493
(dp494
g12
(imyEvolve
Tree
p495
(dp496
g19
I0
sg21
I00
sbsg19
I1
sg25
I01
sg26
g29
sbsg19
I2
sg25
I01
sg26
g43
sba(imyEvolve
Tree
p497
(dp498
g7
(imyEvolve
Tree
p499
(dp500
g12
(imyEvolve
Tree
p501
(dp502
g7
(imyEvolve
Tree
p503
(dp504
g12
(imyEvolve
Tree
p505
(dp506
g19
I0
sg20
F-1.993995144124523
sg21
I01
sbsg19
I1
sg25
I01
sg26
g38
sbsg19
I2
sg22
(imyEvolve
Tree
p507
(dp508
g7
(imyEvolve
Tree
p509
(dp510
g19
I0
sg21
I00
sbsg19
I1
sg22
(imyEvolve
Tree
p511
(dp512
g19
I0
sg20
F-1.8928996244504734
sg21
I01
sbsg25
I00
sg26
g27
sbsg25
I00
sg26
g27
sbsg19
I3
sg25
I01
sg26
g43
sbsg19
I4
sg22
(imyEvolve
Tree
p513
(dp514
g7
(imyEvolve
Tree
p515
(dp516
g12
(imyEvolve
Tree
p517
(dp518
g12
(imyEvolve
Tree
p519
(dp520
g19
I0
sg21
I00
sbsg19
I1
sg25
I01
sg26
g43
sbsg19
I2
sg25
I01
sg26
g38
sbsg19
I3
sg22
(imyEvolve
Tree
p521
(dp522
g7
(imyEvolve
Tree
p523
(dp524
g7
(imyEvolve
Tree
p525
(dp526
g19
I0
sg20
F3.777299811553508
sg21
I01
sbsg19
I1
sg22
(imyEvolve
Tree
p527
(dp528
g19
I0
sg21
I00
sbsg25
I00
sg26
g27
sbsg19
I2
sg22
(imyEvolve
Tree
p529
(dp530
g7
(imyEvolve
Tree
p531
(dp532
g19
I0
sg20
F4.863781896011993
sg21
I01
sbsg19
I1
sg22
(imyEvolve
Tree
p533
(dp534
g19
I0
sg20
F2.366546521035514
sg21
I01
sbsg25
I00
sg26
g57
sbsg25
I00
sg26
g27
sbsg25
I00
sg26
g57
sbsg25
I00
sg26
g27
sba(imyEvolve
Tree
p535
(dp536
g12
(imyEvolve
Tree
p537
(dp538
g7
(imyEvolve
Tree
p539
(dp540
g7
(imyEvolve
Tree
p541
(dp542
g19
I0
sg21
I00
sbsg19
I1
sg22
(imyEvolve
Tree
p543
(dp544
g19
I0
sg21
I00
sbsg25
I00
sg26
g44
sbsg19
I2
sg22
(imyEvolve
Tree
p545
(dp546
g12
(imyEvolve
Tree
p547
(dp548
g19
I0
sg21
I00
sbsg19
I1
sg25
I01
sg26
g28
sbsg25
I00
sg26
g44
sbsg19
I3
sg25
I01
sg26
g29
sba(imyEvolve
Tree
p549
(dp550
g19
I4
sg7
(imyEvolve
Tree
p551
(dp552
g12
(imyEvolve
Tree
p553
(dp554
g19
I2
sg7
(imyEvolve
Tree
p555
(dp556
g12
(imyEvolve
Tree
p557
(dp558
g19
I0
sg20
F3.377031521299715
sg21
I01
sbsg19
I1
sg25
I01
sg26
g29
sbsg22
(imyEvolve
Tree
p559
(dp560
g12
(imyEvolve
Tree
p561
(dp562
g19
I0
sg21
I00
sbsg19
I1
sg25
I01
sg26
g43
sbsg25
I00
sg26
g57
sbsg19
I3
sg25
I01
sg26
g38
sbsg22
(imyEvolve
Tree
p563
(dp564
g19
I3
sg7
(imyEvolve
Tree
p565
(dp566
g12
(imyEvolve
Tree
p567
(dp568
g12
(imyEvolve
Tree
p569
(dp570
g19
I0
sg20
F2.5226553166263708
sg21
I01
sbsg19
I1
sg25
I01
sg26
g28
sbsg19
I2
sg25
I01
sg26
g29
sbsg22
(imyEvolve
Tree
p571
(dp572
g19
I2
sg7
(imyEvolve
Tree
p573
(dp574
g12
(imyEvolve
Tree
p575
(dp576
g19
I0
sg20
F-4.3395990675229354
sg21
I01
sbsg19
I1
sg25
I01
sg26
g29
sbsg22
(imyEvolve
Tree
p577
(dp578
g12
(imyEvolve
Tree
p579
(dp580
g19
I0
sg21
I00
sbsg19
I1
sg25
I01
sg26
g43
sbsg25
I00
sg26
g57
sbsg25
I00
sg26
g57
sbsg25
I00
sg26
g44
sba(imyEvolve
Tree
p581
(dp582
g7
(imyEvolve
Tree
p583
(dp584
g12
(imyEvolve
Tree
p585
(dp586
g12
(imyEvolve
Tree
p587
(dp588
g19
I0
sg20
F1.6929408264421202
sg21
I01
sbsg19
I1
sg25
I01
sg26
g28
sbsg19
I2
sg25
I01
sg26
g43
sbsg19
I3
sg22
(imyEvolve
Tree
p589
(dp590
g12
(imyEvolve
Tree
p591
(dp592
g12
(imyEvolve
Tree
p593
(dp594
g19
I0
sg20
F2.6007867663599926
sg21
I01
sbsg19
I1
sg25
I01
sg26
g38
sbsg19
I2
sg25
I01
sg26
g38
sbsg25
I00
sg26
g57
sba(imyEvolve
Tree
p595
(dp596
g12
(imyEvolve
Tree
p597
(dp598
g19
I2
sg7
(imyEvolve
Tree
p599
(dp600
g19
I1
sg7
(imyEvolve
Tree
p601
(dp602
g19
I0
sg21
I00
sbsg22
(imyEvolve
Tree
p603
(dp604
g19
I0
sg20
F-1.2311781957682832
sg21
I01
sbsg25
I00
sg26
g27
sbsg22
(imyEvolve
Tree
p605
(dp606
g19
I1
sg7
(imyEvolve
Tree
p607
(dp608
g19
I0
sg21
I00
sbsg22
(imyEvolve
Tree
p609
(dp610
g19
I0
sg21
I00
sbsg25
I00
sg26
g27
sbsg25
I00
sg26
g57
sbsg19
I3
sg25
I01
sg26
g38
sba(imyEvolve
Tree
p611
(dp612
g19
I4
sg7
(imyEvolve
Tree
p613
(dp614
g19
I3
sg7
(imyEvolve
Tree
p615
(dp616
g19
I2
sg7
(imyEvolve
Tree
p617
(dp618
g19
I1
sg7
(imyEvolve
Tree
p619
(dp620
g19
I0
sg20
F-3.944037010598821
sg21
I01
sbsg22
(imyEvolve
Tree
p621
(dp622
g19
I0
sg21
I00
sbsg25
I00
sg26
g27
sbsg22
(imyEvolve
Tree
p623
(dp624
g12
(imyEvolve
Tree
p625
(dp626
g19
I0
sg20
F1.1077097011430137
sg21
I01
sbsg19
I1
sg25
I01
sg26
g43
sbsg25
I00
sg26
g44
sbsg22
(imyEvolve
Tree
p627
(dp628
g12
(imyEvolve
Tree
p629
(dp630
g12
(imyEvolve
Tree
p631
(dp632
g19
I0
sg20
F-1.0808750339407802
sg21
I01
sbsg19
I1
sg25
I01
sg26
g29
sbsg19
I2
sg25
I01
sg26
g28
sbsg25
I00
sg26
g44
sbsg22
(imyEvolve
Tree
p633
(dp634
g12
(imyEvolve
Tree
p635
(dp636
g12
(imyEvolve
Tree
p637
(dp638
g12
(imyEvolve
Tree
p639
(dp640
g19
I0
sg21
I00
sbsg19
I1
sg25
I01
sg26
g29
sbsg19
I2
sg25
I01
sg26
g43
sbsg19
I3
sg25
I01
sg26
g28
sbsg25
I00
sg26
g57
sbaa(lp641
(imyEvolve
Tree
p642
(dp643
g7
(imyEvolve
Tree
p644
(dp645
g12
(imyEvolve
Tree
p646
(dp647
g12
(imyEvolve
Tree
p648
(dp649
g19
I0
sg21
I00
sbsg19
I1
sg25
I01
sg26
g29
sbsg19
I2
sg25
I01
sg26
g38
sbsg19
I3
sg22
(imyEvolve
Tree
p650
(dp651
g12
(imyEvolve
Tree
p652
(dp653
g7
(imyEvolve
Tree
p654
(dp655
g19
I0
sg20
F4.813068387450961
sg21
I01
sbsg19
I1
sg22
(imyEvolve
Tree
p656
(dp657
g19
I0
sg20
F-4.889974293189803
sg21
I01
sbsg25
I00
sg26
g44
sbsg19
I2
sg25
I01
sg26
g29
sbsg25
I00
sg26
g27
sba(imyEvolve
Tree
p658
(dp659
g7
(imyEvolve
Tree
p660
(dp661
g12
(imyEvolve
Tree
p662
(dp663
g12
(imyEvolve
Tree
p664
(dp665
g12
(imyEvolve
Tree
p666
(dp667
g19
I0
sg21
I00
sbsg19
I1
sg25
I01
sg26
g38
sbsg19
I2
sg25
I01
sg26
g28
sbsg19
I3
sg25
I01
sg26
g38
sbsg19
I4
sg22
(imyEvolve
Tree
p668
(dp669
g12
(imyEvolve
Tree
p670
(dp671
g12
(imyEvolve
Tree
p672
(dp673
g12
(imyEvolve
Tree
p674
(dp675
g19
I0
sg20
F-1.6407745224308767
sg21
I01
sbsg19
I1
sg25
I01
sg26
g38
sbsg19
I2
sg25
I01
sg26
g28
sbsg19
I3
sg25
I01
sg26
g43
sbsg25
I00
sg26
g27
sba(imyEvolve
Tree
p676
(dp677
g7
(imyEvolve
Tree
p678
(dp679
g7
(imyEvolve
Tree
p680
(dp681
g7
(imyEvolve
Tree
p682
(dp683
g12
(imyEvolve
Tree
p684
(dp685
g12
(imyEvolve
Tree
p686
(dp687
g19
I0
sg20
F-2.1235614659139546
sg21
I01
sbsg19
I1
sg25
I01
sg26
g38
sbsg19
I2
sg25
I01
sg26
g29
sbsg19
I3
sg22
(imyEvolve
Tree
p688
(dp689
g12
(imyEvolve
Tree
p690
(dp691
g12
(imyEvolve
Tree
p692
(dp693
g19
I0
sg21
I00
sbsg19
I1
sg25
I01
sg26
g29
sbsg19
I2
sg25
I01
sg26
g43
sbsg25
I00
sg26
g57
sbsg19
I4
sg22
(imyEvolve
Tree
p694
(dp695
g12
(imyEvolve
Tree
p696
(dp697
g12
(imyEvolve
Tree
p698
(dp699
g12
(imyEvolve
Tree
p700
(dp701
g19
I0
sg21
I00
sbsg19
I1
sg25
I01
sg26
g38
sbsg19
I2
sg25
I01
sg26
g29
sbsg19
I3
sg25
I01
sg26
g28
sbsg25
I00
sg26
g27
sbsg19
I5
sg22
(imyEvolve
Tree
p702
(dp703
g7
(imyEvolve
Tree
p704
(dp705
g7
(imyEvolve
Tree
p706
(dp707
g7
(imyEvolve
Tree
p708
(dp709
g12
(imyEvolve
Tree
p710
(dp711
g19
I0
sg21
I00
sbsg19
I1
sg25
I01
sg26
g38
sbsg19
I2
sg22
(imyEvolve
Tree
p712
(dp713
g12
(imyEvolve
Tree
p714
(dp715
g19
I0
sg20
F-3.0734475442883324
sg21
I01
sbsg19
I1
sg25
I01
sg26
g38
sbsg25
I00
sg26
g44
sbsg19
I3
sg22
(imyEvolve
Tree
p716
(dp717
g12
(imyEvolve
Tree
p718
(dp719
g7
(imyEvolve
Tree
p720
(dp721
g19
I0
sg20
F0.8065632869274166
sg21
I01
sbsg19
I1
sg22
(imyEvolve
Tree
p722
(dp723
g19
I0
sg21
I00
sbsg25
I00
sg26
g44
sbsg19
I2
sg25
I01
sg26
g43
sbsg25
I00
sg26
g27
sbsg19
I4
sg22
(imyEvolve
Tree
p724
(dp725
g12
(imyEvolve
Tree
p726
(dp727
g7
(imyEvolve
Tree
p728
(dp729
g7
(imyEvolve
Tree
p730
(dp731
g19
I0
sg21
I00
sbsg19
I1
sg22
(imyEvolve
Tree
p732
(dp733
g19
I0
sg20
F4.301154903072307
sg21
I01
sbsg25
I00
sg26
g44
sbsg19
I2
sg22
(imyEvolve
Tree
p734
(dp735
g7
(imyEvolve
Tree
p736
(dp737
g19
I0
sg21
I00
sbsg19
I1
sg22
(imyEvolve
Tree
p738
(dp739
g19
I0
sg20
F-2.009175406477004
sg21
I01
sbsg25
I00
sg26
g27
sbsg25
I00
sg26
g27
sbsg19
I3
sg25
I01
sg26
g29
sbsg25
I00
sg26
g44
sbsg25
I00
sg26
g27
sba(imyEvolve
Tree
p740
(dp741
g12
(imyEvolve
Tree
p742
(dp743
g12
(imyEvolve
Tree
p744
(dp745
g7
(imyEvolve
Tree
p746
(dp747
g12
(imyEvolve
Tree
p748
(dp749
g19
I0
sg20
F1.079034952624581
sg21
I01
sbsg19
I1
sg25
I01
sg26
g28
sbsg19
I2
sg22
(imyEvolve
Tree
p750
(dp751
g12
(imyEvolve
Tree
p752
(dp753
g19
I0
sg21
I00
sbsg19
I1
sg25
I01
sg26
g43
sbsg25
I00
sg26
g57
sbsg19
I3
sg25
I01
sg26
g28
sbsg19
I4
sg25
I01
sg26
g29
sba(imyEvolve
Tree
p754
(dp755
g12
(imyEvolve
Tree
p756
(dp757
g7
(imyEvolve
Tree
p758
(dp759
g7
(imyEvolve
Tree
p760
(dp761
g19
I0
sg20
F-0.1894346779309375
sg21
I01
sbsg19
I1
sg22
(imyEvolve
Tree
p762
(dp763
g19
I0
sg20
F-1.372944929387189
sg21
I01
sbsg25
I00
sg26
g44
sbsg19
I2
sg22
(imyEvolve
Tree
p764
(dp765
g12
(imyEvolve
Tree
p766
(dp767
g19
I0
sg20
F-4.510334855593234
sg21
I01
sbsg19
I1
sg25
I01
sg26
g43
sbsg25
I00
sg26
g27
sbsg19
I3
sg25
I01
sg26
g28
sba(imyEvolve
Tree
p768
(dp769
g12
(imyEvolve
Tree
p770
(dp771
g12
(imyEvolve
Tree
p772
(dp773
g12
(imyEvolve
Tree
p774
(dp775
g19
I0
sg20
F3.0164341110383184
sg21
I01
sbsg19
I1
sg25
I01
sg26
g28
sbsg19
I2
sg25
I01
sg26
g43
sbsg19
I3
sg25
I01
sg26
g29
sba(imyEvolve
Tree
p776
(dp777
g12
(imyEvolve
Tree
p778
(dp779
g7
(imyEvolve
Tree
p780
(dp781
g19
I0
sg20
F-0.26615797079395875
sg21
I01
sbsg19
I1
sg22
(imyEvolve
Tree
p782
(dp783
g19
I0
sg21
I00
sbsg25
I00
sg26
g27
sbsg19
I2
sg25
I01
sg26
g29
sba(imyEvolve
Tree
p784
(dp785
g12
(imyEvolve
Tree
p786
(dp787
g19
I4
sg7
(imyEvolve
Tree
p788
(dp789
g12
(imyEvolve
Tree
p790
(dp791
g12
(imyEvolve
Tree
p792
(dp793
g12
(imyEvolve
Tree
p794
(dp795
g19
I0
sg21
I00
sbsg19
I1
sg25
I01
sg26
g28
sbsg19
I2
sg25
I01
sg26
g28
sbsg19
I3
sg25
I01
sg26
g29
sbsg22
(imyEvolve
Tree
p796
(dp797
g12
(imyEvolve
Tree
p798
(dp799
g19
I2
sg7
(imyEvolve
Tree
p800
(dp801
g12
(imyEvolve
Tree
p802
(dp803
g19
I0
sg20
F-2.599109090049214
sg21
I01
sbsg19
I1
sg25
I01
sg26
g28
sbsg22
(imyEvolve
Tree
p804
(dp805
g12
(imyEvolve
Tree
p806
(dp807
g19
I0
sg20
F-0.8984998444571897
sg21
I01
sbsg19
I1
sg25
I01
sg26
g38
sbsg25
I00
sg26
g27
sbsg19
I3
sg25
I01
sg26
g29
sbsg25
I00
sg26
g27
sbsg19
I5
sg25
I01
sg26
g28
sba(imyEvolve
Tree
p808
(dp809
g7
(imyEvolve
Tree
p810
(dp811
g7
(imyEvolve
Tree
p812
(dp813
g12
(imyEvolve
Tree
p814
(dp815
g12
(imyEvolve
Tree
p816
(dp817
g19
I0
sg21
I00
sbsg19
I1
sg25
I01
sg26
g43
sbsg19
I2
sg25
I01
sg26
g28
sbsg19
I3
sg22
(imyEvolve
Tree
p818
(dp819
g7
(imyEvolve
Tree
p820
(dp821
g12
(imyEvolve
Tree
p822
(dp823
g19
I0
sg21
I00
sbsg19
I1
sg25
I01
sg26
g38
sbsg19
I2
sg22
(imyEvolve
Tree
p824
(dp825
g7
(imyEvolve
Tree
p826
(dp827
g19
I0
sg20
F0.5166643911859676
sg21
I01
sbsg19
I1
sg22
(imyEvolve
Tree
p828
(dp829
g19
I0
sg20
F2.545024982440367
sg21
I01
sbsg25
I00
sg26
g27
sbsg25
I00
sg26
g57
sbsg25
I00
sg26
g27
sbsg19
I4
sg22
(imyEvolve
Tree
p830
(dp831
g12
(imyEvolve
Tree
p832
(dp833
g7
(imyEvolve
Tree
p834
(dp835
g7
(imyEvolve
Tree
p836
(dp837
g19
I0
sg20
F3.0789206330565637
sg21
I01
sbsg19
I1
sg22
(imyEvolve
Tree
p838
(dp839
g19
I0
sg20
F0.5934033040547746
sg21
I01
sbsg25
I00
sg26
g27
sbsg19
I2
sg22
(imyEvolve
Tree
p840
(dp841
g12
(imyEvolve
Tree
p842
(dp843
g19
I0
sg21
I00
sbsg19
I1
sg25
I01
sg26
g29
sbsg25
I00
sg26
g27
sbsg19
I3
sg25
I01
sg26
g29
sbsg25
I00
sg26
g27
sba(imyEvolve
Tree
p844
(dp845
g12
(imyEvolve
Tree
p846
(dp847
g19
I4
sg7
(imyEvolve
Tree
p848
(dp849
g12
(imyEvolve
Tree
p850
(dp851
g19
I2
sg7
(imyEvolve
Tree
p852
(dp853
g19
I1
sg7
(imyEvolve
Tree
p854
(dp855
g19
I0
sg21
I00
sbsg22
(imyEvolve
Tree
p856
(dp857
g19
I0
sg20
F-1.5801395134360083
sg21
I01
sbsg25
I00
sg26
g44
sbsg22
(imyEvolve
Tree
p858
(dp859
g19
I1
sg7
(imyEvolve
Tree
p860
(dp861
g19
I0
sg21
I00
sbsg22
(imyEvolve
Tree
p862
(dp863
g19
I0
sg21
I00
sbsg25
I00
sg26
g57
sbsg25
I00
sg26
g44
sbsg19
I3
sg25
I01
sg26
g29
sbsg22
(imyEvolve
Tree
p864
(dp865
g12
(imyEvolve
Tree
p866
(dp867
g12
(imyEvolve
Tree
p868
(dp869
g19
I1
sg7
(imyEvolve
Tree
p870
(dp871
g19
I0
sg20
F-1.2072249805892268
sg21
I01
sbsg22
(imyEvolve
Tree
p872
(dp873
g19
I0
sg21
I00
sbsg25
I00
sg26
g57
sbsg19
I2
sg25
I01
sg26
g43
sbsg19
I3
sg25
I01
sg26
g29
sbsg25
I00
sg26
g27
sbsg19
I5
sg25
I01
sg26
g38
sba(imyEvolve
Tree
p874
(dp875
g12
(imyEvolve
Tree
p876
(dp877
g19
I3
sg7
(imyEvolve
Tree
p878
(dp879
g12
(imyEvolve
Tree
p880
(dp881
g12
(imyEvolve
Tree
p882
(dp883
g19
I0
sg20
F-4.462825803918121
sg21
I01
sbsg19
I1
sg25
I01
sg26
g29
sbsg19
I2
sg25
I01
sg26
g38
sbsg22
(imyEvolve
Tree
p884
(dp885
g12
(imyEvolve
Tree
p886
(dp887
g19
I1
sg7
(imyEvolve
Tree
p888
(dp889
g19
I0
sg21
I00
sbsg22
(imyEvolve
Tree
p890
(dp891
g19
I0
sg21
I00
sbsg25
I00
sg26
g57
sbsg19
I2
sg25
I01
sg26
g43
sbsg25
I00
sg26
g57
sbsg19
I4
sg25
I01
sg26
g29
sba(imyEvolve
Tree
p892
(dp893
g19
I5
sg7
(imyEvolve
Tree
p894
(dp895
g19
I4
sg7
(imyEvolve
Tree
p896
(dp897
g12
(imyEvolve
Tree
p898
(dp899
g12
(imyEvolve
Tree
p900
(dp901
g19
I1
sg7
(imyEvolve
Tree
p902
(dp903
g19
I0
sg20
F1.7637523442845806
sg21
I01
sbsg22
(imyEvolve
Tree
p904
(dp905
g19
I0
sg20
F2.6590095325334477
sg21
I01
sbsg25
I00
sg26
g44
sbsg19
I2
sg25
I01
sg26
g38
sbsg19
I3
sg25
I01
sg26
g29
sbsg22
(imyEvolve
Tree
p906
(dp907
g19
I3
sg7
(imyEvolve
Tree
p908
(dp909
g19
I2
sg7
(imyEvolve
Tree
p910
(dp911
g19
I1
sg7
(imyEvolve
Tree
p912
(dp913
g19
I0
sg21
I00
sbsg22
(imyEvolve
Tree
p914
(dp915
g19
I0
sg21
I00
sbsg25
I00
sg26
g44
sbsg22
(imyEvolve
Tree
p916
(dp917
g19
I1
sg7
(imyEvolve
Tree
p918
(dp919
g19
I0
sg21
I00
sbsg22
(imyEvolve
Tree
p920
(dp921
g19
I0
sg21
I00
sbsg25
I00
sg26
g44
sbsg25
I00
sg26
g57
sbsg22
(imyEvolve
Tree
p922
(dp923
g19
I2
sg7
(imyEvolve
Tree
p924
(dp925
g19
I1
sg7
(imyEvolve
Tree
p926
(dp927
g19
I0
sg20
F-2.487320043124708
sg21
I01
sbsg22
(imyEvolve
Tree
p928
(dp929
g19
I0
sg20
F3.627759056947461
sg21
I01
sbsg25
I00
sg26
g27
sbsg22
(imyEvolve
Tree
p930
(dp931
g12
(imyEvolve
Tree
p932
(dp933
g19
I0
sg20
F-4.939475206779447
sg21
I01
sbsg19
I1
sg25
I01
sg26
g38
sbsg25
I00
sg26
g57
sbsg25
I00
sg26
g57
sbsg25
I00
sg26
g57
sbsg22
(imyEvolve
Tree
p934
(dp935
g12
(imyEvolve
Tree
p936
(dp937
g19
I3
sg7
(imyEvolve
Tree
p938
(dp939
g19
I2
sg7
(imyEvolve
Tree
p940
(dp941
g19
I1
sg7
(imyEvolve
Tree
p942
(dp943
g19
I0
sg20
F-1.8906160506460012
sg21
I01
sbsg22
(imyEvolve
Tree
p944
(dp945
g19
I0
sg20
F-1.9283227167120387
sg21
I01
sbsg25
I00
sg26
g27
sbsg22
(imyEvolve
Tree
p946
(dp947
g19
I1
sg7
(imyEvolve
Tree
p948
(dp949
g19
I0
sg21
I00
sbsg22
(imyEvolve
Tree
p950
(dp951
g19
I0
sg21
I00
sbsg25
I00
sg26
g57
sbsg25
I00
sg26
g44
sbsg22
(imyEvolve
Tree
p952
(dp953
g12
(imyEvolve
Tree
p954
(dp955
g19
I1
sg7
(imyEvolve
Tree
p956
(dp957
g19
I0
sg21
I00
sbsg22
(imyEvolve
Tree
p958
(dp959
g19
I0
sg21
I00
sbsg25
I00
sg26
g27
sbsg19
I2
sg25
I01
sg26
g29
sbsg25
I00
sg26
g57
sbsg19
I4
sg25
I01
sg26
g38
sbsg25
I00
sg26
g57
sba(imyEvolve
Tree
p960
(dp961
g12
(imyEvolve
Tree
p962
(dp963
g12
(imyEvolve
Tree
p964
(dp965
g19
I2
sg7
(imyEvolve
Tree
p966
(dp967
g12
(imyEvolve
Tree
p968
(dp969
g19
I0
sg21
I00
sbsg19
I1
sg25
I01
sg26
g43
sbsg22
(imyEvolve
Tree
p970
(dp971
g12
(imyEvolve
Tree
p972
(dp973
g19
I0
sg20
F-0.45694512986323765
sg21
I01
sbsg19
I1
sg25
I01
sg26
g43
sbsg25
I00
sg26
g27
sbsg19
I3
sg25
I01
sg26
g28
sbsg19
I4
sg25
I01
sg26
g28
sba(imyEvolve
Tree
p974
(dp975
g12
(imyEvolve
Tree
p976
(dp977
g12
(imyEvolve
Tree
p978
(dp979
g7
(imyEvolve
Tree
p980
(dp981
g19
I0
sg20
F-0.3723743554197121
sg21
I01
sbsg19
I1
sg22
(imyEvolve
Tree
p982
(dp983
g19
I0
sg20
F-3.974977288558379
sg21
I01
sbsg25
I00
sg26
g57
sbsg19
I2
sg25
I01
sg26
g43
sbsg19
I3
sg25
I01
sg26
g38
sba(imyEvolve
Tree
p984
(dp985
g12
(imyEvolve
Tree
p986
(dp987
g19
I2
sg7
(imyEvolve
Tree
p988
(dp989
g12
(imyEvolve
Tree
p990
(dp991
g19
I0
sg20
F2.6778478964434536
sg21
I01
sbsg19
I1
sg25
I01
sg26
g29
sbsg22
(imyEvolve
Tree
p992
(dp993
g12
(imyEvolve
Tree
p994
(dp995
g19
I0
sg21
I00
sbsg19
I1
sg25
I01
sg26
g43
sbsg25
I00
sg26
g27
sbsg19
I3
sg25
I01
sg26
g29
sbaasS'alpha'
p996
F0.0012068478921166473
sS'fitness'
p997
cnumpy.core.multiarray
scalar
p998
(cnumpy
dtype
p999
(S'f8'
p1000
I0
I1
tp1001
Rp1002
(I3
S'<'
p1003
NNNI-1
I-1
I0
tp1004
bS'\xa1\xf81,<\x1e\xe6?'
p1005
tp1006
Rp1007
sS'weightSharing'
p1008
(lp1009
I01
asS'fitnessValid'
p1010
I00
sS'resolution'
p1011
I81
sb.