(imyEvolve
Individual
p0
(dp1
S'funcs'
p2
(lp3
(lp4
(imyEvolve
Tree
p5
(dp6
S'left'
p7
(imyEvolve
Tree
p8
(dp9
g7
(imyEvolve
Tree
p10
(dp11
S'below'
p12
(imyEvolve
Tree
p13
(dp14
g12
(imyEvolve
Tree
p15
(dp16
g7
(imyEvolve
Tree
p17
(dp18
S'depth'
p19
I0
sS'constant'
p20
F-0.820905403248271
sS'isConstant'
p21
I01
sbsg19
I1
sS'right'
p22
(imyEvolve
Tree
p23
(dp24
g19
I0
sg21
I00
sbsS'single'
p25
I00
sS'op'
p26
coperator
sub
p27
sbsg19
I2
sg25
I01
sg26
cmyEvolve
absSqrt
p28
sbsg19
I3
sg25
I01
sg26
cmath
cos
p29
sbsg19
I4
sg22
(imyEvolve
Tree
p30
(dp31
g12
(imyEvolve
Tree
p32
(dp33
g7
(imyEvolve
Tree
p34
(dp35
g12
(imyEvolve
Tree
p36
(dp37
g19
I0
sg20
F-2.4024472704446556
sg21
I01
sbsg19
I1
sg25
I01
sg26
cmyEvolve
square
p38
sbsg19
I2
sg22
(imyEvolve
Tree
p39
(dp40
g12
(imyEvolve
Tree
p41
(dp42
g19
I0
sg20
F-2.266019131571423
sg21
I01
sbsg19
I1
sg25
I01
sg26
cmath
sin
p43
sbsg25
I00
sg26
coperator
add
p44
sbsg19
I3
sg25
I01
sg26
g43
sbsg25
I00
sg26
g27
sbsg19
I5
sg22
(imyEvolve
Tree
p45
(dp46
g12
(imyEvolve
Tree
p47
(dp48
g7
(imyEvolve
Tree
p49
(dp50
g12
(imyEvolve
Tree
p51
(dp52
g7
(imyEvolve
Tree
p53
(dp54
g19
I0
sg21
I00
sbsg19
I1
sg22
(imyEvolve
Tree
p55
(dp56
g19
I0
sg20
F-4.478477798029309
sg21
I01
sbsg25
I00
sg26
coperator
mul
p57
sbsg19
I2
sg25
I01
sg26
g38
sbsg19
I3
sg22
(imyEvolve
Tree
p58
(dp59
g12
(imyEvolve
Tree
p60
(dp61
g7
(imyEvolve
Tree
p62
(dp63
g19
I0
sg20
F1.3568793180248306
sg21
I01
sbsg19
I1
sg22
(imyEvolve
Tree
p64
(dp65
g19
I0
sg20
F0.06625150833711224
sg21
I01
sbsg25
I00
sg26
g27
sbsg19
I2
sg25
I01
sg26
g43
sbsg25
I00
sg26
g27
sbsg19
I4
sg25
I01
sg26
g43
sbsg25
I00
sg26
g57
sba(imyEvolve
Tree
p66
(dp67
g7
(imyEvolve
Tree
p68
(dp69
g12
(imyEvolve
Tree
p70
(dp71
g7
(imyEvolve
Tree
p72
(dp73
g19
I0
sg20
F0.23403116206035524
sg21
I01
sbsg19
I1
sg22
(imyEvolve
Tree
p74
(dp75
g19
I0
sg21
I00
sbsg25
I00
sg26
g27
sbsg19
I2
sg25
I01
sg26
g38
sbsg19
I3
sg22
(imyEvolve
Tree
p76
(dp77
g7
(imyEvolve
Tree
p78
(dp79
g7
(imyEvolve
Tree
p80
(dp81
g19
I0
sg20
F3.5569515997570402
sg21
I01
sbsg19
I1
sg22
(imyEvolve
Tree
p82
(dp83
g19
I0
sg20
F2.219843764454441
sg21
I01
sbsg25
I00
sg26
g57
sbsg19
I2
sg22
(imyEvolve
Tree
p84
(dp85
g12
(imyEvolve
Tree
p86
(dp87
g19
I0
sg21
I00
sbsg19
I1
sg25
I01
sg26
g43
sbsg25
I00
sg26
g44
sbsg25
I00
sg26
g27
sba(imyEvolve
Tree
p88
(dp89
g19
I4
sg7
(imyEvolve
Tree
p90
(dp91
g12
(imyEvolve
Tree
p92
(dp93
g19
I2
sg7
(imyEvolve
Tree
p94
(dp95
g12
(imyEvolve
Tree
p96
(dp97
g19
I0
sg20
F1.808406351550321
sg21
I01
sbsg19
I1
sg25
I01
sg26
g28
sbsg22
(imyEvolve
Tree
p98
(dp99
g12
(imyEvolve
Tree
p100
(dp101
g19
I0
sg21
I00
sbsg19
I1
sg25
I01
sg26
g28
sbsg25
I00
sg26
g27
sbsg19
I3
sg25
I01
sg26
g43
sbsg22
(imyEvolve
Tree
p102
(dp103
g19
I3
sg7
(imyEvolve
Tree
p104
(dp105
g12
(imyEvolve
Tree
p106
(dp107
g19
I1
sg7
(imyEvolve
Tree
p108
(dp109
g19
I0
sg20
F3.384554146819074
sg21
I01
sbsg22
(imyEvolve
Tree
p110
(dp111
g19
I0
sg20
F4.015950818632065
sg21
I01
sbsg25
I00
sg26
g57
sbsg19
I2
sg25
I01
sg26
g38
sbsg22
(imyEvolve
Tree
p112
(dp113
g12
(imyEvolve
Tree
p114
(dp115
g12
(imyEvolve
Tree
p116
(dp117
g19
I0
sg21
I00
sbsg19
I1
sg25
I01
sg26
g38
sbsg19
I2
sg25
I01
sg26
g43
sbsg25
I00
sg26
g27
sbsg25
I00
sg26
g57
sba(imyEvolve
Tree
p118
(dp119
g12
(imyEvolve
Tree
p120
(dp121
g12
(imyEvolve
Tree
p122
(dp123
g19
I3
sg7
(imyEvolve
Tree
p124
(dp125
g12
(imyEvolve
Tree
p126
(dp127
g19
I1
sg7
(imyEvolve
Tree
p128
(dp129
g19
I0
sg20
F1.9899728970266306
sg21
I01
sbsg22
(imyEvolve
Tree
p130
(dp131
g19
I0
sg20
F-0.10465409608689669
sg21
I01
sbsg25
I00
sg26
g57
sbsg19
I2
sg25
I01
sg26
g38
sbsg22
(imyEvolve
Tree
p132
(dp133
g12
(imyEvolve
Tree
p134
(dp135
g19
I1
sg7
(imyEvolve
Tree
p136
(dp137
g19
I0
sg21
I00
sbsg22
(imyEvolve
Tree
p138
(dp139
g19
I0
sg21
I00
sbsg25
I00
sg26
g57
sbsg19
I2
sg25
I01
sg26
g43
sbsg25
I00
sg26
g44
sbsg19
I4
sg25
I01
sg26
g43
sbsg19
I5
sg25
I01
sg26
g28
sba(imyEvolve
Tree
p140
(dp141
g12
(imyEvolve
Tree
p142
(dp143
g7
(imyEvolve
Tree
p144
(dp145
g7
(imyEvolve
Tree
p146
(dp147
g19
I0
sg21
I00
sbsg19
I1
sg22
(imyEvolve
Tree
p148
(dp149
g19
I0
sg21
I00
sbsg25
I00
sg26
g57
sbsg19
I2
sg22
(imyEvolve
Tree
p150
(dp151
g7
(imyEvolve
Tree
p152
(dp153
g19
I0
sg20
F0.9827745072408769
sg21
I01
sbsg19
I1
sg22
(imyEvolve
Tree
p154
(dp155
g19
I0
sg20
F-4.647679124196761
sg21
I01
sbsg25
I00
sg26
g57
sbsg25
I00
sg26
g44
sbsg19
I3
sg25
I01
sg26
g43
sba(imyEvolve
Tree
p156
(dp157
g12
(imyEvolve
Tree
p158
(dp159
g19
I2
sg7
(imyEvolve
Tree
p160
(dp161
g12
(imyEvolve
Tree
p162
(dp163
g19
I0
sg20
F-1.0426056996262423
sg21
I01
sbsg19
I1
sg25
I01
sg26
g43
sbsg22
(imyEvolve
Tree
p164
(dp165
g19
I1
sg7
(imyEvolve
Tree
p166
(dp167
g19
I0
sg21
I00
sbsg22
(imyEvolve
Tree
p168
(dp169
g19
I0
sg21
I00
sbsg25
I00
sg26
g27
sbsg25
I00
sg26
g27
sbsg19
I3
sg25
I01
sg26
g29
sba(imyEvolve
Tree
p170
(dp171
g12
(imyEvolve
Tree
p172
(dp173
g7
(imyEvolve
Tree
p174
(dp175
g19
I0
sg20
F0.7333504045363748
sg21
I01
sbsg19
I1
sg22
(imyEvolve
Tree
p176
(dp177
g19
I0
sg21
I00
sbsg25
I00
sg26
g57
sbsg19
I2
sg25
I01
sg26
g28
sba(imyEvolve
Tree
p178
(dp179
g12
(imyEvolve
Tree
p180
(dp181
g12
(imyEvolve
Tree
p182
(dp183
g12
(imyEvolve
Tree
p184
(dp185
g7
(imyEvolve
Tree
p186
(dp187
g12
(imyEvolve
Tree
p188
(dp189
g19
I0
sg20
F-1.5266529772187711
sg21
I01
sbsg19
I1
sg25
I01
sg26
g29
sbsg19
I2
sg22
(imyEvolve
Tree
p190
(dp191
g7
(imyEvolve
Tree
p192
(dp193
g19
I0
sg20
F2.490962801265403
sg21
I01
sbsg19
I1
sg22
(imyEvolve
Tree
p194
(dp195
g19
I0
sg21
I00
sbsg25
I00
sg26
g27
sbsg25
I00
sg26
g44
sbsg19
I3
sg25
I01
sg26
g43
sbsg19
I4
sg25
I01
sg26
g28
sbsg19
I5
sg25
I01
sg26
g28
sba(imyEvolve
Tree
p196
(dp197
g12
(imyEvolve
Tree
p198
(dp199
g12
(imyEvolve
Tree
p200
(dp201
g7
(imyEvolve
Tree
p202
(dp203
g19
I0
sg21
I00
sbsg19
I1
sg22
(imyEvolve
Tree
p204
(dp205
g19
I0
sg20
F0.12237748139200111
sg21
I01
sbsg25
I00
sg26
g57
sbsg19
I2
sg25
I01
sg26
g43
sbsg19
I3
sg25
I01
sg26
g28
sba(imyEvolve
Tree
p206
(dp207
g7
(imyEvolve
Tree
p208
(dp209
g7
(imyEvolve
Tree
p210
(dp211
g7
(imyEvolve
Tree
p212
(dp213
g7
(imyEvolve
Tree
p214
(dp215
g12
(imyEvolve
Tree
p216
(dp217
g19
I0
sg21
I00
sbsg19
I1
sg25
I01
sg26
g28
sbsg19
I2
sg22
(imyEvolve
Tree
p218
(dp219
g7
(imyEvolve
Tree
p220
(dp221
g19
I0
sg20
F3.24573270997651
sg21
I01
sbsg19
I1
sg22
(imyEvolve
Tree
p222
(dp223
g19
I0
sg21
I00
sbsg25
I00
sg26
g57
sbsg25
I00
sg26
g57
sbsg19
I3
sg22
(imyEvolve
Tree
p224
(dp225
g12
(imyEvolve
Tree
p226
(dp227
g12
(imyEvolve
Tree
p228
(dp229
g19
I0
sg21
I00
sbsg19
I1
sg25
I01
sg26
g28
sbsg19
I2
sg25
I01
sg26
g29
sbsg25
I00
sg26
g57
sbsg19
I4
sg22
(imyEvolve
Tree
p230
(dp231
g12
(imyEvolve
Tree
p232
(dp233
g12
(imyEvolve
Tree
p234
(dp235
g7
(imyEvolve
Tree
p236
(dp237
g19
I0
sg21
I00
sbsg19
I1
sg22
(imyEvolve
Tree
p238
(dp239
g19
I0
sg21
I00
sbsg25
I00
sg26
g57
sbsg19
I2
sg25
I01
sg26
g29
sbsg19
I3
sg25
I01
sg26
g38
sbsg25
I00
sg26
g44
sbsg19
I5
sg22
(imyEvolve
Tree
p240
(dp241
g7
(imyEvolve
Tree
p242
(dp243
g7
(imyEvolve
Tree
p244
(dp245
g12
(imyEvolve
Tree
p246
(dp247
g12
(imyEvolve
Tree
p248
(dp249
g19
I0
sg21
I00
sbsg19
I1
sg25
I01
sg26
g38
sbsg19
I2
sg25
I01
sg26
g38
sbsg19
I3
sg22
(imyEvolve
Tree
p250
(dp251
g7
(imyEvolve
Tree
p252
(dp253
g12
(imyEvolve
Tree
p254
(dp255
g19
I0
sg21
I00
sbsg19
I1
sg25
I01
sg26
g38
sbsg19
I2
sg22
(imyEvolve
Tree
p256
(dp257
g7
(imyEvolve
Tree
p258
(dp259
g19
I0
sg20
F-4.3509255633618515
sg21
I01
sbsg19
I1
sg22
(imyEvolve
Tree
p260
(dp261
g19
I0
sg20
F1.2824754600024848
sg21
I01
sbsg25
I00
sg26
g27
sbsg25
I00
sg26
g57
sbsg25
I00
sg26
g57
sbsg19
I4
sg22
(imyEvolve
Tree
p262
(dp263
g7
(imyEvolve
Tree
p264
(dp265
g12
(imyEvolve
Tree
p266
(dp267
g12
(imyEvolve
Tree
p268
(dp269
g19
I0
sg20
F-4.185139649671111
sg21
I01
sbsg19
I1
sg25
I01
sg26
g28
sbsg19
I2
sg25
I01
sg26
g29
sbsg19
I3
sg22
(imyEvolve
Tree
p270
(dp271
g12
(imyEvolve
Tree
p272
(dp273
g7
(imyEvolve
Tree
p274
(dp275
g19
I0
sg21
I00
sbsg19
I1
sg22
(imyEvolve
Tree
p276
(dp277
g19
I0
sg21
I00
sbsg25
I00
sg26
g27
sbsg19
I2
sg25
I01
sg26
g38
sbsg25
I00
sg26
g57
sbsg25
I00
sg26
g57
sbsg25
I00
sg26
g57
sba(imyEvolve
Tree
p278
(dp279
g12
(imyEvolve
Tree
p280
(dp281
g12
(imyEvolve
Tree
p282
(dp283
g7
(imyEvolve
Tree
p284
(dp285
g19
I0
sg21
I00
sbsg19
I1
sg22
(imyEvolve
Tree
p286
(dp287
g19
I0
sg20
F3.994219386937745
sg21
I01
sbsg25
I00
sg26
g27
sbsg19
I2
sg25
I01
sg26
g43
sbsg19
I3
sg25
I01
sg26
g38
sba(imyEvolve
Tree
p288
(dp289
g7
(imyEvolve
Tree
p290
(dp291
g7
(imyEvolve
Tree
p292
(dp293
g7
(imyEvolve
Tree
p294
(dp295
g12
(imyEvolve
Tree
p296
(dp297
g19
I0
sg20
F-2.540485090379707
sg21
I01
sbsg19
I1
sg25
I01
sg26
g28
sbsg19
I2
sg22
(imyEvolve
Tree
p298
(dp299
g12
(imyEvolve
Tree
p300
(dp301
g19
I0
sg20
F-1.4904376319115045
sg21
I01
sbsg19
I1
sg25
I01
sg26
g43
sbsg25
I00
sg26
g44
sbsg19
I3
sg22
(imyEvolve
Tree
p302
(dp303
g12
(imyEvolve
Tree
p304
(dp305
g7
(imyEvolve
Tree
p306
(dp307
g19
I0
sg21
I00
sbsg19
I1
sg22
(imyEvolve
Tree
p308
(dp309
g19
I0
sg20
F-2.2459016666025944
sg21
I01
sbsg25
I00
sg26
g44
sbsg19
I2
sg25
I01
sg26
g43
sbsg25
I00
sg26
g57
sbsg19
I4
sg22
(imyEvolve
Tree
p310
(dp311
g12
(imyEvolve
Tree
p312
(dp313
g12
(imyEvolve
Tree
p314
(dp315
g12
(imyEvolve
Tree
p316
(dp317
g19
I0
sg20
F-2.8656185528392273
sg21
I01
sbsg19
I1
sg25
I01
sg26
g43
sbsg19
I2
sg25
I01
sg26
g43
sbsg19
I3
sg25
I01
sg26
g29
sbsg25
I00
sg26
g27
sba(imyEvolve
Tree
p318
(dp319
g12
(imyEvolve
Tree
p320
(dp321
g7
(imyEvolve
Tree
p322
(dp323
g12
(imyEvolve
Tree
p324
(dp325
g7
(imyEvolve
Tree
p326
(dp327
g19
I0
sg20
F3.7580148290723816
sg21
I01
sbsg19
I1
sg22
(imyEvolve
Tree
p328
(dp329
g19
I0
sg21
I00
sbsg25
I00
sg26
g44
sbsg19
I2
sg25
I01
sg26
g28
sbsg19
I3
sg22
(imyEvolve
Tree
p330
(dp331
g7
(imyEvolve
Tree
p332
(dp333
g7
(imyEvolve
Tree
p334
(dp335
g19
I0
sg21
I00
sbsg19
I1
sg22
(imyEvolve
Tree
p336
(dp337
g19
I0
sg20
F4.258500687547135
sg21
I01
sbsg25
I00
sg26
g27
sbsg19
I2
sg22
(imyEvolve
Tree
p338
(dp339
g12
(imyEvolve
Tree
p340
(dp341
g19
I0
sg21
I00
sbsg19
I1
sg25
I01
sg26
g43
sbsg25
I00
sg26
g44
sbsg25
I00
sg26
g44
sbsg19
I4
sg25
I01
sg26
g43
sba(imyEvolve
Tree
p342
(dp343
g12
(imyEvolve
Tree
p344
(dp345
g12
(imyEvolve
Tree
p346
(dp347
g7
(imyEvolve
Tree
p348
(dp349
g12
(imyEvolve
Tree
p350
(dp351
g12
(imyEvolve
Tree
p352
(dp353
g19
I0
sg21
I00
sbsg19
I1
sg25
I01
sg26
g43
sbsg19
I2
sg25
I01
sg26
g38
sbsg19
I3
sg22
(imyEvolve
Tree
p354
(dp355
g7
(imyEvolve
Tree
p356
(dp357
g12
(imyEvolve
Tree
p358
(dp359
g19
I0
sg20
F-4.496614673175651
sg21
I01
sbsg19
I1
sg25
I01
sg26
g28
sbsg19
I2
sg22
(imyEvolve
Tree
p360
(dp361
g12
(imyEvolve
Tree
p362
(dp363
g19
I0
sg21
I00
sbsg19
I1
sg25
I01
sg26
g28
sbsg25
I00
sg26
g27
sbsg25
I00
sg26
g44
sbsg19
I4
sg25
I01
sg26
g43
sbsg19
I5
sg25
I01
sg26
g28
sba(imyEvolve
Tree
p364
(dp365
g7
(imyEvolve
Tree
p366
(dp367
g7
(imyEvolve
Tree
p368
(dp369
g12
(imyEvolve
Tree
p370
(dp371
g7
(imyEvolve
Tree
p372
(dp373
g12
(imyEvolve
Tree
p374
(dp375
g19
I0
sg21
I00
sbsg19
I1
sg25
I01
sg26
g29
sbsg19
I2
sg22
(imyEvolve
Tree
p376
(dp377
g7
(imyEvolve
Tree
p378
(dp379
g19
I0
sg20
F-0.32993897016716645
sg21
I01
sbsg19
I1
sg22
(imyEvolve
Tree
p380
(dp381
g19
I0
sg20
F-2.76741041531153
sg21
I01
sbsg25
I00
sg26
g44
sbsg25
I00
sg26
g44
sbsg19
I3
sg25
I01
sg26
g29
sbsg19
I4
sg22
(imyEvolve
Tree
p382
(dp383
g7
(imyEvolve
Tree
p384
(dp385
g12
(imyEvolve
Tree
p386
(dp387
g12
(imyEvolve
Tree
p388
(dp389
g19
I0
sg21
I00
sbsg19
I1
sg25
I01
sg26
g28
sbsg19
I2
sg25
I01
sg26
g28
sbsg19
I3
sg22
(imyEvolve
Tree
p390
(dp391
g12
(imyEvolve
Tree
p392
(dp393
g12
(imyEvolve
Tree
p394
(dp395
g19
I0
sg20
F0.6165397513670925
sg21
I01
sbsg19
I1
sg25
I01
sg26
g43
sbsg19
I2
sg25
I01
sg26
g28
sbsg25
I00
sg26
g44
sbsg25
I00
sg26
g57
sbsg19
I5
sg22
(imyEvolve
Tree
p396
(dp397
g7
(imyEvolve
Tree
p398
(dp399
g12
(imyEvolve
Tree
p400
(dp401
g7
(imyEvolve
Tree
p402
(dp403
g7
(imyEvolve
Tree
p404
(dp405
g19
I0
sg20
F1.1722639674977833
sg21
I01
sbsg19
I1
sg22
(imyEvolve
Tree
p406
(dp407
g19
I0
sg21
I00
sbsg25
I00
sg26
g27
sbsg19
I2
sg22
(imyEvolve
Tree
p408
(dp409
g7
(imyEvolve
Tree
p410
(dp411
g19
I0
sg20
F-2.5237432323124565
sg21
I01
sbsg19
I1
sg22
(imyEvolve
Tree
p412
(dp413
g19
I0
sg20
F-0.9374002308326759
sg21
I01
sbsg25
I00
sg26
g57
sbsg25
I00
sg26
g44
sbsg19
I3
sg25
I01
sg26
g38
sbsg19
I4
sg22
(imyEvolve
Tree
p414
(dp415
g12
(imyEvolve
Tree
p416
(dp417
g7
(imyEvolve
Tree
p418
(dp419
g12
(imyEvolve
Tree
p420
(dp421
g19
I0
sg20
F-3.9657103343705313
sg21
I01
sbsg19
I1
sg25
I01
sg26
g43
sbsg19
I2
sg22
(imyEvolve
Tree
p422
(dp423
g7
(imyEvolve
Tree
p424
(dp425
g19
I0
sg20
F-4.129501668406897
sg21
I01
sbsg19
I1
sg22
(imyEvolve
Tree
p426
(dp427
g19
I0
sg21
I00
sbsg25
I00
sg26
g27
sbsg25
I00
sg26
g57
sbsg19
I3
sg25
I01
sg26
g38
sbsg25
I00
sg26
g27
sbsg25
I00
sg26
g27
sba(imyEvolve
Tree
p428
(dp429
g19
I3
sg7
(imyEvolve
Tree
p430
(dp431
g19
I2
sg7
(imyEvolve
Tree
p432
(dp433
g19
I1
sg7
(imyEvolve
Tree
p434
(dp435
g19
I0
sg20
F-0.07329256281424001
sg21
I01
sbsg22
(imyEvolve
Tree
p436
(dp437
g19
I0
sg21
I00
sbsg25
I00
sg26
g27
sbsg22
(imyEvolve
Tree
p438
(dp439
g19
I1
sg7
(imyEvolve
Tree
p440
(dp441
g19
I0
sg20
F3.6033762702615117
sg21
I01
sbsg22
(imyEvolve
Tree
p442
(dp443
g19
I0
sg21
I00
sbsg25
I00
sg26
g44
sbsg25
I00
sg26
g44
sbsg22
(imyEvolve
Tree
p444
(dp445
g19
I2
sg7
(imyEvolve
Tree
p446
(dp447
g19
I1
sg7
(imyEvolve
Tree
p448
(dp449
g19
I0
sg21
I00
sbsg22
(imyEvolve
Tree
p450
(dp451
g19
I0
sg21
I00
sbsg25
I00
sg26
g27
sbsg22
(imyEvolve
Tree
p452
(dp453
g19
I1
sg7
(imyEvolve
Tree
p454
(dp455
g19
I0
sg21
I00
sbsg22
(imyEvolve
Tree
p456
(dp457
g19
I0
sg21
I00
sbsg25
I00
sg26
g57
sbsg25
I00
sg26
g57
sbsg25
I00
sg26
g57
sba(imyEvolve
Tree
p458
(dp459
g7
(imyEvolve
Tree
p460
(dp461
g7
(imyEvolve
Tree
p462
(dp463
g12
(imyEvolve
Tree
p464
(dp465
g19
I0
sg20
F-1.5928010025755048
sg21
I01
sbsg19
I1
sg25
I01
sg26
g29
sbsg19
I2
sg22
(imyEvolve
Tree
p466
(dp467
g7
(imyEvolve
Tree
p468
(dp469
g19
I0
sg20
F-0.2856660002625251
sg21
I01
sbsg19
I1
sg22
(imyEvolve
Tree
p470
(dp471
g19
I0
sg20
F4.192145816549843
sg21
I01
sbsg25
I00
sg26
g57
sbsg25
I00
sg26
g27
sbsg19
I3
sg22
(imyEvolve
Tree
p472
(dp473
g7
(imyEvolve
Tree
p474
(dp475
g7
(imyEvolve
Tree
p476
(dp477
g19
I0
sg20
F4.963102354681556
sg21
I01
sbsg19
I1
sg22
(imyEvolve
Tree
p478
(dp479
g19
I0
sg21
I00
sbsg25
I00
sg26
g27
sbsg19
I2
sg22
(imyEvolve
Tree
p480
(dp481
g12
(imyEvolve
Tree
p482
(dp483
g19
I0
sg21
I00
sbsg19
I1
sg25
I01
sg26
g43
sbsg25
I00
sg26
g44
sbsg25
I00
sg26
g44
sba(imyEvolve
Tree
p484
(dp485
g19
I2
sg7
(imyEvolve
Tree
p486
(dp487
g19
I1
sg7
(imyEvolve
Tree
p488
(dp489
g19
I0
sg20
F-2.383652991989944
sg21
I01
sbsg22
(imyEvolve
Tree
p490
(dp491
g19
I0
sg21
I00
sbsg25
I00
sg26
g44
sbsg22
(imyEvolve
Tree
p492
(dp493
g19
I1
sg7
(imyEvolve
Tree
p494
(dp495
g19
I0
sg21
I00
sbsg22
(imyEvolve
Tree
p496
(dp497
g19
I0
sg20
F-4.1773546645447315
sg21
I01
sbsg25
I00
sg26
g44
sbsg25
I00
sg26
g57
sba(imyEvolve
Tree
p498
(dp499
g12
(imyEvolve
Tree
p500
(dp501
g7
(imyEvolve
Tree
p502
(dp503
g12
(imyEvolve
Tree
p504
(dp505
g12
(imyEvolve
Tree
p506
(dp507
g12
(imyEvolve
Tree
p508
(dp509
g19
I0
sg20
F2.323600104004817
sg21
I01
sbsg19
I1
sg25
I01
sg26
g38
sbsg19
I2
sg25
I01
sg26
g28
sbsg19
I3
sg25
I01
sg26
g43
sbsg19
I4
sg22
(imyEvolve
Tree
p510
(dp511
g12
(imyEvolve
Tree
p512
(dp513
g7
(imyEvolve
Tree
p514
(dp515
g7
(imyEvolve
Tree
p516
(dp517
g19
I0
sg21
I00
sbsg19
I1
sg22
(imyEvolve
Tree
p518
(dp519
g19
I0
sg20
F4.859813911713006
sg21
I01
sbsg25
I00
sg26
g27
sbsg19
I2
sg22
(imyEvolve
Tree
p520
(dp521
g7
(imyEvolve
Tree
p522
(dp523
g19
I0
sg21
I00
sbsg19
I1
sg22
(imyEvolve
Tree
p524
(dp525
g19
I0
sg21
I00
sbsg25
I00
sg26
g27
sbsg25
I00
sg26
g57
sbsg19
I3
sg25
I01
sg26
g43
sbsg25
I00
sg26
g44
sbsg19
I5
sg25
I01
sg26
g38
sbaa(lp526
(imyEvolve
Tree
p527
(dp528
g7
(imyEvolve
Tree
p529
(dp530
g12
(imyEvolve
Tree
p531
(dp532
g12
(imyEvolve
Tree
p533
(dp534
g12
(imyEvolve
Tree
p535
(dp536
g7
(imyEvolve
Tree
p537
(dp538
g19
I0
sg21
I00
sbsg19
I1
sg22
(imyEvolve
Tree
p539
(dp540
g19
I0
sg20
F1.5111061961564856
sg21
I01
sbsg25
I00
sg26
g44
sbsg19
I2
sg25
I01
sg26
g29
sbsg19
I3
sg25
I01
sg26
g43
sbsg19
I4
sg25
I01
sg26
g38
sbsg19
I5
sg22
(imyEvolve
Tree
p541
(dp542
g12
(imyEvolve
Tree
p543
(dp544
g12
(imyEvolve
Tree
p545
(dp546
g12
(imyEvolve
Tree
p547
(dp548
g12
(imyEvolve
Tree
p549
(dp550
g19
I0
sg20
F3.3487763688746313
sg21
I01
sbsg19
I1
sg25
I01
sg26
g43
sbsg19
I2
sg25
I01
sg26
g43
sbsg19
I3
sg25
I01
sg26
g43
sbsg19
I4
sg25
I01
sg26
g29
sbsg25
I00
sg26
g57
sba(imyEvolve
Tree
p551
(dp552
g7
(imyEvolve
Tree
p553
(dp554
g12
(imyEvolve
Tree
p555
(dp556
g12
(imyEvolve
Tree
p557
(dp558
g19
I0
sg21
I00
sbsg19
I1
sg25
I01
sg26
g29
sbsg19
I2
sg25
I01
sg26
g38
sbsg19
I3
sg22
(imyEvolve
Tree
p559
(dp560
g12
(imyEvolve
Tree
p561
(dp562
g7
(imyEvolve
Tree
p563
(dp564
g19
I0
sg20
F4.813068387450961
sg21
I01
sbsg19
I1
sg22
(imyEvolve
Tree
p565
(dp566
g19
I0
sg20
F-4.889974293189803
sg21
I01
sbsg25
I00
sg26
g44
sbsg19
I2
sg25
I01
sg26
g29
sbsg25
I00
sg26
g27
sba(imyEvolve
Tree
p567
(dp568
g7
(imyEvolve
Tree
p569
(dp570
g12
(imyEvolve
Tree
p571
(dp572
g12
(imyEvolve
Tree
p573
(dp574
g12
(imyEvolve
Tree
p575
(dp576
g19
I0
sg21
I00
sbsg19
I1
sg25
I01
sg26
g38
sbsg19
I2
sg25
I01
sg26
g28
sbsg19
I3
sg25
I01
sg26
g38
sbsg19
I4
sg22
(imyEvolve
Tree
p577
(dp578
g12
(imyEvolve
Tree
p579
(dp580
g12
(imyEvolve
Tree
p581
(dp582
g12
(imyEvolve
Tree
p583
(dp584
g19
I0
sg20
F-1.6407745224308767
sg21
I01
sbsg19
I1
sg25
I01
sg26
g38
sbsg19
I2
sg25
I01
sg26
g28
sbsg19
I3
sg25
I01
sg26
g43
sbsg25
I00
sg26
g27
sba(imyEvolve
Tree
p585
(dp586
g7
(imyEvolve
Tree
p587
(dp588
g7
(imyEvolve
Tree
p589
(dp590
g7
(imyEvolve
Tree
p591
(dp592
g12
(imyEvolve
Tree
p593
(dp594
g12
(imyEvolve
Tree
p595
(dp596
g19
I0
sg20
F-2.1235614659139546
sg21
I01
sbsg19
I1
sg25
I01
sg26
g38
sbsg19
I2
sg25
I01
sg26
g29
sbsg19
I3
sg22
(imyEvolve
Tree
p597
(dp598
g12
(imyEvolve
Tree
p599
(dp600
g12
(imyEvolve
Tree
p601
(dp602
g19
I0
sg21
I00
sbsg19
I1
sg25
I01
sg26
g29
sbsg19
I2
sg25
I01
sg26
g43
sbsg25
I00
sg26
g57
sbsg19
I4
sg22
(imyEvolve
Tree
p603
(dp604
g12
(imyEvolve
Tree
p605
(dp606
g12
(imyEvolve
Tree
p607
(dp608
g12
(imyEvolve
Tree
p609
(dp610
g19
I0
sg21
I00
sbsg19
I1
sg25
I01
sg26
g38
sbsg19
I2
sg25
I01
sg26
g29
sbsg19
I3
sg25
I01
sg26
g28
sbsg25
I00
sg26
g27
sbsg19
I5
sg22
(imyEvolve
Tree
p611
(dp612
g7
(imyEvolve
Tree
p613
(dp614
g7
(imyEvolve
Tree
p615
(dp616
g7
(imyEvolve
Tree
p617
(dp618
g12
(imyEvolve
Tree
p619
(dp620
g19
I0
sg21
I00
sbsg19
I1
sg25
I01
sg26
g38
sbsg19
I2
sg22
(imyEvolve
Tree
p621
(dp622
g12
(imyEvolve
Tree
p623
(dp624
g19
I0
sg20
F-3.0734475442883324
sg21
I01
sbsg19
I1
sg25
I01
sg26
g38
sbsg25
I00
sg26
g44
sbsg19
I3
sg22
(imyEvolve
Tree
p625
(dp626
g12
(imyEvolve
Tree
p627
(dp628
g7
(imyEvolve
Tree
p629
(dp630
g19
I0
sg20
F0.8065632869274166
sg21
I01
sbsg19
I1
sg22
(imyEvolve
Tree
p631
(dp632
g19
I0
sg21
I00
sbsg25
I00
sg26
g44
sbsg19
I2
sg25
I01
sg26
g43
sbsg25
I00
sg26
g27
sbsg19
I4
sg22
(imyEvolve
Tree
p633
(dp634
g12
(imyEvolve
Tree
p635
(dp636
g7
(imyEvolve
Tree
p637
(dp638
g7
(imyEvolve
Tree
p639
(dp640
g19
I0
sg21
I00
sbsg19
I1
sg22
(imyEvolve
Tree
p641
(dp642
g19
I0
sg20
F4.301154903072307
sg21
I01
sbsg25
I00
sg26
g44
sbsg19
I2
sg22
(imyEvolve
Tree
p643
(dp644
g7
(imyEvolve
Tree
p645
(dp646
g19
I0
sg21
I00
sbsg19
I1
sg22
(imyEvolve
Tree
p647
(dp648
g19
I0
sg20
F-2.009175406477004
sg21
I01
sbsg25
I00
sg26
g27
sbsg25
I00
sg26
g27
sbsg19
I3
sg25
I01
sg26
g29
sbsg25
I00
sg26
g44
sbsg25
I00
sg26
g27
sba(imyEvolve
Tree
p649
(dp650
g12
(imyEvolve
Tree
p651
(dp652
g12
(imyEvolve
Tree
p653
(dp654
g7
(imyEvolve
Tree
p655
(dp656
g12
(imyEvolve
Tree
p657
(dp658
g19
I0
sg20
F1.079034952624581
sg21
I01
sbsg19
I1
sg25
I01
sg26
g28
sbsg19
I2
sg22
(imyEvolve
Tree
p659
(dp660
g12
(imyEvolve
Tree
p661
(dp662
g19
I0
sg21
I00
sbsg19
I1
sg25
I01
sg26
g43
sbsg25
I00
sg26
g57
sbsg19
I3
sg25
I01
sg26
g28
sbsg19
I4
sg25
I01
sg26
g29
sba(imyEvolve
Tree
p663
(dp664
g12
(imyEvolve
Tree
p665
(dp666
g7
(imyEvolve
Tree
p667
(dp668
g7
(imyEvolve
Tree
p669
(dp670
g19
I0
sg20
F-0.1894346779309375
sg21
I01
sbsg19
I1
sg22
(imyEvolve
Tree
p671
(dp672
g19
I0
sg20
F-1.372944929387189
sg21
I01
sbsg25
I00
sg26
g44
sbsg19
I2
sg22
(imyEvolve
Tree
p673
(dp674
g12
(imyEvolve
Tree
p675
(dp676
g19
I0
sg20
F-4.510334855593234
sg21
I01
sbsg19
I1
sg25
I01
sg26
g43
sbsg25
I00
sg26
g27
sbsg19
I3
sg25
I01
sg26
g28
sba(imyEvolve
Tree
p677
(dp678
g7
(imyEvolve
Tree
p679
(dp680
g12
(imyEvolve
Tree
p681
(dp682
g19
I0
sg20
F1.7198692565316556
sg21
I01
sbsg19
I1
sg25
I01
sg26
g43
sbsg19
I2
sg22
(imyEvolve
Tree
p683
(dp684
g12
(imyEvolve
Tree
p685
(dp686
g19
I0
sg20
F2.8804175337243523
sg21
I01
sbsg19
I1
sg25
I01
sg26
g28
sbsg25
I00
sg26
g44
sba(imyEvolve
Tree
p687
(dp688
g12
(imyEvolve
Tree
p689
(dp690
g12
(imyEvolve
Tree
p691
(dp692
g12
(imyEvolve
Tree
p693
(dp694
g19
I0
sg20
F-1.386390732786018
sg21
I01
sbsg19
I1
sg25
I01
sg26
g28
sbsg19
I2
sg25
I01
sg26
g29
sbsg19
I3
sg25
I01
sg26
g28
sba(imyEvolve
Tree
p695
(dp696
g12
(imyEvolve
Tree
p697
(dp698
g7
(imyEvolve
Tree
p699
(dp700
g7
(imyEvolve
Tree
p701
(dp702
g12
(imyEvolve
Tree
p703
(dp704
g19
I0
sg21
I00
sbsg19
I1
sg25
I01
sg26
g29
sbsg19
I2
sg22
(imyEvolve
Tree
p705
(dp706
g7
(imyEvolve
Tree
p707
(dp708
g19
I0
sg21
I00
sbsg19
I1
sg22
(imyEvolve
Tree
p709
(dp710
g19
I0
sg21
I00
sbsg25
I00
sg26
g57
sbsg25
I00
sg26
g27
sbsg19
I3
sg22
(imyEvolve
Tree
p711
(dp712
g12
(imyEvolve
Tree
p713
(dp714
g12
(imyEvolve
Tree
p715
(dp716
g19
I0
sg21
I00
sbsg19
I1
sg25
I01
sg26
g43
sbsg19
I2
sg25
I01
sg26
g29
sbsg25
I00
sg26
g27
sbsg19
I4
sg25
I01
sg26
g28
sba(imyEvolve
Tree
p717
(dp718
g7
(imyEvolve
Tree
p719
(dp720
g7
(imyEvolve
Tree
p721
(dp722
g12
(imyEvolve
Tree
p723
(dp724
g12
(imyEvolve
Tree
p725
(dp726
g19
I0
sg21
I00
sbsg19
I1
sg25
I01
sg26
g43
sbsg19
I2
sg25
I01
sg26
g28
sbsg19
I3
sg22
(imyEvolve
Tree
p727
(dp728
g7
(imyEvolve
Tree
p729
(dp730
g12
(imyEvolve
Tree
p731
(dp732
g19
I0
sg21
I00
sbsg19
I1
sg25
I01
sg26
g38
sbsg19
I2
sg22
(imyEvolve
Tree
p733
(dp734
g7
(imyEvolve
Tree
p735
(dp736
g19
I0
sg20
F0.5166643911859676
sg21
I01
sbsg19
I1
sg22
(imyEvolve
Tree
p737
(dp738
g19
I0
sg20
F2.545024982440367
sg21
I01
sbsg25
I00
sg26
g27
sbsg25
I00
sg26
g57
sbsg25
I00
sg26
g27
sbsg19
I4
sg22
(imyEvolve
Tree
p739
(dp740
g12
(imyEvolve
Tree
p741
(dp742
g7
(imyEvolve
Tree
p743
(dp744
g7
(imyEvolve
Tree
p745
(dp746
g19
I0
sg20
F3.0789206330565637
sg21
I01
sbsg19
I1
sg22
(imyEvolve
Tree
p747
(dp748
g19
I0
sg20
F0.5934033040547746
sg21
I01
sbsg25
I00
sg26
g27
sbsg19
I2
sg22
(imyEvolve
Tree
p749
(dp750
g12
(imyEvolve
Tree
p751
(dp752
g19
I0
sg21
I00
sbsg19
I1
sg25
I01
sg26
g29
sbsg25
I00
sg26
g27
sbsg19
I3
sg25
I01
sg26
g29
sbsg25
I00
sg26
g27
sba(imyEvolve
Tree
p753
(dp754
g12
(imyEvolve
Tree
p755
(dp756
g12
(imyEvolve
Tree
p757
(dp758
g7
(imyEvolve
Tree
p759
(dp760
g19
I0
sg20
F1.5540374423131
sg21
I01
sbsg19
I1
sg22
(imyEvolve
Tree
p761
(dp762
g19
I0
sg20
F-1.6027916877869708
sg21
I01
sbsg25
I00
sg26
g57
sbsg19
I2
sg25
I01
sg26
g43
sbsg19
I3
sg25
I01
sg26
g29
sba(imyEvolve
Tree
p763
(dp764
g7
(imyEvolve
Tree
p765
(dp766
g7
(imyEvolve
Tree
p767
(dp768
g12
(imyEvolve
Tree
p769
(dp770
g7
(imyEvolve
Tree
p771
(dp772
g7
(imyEvolve
Tree
p773
(dp774
g19
I0
sg20
F-0.9314163753962585
sg21
I01
sbsg19
I1
sg22
(imyEvolve
Tree
p775
(dp776
g19
I0
sg21
I00
sbsg25
I00
sg26
g57
sbsg19
I2
sg22
(imyEvolve
Tree
p777
(dp778
g7
(imyEvolve
Tree
p779
(dp780
g19
I0
sg21
I00
sbsg19
I1
sg22
(imyEvolve
Tree
p781
(dp782
g19
I0
sg21
I00
sbsg25
I00
sg26
g44
sbsg25
I00
sg26
g57
sbsg19
I3
sg25
I01
sg26
g38
sbsg19
I4
sg22
(imyEvolve
Tree
p783
(dp784
g7
(imyEvolve
Tree
p785
(dp786
g7
(imyEvolve
Tree
p787
(dp788
g12
(imyEvolve
Tree
p789
(dp790
g19
I0
sg21
I00
sbsg19
I1
sg25
I01
sg26
g43
sbsg19
I2
sg22
(imyEvolve
Tree
p791
(dp792
g12
(imyEvolve
Tree
p793
(dp794
g19
I0
sg21
I00
sbsg19
I1
sg25
I01
sg26
g43
sbsg25
I00
sg26
g57
sbsg19
I3
sg22
(imyEvolve
Tree
p795
(dp796
g12
(imyEvolve
Tree
p797
(dp798
g12
(imyEvolve
Tree
p799
(dp800
g19
I0
sg20
F4.468926905194827
sg21
I01
sbsg19
I1
sg25
I01
sg26
g29
sbsg19
I2
sg25
I01
sg26
g38
sbsg25
I00
sg26
g44
sbsg25
I00
sg26
g57
sbsg19
I5
sg22
(imyEvolve
Tree
p801
(dp802
g12
(imyEvolve
Tree
p803
(dp804
g7
(imyEvolve
Tree
p805
(dp806
g12
(imyEvolve
Tree
p807
(dp808
g12
(imyEvolve
Tree
p809
(dp810
g19
I0
sg21
I00
sbsg19
I1
sg25
I01
sg26
g28
sbsg19
I2
sg25
I01
sg26
g29
sbsg19
I3
sg22
(imyEvolve
Tree
p811
(dp812
g12
(imyEvolve
Tree
p813
(dp814
g12
(imyEvolve
Tree
p815
(dp816
g19
I0
sg21
I00
sbsg19
I1
sg25
I01
sg26
g43
sbsg19
I2
sg25
I01
sg26
g43
sbsg25
I00
sg26
g57
sbsg19
I4
sg25
I01
sg26
g43
sbsg25
I00
sg26
g27
sba(imyEvolve
Tree
p817
(dp818
g19
I4
sg7
(imyEvolve
Tree
p819
(dp820
g19
I3
sg7
(imyEvolve
Tree
p821
(dp822
g19
I2
sg7
(imyEvolve
Tree
p823
(dp824
g19
I1
sg7
(imyEvolve
Tree
p825
(dp826
g19
I0
sg20
F-4.955519568474874
sg21
I01
sbsg22
(imyEvolve
Tree
p827
(dp828
g19
I0
sg20
F-2.665554352616856
sg21
I01
sbsg25
I00
sg26
g44
sbsg22
(imyEvolve
Tree
p829
(dp830
g12
(imyEvolve
Tree
p831
(dp832
g19
I0
sg21
I00
sbsg19
I1
sg25
I01
sg26
g28
sbsg25
I00
sg26
g57
sbsg22
(imyEvolve
Tree
p833
(dp834
g19
I2
sg7
(imyEvolve
Tree
p835
(dp836
g19
I1
sg7
(imyEvolve
Tree
p837
(dp838
g19
I0
sg21
I00
sbsg22
(imyEvolve
Tree
p839
(dp840
g19
I0
sg20
F3.0202736173500515
sg21
I01
sbsg25
I00
sg26
g57
sbsg22
(imyEvolve
Tree
p841
(dp842
g19
I1
sg7
(imyEvolve
Tree
p843
(dp844
g19
I0
sg21
I00
sbsg22
(imyEvolve
Tree
p845
(dp846
g19
I0
sg21
I00
sbsg25
I00
sg26
g57
sbsg25
I00
sg26
g44
sbsg25
I00
sg26
g57
sbsg22
(imyEvolve
Tree
p847
(dp848
g19
I3
sg7
(imyEvolve
Tree
p849
(dp850
g19
I2
sg7
(imyEvolve
Tree
p851
(dp852
g12
(imyEvolve
Tree
p853
(dp854
g19
I0
sg20
F1.786032335099744
sg21
I01
sbsg19
I1
sg25
I01
sg26
g38
sbsg22
(imyEvolve
Tree
p855
(dp856
g12
(imyEvolve
Tree
p857
(dp858
g19
I0
sg20
F-3.9288172787641495
sg21
I01
sbsg19
I1
sg25
I01
sg26
g28
sbsg25
I00
sg26
g57
sbsg22
(imyEvolve
Tree
p859
(dp860
g19
I2
sg7
(imyEvolve
Tree
p861
(dp862
g19
I1
sg7
(imyEvolve
Tree
p863
(dp864
g19
I0
sg21
I00
sbsg22
(imyEvolve
Tree
p865
(dp866
g19
I0
sg20
F2.603873663225478
sg21
I01
sbsg25
I00
sg26
g44
sbsg22
(imyEvolve
Tree
p867
(dp868
g12
(imyEvolve
Tree
p869
(dp870
g19
I0
sg20
F-1.0642876202398552
sg21
I01
sbsg19
I1
sg25
I01
sg26
g43
sbsg25
I00
sg26
g57
sbsg25
I00
sg26
g27
sbsg25
I00
sg26
g27
sba(imyEvolve
Tree
p871
(dp872
g12
(imyEvolve
Tree
p873
(dp874
g7
(imyEvolve
Tree
p875
(dp876
g12
(imyEvolve
Tree
p877
(dp878
g19
I0
sg21
I00
sbsg19
I1
sg25
I01
sg26
g38
sbsg19
I2
sg22
(imyEvolve
Tree
p879
(dp880
g7
(imyEvolve
Tree
p881
(dp882
g19
I0
sg21
I00
sbsg19
I1
sg22
(imyEvolve
Tree
p883
(dp884
g19
I0
sg20
F-3.74351143126301
sg21
I01
sbsg25
I00
sg26
g57
sbsg25
I00
sg26
g57
sbsg19
I3
sg25
I01
sg26
g28
sba(imyEvolve
Tree
p885
(dp886
g12
(imyEvolve
Tree
p887
(dp888
g12
(imyEvolve
Tree
p889
(dp890
g7
(imyEvolve
Tree
p891
(dp892
g19
I0
sg20
F-0.3723743554197121
sg21
I01
sbsg19
I1
sg22
(imyEvolve
Tree
p893
(dp894
g19
I0
sg20
F-3.974977288558379
sg21
I01
sbsg25
I00
sg26
g57
sbsg19
I2
sg25
I01
sg26
g43
sbsg19
I3
sg25
I01
sg26
g38
sba(imyEvolve
Tree
p895
(dp896
g19
I3
sg7
(imyEvolve
Tree
p897
(dp898
g19
I2
sg7
(imyEvolve
Tree
p899
(dp900
g12
(imyEvolve
Tree
p901
(dp902
g19
I0
sg21
I00
sbsg19
I1
sg25
I01
sg26
g43
sbsg22
(imyEvolve
Tree
p903
(dp904
g19
I1
sg7
(imyEvolve
Tree
p905
(dp906
g19
I0
sg20
F-0.07205211820542257
sg21
I01
sbsg22
(imyEvolve
Tree
p907
(dp908
g19
I0
sg21
I00
sbsg25
I00
sg26
g27
sbsg25
I00
sg26
g57
sbsg22
(imyEvolve
Tree
p909
(dp910
g19
I2
sg7
(imyEvolve
Tree
p911
(dp912
g19
I1
sg7
(imyEvolve
Tree
p913
(dp914
g19
I0
sg21
I00
sbsg22
(imyEvolve
Tree
p915
(dp916
g19
I0
sg21
I00
sbsg25
I00
sg26
g44
sbsg22
(imyEvolve
Tree
p917
(dp918
g19
I1
sg7
(imyEvolve
Tree
p919
(dp920
g19
I0
sg20
F3.7482503192601584
sg21
I01
sbsg22
(imyEvolve
Tree
p921
(dp922
g19
I0
sg20
F0.47405778808709353
sg21
I01
sbsg25
I00
sg26
g44
sbsg25
I00
sg26
g44
sbsg25
I00
sg26
g27
sbaasS'alpha'
p923
F0.0012068478921166473
sS'fitness'
p924
cnumpy.core.multiarray
scalar
p925
(cnumpy
dtype
p926
(S'f8'
p927
I0
I1
tp928
Rp929
(I3
S'<'
p930
NNNI-1
I-1
I0
tp931
bS'\x84\rO\x1f\x82-\xe6?'
p932
tp933
Rp934
sS'weightSharing'
p935
(lp936
I01
asS'fitnessValid'
p937
I00
sS'resolution'
p938
I81
sb.