(imyEvolve
Individual
p0
(dp1
S'funcs'
p2
(lp3
(lp4
(imyEvolve
Tree
p5
(dp6
S'left'
p7
(imyEvolve
Tree
p8
(dp9
g7
(imyEvolve
Tree
p10
(dp11
S'below'
p12
(imyEvolve
Tree
p13
(dp14
g12
(imyEvolve
Tree
p15
(dp16
g7
(imyEvolve
Tree
p17
(dp18
S'depth'
p19
I0
sS'constant'
p20
F-0.820905403248271
sS'isConstant'
p21
I01
sbsg19
I1
sS'right'
p22
(imyEvolve
Tree
p23
(dp24
g19
I0
sg21
I00
sbsS'single'
p25
I00
sS'op'
p26
coperator
sub
p27
sbsg19
I2
sg25
I01
sg26
cmyEvolve
absSqrt
p28
sbsg19
I3
sg25
I01
sg26
cmath
cos
p29
sbsg19
I4
sg22
(imyEvolve
Tree
p30
(dp31
g12
(imyEvolve
Tree
p32
(dp33
g7
(imyEvolve
Tree
p34
(dp35
g12
(imyEvolve
Tree
p36
(dp37
g19
I0
sg20
F-2.4024472704446556
sg21
I01
sbsg19
I1
sg25
I01
sg26
cmyEvolve
square
p38
sbsg19
I2
sg22
(imyEvolve
Tree
p39
(dp40
g12
(imyEvolve
Tree
p41
(dp42
g19
I0
sg20
F-2.266019131571423
sg21
I01
sbsg19
I1
sg25
I01
sg26
cmath
sin
p43
sbsg25
I00
sg26
coperator
add
p44
sbsg19
I3
sg25
I01
sg26
g43
sbsg25
I00
sg26
g27
sbsg19
I5
sg22
(imyEvolve
Tree
p45
(dp46
g12
(imyEvolve
Tree
p47
(dp48
g7
(imyEvolve
Tree
p49
(dp50
g12
(imyEvolve
Tree
p51
(dp52
g7
(imyEvolve
Tree
p53
(dp54
g19
I0
sg21
I00
sbsg19
I1
sg22
(imyEvolve
Tree
p55
(dp56
g19
I0
sg20
F-4.478477798029309
sg21
I01
sbsg25
I00
sg26
coperator
mul
p57
sbsg19
I2
sg25
I01
sg26
g38
sbsg19
I3
sg22
(imyEvolve
Tree
p58
(dp59
g12
(imyEvolve
Tree
p60
(dp61
g7
(imyEvolve
Tree
p62
(dp63
g19
I0
sg20
F1.3568793180248306
sg21
I01
sbsg19
I1
sg22
(imyEvolve
Tree
p64
(dp65
g19
I0
sg20
F0.06625150833711224
sg21
I01
sbsg25
I00
sg26
g27
sbsg19
I2
sg25
I01
sg26
g43
sbsg25
I00
sg26
g27
sbsg19
I4
sg25
I01
sg26
g43
sbsg25
I00
sg26
g57
sba(imyEvolve
Tree
p66
(dp67
g12
(imyEvolve
Tree
p68
(dp69
g12
(imyEvolve
Tree
p70
(dp71
g12
(imyEvolve
Tree
p72
(dp73
g19
I2
sg7
(imyEvolve
Tree
p74
(dp75
g19
I1
sg7
(imyEvolve
Tree
p76
(dp77
g19
I0
sg20
F-2.186375131692925
sg21
I01
sbsg22
(imyEvolve
Tree
p78
(dp79
g19
I0
sg20
F-2.382381220811981
sg21
I01
sbsg25
I00
sg26
g44
sbsg22
(imyEvolve
Tree
p80
(dp81
g12
(imyEvolve
Tree
p82
(dp83
g19
I0
sg20
F-1.0277673171070534
sg21
I01
sbsg19
I1
sg25
I01
sg26
g28
sbsg25
I00
sg26
g27
sbsg19
I3
sg25
I01
sg26
g28
sbsg19
I4
sg25
I01
sg26
g28
sbsg19
I5
sg25
I01
sg26
g28
sba(imyEvolve
Tree
p84
(dp85
g7
(imyEvolve
Tree
p86
(dp87
g7
(imyEvolve
Tree
p88
(dp89
g19
I0
sg21
I00
sbsg19
I1
sg22
(imyEvolve
Tree
p90
(dp91
g19
I0
sg21
I00
sbsg25
I00
sg26
g27
sbsg19
I2
sg22
(imyEvolve
Tree
p92
(dp93
g7
(imyEvolve
Tree
p94
(dp95
g19
I0
sg21
I00
sbsg19
I1
sg22
(imyEvolve
Tree
p96
(dp97
g19
I0
sg20
F1.1997862212991812
sg21
I01
sbsg25
I00
sg26
g57
sbsg25
I00
sg26
g44
sba(imyEvolve
Tree
p98
(dp99
g12
(imyEvolve
Tree
p100
(dp101
g7
(imyEvolve
Tree
p102
(dp103
g7
(imyEvolve
Tree
p104
(dp105
g19
I0
sg20
F0.36826992967050387
sg21
I01
sbsg19
I1
sg22
(imyEvolve
Tree
p106
(dp107
g19
I0
sg20
F4.856780197386492
sg21
I01
sbsg25
I00
sg26
g27
sbsg19
I2
sg22
(imyEvolve
Tree
p108
(dp109
g7
(imyEvolve
Tree
p110
(dp111
g19
I0
sg20
F-0.5563782429086759
sg21
I01
sbsg19
I1
sg22
(imyEvolve
Tree
p112
(dp113
g19
I0
sg20
F3.779247722163099
sg21
I01
sbsg25
I00
sg26
g57
sbsg25
I00
sg26
g27
sbsg19
I3
sg25
I01
sg26
g43
sba(imyEvolve
Tree
p114
(dp115
g12
(imyEvolve
Tree
p116
(dp117
g7
(imyEvolve
Tree
p118
(dp119
g7
(imyEvolve
Tree
p120
(dp121
g19
I0
sg21
I00
sbsg19
I1
sg22
(imyEvolve
Tree
p122
(dp123
g19
I0
sg21
I00
sbsg25
I00
sg26
g57
sbsg19
I2
sg22
(imyEvolve
Tree
p124
(dp125
g7
(imyEvolve
Tree
p126
(dp127
g19
I0
sg20
F0.9827745072408769
sg21
I01
sbsg19
I1
sg22
(imyEvolve
Tree
p128
(dp129
g19
I0
sg20
F-4.647679124196761
sg21
I01
sbsg25
I00
sg26
g57
sbsg25
I00
sg26
g44
sbsg19
I3
sg25
I01
sg26
g43
sba(imyEvolve
Tree
p130
(dp131
g7
(imyEvolve
Tree
p132
(dp133
g7
(imyEvolve
Tree
p134
(dp135
g12
(imyEvolve
Tree
p136
(dp137
g19
I0
sg21
I00
sbsg19
I1
sg25
I01
sg26
g28
sbsg19
I2
sg22
(imyEvolve
Tree
p138
(dp139
g7
(imyEvolve
Tree
p140
(dp141
g19
I0
sg20
F1.6357787650675082
sg21
I01
sbsg19
I1
sg22
(imyEvolve
Tree
p142
(dp143
g19
I0
sg21
I00
sbsg25
I00
sg26
g27
sbsg25
I00
sg26
g27
sbsg19
I3
sg22
(imyEvolve
Tree
p144
(dp145
g12
(imyEvolve
Tree
p146
(dp147
g7
(imyEvolve
Tree
p148
(dp149
g19
I0
sg20
F-0.9555988417013017
sg21
I01
sbsg19
I1
sg22
(imyEvolve
Tree
p150
(dp151
g19
I0
sg21
I00
sbsg25
I00
sg26
g27
sbsg19
I2
sg25
I01
sg26
g29
sbsg25
I00
sg26
g27
sba(imyEvolve
Tree
p152
(dp153
g12
(imyEvolve
Tree
p154
(dp155
g7
(imyEvolve
Tree
p156
(dp157
g19
I0
sg20
F0.7333504045363748
sg21
I01
sbsg19
I1
sg22
(imyEvolve
Tree
p158
(dp159
g19
I0
sg21
I00
sbsg25
I00
sg26
g57
sbsg19
I2
sg25
I01
sg26
g28
sba(imyEvolve
Tree
p160
(dp161
g12
(imyEvolve
Tree
p162
(dp163
g12
(imyEvolve
Tree
p164
(dp165
g12
(imyEvolve
Tree
p166
(dp167
g7
(imyEvolve
Tree
p168
(dp169
g12
(imyEvolve
Tree
p170
(dp171
g19
I0
sg20
F-1.5266529772187711
sg21
I01
sbsg19
I1
sg25
I01
sg26
g29
sbsg19
I2
sg22
(imyEvolve
Tree
p172
(dp173
g7
(imyEvolve
Tree
p174
(dp175
g19
I0
sg20
F2.490962801265403
sg21
I01
sbsg19
I1
sg22
(imyEvolve
Tree
p176
(dp177
g19
I0
sg21
I00
sbsg25
I00
sg26
g27
sbsg25
I00
sg26
g44
sbsg19
I3
sg25
I01
sg26
g43
sbsg19
I4
sg25
I01
sg26
g28
sbsg19
I5
sg25
I01
sg26
g28
sba(imyEvolve
Tree
p178
(dp179
g12
(imyEvolve
Tree
p180
(dp181
g12
(imyEvolve
Tree
p182
(dp183
g7
(imyEvolve
Tree
p184
(dp185
g19
I0
sg21
I00
sbsg19
I1
sg22
(imyEvolve
Tree
p186
(dp187
g19
I0
sg20
F0.12237748139200111
sg21
I01
sbsg25
I00
sg26
g57
sbsg19
I2
sg25
I01
sg26
g43
sbsg19
I3
sg25
I01
sg26
g28
sba(imyEvolve
Tree
p188
(dp189
g19
I2
sg7
(imyEvolve
Tree
p190
(dp191
g12
(imyEvolve
Tree
p192
(dp193
g19
I0
sg20
F-2.2430678344709
sg21
I01
sbsg19
I1
sg25
I01
sg26
g38
sbsg22
(imyEvolve
Tree
p194
(dp195
g12
(imyEvolve
Tree
p196
(dp197
g19
I0
sg21
I00
sbsg19
I1
sg25
I01
sg26
g28
sbsg25
I00
sg26
g57
sba(imyEvolve
Tree
p198
(dp199
g12
(imyEvolve
Tree
p200
(dp201
g12
(imyEvolve
Tree
p202
(dp203
g7
(imyEvolve
Tree
p204
(dp205
g19
I0
sg21
I00
sbsg19
I1
sg22
(imyEvolve
Tree
p206
(dp207
g19
I0
sg20
F3.994219386937745
sg21
I01
sbsg25
I00
sg26
g27
sbsg19
I2
sg25
I01
sg26
g43
sbsg19
I3
sg25
I01
sg26
g38
sba(imyEvolve
Tree
p208
(dp209
g12
(imyEvolve
Tree
p210
(dp211
g19
I3
sg7
(imyEvolve
Tree
p212
(dp213
g12
(imyEvolve
Tree
p214
(dp215
g12
(imyEvolve
Tree
p216
(dp217
g19
I0
sg20
F4.601056586232625
sg21
I01
sbsg19
I1
sg25
I01
sg26
g28
sbsg19
I2
sg25
I01
sg26
g38
sbsg22
(imyEvolve
Tree
p218
(dp219
g12
(imyEvolve
Tree
p220
(dp221
g12
(imyEvolve
Tree
p222
(dp223
g19
I0
sg20
F-4.624396109285954
sg21
I01
sbsg19
I1
sg25
I01
sg26
g38
sbsg19
I2
sg25
I01
sg26
g43
sbsg25
I00
sg26
g57
sbsg19
I4
sg25
I01
sg26
g28
sba(imyEvolve
Tree
p224
(dp225
g12
(imyEvolve
Tree
p226
(dp227
g7
(imyEvolve
Tree
p228
(dp229
g12
(imyEvolve
Tree
p230
(dp231
g7
(imyEvolve
Tree
p232
(dp233
g19
I0
sg20
F3.7580148290723816
sg21
I01
sbsg19
I1
sg22
(imyEvolve
Tree
p234
(dp235
g19
I0
sg21
I00
sbsg25
I00
sg26
g44
sbsg19
I2
sg25
I01
sg26
g28
sbsg19
I3
sg22
(imyEvolve
Tree
p236
(dp237
g7
(imyEvolve
Tree
p238
(dp239
g7
(imyEvolve
Tree
p240
(dp241
g19
I0
sg21
I00
sbsg19
I1
sg22
(imyEvolve
Tree
p242
(dp243
g19
I0
sg20
F4.258500687547135
sg21
I01
sbsg25
I00
sg26
g27
sbsg19
I2
sg22
(imyEvolve
Tree
p244
(dp245
g12
(imyEvolve
Tree
p246
(dp247
g19
I0
sg21
I00
sbsg19
I1
sg25
I01
sg26
g43
sbsg25
I00
sg26
g44
sbsg25
I00
sg26
g44
sbsg19
I4
sg25
I01
sg26
g43
sba(imyEvolve
Tree
p248
(dp249
g12
(imyEvolve
Tree
p250
(dp251
g12
(imyEvolve
Tree
p252
(dp253
g7
(imyEvolve
Tree
p254
(dp255
g12
(imyEvolve
Tree
p256
(dp257
g12
(imyEvolve
Tree
p258
(dp259
g19
I0
sg21
I00
sbsg19
I1
sg25
I01
sg26
g43
sbsg19
I2
sg25
I01
sg26
g38
sbsg19
I3
sg22
(imyEvolve
Tree
p260
(dp261
g7
(imyEvolve
Tree
p262
(dp263
g12
(imyEvolve
Tree
p264
(dp265
g19
I0
sg20
F-4.496614673175651
sg21
I01
sbsg19
I1
sg25
I01
sg26
g28
sbsg19
I2
sg22
(imyEvolve
Tree
p266
(dp267
g12
(imyEvolve
Tree
p268
(dp269
g19
I0
sg21
I00
sbsg19
I1
sg25
I01
sg26
g28
sbsg25
I00
sg26
g27
sbsg25
I00
sg26
g44
sbsg19
I4
sg25
I01
sg26
g43
sbsg19
I5
sg25
I01
sg26
g28
sba(imyEvolve
Tree
p270
(dp271
g7
(imyEvolve
Tree
p272
(dp273
g7
(imyEvolve
Tree
p274
(dp275
g12
(imyEvolve
Tree
p276
(dp277
g7
(imyEvolve
Tree
p278
(dp279
g12
(imyEvolve
Tree
p280
(dp281
g19
I0
sg21
I00
sbsg19
I1
sg25
I01
sg26
g29
sbsg19
I2
sg22
(imyEvolve
Tree
p282
(dp283
g7
(imyEvolve
Tree
p284
(dp285
g19
I0
sg20
F-0.32993897016716645
sg21
I01
sbsg19
I1
sg22
(imyEvolve
Tree
p286
(dp287
g19
I0
sg20
F-2.76741041531153
sg21
I01
sbsg25
I00
sg26
g44
sbsg25
I00
sg26
g44
sbsg19
I3
sg25
I01
sg26
g29
sbsg19
I4
sg22
(imyEvolve
Tree
p288
(dp289
g7
(imyEvolve
Tree
p290
(dp291
g12
(imyEvolve
Tree
p292
(dp293
g12
(imyEvolve
Tree
p294
(dp295
g19
I0
sg21
I00
sbsg19
I1
sg25
I01
sg26
g28
sbsg19
I2
sg25
I01
sg26
g28
sbsg19
I3
sg22
(imyEvolve
Tree
p296
(dp297
g12
(imyEvolve
Tree
p298
(dp299
g12
(imyEvolve
Tree
p300
(dp301
g19
I0
sg20
F0.6165397513670925
sg21
I01
sbsg19
I1
sg25
I01
sg26
g43
sbsg19
I2
sg25
I01
sg26
g28
sbsg25
I00
sg26
g44
sbsg25
I00
sg26
g57
sbsg19
I5
sg22
(imyEvolve
Tree
p302
(dp303
g7
(imyEvolve
Tree
p304
(dp305
g12
(imyEvolve
Tree
p306
(dp307
g7
(imyEvolve
Tree
p308
(dp309
g7
(imyEvolve
Tree
p310
(dp311
g19
I0
sg20
F1.1722639674977833
sg21
I01
sbsg19
I1
sg22
(imyEvolve
Tree
p312
(dp313
g19
I0
sg21
I00
sbsg25
I00
sg26
g27
sbsg19
I2
sg22
(imyEvolve
Tree
p314
(dp315
g7
(imyEvolve
Tree
p316
(dp317
g19
I0
sg20
F-2.5237432323124565
sg21
I01
sbsg19
I1
sg22
(imyEvolve
Tree
p318
(dp319
g19
I0
sg20
F-0.9374002308326759
sg21
I01
sbsg25
I00
sg26
g57
sbsg25
I00
sg26
g44
sbsg19
I3
sg25
I01
sg26
g38
sbsg19
I4
sg22
(imyEvolve
Tree
p320
(dp321
g12
(imyEvolve
Tree
p322
(dp323
g7
(imyEvolve
Tree
p324
(dp325
g12
(imyEvolve
Tree
p326
(dp327
g19
I0
sg20
F-3.9657103343705313
sg21
I01
sbsg19
I1
sg25
I01
sg26
g43
sbsg19
I2
sg22
(imyEvolve
Tree
p328
(dp329
g7
(imyEvolve
Tree
p330
(dp331
g19
I0
sg20
F-4.129501668406897
sg21
I01
sbsg19
I1
sg22
(imyEvolve
Tree
p332
(dp333
g19
I0
sg21
I00
sbsg25
I00
sg26
g27
sbsg25
I00
sg26
g57
sbsg19
I3
sg25
I01
sg26
g38
sbsg25
I00
sg26
g27
sbsg25
I00
sg26
g27
sba(imyEvolve
Tree
p334
(dp335
g12
(imyEvolve
Tree
p336
(dp337
g7
(imyEvolve
Tree
p338
(dp339
g12
(imyEvolve
Tree
p340
(dp341
g7
(imyEvolve
Tree
p342
(dp343
g19
I0
sg21
I00
sbsg19
I1
sg22
(imyEvolve
Tree
p344
(dp345
g19
I0
sg21
I00
sbsg25
I00
sg26
g27
sbsg19
I2
sg25
I01
sg26
g43
sbsg19
I3
sg22
(imyEvolve
Tree
p346
(dp347
g12
(imyEvolve
Tree
p348
(dp349
g12
(imyEvolve
Tree
p350
(dp351
g19
I0
sg20
F3.2715046571225788
sg21
I01
sbsg19
I1
sg25
I01
sg26
g29
sbsg19
I2
sg25
I01
sg26
g38
sbsg25
I00
sg26
g27
sbsg19
I4
sg25
I01
sg26
g29
sba(imyEvolve
Tree
p352
(dp353
g7
(imyEvolve
Tree
p354
(dp355
g7
(imyEvolve
Tree
p356
(dp357
g12
(imyEvolve
Tree
p358
(dp359
g19
I0
sg20
F-1.5928010025755048
sg21
I01
sbsg19
I1
sg25
I01
sg26
g29
sbsg19
I2
sg22
(imyEvolve
Tree
p360
(dp361
g7
(imyEvolve
Tree
p362
(dp363
g19
I0
sg20
F-0.2856660002625251
sg21
I01
sbsg19
I1
sg22
(imyEvolve
Tree
p364
(dp365
g19
I0
sg20
F4.192145816549843
sg21
I01
sbsg25
I00
sg26
g57
sbsg25
I00
sg26
g27
sbsg19
I3
sg22
(imyEvolve
Tree
p366
(dp367
g7
(imyEvolve
Tree
p368
(dp369
g7
(imyEvolve
Tree
p370
(dp371
g19
I0
sg20
F4.963102354681556
sg21
I01
sbsg19
I1
sg22
(imyEvolve
Tree
p372
(dp373
g19
I0
sg21
I00
sbsg25
I00
sg26
g27
sbsg19
I2
sg22
(imyEvolve
Tree
p374
(dp375
g12
(imyEvolve
Tree
p376
(dp377
g19
I0
sg21
I00
sbsg19
I1
sg25
I01
sg26
g43
sbsg25
I00
sg26
g44
sbsg25
I00
sg26
g44
sba(imyEvolve
Tree
p378
(dp379
g7
(imyEvolve
Tree
p380
(dp381
g7
(imyEvolve
Tree
p382
(dp383
g12
(imyEvolve
Tree
p384
(dp385
g19
I0
sg21
I00
sbsg19
I1
sg25
I01
sg26
g43
sbsg19
I2
sg22
(imyEvolve
Tree
p386
(dp387
g7
(imyEvolve
Tree
p388
(dp389
g19
I0
sg20
F4.1338905392528975
sg21
I01
sbsg19
I1
sg22
(imyEvolve
Tree
p390
(dp391
g19
I0
sg20
F-3.429864847490137
sg21
I01
sbsg25
I00
sg26
g44
sbsg25
I00
sg26
g27
sbsg19
I3
sg22
(imyEvolve
Tree
p392
(dp393
g7
(imyEvolve
Tree
p394
(dp395
g12
(imyEvolve
Tree
p396
(dp397
g19
I0
sg21
I00
sbsg19
I1
sg25
I01
sg26
g38
sbsg19
I2
sg22
(imyEvolve
Tree
p398
(dp399
g7
(imyEvolve
Tree
p400
(dp401
g19
I0
sg21
I00
sbsg19
I1
sg22
(imyEvolve
Tree
p402
(dp403
g19
I0
sg21
I00
sbsg25
I00
sg26
g27
sbsg25
I00
sg26
g27
sbsg25
I00
sg26
g57
sba(imyEvolve
Tree
p404
(dp405
g12
(imyEvolve
Tree
p406
(dp407
g7
(imyEvolve
Tree
p408
(dp409
g12
(imyEvolve
Tree
p410
(dp411
g12
(imyEvolve
Tree
p412
(dp413
g12
(imyEvolve
Tree
p414
(dp415
g19
I0
sg20
F2.323600104004817
sg21
I01
sbsg19
I1
sg25
I01
sg26
g38
sbsg19
I2
sg25
I01
sg26
g28
sbsg19
I3
sg25
I01
sg26
g43
sbsg19
I4
sg22
(imyEvolve
Tree
p416
(dp417
g12
(imyEvolve
Tree
p418
(dp419
g7
(imyEvolve
Tree
p420
(dp421
g7
(imyEvolve
Tree
p422
(dp423
g19
I0
sg21
I00
sbsg19
I1
sg22
(imyEvolve
Tree
p424
(dp425
g19
I0
sg20
F4.859813911713006
sg21
I01
sbsg25
I00
sg26
g27
sbsg19
I2
sg22
(imyEvolve
Tree
p426
(dp427
g7
(imyEvolve
Tree
p428
(dp429
g19
I0
sg21
I00
sbsg19
I1
sg22
(imyEvolve
Tree
p430
(dp431
g19
I0
sg21
I00
sbsg25
I00
sg26
g27
sbsg25
I00
sg26
g57
sbsg19
I3
sg25
I01
sg26
g43
sbsg25
I00
sg26
g44
sbsg19
I5
sg25
I01
sg26
g38
sbaa(lp432
(imyEvolve
Tree
p433
(dp434
g12
(imyEvolve
Tree
p435
(dp436
g19
I3
sg7
(imyEvolve
Tree
p437
(dp438
g19
I2
sg7
(imyEvolve
Tree
p439
(dp440
g12
(imyEvolve
Tree
p441
(dp442
g19
I0
sg21
I00
sbsg19
I1
sg25
I01
sg26
g38
sbsg22
(imyEvolve
Tree
p443
(dp444
g19
I1
sg7
(imyEvolve
Tree
p445
(dp446
g19
I0
sg21
I00
sbsg22
(imyEvolve
Tree
p447
(dp448
g19
I0
sg20
F1.342240831255852
sg21
I01
sbsg25
I00
sg26
g44
sbsg25
I00
sg26
g57
sbsg22
(imyEvolve
Tree
p449
(dp450
g12
(imyEvolve
Tree
p451
(dp452
g19
I1
sg7
(imyEvolve
Tree
p453
(dp454
g19
I0
sg20
F2.492561665101137
sg21
I01
sbsg22
(imyEvolve
Tree
p455
(dp456
g19
I0
sg20
F2.36960397191757
sg21
I01
sbsg25
I00
sg26
g27
sbsg19
I2
sg25
I01
sg26
g28
sbsg25
I00
sg26
g57
sbsg19
I4
sg25
I01
sg26
g28
sba(imyEvolve
Tree
p457
(dp458
g19
I4
sg7
(imyEvolve
Tree
p459
(dp460
g19
I3
sg7
(imyEvolve
Tree
p461
(dp462
g19
I2
sg7
(imyEvolve
Tree
p463
(dp464
g19
I1
sg7
(imyEvolve
Tree
p465
(dp466
g19
I0
sg20
F-2.3765690754430913
sg21
I01
sbsg22
(imyEvolve
Tree
p467
(dp468
g19
I0
sg20
F1.7485723639605277
sg21
I01
sbsg25
I00
sg26
g27
sbsg22
(imyEvolve
Tree
p469
(dp470
g12
(imyEvolve
Tree
p471
(dp472
g19
I0
sg20
F4.154177197317727
sg21
I01
sbsg19
I1
sg25
I01
sg26
g38
sbsg25
I00
sg26
g57
sbsg22
(imyEvolve
Tree
p473
(dp474
g19
I2
sg7
(imyEvolve
Tree
p475
(dp476
g19
I1
sg7
(imyEvolve
Tree
p477
(dp478
g19
I0
sg21
I00
sbsg22
(imyEvolve
Tree
p479
(dp480
g19
I0
sg21
I00
sbsg25
I00
sg26
g57
sbsg22
(imyEvolve
Tree
p481
(dp482
g19
I1
sg7
(imyEvolve
Tree
p483
(dp484
g19
I0
sg20
F-0.5595042169001188
sg21
I01
sbsg22
(imyEvolve
Tree
p485
(dp486
g19
I0
sg20
F-0.6644126545342965
sg21
I01
sbsg25
I00
sg26
g57
sbsg25
I00
sg26
g44
sbsg25
I00
sg26
g57
sbsg22
(imyEvolve
Tree
p487
(dp488
g19
I3
sg7
(imyEvolve
Tree
p489
(dp490
g19
I2
sg7
(imyEvolve
Tree
p491
(dp492
g19
I1
sg7
(imyEvolve
Tree
p493
(dp494
g19
I0
sg21
I00
sbsg22
(imyEvolve
Tree
p495
(dp496
g19
I0
sg20
F4.832272041503758
sg21
I01
sbsg25
I00
sg26
g44
sbsg22
(imyEvolve
Tree
p497
(dp498
g19
I1
sg7
(imyEvolve
Tree
p499
(dp500
g19
I0
sg20
F-1.2936720320678807
sg21
I01
sbsg22
(imyEvolve
Tree
p501
(dp502
g19
I0
sg20
F-4.55938172783005
sg21
I01
sbsg25
I00
sg26
g27
sbsg25
I00
sg26
g57
sbsg22
(imyEvolve
Tree
p503
(dp504
g12
(imyEvolve
Tree
p505
(dp506
g12
(imyEvolve
Tree
p507
(dp508
g19
I0
sg21
I00
sbsg19
I1
sg25
I01
sg26
g29
sbsg19
I2
sg25
I01
sg26
g29
sbsg25
I00
sg26
g44
sbsg25
I00
sg26
g57
sba(imyEvolve
Tree
p509
(dp510
g19
I2
sg7
(imyEvolve
Tree
p511
(dp512
g19
I1
sg7
(imyEvolve
Tree
p513
(dp514
g19
I0
sg20
F0.9571999104677733
sg21
I01
sbsg22
(imyEvolve
Tree
p515
(dp516
g19
I0
sg21
I00
sbsg25
I00
sg26
g27
sbsg22
(imyEvolve
Tree
p517
(dp518
g12
(imyEvolve
Tree
p519
(dp520
g19
I0
sg20
F-2.5416399470877336
sg21
I01
sbsg19
I1
sg25
I01
sg26
g29
sbsg25
I00
sg26
g57
sba(imyEvolve
Tree
p521
(dp522
g19
I3
sg7
(imyEvolve
Tree
p523
(dp524
g12
(imyEvolve
Tree
p525
(dp526
g12
(imyEvolve
Tree
p527
(dp528
g19
I0
sg21
I00
sbsg19
I1
sg25
I01
sg26
g38
sbsg19
I2
sg25
I01
sg26
g29
sbsg22
(imyEvolve
Tree
p529
(dp530
g12
(imyEvolve
Tree
p531
(dp532
g12
(imyEvolve
Tree
p533
(dp534
g19
I0
sg20
F-0.49528892852771644
sg21
I01
sbsg19
I1
sg25
I01
sg26
g29
sbsg19
I2
sg25
I01
sg26
g29
sbsg25
I00
sg26
g44
sba(imyEvolve
Tree
p535
(dp536
g12
(imyEvolve
Tree
p537
(dp538
g7
(imyEvolve
Tree
p539
(dp540
g12
(imyEvolve
Tree
p541
(dp542
g19
I0
sg21
I00
sbsg19
I1
sg25
I01
sg26
g38
sbsg19
I2
sg22
(imyEvolve
Tree
p543
(dp544
g7
(imyEvolve
Tree
p545
(dp546
g19
I0
sg20
F-2.700757692288296
sg21
I01
sbsg19
I1
sg22
(imyEvolve
Tree
p547
(dp548
g19
I0
sg20
F-2.4673139301749893
sg21
I01
sbsg25
I00
sg26
g57
sbsg25
I00
sg26
g27
sbsg19
I3
sg25
I01
sg26
g43
sba(imyEvolve
Tree
p549
(dp550
g12
(imyEvolve
Tree
p551
(dp552
g12
(imyEvolve
Tree
p553
(dp554
g19
I3
sg7
(imyEvolve
Tree
p555
(dp556
g19
I2
sg7
(imyEvolve
Tree
p557
(dp558
g19
I1
sg7
(imyEvolve
Tree
p559
(dp560
g19
I0
sg21
I00
sbsg22
(imyEvolve
Tree
p561
(dp562
g19
I0
sg20
F-0.5083375146060787
sg21
I01
sbsg25
I00
sg26
g27
sbsg22
(imyEvolve
Tree
p563
(dp564
g12
(imyEvolve
Tree
p565
(dp566
g19
I0
sg20
F-1.0733157776728097
sg21
I01
sbsg19
I1
sg25
I01
sg26
g38
sbsg25
I00
sg26
g57
sbsg22
(imyEvolve
Tree
p567
(dp568
g19
I2
sg7
(imyEvolve
Tree
p569
(dp570
g12
(imyEvolve
Tree
p571
(dp572
g19
I0
sg20
F2.2708770441407236
sg21
I01
sbsg19
I1
sg25
I01
sg26
g38
sbsg22
(imyEvolve
Tree
p573
(dp574
g19
I1
sg7
(imyEvolve
Tree
p575
(dp576
g19
I0
sg21
I00
sbsg22
(imyEvolve
Tree
p577
(dp578
g19
I0
sg20
F-4.083420598656545
sg21
I01
sbsg25
I00
sg26
g27
sbsg25
I00
sg26
g57
sbsg25
I00
sg26
g44
sbsg19
I4
sg25
I01
sg26
g38
sbsg19
I5
sg25
I01
sg26
g28
sba(imyEvolve
Tree
p579
(dp580
g12
(imyEvolve
Tree
p581
(dp582
g12
(imyEvolve
Tree
p583
(dp584
g19
I0
sg21
I00
sbsg19
I1
sg25
I01
sg26
g29
sbsg19
I2
sg25
I01
sg26
g43
sba(imyEvolve
Tree
p585
(dp586
g7
(imyEvolve
Tree
p587
(dp588
g12
(imyEvolve
Tree
p589
(dp590
g7
(imyEvolve
Tree
p591
(dp592
g12
(imyEvolve
Tree
p593
(dp594
g19
I0
sg20
F-1.993995144124523
sg21
I01
sbsg19
I1
sg25
I01
sg26
g38
sbsg19
I2
sg22
(imyEvolve
Tree
p595
(dp596
g7
(imyEvolve
Tree
p597
(dp598
g19
I0
sg21
I00
sbsg19
I1
sg22
(imyEvolve
Tree
p599
(dp600
g19
I0
sg20
F-1.8928996244504734
sg21
I01
sbsg25
I00
sg26
g27
sbsg25
I00
sg26
g27
sbsg19
I3
sg25
I01
sg26
g43
sbsg19
I4
sg22
(imyEvolve
Tree
p601
(dp602
g7
(imyEvolve
Tree
p603
(dp604
g12
(imyEvolve
Tree
p605
(dp606
g12
(imyEvolve
Tree
p607
(dp608
g19
I0
sg21
I00
sbsg19
I1
sg25
I01
sg26
g43
sbsg19
I2
sg25
I01
sg26
g38
sbsg19
I3
sg22
(imyEvolve
Tree
p609
(dp610
g7
(imyEvolve
Tree
p611
(dp612
g7
(imyEvolve
Tree
p613
(dp614
g19
I0
sg20
F3.777299811553508
sg21
I01
sbsg19
I1
sg22
(imyEvolve
Tree
p615
(dp616
g19
I0
sg21
I00
sbsg25
I00
sg26
g27
sbsg19
I2
sg22
(imyEvolve
Tree
p617
(dp618
g7
(imyEvolve
Tree
p619
(dp620
g19
I0
sg20
F4.863781896011993
sg21
I01
sbsg19
I1
sg22
(imyEvolve
Tree
p621
(dp622
g19
I0
sg20
F2.366546521035514
sg21
I01
sbsg25
I00
sg26
g57
sbsg25
I00
sg26
g27
sbsg25
I00
sg26
g57
sbsg25
I00
sg26
g27
sba(imyEvolve
Tree
p623
(dp624
g12
(imyEvolve
Tree
p625
(dp626
g7
(imyEvolve
Tree
p627
(dp628
g7
(imyEvolve
Tree
p629
(dp630
g19
I0
sg21
I00
sbsg19
I1
sg22
(imyEvolve
Tree
p631
(dp632
g19
I0
sg21
I00
sbsg25
I00
sg26
g44
sbsg19
I2
sg22
(imyEvolve
Tree
p633
(dp634
g12
(imyEvolve
Tree
p635
(dp636
g19
I0
sg21
I00
sbsg19
I1
sg25
I01
sg26
g28
sbsg25
I00
sg26
g44
sbsg19
I3
sg25
I01
sg26
g29
sba(imyEvolve
Tree
p637
(dp638
g19
I2
sg7
(imyEvolve
Tree
p639
(dp640
g12
(imyEvolve
Tree
p641
(dp642
g19
I0
sg20
F-0.9822036146600057
sg21
I01
sbsg19
I1
sg25
I01
sg26
g38
sbsg22
(imyEvolve
Tree
p643
(dp644
g12
(imyEvolve
Tree
p645
(dp646
g19
I0
sg20
F-3.0181905353376184
sg21
I01
sbsg19
I1
sg25
I01
sg26
g28
sbsg25
I00
sg26
g44
sba(imyEvolve
Tree
p647
(dp648
g7
(imyEvolve
Tree
p649
(dp650
g12
(imyEvolve
Tree
p651
(dp652
g12
(imyEvolve
Tree
p653
(dp654
g19
I0
sg20
F1.6929408264421202
sg21
I01
sbsg19
I1
sg25
I01
sg26
g28
sbsg19
I2
sg25
I01
sg26
g43
sbsg19
I3
sg22
(imyEvolve
Tree
p655
(dp656
g12
(imyEvolve
Tree
p657
(dp658
g12
(imyEvolve
Tree
p659
(dp660
g19
I0
sg20
F2.6007867663599926
sg21
I01
sbsg19
I1
sg25
I01
sg26
g38
sbsg19
I2
sg25
I01
sg26
g38
sbsg25
I00
sg26
g57
sba(imyEvolve
Tree
p661
(dp662
g12
(imyEvolve
Tree
p663
(dp664
g7
(imyEvolve
Tree
p665
(dp666
g7
(imyEvolve
Tree
p667
(dp668
g19
I0
sg20
F-0.41532056258376926
sg21
I01
sbsg19
I1
sg22
(imyEvolve
Tree
p669
(dp670
g19
I0
sg21
I00
sbsg25
I00
sg26
g27
sbsg19
I2
sg22
(imyEvolve
Tree
p671
(dp672
g12
(imyEvolve
Tree
p673
(dp674
g19
I0
sg20
F0.45881118724903125
sg21
I01
sbsg19
I1
sg25
I01
sg26
g28
sbsg25
I00
sg26
g27
sbsg19
I3
sg25
I01
sg26
g28
sba(imyEvolve
Tree
p675
(dp676
g19
I2
sg7
(imyEvolve
Tree
p677
(dp678
g12
(imyEvolve
Tree
p679
(dp680
g19
I0
sg20
F-1.7080395537804858
sg21
I01
sbsg19
I1
sg25
I01
sg26
g38
sbsg22
(imyEvolve
Tree
p681
(dp682
g12
(imyEvolve
Tree
p683
(dp684
g19
I0
sg20
F-1.2792772355433737
sg21
I01
sbsg19
I1
sg25
I01
sg26
g43
sbsg25
I00
sg26
g27
sbaasS'alpha'
p685
F0.0012068478921166473
sS'fitness'
p686
cnumpy.core.multiarray
scalar
p687
(cnumpy
dtype
p688
(S'f8'
p689
I0
I1
tp690
Rp691
(I3
S'<'
p692
NNNI-1
I-1
I0
tp693
bS'\x12\xa5\xbd\x0b\xdf)\xe6?'
p694
tp695
Rp696
sS'weightSharing'
p697
(lp698
I01
aI00
asS'fitnessValid'
p699
I00
sS'resolution'
p700
I81
sb.