(imyEvolve
Individual
p0
(dp1
S'funcs'
p2
(lp3
(lp4
(imyEvolve
Tree
p5
(dp6
S'depth'
p7
I5
sS'left'
p8
(imyEvolve
Tree
p9
(dp10
g7
I4
sg8
(imyEvolve
Tree
p11
(dp12
S'below'
p13
(imyEvolve
Tree
p14
(dp15
g7
I2
sg8
(imyEvolve
Tree
p16
(dp17
g7
I1
sg8
(imyEvolve
Tree
p18
(dp19
g7
I0
sS'isConstant'
p20
I00
sbsS'right'
p21
(imyEvolve
Tree
p22
(dp23
g7
I0
sg20
I00
sbsS'single'
p24
I00
sS'op'
p25
coperator
sub
p26
sbsg21
(imyEvolve
Tree
p27
(dp28
g7
I1
sg8
(imyEvolve
Tree
p29
(dp30
g7
I0
sg20
I00
sbsg21
(imyEvolve
Tree
p31
(dp32
g7
I0
sS'constant'
p33
F-4.818287535123446
sg20
I01
sbsg24
I00
sg25
coperator
mul
p34
sbsg24
I00
sg25
g26
sbsg7
I3
sg24
I01
sg25
cmyEvolve
square
p35
sbsg21
(imyEvolve
Tree
p36
(dp37
g13
(imyEvolve
Tree
p38
(dp39
g7
I2
sg8
(imyEvolve
Tree
p40
(dp41
g13
(imyEvolve
Tree
p42
(dp43
g7
I0
sg20
I00
sbsg7
I1
sg24
I01
sg25
g35
sbsg21
(imyEvolve
Tree
p44
(dp45
g13
(imyEvolve
Tree
p46
(dp47
g7
I0
sg33
F-4.04899217581312
sg20
I01
sbsg7
I1
sg24
I01
sg25
cmyEvolve
absSqrt
p48
sbsg24
I00
sg25
g34
sbsg7
I3
sg24
I01
sg25
cmath
cos
p49
sbsg24
I00
sg25
g26
sbsg21
(imyEvolve
Tree
p50
(dp51
g7
I4
sg8
(imyEvolve
Tree
p52
(dp53
g13
(imyEvolve
Tree
p54
(dp55
g7
I2
sg8
(imyEvolve
Tree
p56
(dp57
g7
I1
sg8
(imyEvolve
Tree
p58
(dp59
g7
I0
sg20
I00
sbsg21
(imyEvolve
Tree
p60
(dp61
g7
I0
sg33
F3.5877057545803037
sg20
I01
sbsg24
I00
sg25
coperator
add
p62
sbsg21
(imyEvolve
Tree
p63
(dp64
g13
(imyEvolve
Tree
p65
(dp66
g7
I0
sg20
I00
sbsg7
I1
sg24
I01
sg25
g35
sbsg24
I00
sg25
g62
sbsg7
I3
sg24
I01
sg25
g48
sbsg21
(imyEvolve
Tree
p67
(dp68
g13
(imyEvolve
Tree
p69
(dp70
g13
(imyEvolve
Tree
p71
(dp72
g13
(imyEvolve
Tree
p73
(dp74
g7
I0
sg33
F3.9906393132366844
sg20
I01
sbsg7
I1
sg24
I01
sg25
g35
sbsg7
I2
sg24
I01
sg25
g49
sbsg7
I3
sg24
I01
sg25
g35
sbsg24
I00
sg25
g26
sbsg24
I00
sg25
g26
sba(imyEvolve
Tree
p75
(dp76
g13
(imyEvolve
Tree
p77
(dp78
g7
I1
sg8
(imyEvolve
Tree
p79
(dp80
g7
I0
sg20
I00
sbsg21
(imyEvolve
Tree
p81
(dp82
g7
I0
sg20
I00
sbsg24
I00
sg25
g26
sbsg7
I2
sg24
I01
sg25
g48
sba(imyEvolve
Tree
p83
(dp84
g13
(imyEvolve
Tree
p85
(dp86
g13
(imyEvolve
Tree
p87
(dp88
g7
I2
sg8
(imyEvolve
Tree
p89
(dp90
g13
(imyEvolve
Tree
p91
(dp92
g7
I0
sg20
I00
sbsg7
I1
sg24
I01
sg25
g35
sbsg21
(imyEvolve
Tree
p93
(dp94
g13
(imyEvolve
Tree
p95
(dp96
g7
I0
sg20
I00
sbsg7
I1
sg24
I01
sg25
g35
sbsg24
I00
sg25
g26
sbsg7
I3
sg24
I01
sg25
cmath
sin
p97
sbsg7
I4
sg24
I01
sg25
g97
sba(imyEvolve
Tree
p98
(dp99
g13
(imyEvolve
Tree
p100
(dp101
g13
(imyEvolve
Tree
p102
(dp103
g7
I2
sg8
(imyEvolve
Tree
p104
(dp105
g7
I1
sg8
(imyEvolve
Tree
p106
(dp107
g7
I0
sg20
I00
sbsg21
(imyEvolve
Tree
p108
(dp109
g7
I0
sg33
F-0.5483455208503587
sg20
I01
sbsg24
I00
sg25
g62
sbsg21
(imyEvolve
Tree
p110
(dp111
g7
I1
sg8
(imyEvolve
Tree
p112
(dp113
g7
I0
sg20
I00
sbsg21
(imyEvolve
Tree
p114
(dp115
g7
I0
sg20
I00
sbsg24
I00
sg25
g62
sbsg24
I00
sg25
g34
sbsg7
I3
sg24
I01
sg25
g35
sbsg7
I4
sg24
I01
sg25
g97
sba(imyEvolve
Tree
p116
(dp117
g13
(imyEvolve
Tree
p118
(dp119
g7
I4
sg8
(imyEvolve
Tree
p120
(dp121
g7
I3
sg8
(imyEvolve
Tree
p122
(dp123
g13
(imyEvolve
Tree
p124
(dp125
g7
I1
sg8
(imyEvolve
Tree
p126
(dp127
g7
I0
sg33
F-3.8181658456308023
sg20
I01
sbsg21
(imyEvolve
Tree
p128
(dp129
g7
I0
sg33
F0.2809012406741118
sg20
I01
sbsg24
I00
sg25
g62
sbsg7
I2
sg24
I01
sg25
g35
sbsg21
(imyEvolve
Tree
p130
(dp131
g13
(imyEvolve
Tree
p132
(dp133
g13
(imyEvolve
Tree
p134
(dp135
g7
I0
sg33
F-1.2713528092621096
sg20
I01
sbsg7
I1
sg24
I01
sg25
g48
sbsg7
I2
sg24
I01
sg25
g97
sbsg24
I00
sg25
g62
sbsg21
(imyEvolve
Tree
p136
(dp137
g7
I3
sg8
(imyEvolve
Tree
p138
(dp139
g13
(imyEvolve
Tree
p140
(dp141
g13
(imyEvolve
Tree
p142
(dp143
g7
I0
sg20
I00
sbsg7
I1
sg24
I01
sg25
g35
sbsg7
I2
sg24
I01
sg25
g35
sbsg21
(imyEvolve
Tree
p144
(dp145
g13
(imyEvolve
Tree
p146
(dp147
g13
(imyEvolve
Tree
p148
(dp149
g7
I0
sg33
F-1.0753471898749059
sg20
I01
sbsg7
I1
sg24
I01
sg25
g35
sbsg7
I2
sg24
I01
sg25
g35
sbsg24
I00
sg25
g34
sbsg24
I00
sg25
g62
sbsg7
I5
sg24
I01
sg25
g48
sba(imyEvolve
Tree
p150
(dp151
g7
I5
sg8
(imyEvolve
Tree
p152
(dp153
g13
(imyEvolve
Tree
p154
(dp155
g7
I3
sg8
(imyEvolve
Tree
p156
(dp157
g13
(imyEvolve
Tree
p158
(dp159
g13
(imyEvolve
Tree
p160
(dp161
g7
I0
sg33
F-2.8407950668411877
sg20
I01
sbsg7
I1
sg24
I01
sg25
g48
sbsg7
I2
sg24
I01
sg25
g48
sbsg21
(imyEvolve
Tree
p162
(dp163
g13
(imyEvolve
Tree
p164
(dp165
g13
(imyEvolve
Tree
p166
(dp167
g7
I0
sg20
I00
sbsg7
I1
sg24
I01
sg25
g49
sbsg7
I2
sg24
I01
sg25
g35
sbsg24
I00
sg25
g34
sbsg7
I4
sg24
I01
sg25
g49
sbsg21
(imyEvolve
Tree
p168
(dp169
g13
(imyEvolve
Tree
p170
(dp171
g7
I3
sg8
(imyEvolve
Tree
p172
(dp173
g7
I2
sg8
(imyEvolve
Tree
p174
(dp175
g13
(imyEvolve
Tree
p176
(dp177
g7
I0
sg33
F-2.1055791998376296
sg20
I01
sbsg7
I1
sg24
I01
sg25
g48
sbsg21
(imyEvolve
Tree
p178
(dp179
g7
I1
sg8
(imyEvolve
Tree
p180
(dp181
g7
I0
sg20
I00
sbsg21
(imyEvolve
Tree
p182
(dp183
g7
I0
sg33
F-4.560744069950657
sg20
I01
sbsg24
I00
sg25
g26
sbsg24
I00
sg25
g26
sbsg21
(imyEvolve
Tree
p184
(dp185
g7
I2
sg8
(imyEvolve
Tree
p186
(dp187
g13
(imyEvolve
Tree
p188
(dp189
g7
I0
sg20
I00
sbsg7
I1
sg24
I01
sg25
g35
sbsg21
(imyEvolve
Tree
p190
(dp191
g7
I1
sg8
(imyEvolve
Tree
p192
(dp193
g7
I0
sg33
F4.8341465624649445
sg20
I01
sbsg21
(imyEvolve
Tree
p194
(dp195
g7
I0
sg33
F-0.4502286457940965
sg20
I01
sbsg24
I00
sg25
g62
sbsg24
I00
sg25
g26
sbsg24
I00
sg25
g34
sbsg7
I4
sg24
I01
sg25
g97
sbsg24
I00
sg25
g26
sba(imyEvolve
Tree
p196
(dp197
g7
I5
sg8
(imyEvolve
Tree
p198
(dp199
g7
I4
sg8
(imyEvolve
Tree
p200
(dp201
g7
I3
sg8
(imyEvolve
Tree
p202
(dp203
g13
(imyEvolve
Tree
p204
(dp205
g7
I1
sg8
(imyEvolve
Tree
p206
(dp207
g7
I0
sg20
I00
sbsg21
(imyEvolve
Tree
p208
(dp209
g7
I0
sg20
I00
sbsg24
I00
sg25
g62
sbsg7
I2
sg24
I01
sg25
g97
sbsg21
(imyEvolve
Tree
p210
(dp211
g13
(imyEvolve
Tree
p212
(dp213
g13
(imyEvolve
Tree
p214
(dp215
g7
I0
sg20
I00
sbsg7
I1
sg24
I01
sg25
g35
sbsg7
I2
sg24
I01
sg25
g97
sbsg24
I00
sg25
g62
sbsg21
(imyEvolve
Tree
p216
(dp217
g7
I3
sg8
(imyEvolve
Tree
p218
(dp219
g7
I2
sg8
(imyEvolve
Tree
p220
(dp221
g13
(imyEvolve
Tree
p222
(dp223
g7
I0
sg20
I00
sbsg7
I1
sg24
I01
sg25
g35
sbsg21
(imyEvolve
Tree
p224
(dp225
g13
(imyEvolve
Tree
p226
(dp227
g7
I0
sg33
F-2.9274401564687924
sg20
I01
sbsg7
I1
sg24
I01
sg25
g49
sbsg24
I00
sg25
g34
sbsg21
(imyEvolve
Tree
p228
(dp229
g7
I2
sg8
(imyEvolve
Tree
p230
(dp231
g7
I1
sg8
(imyEvolve
Tree
p232
(dp233
g7
I0
sg33
F-0.09165970830206405
sg20
I01
sbsg21
(imyEvolve
Tree
p234
(dp235
g7
I0
sg33
F0.2192656008952092
sg20
I01
sbsg24
I00
sg25
g34
sbsg21
(imyEvolve
Tree
p236
(dp237
g13
(imyEvolve
Tree
p238
(dp239
g7
I0
sg33
F-0.7478968760645097
sg20
I01
sbsg7
I1
sg24
I01
sg25
g48
sbsg24
I00
sg25
g34
sbsg24
I00
sg25
g62
sbsg24
I00
sg25
g34
sbsg21
(imyEvolve
Tree
p240
(dp241
g13
(imyEvolve
Tree
p242
(dp243
g7
I3
sg8
(imyEvolve
Tree
p244
(dp245
g13
(imyEvolve
Tree
p246
(dp247
g13
(imyEvolve
Tree
p248
(dp249
g7
I0
sg20
I00
sbsg7
I1
sg24
I01
sg25
g48
sbsg7
I2
sg24
I01
sg25
g48
sbsg21
(imyEvolve
Tree
p250
(dp251
g7
I2
sg8
(imyEvolve
Tree
p252
(dp253
g7
I1
sg8
(imyEvolve
Tree
p254
(dp255
g7
I0
sg33
F4.855239861789055
sg20
I01
sbsg21
(imyEvolve
Tree
p256
(dp257
g7
I0
sg20
I00
sbsg24
I00
sg25
g26
sbsg21
(imyEvolve
Tree
p258
(dp259
g7
I1
sg8
(imyEvolve
Tree
p260
(dp261
g7
I0
sg20
I00
sbsg21
(imyEvolve
Tree
p262
(dp263
g7
I0
sg33
F4.869403519807108
sg20
I01
sbsg24
I00
sg25
g26
sbsg24
I00
sg25
g26
sbsg24
I00
sg25
g34
sbsg7
I4
sg24
I01
sg25
g48
sbsg24
I00
sg25
g26
sba(imyEvolve
Tree
p264
(dp265
g13
(imyEvolve
Tree
p266
(dp267
g7
I3
sg8
(imyEvolve
Tree
p268
(dp269
g13
(imyEvolve
Tree
p270
(dp271
g7
I1
sg8
(imyEvolve
Tree
p272
(dp273
g7
I0
sg33
F-0.67860372331773
sg20
I01
sbsg21
(imyEvolve
Tree
p274
(dp275
g7
I0
sg33
F-0.054059907100072024
sg20
I01
sbsg24
I00
sg25
g34
sbsg7
I2
sg24
I01
sg25
g49
sbsg21
(imyEvolve
Tree
p276
(dp277
g13
(imyEvolve
Tree
p278
(dp279
g7
I1
sg8
(imyEvolve
Tree
p280
(dp281
g7
I0
sg20
I00
sbsg21
(imyEvolve
Tree
p282
(dp283
g7
I0
sg20
I00
sbsg24
I00
sg25
g62
sbsg7
I2
sg24
I01
sg25
g97
sbsg24
I00
sg25
g34
sbsg7
I4
sg24
I01
sg25
g49
sba(imyEvolve
Tree
p284
(dp285
g7
I5
sg8
(imyEvolve
Tree
p286
(dp287
g7
I4
sg8
(imyEvolve
Tree
p288
(dp289
g7
I3
sg8
(imyEvolve
Tree
p290
(dp291
g7
I2
sg8
(imyEvolve
Tree
p292
(dp293
g13
(imyEvolve
Tree
p294
(dp295
g7
I0
sg33
F0.07123785856958609
sg20
I01
sbsg7
I1
sg24
I01
sg25
g35
sbsg21
(imyEvolve
Tree
p296
(dp297
g7
I1
sg8
(imyEvolve
Tree
p298
(dp299
g7
I0
sg33
F3.1072527685853135
sg20
I01
sbsg21
(imyEvolve
Tree
p300
(dp301
g7
I0
sg33
F1.0566652484312282
sg20
I01
sbsg24
I00
sg25
g26
sbsg24
I00
sg25
g62
sbsg21
(imyEvolve
Tree
p302
(dp303
g7
I2
sg8
(imyEvolve
Tree
p304
(dp305
g13
(imyEvolve
Tree
p306
(dp307
g7
I0
sg33
F-4.973797110804598
sg20
I01
sbsg7
I1
sg24
I01
sg25
g49
sbsg21
(imyEvolve
Tree
p308
(dp309
g7
I1
sg8
(imyEvolve
Tree
p310
(dp311
g7
I0
sg20
I00
sbsg21
(imyEvolve
Tree
p312
(dp313
g7
I0
sg20
I00
sbsg24
I00
sg25
g34
sbsg24
I00
sg25
g34
sbsg24
I00
sg25
g62
sbsg21
(imyEvolve
Tree
p314
(dp315
g13
(imyEvolve
Tree
p316
(dp317
g13
(imyEvolve
Tree
p318
(dp319
g7
I1
sg8
(imyEvolve
Tree
p320
(dp321
g7
I0
sg33
F2.0022809639983716
sg20
I01
sbsg21
(imyEvolve
Tree
p322
(dp323
g7
I0
sg20
I00
sbsg24
I00
sg25
g34
sbsg7
I2
sg24
I01
sg25
g97
sbsg7
I3
sg24
I01
sg25
g48
sbsg24
I00
sg25
g26
sbsg21
(imyEvolve
Tree
p324
(dp325
g7
I4
sg8
(imyEvolve
Tree
p326
(dp327
g7
I3
sg8
(imyEvolve
Tree
p328
(dp329
g13
(imyEvolve
Tree
p330
(dp331
g7
I1
sg8
(imyEvolve
Tree
p332
(dp333
g7
I0
sg33
F-3.5068560322378426
sg20
I01
sbsg21
(imyEvolve
Tree
p334
(dp335
g7
I0
sg20
I00
sbsg24
I00
sg25
g62
sbsg7
I2
sg24
I01
sg25
g35
sbsg21
(imyEvolve
Tree
p336
(dp337
g13
(imyEvolve
Tree
p338
(dp339
g7
I1
sg8
(imyEvolve
Tree
p340
(dp341
g7
I0
sg20
I00
sbsg21
(imyEvolve
Tree
p342
(dp343
g7
I0
sg33
F-3.19166451698187
sg20
I01
sbsg24
I00
sg25
g34
sbsg7
I2
sg24
I01
sg25
g48
sbsg24
I00
sg25
g34
sbsg21
(imyEvolve
Tree
p344
(dp345
g7
I3
sg8
(imyEvolve
Tree
p346
(dp347
g13
(imyEvolve
Tree
p348
(dp349
g7
I1
sg8
(imyEvolve
Tree
p350
(dp351
g7
I0
sg20
I00
sbsg21
(imyEvolve
Tree
p352
(dp353
g7
I0
sg33
F1.5856598414964154
sg20
I01
sbsg24
I00
sg25
g62
sbsg7
I2
sg24
I01
sg25
g97
sbsg21
(imyEvolve
Tree
p354
(dp355
g7
I2
sg8
(imyEvolve
Tree
p356
(dp357
g7
I1
sg8
(imyEvolve
Tree
p358
(dp359
g7
I0
sg20
I00
sbsg21
(imyEvolve
Tree
p360
(dp361
g7
I0
sg20
I00
sbsg24
I00
sg25
g26
sbsg21
(imyEvolve
Tree
p362
(dp363
g7
I1
sg8
(imyEvolve
Tree
p364
(dp365
g7
I0
sg33
F1.1932841490232073
sg20
I01
sbsg21
(imyEvolve
Tree
p366
(dp367
g7
I0
sg20
I00
sbsg24
I00
sg25
g62
sbsg24
I00
sg25
g34
sbsg24
I00
sg25
g62
sbsg24
I00
sg25
g26
sbsg24
I00
sg25
g26
sba(imyEvolve
Tree
p368
(dp369
g13
(imyEvolve
Tree
p370
(dp371
g13
(imyEvolve
Tree
p372
(dp373
g13
(imyEvolve
Tree
p374
(dp375
g7
I2
sg8
(imyEvolve
Tree
p376
(dp377
g7
I1
sg8
(imyEvolve
Tree
p378
(dp379
g7
I0
sg33
F-1.616663429432177
sg20
I01
sbsg21
(imyEvolve
Tree
p380
(dp381
g7
I0
sg33
F-1.1520049481084538
sg20
I01
sbsg24
I00
sg25
g62
sbsg21
(imyEvolve
Tree
p382
(dp383
g7
I1
sg8
(imyEvolve
Tree
p384
(dp385
g7
I0
sg33
F-0.0686024827373437
sg20
I01
sbsg21
(imyEvolve
Tree
p386
(dp387
g7
I0
sg33
F4.053866933205104
sg20
I01
sbsg24
I00
sg25
g26
sbsg24
I00
sg25
g26
sbsg7
I3
sg24
I01
sg25
g48
sbsg7
I4
sg24
I01
sg25
g48
sbsg7
I5
sg24
I01
sg25
g35
sba(imyEvolve
Tree
p388
(dp389
g7
I4
sg8
(imyEvolve
Tree
p390
(dp391
g7
I3
sg8
(imyEvolve
Tree
p392
(dp393
g13
(imyEvolve
Tree
p394
(dp395
g7
I1
sg8
(imyEvolve
Tree
p396
(dp397
g7
I0
sg33
F-2.8241372390357045
sg20
I01
sbsg21
(imyEvolve
Tree
p398
(dp399
g7
I0
sg20
I00
sbsg24
I00
sg25
g34
sbsg7
I2
sg24
I01
sg25
g97
sbsg21
(imyEvolve
Tree
p400
(dp401
g7
I2
sg8
(imyEvolve
Tree
p402
(dp403
g13
(imyEvolve
Tree
p404
(dp405
g7
I0
sg33
F3.5840288481010116
sg20
I01
sbsg7
I1
sg24
I01
sg25
g48
sbsg21
(imyEvolve
Tree
p406
(dp407
g13
(imyEvolve
Tree
p408
(dp409
g7
I0
sg20
I00
sbsg7
I1
sg24
I01
sg25
g97
sbsg24
I00
sg25
g26
sbsg24
I00
sg25
g62
sbsg21
(imyEvolve
Tree
p410
(dp411
g7
I3
sg8
(imyEvolve
Tree
p412
(dp413
g7
I2
sg8
(imyEvolve
Tree
p414
(dp415
g13
(imyEvolve
Tree
p416
(dp417
g7
I0
sg20
I00
sbsg7
I1
sg24
I01
sg25
g35
sbsg21
(imyEvolve
Tree
p418
(dp419
g13
(imyEvolve
Tree
p420
(dp421
g7
I0
sg33
F2.055115987608205
sg20
I01
sbsg7
I1
sg24
I01
sg25
g97
sbsg24
I00
sg25
g26
sbsg21
(imyEvolve
Tree
p422
(dp423
g13
(imyEvolve
Tree
p424
(dp425
g7
I1
sg8
(imyEvolve
Tree
p426
(dp427
g7
I0
sg33
F2.55592730184937
sg20
I01
sbsg21
(imyEvolve
Tree
p428
(dp429
g7
I0
sg33
F1.2445518838694376
sg20
I01
sbsg24
I00
sg25
g62
sbsg7
I2
sg24
I01
sg25
g97
sbsg24
I00
sg25
g62
sbsg24
I00
sg25
g34
sba(imyEvolve
Tree
p430
(dp431
g7
I3
sg8
(imyEvolve
Tree
p432
(dp433
g7
I2
sg8
(imyEvolve
Tree
p434
(dp435
g13
(imyEvolve
Tree
p436
(dp437
g7
I0
sg20
I00
sbsg7
I1
sg24
I01
sg25
g49
sbsg21
(imyEvolve
Tree
p438
(dp439
g13
(imyEvolve
Tree
p440
(dp441
g7
I0
sg20
I00
sbsg7
I1
sg24
I01
sg25
g48
sbsg24
I00
sg25
g62
sbsg21
(imyEvolve
Tree
p442
(dp443
g7
I2
sg8
(imyEvolve
Tree
p444
(dp445
g13
(imyEvolve
Tree
p446
(dp447
g7
I0
sg20
I00
sbsg7
I1
sg24
I01
sg25
g97
sbsg21
(imyEvolve
Tree
p448
(dp449
g7
I1
sg8
(imyEvolve
Tree
p450
(dp451
g7
I0
sg20
I00
sbsg21
(imyEvolve
Tree
p452
(dp453
g7
I0
sg20
I00
sbsg24
I00
sg25
g62
sbsg24
I00
sg25
g26
sbsg24
I00
sg25
g62
sba(imyEvolve
Tree
p454
(dp455
g7
I5
sg8
(imyEvolve
Tree
p456
(dp457
g13
(imyEvolve
Tree
p458
(dp459
g13
(imyEvolve
Tree
p460
(dp461
g13
(imyEvolve
Tree
p462
(dp463
g7
I1
sg8
(imyEvolve
Tree
p464
(dp465
g7
I0
sg33
F-3.6058709469957364
sg20
I01
sbsg21
(imyEvolve
Tree
p466
(dp467
g7
I0
sg33
F4.172036739513533
sg20
I01
sbsg24
I00
sg25
g26
sbsg7
I2
sg24
I01
sg25
g35
sbsg7
I3
sg24
I01
sg25
g48
sbsg7
I4
sg24
I01
sg25
g48
sbsg21
(imyEvolve
Tree
p468
(dp469
g13
(imyEvolve
Tree
p470
(dp471
g13
(imyEvolve
Tree
p472
(dp473
g13
(imyEvolve
Tree
p474
(dp475
g7
I1
sg8
(imyEvolve
Tree
p476
(dp477
g7
I0
sg20
I00
sbsg21
(imyEvolve
Tree
p478
(dp479
g7
I0
sg33
F4.804232953506975
sg20
I01
sbsg24
I00
sg25
g62
sbsg7
I2
sg24
I01
sg25
g48
sbsg7
I3
sg24
I01
sg25
g49
sbsg7
I4
sg24
I01
sg25
g35
sbsg24
I00
sg25
g26
sba(imyEvolve
Tree
p480
(dp481
g7
I4
sg8
(imyEvolve
Tree
p482
(dp483
g13
(imyEvolve
Tree
p484
(dp485
g13
(imyEvolve
Tree
p486
(dp487
g13
(imyEvolve
Tree
p488
(dp489
g7
I0
sg20
I00
sbsg7
I1
sg24
I01
sg25
g49
sbsg7
I2
sg24
I01
sg25
g97
sbsg7
I3
sg24
I01
sg25
g49
sbsg21
(imyEvolve
Tree
p490
(dp491
g7
I3
sg8
(imyEvolve
Tree
p492
(dp493
g7
I2
sg8
(imyEvolve
Tree
p494
(dp495
g7
I1
sg8
(imyEvolve
Tree
p496
(dp497
g7
I0
sg33
F-2.412607775883182
sg20
I01
sbsg21
(imyEvolve
Tree
p498
(dp499
g7
I0
sg33
F4.937248953221703
sg20
I01
sbsg24
I00
sg25
g62
sbsg21
(imyEvolve
Tree
p500
(dp501
g13
(imyEvolve
Tree
p502
(dp503
g7
I0
sg33
F0.8773701004598387
sg20
I01
sbsg7
I1
sg24
I01
sg25
g35
sbsg24
I00
sg25
g34
sbsg21
(imyEvolve
Tree
p504
(dp505
g7
I2
sg8
(imyEvolve
Tree
p506
(dp507
g13
(imyEvolve
Tree
p508
(dp509
g7
I0
sg20
I00
sbsg7
I1
sg24
I01
sg25
g48
sbsg21
(imyEvolve
Tree
p510
(dp511
g13
(imyEvolve
Tree
p512
(dp513
g7
I0
sg20
I00
sbsg7
I1
sg24
I01
sg25
g48
sbsg24
I00
sg25
g62
sbsg24
I00
sg25
g26
sbsg24
I00
sg25
g34
sba(imyEvolve
Tree
p514
(dp515
g7
I4
sg8
(imyEvolve
Tree
p516
(dp517
g7
I3
sg8
(imyEvolve
Tree
p518
(dp519
g13
(imyEvolve
Tree
p520
(dp521
g7
I1
sg8
(imyEvolve
Tree
p522
(dp523
g7
I0
sg20
I00
sbsg21
(imyEvolve
Tree
p524
(dp525
g7
I0
sg20
I00
sbsg24
I00
sg25
g26
sbsg7
I2
sg24
I01
sg25
g35
sbsg21
(imyEvolve
Tree
p526
(dp527
g7
I2
sg8
(imyEvolve
Tree
p528
(dp529
g7
I1
sg8
(imyEvolve
Tree
p530
(dp531
g7
I0
sg33
F2.495194697724491
sg20
I01
sbsg21
(imyEvolve
Tree
p532
(dp533
g7
I0
sg20
I00
sbsg24
I00
sg25
g26
sbsg21
(imyEvolve
Tree
p534
(dp535
g13
(imyEvolve
Tree
p536
(dp537
g7
I0
sg33
F-0.2762025704019324
sg20
I01
sbsg7
I1
sg24
I01
sg25
g97
sbsg24
I00
sg25
g62
sbsg24
I00
sg25
g62
sbsg21
(imyEvolve
Tree
p538
(dp539
g13
(imyEvolve
Tree
p540
(dp541
g13
(imyEvolve
Tree
p542
(dp543
g13
(imyEvolve
Tree
p544
(dp545
g7
I0
sg33
F-4.881899956251088
sg20
I01
sbsg7
I1
sg24
I01
sg25
g97
sbsg7
I2
sg24
I01
sg25
g48
sbsg7
I3
sg24
I01
sg25
g49
sbsg24
I00
sg25
g34
sba(imyEvolve
Tree
p546
(dp547
g7
I2
sg8
(imyEvolve
Tree
p548
(dp549
g13
(imyEvolve
Tree
p550
(dp551
g7
I0
sg33
F-2.910902640993843
sg20
I01
sbsg7
I1
sg24
I01
sg25
g49
sbsg21
(imyEvolve
Tree
p552
(dp553
g13
(imyEvolve
Tree
p554
(dp555
g7
I0
sg20
I00
sbsg7
I1
sg24
I01
sg25
g48
sbsg24
I00
sg25
g34
sba(imyEvolve
Tree
p556
(dp557
g13
(imyEvolve
Tree
p558
(dp559
g7
I3
sg8
(imyEvolve
Tree
p560
(dp561
g7
I2
sg8
(imyEvolve
Tree
p562
(dp563
g13
(imyEvolve
Tree
p564
(dp565
g7
I0
sg33
F2.356028316792499
sg20
I01
sbsg7
I1
sg24
I01
sg25
g48
sbsg21
(imyEvolve
Tree
p566
(dp567
g7
I1
sg8
(imyEvolve
Tree
p568
(dp569
g7
I0
sg20
I00
sbsg21
(imyEvolve
Tree
p570
(dp571
g7
I0
sg20
I00
sbsg24
I00
sg25
g34
sbsg24
I00
sg25
g34
sbsg21
(imyEvolve
Tree
p572
(dp573
g7
I2
sg8
(imyEvolve
Tree
p574
(dp575
g7
I1
sg8
(imyEvolve
Tree
p576
(dp577
g7
I0
sg33
F2.4362777702963268
sg20
I01
sbsg21
(imyEvolve
Tree
p578
(dp579
g7
I0
sg33
F3.8776314464351653
sg20
I01
sbsg24
I00
sg25
g34
sbsg21
(imyEvolve
Tree
p580
(dp581
g7
I1
sg8
(imyEvolve
Tree
p582
(dp583
g7
I0
sg20
I00
sbsg21
(imyEvolve
Tree
p584
(dp585
g7
I0
sg33
F4.834646785721155
sg20
I01
sbsg24
I00
sg25
g26
sbsg24
I00
sg25
g62
sbsg24
I00
sg25
g26
sbsg7
I4
sg24
I01
sg25
g49
sbaa(lp586
(imyEvolve
Tree
p587
(dp588
g7
I2
sg8
(imyEvolve
Tree
p589
(dp590
g13
(imyEvolve
Tree
p591
(dp592
g7
I0
sg33
F1.70867182148445
sg20
I01
sbsg7
I1
sg24
I01
sg25
g48
sbsg21
(imyEvolve
Tree
p593
(dp594
g13
(imyEvolve
Tree
p595
(dp596
g7
I0
sg20
I00
sbsg7
I1
sg24
I01
sg25
g49
sbsg24
I00
sg25
g62
sba(imyEvolve
Tree
p597
(dp598
g13
(imyEvolve
Tree
p599
(dp600
g7
I2
sg8
(imyEvolve
Tree
p601
(dp602
g13
(imyEvolve
Tree
p603
(dp604
g7
I0
sg20
I00
sbsg7
I1
sg24
I01
sg25
g49
sbsg21
(imyEvolve
Tree
p605
(dp606
g7
I1
sg8
(imyEvolve
Tree
p607
(dp608
g7
I0
sg33
F4.8878315372647805
sg20
I01
sbsg21
(imyEvolve
Tree
p609
(dp610
g7
I0
sg20
I00
sbsg24
I00
sg25
g26
sbsg24
I00
sg25
g34
sbsg7
I3
sg24
I01
sg25
g97
sba(imyEvolve
Tree
p611
(dp612
g13
(imyEvolve
Tree
p613
(dp614
g13
(imyEvolve
Tree
p615
(dp616
g13
(imyEvolve
Tree
p617
(dp618
g7
I1
sg8
(imyEvolve
Tree
p619
(dp620
g7
I0
sg33
F1.0896770817239023
sg20
I01
sbsg21
(imyEvolve
Tree
p621
(dp622
g7
I0
sg20
I00
sbsg24
I00
sg25
g62
sbsg7
I2
sg24
I01
sg25
g49
sbsg7
I3
sg24
I01
sg25
g35
sbsg7
I4
sg24
I01
sg25
g48
sba(imyEvolve
Tree
p623
(dp624
g7
I2
sg8
(imyEvolve
Tree
p625
(dp626
g7
I1
sg8
(imyEvolve
Tree
p627
(dp628
g7
I0
sg20
I00
sbsg21
(imyEvolve
Tree
p629
(dp630
g7
I0
sg20
I00
sbsg24
I00
sg25
g34
sbsg21
(imyEvolve
Tree
p631
(dp632
g13
(imyEvolve
Tree
p633
(dp634
g7
I0
sg20
I00
sbsg7
I1
sg24
I01
sg25
g97
sbsg24
I00
sg25
g62
sba(imyEvolve
Tree
p635
(dp636
g7
I5
sg8
(imyEvolve
Tree
p637
(dp638
g7
I4
sg8
(imyEvolve
Tree
p639
(dp640
g7
I3
sg8
(imyEvolve
Tree
p641
(dp642
g13
(imyEvolve
Tree
p643
(dp644
g13
(imyEvolve
Tree
p645
(dp646
g7
I0
sg20
I00
sbsg7
I1
sg24
I01
sg25
g97
sbsg7
I2
sg24
I01
sg25
g35
sbsg21
(imyEvolve
Tree
p647
(dp648
g13
(imyEvolve
Tree
p649
(dp650
g7
I1
sg8
(imyEvolve
Tree
p651
(dp652
g7
I0
sg33
F-1.1993246869543972
sg20
I01
sbsg21
(imyEvolve
Tree
p653
(dp654
g7
I0
sg20
I00
sbsg24
I00
sg25
g62
sbsg7
I2
sg24
I01
sg25
g97
sbsg24
I00
sg25
g34
sbsg21
(imyEvolve
Tree
p655
(dp656
g7
I3
sg8
(imyEvolve
Tree
p657
(dp658
g7
I2
sg8
(imyEvolve
Tree
p659
(dp660
g13
(imyEvolve
Tree
p661
(dp662
g7
I0
sg33
F4.148876167477788
sg20
I01
sbsg7
I1
sg24
I01
sg25
g35
sbsg21
(imyEvolve
Tree
p663
(dp664
g13
(imyEvolve
Tree
p665
(dp666
g7
I0
sg20
I00
sbsg7
I1
sg24
I01
sg25
g49
sbsg24
I00
sg25
g62
sbsg21
(imyEvolve
Tree
p667
(dp668
g13
(imyEvolve
Tree
p669
(dp670
g7
I1
sg8
(imyEvolve
Tree
p671
(dp672
g7
I0
sg20
I00
sbsg21
(imyEvolve
Tree
p673
(dp674
g7
I0
sg33
F-0.5705752370992156
sg20
I01
sbsg24
I00
sg25
g34
sbsg7
I2
sg24
I01
sg25
g35
sbsg24
I00
sg25
g26
sbsg24
I00
sg25
g34
sbsg21
(imyEvolve
Tree
p675
(dp676
g7
I4
sg8
(imyEvolve
Tree
p677
(dp678
g7
I3
sg8
(imyEvolve
Tree
p679
(dp680
g13
(imyEvolve
Tree
p681
(dp682
g7
I1
sg8
(imyEvolve
Tree
p683
(dp684
g7
I0
sg20
I00
sbsg21
(imyEvolve
Tree
p685
(dp686
g7
I0
sg33
F-2.6092904105312886
sg20
I01
sbsg24
I00
sg25
g34
sbsg7
I2
sg24
I01
sg25
g97
sbsg21
(imyEvolve
Tree
p687
(dp688
g13
(imyEvolve
Tree
p689
(dp690
g13
(imyEvolve
Tree
p691
(dp692
g7
I0
sg20
I00
sbsg7
I1
sg24
I01
sg25
g49
sbsg7
I2
sg24
I01
sg25
g48
sbsg24
I00
sg25
g26
sbsg21
(imyEvolve
Tree
p693
(dp694
g13
(imyEvolve
Tree
p695
(dp696
g7
I2
sg8
(imyEvolve
Tree
p697
(dp698
g13
(imyEvolve
Tree
p699
(dp700
g7
I0
sg20
I00
sbsg7
I1
sg24
I01
sg25
g97
sbsg21
(imyEvolve
Tree
p701
(dp702
g13
(imyEvolve
Tree
p703
(dp704
g7
I0
sg33
F-3.2357915919148916
sg20
I01
sbsg7
I1
sg24
I01
sg25
g35
sbsg24
I00
sg25
g34
sbsg7
I3
sg24
I01
sg25
g97
sbsg24
I00
sg25
g34
sbsg24
I00
sg25
g26
sba(imyEvolve
Tree
p705
(dp706
g7
I2
sg8
(imyEvolve
Tree
p707
(dp708
g13
(imyEvolve
Tree
p709
(dp710
g7
I0
sg33
F2.9783018561260386
sg20
I01
sbsg7
I1
sg24
I01
sg25
g35
sbsg21
(imyEvolve
Tree
p711
(dp712
g13
(imyEvolve
Tree
p713
(dp714
g7
I0
sg33
F-3.619316330935055
sg20
I01
sbsg7
I1
sg24
I01
sg25
g35
sbsg24
I00
sg25
g34
sba(imyEvolve
Tree
p715
(dp716
g7
I4
sg8
(imyEvolve
Tree
p717
(dp718
g13
(imyEvolve
Tree
p719
(dp720
g13
(imyEvolve
Tree
p721
(dp722
g7
I1
sg8
(imyEvolve
Tree
p723
(dp724
g7
I0
sg20
I00
sbsg21
(imyEvolve
Tree
p725
(dp726
g7
I0
sg33
F-1.74525498376933
sg20
I01
sbsg24
I00
sg25
g62
sbsg7
I2
sg24
I01
sg25
g48
sbsg7
I3
sg24
I01
sg25
g97
sbsg21
(imyEvolve
Tree
p727
(dp728
g13
(imyEvolve
Tree
p729
(dp730
g13
(imyEvolve
Tree
p731
(dp732
g7
I1
sg8
(imyEvolve
Tree
p733
(dp734
g7
I0
sg33
F2.970638080189472
sg20
I01
sbsg21
(imyEvolve
Tree
p735
(dp736
g7
I0
sg20
I00
sbsg24
I00
sg25
g34
sbsg7
I2
sg24
I01
sg25
g48
sbsg7
I3
sg24
I01
sg25
g49
sbsg24
I00
sg25
g26
sba(imyEvolve
Tree
p737
(dp738
g7
I4
sg8
(imyEvolve
Tree
p739
(dp740
g7
I3
sg8
(imyEvolve
Tree
p741
(dp742
g13
(imyEvolve
Tree
p743
(dp744
g13
(imyEvolve
Tree
p745
(dp746
g7
I0
sg20
I00
sbsg7
I1
sg24
I01
sg25
g48
sbsg7
I2
sg24
I01
sg25
g48
sbsg21
(imyEvolve
Tree
p747
(dp748
g13
(imyEvolve
Tree
p749
(dp750
g13
(imyEvolve
Tree
p751
(dp752
g7
I0
sg33
F3.3545748378253
sg20
I01
sbsg7
I1
sg24
I01
sg25
g48
sbsg7
I2
sg24
I01
sg25
g48
sbsg24
I00
sg25
g34
sbsg21
(imyEvolve
Tree
p753
(dp754
g13
(imyEvolve
Tree
p755
(dp756
g13
(imyEvolve
Tree
p757
(dp758
g13
(imyEvolve
Tree
p759
(dp760
g7
I0
sg20
I00
sbsg7
I1
sg24
I01
sg25
g35
sbsg7
I2
sg24
I01
sg25
g35
sbsg7
I3
sg24
I01
sg25
g97
sbsg24
I00
sg25
g26
sba(imyEvolve
Tree
p761
(dp762
g13
(imyEvolve
Tree
p763
(dp764
g7
I1
sg8
(imyEvolve
Tree
p765
(dp766
g7
I0
sg20
I00
sbsg21
(imyEvolve
Tree
p767
(dp768
g7
I0
sg20
I00
sbsg24
I00
sg25
g34
sbsg7
I2
sg24
I01
sg25
g49
sba(imyEvolve
Tree
p769
(dp770
g13
(imyEvolve
Tree
p771
(dp772
g13
(imyEvolve
Tree
p773
(dp774
g7
I3
sg8
(imyEvolve
Tree
p775
(dp776
g13
(imyEvolve
Tree
p777
(dp778
g7
I1
sg8
(imyEvolve
Tree
p779
(dp780
g7
I0
sg20
I00
sbsg21
(imyEvolve
Tree
p781
(dp782
g7
I0
sg20
I00
sbsg24
I00
sg25
g34
sbsg7
I2
sg24
I01
sg25
g35
sbsg21
(imyEvolve
Tree
p783
(dp784
g7
I2
sg8
(imyEvolve
Tree
p785
(dp786
g13
(imyEvolve
Tree
p787
(dp788
g7
I0
sg20
I00
sbsg7
I1
sg24
I01
sg25
g49
sbsg21
(imyEvolve
Tree
p789
(dp790
g7
I1
sg8
(imyEvolve
Tree
p791
(dp792
g7
I0
sg33
F-4.955010580624229
sg20
I01
sbsg21
(imyEvolve
Tree
p793
(dp794
g7
I0
sg20
I00
sbsg24
I00
sg25
g62
sbsg24
I00
sg25
g62
sbsg24
I00
sg25
g34
sbsg7
I4
sg24
I01
sg25
g35
sbsg7
I5
sg24
I01
sg25
g48
sba(imyEvolve
Tree
p795
(dp796
g7
I2
sg8
(imyEvolve
Tree
p797
(dp798
g7
I1
sg8
(imyEvolve
Tree
p799
(dp800
g7
I0
sg33
F-4.476001775017094
sg20
I01
sbsg21
(imyEvolve
Tree
p801
(dp802
g7
I0
sg33
F3.8851484876197073
sg20
I01
sbsg24
I00
sg25
g34
sbsg21
(imyEvolve
Tree
p803
(dp804
g13
(imyEvolve
Tree
p805
(dp806
g7
I0
sg33
F-2.7216516306877727
sg20
I01
sbsg7
I1
sg24
I01
sg25
g97
sbsg24
I00
sg25
g34
sba(imyEvolve
Tree
p807
(dp808
g13
(imyEvolve
Tree
p809
(dp810
g13
(imyEvolve
Tree
p811
(dp812
g7
I2
sg8
(imyEvolve
Tree
p813
(dp814
g13
(imyEvolve
Tree
p815
(dp816
g7
I0
sg20
I00
sbsg7
I1
sg24
I01
sg25
g49
sbsg21
(imyEvolve
Tree
p817
(dp818
g7
I1
sg8
(imyEvolve
Tree
p819
(dp820
g7
I0
sg20
I00
sbsg21
(imyEvolve
Tree
p821
(dp822
g7
I0
sg33
F1.41501410685761
sg20
I01
sbsg24
I00
sg25
g62
sbsg24
I00
sg25
g62
sbsg7
I3
sg24
I01
sg25
g48
sbsg7
I4
sg24
I01
sg25
g97
sbaa(lp823
(imyEvolve
Tree
p824
(dp825
g7
I4
sg8
(imyEvolve
Tree
p826
(dp827
g7
I3
sg8
(imyEvolve
Tree
p828
(dp829
g7
I2
sg8
(imyEvolve
Tree
p830
(dp831
g7
I1
sg8
(imyEvolve
Tree
p832
(dp833
g7
I0
sg33
F4.622073313376475
sg20
I01
sbsg21
(imyEvolve
Tree
p834
(dp835
g7
I0
sg33
F0.5999510433357225
sg20
I01
sbsg24
I00
sg25
g26
sbsg21
(imyEvolve
Tree
p836
(dp837
g7
I1
sg8
(imyEvolve
Tree
p838
(dp839
g7
I0
sg33
F-1.9190956850036112
sg20
I01
sbsg21
(imyEvolve
Tree
p840
(dp841
g7
I0
sg20
I00
sbsg24
I00
sg25
g26
sbsg24
I00
sg25
g26
sbsg21
(imyEvolve
Tree
p842
(dp843
g13
(imyEvolve
Tree
p844
(dp845
g7
I1
sg8
(imyEvolve
Tree
p846
(dp847
g7
I0
sg33
F4.1293331834191065
sg20
I01
sbsg21
(imyEvolve
Tree
p848
(dp849
g7
I0
sg33
F0.6958266690914963
sg20
I01
sbsg24
I00
sg25
g26
sbsg7
I2
sg24
I01
sg25
g48
sbsg24
I00
sg25
g26
sbsg21
(imyEvolve
Tree
p850
(dp851
g13
(imyEvolve
Tree
p852
(dp853
g13
(imyEvolve
Tree
p854
(dp855
g13
(imyEvolve
Tree
p856
(dp857
g7
I0
sg20
I00
sbsg7
I1
sg24
I01
sg25
g97
sbsg7
I2
sg24
I01
sg25
g97
sbsg7
I3
sg24
I01
sg25
g97
sbsg24
I00
sg25
g62
sba(imyEvolve
Tree
p858
(dp859
g7
I4
sg8
(imyEvolve
Tree
p860
(dp861
g7
I3
sg8
(imyEvolve
Tree
p862
(dp863
g13
(imyEvolve
Tree
p864
(dp865
g13
(imyEvolve
Tree
p866
(dp867
g7
I0
sg33
F4.4352600282666845
sg20
I01
sbsg7
I1
sg24
I01
sg25
g49
sbsg7
I2
sg24
I01
sg25
g49
sbsg21
(imyEvolve
Tree
p868
(dp869
g13
(imyEvolve
Tree
p870
(dp871
g13
(imyEvolve
Tree
p872
(dp873
g7
I0
sg20
I00
sbsg7
I1
sg24
I01
sg25
g48
sbsg7
I2
sg24
I01
sg25
g49
sbsg24
I00
sg25
g26
sbsg21
(imyEvolve
Tree
p874
(dp875
g7
I3
sg8
(imyEvolve
Tree
p876
(dp877
g13
(imyEvolve
Tree
p878
(dp879
g13
(imyEvolve
Tree
p880
(dp881
g7
I0
sg33
F-1.8432257393093963
sg20
I01
sbsg7
I1
sg24
I01
sg25
g97
sbsg7
I2
sg24
I01
sg25
g48
sbsg21
(imyEvolve
Tree
p882
(dp883
g7
I2
sg8
(imyEvolve
Tree
p884
(dp885
g13
(imyEvolve
Tree
p886
(dp887
g7
I0
sg33
F4.200102707372
sg20
I01
sbsg7
I1
sg24
I01
sg25
g97
sbsg21
(imyEvolve
Tree
p888
(dp889
g7
I1
sg8
(imyEvolve
Tree
p890
(dp891
g7
I0
sg20
I00
sbsg21
(imyEvolve
Tree
p892
(dp893
g7
I0
sg33
F-3.7586761282811763
sg20
I01
sbsg24
I00
sg25
g34
sbsg24
I00
sg25
g62
sbsg24
I00
sg25
g26
sbsg24
I00
sg25
g26
sba(imyEvolve
Tree
p894
(dp895
g13
(imyEvolve
Tree
p896
(dp897
g13
(imyEvolve
Tree
p898
(dp899
g13
(imyEvolve
Tree
p900
(dp901
g13
(imyEvolve
Tree
p902
(dp903
g7
I1
sg8
(imyEvolve
Tree
p904
(dp905
g7
I0
sg20
I00
sbsg21
(imyEvolve
Tree
p906
(dp907
g7
I0
sg33
F-1.6215088354686626
sg20
I01
sbsg24
I00
sg25
g34
sbsg7
I2
sg24
I01
sg25
g49
sbsg7
I3
sg24
I01
sg25
g35
sbsg7
I4
sg24
I01
sg25
g48
sbsg7
I5
sg24
I01
sg25
g97
sba(imyEvolve
Tree
p908
(dp909
g13
(imyEvolve
Tree
p910
(dp911
g7
I4
sg8
(imyEvolve
Tree
p912
(dp913
g13
(imyEvolve
Tree
p914
(dp915
g7
I2
sg8
(imyEvolve
Tree
p916
(dp917
g13
(imyEvolve
Tree
p918
(dp919
g7
I0
sg20
I00
sbsg7
I1
sg24
I01
sg25
g97
sbsg21
(imyEvolve
Tree
p920
(dp921
g7
I1
sg8
(imyEvolve
Tree
p922
(dp923
g7
I0
sg33
F1.5173421586760814
sg20
I01
sbsg21
(imyEvolve
Tree
p924
(dp925
g7
I0
sg33
F1.2482541746007634
sg20
I01
sbsg24
I00
sg25
g34
sbsg24
I00
sg25
g26
sbsg7
I3
sg24
I01
sg25
g49
sbsg21
(imyEvolve
Tree
p926
(dp927
g7
I3
sg8
(imyEvolve
Tree
p928
(dp929
g7
I2
sg8
(imyEvolve
Tree
p930
(dp931
g13
(imyEvolve
Tree
p932
(dp933
g7
I0
sg20
I00
sbsg7
I1
sg24
I01
sg25
g48
sbsg21
(imyEvolve
Tree
p934
(dp935
g7
I1
sg8
(imyEvolve
Tree
p936
(dp937
g7
I0
sg20
I00
sbsg21
(imyEvolve
Tree
p938
(dp939
g7
I0
sg33
F-1.9868036310437653
sg20
I01
sbsg24
I00
sg25
g26
sbsg24
I00
sg25
g26
sbsg21
(imyEvolve
Tree
p940
(dp941
g7
I2
sg8
(imyEvolve
Tree
p942
(dp943
g7
I1
sg8
(imyEvolve
Tree
p944
(dp945
g7
I0
sg20
I00
sbsg21
(imyEvolve
Tree
p946
(dp947
g7
I0
sg20
I00
sbsg24
I00
sg25
g34
sbsg21
(imyEvolve
Tree
p948
(dp949
g13
(imyEvolve
Tree
p950
(dp951
g7
I0
sg20
I00
sbsg7
I1
sg24
I01
sg25
g97
sbsg24
I00
sg25
g26
sbsg24
I00
sg25
g34
sbsg24
I00
sg25
g62
sbsg7
I5
sg24
I01
sg25
g97
sba(imyEvolve
Tree
p952
(dp953
g13
(imyEvolve
Tree
p954
(dp955
g7
I1
sg8
(imyEvolve
Tree
p956
(dp957
g7
I0
sg20
I00
sbsg21
(imyEvolve
Tree
p958
(dp959
g7
I0
sg20
I00
sbsg24
I00
sg25
g34
sbsg7
I2
sg24
I01
sg25
g97
sba(imyEvolve
Tree
p960
(dp961
g13
(imyEvolve
Tree
p962
(dp963
g13
(imyEvolve
Tree
p964
(dp965
g7
I3
sg8
(imyEvolve
Tree
p966
(dp967
g7
I2
sg8
(imyEvolve
Tree
p968
(dp969
g13
(imyEvolve
Tree
p970
(dp971
g7
I0
sg20
I00
sbsg7
I1
sg24
I01
sg25
g49
sbsg21
(imyEvolve
Tree
p972
(dp973
g7
I1
sg8
(imyEvolve
Tree
p974
(dp975
g7
I0
sg33
F4.573764781824783
sg20
I01
sbsg21
(imyEvolve
Tree
p976
(dp977
g7
I0
sg33
F0.338839101749036
sg20
I01
sbsg24
I00
sg25
g26
sbsg24
I00
sg25
g62
sbsg21
(imyEvolve
Tree
p978
(dp979
g13
(imyEvolve
Tree
p980
(dp981
g13
(imyEvolve
Tree
p982
(dp983
g7
I0
sg33
F-1.6627015928412083
sg20
I01
sbsg7
I1
sg24
I01
sg25
g35
sbsg7
I2
sg24
I01
sg25
g48
sbsg24
I00
sg25
g62
sbsg7
I4
sg24
I01
sg25
g97
sbsg7
I5
sg24
I01
sg25
g35
sba(imyEvolve
Tree
p984
(dp985
g13
(imyEvolve
Tree
p986
(dp987
g7
I2
sg8
(imyEvolve
Tree
p988
(dp989
g13
(imyEvolve
Tree
p990
(dp991
g7
I0
sg33
F0.4867606043100805
sg20
I01
sbsg7
I1
sg24
I01
sg25
g35
sbsg21
(imyEvolve
Tree
p992
(dp993
g13
(imyEvolve
Tree
p994
(dp995
g7
I0
sg20
I00
sbsg7
I1
sg24
I01
sg25
g35
sbsg24
I00
sg25
g62
sbsg7
I3
sg24
I01
sg25
g35
sba(imyEvolve
Tree
p996
(dp997
g7
I3
sg8
(imyEvolve
Tree
p998
(dp999
g13
(imyEvolve
Tree
p1000
(dp1001
g13
(imyEvolve
Tree
p1002
(dp1003
g7
I0
sg33
F-1.3690147592036448
sg20
I01
sbsg7
I1
sg24
I01
sg25
g48
sbsg7
I2
sg24
I01
sg25
g35
sbsg21
(imyEvolve
Tree
p1004
(dp1005
g7
I2
sg8
(imyEvolve
Tree
p1006
(dp1007
g7
I1
sg8
(imyEvolve
Tree
p1008
(dp1009
g7
I0
sg20
I00
sbsg21
(imyEvolve
Tree
p1010
(dp1011
g7
I0
sg33
F3.0352886764494933
sg20
I01
sbsg24
I00
sg25
g26
sbsg21
(imyEvolve
Tree
p1012
(dp1013
g7
I1
sg8
(imyEvolve
Tree
p1014
(dp1015
g7
I0
sg20
I00
sbsg21
(imyEvolve
Tree
p1016
(dp1017
g7
I0
sg20
I00
sbsg24
I00
sg25
g26
sbsg24
I00
sg25
g62
sbsg24
I00
sg25
g34
sba(imyEvolve
Tree
p1018
(dp1019
g13
(imyEvolve
Tree
p1020
(dp1021
g13
(imyEvolve
Tree
p1022
(dp1023
g13
(imyEvolve
Tree
p1024
(dp1025
g7
I2
sg8
(imyEvolve
Tree
p1026
(dp1027
g13
(imyEvolve
Tree
p1028
(dp1029
g7
I0
sg20
I00
sbsg7
I1
sg24
I01
sg25
g97
sbsg21
(imyEvolve
Tree
p1030
(dp1031
g7
I1
sg8
(imyEvolve
Tree
p1032
(dp1033
g7
I0
sg20
I00
sbsg21
(imyEvolve
Tree
p1034
(dp1035
g7
I0
sg33
F0.9335692130771767
sg20
I01
sbsg24
I00
sg25
g34
sbsg24
I00
sg25
g62
sbsg7
I3
sg24
I01
sg25
g97
sbsg7
I4
sg24
I01
sg25
g35
sbsg7
I5
sg24
I01
sg25
g97
sba(imyEvolve
Tree
p1036
(dp1037
g13
(imyEvolve
Tree
p1038
(dp1039
g13
(imyEvolve
Tree
p1040
(dp1041
g7
I0
sg20
I00
sbsg7
I1
sg24
I01
sg25
g97
sbsg7
I2
sg24
I01
sg25
g49
sba(imyEvolve
Tree
p1042
(dp1043
g13
(imyEvolve
Tree
p1044
(dp1045
g13
(imyEvolve
Tree
p1046
(dp1047
g13
(imyEvolve
Tree
p1048
(dp1049
g7
I1
sg8
(imyEvolve
Tree
p1050
(dp1051
g7
I0
sg33
F4.935736398062602
sg20
I01
sbsg21
(imyEvolve
Tree
p1052
(dp1053
g7
I0
sg20
I00
sbsg24
I00
sg25
g26
sbsg7
I2
sg24
I01
sg25
g35
sbsg7
I3
sg24
I01
sg25
g49
sbsg7
I4
sg24
I01
sg25
g48
sba(imyEvolve
Tree
p1054
(dp1055
g7
I3
sg8
(imyEvolve
Tree
p1056
(dp1057
g13
(imyEvolve
Tree
p1058
(dp1059
g7
I1
sg8
(imyEvolve
Tree
p1060
(dp1061
g7
I0
sg20
I00
sbsg21
(imyEvolve
Tree
p1062
(dp1063
g7
I0
sg33
F-0.5678629813180667
sg20
I01
sbsg24
I00
sg25
g62
sbsg7
I2
sg24
I01
sg25
g97
sbsg21
(imyEvolve
Tree
p1064
(dp1065
g7
I2
sg8
(imyEvolve
Tree
p1066
(dp1067
g13
(imyEvolve
Tree
p1068
(dp1069
g7
I0
sg20
I00
sbsg7
I1
sg24
I01
sg25
g97
sbsg21
(imyEvolve
Tree
p1070
(dp1071
g13
(imyEvolve
Tree
p1072
(dp1073
g7
I0
sg20
I00
sbsg7
I1
sg24
I01
sg25
g97
sbsg24
I00
sg25
g34
sbsg24
I00
sg25
g26
sba(imyEvolve
Tree
p1074
(dp1075
g7
I3
sg8
(imyEvolve
Tree
p1076
(dp1077
g13
(imyEvolve
Tree
p1078
(dp1079
g13
(imyEvolve
Tree
p1080
(dp1081
g7
I0
sg33
F1.519737717790158
sg20
I01
sbsg7
I1
sg24
I01
sg25
g35
sbsg7
I2
sg24
I01
sg25
g97
sbsg21
(imyEvolve
Tree
p1082
(dp1083
g13
(imyEvolve
Tree
p1084
(dp1085
g13
(imyEvolve
Tree
p1086
(dp1087
g7
I0
sg33
F3.972600704990807
sg20
I01
sbsg7
I1
sg24
I01
sg25
g35
sbsg7
I2
sg24
I01
sg25
g97
sbsg24
I00
sg25
g62
sbaasS'weightSharing'
p1088
(lp1089
I00
aI00
asS'fitnessValid'
p1090
I00
sS'fitness'
p1091
cnumpy.core.multiarray
scalar
p1092
(cnumpy
dtype
p1093
(S'f8'
p1094
I0
I1
tp1095
Rp1096
(I3
S'<'
p1097
NNNI-1
I-1
I0
tp1098
bS'\x000n\xa3\xe1&L?'
p1099
tp1100
Rp1101
sS'alpha'
p1102
F0.002033112251649232
sS'resolution'
p1103
I97
sb.