(imyEvolve
Individual
p0
(dp1
S'funcs'
p2
(lp3
(lp4
(imyEvolve
Tree
p5
(dp6
S'below'
p7
(imyEvolve
Tree
p8
(dp9
S'depth'
p10
I4
sS'left'
p11
(imyEvolve
Tree
p12
(dp13
g10
I3
sg11
(imyEvolve
Tree
p14
(dp15
g7
(imyEvolve
Tree
p16
(dp17
g7
(imyEvolve
Tree
p18
(dp19
g10
I0
sS'isConstant'
p20
I00
sbsg10
I1
sS'single'
p21
I01
sS'op'
p22
cmath
cos
p23
sbsg10
I2
sg21
I01
sg22
g23
sbsS'right'
p24
(imyEvolve
Tree
p25
(dp26
g7
(imyEvolve
Tree
p27
(dp28
g7
(imyEvolve
Tree
p29
(dp30
g10
I0
sg20
I00
sbsg10
I1
sg21
I01
sg22
cmyEvolve
square
p31
sbsg10
I2
sg21
I01
sg22
g23
sbsg21
I00
sg22
coperator
sub
p32
sbsg24
(imyEvolve
Tree
p33
(dp34
g7
(imyEvolve
Tree
p35
(dp36
g10
I2
sg11
(imyEvolve
Tree
p37
(dp38
g7
(imyEvolve
Tree
p39
(dp40
g10
I0
sg20
I00
sbsg10
I1
sg21
I01
sg22
g23
sbsg24
(imyEvolve
Tree
p41
(dp42
g7
(imyEvolve
Tree
p43
(dp44
g10
I0
sS'constant'
p45
F-4.128885114507458
sg20
I01
sbsg10
I1
sg21
I01
sg22
cmyEvolve
absSqrt
p46
sbsg21
I00
sg22
coperator
mul
p47
sbsg10
I3
sg21
I01
sg22
g31
sbsg21
I00
sg22
coperator
add
p48
sbsg10
I5
sg21
I01
sg22
cmath
sin
p49
sba(imyEvolve
Tree
p50
(dp51
g7
(imyEvolve
Tree
p52
(dp53
g11
(imyEvolve
Tree
p54
(dp55
g11
(imyEvolve
Tree
p56
(dp57
g11
(imyEvolve
Tree
p58
(dp59
g10
I0
sg45
F-1.5787364402262218
sg20
I01
sbsg10
I1
sg24
(imyEvolve
Tree
p60
(dp61
g10
I0
sg20
I00
sbsg21
I00
sg22
g48
sbsg10
I2
sg24
(imyEvolve
Tree
p62
(dp63
g11
(imyEvolve
Tree
p64
(dp65
g10
I0
sg20
I00
sbsg10
I1
sg24
(imyEvolve
Tree
p66
(dp67
g10
I0
sg20
I00
sbsg21
I00
sg22
g48
sbsg21
I00
sg22
g48
sbsg10
I3
sg24
(imyEvolve
Tree
p68
(dp69
g11
(imyEvolve
Tree
p70
(dp71
g11
(imyEvolve
Tree
p72
(dp73
g10
I0
sg20
I00
sbsg10
I1
sg24
(imyEvolve
Tree
p74
(dp75
g10
I0
sg45
F-4.071317450982369
sg20
I01
sbsg21
I00
sg22
g48
sbsg10
I2
sg24
(imyEvolve
Tree
p76
(dp77
g11
(imyEvolve
Tree
p78
(dp79
g10
I0
sg45
F-3.595530767154006
sg20
I01
sbsg10
I1
sg24
(imyEvolve
Tree
p80
(dp81
g10
I0
sg45
F1.584900337646033
sg20
I01
sbsg21
I00
sg22
g48
sbsg21
I00
sg22
g32
sbsg21
I00
sg22
g47
sbsg10
I4
sg21
I01
sg22
g31
sba(imyEvolve
Tree
p82
(dp83
g7
(imyEvolve
Tree
p84
(dp85
g7
(imyEvolve
Tree
p86
(dp87
g10
I1
sg11
(imyEvolve
Tree
p88
(dp89
g10
I0
sg45
F0.5458956546594216
sg20
I01
sbsg24
(imyEvolve
Tree
p90
(dp91
g10
I0
sg45
F-1.0678255221998647
sg20
I01
sbsg21
I00
sg22
g47
sbsg10
I2
sg21
I01
sg22
g31
sbsg10
I3
sg21
I01
sg22
g46
sba(imyEvolve
Tree
p92
(dp93
g11
(imyEvolve
Tree
p94
(dp95
g11
(imyEvolve
Tree
p96
(dp97
g7
(imyEvolve
Tree
p98
(dp99
g10
I0
sg45
F-1.5210010609949176
sg20
I01
sbsg10
I1
sg21
I01
sg22
g31
sbsg10
I2
sg24
(imyEvolve
Tree
p100
(dp101
g7
(imyEvolve
Tree
p102
(dp103
g10
I0
sg45
F-1.4220263173903436
sg20
I01
sbsg10
I1
sg21
I01
sg22
g23
sbsg21
I00
sg22
g47
sbsg10
I3
sg24
(imyEvolve
Tree
p104
(dp105
g7
(imyEvolve
Tree
p106
(dp107
g11
(imyEvolve
Tree
p108
(dp109
g10
I0
sg20
I00
sbsg10
I1
sg24
(imyEvolve
Tree
p110
(dp111
g10
I0
sg20
I00
sbsg21
I00
sg22
g47
sbsg10
I2
sg21
I01
sg22
g23
sbsg21
I00
sg22
g32
sba(imyEvolve
Tree
p112
(dp113
g10
I3
sg11
(imyEvolve
Tree
p114
(dp115
g10
I2
sg11
(imyEvolve
Tree
p116
(dp117
g10
I1
sg11
(imyEvolve
Tree
p118
(dp119
g10
I0
sg45
F1.703571751491828
sg20
I01
sbsg24
(imyEvolve
Tree
p120
(dp121
g10
I0
sg45
F0.7480974827041447
sg20
I01
sbsg21
I00
sg22
g32
sbsg24
(imyEvolve
Tree
p122
(dp123
g7
(imyEvolve
Tree
p124
(dp125
g10
I0
sg45
F-2.1534726614772968
sg20
I01
sbsg10
I1
sg21
I01
sg22
g31
sbsg21
I00
sg22
g48
sbsg24
(imyEvolve
Tree
p126
(dp127
g7
(imyEvolve
Tree
p128
(dp129
g7
(imyEvolve
Tree
p130
(dp131
g10
I0
sg45
F2.6195735873184915
sg20
I01
sbsg10
I1
sg21
I01
sg22
g23
sbsg10
I2
sg21
I01
sg22
g23
sbsg21
I00
sg22
g48
sba(imyEvolve
Tree
p132
(dp133
g7
(imyEvolve
Tree
p134
(dp135
g7
(imyEvolve
Tree
p136
(dp137
g11
(imyEvolve
Tree
p138
(dp139
g7
(imyEvolve
Tree
p140
(dp141
g7
(imyEvolve
Tree
p142
(dp143
g10
I0
sg20
I00
sbsg10
I1
sg21
I01
sg22
g49
sbsg10
I2
sg21
I01
sg22
g49
sbsg10
I3
sg24
(imyEvolve
Tree
p144
(dp145
g7
(imyEvolve
Tree
p146
(dp147
g11
(imyEvolve
Tree
p148
(dp149
g10
I0
sg45
F-1.1861224669500436
sg20
I01
sbsg10
I1
sg24
(imyEvolve
Tree
p150
(dp151
g10
I0
sg20
I00
sbsg21
I00
sg22
g48
sbsg10
I2
sg21
I01
sg22
g49
sbsg21
I00
sg22
g47
sbsg10
I4
sg21
I01
sg22
g31
sbsg10
I5
sg21
I01
sg22
g31
sba(imyEvolve
Tree
p152
(dp153
g10
I4
sg11
(imyEvolve
Tree
p154
(dp155
g10
I3
sg11
(imyEvolve
Tree
p156
(dp157
g7
(imyEvolve
Tree
p158
(dp159
g7
(imyEvolve
Tree
p160
(dp161
g10
I0
sg45
F-4.154981714258125
sg20
I01
sbsg10
I1
sg21
I01
sg22
g49
sbsg10
I2
sg21
I01
sg22
g49
sbsg24
(imyEvolve
Tree
p162
(dp163
g10
I2
sg11
(imyEvolve
Tree
p164
(dp165
g10
I1
sg11
(imyEvolve
Tree
p166
(dp167
g10
I0
sg20
I00
sbsg24
(imyEvolve
Tree
p168
(dp169
g10
I0
sg20
I00
sbsg21
I00
sg22
g32
sbsg24
(imyEvolve
Tree
p170
(dp171
g7
(imyEvolve
Tree
p172
(dp173
g10
I0
sg20
I00
sbsg10
I1
sg21
I01
sg22
g46
sbsg21
I00
sg22
g47
sbsg21
I00
sg22
g32
sbsg24
(imyEvolve
Tree
p174
(dp175
g7
(imyEvolve
Tree
p176
(dp177
g7
(imyEvolve
Tree
p178
(dp179
g10
I1
sg11
(imyEvolve
Tree
p180
(dp181
g10
I0
sg45
F-1.4461521560419777
sg20
I01
sbsg24
(imyEvolve
Tree
p182
(dp183
g10
I0
sg20
I00
sbsg21
I00
sg22
g32
sbsg10
I2
sg21
I01
sg22
g31
sbsg10
I3
sg21
I01
sg22
g46
sbsg21
I00
sg22
g32
sba(imyEvolve
Tree
p184
(dp185
g11
(imyEvolve
Tree
p186
(dp187
g7
(imyEvolve
Tree
p188
(dp189
g11
(imyEvolve
Tree
p190
(dp191
g7
(imyEvolve
Tree
p192
(dp193
g11
(imyEvolve
Tree
p194
(dp195
g10
I0
sg20
I00
sbsg10
I1
sg24
(imyEvolve
Tree
p196
(dp197
g10
I0
sg20
I00
sbsg21
I00
sg22
g48
sbsg10
I2
sg21
I01
sg22
g23
sbsg10
I3
sg24
(imyEvolve
Tree
p198
(dp199
g11
(imyEvolve
Tree
p200
(dp201
g7
(imyEvolve
Tree
p202
(dp203
g10
I0
sg45
F0.46885582864117037
sg20
I01
sbsg10
I1
sg21
I01
sg22
g46
sbsg10
I2
sg24
(imyEvolve
Tree
p204
(dp205
g11
(imyEvolve
Tree
p206
(dp207
g10
I0
sg20
I00
sbsg10
I1
sg24
(imyEvolve
Tree
p208
(dp209
g10
I0
sg20
I00
sbsg21
I00
sg22
g32
sbsg21
I00
sg22
g32
sbsg21
I00
sg22
g47
sbsg10
I4
sg21
I01
sg22
g49
sbsg10
I5
sg24
(imyEvolve
Tree
p210
(dp211
g7
(imyEvolve
Tree
p212
(dp213
g11
(imyEvolve
Tree
p214
(dp215
g7
(imyEvolve
Tree
p216
(dp217
g11
(imyEvolve
Tree
p218
(dp219
g10
I0
sg45
F3.705529910164774
sg20
I01
sbsg10
I1
sg24
(imyEvolve
Tree
p220
(dp221
g10
I0
sg45
F-4.5397349346008395
sg20
I01
sbsg21
I00
sg22
g48
sbsg10
I2
sg21
I01
sg22
g46
sbsg10
I3
sg24
(imyEvolve
Tree
p222
(dp223
g7
(imyEvolve
Tree
p224
(dp225
g7
(imyEvolve
Tree
p226
(dp227
g10
I0
sg45
F-2.9443916459360175
sg20
I01
sbsg10
I1
sg21
I01
sg22
g31
sbsg10
I2
sg21
I01
sg22
g31
sbsg21
I00
sg22
g32
sbsg10
I4
sg21
I01
sg22
g23
sbsg21
I00
sg22
g32
sbaa(lp228
(imyEvolve
Tree
p229
(dp230
g11
(imyEvolve
Tree
p231
(dp232
g7
(imyEvolve
Tree
p233
(dp234
g10
I0
sg45
F4.659652594258729
sg20
I01
sbsg10
I1
sg21
I01
sg22
g23
sbsg10
I2
sg24
(imyEvolve
Tree
p235
(dp236
g7
(imyEvolve
Tree
p237
(dp238
g10
I0
sg20
I00
sbsg10
I1
sg21
I01
sg22
g49
sbsg21
I00
sg22
g47
sba(imyEvolve
Tree
p239
(dp240
g11
(imyEvolve
Tree
p241
(dp242
g7
(imyEvolve
Tree
p243
(dp244
g7
(imyEvolve
Tree
p245
(dp246
g7
(imyEvolve
Tree
p247
(dp248
g10
I0
sg20
I00
sbsg10
I1
sg21
I01
sg22
g49
sbsg10
I2
sg21
I01
sg22
g23
sbsg10
I3
sg21
I01
sg22
g31
sbsg10
I4
sg24
(imyEvolve
Tree
p249
(dp250
g11
(imyEvolve
Tree
p251
(dp252
g11
(imyEvolve
Tree
p253
(dp254
g7
(imyEvolve
Tree
p255
(dp256
g10
I0
sg45
F-3.953719394271904
sg20
I01
sbsg10
I1
sg21
I01
sg22
g49
sbsg10
I2
sg24
(imyEvolve
Tree
p257
(dp258
g7
(imyEvolve
Tree
p259
(dp260
g10
I0
sg45
F2.2112499590500168
sg20
I01
sbsg10
I1
sg21
I01
sg22
g23
sbsg21
I00
sg22
g32
sbsg10
I3
sg24
(imyEvolve
Tree
p261
(dp262
g7
(imyEvolve
Tree
p263
(dp264
g7
(imyEvolve
Tree
p265
(dp266
g10
I0
sg45
F-4.87101732650288
sg20
I01
sbsg10
I1
sg21
I01
sg22
g49
sbsg10
I2
sg21
I01
sg22
g23
sbsg21
I00
sg22
g48
sbsg21
I00
sg22
g47
sba(imyEvolve
Tree
p267
(dp268
g11
(imyEvolve
Tree
p269
(dp270
g11
(imyEvolve
Tree
p271
(dp272
g10
I0
sg20
I00
sbsg10
I1
sg24
(imyEvolve
Tree
p273
(dp274
g10
I0
sg20
I00
sbsg21
I00
sg22
g48
sbsg10
I2
sg24
(imyEvolve
Tree
p275
(dp276
g7
(imyEvolve
Tree
p277
(dp278
g10
I0
sg20
I00
sbsg10
I1
sg21
I01
sg22
g31
sbsg21
I00
sg22
g47
sba(imyEvolve
Tree
p279
(dp280
g7
(imyEvolve
Tree
p281
(dp282
g7
(imyEvolve
Tree
p283
(dp284
g7
(imyEvolve
Tree
p285
(dp286
g7
(imyEvolve
Tree
p287
(dp288
g7
(imyEvolve
Tree
p289
(dp290
g10
I0
sg45
F-0.3928439706505831
sg20
I01
sbsg10
I1
sg21
I01
sg22
g49
sbsg10
I2
sg21
I01
sg22
g46
sbsg10
I3
sg21
I01
sg22
g23
sbsg10
I4
sg21
I01
sg22
g46
sbsg10
I5
sg21
I01
sg22
g49
sba(imyEvolve
Tree
p291
(dp292
g11
(imyEvolve
Tree
p293
(dp294
g7
(imyEvolve
Tree
p295
(dp296
g11
(imyEvolve
Tree
p297
(dp298
g7
(imyEvolve
Tree
p299
(dp300
g10
I0
sg20
I00
sbsg10
I1
sg21
I01
sg22
g49
sbsg10
I2
sg24
(imyEvolve
Tree
p301
(dp302
g7
(imyEvolve
Tree
p303
(dp304
g10
I0
sg20
I00
sbsg10
I1
sg21
I01
sg22
g46
sbsg21
I00
sg22
g47
sbsg10
I3
sg21
I01
sg22
g23
sbsg10
I4
sg24
(imyEvolve
Tree
p305
(dp306
g7
(imyEvolve
Tree
p307
(dp308
g7
(imyEvolve
Tree
p309
(dp310
g7
(imyEvolve
Tree
p311
(dp312
g10
I0
sg20
I00
sbsg10
I1
sg21
I01
sg22
g46
sbsg10
I2
sg21
I01
sg22
g49
sbsg10
I3
sg21
I01
sg22
g49
sbsg21
I00
sg22
g47
sba(imyEvolve
Tree
p313
(dp314
g7
(imyEvolve
Tree
p315
(dp316
g11
(imyEvolve
Tree
p317
(dp318
g7
(imyEvolve
Tree
p319
(dp320
g10
I0
sg20
I00
sbsg10
I1
sg21
I01
sg22
g31
sbsg10
I2
sg24
(imyEvolve
Tree
p321
(dp322
g7
(imyEvolve
Tree
p323
(dp324
g10
I0
sg45
F4.60060567636064
sg20
I01
sbsg10
I1
sg21
I01
sg22
g23
sbsg21
I00
sg22
g47
sbsg10
I3
sg21
I01
sg22
g49
sba(imyEvolve
Tree
p325
(dp326
g7
(imyEvolve
Tree
p327
(dp328
g10
I3
sg11
(imyEvolve
Tree
p329
(dp330
g7
(imyEvolve
Tree
p331
(dp332
g10
I1
sg11
(imyEvolve
Tree
p333
(dp334
g10
I0
sg20
I00
sbsg24
(imyEvolve
Tree
p335
(dp336
g10
I0
sg45
F4.9382306826323905
sg20
I01
sbsg21
I00
sg22
g48
sbsg10
I2
sg21
I01
sg22
g23
sbsg24
(imyEvolve
Tree
p337
(dp338
g7
(imyEvolve
Tree
p339
(dp340
g10
I1
sg11
(imyEvolve
Tree
p341
(dp342
g10
I0
sg45
F2.197409560837552
sg20
I01
sbsg24
(imyEvolve
Tree
p343
(dp344
g10
I0
sg20
I00
sbsg21
I00
sg22
g32
sbsg10
I2
sg21
I01
sg22
g46
sbsg21
I00
sg22
g48
sbsg10
I4
sg21
I01
sg22
g49
sba(imyEvolve
Tree
p345
(dp346
g10
I4
sg11
(imyEvolve
Tree
p347
(dp348
g10
I3
sg11
(imyEvolve
Tree
p349
(dp350
g10
I2
sg11
(imyEvolve
Tree
p351
(dp352
g7
(imyEvolve
Tree
p353
(dp354
g10
I0
sg45
F-3.5949073916037575
sg20
I01
sbsg10
I1
sg21
I01
sg22
g31
sbsg24
(imyEvolve
Tree
p355
(dp356
g10
I1
sg11
(imyEvolve
Tree
p357
(dp358
g10
I0
sg45
F4.761823496449514
sg20
I01
sbsg24
(imyEvolve
Tree
p359
(dp360
g10
I0
sg45
F4.526594899728252
sg20
I01
sbsg21
I00
sg22
g48
sbsg21
I00
sg22
g32
sbsg24
(imyEvolve
Tree
p361
(dp362
g10
I2
sg11
(imyEvolve
Tree
p363
(dp364
g10
I1
sg11
(imyEvolve
Tree
p365
(dp366
g10
I0
sg45
F-2.3930660641649104
sg20
I01
sbsg24
(imyEvolve
Tree
p367
(dp368
g10
I0
sg20
I00
sbsg21
I00
sg22
g32
sbsg24
(imyEvolve
Tree
p369
(dp370
g10
I1
sg11
(imyEvolve
Tree
p371
(dp372
g10
I0
sg20
I00
sbsg24
(imyEvolve
Tree
p373
(dp374
g10
I0
sg45
F1.5969454826554754
sg20
I01
sbsg21
I00
sg22
g48
sbsg21
I00
sg22
g47
sbsg21
I00
sg22
g47
sbsg24
(imyEvolve
Tree
p375
(dp376
g10
I3
sg11
(imyEvolve
Tree
p377
(dp378
g7
(imyEvolve
Tree
p379
(dp380
g10
I1
sg11
(imyEvolve
Tree
p381
(dp382
g10
I0
sg45
F3.386716154592598
sg20
I01
sbsg24
(imyEvolve
Tree
p383
(dp384
g10
I0
sg20
I00
sbsg21
I00
sg22
g48
sbsg10
I2
sg21
I01
sg22
g46
sbsg24
(imyEvolve
Tree
p385
(dp386
g7
(imyEvolve
Tree
p387
(dp388
g10
I1
sg11
(imyEvolve
Tree
p389
(dp390
g10
I0
sg45
F-2.8244756963164166
sg20
I01
sbsg24
(imyEvolve
Tree
p391
(dp392
g10
I0
sg45
F-2.742734008577292
sg20
I01
sbsg21
I00
sg22
g47
sbsg10
I2
sg21
I01
sg22
g23
sbsg21
I00
sg22
g47
sbsg21
I00
sg22
g47
sba(imyEvolve
Tree
p393
(dp394
g7
(imyEvolve
Tree
p395
(dp396
g7
(imyEvolve
Tree
p397
(dp398
g10
I0
sg45
F4.920875181572963
sg20
I01
sbsg10
I1
sg21
I01
sg22
g31
sbsg10
I2
sg21
I01
sg22
g46
sba(imyEvolve
Tree
p399
(dp400
g7
(imyEvolve
Tree
p401
(dp402
g11
(imyEvolve
Tree
p403
(dp404
g11
(imyEvolve
Tree
p405
(dp406
g10
I0
sg45
F1.7830900044286349
sg20
I01
sbsg10
I1
sg24
(imyEvolve
Tree
p407
(dp408
g10
I0
sg45
F-1.1987786485235552
sg20
I01
sbsg21
I00
sg22
g48
sbsg10
I2
sg24
(imyEvolve
Tree
p409
(dp410
g11
(imyEvolve
Tree
p411
(dp412
g10
I0
sg45
F2.2103201594598527
sg20
I01
sbsg10
I1
sg24
(imyEvolve
Tree
p413
(dp414
g10
I0
sg20
I00
sbsg21
I00
sg22
g48
sbsg21
I00
sg22
g48
sbsg10
I3
sg21
I01
sg22
g46
sba(imyEvolve
Tree
p415
(dp416
g11
(imyEvolve
Tree
p417
(dp418
g7
(imyEvolve
Tree
p419
(dp420
g11
(imyEvolve
Tree
p421
(dp422
g7
(imyEvolve
Tree
p423
(dp424
g11
(imyEvolve
Tree
p425
(dp426
g10
I0
sg45
F-4.737511868862114
sg20
I01
sbsg10
I1
sg24
(imyEvolve
Tree
p427
(dp428
g10
I0
sg45
F3.7521648800040026
sg20
I01
sbsg21
I00
sg22
g32
sbsg10
I2
sg21
I01
sg22
g31
sbsg10
I3
sg24
(imyEvolve
Tree
p429
(dp430
g11
(imyEvolve
Tree
p431
(dp432
g11
(imyEvolve
Tree
p433
(dp434
g10
I0
sg20
I00
sbsg10
I1
sg24
(imyEvolve
Tree
p435
(dp436
g10
I0
sg45
F-1.0816151023391307
sg20
I01
sbsg21
I00
sg22
g48
sbsg10
I2
sg24
(imyEvolve
Tree
p437
(dp438
g7
(imyEvolve
Tree
p439
(dp440
g10
I0
sg45
F4.614271217284497
sg20
I01
sbsg10
I1
sg21
I01
sg22
g23
sbsg21
I00
sg22
g48
sbsg21
I00
sg22
g32
sbsg10
I4
sg21
I01
sg22
g23
sbsg10
I5
sg24
(imyEvolve
Tree
p441
(dp442
g7
(imyEvolve
Tree
p443
(dp444
g7
(imyEvolve
Tree
p445
(dp446
g7
(imyEvolve
Tree
p447
(dp448
g7
(imyEvolve
Tree
p449
(dp450
g10
I0
sg20
I00
sbsg10
I1
sg21
I01
sg22
g31
sbsg10
I2
sg21
I01
sg22
g31
sbsg10
I3
sg21
I01
sg22
g23
sbsg10
I4
sg21
I01
sg22
g23
sbsg21
I00
sg22
g32
sba(imyEvolve
Tree
p451
(dp452
g10
I3
sg11
(imyEvolve
Tree
p453
(dp454
g10
I2
sg11
(imyEvolve
Tree
p455
(dp456
g10
I1
sg11
(imyEvolve
Tree
p457
(dp458
g10
I0
sg45
F3.6633876272774177
sg20
I01
sbsg24
(imyEvolve
Tree
p459
(dp460
g10
I0
sg20
I00
sbsg21
I00
sg22
g48
sbsg24
(imyEvolve
Tree
p461
(dp462
g7
(imyEvolve
Tree
p463
(dp464
g10
I0
sg20
I00
sbsg10
I1
sg21
I01
sg22
g49
sbsg21
I00
sg22
g48
sbsg24
(imyEvolve
Tree
p465
(dp466
g10
I2
sg11
(imyEvolve
Tree
p467
(dp468
g7
(imyEvolve
Tree
p469
(dp470
g10
I0
sg45
F0.9287831701478124
sg20
I01
sbsg10
I1
sg21
I01
sg22
g23
sbsg24
(imyEvolve
Tree
p471
(dp472
g10
I1
sg11
(imyEvolve
Tree
p473
(dp474
g10
I0
sg45
F-1.1046990428425865
sg20
I01
sbsg24
(imyEvolve
Tree
p475
(dp476
g10
I0
sg20
I00
sbsg21
I00
sg22
g47
sbsg21
I00
sg22
g48
sbsg21
I00
sg22
g48
sbaa(lp477
(imyEvolve
Tree
p478
(dp479
g7
(imyEvolve
Tree
p480
(dp481
g7
(imyEvolve
Tree
p482
(dp483
g7
(imyEvolve
Tree
p484
(dp485
g10
I0
sg45
F2.7799744554251893
sg20
I01
sbsg10
I1
sg21
I01
sg22
g23
sbsg10
I2
sg21
I01
sg22
g31
sbsg10
I3
sg21
I01
sg22
g31
sba(imyEvolve
Tree
p486
(dp487
g11
(imyEvolve
Tree
p488
(dp489
g11
(imyEvolve
Tree
p490
(dp491
g7
(imyEvolve
Tree
p492
(dp493
g11
(imyEvolve
Tree
p494
(dp495
g7
(imyEvolve
Tree
p496
(dp497
g10
I0
sg45
F4.276482765628039
sg20
I01
sbsg10
I1
sg21
I01
sg22
g46
sbsg10
I2
sg24
(imyEvolve
Tree
p498
(dp499
g7
(imyEvolve
Tree
p500
(dp501
g10
I0
sg45
F0.1902149452745121
sg20
I01
sbsg10
I1
sg21
I01
sg22
g46
sbsg21
I00
sg22
g48
sbsg10
I3
sg21
I01
sg22
g23
sbsg10
I4
sg24
(imyEvolve
Tree
p502
(dp503
g11
(imyEvolve
Tree
p504
(dp505
g7
(imyEvolve
Tree
p506
(dp507
g11
(imyEvolve
Tree
p508
(dp509
g10
I0
sg20
I00
sbsg10
I1
sg24
(imyEvolve
Tree
p510
(dp511
g10
I0
sg45
F-3.7382981899894894
sg20
I01
sbsg21
I00
sg22
g32
sbsg10
I2
sg21
I01
sg22
g46
sbsg10
I3
sg24
(imyEvolve
Tree
p512
(dp513
g11
(imyEvolve
Tree
p514
(dp515
g11
(imyEvolve
Tree
p516
(dp517
g10
I0
sg20
I00
sbsg10
I1
sg24
(imyEvolve
Tree
p518
(dp519
g10
I0
sg45
F-3.699354253628384
sg20
I01
sbsg21
I00
sg22
g47
sbsg10
I2
sg24
(imyEvolve
Tree
p520
(dp521
g7
(imyEvolve
Tree
p522
(dp523
g10
I0
sg20
I00
sbsg10
I1
sg21
I01
sg22
g23
sbsg21
I00
sg22
g48
sbsg21
I00
sg22
g32
sbsg21
I00
sg22
g32
sbsg10
I5
sg24
(imyEvolve
Tree
p524
(dp525
g7
(imyEvolve
Tree
p526
(dp527
g7
(imyEvolve
Tree
p528
(dp529
g11
(imyEvolve
Tree
p530
(dp531
g7
(imyEvolve
Tree
p532
(dp533
g10
I0
sg20
I00
sbsg10
I1
sg21
I01
sg22
g49
sbsg10
I2
sg24
(imyEvolve
Tree
p534
(dp535
g11
(imyEvolve
Tree
p536
(dp537
g10
I0
sg45
F2.6501444584697555
sg20
I01
sbsg10
I1
sg24
(imyEvolve
Tree
p538
(dp539
g10
I0
sg20
I00
sbsg21
I00
sg22
g48
sbsg21
I00
sg22
g48
sbsg10
I3
sg21
I01
sg22
g23
sbsg10
I4
sg21
I01
sg22
g49
sbsg21
I00
sg22
g47
sba(imyEvolve
Tree
p540
(dp541
g7
(imyEvolve
Tree
p542
(dp543
g10
I2
sg11
(imyEvolve
Tree
p544
(dp545
g10
I1
sg11
(imyEvolve
Tree
p546
(dp547
g10
I0
sg45
F4.572667454781119
sg20
I01
sbsg24
(imyEvolve
Tree
p548
(dp549
g10
I0
sg20
I00
sbsg21
I00
sg22
g32
sbsg24
(imyEvolve
Tree
p550
(dp551
g10
I1
sg11
(imyEvolve
Tree
p552
(dp553
g10
I0
sg45
F4.719924177397692
sg20
I01
sbsg24
(imyEvolve
Tree
p554
(dp555
g10
I0
sg20
I00
sbsg21
I00
sg22
g48
sbsg21
I00
sg22
g32
sbsg10
I3
sg21
I01
sg22
g31
sba(imyEvolve
Tree
p556
(dp557
g11
(imyEvolve
Tree
p558
(dp559
g11
(imyEvolve
Tree
p560
(dp561
g7
(imyEvolve
Tree
p562
(dp563
g10
I0
sg20
I00
sbsg10
I1
sg21
I01
sg22
g31
sbsg10
I2
sg24
(imyEvolve
Tree
p564
(dp565
g11
(imyEvolve
Tree
p566
(dp567
g10
I0
sg20
I00
sbsg10
I1
sg24
(imyEvolve
Tree
p568
(dp569
g10
I0
sg45
F-0.941585394241848
sg20
I01
sbsg21
I00
sg22
g47
sbsg21
I00
sg22
g48
sbsg10
I3
sg24
(imyEvolve
Tree
p570
(dp571
g11
(imyEvolve
Tree
p572
(dp573
g7
(imyEvolve
Tree
p574
(dp575
g10
I0
sg45
F2.6210174398404575
sg20
I01
sbsg10
I1
sg21
I01
sg22
g23
sbsg10
I2
sg24
(imyEvolve
Tree
p576
(dp577
g7
(imyEvolve
Tree
p578
(dp579
g10
I0
sg45
F-4.045359181508706
sg20
I01
sbsg10
I1
sg21
I01
sg22
g49
sbsg21
I00
sg22
g47
sbsg21
I00
sg22
g48
sba(imyEvolve
Tree
p580
(dp581
g7
(imyEvolve
Tree
p582
(dp583
g11
(imyEvolve
Tree
p584
(dp585
g11
(imyEvolve
Tree
p586
(dp587
g11
(imyEvolve
Tree
p588
(dp589
g10
I0
sg45
F-2.7578655337997384
sg20
I01
sbsg10
I1
sg24
(imyEvolve
Tree
p590
(dp591
g10
I0
sg45
F-2.4645350105081167
sg20
I01
sbsg21
I00
sg22
g48
sbsg10
I2
sg24
(imyEvolve
Tree
p592
(dp593
g7
(imyEvolve
Tree
p594
(dp595
g10
I0
sg45
F2.063864900141521
sg20
I01
sbsg10
I1
sg21
I01
sg22
g46
sbsg21
I00
sg22
g48
sbsg10
I3
sg24
(imyEvolve
Tree
p596
(dp597
g11
(imyEvolve
Tree
p598
(dp599
g7
(imyEvolve
Tree
p600
(dp601
g10
I0
sg20
I00
sbsg10
I1
sg21
I01
sg22
g46
sbsg10
I2
sg24
(imyEvolve
Tree
p602
(dp603
g11
(imyEvolve
Tree
p604
(dp605
g10
I0
sg20
I00
sbsg10
I1
sg24
(imyEvolve
Tree
p606
(dp607
g10
I0
sg20
I00
sbsg21
I00
sg22
g47
sbsg21
I00
sg22
g32
sbsg21
I00
sg22
g32
sbsg10
I4
sg21
I01
sg22
g46
sba(imyEvolve
Tree
p608
(dp609
g7
(imyEvolve
Tree
p610
(dp611
g7
(imyEvolve
Tree
p612
(dp613
g11
(imyEvolve
Tree
p614
(dp615
g7
(imyEvolve
Tree
p616
(dp617
g10
I0
sg45
F1.4092503662679263
sg20
I01
sbsg10
I1
sg21
I01
sg22
g31
sbsg10
I2
sg24
(imyEvolve
Tree
p618
(dp619
g7
(imyEvolve
Tree
p620
(dp621
g10
I0
sg20
I00
sbsg10
I1
sg21
I01
sg22
g23
sbsg21
I00
sg22
g47
sbsg10
I3
sg21
I01
sg22
g49
sbsg10
I4
sg21
I01
sg22
g49
sba(imyEvolve
Tree
p622
(dp623
g7
(imyEvolve
Tree
p624
(dp625
g10
I1
sg11
(imyEvolve
Tree
p626
(dp627
g10
I0
sg45
F1.4460649429030248
sg20
I01
sbsg24
(imyEvolve
Tree
p628
(dp629
g10
I0
sg20
I00
sbsg21
I00
sg22
g48
sbsg10
I2
sg21
I01
sg22
g31
sba(imyEvolve
Tree
p630
(dp631
g7
(imyEvolve
Tree
p632
(dp633
g11
(imyEvolve
Tree
p634
(dp635
g11
(imyEvolve
Tree
p636
(dp637
g10
I0
sg45
F4.310691393680797
sg20
I01
sbsg10
I1
sg24
(imyEvolve
Tree
p638
(dp639
g10
I0
sg45
F-1.9901444880081351
sg20
I01
sbsg21
I00
sg22
g48
sbsg10
I2
sg24
(imyEvolve
Tree
p640
(dp641
g7
(imyEvolve
Tree
p642
(dp643
g10
I0
sg45
F2.2929575047705706
sg20
I01
sbsg10
I1
sg21
I01
sg22
g31
sbsg21
I00
sg22
g48
sbsg10
I3
sg21
I01
sg22
g46
sba(imyEvolve
Tree
p644
(dp645
g11
(imyEvolve
Tree
p646
(dp647
g7
(imyEvolve
Tree
p648
(dp649
g11
(imyEvolve
Tree
p650
(dp651
g7
(imyEvolve
Tree
p652
(dp653
g7
(imyEvolve
Tree
p654
(dp655
g10
I0
sg20
I00
sbsg10
I1
sg21
I01
sg22
g49
sbsg10
I2
sg21
I01
sg22
g23
sbsg10
I3
sg24
(imyEvolve
Tree
p656
(dp657
g11
(imyEvolve
Tree
p658
(dp659
g7
(imyEvolve
Tree
p660
(dp661
g10
I0
sg20
I00
sbsg10
I1
sg21
I01
sg22
g46
sbsg10
I2
sg24
(imyEvolve
Tree
p662
(dp663
g7
(imyEvolve
Tree
p664
(dp665
g10
I0
sg20
I00
sbsg10
I1
sg21
I01
sg22
g46
sbsg21
I00
sg22
g48
sbsg21
I00
sg22
g32
sbsg10
I4
sg21
I01
sg22
g49
sbsg10
I5
sg24
(imyEvolve
Tree
p666
(dp667
g11
(imyEvolve
Tree
p668
(dp669
g7
(imyEvolve
Tree
p670
(dp671
g7
(imyEvolve
Tree
p672
(dp673
g7
(imyEvolve
Tree
p674
(dp675
g10
I0
sg20
I00
sbsg10
I1
sg21
I01
sg22
g31
sbsg10
I2
sg21
I01
sg22
g46
sbsg10
I3
sg21
I01
sg22
g46
sbsg10
I4
sg24
(imyEvolve
Tree
p676
(dp677
g11
(imyEvolve
Tree
p678
(dp679
g7
(imyEvolve
Tree
p680
(dp681
g11
(imyEvolve
Tree
p682
(dp683
g10
I0
sg20
I00
sbsg10
I1
sg24
(imyEvolve
Tree
p684
(dp685
g10
I0
sg20
I00
sbsg21
I00
sg22
g48
sbsg10
I2
sg21
I01
sg22
g49
sbsg10
I3
sg24
(imyEvolve
Tree
p686
(dp687
g7
(imyEvolve
Tree
p688
(dp689
g7
(imyEvolve
Tree
p690
(dp691
g10
I0
sg45
F-3.2077212438364433
sg20
I01
sbsg10
I1
sg21
I01
sg22
g31
sbsg10
I2
sg21
I01
sg22
g49
sbsg21
I00
sg22
g47
sbsg21
I00
sg22
g47
sbsg21
I00
sg22
g48
sba(imyEvolve
Tree
p692
(dp693
g11
(imyEvolve
Tree
p694
(dp695
g7
(imyEvolve
Tree
p696
(dp697
g7
(imyEvolve
Tree
p698
(dp699
g7
(imyEvolve
Tree
p700
(dp701
g11
(imyEvolve
Tree
p702
(dp703
g10
I0
sg45
F4.3656886241889055
sg20
I01
sbsg10
I1
sg24
(imyEvolve
Tree
p704
(dp705
g10
I0
sg20
I00
sbsg21
I00
sg22
g47
sbsg10
I2
sg21
I01
sg22
g23
sbsg10
I3
sg21
I01
sg22
g31
sbsg10
I4
sg21
I01
sg22
g23
sbsg10
I5
sg24
(imyEvolve
Tree
p706
(dp707
g7
(imyEvolve
Tree
p708
(dp709
g7
(imyEvolve
Tree
p710
(dp711
g7
(imyEvolve
Tree
p712
(dp713
g11
(imyEvolve
Tree
p714
(dp715
g10
I0
sg45
F-0.19306148715914961
sg20
I01
sbsg10
I1
sg24
(imyEvolve
Tree
p716
(dp717
g10
I0
sg20
I00
sbsg21
I00
sg22
g32
sbsg10
I2
sg21
I01
sg22
g23
sbsg10
I3
sg21
I01
sg22
g23
sbsg10
I4
sg21
I01
sg22
g46
sbsg21
I00
sg22
g32
sba(imyEvolve
Tree
p718
(dp719
g11
(imyEvolve
Tree
p720
(dp721
g11
(imyEvolve
Tree
p722
(dp723
g7
(imyEvolve
Tree
p724
(dp725
g10
I0
sg20
I00
sbsg10
I1
sg21
I01
sg22
g31
sbsg10
I2
sg24
(imyEvolve
Tree
p726
(dp727
g11
(imyEvolve
Tree
p728
(dp729
g10
I0
sg20
I00
sbsg10
I1
sg24
(imyEvolve
Tree
p730
(dp731
g10
I0
sg20
I00
sbsg21
I00
sg22
g32
sbsg21
I00
sg22
g32
sbsg10
I3
sg24
(imyEvolve
Tree
p732
(dp733
g7
(imyEvolve
Tree
p734
(dp735
g7
(imyEvolve
Tree
p736
(dp737
g10
I0
sg45
F-4.700930982825623
sg20
I01
sbsg10
I1
sg21
I01
sg22
g49
sbsg10
I2
sg21
I01
sg22
g49
sbsg21
I00
sg22
g32
sba(imyEvolve
Tree
p738
(dp739
g7
(imyEvolve
Tree
p740
(dp741
g7
(imyEvolve
Tree
p742
(dp743
g11
(imyEvolve
Tree
p744
(dp745
g10
I0
sg20
I00
sbsg10
I1
sg24
(imyEvolve
Tree
p746
(dp747
g10
I0
sg20
I00
sbsg21
I00
sg22
g47
sbsg10
I2
sg21
I01
sg22
g23
sbsg10
I3
sg21
I01
sg22
g23
sba(imyEvolve
Tree
p748
(dp749
g10
I2
sg11
(imyEvolve
Tree
p750
(dp751
g10
I1
sg11
(imyEvolve
Tree
p752
(dp753
g10
I0
sg45
F1.5640191020632122
sg20
I01
sbsg24
(imyEvolve
Tree
p754
(dp755
g10
I0
sg20
I00
sbsg21
I00
sg22
g48
sbsg24
(imyEvolve
Tree
p756
(dp757
g10
I1
sg11
(imyEvolve
Tree
p758
(dp759
g10
I0
sg20
I00
sbsg24
(imyEvolve
Tree
p760
(dp761
g10
I0
sg20
I00
sbsg21
I00
sg22
g47
sbsg21
I00
sg22
g47
sba(imyEvolve
Tree
p762
(dp763
g11
(imyEvolve
Tree
p764
(dp765
g7
(imyEvolve
Tree
p766
(dp767
g7
(imyEvolve
Tree
p768
(dp769
g10
I0
sg20
I00
sbsg10
I1
sg21
I01
sg22
g23
sbsg10
I2
sg21
I01
sg22
g31
sbsg10
I3
sg24
(imyEvolve
Tree
p770
(dp771
g7
(imyEvolve
Tree
p772
(dp773
g11
(imyEvolve
Tree
p774
(dp775
g10
I0
sg20
I00
sbsg10
I1
sg24
(imyEvolve
Tree
p776
(dp777
g10
I0
sg20
I00
sbsg21
I00
sg22
g47
sbsg10
I2
sg21
I01
sg22
g23
sbsg21
I00
sg22
g47
sba(imyEvolve
Tree
p778
(dp779
g11
(imyEvolve
Tree
p780
(dp781
g7
(imyEvolve
Tree
p782
(dp783
g10
I0
sg45
F-3.594012668945904
sg20
I01
sbsg10
I1
sg21
I01
sg22
g31
sbsg10
I2
sg24
(imyEvolve
Tree
p784
(dp785
g11
(imyEvolve
Tree
p786
(dp787
g10
I0
sg20
I00
sbsg10
I1
sg24
(imyEvolve
Tree
p788
(dp789
g10
I0
sg20
I00
sbsg21
I00
sg22
g32
sbsg21
I00
sg22
g47
sbaa(lp790
(imyEvolve
Tree
p791
(dp792
g7
(imyEvolve
Tree
p793
(dp794
g7
(imyEvolve
Tree
p795
(dp796
g7
(imyEvolve
Tree
p797
(dp798
g10
I0
sg45
F3.2148556041463525
sg20
I01
sbsg10
I1
sg21
I01
sg22
g46
sbsg10
I2
sg21
I01
sg22
g46
sbsg10
I3
sg21
I01
sg22
g31
sba(imyEvolve
Tree
p799
(dp800
g11
(imyEvolve
Tree
p801
(dp802
g7
(imyEvolve
Tree
p803
(dp804
g10
I0
sg20
I00
sbsg10
I1
sg21
I01
sg22
g31
sbsg10
I2
sg24
(imyEvolve
Tree
p805
(dp806
g11
(imyEvolve
Tree
p807
(dp808
g10
I0
sg45
F-2.7625417990029746
sg20
I01
sbsg10
I1
sg24
(imyEvolve
Tree
p809
(dp810
g10
I0
sg45
F-0.37170770325699465
sg20
I01
sbsg21
I00
sg22
g32
sbsg21
I00
sg22
g47
sba(imyEvolve
Tree
p811
(dp812
g10
I3
sg11
(imyEvolve
Tree
p813
(dp814
g10
I2
sg11
(imyEvolve
Tree
p815
(dp816
g10
I1
sg11
(imyEvolve
Tree
p817
(dp818
g10
I0
sg20
I00
sbsg24
(imyEvolve
Tree
p819
(dp820
g10
I0
sg45
F-2.90522746838624
sg20
I01
sbsg21
I00
sg22
g47
sbsg24
(imyEvolve
Tree
p821
(dp822
g10
I1
sg11
(imyEvolve
Tree
p823
(dp824
g10
I0
sg45
F-0.7102697271619718
sg20
I01
sbsg24
(imyEvolve
Tree
p825
(dp826
g10
I0
sg45
F3.6656758276040584
sg20
I01
sbsg21
I00
sg22
g32
sbsg21
I00
sg22
g32
sbsg24
(imyEvolve
Tree
p827
(dp828
g10
I2
sg11
(imyEvolve
Tree
p829
(dp830
g7
(imyEvolve
Tree
p831
(dp832
g10
I0
sg45
F-0.2828754547697008
sg20
I01
sbsg10
I1
sg21
I01
sg22
g23
sbsg24
(imyEvolve
Tree
p833
(dp834
g7
(imyEvolve
Tree
p835
(dp836
g10
I0
sg45
F-1.268044054184705
sg20
I01
sbsg10
I1
sg21
I01
sg22
g46
sbsg21
I00
sg22
g47
sbsg21
I00
sg22
g32
sba(imyEvolve
Tree
p837
(dp838
g11
(imyEvolve
Tree
p839
(dp840
g11
(imyEvolve
Tree
p841
(dp842
g11
(imyEvolve
Tree
p843
(dp844
g11
(imyEvolve
Tree
p845
(dp846
g10
I0
sg20
I00
sbsg10
I1
sg24
(imyEvolve
Tree
p847
(dp848
g10
I0
sg20
I00
sbsg21
I00
sg22
g32
sbsg10
I2
sg24
(imyEvolve
Tree
p849
(dp850
g7
(imyEvolve
Tree
p851
(dp852
g10
I0
sg20
I00
sbsg10
I1
sg21
I01
sg22
g49
sbsg21
I00
sg22
g32
sbsg10
I3
sg24
(imyEvolve
Tree
p853
(dp854
g11
(imyEvolve
Tree
p855
(dp856
g11
(imyEvolve
Tree
p857
(dp858
g10
I0
sg20
I00
sbsg10
I1
sg24
(imyEvolve
Tree
p859
(dp860
g10
I0
sg45
F-0.6212005546131003
sg20
I01
sbsg21
I00
sg22
g48
sbsg10
I2
sg24
(imyEvolve
Tree
p861
(dp862
g11
(imyEvolve
Tree
p863
(dp864
g10
I0
sg20
I00
sbsg10
I1
sg24
(imyEvolve
Tree
p865
(dp866
g10
I0
sg45
F4.7304303209193534
sg20
I01
sbsg21
I00
sg22
g47
sbsg21
I00
sg22
g32
sbsg21
I00
sg22
g47
sbsg10
I4
sg24
(imyEvolve
Tree
p867
(dp868
g11
(imyEvolve
Tree
p869
(dp870
g7
(imyEvolve
Tree
p871
(dp872
g11
(imyEvolve
Tree
p873
(dp874
g10
I0
sg45
F2.819326682676082
sg20
I01
sbsg10
I1
sg24
(imyEvolve
Tree
p875
(dp876
g10
I0
sg45
F-4.893844115724075
sg20
I01
sbsg21
I00
sg22
g48
sbsg10
I2
sg21
I01
sg22
g23
sbsg10
I3
sg24
(imyEvolve
Tree
p877
(dp878
g7
(imyEvolve
Tree
p879
(dp880
g11
(imyEvolve
Tree
p881
(dp882
g10
I0
sg45
F4.827115676323343
sg20
I01
sbsg10
I1
sg24
(imyEvolve
Tree
p883
(dp884
g10
I0
sg20
I00
sbsg21
I00
sg22
g48
sbsg10
I2
sg21
I01
sg22
g31
sbsg21
I00
sg22
g47
sbsg21
I00
sg22
g32
sba(imyEvolve
Tree
p885
(dp886
g11
(imyEvolve
Tree
p887
(dp888
g7
(imyEvolve
Tree
p889
(dp890
g10
I0
sg45
F-3.6178532335385185
sg20
I01
sbsg10
I1
sg21
I01
sg22
g31
sbsg10
I2
sg24
(imyEvolve
Tree
p891
(dp892
g7
(imyEvolve
Tree
p893
(dp894
g10
I0
sg20
I00
sbsg10
I1
sg21
I01
sg22
g46
sbsg21
I00
sg22
g47
sba(imyEvolve
Tree
p895
(dp896
g7
(imyEvolve
Tree
p897
(dp898
g11
(imyEvolve
Tree
p899
(dp900
g11
(imyEvolve
Tree
p901
(dp902
g10
I0
sg20
I00
sbsg10
I1
sg24
(imyEvolve
Tree
p903
(dp904
g10
I0
sg45
F4.57318657479089
sg20
I01
sbsg21
I00
sg22
g32
sbsg10
I2
sg24
(imyEvolve
Tree
p905
(dp906
g7
(imyEvolve
Tree
p907
(dp908
g10
I0
sg20
I00
sbsg10
I1
sg21
I01
sg22
g49
sbsg21
I00
sg22
g48
sbsg10
I3
sg21
I01
sg22
g46
sba(imyEvolve
Tree
p909
(dp910
g11
(imyEvolve
Tree
p911
(dp912
g7
(imyEvolve
Tree
p913
(dp914
g7
(imyEvolve
Tree
p915
(dp916
g11
(imyEvolve
Tree
p917
(dp918
g10
I0
sg20
I00
sbsg10
I1
sg24
(imyEvolve
Tree
p919
(dp920
g10
I0
sg20
I00
sbsg21
I00
sg22
g32
sbsg10
I2
sg21
I01
sg22
g31
sbsg10
I3
sg21
I01
sg22
g31
sbsg10
I4
sg24
(imyEvolve
Tree
p921
(dp922
g11
(imyEvolve
Tree
p923
(dp924
g11
(imyEvolve
Tree
p925
(dp926
g11
(imyEvolve
Tree
p927
(dp928
g10
I0
sg20
I00
sbsg10
I1
sg24
(imyEvolve
Tree
p929
(dp930
g10
I0
sg45
F-0.14158704149658874
sg20
I01
sbsg21
I00
sg22
g32
sbsg10
I2
sg24
(imyEvolve
Tree
p931
(dp932
g7
(imyEvolve
Tree
p933
(dp934
g10
I0
sg45
F0.1111288196329765
sg20
I01
sbsg10
I1
sg21
I01
sg22
g31
sbsg21
I00
sg22
g32
sbsg10
I3
sg24
(imyEvolve
Tree
p935
(dp936
g11
(imyEvolve
Tree
p937
(dp938
g11
(imyEvolve
Tree
p939
(dp940
g10
I0
sg20
I00
sbsg10
I1
sg24
(imyEvolve
Tree
p941
(dp942
g10
I0
sg20
I00
sbsg21
I00
sg22
g48
sbsg10
I2
sg24
(imyEvolve
Tree
p943
(dp944
g7
(imyEvolve
Tree
p945
(dp946
g10
I0
sg20
I00
sbsg10
I1
sg21
I01
sg22
g49
sbsg21
I00
sg22
g48
sbsg21
I00
sg22
g32
sbsg21
I00
sg22
g47
sba(imyEvolve
Tree
p947
(dp948
g7
(imyEvolve
Tree
p949
(dp950
g7
(imyEvolve
Tree
p951
(dp952
g11
(imyEvolve
Tree
p953
(dp954
g11
(imyEvolve
Tree
p955
(dp956
g10
I0
sg20
I00
sbsg10
I1
sg24
(imyEvolve
Tree
p957
(dp958
g10
I0
sg45
F2.6312471590262723
sg20
I01
sbsg21
I00
sg22
g48
sbsg10
I2
sg24
(imyEvolve
Tree
p959
(dp960
g7
(imyEvolve
Tree
p961
(dp962
g10
I0
sg45
F-0.9703541138704193
sg20
I01
sbsg10
I1
sg21
I01
sg22
g46
sbsg21
I00
sg22
g32
sbsg10
I3
sg21
I01
sg22
g31
sbsg10
I4
sg21
I01
sg22
g46
sba(imyEvolve
Tree
p963
(dp964
g11
(imyEvolve
Tree
p965
(dp966
g11
(imyEvolve
Tree
p967
(dp968
g7
(imyEvolve
Tree
p969
(dp970
g11
(imyEvolve
Tree
p971
(dp972
g10
I0
sg45
F1.4396042513113718
sg20
I01
sbsg10
I1
sg24
(imyEvolve
Tree
p973
(dp974
g10
I0
sg45
F2.207175636606186
sg20
I01
sbsg21
I00
sg22
g48
sbsg10
I2
sg21
I01
sg22
g23
sbsg10
I3
sg24
(imyEvolve
Tree
p975
(dp976
g7
(imyEvolve
Tree
p977
(dp978
g11
(imyEvolve
Tree
p979
(dp980
g10
I0
sg20
I00
sbsg10
I1
sg24
(imyEvolve
Tree
p981
(dp982
g10
I0
sg45
F3.861996641265476
sg20
I01
sbsg21
I00
sg22
g32
sbsg10
I2
sg21
I01
sg22
g31
sbsg21
I00
sg22
g48
sbsg10
I4
sg24
(imyEvolve
Tree
p983
(dp984
g11
(imyEvolve
Tree
p985
(dp986
g7
(imyEvolve
Tree
p987
(dp988
g7
(imyEvolve
Tree
p989
(dp990
g10
I0
sg45
F-4.414610067947651
sg20
I01
sbsg10
I1
sg21
I01
sg22
g23
sbsg10
I2
sg21
I01
sg22
g46
sbsg10
I3
sg24
(imyEvolve
Tree
p991
(dp992
g11
(imyEvolve
Tree
p993
(dp994
g7
(imyEvolve
Tree
p995
(dp996
g10
I0
sg45
F-3.2306758995993823
sg20
I01
sbsg10
I1
sg21
I01
sg22
g49
sbsg10
I2
sg24
(imyEvolve
Tree
p997
(dp998
g11
(imyEvolve
Tree
p999
(dp1000
g10
I0
sg45
F-1.4674133880890716
sg20
I01
sbsg10
I1
sg24
(imyEvolve
Tree
p1001
(dp1002
g10
I0
sg20
I00
sbsg21
I00
sg22
g48
sbsg21
I00
sg22
g47
sbsg21
I00
sg22
g47
sbsg21
I00
sg22
g32
sba(imyEvolve
Tree
p1003
(dp1004
g7
(imyEvolve
Tree
p1005
(dp1006
g11
(imyEvolve
Tree
p1007
(dp1008
g11
(imyEvolve
Tree
p1009
(dp1010
g10
I0
sg20
I00
sbsg10
I1
sg24
(imyEvolve
Tree
p1011
(dp1012
g10
I0
sg45
F-3.975322356800314
sg20
I01
sbsg21
I00
sg22
g48
sbsg10
I2
sg24
(imyEvolve
Tree
p1013
(dp1014
g11
(imyEvolve
Tree
p1015
(dp1016
g10
I0
sg45
F-0.5660603997116382
sg20
I01
sbsg10
I1
sg24
(imyEvolve
Tree
p1017
(dp1018
g10
I0
sg20
I00
sbsg21
I00
sg22
g48
sbsg21
I00
sg22
g32
sbsg10
I3
sg21
I01
sg22
g46
sba(imyEvolve
Tree
p1019
(dp1020
g10
I3
sg11
(imyEvolve
Tree
p1021
(dp1022
g10
I2
sg11
(imyEvolve
Tree
p1023
(dp1024
g10
I1
sg11
(imyEvolve
Tree
p1025
(dp1026
g10
I0
sg45
F-4.3610285856817335
sg20
I01
sbsg24
(imyEvolve
Tree
p1027
(dp1028
g10
I0
sg45
F3.7769618006635177
sg20
I01
sbsg21
I00
sg22
g48
sbsg24
(imyEvolve
Tree
p1029
(dp1030
g7
(imyEvolve
Tree
p1031
(dp1032
g10
I0
sg20
I00
sbsg10
I1
sg21
I01
sg22
g31
sbsg21
I00
sg22
g48
sbsg24
(imyEvolve
Tree
p1033
(dp1034
g7
(imyEvolve
Tree
p1035
(dp1036
g7
(imyEvolve
Tree
p1037
(dp1038
g10
I0
sg45
F3.407097300031447
sg20
I01
sbsg10
I1
sg21
I01
sg22
g23
sbsg10
I2
sg21
I01
sg22
g46
sbsg21
I00
sg22
g32
sba(imyEvolve
Tree
p1039
(dp1040
g7
(imyEvolve
Tree
p1041
(dp1042
g7
(imyEvolve
Tree
p1043
(dp1044
g7
(imyEvolve
Tree
p1045
(dp1046
g11
(imyEvolve
Tree
p1047
(dp1048
g11
(imyEvolve
Tree
p1049
(dp1050
g10
I0
sg45
F-1.6967562311127917
sg20
I01
sbsg10
I1
sg24
(imyEvolve
Tree
p1051
(dp1052
g10
I0
sg45
F3.6644943057405186
sg20
I01
sbsg21
I00
sg22
g48
sbsg10
I2
sg24
(imyEvolve
Tree
p1053
(dp1054
g11
(imyEvolve
Tree
p1055
(dp1056
g10
I0
sg45
F2.3081921395933778
sg20
I01
sbsg10
I1
sg24
(imyEvolve
Tree
p1057
(dp1058
g10
I0
sg45
F4.799859945263806
sg20
I01
sbsg21
I00
sg22
g32
sbsg21
I00
sg22
g32
sbsg10
I3
sg21
I01
sg22
g49
sbsg10
I4
sg21
I01
sg22
g46
sbsg10
I5
sg21
I01
sg22
g23
sba(imyEvolve
Tree
p1059
(dp1060
g11
(imyEvolve
Tree
p1061
(dp1062
g7
(imyEvolve
Tree
p1063
(dp1064
g10
I0
sg45
F-0.8815828922941593
sg20
I01
sbsg10
I1
sg21
I01
sg22
g49
sbsg10
I2
sg24
(imyEvolve
Tree
p1065
(dp1066
g7
(imyEvolve
Tree
p1067
(dp1068
g10
I0
sg20
I00
sbsg10
I1
sg21
I01
sg22
g23
sbsg21
I00
sg22
g48
sba(imyEvolve
Tree
p1069
(dp1070
g7
(imyEvolve
Tree
p1071
(dp1072
g7
(imyEvolve
Tree
p1073
(dp1074
g10
I0
sg20
I00
sbsg10
I1
sg21
I01
sg22
g31
sbsg10
I2
sg21
I01
sg22
g49
sbaa(lp1075
(imyEvolve
Tree
p1076
(dp1077
g10
I5
sg11
(imyEvolve
Tree
p1078
(dp1079
g10
I4
sg11
(imyEvolve
Tree
p1080
(dp1081
g10
I3
sg11
(imyEvolve
Tree
p1082
(dp1083
g10
I2
sg11
(imyEvolve
Tree
p1084
(dp1085
g10
I1
sg11
(imyEvolve
Tree
p1086
(dp1087
g10
I0
sg45
F-4.78556171448235
sg20
I01
sbsg24
(imyEvolve
Tree
p1088
(dp1089
g10
I0
sg45
F-1.6900031428346827
sg20
I01
sbsg21
I00
sg22
g48
sbsg24
(imyEvolve
Tree
p1090
(dp1091
g10
I1
sg11
(imyEvolve
Tree
p1092
(dp1093
g10
I0
sg20
I00
sbsg24
(imyEvolve
Tree
p1094
(dp1095
g10
I0
sg20
I00
sbsg21
I00
sg22
g47
sbsg21
I00
sg22
g47
sbsg24
(imyEvolve
Tree
p1096
(dp1097
g10
I2
sg11
(imyEvolve
Tree
p1098
(dp1099
g7
(imyEvolve
Tree
p1100
(dp1101
g10
I0
sg20
I00
sbsg10
I1
sg21
I01
sg22
g31
sbsg24
(imyEvolve
Tree
p1102
(dp1103
g7
(imyEvolve
Tree
p1104
(dp1105
g10
I0
sg45
F-2.0236416572962836
sg20
I01
sbsg10
I1
sg21
I01
sg22
g49
sbsg21
I00
sg22
g47
sbsg21
I00
sg22
g47
sbsg24
(imyEvolve
Tree
p1106
(dp1107
g7
(imyEvolve
Tree
p1108
(dp1109
g7
(imyEvolve
Tree
p1110
(dp1111
g7
(imyEvolve
Tree
p1112
(dp1113
g10
I0
sg20
I00
sbsg10
I1
sg21
I01
sg22
g23
sbsg10
I2
sg21
I01
sg22
g23
sbsg10
I3
sg21
I01
sg22
g31
sbsg21
I00
sg22
g32
sbsg24
(imyEvolve
Tree
p1114
(dp1115
g10
I4
sg11
(imyEvolve
Tree
p1116
(dp1117
g7
(imyEvolve
Tree
p1118
(dp1119
g7
(imyEvolve
Tree
p1120
(dp1121
g7
(imyEvolve
Tree
p1122
(dp1123
g10
I0
sg45
F-2.8238785594723526
sg20
I01
sbsg10
I1
sg21
I01
sg22
g49
sbsg10
I2
sg21
I01
sg22
g49
sbsg10
I3
sg21
I01
sg22
g23
sbsg24
(imyEvolve
Tree
p1124
(dp1125
g7
(imyEvolve
Tree
p1126
(dp1127
g7
(imyEvolve
Tree
p1128
(dp1129
g10
I1
sg11
(imyEvolve
Tree
p1130
(dp1131
g10
I0
sg20
I00
sbsg24
(imyEvolve
Tree
p1132
(dp1133
g10
I0
sg20
I00
sbsg21
I00
sg22
g48
sbsg10
I2
sg21
I01
sg22
g49
sbsg10
I3
sg21
I01
sg22
g31
sbsg21
I00
sg22
g48
sbsg21
I00
sg22
g48
sba(imyEvolve
Tree
p1134
(dp1135
g10
I5
sg11
(imyEvolve
Tree
p1136
(dp1137
g10
I4
sg11
(imyEvolve
Tree
p1138
(dp1139
g7
(imyEvolve
Tree
p1140
(dp1141
g7
(imyEvolve
Tree
p1142
(dp1143
g7
(imyEvolve
Tree
p1144
(dp1145
g10
I0
sg20
I00
sbsg10
I1
sg21
I01
sg22
g23
sbsg10
I2
sg21
I01
sg22
g31
sbsg10
I3
sg21
I01
sg22
g46
sbsg24
(imyEvolve
Tree
p1146
(dp1147
g10
I3
sg11
(imyEvolve
Tree
p1148
(dp1149
g7
(imyEvolve
Tree
p1150
(dp1151
g7
(imyEvolve
Tree
p1152
(dp1153
g10
I0
sg45
F-2.1483753054233032
sg20
I01
sbsg10
I1
sg21
I01
sg22
g49
sbsg10
I2
sg21
I01
sg22
g46
sbsg24
(imyEvolve
Tree
p1154
(dp1155
g10
I2
sg11
(imyEvolve
Tree
p1156
(dp1157
g7
(imyEvolve
Tree
p1158
(dp1159
g10
I0
sg45
F-3.0071655279395815
sg20
I01
sbsg10
I1
sg21
I01
sg22
g31
sbsg24
(imyEvolve
Tree
p1160
(dp1161
g7
(imyEvolve
Tree
p1162
(dp1163
g10
I0
sg45
F0.7039320357869965
sg20
I01
sbsg10
I1
sg21
I01
sg22
g49
sbsg21
I00
sg22
g32
sbsg21
I00
sg22
g47
sbsg21
I00
sg22
g32
sbsg24
(imyEvolve
Tree
p1164
(dp1165
g7
(imyEvolve
Tree
p1166
(dp1167
g7
(imyEvolve
Tree
p1168
(dp1169
g7
(imyEvolve
Tree
p1170
(dp1171
g7
(imyEvolve
Tree
p1172
(dp1173
g10
I0
sg20
I00
sbsg10
I1
sg21
I01
sg22
g31
sbsg10
I2
sg21
I01
sg22
g31
sbsg10
I3
sg21
I01
sg22
g23
sbsg10
I4
sg21
I01
sg22
g31
sbsg21
I00
sg22
g32
sba(imyEvolve
Tree
p1174
(dp1175
g10
I4
sg11
(imyEvolve
Tree
p1176
(dp1177
g7
(imyEvolve
Tree
p1178
(dp1179
g10
I2
sg11
(imyEvolve
Tree
p1180
(dp1181
g10
I1
sg11
(imyEvolve
Tree
p1182
(dp1183
g10
I0
sg20
I00
sbsg24
(imyEvolve
Tree
p1184
(dp1185
g10
I0
sg20
I00
sbsg21
I00
sg22
g32
sbsg24
(imyEvolve
Tree
p1186
(dp1187
g7
(imyEvolve
Tree
p1188
(dp1189
g10
I0
sg20
I00
sbsg10
I1
sg21
I01
sg22
g31
sbsg21
I00
sg22
g48
sbsg10
I3
sg21
I01
sg22
g31
sbsg24
(imyEvolve
Tree
p1190
(dp1191
g10
I3
sg11
(imyEvolve
Tree
p1192
(dp1193
g7
(imyEvolve
Tree
p1194
(dp1195
g10
I1
sg11
(imyEvolve
Tree
p1196
(dp1197
g10
I0
sg45
F-0.8457628102499761
sg20
I01
sbsg24
(imyEvolve
Tree
p1198
(dp1199
g10
I0
sg20
I00
sbsg21
I00
sg22
g32
sbsg10
I2
sg21
I01
sg22
g31
sbsg24
(imyEvolve
Tree
p1200
(dp1201
g10
I2
sg11
(imyEvolve
Tree
p1202
(dp1203
g10
I1
sg11
(imyEvolve
Tree
p1204
(dp1205
g10
I0
sg45
F-2.3254592283158715
sg20
I01
sbsg24
(imyEvolve
Tree
p1206
(dp1207
g10
I0
sg20
I00
sbsg21
I00
sg22
g48
sbsg24
(imyEvolve
Tree
p1208
(dp1209
g10
I1
sg11
(imyEvolve
Tree
p1210
(dp1211
g10
I0
sg20
I00
sbsg24
(imyEvolve
Tree
p1212
(dp1213
g10
I0
sg20
I00
sbsg21
I00
sg22
g47
sbsg21
I00
sg22
g32
sbsg21
I00
sg22
g48
sbsg21
I00
sg22
g47
sba(imyEvolve
Tree
p1214
(dp1215
g7
(imyEvolve
Tree
p1216
(dp1217
g10
I3
sg11
(imyEvolve
Tree
p1218
(dp1219
g10
I2
sg11
(imyEvolve
Tree
p1220
(dp1221
g7
(imyEvolve
Tree
p1222
(dp1223
g10
I0
sg45
F3.927717067115191
sg20
I01
sbsg10
I1
sg21
I01
sg22
g31
sbsg24
(imyEvolve
Tree
p1224
(dp1225
g7
(imyEvolve
Tree
p1226
(dp1227
g10
I0
sg45
F-1.0192357109115893
sg20
I01
sbsg10
I1
sg21
I01
sg22
g49
sbsg21
I00
sg22
g48
sbsg24
(imyEvolve
Tree
p1228
(dp1229
g7
(imyEvolve
Tree
p1230
(dp1231
g7
(imyEvolve
Tree
p1232
(dp1233
g10
I0
sg20
I00
sbsg10
I1
sg21
I01
sg22
g46
sbsg10
I2
sg21
I01
sg22
g49
sbsg21
I00
sg22
g32
sbsg10
I4
sg21
I01
sg22
g31
sba(imyEvolve
Tree
p1234
(dp1235
g7
(imyEvolve
Tree
p1236
(dp1237
g10
I3
sg11
(imyEvolve
Tree
p1238
(dp1239
g7
(imyEvolve
Tree
p1240
(dp1241
g10
I1
sg11
(imyEvolve
Tree
p1242
(dp1243
g10
I0
sg45
F-0.0558721156481754
sg20
I01
sbsg24
(imyEvolve
Tree
p1244
(dp1245
g10
I0
sg45
F3.0150346200648332
sg20
I01
sbsg21
I00
sg22
g32
sbsg10
I2
sg21
I01
sg22
g23
sbsg24
(imyEvolve
Tree
p1246
(dp1247
g7
(imyEvolve
Tree
p1248
(dp1249
g7
(imyEvolve
Tree
p1250
(dp1251
g10
I0
sg20
I00
sbsg10
I1
sg21
I01
sg22
g49
sbsg10
I2
sg21
I01
sg22
g31
sbsg21
I00
sg22
g32
sbsg10
I4
sg21
I01
sg22
g49
sba(imyEvolve
Tree
p1252
(dp1253
g10
I4
sg11
(imyEvolve
Tree
p1254
(dp1255
g10
I3
sg11
(imyEvolve
Tree
p1256
(dp1257
g7
(imyEvolve
Tree
p1258
(dp1259
g7
(imyEvolve
Tree
p1260
(dp1261
g10
I0
sg20
I00
sbsg10
I1
sg21
I01
sg22
g49
sbsg10
I2
sg21
I01
sg22
g23
sbsg24
(imyEvolve
Tree
p1262
(dp1263
g7
(imyEvolve
Tree
p1264
(dp1265
g7
(imyEvolve
Tree
p1266
(dp1267
g10
I0
sg20
I00
sbsg10
I1
sg21
I01
sg22
g31
sbsg10
I2
sg21
I01
sg22
g46
sbsg21
I00
sg22
g32
sbsg24
(imyEvolve
Tree
p1268
(dp1269
g10
I3
sg11
(imyEvolve
Tree
p1270
(dp1271
g10
I2
sg11
(imyEvolve
Tree
p1272
(dp1273
g10
I1
sg11
(imyEvolve
Tree
p1274
(dp1275
g10
I0
sg20
I00
sbsg24
(imyEvolve
Tree
p1276
(dp1277
g10
I0
sg45
F2.1710946923410894
sg20
I01
sbsg21
I00
sg22
g48
sbsg24
(imyEvolve
Tree
p1278
(dp1279
g10
I1
sg11
(imyEvolve
Tree
p1280
(dp1281
g10
I0
sg45
F4.4189502878402305
sg20
I01
sbsg24
(imyEvolve
Tree
p1282
(dp1283
g10
I0
sg45
F4.818477452200668
sg20
I01
sbsg21
I00
sg22
g32
sbsg21
I00
sg22
g32
sbsg24
(imyEvolve
Tree
p1284
(dp1285
g7
(imyEvolve
Tree
p1286
(dp1287
g10
I1
sg11
(imyEvolve
Tree
p1288
(dp1289
g10
I0
sg20
I00
sbsg24
(imyEvolve
Tree
p1290
(dp1291
g10
I0
sg20
I00
sbsg21
I00
sg22
g47
sbsg10
I2
sg21
I01
sg22
g46
sbsg21
I00
sg22
g47
sbsg21
I00
sg22
g48
sba(imyEvolve
Tree
p1292
(dp1293
g7
(imyEvolve
Tree
p1294
(dp1295
g10
I3
sg11
(imyEvolve
Tree
p1296
(dp1297
g10
I2
sg11
(imyEvolve
Tree
p1298
(dp1299
g7
(imyEvolve
Tree
p1300
(dp1301
g10
I0
sg20
I00
sbsg10
I1
sg21
I01
sg22
g46
sbsg24
(imyEvolve
Tree
p1302
(dp1303
g10
I1
sg11
(imyEvolve
Tree
p1304
(dp1305
g10
I0
sg45
F4.222714747514161
sg20
I01
sbsg24
(imyEvolve
Tree
p1306
(dp1307
g10
I0
sg20
I00
sbsg21
I00
sg22
g47
sbsg21
I00
sg22
g32
sbsg24
(imyEvolve
Tree
p1308
(dp1309
g7
(imyEvolve
Tree
p1310
(dp1311
g10
I1
sg11
(imyEvolve
Tree
p1312
(dp1313
g10
I0
sg45
F4.347740011968925
sg20
I01
sbsg24
(imyEvolve
Tree
p1314
(dp1315
g10
I0
sg20
I00
sbsg21
I00
sg22
g32
sbsg10
I2
sg21
I01
sg22
g46
sbsg21
I00
sg22
g47
sbsg10
I4
sg21
I01
sg22
g49
sba(imyEvolve
Tree
p1316
(dp1317
g10
I2
sg11
(imyEvolve
Tree
p1318
(dp1319
g7
(imyEvolve
Tree
p1320
(dp1321
g10
I0
sg45
F0.6824277869303108
sg20
I01
sbsg10
I1
sg21
I01
sg22
g31
sbsg24
(imyEvolve
Tree
p1322
(dp1323
g7
(imyEvolve
Tree
p1324
(dp1325
g10
I0
sg20
I00
sbsg10
I1
sg21
I01
sg22
g23
sbsg21
I00
sg22
g32
sba(imyEvolve
Tree
p1326
(dp1327
g10
I5
sg11
(imyEvolve
Tree
p1328
(dp1329
g10
I4
sg11
(imyEvolve
Tree
p1330
(dp1331
g10
I3
sg11
(imyEvolve
Tree
p1332
(dp1333
g7
(imyEvolve
Tree
p1334
(dp1335
g10
I1
sg11
(imyEvolve
Tree
p1336
(dp1337
g10
I0
sg20
I00
sbsg24
(imyEvolve
Tree
p1338
(dp1339
g10
I0
sg20
I00
sbsg21
I00
sg22
g47
sbsg10
I2
sg21
I01
sg22
g49
sbsg24
(imyEvolve
Tree
p1340
(dp1341
g7
(imyEvolve
Tree
p1342
(dp1343
g10
I1
sg11
(imyEvolve
Tree
p1344
(dp1345
g10
I0
sg45
F-2.389853739945412
sg20
I01
sbsg24
(imyEvolve
Tree
p1346
(dp1347
g10
I0
sg45
F1.0426422904589288
sg20
I01
sbsg21
I00
sg22
g48
sbsg10
I2
sg21
I01
sg22
g23
sbsg21
I00
sg22
g32
sbsg24
(imyEvolve
Tree
p1348
(dp1349
g10
I3
sg11
(imyEvolve
Tree
p1350
(dp1351
g7
(imyEvolve
Tree
p1352
(dp1353
g7
(imyEvolve
Tree
p1354
(dp1355
g10
I0
sg20
I00
sbsg10
I1
sg21
I01
sg22
g31
sbsg10
I2
sg21
I01
sg22
g46
sbsg24
(imyEvolve
Tree
p1356
(dp1357
g10
I2
sg11
(imyEvolve
Tree
p1358
(dp1359
g10
I1
sg11
(imyEvolve
Tree
p1360
(dp1361
g10
I0
sg20
I00
sbsg24
(imyEvolve
Tree
p1362
(dp1363
g10
I0
sg45
F0.5097894308408453
sg20
I01
sbsg21
I00
sg22
g48
sbsg24
(imyEvolve
Tree
p1364
(dp1365
g7
(imyEvolve
Tree
p1366
(dp1367
g10
I0
sg20
I00
sbsg10
I1
sg21
I01
sg22
g49
sbsg21
I00
sg22
g47
sbsg21
I00
sg22
g32
sbsg21
I00
sg22
g32
sbsg24
(imyEvolve
Tree
p1368
(dp1369
g10
I4
sg11
(imyEvolve
Tree
p1370
(dp1371
g10
I3
sg11
(imyEvolve
Tree
p1372
(dp1373
g7
(imyEvolve
Tree
p1374
(dp1375
g7
(imyEvolve
Tree
p1376
(dp1377
g10
I0
sg45
F1.8550278053817193
sg20
I01
sbsg10
I1
sg21
I01
sg22
g46
sbsg10
I2
sg21
I01
sg22
g31
sbsg24
(imyEvolve
Tree
p1378
(dp1379
g7
(imyEvolve
Tree
p1380
(dp1381
g7
(imyEvolve
Tree
p1382
(dp1383
g10
I0
sg45
F-3.575393736864557
sg20
I01
sbsg10
I1
sg21
I01
sg22
g23
sbsg10
I2
sg21
I01
sg22
g46
sbsg21
I00
sg22
g32
sbsg24
(imyEvolve
Tree
p1384
(dp1385
g10
I3
sg11
(imyEvolve
Tree
p1386
(dp1387
g7
(imyEvolve
Tree
p1388
(dp1389
g7
(imyEvolve
Tree
p1390
(dp1391
g10
I0
sg20
I00
sbsg10
I1
sg21
I01
sg22
g23
sbsg10
I2
sg21
I01
sg22
g46
sbsg24
(imyEvolve
Tree
p1392
(dp1393
g10
I2
sg11
(imyEvolve
Tree
p1394
(dp1395
g10
I1
sg11
(imyEvolve
Tree
p1396
(dp1397
g10
I0
sg45
F-0.2889809093845166
sg20
I01
sbsg24
(imyEvolve
Tree
p1398
(dp1399
g10
I0
sg45
F3.9510993373485856
sg20
I01
sbsg21
I00
sg22
g48
sbsg24
(imyEvolve
Tree
p1400
(dp1401
g10
I1
sg11
(imyEvolve
Tree
p1402
(dp1403
g10
I0
sg20
I00
sbsg24
(imyEvolve
Tree
p1404
(dp1405
g10
I0
sg20
I00
sbsg21
I00
sg22
g32
sbsg21
I00
sg22
g47
sbsg21
I00
sg22
g47
sbsg21
I00
sg22
g48
sbsg21
I00
sg22
g48
sba(imyEvolve
Tree
p1406
(dp1407
g10
I5
sg11
(imyEvolve
Tree
p1408
(dp1409
g10
I4
sg11
(imyEvolve
Tree
p1410
(dp1411
g7
(imyEvolve
Tree
p1412
(dp1413
g7
(imyEvolve
Tree
p1414
(dp1415
g10
I1
sg11
(imyEvolve
Tree
p1416
(dp1417
g10
I0
sg20
I00
sbsg24
(imyEvolve
Tree
p1418
(dp1419
g10
I0
sg20
I00
sbsg21
I00
sg22
g32
sbsg10
I2
sg21
I01
sg22
g49
sbsg10
I3
sg21
I01
sg22
g31
sbsg24
(imyEvolve
Tree
p1420
(dp1421
g10
I3
sg11
(imyEvolve
Tree
p1422
(dp1423
g7
(imyEvolve
Tree
p1424
(dp1425
g10
I1
sg11
(imyEvolve
Tree
p1426
(dp1427
g10
I0
sg20
I00
sbsg24
(imyEvolve
Tree
p1428
(dp1429
g10
I0
sg45
F0.3256961962597371
sg20
I01
sbsg21
I00
sg22
g47
sbsg10
I2
sg21
I01
sg22
g31
sbsg24
(imyEvolve
Tree
p1430
(dp1431
g7
(imyEvolve
Tree
p1432
(dp1433
g7
(imyEvolve
Tree
p1434
(dp1435
g10
I0
sg45
F2.0159974781902505
sg20
I01
sbsg10
I1
sg21
I01
sg22
g46
sbsg10
I2
sg21
I01
sg22
g23
sbsg21
I00
sg22
g47
sbsg21
I00
sg22
g47
sbsg24
(imyEvolve
Tree
p1436
(dp1437
g10
I4
sg11
(imyEvolve
Tree
p1438
(dp1439
g7
(imyEvolve
Tree
p1440
(dp1441
g7
(imyEvolve
Tree
p1442
(dp1443
g7
(imyEvolve
Tree
p1444
(dp1445
g10
I0
sg45
F-2.476408496668858
sg20
I01
sbsg10
I1
sg21
I01
sg22
g46
sbsg10
I2
sg21
I01
sg22
g23
sbsg10
I3
sg21
I01
sg22
g49
sbsg24
(imyEvolve
Tree
p1446
(dp1447
g10
I3
sg11
(imyEvolve
Tree
p1448
(dp1449
g7
(imyEvolve
Tree
p1450
(dp1451
g7
(imyEvolve
Tree
p1452
(dp1453
g10
I0
sg20
I00
sbsg10
I1
sg21
I01
sg22
g49
sbsg10
I2
sg21
I01
sg22
g49
sbsg24
(imyEvolve
Tree
p1454
(dp1455
g7
(imyEvolve
Tree
p1456
(dp1457
g7
(imyEvolve
Tree
p1458
(dp1459
g10
I0
sg45
F-3.7915937832903746
sg20
I01
sbsg10
I1
sg21
I01
sg22
g23
sbsg10
I2
sg21
I01
sg22
g46
sbsg21
I00
sg22
g32
sbsg21
I00
sg22
g48
sbsg21
I00
sg22
g32
sba(imyEvolve
Tree
p1460
(dp1461
g10
I5
sg11
(imyEvolve
Tree
p1462
(dp1463
g7
(imyEvolve
Tree
p1464
(dp1465
g10
I3
sg11
(imyEvolve
Tree
p1466
(dp1467
g10
I2
sg11
(imyEvolve
Tree
p1468
(dp1469
g7
(imyEvolve
Tree
p1470
(dp1471
g10
I0
sg45
F1.9761844248496905
sg20
I01
sbsg10
I1
sg21
I01
sg22
g31
sbsg24
(imyEvolve
Tree
p1472
(dp1473
g10
I1
sg11
(imyEvolve
Tree
p1474
(dp1475
g10
I0
sg20
I00
sbsg24
(imyEvolve
Tree
p1476
(dp1477
g10
I0
sg45
F-3.9993942637878765
sg20
I01
sbsg21
I00
sg22
g47
sbsg21
I00
sg22
g32
sbsg24
(imyEvolve
Tree
p1478
(dp1479
g10
I2
sg11
(imyEvolve
Tree
p1480
(dp1481
g10
I1
sg11
(imyEvolve
Tree
p1482
(dp1483
g10
I0
sg45
F0.694610572878565
sg20
I01
sbsg24
(imyEvolve
Tree
p1484
(dp1485
g10
I0
sg45
F4.437252513661001
sg20
I01
sbsg21
I00
sg22
g32
sbsg24
(imyEvolve
Tree
p1486
(dp1487
g10
I1
sg11
(imyEvolve
Tree
p1488
(dp1489
g10
I0
sg45
F0.9712638535954552
sg20
I01
sbsg24
(imyEvolve
Tree
p1490
(dp1491
g10
I0
sg45
F4.967150937974285
sg20
I01
sbsg21
I00
sg22
g48
sbsg21
I00
sg22
g48
sbsg21
I00
sg22
g47
sbsg10
I4
sg21
I01
sg22
g31
sbsg24
(imyEvolve
Tree
p1492
(dp1493
g7
(imyEvolve
Tree
p1494
(dp1495
g10
I3
sg11
(imyEvolve
Tree
p1496
(dp1497
g7
(imyEvolve
Tree
p1498
(dp1499
g7
(imyEvolve
Tree
p1500
(dp1501
g10
I0
sg45
F-1.6711997585207303
sg20
I01
sbsg10
I1
sg21
I01
sg22
g46
sbsg10
I2
sg21
I01
sg22
g31
sbsg24
(imyEvolve
Tree
p1502
(dp1503
g7
(imyEvolve
Tree
p1504
(dp1505
g10
I1
sg11
(imyEvolve
Tree
p1506
(dp1507
g10
I0
sg20
I00
sbsg24
(imyEvolve
Tree
p1508
(dp1509
g10
I0
sg20
I00
sbsg21
I00
sg22
g48
sbsg10
I2
sg21
I01
sg22
g23
sbsg21
I00
sg22
g32
sbsg10
I4
sg21
I01
sg22
g46
sbsg21
I00
sg22
g32
sba(imyEvolve
Tree
p1510
(dp1511
g7
(imyEvolve
Tree
p1512
(dp1513
g7
(imyEvolve
Tree
p1514
(dp1515
g10
I2
sg11
(imyEvolve
Tree
p1516
(dp1517
g10
I1
sg11
(imyEvolve
Tree
p1518
(dp1519
g10
I0
sg45
F-4.580189793402053
sg20
I01
sbsg24
(imyEvolve
Tree
p1520
(dp1521
g10
I0
sg20
I00
sbsg21
I00
sg22
g47
sbsg24
(imyEvolve
Tree
p1522
(dp1523
g10
I1
sg11
(imyEvolve
Tree
p1524
(dp1525
g10
I0
sg20
I00
sbsg24
(imyEvolve
Tree
p1526
(dp1527
g10
I0
sg45
F-4.669766255499806
sg20
I01
sbsg21
I00
sg22
g32
sbsg21
I00
sg22
g48
sbsg10
I3
sg21
I01
sg22
g49
sbsg10
I4
sg21
I01
sg22
g49
sba(imyEvolve
Tree
p1528
(dp1529
g10
I2
sg11
(imyEvolve
Tree
p1530
(dp1531
g7
(imyEvolve
Tree
p1532
(dp1533
g10
I0
sg20
I00
sbsg10
I1
sg21
I01
sg22
g23
sbsg24
(imyEvolve
Tree
p1534
(dp1535
g10
I1
sg11
(imyEvolve
Tree
p1536
(dp1537
g10
I0
sg45
F0.9568859417735034
sg20
I01
sbsg24
(imyEvolve
Tree
p1538
(dp1539
g10
I0
sg45
F-1.2696334450723823
sg20
I01
sbsg21
I00
sg22
g32
sbsg21
I00
sg22
g47
sba(imyEvolve
Tree
p1540
(dp1541
g7
(imyEvolve
Tree
p1542
(dp1543
g10
I3
sg11
(imyEvolve
Tree
p1544
(dp1545
g10
I2
sg11
(imyEvolve
Tree
p1546
(dp1547
g10
I1
sg11
(imyEvolve
Tree
p1548
(dp1549
g10
I0
sg20
I00
sbsg24
(imyEvolve
Tree
p1550
(dp1551
g10
I0
sg45
F4.909761397152566
sg20
I01
sbsg21
I00
sg22
g47
sbsg24
(imyEvolve
Tree
p1552
(dp1553
g7
(imyEvolve
Tree
p1554
(dp1555
g10
I0
sg45
F3.79095993255428
sg20
I01
sbsg10
I1
sg21
I01
sg22
g46
sbsg21
I00
sg22
g32
sbsg24
(imyEvolve
Tree
p1556
(dp1557
g7
(imyEvolve
Tree
p1558
(dp1559
g10
I1
sg11
(imyEvolve
Tree
p1560
(dp1561
g10
I0
sg20
I00
sbsg24
(imyEvolve
Tree
p1562
(dp1563
g10
I0
sg20
I00
sbsg21
I00
sg22
g32
sbsg10
I2
sg21
I01
sg22
g46
sbsg21
I00
sg22
g32
sbsg10
I4
sg21
I01
sg22
g49
sba(imyEvolve
Tree
p1564
(dp1565
g10
I4
sg11
(imyEvolve
Tree
p1566
(dp1567
g7
(imyEvolve
Tree
p1568
(dp1569
g7
(imyEvolve
Tree
p1570
(dp1571
g10
I1
sg11
(imyEvolve
Tree
p1572
(dp1573
g10
I0
sg45
F-1.3988336242291655
sg20
I01
sbsg24
(imyEvolve
Tree
p1574
(dp1575
g10
I0
sg20
I00
sbsg21
I00
sg22
g48
sbsg10
I2
sg21
I01
sg22
g23
sbsg10
I3
sg21
I01
sg22
g31
sbsg24
(imyEvolve
Tree
p1576
(dp1577
g7
(imyEvolve
Tree
p1578
(dp1579
g7
(imyEvolve
Tree
p1580
(dp1581
g7
(imyEvolve
Tree
p1582
(dp1583
g10
I0
sg20
I00
sbsg10
I1
sg21
I01
sg22
g23
sbsg10
I2
sg21
I01
sg22
g49
sbsg10
I3
sg21
I01
sg22
g31
sbsg21
I00
sg22
g32
sba(imyEvolve
Tree
p1584
(dp1585
g10
I4
sg11
(imyEvolve
Tree
p1586
(dp1587
g7
(imyEvolve
Tree
p1588
(dp1589
g7
(imyEvolve
Tree
p1590
(dp1591
g7
(imyEvolve
Tree
p1592
(dp1593
g10
I0
sg45
F0.39480297433966616
sg20
I01
sbsg10
I1
sg21
I01
sg22
g31
sbsg10
I2
sg21
I01
sg22
g49
sbsg10
I3
sg21
I01
sg22
g23
sbsg24
(imyEvolve
Tree
p1594
(dp1595
g7
(imyEvolve
Tree
p1596
(dp1597
g10
I2
sg11
(imyEvolve
Tree
p1598
(dp1599
g7
(imyEvolve
Tree
p1600
(dp1601
g10
I0
sg20
I00
sbsg10
I1
sg21
I01
sg22
g31
sbsg24
(imyEvolve
Tree
p1602
(dp1603
g7
(imyEvolve
Tree
p1604
(dp1605
g10
I0
sg20
I00
sbsg10
I1
sg21
I01
sg22
g49
sbsg21
I00
sg22
g48
sbsg10
I3
sg21
I01
sg22
g23
sbsg21
I00
sg22
g48
sbaasS'alpha'
p1606
F0.007471123144049652
sS'fitness'
p1607
cnumpy.core.multiarray
scalar
p1608
(cnumpy
dtype
p1609
(S'f8'
p1610
I0
I1
tp1611
Rp1612
(I3
S'<'
p1613
NNNI-1
I-1
I0
tp1614
bS'\x00\x80/L\xa6n\x0c\xbf'
p1615
tp1616
Rp1617
sS'weightSharing'
p1618
(lp1619
I00
asS'fitnessValid'
p1620
I00
sS'resolution'
p1621
I70
sb.