(imyEvolve
Individual
p0
(dp1
S'funcs'
p2
(lp3
(lp4
(imyEvolve
Tree
p5
(dp6
S'depth'
p7
I2
sS'left'
p8
(imyEvolve
Tree
p9
(dp10
S'below'
p11
(imyEvolve
Tree
p12
(dp13
g7
I0
sS'constant'
p14
F4.165088251714526
sS'isConstant'
p15
I01
sbsg7
I1
sS'single'
p16
I01
sS'op'
p17
cmyEvolve
absSqrt
p18
sbsS'right'
p19
(imyEvolve
Tree
p20
(dp21
g11
(imyEvolve
Tree
p22
(dp23
g7
I0
sg15
I00
sbsg7
I1
sg16
I01
sg17
cmyEvolve
square
p24
sbsg16
I00
sg17
coperator
mul
p25
sba(imyEvolve
Tree
p26
(dp27
g7
I3
sg8
(imyEvolve
Tree
p28
(dp29
g7
I2
sg8
(imyEvolve
Tree
p30
(dp31
g11
(imyEvolve
Tree
p32
(dp33
g7
I0
sg14
F4.209333119416275
sg15
I01
sbsg7
I1
sg16
I01
sg17
cmath
sin
p34
sbsg19
(imyEvolve
Tree
p35
(dp36
g11
(imyEvolve
Tree
p37
(dp38
g7
I0
sg15
I00
sbsg7
I1
sg16
I01
sg17
g24
sbsg16
I00
sg17
g25
sbsg19
(imyEvolve
Tree
p39
(dp40
g7
I2
sg8
(imyEvolve
Tree
p41
(dp42
g7
I1
sg8
(imyEvolve
Tree
p43
(dp44
g7
I0
sg14
F3.4155196291421124
sg15
I01
sbsg19
(imyEvolve
Tree
p45
(dp46
g7
I0
sg14
F-4.3742849009919205
sg15
I01
sbsg16
I00
sg17
coperator
sub
p47
sbsg19
(imyEvolve
Tree
p48
(dp49
g11
(imyEvolve
Tree
p50
(dp51
g7
I0
sg14
F-1.7976348261963349
sg15
I01
sbsg7
I1
sg16
I01
sg17
g34
sbsg16
I00
sg17
g47
sbsg16
I00
sg17
g47
sba(imyEvolve
Tree
p52
(dp53
g11
(imyEvolve
Tree
p54
(dp55
g7
I4
sg8
(imyEvolve
Tree
p56
(dp57
g7
I3
sg8
(imyEvolve
Tree
p58
(dp59
g7
I2
sg8
(imyEvolve
Tree
p60
(dp61
g7
I1
sg8
(imyEvolve
Tree
p62
(dp63
g7
I0
sg15
I00
sbsg19
(imyEvolve
Tree
p64
(dp65
g7
I0
sg15
I00
sbsg16
I00
sg17
g25
sbsg19
(imyEvolve
Tree
p66
(dp67
g11
(imyEvolve
Tree
p68
(dp69
g7
I0
sg14
F-1.0020124638429841
sg15
I01
sbsg7
I1
sg16
I01
sg17
cmath
cos
p70
sbsg16
I00
sg17
g25
sbsg19
(imyEvolve
Tree
p71
(dp72
g7
I2
sg8
(imyEvolve
Tree
p73
(dp74
g11
(imyEvolve
Tree
p75
(dp76
g7
I0
sg15
I00
sbsg7
I1
sg16
I01
sg17
g34
sbsg19
(imyEvolve
Tree
p77
(dp78
g7
I1
sg8
(imyEvolve
Tree
p79
(dp80
g7
I0
sg14
F-1.1174819728159147
sg15
I01
sbsg19
(imyEvolve
Tree
p81
(dp82
g7
I0
sg15
I00
sbsg16
I00
sg17
g47
sbsg16
I00
sg17
coperator
add
p83
sbsg16
I00
sg17
g25
sbsg19
(imyEvolve
Tree
p84
(dp85
g11
(imyEvolve
Tree
p86
(dp87
g7
I2
sg8
(imyEvolve
Tree
p88
(dp89
g7
I1
sg8
(imyEvolve
Tree
p90
(dp91
g7
I0
sg15
I00
sbsg19
(imyEvolve
Tree
p92
(dp93
g7
I0
sg14
F-4.878137526927736
sg15
I01
sbsg16
I00
sg17
g83
sbsg19
(imyEvolve
Tree
p94
(dp95
g11
(imyEvolve
Tree
p96
(dp97
g7
I0
sg15
I00
sbsg7
I1
sg16
I01
sg17
g34
sbsg16
I00
sg17
g25
sbsg7
I3
sg16
I01
sg17
g70
sbsg16
I00
sg17
g47
sbsg7
I5
sg16
I01
sg17
g18
sba(imyEvolve
Tree
p98
(dp99
g7
I2
sg8
(imyEvolve
Tree
p100
(dp101
g11
(imyEvolve
Tree
p102
(dp103
g7
I0
sg14
F2.9092233416747995
sg15
I01
sbsg7
I1
sg16
I01
sg17
g18
sbsg19
(imyEvolve
Tree
p104
(dp105
g7
I1
sg8
(imyEvolve
Tree
p106
(dp107
g7
I0
sg14
F-0.19017604578014868
sg15
I01
sbsg19
(imyEvolve
Tree
p108
(dp109
g7
I0
sg14
F3.9989069202638454
sg15
I01
sbsg16
I00
sg17
g47
sbsg16
I00
sg17
g47
sba(imyEvolve
Tree
p110
(dp111
g7
I3
sg8
(imyEvolve
Tree
p112
(dp113
g7
I2
sg8
(imyEvolve
Tree
p114
(dp115
g11
(imyEvolve
Tree
p116
(dp117
g7
I0
sg14
F0.7475304264030891
sg15
I01
sbsg7
I1
sg16
I01
sg17
g34
sbsg19
(imyEvolve
Tree
p118
(dp119
g7
I1
sg8
(imyEvolve
Tree
p120
(dp121
g7
I0
sg15
I00
sbsg19
(imyEvolve
Tree
p122
(dp123
g7
I0
sg14
F-0.17715194374189558
sg15
I01
sbsg16
I00
sg17
g83
sbsg16
I00
sg17
g83
sbsg19
(imyEvolve
Tree
p124
(dp125
g7
I2
sg8
(imyEvolve
Tree
p126
(dp127
g11
(imyEvolve
Tree
p128
(dp129
g7
I0
sg14
F-2.849471866338317
sg15
I01
sbsg7
I1
sg16
I01
sg17
g34
sbsg19
(imyEvolve
Tree
p130
(dp131
g7
I1
sg8
(imyEvolve
Tree
p132
(dp133
g7
I0
sg15
I00
sbsg19
(imyEvolve
Tree
p134
(dp135
g7
I0
sg14
F-3.145988176772309
sg15
I01
sbsg16
I00
sg17
g83
sbsg16
I00
sg17
g25
sbsg16
I00
sg17
g25
sba(imyEvolve
Tree
p136
(dp137
g7
I2
sg8
(imyEvolve
Tree
p138
(dp139
g11
(imyEvolve
Tree
p140
(dp141
g7
I0
sg14
F0.6356302001701994
sg15
I01
sbsg7
I1
sg16
I01
sg17
g24
sbsg19
(imyEvolve
Tree
p142
(dp143
g11
(imyEvolve
Tree
p144
(dp145
g7
I0
sg14
F-1.1915498758255962
sg15
I01
sbsg7
I1
sg16
I01
sg17
g18
sbsg16
I00
sg17
g25
sba(imyEvolve
Tree
p146
(dp147
g11
(imyEvolve
Tree
p148
(dp149
g11
(imyEvolve
Tree
p150
(dp151
g11
(imyEvolve
Tree
p152
(dp153
g7
I0
sg14
F3.3438934210260243
sg15
I01
sbsg7
I1
sg16
I01
sg17
g18
sbsg7
I2
sg16
I01
sg17
g18
sbsg7
I3
sg16
I01
sg17
g34
sba(imyEvolve
Tree
p154
(dp155
g11
(imyEvolve
Tree
p156
(dp157
g7
I2
sg8
(imyEvolve
Tree
p158
(dp159
g7
I1
sg8
(imyEvolve
Tree
p160
(dp161
g7
I0
sg15
I00
sbsg19
(imyEvolve
Tree
p162
(dp163
g7
I0
sg15
I00
sbsg16
I00
sg17
g83
sbsg19
(imyEvolve
Tree
p164
(dp165
g11
(imyEvolve
Tree
p166
(dp167
g7
I0
sg14
F-3.166838938635612
sg15
I01
sbsg7
I1
sg16
I01
sg17
g34
sbsg16
I00
sg17
g83
sbsg7
I3
sg16
I01
sg17
g24
sba(imyEvolve
Tree
p168
(dp169
g11
(imyEvolve
Tree
p170
(dp171
g11
(imyEvolve
Tree
p172
(dp173
g7
I0
sg14
F-3.0362143341714907
sg15
I01
sbsg7
I1
sg16
I01
sg17
g34
sbsg7
I2
sg16
I01
sg17
g70
sbaa(lp174
(imyEvolve
Tree
p175
(dp176
g7
I5
sg8
(imyEvolve
Tree
p177
(dp178
g7
I4
sg8
(imyEvolve
Tree
p179
(dp180
g11
(imyEvolve
Tree
p181
(dp182
g7
I2
sg8
(imyEvolve
Tree
p183
(dp184
g11
(imyEvolve
Tree
p185
(dp186
g7
I0
sg14
F4.15134388435974
sg15
I01
sbsg7
I1
sg16
I01
sg17
g18
sbsg19
(imyEvolve
Tree
p187
(dp188
g7
I1
sg8
(imyEvolve
Tree
p189
(dp190
g7
I0
sg14
F-3.7009184893809897
sg15
I01
sbsg19
(imyEvolve
Tree
p191
(dp192
g7
I0
sg14
F-3.3331251699108133
sg15
I01
sbsg16
I00
sg17
g25
sbsg16
I00
sg17
g83
sbsg7
I3
sg16
I01
sg17
g18
sbsg19
(imyEvolve
Tree
p193
(dp194
g7
I3
sg8
(imyEvolve
Tree
p195
(dp196
g11
(imyEvolve
Tree
p197
(dp198
g7
I1
sg8
(imyEvolve
Tree
p199
(dp200
g7
I0
sg14
F2.0192884501967185
sg15
I01
sbsg19
(imyEvolve
Tree
p201
(dp202
g7
I0
sg14
F-4.375882156065027
sg15
I01
sbsg16
I00
sg17
g83
sbsg7
I2
sg16
I01
sg17
g18
sbsg19
(imyEvolve
Tree
p203
(dp204
g11
(imyEvolve
Tree
p205
(dp206
g7
I1
sg8
(imyEvolve
Tree
p207
(dp208
g7
I0
sg14
F-4.641067670210122
sg15
I01
sbsg19
(imyEvolve
Tree
p209
(dp210
g7
I0
sg14
F-4.734475196087081
sg15
I01
sbsg16
I00
sg17
g83
sbsg7
I2
sg16
I01
sg17
g18
sbsg16
I00
sg17
g25
sbsg16
I00
sg17
g47
sbsg19
(imyEvolve
Tree
p211
(dp212
g7
I4
sg8
(imyEvolve
Tree
p213
(dp214
g11
(imyEvolve
Tree
p215
(dp216
g11
(imyEvolve
Tree
p217
(dp218
g11
(imyEvolve
Tree
p219
(dp220
g7
I0
sg15
I00
sbsg7
I1
sg16
I01
sg17
g24
sbsg7
I2
sg16
I01
sg17
g70
sbsg7
I3
sg16
I01
sg17
g34
sbsg19
(imyEvolve
Tree
p221
(dp222
g7
I3
sg8
(imyEvolve
Tree
p223
(dp224
g11
(imyEvolve
Tree
p225
(dp226
g11
(imyEvolve
Tree
p227
(dp228
g7
I0
sg14
F2.89613266175734
sg15
I01
sbsg7
I1
sg16
I01
sg17
g18
sbsg7
I2
sg16
I01
sg17
g24
sbsg19
(imyEvolve
Tree
p229
(dp230
g11
(imyEvolve
Tree
p231
(dp232
g11
(imyEvolve
Tree
p233
(dp234
g7
I0
sg14
F-0.06289192981708691
sg15
I01
sbsg7
I1
sg16
I01
sg17
g18
sbsg7
I2
sg16
I01
sg17
g24
sbsg16
I00
sg17
g25
sbsg16
I00
sg17
g25
sbsg16
I00
sg17
g83
sba(imyEvolve
Tree
p235
(dp236
g11
(imyEvolve
Tree
p237
(dp238
g11
(imyEvolve
Tree
p239
(dp240
g7
I1
sg8
(imyEvolve
Tree
p241
(dp242
g7
I0
sg15
I00
sbsg19
(imyEvolve
Tree
p243
(dp244
g7
I0
sg15
I00
sbsg16
I00
sg17
g47
sbsg7
I2
sg16
I01
sg17
g34
sbsg7
I3
sg16
I01
sg17
g34
sba(imyEvolve
Tree
p245
(dp246
g7
I3
sg8
(imyEvolve
Tree
p247
(dp248
g7
I2
sg8
(imyEvolve
Tree
p249
(dp250
g11
(imyEvolve
Tree
p251
(dp252
g7
I0
sg15
I00
sbsg7
I1
sg16
I01
sg17
g24
sbsg19
(imyEvolve
Tree
p253
(dp254
g7
I1
sg8
(imyEvolve
Tree
p255
(dp256
g7
I0
sg15
I00
sbsg19
(imyEvolve
Tree
p257
(dp258
g7
I0
sg14
F4.1777010497488
sg15
I01
sbsg16
I00
sg17
g25
sbsg16
I00
sg17
g47
sbsg19
(imyEvolve
Tree
p259
(dp260
g11
(imyEvolve
Tree
p261
(dp262
g7
I1
sg8
(imyEvolve
Tree
p263
(dp264
g7
I0
sg14
F1.5221262373493758
sg15
I01
sbsg19
(imyEvolve
Tree
p265
(dp266
g7
I0
sg14
F-0.6292437049411603
sg15
I01
sbsg16
I00
sg17
g83
sbsg7
I2
sg16
I01
sg17
g34
sbsg16
I00
sg17
g83
sba(imyEvolve
Tree
p267
(dp268
g7
I4
sg8
(imyEvolve
Tree
p269
(dp270
g11
(imyEvolve
Tree
p271
(dp272
g11
(imyEvolve
Tree
p273
(dp274
g7
I1
sg8
(imyEvolve
Tree
p275
(dp276
g7
I0
sg15
I00
sbsg19
(imyEvolve
Tree
p277
(dp278
g7
I0
sg15
I00
sbsg16
I00
sg17
g47
sbsg7
I2
sg16
I01
sg17
g18
sbsg7
I3
sg16
I01
sg17
g34
sbsg19
(imyEvolve
Tree
p279
(dp280
g7
I3
sg8
(imyEvolve
Tree
p281
(dp282
g7
I2
sg8
(imyEvolve
Tree
p283
(dp284
g7
I1
sg8
(imyEvolve
Tree
p285
(dp286
g7
I0
sg15
I00
sbsg19
(imyEvolve
Tree
p287
(dp288
g7
I0
sg15
I00
sbsg16
I00
sg17
g47
sbsg19
(imyEvolve
Tree
p289
(dp290
g7
I1
sg8
(imyEvolve
Tree
p291
(dp292
g7
I0
sg15
I00
sbsg19
(imyEvolve
Tree
p293
(dp294
g7
I0
sg14
F-0.6669287220264337
sg15
I01
sbsg16
I00
sg17
g83
sbsg16
I00
sg17
g47
sbsg19
(imyEvolve
Tree
p295
(dp296
g11
(imyEvolve
Tree
p297
(dp298
g11
(imyEvolve
Tree
p299
(dp300
g7
I0
sg15
I00
sbsg7
I1
sg16
I01
sg17
g70
sbsg7
I2
sg16
I01
sg17
g18
sbsg16
I00
sg17
g25
sbsg16
I00
sg17
g25
sba(imyEvolve
Tree
p301
(dp302
g11
(imyEvolve
Tree
p303
(dp304
g11
(imyEvolve
Tree
p305
(dp306
g7
I2
sg8
(imyEvolve
Tree
p307
(dp308
g7
I1
sg8
(imyEvolve
Tree
p309
(dp310
g7
I0
sg14
F-0.8528264386326425
sg15
I01
sbsg19
(imyEvolve
Tree
p311
(dp312
g7
I0
sg15
I00
sbsg16
I00
sg17
g47
sbsg19
(imyEvolve
Tree
p313
(dp314
g7
I1
sg8
(imyEvolve
Tree
p315
(dp316
g7
I0
sg14
F-3.1914819135499783
sg15
I01
sbsg19
(imyEvolve
Tree
p317
(dp318
g7
I0
sg15
I00
sbsg16
I00
sg17
g25
sbsg16
I00
sg17
g47
sbsg7
I3
sg16
I01
sg17
g18
sbsg7
I4
sg16
I01
sg17
g34
sba(imyEvolve
Tree
p319
(dp320
g11
(imyEvolve
Tree
p321
(dp322
g7
I3
sg8
(imyEvolve
Tree
p323
(dp324
g7
I2
sg8
(imyEvolve
Tree
p325
(dp326
g11
(imyEvolve
Tree
p327
(dp328
g7
I0
sg15
I00
sbsg7
I1
sg16
I01
sg17
g34
sbsg19
(imyEvolve
Tree
p329
(dp330
g7
I1
sg8
(imyEvolve
Tree
p331
(dp332
g7
I0
sg14
F-3.9900608570667173
sg15
I01
sbsg19
(imyEvolve
Tree
p333
(dp334
g7
I0
sg14
F3.8084610874869416
sg15
I01
sbsg16
I00
sg17
g25
sbsg16
I00
sg17
g25
sbsg19
(imyEvolve
Tree
p335
(dp336
g11
(imyEvolve
Tree
p337
(dp338
g7
I1
sg8
(imyEvolve
Tree
p339
(dp340
g7
I0
sg15
I00
sbsg19
(imyEvolve
Tree
p341
(dp342
g7
I0
sg14
F-4.551516517402677
sg15
I01
sbsg16
I00
sg17
g83
sbsg7
I2
sg16
I01
sg17
g70
sbsg16
I00
sg17
g83
sbsg7
I4
sg16
I01
sg17
g70
sba(imyEvolve
Tree
p343
(dp344
g7
I5
sg8
(imyEvolve
Tree
p345
(dp346
g7
I4
sg8
(imyEvolve
Tree
p347
(dp348
g7
I3
sg8
(imyEvolve
Tree
p349
(dp350
g11
(imyEvolve
Tree
p351
(dp352
g7
I1
sg8
(imyEvolve
Tree
p353
(dp354
g7
I0
sg15
I00
sbsg19
(imyEvolve
Tree
p355
(dp356
g7
I0
sg14
F-1.8598106347962617
sg15
I01
sbsg16
I00
sg17
g83
sbsg7
I2
sg16
I01
sg17
g70
sbsg19
(imyEvolve
Tree
p357
(dp358
g7
I2
sg8
(imyEvolve
Tree
p359
(dp360
g11
(imyEvolve
Tree
p361
(dp362
g7
I0
sg15
I00
sbsg7
I1
sg16
I01
sg17
g18
sbsg19
(imyEvolve
Tree
p363
(dp364
g11
(imyEvolve
Tree
p365
(dp366
g7
I0
sg14
F-3.1140275709082688
sg15
I01
sbsg7
I1
sg16
I01
sg17
g70
sbsg16
I00
sg17
g47
sbsg16
I00
sg17
g83
sbsg19
(imyEvolve
Tree
p367
(dp368
g11
(imyEvolve
Tree
p369
(dp370
g7
I2
sg8
(imyEvolve
Tree
p371
(dp372
g11
(imyEvolve
Tree
p373
(dp374
g7
I0
sg15
I00
sbsg7
I1
sg16
I01
sg17
g18
sbsg19
(imyEvolve
Tree
p375
(dp376
g11
(imyEvolve
Tree
p377
(dp378
g7
I0
sg15
I00
sbsg7
I1
sg16
I01
sg17
g34
sbsg16
I00
sg17
g25
sbsg7
I3
sg16
I01
sg17
g18
sbsg16
I00
sg17
g25
sbsg19
(imyEvolve
Tree
p379
(dp380
g7
I4
sg8
(imyEvolve
Tree
p381
(dp382
g7
I3
sg8
(imyEvolve
Tree
p383
(dp384
g11
(imyEvolve
Tree
p385
(dp386
g11
(imyEvolve
Tree
p387
(dp388
g7
I0
sg15
I00
sbsg7
I1
sg16
I01
sg17
g70
sbsg7
I2
sg16
I01
sg17
g70
sbsg19
(imyEvolve
Tree
p389
(dp390
g7
I2
sg8
(imyEvolve
Tree
p391
(dp392
g11
(imyEvolve
Tree
p393
(dp394
g7
I0
sg15
I00
sbsg7
I1
sg16
I01
sg17
g34
sbsg19
(imyEvolve
Tree
p395
(dp396
g7
I1
sg8
(imyEvolve
Tree
p397
(dp398
g7
I0
sg15
I00
sbsg19
(imyEvolve
Tree
p399
(dp400
g7
I0
sg15
I00
sbsg16
I00
sg17
g47
sbsg16
I00
sg17
g83
sbsg16
I00
sg17
g83
sbsg19
(imyEvolve
Tree
p401
(dp402
g7
I3
sg8
(imyEvolve
Tree
p403
(dp404
g7
I2
sg8
(imyEvolve
Tree
p405
(dp406
g11
(imyEvolve
Tree
p407
(dp408
g7
I0
sg15
I00
sbsg7
I1
sg16
I01
sg17
g24
sbsg19
(imyEvolve
Tree
p409
(dp410
g7
I1
sg8
(imyEvolve
Tree
p411
(dp412
g7
I0
sg14
F-2.751956347643291
sg15
I01
sbsg19
(imyEvolve
Tree
p413
(dp414
g7
I0
sg15
I00
sbsg16
I00
sg17
g25
sbsg16
I00
sg17
g47
sbsg19
(imyEvolve
Tree
p415
(dp416
g11
(imyEvolve
Tree
p417
(dp418
g11
(imyEvolve
Tree
p419
(dp420
g7
I0
sg15
I00
sbsg7
I1
sg16
I01
sg17
g34
sbsg7
I2
sg16
I01
sg17
g24
sbsg16
I00
sg17
g47
sbsg16
I00
sg17
g25
sbsg16
I00
sg17
g83
sba(imyEvolve
Tree
p421
(dp422
g11
(imyEvolve
Tree
p423
(dp424
g7
I3
sg8
(imyEvolve
Tree
p425
(dp426
g11
(imyEvolve
Tree
p427
(dp428
g7
I1
sg8
(imyEvolve
Tree
p429
(dp430
g7
I0
sg14
F0.12273410981730315
sg15
I01
sbsg19
(imyEvolve
Tree
p431
(dp432
g7
I0
sg15
I00
sbsg16
I00
sg17
g47
sbsg7
I2
sg16
I01
sg17
g24
sbsg19
(imyEvolve
Tree
p433
(dp434
g11
(imyEvolve
Tree
p435
(dp436
g7
I1
sg8
(imyEvolve
Tree
p437
(dp438
g7
I0
sg14
F-1.7113002794975318
sg15
I01
sbsg19
(imyEvolve
Tree
p439
(dp440
g7
I0
sg15
I00
sbsg16
I00
sg17
g83
sbsg7
I2
sg16
I01
sg17
g18
sbsg16
I00
sg17
g25
sbsg7
I4
sg16
I01
sg17
g70
sba(imyEvolve
Tree
p441
(dp442
g11
(imyEvolve
Tree
p443
(dp444
g7
I2
sg8
(imyEvolve
Tree
p445
(dp446
g7
I1
sg8
(imyEvolve
Tree
p447
(dp448
g7
I0
sg15
I00
sbsg19
(imyEvolve
Tree
p449
(dp450
g7
I0
sg15
I00
sbsg16
I00
sg17
g25
sbsg19
(imyEvolve
Tree
p451
(dp452
g7
I1
sg8
(imyEvolve
Tree
p453
(dp454
g7
I0
sg14
F2.5295643708906663
sg15
I01
sbsg19
(imyEvolve
Tree
p455
(dp456
g7
I0
sg14
F3.1764841239034833
sg15
I01
sbsg16
I00
sg17
g47
sbsg16
I00
sg17
g47
sbsg7
I3
sg16
I01
sg17
g18
sba(imyEvolve
Tree
p457
(dp458
g7
I2
sg8
(imyEvolve
Tree
p459
(dp460
g7
I1
sg8
(imyEvolve
Tree
p461
(dp462
g7
I0
sg15
I00
sbsg19
(imyEvolve
Tree
p463
(dp464
g7
I0
sg15
I00
sbsg16
I00
sg17
g47
sbsg19
(imyEvolve
Tree
p465
(dp466
g7
I1
sg8
(imyEvolve
Tree
p467
(dp468
g7
I0
sg14
F1.8062297541355736
sg15
I01
sbsg19
(imyEvolve
Tree
p469
(dp470
g7
I0
sg14
F-2.621831472857968
sg15
I01
sbsg16
I00
sg17
g25
sbsg16
I00
sg17
g25
sba(imyEvolve
Tree
p471
(dp472
g11
(imyEvolve
Tree
p473
(dp474
g7
I3
sg8
(imyEvolve
Tree
p475
(dp476
g7
I2
sg8
(imyEvolve
Tree
p477
(dp478
g7
I1
sg8
(imyEvolve
Tree
p479
(dp480
g7
I0
sg14
F-0.5172165683980756
sg15
I01
sbsg19
(imyEvolve
Tree
p481
(dp482
g7
I0
sg14
F-0.8322301108343835
sg15
I01
sbsg16
I00
sg17
g25
sbsg19
(imyEvolve
Tree
p483
(dp484
g7
I1
sg8
(imyEvolve
Tree
p485
(dp486
g7
I0
sg14
F4.517780842383498
sg15
I01
sbsg19
(imyEvolve
Tree
p487
(dp488
g7
I0
sg15
I00
sbsg16
I00
sg17
g25
sbsg16
I00
sg17
g47
sbsg19
(imyEvolve
Tree
p489
(dp490
g7
I2
sg8
(imyEvolve
Tree
p491
(dp492
g11
(imyEvolve
Tree
p493
(dp494
g7
I0
sg15
I00
sbsg7
I1
sg16
I01
sg17
g34
sbsg19
(imyEvolve
Tree
p495
(dp496
g11
(imyEvolve
Tree
p497
(dp498
g7
I0
sg14
F2.498012244918187
sg15
I01
sbsg7
I1
sg16
I01
sg17
g34
sbsg16
I00
sg17
g47
sbsg16
I00
sg17
g83
sbsg7
I4
sg16
I01
sg17
g24
sba(imyEvolve
Tree
p499
(dp500
g11
(imyEvolve
Tree
p501
(dp502
g7
I2
sg8
(imyEvolve
Tree
p503
(dp504
g11
(imyEvolve
Tree
p505
(dp506
g7
I0
sg14
F0.7035366178239357
sg15
I01
sbsg7
I1
sg16
I01
sg17
g18
sbsg19
(imyEvolve
Tree
p507
(dp508
g11
(imyEvolve
Tree
p509
(dp510
g7
I0
sg14
F2.051869674124144
sg15
I01
sbsg7
I1
sg16
I01
sg17
g34
sbsg16
I00
sg17
g83
sbsg7
I3
sg16
I01
sg17
g24
sba(imyEvolve
Tree
p511
(dp512
g11
(imyEvolve
Tree
p513
(dp514
g7
I1
sg8
(imyEvolve
Tree
p515
(dp516
g7
I0
sg15
I00
sbsg19
(imyEvolve
Tree
p517
(dp518
g7
I0
sg15
I00
sbsg16
I00
sg17
g47
sbsg7
I2
sg16
I01
sg17
g34
sba(imyEvolve
Tree
p519
(dp520
g7
I5
sg8
(imyEvolve
Tree
p521
(dp522
g11
(imyEvolve
Tree
p523
(dp524
g11
(imyEvolve
Tree
p525
(dp526
g11
(imyEvolve
Tree
p527
(dp528
g11
(imyEvolve
Tree
p529
(dp530
g7
I0
sg15
I00
sbsg7
I1
sg16
I01
sg17
g70
sbsg7
I2
sg16
I01
sg17
g18
sbsg7
I3
sg16
I01
sg17
g70
sbsg7
I4
sg16
I01
sg17
g18
sbsg19
(imyEvolve
Tree
p531
(dp532
g11
(imyEvolve
Tree
p533
(dp534
g7
I3
sg8
(imyEvolve
Tree
p535
(dp536
g11
(imyEvolve
Tree
p537
(dp538
g7
I1
sg8
(imyEvolve
Tree
p539
(dp540
g7
I0
sg14
F3.513949071180134
sg15
I01
sbsg19
(imyEvolve
Tree
p541
(dp542
g7
I0
sg14
F2.653608225544396
sg15
I01
sbsg16
I00
sg17
g25
sbsg7
I2
sg16
I01
sg17
g34
sbsg19
(imyEvolve
Tree
p543
(dp544
g11
(imyEvolve
Tree
p545
(dp546
g7
I1
sg8
(imyEvolve
Tree
p547
(dp548
g7
I0
sg15
I00
sbsg19
(imyEvolve
Tree
p549
(dp550
g7
I0
sg14
F-1.753351959330669
sg15
I01
sbsg16
I00
sg17
g47
sbsg7
I2
sg16
I01
sg17
g34
sbsg16
I00
sg17
g83
sbsg7
I4
sg16
I01
sg17
g24
sbsg16
I00
sg17
g25
sba(imyEvolve
Tree
p551
(dp552
g11
(imyEvolve
Tree
p553
(dp554
g7
I3
sg8
(imyEvolve
Tree
p555
(dp556
g7
I2
sg8
(imyEvolve
Tree
p557
(dp558
g7
I1
sg8
(imyEvolve
Tree
p559
(dp560
g7
I0
sg15
I00
sbsg19
(imyEvolve
Tree
p561
(dp562
g7
I0
sg14
F-0.1024513393633999
sg15
I01
sbsg16
I00
sg17
g83
sbsg19
(imyEvolve
Tree
p563
(dp564
g11
(imyEvolve
Tree
p565
(dp566
g7
I0
sg15
I00
sbsg7
I1
sg16
I01
sg17
g18
sbsg16
I00
sg17
g47
sbsg19
(imyEvolve
Tree
p567
(dp568
g11
(imyEvolve
Tree
p569
(dp570
g11
(imyEvolve
Tree
p571
(dp572
g7
I0
sg14
F-4.695970388898671
sg15
I01
sbsg7
I1
sg16
I01
sg17
g34
sbsg7
I2
sg16
I01
sg17
g34
sbsg16
I00
sg17
g47
sbsg7
I4
sg16
I01
sg17
g18
sba(imyEvolve
Tree
p573
(dp574
g7
I4
sg8
(imyEvolve
Tree
p575
(dp576
g7
I3
sg8
(imyEvolve
Tree
p577
(dp578
g11
(imyEvolve
Tree
p579
(dp580
g11
(imyEvolve
Tree
p581
(dp582
g7
I0
sg14
F-0.572403199845688
sg15
I01
sbsg7
I1
sg16
I01
sg17
g34
sbsg7
I2
sg16
I01
sg17
g34
sbsg19
(imyEvolve
Tree
p583
(dp584
g7
I2
sg8
(imyEvolve
Tree
p585
(dp586
g7
I1
sg8
(imyEvolve
Tree
p587
(dp588
g7
I0
sg15
I00
sbsg19
(imyEvolve
Tree
p589
(dp590
g7
I0
sg15
I00
sbsg16
I00
sg17
g47
sbsg19
(imyEvolve
Tree
p591
(dp592
g11
(imyEvolve
Tree
p593
(dp594
g7
I0
sg15
I00
sbsg7
I1
sg16
I01
sg17
g70
sbsg16
I00
sg17
g83
sbsg16
I00
sg17
g25
sbsg19
(imyEvolve
Tree
p595
(dp596
g7
I3
sg8
(imyEvolve
Tree
p597
(dp598
g11
(imyEvolve
Tree
p599
(dp600
g7
I1
sg8
(imyEvolve
Tree
p601
(dp602
g7
I0
sg14
F0.5604730969109344
sg15
I01
sbsg19
(imyEvolve
Tree
p603
(dp604
g7
I0
sg14
F3.812424481621731
sg15
I01
sbsg16
I00
sg17
g25
sbsg7
I2
sg16
I01
sg17
g70
sbsg19
(imyEvolve
Tree
p605
(dp606
g11
(imyEvolve
Tree
p607
(dp608
g7
I1
sg8
(imyEvolve
Tree
p609
(dp610
g7
I0
sg15
I00
sbsg19
(imyEvolve
Tree
p611
(dp612
g7
I0
sg14
F4.469806258268205
sg15
I01
sbsg16
I00
sg17
g47
sbsg7
I2
sg16
I01
sg17
g34
sbsg16
I00
sg17
g47
sbsg16
I00
sg17
g25
sba(imyEvolve
Tree
p613
(dp614
g7
I4
sg8
(imyEvolve
Tree
p615
(dp616
g11
(imyEvolve
Tree
p617
(dp618
g11
(imyEvolve
Tree
p619
(dp620
g7
I1
sg8
(imyEvolve
Tree
p621
(dp622
g7
I0
sg14
F-3.9051021851604717
sg15
I01
sbsg19
(imyEvolve
Tree
p623
(dp624
g7
I0
sg14
F4.246303864656278
sg15
I01
sbsg16
I00
sg17
g47
sbsg7
I2
sg16
I01
sg17
g70
sbsg7
I3
sg16
I01
sg17
g18
sbsg19
(imyEvolve
Tree
p625
(dp626
g11
(imyEvolve
Tree
p627
(dp628
g11
(imyEvolve
Tree
p629
(dp630
g11
(imyEvolve
Tree
p631
(dp632
g7
I0
sg14
F1.5508663597156467
sg15
I01
sbsg7
I1
sg16
I01
sg17
g24
sbsg7
I2
sg16
I01
sg17
g24
sbsg7
I3
sg16
I01
sg17
g18
sbsg16
I00
sg17
g83
sba(imyEvolve
Tree
p633
(dp634
g7
I5
sg8
(imyEvolve
Tree
p635
(dp636
g11
(imyEvolve
Tree
p637
(dp638
g7
I3
sg8
(imyEvolve
Tree
p639
(dp640
g7
I2
sg8
(imyEvolve
Tree
p641
(dp642
g11
(imyEvolve
Tree
p643
(dp644
g7
I0
sg14
F2.5819672474229263
sg15
I01
sbsg7
I1
sg16
I01
sg17
g34
sbsg19
(imyEvolve
Tree
p645
(dp646
g11
(imyEvolve
Tree
p647
(dp648
g7
I0
sg15
I00
sbsg7
I1
sg16
I01
sg17
g24
sbsg16
I00
sg17
g83
sbsg19
(imyEvolve
Tree
p649
(dp650
g11
(imyEvolve
Tree
p651
(dp652
g11
(imyEvolve
Tree
p653
(dp654
g7
I0
sg14
F-3.924637437368954
sg15
I01
sbsg7
I1
sg16
I01
sg17
g70
sbsg7
I2
sg16
I01
sg17
g34
sbsg16
I00
sg17
g25
sbsg7
I4
sg16
I01
sg17
g34
sbsg19
(imyEvolve
Tree
p655
(dp656
g7
I4
sg8
(imyEvolve
Tree
p657
(dp658
g7
I3
sg8
(imyEvolve
Tree
p659
(dp660
g7
I2
sg8
(imyEvolve
Tree
p661
(dp662
g11
(imyEvolve
Tree
p663
(dp664
g7
I0
sg14
F1.74760929214652
sg15
I01
sbsg7
I1
sg16
I01
sg17
g70
sbsg19
(imyEvolve
Tree
p665
(dp666
g11
(imyEvolve
Tree
p667
(dp668
g7
I0
sg14
F-1.5144078513626722
sg15
I01
sbsg7
I1
sg16
I01
sg17
g70
sbsg16
I00
sg17
g47
sbsg19
(imyEvolve
Tree
p669
(dp670
g11
(imyEvolve
Tree
p671
(dp672
g7
I1
sg8
(imyEvolve
Tree
p673
(dp674
g7
I0
sg15
I00
sbsg19
(imyEvolve
Tree
p675
(dp676
g7
I0
sg14
F-2.3046476523801775
sg15
I01
sbsg16
I00
sg17
g83
sbsg7
I2
sg16
I01
sg17
g24
sbsg16
I00
sg17
g83
sbsg19
(imyEvolve
Tree
p677
(dp678
g11
(imyEvolve
Tree
p679
(dp680
g11
(imyEvolve
Tree
p681
(dp682
g11
(imyEvolve
Tree
p683
(dp684
g7
I0
sg14
F3.850117696825121
sg15
I01
sbsg7
I1
sg16
I01
sg17
g34
sbsg7
I2
sg16
I01
sg17
g70
sbsg7
I3
sg16
I01
sg17
g70
sbsg16
I00
sg17
g47
sbsg16
I00
sg17
g25
sba(imyEvolve
Tree
p685
(dp686
g7
I2
sg8
(imyEvolve
Tree
p687
(dp688
g11
(imyEvolve
Tree
p689
(dp690
g7
I0
sg14
F4.699953131187971
sg15
I01
sbsg7
I1
sg16
I01
sg17
g24
sbsg19
(imyEvolve
Tree
p691
(dp692
g7
I1
sg8
(imyEvolve
Tree
p693
(dp694
g7
I0
sg14
F-1.5503640774484353
sg15
I01
sbsg19
(imyEvolve
Tree
p695
(dp696
g7
I0
sg15
I00
sbsg16
I00
sg17
g47
sbsg16
I00
sg17
g83
sba(imyEvolve
Tree
p697
(dp698
g11
(imyEvolve
Tree
p699
(dp700
g7
I1
sg8
(imyEvolve
Tree
p701
(dp702
g7
I0
sg14
F-1.1720824711854094
sg15
I01
sbsg19
(imyEvolve
Tree
p703
(dp704
g7
I0
sg15
I00
sbsg16
I00
sg17
g83
sbsg7
I2
sg16
I01
sg17
g34
sbaa(lp705
(imyEvolve
Tree
p706
(dp707
g7
I4
sg8
(imyEvolve
Tree
p708
(dp709
g7
I3
sg8
(imyEvolve
Tree
p710
(dp711
g7
I2
sg8
(imyEvolve
Tree
p712
(dp713
g11
(imyEvolve
Tree
p714
(dp715
g7
I0
sg15
I00
sbsg7
I1
sg16
I01
sg17
g34
sbsg19
(imyEvolve
Tree
p716
(dp717
g11
(imyEvolve
Tree
p718
(dp719
g7
I0
sg15
I00
sbsg7
I1
sg16
I01
sg17
g18
sbsg16
I00
sg17
g83
sbsg19
(imyEvolve
Tree
p720
(dp721
g11
(imyEvolve
Tree
p722
(dp723
g7
I1
sg8
(imyEvolve
Tree
p724
(dp725
g7
I0
sg15
I00
sbsg19
(imyEvolve
Tree
p726
(dp727
g7
I0
sg14
F-1.3544772300379018
sg15
I01
sbsg16
I00
sg17
g83
sbsg7
I2
sg16
I01
sg17
g70
sbsg16
I00
sg17
g25
sbsg19
(imyEvolve
Tree
p728
(dp729
g11
(imyEvolve
Tree
p730
(dp731
g7
I2
sg8
(imyEvolve
Tree
p732
(dp733
g7
I1
sg8
(imyEvolve
Tree
p734
(dp735
g7
I0
sg14
F-1.1285931888390555
sg15
I01
sbsg19
(imyEvolve
Tree
p736
(dp737
g7
I0
sg15
I00
sbsg16
I00
sg17
g83
sbsg19
(imyEvolve
Tree
p738
(dp739
g11
(imyEvolve
Tree
p740
(dp741
g7
I0
sg14
F2.924383891108504
sg15
I01
sbsg7
I1
sg16
I01
sg17
g18
sbsg16
I00
sg17
g47
sbsg7
I3
sg16
I01
sg17
g70
sbsg16
I00
sg17
g83
sba(imyEvolve
Tree
p742
(dp743
g7
I3
sg8
(imyEvolve
Tree
p744
(dp745
g7
I2
sg8
(imyEvolve
Tree
p746
(dp747
g11
(imyEvolve
Tree
p748
(dp749
g7
I0
sg15
I00
sbsg7
I1
sg16
I01
sg17
g34
sbsg19
(imyEvolve
Tree
p750
(dp751
g7
I1
sg8
(imyEvolve
Tree
p752
(dp753
g7
I0
sg14
F2.0341330295043925
sg15
I01
sbsg19
(imyEvolve
Tree
p754
(dp755
g7
I0
sg15
I00
sbsg16
I00
sg17
g47
sbsg16
I00
sg17
g83
sbsg19
(imyEvolve
Tree
p756
(dp757
g11
(imyEvolve
Tree
p758
(dp759
g7
I1
sg8
(imyEvolve
Tree
p760
(dp761
g7
I0
sg15
I00
sbsg19
(imyEvolve
Tree
p762
(dp763
g7
I0
sg15
I00
sbsg16
I00
sg17
g83
sbsg7
I2
sg16
I01
sg17
g18
sbsg16
I00
sg17
g25
sba(imyEvolve
Tree
p764
(dp765
g11
(imyEvolve
Tree
p766
(dp767
g11
(imyEvolve
Tree
p768
(dp769
g11
(imyEvolve
Tree
p770
(dp771
g7
I0
sg14
F-1.2766598516503347
sg15
I01
sbsg7
I1
sg16
I01
sg17
g24
sbsg7
I2
sg16
I01
sg17
g18
sbsg7
I3
sg16
I01
sg17
g24
sba(imyEvolve
Tree
p772
(dp773
g7
I2
sg8
(imyEvolve
Tree
p774
(dp775
g7
I1
sg8
(imyEvolve
Tree
p776
(dp777
g7
I0
sg15
I00
sbsg19
(imyEvolve
Tree
p778
(dp779
g7
I0
sg14
F-2.812718207543
sg15
I01
sbsg16
I00
sg17
g25
sbsg19
(imyEvolve
Tree
p780
(dp781
g7
I1
sg8
(imyEvolve
Tree
p782
(dp783
g7
I0
sg15
I00
sbsg19
(imyEvolve
Tree
p784
(dp785
g7
I0
sg14
F-2.0210468775315893
sg15
I01
sbsg16
I00
sg17
g47
sbsg16
I00
sg17
g47
sba(imyEvolve
Tree
p786
(dp787
g11
(imyEvolve
Tree
p788
(dp789
g7
I3
sg8
(imyEvolve
Tree
p790
(dp791
g11
(imyEvolve
Tree
p792
(dp793
g11
(imyEvolve
Tree
p794
(dp795
g7
I0
sg14
F-1.727580950618127
sg15
I01
sbsg7
I1
sg16
I01
sg17
g34
sbsg7
I2
sg16
I01
sg17
g24
sbsg19
(imyEvolve
Tree
p796
(dp797
g7
I2
sg8
(imyEvolve
Tree
p798
(dp799
g7
I1
sg8
(imyEvolve
Tree
p800
(dp801
g7
I0
sg14
F0.8036043687671217
sg15
I01
sbsg19
(imyEvolve
Tree
p802
(dp803
g7
I0
sg14
F-4.220298125237414
sg15
I01
sbsg16
I00
sg17
g47
sbsg19
(imyEvolve
Tree
p804
(dp805
g7
I1
sg8
(imyEvolve
Tree
p806
(dp807
g7
I0
sg15
I00
sbsg19
(imyEvolve
Tree
p808
(dp809
g7
I0
sg15
I00
sbsg16
I00
sg17
g25
sbsg16
I00
sg17
g47
sbsg16
I00
sg17
g25
sbsg7
I4
sg16
I01
sg17
g18
sba(imyEvolve
Tree
p810
(dp811
g11
(imyEvolve
Tree
p812
(dp813
g7
I1
sg8
(imyEvolve
Tree
p814
(dp815
g7
I0
sg14
F-3.8918637339526296
sg15
I01
sbsg19
(imyEvolve
Tree
p816
(dp817
g7
I0
sg15
I00
sbsg16
I00
sg17
g25
sbsg7
I2
sg16
I01
sg17
g24
sba(imyEvolve
Tree
p818
(dp819
g7
I5
sg8
(imyEvolve
Tree
p820
(dp821
g7
I4
sg8
(imyEvolve
Tree
p822
(dp823
g7
I3
sg8
(imyEvolve
Tree
p824
(dp825
g11
(imyEvolve
Tree
p826
(dp827
g7
I1
sg8
(imyEvolve
Tree
p828
(dp829
g7
I0
sg14
F3.01009820806385
sg15
I01
sbsg19
(imyEvolve
Tree
p830
(dp831
g7
I0
sg14
F4.415648211921589
sg15
I01
sbsg16
I00
sg17
g25
sbsg7
I2
sg16
I01
sg17
g34
sbsg19
(imyEvolve
Tree
p832
(dp833
g7
I2
sg8
(imyEvolve
Tree
p834
(dp835
g7
I1
sg8
(imyEvolve
Tree
p836
(dp837
g7
I0
sg14
F-0.6269397477153182
sg15
I01
sbsg19
(imyEvolve
Tree
p838
(dp839
g7
I0
sg14
F3.5288429863426387
sg15
I01
sbsg16
I00
sg17
g47
sbsg19
(imyEvolve
Tree
p840
(dp841
g7
I1
sg8
(imyEvolve
Tree
p842
(dp843
g7
I0
sg15
I00
sbsg19
(imyEvolve
Tree
p844
(dp845
g7
I0
sg14
F-3.5418611223843466
sg15
I01
sbsg16
I00
sg17
g47
sbsg16
I00
sg17
g83
sbsg16
I00
sg17
g83
sbsg19
(imyEvolve
Tree
p846
(dp847
g11
(imyEvolve
Tree
p848
(dp849
g7
I2
sg8
(imyEvolve
Tree
p850
(dp851
g11
(imyEvolve
Tree
p852
(dp853
g7
I0
sg15
I00
sbsg7
I1
sg16
I01
sg17
g70
sbsg19
(imyEvolve
Tree
p854
(dp855
g7
I1
sg8
(imyEvolve
Tree
p856
(dp857
g7
I0
sg15
I00
sbsg19
(imyEvolve
Tree
p858
(dp859
g7
I0
sg14
F3.77375352764418
sg15
I01
sbsg16
I00
sg17
g47
sbsg16
I00
sg17
g25
sbsg7
I3
sg16
I01
sg17
g18
sbsg16
I00
sg17
g25
sbsg19
(imyEvolve
Tree
p860
(dp861
g11
(imyEvolve
Tree
p862
(dp863
g11
(imyEvolve
Tree
p864
(dp865
g11
(imyEvolve
Tree
p866
(dp867
g7
I1
sg8
(imyEvolve
Tree
p868
(dp869
g7
I0
sg14
F1.7855068775601257
sg15
I01
sbsg19
(imyEvolve
Tree
p870
(dp871
g7
I0
sg14
F2.0265859167262565
sg15
I01
sbsg16
I00
sg17
g25
sbsg7
I2
sg16
I01
sg17
g18
sbsg7
I3
sg16
I01
sg17
g18
sbsg7
I4
sg16
I01
sg17
g34
sbsg16
I00
sg17
g47
sba(imyEvolve
Tree
p872
(dp873
g11
(imyEvolve
Tree
p874
(dp875
g11
(imyEvolve
Tree
p876
(dp877
g7
I2
sg8
(imyEvolve
Tree
p878
(dp879
g11
(imyEvolve
Tree
p880
(dp881
g7
I0
sg15
I00
sbsg7
I1
sg16
I01
sg17
g70
sbsg19
(imyEvolve
Tree
p882
(dp883
g7
I1
sg8
(imyEvolve
Tree
p884
(dp885
g7
I0
sg15
I00
sbsg19
(imyEvolve
Tree
p886
(dp887
g7
I0
sg15
I00
sbsg16
I00
sg17
g83
sbsg16
I00
sg17
g25
sbsg7
I3
sg16
I01
sg17
g34
sbsg7
I4
sg16
I01
sg17
g18
sba(imyEvolve
Tree
p888
(dp889
g7
I4
sg8
(imyEvolve
Tree
p890
(dp891
g11
(imyEvolve
Tree
p892
(dp893
g11
(imyEvolve
Tree
p894
(dp895
g7
I1
sg8
(imyEvolve
Tree
p896
(dp897
g7
I0
sg15
I00
sbsg19
(imyEvolve
Tree
p898
(dp899
g7
I0
sg14
F-0.11674967114236967
sg15
I01
sbsg16
I00
sg17
g47
sbsg7
I2
sg16
I01
sg17
g24
sbsg7
I3
sg16
I01
sg17
g24
sbsg19
(imyEvolve
Tree
p900
(dp901
g7
I3
sg8
(imyEvolve
Tree
p902
(dp903
g11
(imyEvolve
Tree
p904
(dp905
g7
I1
sg8
(imyEvolve
Tree
p906
(dp907
g7
I0
sg15
I00
sbsg19
(imyEvolve
Tree
p908
(dp909
g7
I0
sg15
I00
sbsg16
I00
sg17
g83
sbsg7
I2
sg16
I01
sg17
g70
sbsg19
(imyEvolve
Tree
p910
(dp911
g7
I2
sg8
(imyEvolve
Tree
p912
(dp913
g11
(imyEvolve
Tree
p914
(dp915
g7
I0
sg14
F0.24117161989041946
sg15
I01
sbsg7
I1
sg16
I01
sg17
g24
sbsg19
(imyEvolve
Tree
p916
(dp917
g11
(imyEvolve
Tree
p918
(dp919
g7
I0
sg15
I00
sbsg7
I1
sg16
I01
sg17
g24
sbsg16
I00
sg17
g83
sbsg16
I00
sg17
g25
sbsg16
I00
sg17
g25
sba(imyEvolve
Tree
p920
(dp921
g11
(imyEvolve
Tree
p922
(dp923
g7
I3
sg8
(imyEvolve
Tree
p924
(dp925
g11
(imyEvolve
Tree
p926
(dp927
g11
(imyEvolve
Tree
p928
(dp929
g7
I0
sg14
F1.4349419208671481
sg15
I01
sbsg7
I1
sg16
I01
sg17
g24
sbsg7
I2
sg16
I01
sg17
g34
sbsg19
(imyEvolve
Tree
p930
(dp931
g11
(imyEvolve
Tree
p932
(dp933
g11
(imyEvolve
Tree
p934
(dp935
g7
I0
sg14
F-3.201065384546445
sg15
I01
sbsg7
I1
sg16
I01
sg17
g70
sbsg7
I2
sg16
I01
sg17
g24
sbsg16
I00
sg17
g47
sbsg7
I4
sg16
I01
sg17
g18
sba(imyEvolve
Tree
p936
(dp937
g7
I4
sg8
(imyEvolve
Tree
p938
(dp939
g7
I3
sg8
(imyEvolve
Tree
p940
(dp941
g11
(imyEvolve
Tree
p942
(dp943
g11
(imyEvolve
Tree
p944
(dp945
g7
I0
sg14
F3.0295577527376274
sg15
I01
sbsg7
I1
sg16
I01
sg17
g70
sbsg7
I2
sg16
I01
sg17
g18
sbsg19
(imyEvolve
Tree
p946
(dp947
g7
I2
sg8
(imyEvolve
Tree
p948
(dp949
g7
I1
sg8
(imyEvolve
Tree
p950
(dp951
g7
I0
sg15
I00
sbsg19
(imyEvolve
Tree
p952
(dp953
g7
I0
sg14
F-1.2413934610813104
sg15
I01
sbsg16
I00
sg17
g47
sbsg19
(imyEvolve
Tree
p954
(dp955
g11
(imyEvolve
Tree
p956
(dp957
g7
I0
sg14
F0.9865408822687467
sg15
I01
sbsg7
I1
sg16
I01
sg17
g34
sbsg16
I00
sg17
g83
sbsg16
I00
sg17
g83
sbsg19
(imyEvolve
Tree
p958
(dp959
g7
I3
sg8
(imyEvolve
Tree
p960
(dp961
g11
(imyEvolve
Tree
p962
(dp963
g7
I1
sg8
(imyEvolve
Tree
p964
(dp965
g7
I0
sg14
F-0.1055912197344746
sg15
I01
sbsg19
(imyEvolve
Tree
p966
(dp967
g7
I0
sg15
I00
sbsg16
I00
sg17
g25
sbsg7
I2
sg16
I01
sg17
g34
sbsg19
(imyEvolve
Tree
p968
(dp969
g7
I2
sg8
(imyEvolve
Tree
p970
(dp971
g11
(imyEvolve
Tree
p972
(dp973
g7
I0
sg15
I00
sbsg7
I1
sg16
I01
sg17
g34
sbsg19
(imyEvolve
Tree
p974
(dp975
g11
(imyEvolve
Tree
p976
(dp977
g7
I0
sg14
F4.973574834612894
sg15
I01
sbsg7
I1
sg16
I01
sg17
g18
sbsg16
I00
sg17
g25
sbsg16
I00
sg17
g47
sbsg16
I00
sg17
g83
sba(imyEvolve
Tree
p978
(dp979
g7
I5
sg8
(imyEvolve
Tree
p980
(dp981
g11
(imyEvolve
Tree
p982
(dp983
g7
I3
sg8
(imyEvolve
Tree
p984
(dp985
g7
I2
sg8
(imyEvolve
Tree
p986
(dp987
g7
I1
sg8
(imyEvolve
Tree
p988
(dp989
g7
I0
sg15
I00
sbsg19
(imyEvolve
Tree
p990
(dp991
g7
I0
sg15
I00
sbsg16
I00
sg17
g47
sbsg19
(imyEvolve
Tree
p992
(dp993
g7
I1
sg8
(imyEvolve
Tree
p994
(dp995
g7
I0
sg15
I00
sbsg19
(imyEvolve
Tree
p996
(dp997
g7
I0
sg14
F-2.633069531139024
sg15
I01
sbsg16
I00
sg17
g83
sbsg16
I00
sg17
g83
sbsg19
(imyEvolve
Tree
p998
(dp999
g7
I2
sg8
(imyEvolve
Tree
p1000
(dp1001
g11
(imyEvolve
Tree
p1002
(dp1003
g7
I0
sg14
F2.7317142845684828
sg15
I01
sbsg7
I1
sg16
I01
sg17
g18
sbsg19
(imyEvolve
Tree
p1004
(dp1005
g7
I1
sg8
(imyEvolve
Tree
p1006
(dp1007
g7
I0
sg15
I00
sbsg19
(imyEvolve
Tree
p1008
(dp1009
g7
I0
sg15
I00
sbsg16
I00
sg17
g47
sbsg16
I00
sg17
g25
sbsg16
I00
sg17
g47
sbsg7
I4
sg16
I01
sg17
g18
sbsg19
(imyEvolve
Tree
p1010
(dp1011
g7
I4
sg8
(imyEvolve
Tree
p1012
(dp1013
g11
(imyEvolve
Tree
p1014
(dp1015
g7
I2
sg8
(imyEvolve
Tree
p1016
(dp1017
g11
(imyEvolve
Tree
p1018
(dp1019
g7
I0
sg15
I00
sbsg7
I1
sg16
I01
sg17
g70
sbsg19
(imyEvolve
Tree
p1020
(dp1021
g7
I1
sg8
(imyEvolve
Tree
p1022
(dp1023
g7
I0
sg15
I00
sbsg19
(imyEvolve
Tree
p1024
(dp1025
g7
I0
sg15
I00
sbsg16
I00
sg17
g83
sbsg16
I00
sg17
g47
sbsg7
I3
sg16
I01
sg17
g18
sbsg19
(imyEvolve
Tree
p1026
(dp1027
g7
I3
sg8
(imyEvolve
Tree
p1028
(dp1029
g11
(imyEvolve
Tree
p1030
(dp1031
g11
(imyEvolve
Tree
p1032
(dp1033
g7
I0
sg14
F-4.5850809695529815
sg15
I01
sbsg7
I1
sg16
I01
sg17
g18
sbsg7
I2
sg16
I01
sg17
g70
sbsg19
(imyEvolve
Tree
p1034
(dp1035
g7
I2
sg8
(imyEvolve
Tree
p1036
(dp1037
g11
(imyEvolve
Tree
p1038
(dp1039
g7
I0
sg15
I00
sbsg7
I1
sg16
I01
sg17
g24
sbsg19
(imyEvolve
Tree
p1040
(dp1041
g11
(imyEvolve
Tree
p1042
(dp1043
g7
I0
sg14
F-4.038356140333542
sg15
I01
sbsg7
I1
sg16
I01
sg17
g70
sbsg16
I00
sg17
g25
sbsg16
I00
sg17
g47
sbsg16
I00
sg17
g25
sbsg16
I00
sg17
g47
sba(imyEvolve
Tree
p1044
(dp1045
g7
I5
sg8
(imyEvolve
Tree
p1046
(dp1047
g7
I4
sg8
(imyEvolve
Tree
p1048
(dp1049
g7
I3
sg8
(imyEvolve
Tree
p1050
(dp1051
g11
(imyEvolve
Tree
p1052
(dp1053
g7
I1
sg8
(imyEvolve
Tree
p1054
(dp1055
g7
I0
sg14
F-2.159487429593593
sg15
I01
sbsg19
(imyEvolve
Tree
p1056
(dp1057
g7
I0
sg15
I00
sbsg16
I00
sg17
g47
sbsg7
I2
sg16
I01
sg17
g18
sbsg19
(imyEvolve
Tree
p1058
(dp1059
g11
(imyEvolve
Tree
p1060
(dp1061
g11
(imyEvolve
Tree
p1062
(dp1063
g7
I0
sg15
I00
sbsg7
I1
sg16
I01
sg17
g18
sbsg7
I2
sg16
I01
sg17
g18
sbsg16
I00
sg17
g25
sbsg19
(imyEvolve
Tree
p1064
(dp1065
g7
I3
sg8
(imyEvolve
Tree
p1066
(dp1067
g11
(imyEvolve
Tree
p1068
(dp1069
g11
(imyEvolve
Tree
p1070
(dp1071
g7
I0
sg15
I00
sbsg7
I1
sg16
I01
sg17
g70
sbsg7
I2
sg16
I01
sg17
g18
sbsg19
(imyEvolve
Tree
p1072
(dp1073
g7
I2
sg8
(imyEvolve
Tree
p1074
(dp1075
g11
(imyEvolve
Tree
p1076
(dp1077
g7
I0
sg14
F4.266365836146704
sg15
I01
sbsg7
I1
sg16
I01
sg17
g18
sbsg19
(imyEvolve
Tree
p1078
(dp1079
g11
(imyEvolve
Tree
p1080
(dp1081
g7
I0
sg14
F0.8117603931926993
sg15
I01
sbsg7
I1
sg16
I01
sg17
g24
sbsg16
I00
sg17
g25
sbsg16
I00
sg17
g25
sbsg16
I00
sg17
g25
sbsg19
(imyEvolve
Tree
p1082
(dp1083
g7
I4
sg8
(imyEvolve
Tree
p1084
(dp1085
g11
(imyEvolve
Tree
p1086
(dp1087
g11
(imyEvolve
Tree
p1088
(dp1089
g11
(imyEvolve
Tree
p1090
(dp1091
g7
I0
sg15
I00
sbsg7
I1
sg16
I01
sg17
g24
sbsg7
I2
sg16
I01
sg17
g24
sbsg7
I3
sg16
I01
sg17
g34
sbsg19
(imyEvolve
Tree
p1092
(dp1093
g11
(imyEvolve
Tree
p1094
(dp1095
g11
(imyEvolve
Tree
p1096
(dp1097
g7
I1
sg8
(imyEvolve
Tree
p1098
(dp1099
g7
I0
sg15
I00
sbsg19
(imyEvolve
Tree
p1100
(dp1101
g7
I0
sg15
I00
sbsg16
I00
sg17
g47
sbsg7
I2
sg16
I01
sg17
g24
sbsg7
I3
sg16
I01
sg17
g18
sbsg16
I00
sg17
g25
sbsg16
I00
sg17
g47
sbaasS'weightSharing'
p1102
(lp1103
I01
asS'fitnessValid'
p1104
I00
sS'fitness'
p1105
cnumpy.core.multiarray
scalar
p1106
(cnumpy
dtype
p1107
(S'f8'
p1108
I0
I1
tp1109
Rp1110
(I3
S'<'
p1111
NNNI-1
I-1
I0
tp1112
bS'\x00\xd0\xf7SK\x08I?'
p1113
tp1114
Rp1115
sS'alpha'
p1116
F0.007323116596559083
sS'resolution'
p1117
I92
sb.