(imyEvolve
Individual
p0
(dp1
S'funcs'
p2
(lp3
(lp4
(imyEvolve
Tree
p5
(dp6
S'depth'
p7
I4
sS'left'
p8
(imyEvolve
Tree
p9
(dp10
g7
I3
sg8
(imyEvolve
Tree
p11
(dp12
g7
I2
sg8
(imyEvolve
Tree
p13
(dp14
g7
I1
sg8
(imyEvolve
Tree
p15
(dp16
g7
I0
sS'constant'
p17
F-3.223953146385715
sS'isConstant'
p18
I01
sbsS'right'
p19
(imyEvolve
Tree
p20
(dp21
g7
I0
sg17
F-2.600816592158708
sg18
I01
sbsS'single'
p22
I00
sS'op'
p23
coperator
sub
p24
sbsg19
(imyEvolve
Tree
p25
(dp26
g7
I1
sg8
(imyEvolve
Tree
p27
(dp28
g7
I0
sg17
F-4.72355284828097
sg18
I01
sbsg19
(imyEvolve
Tree
p29
(dp30
g7
I0
sg17
F3.3401561481939055
sg18
I01
sbsg22
I00
sg23
coperator
mul
p31
sbsg22
I00
sg23
g24
sbsg19
(imyEvolve
Tree
p32
(dp33
S'below'
p34
(imyEvolve
Tree
p35
(dp36
g34
(imyEvolve
Tree
p37
(dp38
g7
I0
sg18
I00
sbsg7
I1
sg22
I01
sg23
cmyEvolve
absSqrt
p39
sbsg7
I2
sg22
I01
sg23
cmath
cos
p40
sbsg22
I00
sg23
g24
sbsg19
(imyEvolve
Tree
p41
(dp42
g7
I3
sg8
(imyEvolve
Tree
p43
(dp44
g34
(imyEvolve
Tree
p45
(dp46
g34
(imyEvolve
Tree
p47
(dp48
g7
I0
sg17
F-0.7174554106310813
sg18
I01
sbsg7
I1
sg22
I01
sg23
g39
sbsg7
I2
sg22
I01
sg23
g39
sbsg19
(imyEvolve
Tree
p49
(dp50
g7
I2
sg8
(imyEvolve
Tree
p51
(dp52
g7
I1
sg8
(imyEvolve
Tree
p53
(dp54
g7
I0
sg18
I00
sbsg19
(imyEvolve
Tree
p55
(dp56
g7
I0
sg17
F1.1011486168162863
sg18
I01
sbsg22
I00
sg23
coperator
add
p57
sbsg19
(imyEvolve
Tree
p58
(dp59
g34
(imyEvolve
Tree
p60
(dp61
g7
I0
sg17
F-1.976331332820378
sg18
I01
sbsg7
I1
sg22
I01
sg23
g39
sbsg22
I00
sg23
g31
sbsg22
I00
sg23
g31
sbsg22
I00
sg23
g57
sba(imyEvolve
Tree
p62
(dp63
g34
(imyEvolve
Tree
p64
(dp65
g8
(imyEvolve
Tree
p66
(dp67
g34
(imyEvolve
Tree
p68
(dp69
g8
(imyEvolve
Tree
p70
(dp71
g7
I0
sg18
I00
sbsg7
I1
sg19
(imyEvolve
Tree
p72
(dp73
g7
I0
sg17
F-2.9381924687223426
sg18
I01
sbsg22
I00
sg23
g57
sbsg7
I2
sg22
I01
sg23
g39
sbsg7
I3
sg19
(imyEvolve
Tree
p74
(dp75
g8
(imyEvolve
Tree
p76
(dp77
g8
(imyEvolve
Tree
p78
(dp79
g7
I0
sg18
I00
sbsg7
I1
sg19
(imyEvolve
Tree
p80
(dp81
g7
I0
sg17
F-3.2630981291832994
sg18
I01
sbsg22
I00
sg23
g31
sbsg7
I2
sg19
(imyEvolve
Tree
p82
(dp83
g34
(imyEvolve
Tree
p84
(dp85
g7
I0
sg17
F4.503871533589578
sg18
I01
sbsg7
I1
sg22
I01
sg23
g39
sbsg22
I00
sg23
g31
sbsg22
I00
sg23
g24
sbsg7
I4
sg22
I01
sg23
cmath
sin
p86
sba(imyEvolve
Tree
p87
(dp88
g34
(imyEvolve
Tree
p89
(dp90
g34
(imyEvolve
Tree
p91
(dp92
g34
(imyEvolve
Tree
p93
(dp94
g34
(imyEvolve
Tree
p95
(dp96
g7
I0
sg18
I00
sbsg7
I1
sg22
I01
sg23
cmyEvolve
square
p97
sbsg7
I2
sg22
I01
sg23
g39
sbsg7
I3
sg22
I01
sg23
g86
sbsg7
I4
sg22
I01
sg23
g97
sba(imyEvolve
Tree
p98
(dp99
g8
(imyEvolve
Tree
p100
(dp101
g8
(imyEvolve
Tree
p102
(dp103
g7
I0
sg18
I00
sbsg7
I1
sg19
(imyEvolve
Tree
p104
(dp105
g7
I0
sg17
F-2.2925754211799045
sg18
I01
sbsg22
I00
sg23
g57
sbsg7
I2
sg19
(imyEvolve
Tree
p106
(dp107
g8
(imyEvolve
Tree
p108
(dp109
g7
I0
sg17
F-1.7579629441638875
sg18
I01
sbsg7
I1
sg19
(imyEvolve
Tree
p110
(dp111
g7
I0
sg18
I00
sbsg22
I00
sg23
g57
sbsg22
I00
sg23
g57
sba(imyEvolve
Tree
p112
(dp113
g34
(imyEvolve
Tree
p114
(dp115
g34
(imyEvolve
Tree
p116
(dp117
g8
(imyEvolve
Tree
p118
(dp119
g8
(imyEvolve
Tree
p120
(dp121
g34
(imyEvolve
Tree
p122
(dp123
g7
I0
sg18
I00
sbsg7
I1
sg22
I01
sg23
g39
sbsg7
I2
sg19
(imyEvolve
Tree
p124
(dp125
g8
(imyEvolve
Tree
p126
(dp127
g7
I0
sg18
I00
sbsg7
I1
sg19
(imyEvolve
Tree
p128
(dp129
g7
I0
sg17
F-3.6278149255916956
sg18
I01
sbsg22
I00
sg23
g57
sbsg22
I00
sg23
g24
sbsg7
I3
sg19
(imyEvolve
Tree
p130
(dp131
g8
(imyEvolve
Tree
p132
(dp133
g8
(imyEvolve
Tree
p134
(dp135
g7
I0
sg17
F2.946853823456255
sg18
I01
sbsg7
I1
sg19
(imyEvolve
Tree
p136
(dp137
g7
I0
sg17
F0.24897250191702547
sg18
I01
sbsg22
I00
sg23
g31
sbsg7
I2
sg19
(imyEvolve
Tree
p138
(dp139
g34
(imyEvolve
Tree
p140
(dp141
g7
I0
sg18
I00
sbsg7
I1
sg22
I01
sg23
g97
sbsg22
I00
sg23
g31
sbsg22
I00
sg23
g24
sbsg7
I4
sg22
I01
sg23
g39
sbsg7
I5
sg22
I01
sg23
g40
sba(imyEvolve
Tree
p142
(dp143
g8
(imyEvolve
Tree
p144
(dp145
g34
(imyEvolve
Tree
p146
(dp147
g34
(imyEvolve
Tree
p148
(dp149
g7
I0
sg17
F-3.155081892346719
sg18
I01
sbsg7
I1
sg22
I01
sg23
g39
sbsg7
I2
sg22
I01
sg23
g39
sbsg7
I3
sg19
(imyEvolve
Tree
p150
(dp151
g8
(imyEvolve
Tree
p152
(dp153
g34
(imyEvolve
Tree
p154
(dp155
g7
I0
sg17
F2.270386074894308
sg18
I01
sbsg7
I1
sg22
I01
sg23
g40
sbsg7
I2
sg19
(imyEvolve
Tree
p156
(dp157
g8
(imyEvolve
Tree
p158
(dp159
g7
I0
sg17
F-2.606526421882507
sg18
I01
sbsg7
I1
sg19
(imyEvolve
Tree
p160
(dp161
g7
I0
sg18
I00
sbsg22
I00
sg23
g24
sbsg22
I00
sg23
g24
sbsg22
I00
sg23
g31
sba(imyEvolve
Tree
p162
(dp163
g34
(imyEvolve
Tree
p164
(dp165
g34
(imyEvolve
Tree
p166
(dp167
g7
I0
sg17
F-0.9403324617953404
sg18
I01
sbsg7
I1
sg22
I01
sg23
g39
sbsg7
I2
sg22
I01
sg23
g86
sba(imyEvolve
Tree
p168
(dp169
g34
(imyEvolve
Tree
p170
(dp171
g8
(imyEvolve
Tree
p172
(dp173
g34
(imyEvolve
Tree
p174
(dp175
g7
I0
sg17
F-0.7528714044979843
sg18
I01
sbsg7
I1
sg22
I01
sg23
g97
sbsg7
I2
sg19
(imyEvolve
Tree
p176
(dp177
g34
(imyEvolve
Tree
p178
(dp179
g7
I0
sg18
I00
sbsg7
I1
sg22
I01
sg23
g86
sbsg22
I00
sg23
g31
sbsg7
I3
sg22
I01
sg23
g86
sba(imyEvolve
Tree
p180
(dp181
g7
I5
sg8
(imyEvolve
Tree
p182
(dp183
g34
(imyEvolve
Tree
p184
(dp185
g7
I3
sg8
(imyEvolve
Tree
p186
(dp187
g7
I2
sg8
(imyEvolve
Tree
p188
(dp189
g7
I1
sg8
(imyEvolve
Tree
p190
(dp191
g7
I0
sg18
I00
sbsg19
(imyEvolve
Tree
p192
(dp193
g7
I0
sg17
F0.6820386732566828
sg18
I01
sbsg22
I00
sg23
g57
sbsg19
(imyEvolve
Tree
p194
(dp195
g7
I1
sg8
(imyEvolve
Tree
p196
(dp197
g7
I0
sg18
I00
sbsg19
(imyEvolve
Tree
p198
(dp199
g7
I0
sg18
I00
sbsg22
I00
sg23
g57
sbsg22
I00
sg23
g31
sbsg19
(imyEvolve
Tree
p200
(dp201
g7
I2
sg8
(imyEvolve
Tree
p202
(dp203
g34
(imyEvolve
Tree
p204
(dp205
g7
I0
sg18
I00
sbsg7
I1
sg22
I01
sg23
g40
sbsg19
(imyEvolve
Tree
p206
(dp207
g7
I1
sg8
(imyEvolve
Tree
p208
(dp209
g7
I0
sg18
I00
sbsg19
(imyEvolve
Tree
p210
(dp211
g7
I0
sg18
I00
sbsg22
I00
sg23
g31
sbsg22
I00
sg23
g31
sbsg22
I00
sg23
g57
sbsg7
I4
sg22
I01
sg23
g86
sbsg19
(imyEvolve
Tree
p212
(dp213
g7
I4
sg8
(imyEvolve
Tree
p214
(dp215
g7
I3
sg8
(imyEvolve
Tree
p216
(dp217
g7
I2
sg8
(imyEvolve
Tree
p218
(dp219
g7
I1
sg8
(imyEvolve
Tree
p220
(dp221
g7
I0
sg18
I00
sbsg19
(imyEvolve
Tree
p222
(dp223
g7
I0
sg18
I00
sbsg22
I00
sg23
g57
sbsg19
(imyEvolve
Tree
p224
(dp225
g7
I1
sg8
(imyEvolve
Tree
p226
(dp227
g7
I0
sg18
I00
sbsg19
(imyEvolve
Tree
p228
(dp229
g7
I0
sg17
F0.18801519594877103
sg18
I01
sbsg22
I00
sg23
g24
sbsg22
I00
sg23
g24
sbsg19
(imyEvolve
Tree
p230
(dp231
g34
(imyEvolve
Tree
p232
(dp233
g34
(imyEvolve
Tree
p234
(dp235
g7
I0
sg17
F2.6273045545616833
sg18
I01
sbsg7
I1
sg22
I01
sg23
g97
sbsg7
I2
sg22
I01
sg23
g39
sbsg22
I00
sg23
g24
sbsg19
(imyEvolve
Tree
p236
(dp237
g7
I3
sg8
(imyEvolve
Tree
p238
(dp239
g34
(imyEvolve
Tree
p240
(dp241
g7
I1
sg8
(imyEvolve
Tree
p242
(dp243
g7
I0
sg17
F1.5586989308048302
sg18
I01
sbsg19
(imyEvolve
Tree
p244
(dp245
g7
I0
sg18
I00
sbsg22
I00
sg23
g31
sbsg7
I2
sg22
I01
sg23
g39
sbsg19
(imyEvolve
Tree
p246
(dp247
g7
I2
sg8
(imyEvolve
Tree
p248
(dp249
g34
(imyEvolve
Tree
p250
(dp251
g7
I0
sg17
F2.845458711134661
sg18
I01
sbsg7
I1
sg22
I01
sg23
g39
sbsg19
(imyEvolve
Tree
p252
(dp253
g7
I1
sg8
(imyEvolve
Tree
p254
(dp255
g7
I0
sg17
F4.293253385223368
sg18
I01
sbsg19
(imyEvolve
Tree
p256
(dp257
g7
I0
sg17
F-2.5742554212999225
sg18
I01
sbsg22
I00
sg23
g24
sbsg22
I00
sg23
g57
sbsg22
I00
sg23
g57
sbsg22
I00
sg23
g57
sbsg22
I00
sg23
g57
sba(imyEvolve
Tree
p258
(dp259
g34
(imyEvolve
Tree
p260
(dp261
g7
I3
sg8
(imyEvolve
Tree
p262
(dp263
g34
(imyEvolve
Tree
p264
(dp265
g7
I1
sg8
(imyEvolve
Tree
p266
(dp267
g7
I0
sg17
F2.2165615852762377
sg18
I01
sbsg19
(imyEvolve
Tree
p268
(dp269
g7
I0
sg17
F3.065287093130779
sg18
I01
sbsg22
I00
sg23
g57
sbsg7
I2
sg22
I01
sg23
g39
sbsg19
(imyEvolve
Tree
p270
(dp271
g34
(imyEvolve
Tree
p272
(dp273
g7
I1
sg8
(imyEvolve
Tree
p274
(dp275
g7
I0
sg18
I00
sbsg19
(imyEvolve
Tree
p276
(dp277
g7
I0
sg18
I00
sbsg22
I00
sg23
g24
sbsg7
I2
sg22
I01
sg23
g39
sbsg22
I00
sg23
g24
sbsg7
I4
sg22
I01
sg23
g86
sba(imyEvolve
Tree
p278
(dp279
g34
(imyEvolve
Tree
p280
(dp281
g7
I4
sg8
(imyEvolve
Tree
p282
(dp283
g7
I3
sg8
(imyEvolve
Tree
p284
(dp285
g7
I2
sg8
(imyEvolve
Tree
p286
(dp287
g7
I1
sg8
(imyEvolve
Tree
p288
(dp289
g7
I0
sg18
I00
sbsg19
(imyEvolve
Tree
p290
(dp291
g7
I0
sg18
I00
sbsg22
I00
sg23
g24
sbsg19
(imyEvolve
Tree
p292
(dp293
g34
(imyEvolve
Tree
p294
(dp295
g7
I0
sg18
I00
sbsg7
I1
sg22
I01
sg23
g97
sbsg22
I00
sg23
g31
sbsg19
(imyEvolve
Tree
p296
(dp297
g34
(imyEvolve
Tree
p298
(dp299
g34
(imyEvolve
Tree
p300
(dp301
g7
I0
sg17
F-0.39488759683475827
sg18
I01
sbsg7
I1
sg22
I01
sg23
g97
sbsg7
I2
sg22
I01
sg23
g39
sbsg22
I00
sg23
g57
sbsg19
(imyEvolve
Tree
p302
(dp303
g34
(imyEvolve
Tree
p304
(dp305
g34
(imyEvolve
Tree
p306
(dp307
g34
(imyEvolve
Tree
p308
(dp309
g7
I0
sg17
F3.408130051743699
sg18
I01
sbsg7
I1
sg22
I01
sg23
g86
sbsg7
I2
sg22
I01
sg23
g39
sbsg7
I3
sg22
I01
sg23
g40
sbsg22
I00
sg23
g24
sbsg7
I5
sg22
I01
sg23
g39
sba(imyEvolve
Tree
p310
(dp311
g34
(imyEvolve
Tree
p312
(dp313
g7
I2
sg8
(imyEvolve
Tree
p314
(dp315
g34
(imyEvolve
Tree
p316
(dp317
g7
I0
sg17
F0.8659343149483885
sg18
I01
sbsg7
I1
sg22
I01
sg23
g86
sbsg19
(imyEvolve
Tree
p318
(dp319
g7
I1
sg8
(imyEvolve
Tree
p320
(dp321
g7
I0
sg17
F3.2603419454708025
sg18
I01
sbsg19
(imyEvolve
Tree
p322
(dp323
g7
I0
sg17
F3.9252688814236194
sg18
I01
sbsg22
I00
sg23
g24
sbsg22
I00
sg23
g24
sbsg7
I3
sg22
I01
sg23
g39
sba(imyEvolve
Tree
p324
(dp325
g34
(imyEvolve
Tree
p326
(dp327
g8
(imyEvolve
Tree
p328
(dp329
g34
(imyEvolve
Tree
p330
(dp331
g8
(imyEvolve
Tree
p332
(dp333
g7
I0
sg18
I00
sbsg7
I1
sg19
(imyEvolve
Tree
p334
(dp335
g7
I0
sg17
F-0.5314247984387972
sg18
I01
sbsg22
I00
sg23
g57
sbsg7
I2
sg22
I01
sg23
g97
sbsg7
I3
sg19
(imyEvolve
Tree
p336
(dp337
g8
(imyEvolve
Tree
p338
(dp339
g34
(imyEvolve
Tree
p340
(dp341
g7
I0
sg18
I00
sbsg7
I1
sg22
I01
sg23
g97
sbsg7
I2
sg19
(imyEvolve
Tree
p342
(dp343
g8
(imyEvolve
Tree
p344
(dp345
g7
I0
sg18
I00
sbsg7
I1
sg19
(imyEvolve
Tree
p346
(dp347
g7
I0
sg17
F0.5559625963953287
sg18
I01
sbsg22
I00
sg23
g24
sbsg22
I00
sg23
g24
sbsg22
I00
sg23
g24
sbsg7
I4
sg22
I01
sg23
g39
sba(imyEvolve
Tree
p348
(dp349
g34
(imyEvolve
Tree
p350
(dp351
g8
(imyEvolve
Tree
p352
(dp353
g8
(imyEvolve
Tree
p354
(dp355
g8
(imyEvolve
Tree
p356
(dp357
g34
(imyEvolve
Tree
p358
(dp359
g7
I0
sg18
I00
sbsg7
I1
sg22
I01
sg23
g39
sbsg7
I2
sg19
(imyEvolve
Tree
p360
(dp361
g8
(imyEvolve
Tree
p362
(dp363
g7
I0
sg17
F-1.1901953220798367
sg18
I01
sbsg7
I1
sg19
(imyEvolve
Tree
p364
(dp365
g7
I0
sg17
F1.027404319484849
sg18
I01
sbsg22
I00
sg23
g31
sbsg22
I00
sg23
g24
sbsg7
I3
sg19
(imyEvolve
Tree
p366
(dp367
g34
(imyEvolve
Tree
p368
(dp369
g8
(imyEvolve
Tree
p370
(dp371
g7
I0
sg18
I00
sbsg7
I1
sg19
(imyEvolve
Tree
p372
(dp373
g7
I0
sg18
I00
sbsg22
I00
sg23
g57
sbsg7
I2
sg22
I01
sg23
g97
sbsg22
I00
sg23
g57
sbsg7
I4
sg19
(imyEvolve
Tree
p374
(dp375
g8
(imyEvolve
Tree
p376
(dp377
g34
(imyEvolve
Tree
p378
(dp379
g8
(imyEvolve
Tree
p380
(dp381
g7
I0
sg18
I00
sbsg7
I1
sg19
(imyEvolve
Tree
p382
(dp383
g7
I0
sg18
I00
sbsg22
I00
sg23
g31
sbsg7
I2
sg22
I01
sg23
g86
sbsg7
I3
sg19
(imyEvolve
Tree
p384
(dp385
g34
(imyEvolve
Tree
p386
(dp387
g8
(imyEvolve
Tree
p388
(dp389
g7
I0
sg17
F2.601119799462481
sg18
I01
sbsg7
I1
sg19
(imyEvolve
Tree
p390
(dp391
g7
I0
sg17
F-2.100405307628667
sg18
I01
sbsg22
I00
sg23
g31
sbsg7
I2
sg22
I01
sg23
g40
sbsg22
I00
sg23
g24
sbsg22
I00
sg23
g24
sbsg7
I5
sg22
I01
sg23
g97
sba(imyEvolve
Tree
p392
(dp393
g8
(imyEvolve
Tree
p394
(dp395
g8
(imyEvolve
Tree
p396
(dp397
g7
I0
sg18
I00
sbsg7
I1
sg19
(imyEvolve
Tree
p398
(dp399
g7
I0
sg17
F0.5652147425077692
sg18
I01
sbsg22
I00
sg23
g57
sbsg7
I2
sg19
(imyEvolve
Tree
p400
(dp401
g8
(imyEvolve
Tree
p402
(dp403
g7
I0
sg18
I00
sbsg7
I1
sg19
(imyEvolve
Tree
p404
(dp405
g7
I0
sg18
I00
sbsg22
I00
sg23
g24
sbsg22
I00
sg23
g57
sba(imyEvolve
Tree
p406
(dp407
g7
I5
sg8
(imyEvolve
Tree
p408
(dp409
g34
(imyEvolve
Tree
p410
(dp411
g7
I3
sg8
(imyEvolve
Tree
p412
(dp413
g7
I2
sg8
(imyEvolve
Tree
p414
(dp415
g7
I1
sg8
(imyEvolve
Tree
p416
(dp417
g7
I0
sg17
F3.7468130904424335
sg18
I01
sbsg19
(imyEvolve
Tree
p418
(dp419
g7
I0
sg17
F0.08987774750277744
sg18
I01
sbsg22
I00
sg23
g57
sbsg19
(imyEvolve
Tree
p420
(dp421
g7
I1
sg8
(imyEvolve
Tree
p422
(dp423
g7
I0
sg17
F-3.03952495679657
sg18
I01
sbsg19
(imyEvolve
Tree
p424
(dp425
g7
I0
sg18
I00
sbsg22
I00
sg23
g24
sbsg22
I00
sg23
g24
sbsg19
(imyEvolve
Tree
p426
(dp427
g7
I2
sg8
(imyEvolve
Tree
p428
(dp429
g7
I1
sg8
(imyEvolve
Tree
p430
(dp431
g7
I0
sg18
I00
sbsg19
(imyEvolve
Tree
p432
(dp433
g7
I0
sg18
I00
sbsg22
I00
sg23
g31
sbsg19
(imyEvolve
Tree
p434
(dp435
g7
I1
sg8
(imyEvolve
Tree
p436
(dp437
g7
I0
sg18
I00
sbsg19
(imyEvolve
Tree
p438
(dp439
g7
I0
sg18
I00
sbsg22
I00
sg23
g31
sbsg22
I00
sg23
g57
sbsg22
I00
sg23
g57
sbsg7
I4
sg22
I01
sg23
g39
sbsg19
(imyEvolve
Tree
p440
(dp441
g34
(imyEvolve
Tree
p442
(dp443
g34
(imyEvolve
Tree
p444
(dp445
g34
(imyEvolve
Tree
p446
(dp447
g34
(imyEvolve
Tree
p448
(dp449
g7
I0
sg18
I00
sbsg7
I1
sg22
I01
sg23
g39
sbsg7
I2
sg22
I01
sg23
g86
sbsg7
I3
sg22
I01
sg23
g39
sbsg7
I4
sg22
I01
sg23
g39
sbsg22
I00
sg23
g24
sba(imyEvolve
Tree
p450
(dp451
g34
(imyEvolve
Tree
p452
(dp453
g7
I3
sg8
(imyEvolve
Tree
p454
(dp455
g34
(imyEvolve
Tree
p456
(dp457
g34
(imyEvolve
Tree
p458
(dp459
g7
I0
sg17
F1.3364819299918098
sg18
I01
sbsg7
I1
sg22
I01
sg23
g40
sbsg7
I2
sg22
I01
sg23
g39
sbsg19
(imyEvolve
Tree
p460
(dp461
g7
I2
sg8
(imyEvolve
Tree
p462
(dp463
g34
(imyEvolve
Tree
p464
(dp465
g7
I0
sg18
I00
sbsg7
I1
sg22
I01
sg23
g39
sbsg19
(imyEvolve
Tree
p466
(dp467
g7
I1
sg8
(imyEvolve
Tree
p468
(dp469
g7
I0
sg18
I00
sbsg19
(imyEvolve
Tree
p470
(dp471
g7
I0
sg17
F-4.101628034124443
sg18
I01
sbsg22
I00
sg23
g24
sbsg22
I00
sg23
g31
sbsg22
I00
sg23
g31
sbsg7
I4
sg22
I01
sg23
g86
sbaa(lp472
(imyEvolve
Tree
p473
(dp474
g34
(imyEvolve
Tree
p475
(dp476
g8
(imyEvolve
Tree
p477
(dp478
g8
(imyEvolve
Tree
p479
(dp480
g7
I0
sg18
I00
sbsg7
I1
sg19
(imyEvolve
Tree
p481
(dp482
g7
I0
sg18
I00
sbsg22
I00
sg23
g24
sbsg7
I2
sg19
(imyEvolve
Tree
p483
(dp484
g34
(imyEvolve
Tree
p485
(dp486
g7
I0
sg17
F-4.789349525133587
sg18
I01
sbsg7
I1
sg22
I01
sg23
g97
sbsg22
I00
sg23
g24
sbsg7
I3
sg22
I01
sg23
g39
sba(imyEvolve
Tree
p487
(dp488
g8
(imyEvolve
Tree
p489
(dp490
g34
(imyEvolve
Tree
p491
(dp492
g7
I0
sg17
F-0.5147510905500576
sg18
I01
sbsg7
I1
sg22
I01
sg23
g97
sbsg7
I2
sg19
(imyEvolve
Tree
p493
(dp494
g34
(imyEvolve
Tree
p495
(dp496
g7
I0
sg17
F-2.6558443641875726
sg18
I01
sbsg7
I1
sg22
I01
sg23
g40
sbsg22
I00
sg23
g57
sba(imyEvolve
Tree
p497
(dp498
g8
(imyEvolve
Tree
p499
(dp500
g8
(imyEvolve
Tree
p501
(dp502
g8
(imyEvolve
Tree
p503
(dp504
g7
I0
sg18
I00
sbsg7
I1
sg19
(imyEvolve
Tree
p505
(dp506
g7
I0
sg18
I00
sbsg22
I00
sg23
g24
sbsg7
I2
sg19
(imyEvolve
Tree
p507
(dp508
g8
(imyEvolve
Tree
p509
(dp510
g7
I0
sg18
I00
sbsg7
I1
sg19
(imyEvolve
Tree
p511
(dp512
g7
I0
sg17
F-3.7822111859558016
sg18
I01
sbsg22
I00
sg23
g31
sbsg22
I00
sg23
g24
sbsg7
I3
sg19
(imyEvolve
Tree
p513
(dp514
g34
(imyEvolve
Tree
p515
(dp516
g34
(imyEvolve
Tree
p517
(dp518
g7
I0
sg18
I00
sbsg7
I1
sg22
I01
sg23
g40
sbsg7
I2
sg22
I01
sg23
g97
sbsg22
I00
sg23
g24
sba(imyEvolve
Tree
p519
(dp520
g34
(imyEvolve
Tree
p521
(dp522
g34
(imyEvolve
Tree
p523
(dp524
g7
I0
sg17
F-1.7372898852877352
sg18
I01
sbsg7
I1
sg22
I01
sg23
g40
sbsg7
I2
sg22
I01
sg23
g39
sba(imyEvolve
Tree
p525
(dp526
g8
(imyEvolve
Tree
p527
(dp528
g8
(imyEvolve
Tree
p529
(dp530
g34
(imyEvolve
Tree
p531
(dp532
g8
(imyEvolve
Tree
p533
(dp534
g7
I0
sg17
F0.9565475334497258
sg18
I01
sbsg7
I1
sg19
(imyEvolve
Tree
p535
(dp536
g7
I0
sg18
I00
sbsg22
I00
sg23
g24
sbsg7
I2
sg22
I01
sg23
g86
sbsg7
I3
sg19
(imyEvolve
Tree
p537
(dp538
g8
(imyEvolve
Tree
p539
(dp540
g34
(imyEvolve
Tree
p541
(dp542
g7
I0
sg17
F-3.5581440243680884
sg18
I01
sbsg7
I1
sg22
I01
sg23
g86
sbsg7
I2
sg19
(imyEvolve
Tree
p543
(dp544
g34
(imyEvolve
Tree
p545
(dp546
g7
I0
sg18
I00
sbsg7
I1
sg22
I01
sg23
g86
sbsg22
I00
sg23
g57
sbsg22
I00
sg23
g31
sbsg7
I4
sg19
(imyEvolve
Tree
p547
(dp548
g8
(imyEvolve
Tree
p549
(dp550
g8
(imyEvolve
Tree
p551
(dp552
g8
(imyEvolve
Tree
p553
(dp554
g7
I0
sg18
I00
sbsg7
I1
sg19
(imyEvolve
Tree
p555
(dp556
g7
I0
sg18
I00
sbsg22
I00
sg23
g57
sbsg7
I2
sg19
(imyEvolve
Tree
p557
(dp558
g8
(imyEvolve
Tree
p559
(dp560
g7
I0
sg18
I00
sbsg7
I1
sg19
(imyEvolve
Tree
p561
(dp562
g7
I0
sg17
F3.3090298155275004
sg18
I01
sbsg22
I00
sg23
g57
sbsg22
I00
sg23
g57
sbsg7
I3
sg19
(imyEvolve
Tree
p563
(dp564
g8
(imyEvolve
Tree
p565
(dp566
g8
(imyEvolve
Tree
p567
(dp568
g7
I0
sg17
F4.309123646843206
sg18
I01
sbsg7
I1
sg19
(imyEvolve
Tree
p569
(dp570
g7
I0
sg18
I00
sbsg22
I00
sg23
g57
sbsg7
I2
sg19
(imyEvolve
Tree
p571
(dp572
g8
(imyEvolve
Tree
p573
(dp574
g7
I0
sg18
I00
sbsg7
I1
sg19
(imyEvolve
Tree
p575
(dp576
g7
I0
sg17
F3.235093321267369
sg18
I01
sbsg22
I00
sg23
g57
sbsg22
I00
sg23
g57
sbsg22
I00
sg23
g57
sbsg22
I00
sg23
g31
sba(imyEvolve
Tree
p577
(dp578
g8
(imyEvolve
Tree
p579
(dp580
g34
(imyEvolve
Tree
p581
(dp582
g34
(imyEvolve
Tree
p583
(dp584
g7
I0
sg17
F4.661295087852402
sg18
I01
sbsg7
I1
sg22
I01
sg23
g97
sbsg7
I2
sg22
I01
sg23
g40
sbsg7
I3
sg19
(imyEvolve
Tree
p585
(dp586
g34
(imyEvolve
Tree
p587
(dp588
g34
(imyEvolve
Tree
p589
(dp590
g7
I0
sg18
I00
sbsg7
I1
sg22
I01
sg23
g97
sbsg7
I2
sg22
I01
sg23
g39
sbsg22
I00
sg23
g24
sba(imyEvolve
Tree
p591
(dp592
g34
(imyEvolve
Tree
p593
(dp594
g34
(imyEvolve
Tree
p595
(dp596
g7
I3
sg8
(imyEvolve
Tree
p597
(dp598
g7
I2
sg8
(imyEvolve
Tree
p599
(dp600
g34
(imyEvolve
Tree
p601
(dp602
g7
I0
sg17
F3.20368962261397
sg18
I01
sbsg7
I1
sg22
I01
sg23
g39
sbsg19
(imyEvolve
Tree
p603
(dp604
g7
I1
sg8
(imyEvolve
Tree
p605
(dp606
g7
I0
sg17
F1.8630139526514453
sg18
I01
sbsg19
(imyEvolve
Tree
p607
(dp608
g7
I0
sg17
F-0.6438875147527137
sg18
I01
sbsg22
I00
sg23
g57
sbsg22
I00
sg23
g57
sbsg19
(imyEvolve
Tree
p609
(dp610
g7
I2
sg8
(imyEvolve
Tree
p611
(dp612
g34
(imyEvolve
Tree
p613
(dp614
g7
I0
sg18
I00
sbsg7
I1
sg22
I01
sg23
g40
sbsg19
(imyEvolve
Tree
p615
(dp616
g34
(imyEvolve
Tree
p617
(dp618
g7
I0
sg17
F-4.7245410441870215
sg18
I01
sbsg7
I1
sg22
I01
sg23
g97
sbsg22
I00
sg23
g31
sbsg22
I00
sg23
g57
sbsg7
I4
sg22
I01
sg23
g39
sbsg7
I5
sg22
I01
sg23
g39
sba(imyEvolve
Tree
p619
(dp620
g7
I5
sg8
(imyEvolve
Tree
p621
(dp622
g34
(imyEvolve
Tree
p623
(dp624
g7
I3
sg8
(imyEvolve
Tree
p625
(dp626
g7
I2
sg8
(imyEvolve
Tree
p627
(dp628
g34
(imyEvolve
Tree
p629
(dp630
g7
I0
sg17
F0.18985375004978522
sg18
I01
sbsg7
I1
sg22
I01
sg23
g40
sbsg19
(imyEvolve
Tree
p631
(dp632
g7
I1
sg8
(imyEvolve
Tree
p633
(dp634
g7
I0
sg18
I00
sbsg19
(imyEvolve
Tree
p635
(dp636
g7
I0
sg18
I00
sbsg22
I00
sg23
g24
sbsg22
I00
sg23
g24
sbsg19
(imyEvolve
Tree
p637
(dp638
g7
I2
sg8
(imyEvolve
Tree
p639
(dp640
g7
I1
sg8
(imyEvolve
Tree
p641
(dp642
g7
I0
sg18
I00
sbsg19
(imyEvolve
Tree
p643
(dp644
g7
I0
sg17
F4.120606866107622
sg18
I01
sbsg22
I00
sg23
g57
sbsg19
(imyEvolve
Tree
p645
(dp646
g7
I1
sg8
(imyEvolve
Tree
p647
(dp648
g7
I0
sg18
I00
sbsg19
(imyEvolve
Tree
p649
(dp650
g7
I0
sg18
I00
sbsg22
I00
sg23
g57
sbsg22
I00
sg23
g24
sbsg22
I00
sg23
g57
sbsg7
I4
sg22
I01
sg23
g97
sbsg19
(imyEvolve
Tree
p651
(dp652
g7
I4
sg8
(imyEvolve
Tree
p653
(dp654
g34
(imyEvolve
Tree
p655
(dp656
g7
I2
sg8
(imyEvolve
Tree
p657
(dp658
g7
I1
sg8
(imyEvolve
Tree
p659
(dp660
g7
I0
sg17
F2.3557617001397624
sg18
I01
sbsg19
(imyEvolve
Tree
p661
(dp662
g7
I0
sg17
F4.2291604482390355
sg18
I01
sbsg22
I00
sg23
g57
sbsg19
(imyEvolve
Tree
p663
(dp664
g7
I1
sg8
(imyEvolve
Tree
p665
(dp666
g7
I0
sg18
I00
sbsg19
(imyEvolve
Tree
p667
(dp668
g7
I0
sg17
F1.402797294457847
sg18
I01
sbsg22
I00
sg23
g31
sbsg22
I00
sg23
g57
sbsg7
I3
sg22
I01
sg23
g40
sbsg19
(imyEvolve
Tree
p669
(dp670
g34
(imyEvolve
Tree
p671
(dp672
g7
I2
sg8
(imyEvolve
Tree
p673
(dp674
g34
(imyEvolve
Tree
p675
(dp676
g7
I0
sg18
I00
sbsg7
I1
sg22
I01
sg23
g39
sbsg19
(imyEvolve
Tree
p677
(dp678
g34
(imyEvolve
Tree
p679
(dp680
g7
I0
sg18
I00
sbsg7
I1
sg22
I01
sg23
g40
sbsg22
I00
sg23
g57
sbsg7
I3
sg22
I01
sg23
g39
sbsg22
I00
sg23
g24
sbsg22
I00
sg23
g31
sba(imyEvolve
Tree
p681
(dp682
g34
(imyEvolve
Tree
p683
(dp684
g8
(imyEvolve
Tree
p685
(dp686
g34
(imyEvolve
Tree
p687
(dp688
g8
(imyEvolve
Tree
p689
(dp690
g7
I0
sg17
F2.0404039120947477
sg18
I01
sbsg7
I1
sg19
(imyEvolve
Tree
p691
(dp692
g7
I0
sg18
I00
sbsg22
I00
sg23
g57
sbsg7
I2
sg22
I01
sg23
g97
sbsg7
I3
sg19
(imyEvolve
Tree
p693
(dp694
g34
(imyEvolve
Tree
p695
(dp696
g8
(imyEvolve
Tree
p697
(dp698
g7
I0
sg18
I00
sbsg7
I1
sg19
(imyEvolve
Tree
p699
(dp700
g7
I0
sg18
I00
sbsg22
I00
sg23
g31
sbsg7
I2
sg22
I01
sg23
g39
sbsg22
I00
sg23
g57
sbsg7
I4
sg22
I01
sg23
g97
sba(imyEvolve
Tree
p701
(dp702
g34
(imyEvolve
Tree
p703
(dp704
g8
(imyEvolve
Tree
p705
(dp706
g8
(imyEvolve
Tree
p707
(dp708
g7
I0
sg18
I00
sbsg7
I1
sg19
(imyEvolve
Tree
p709
(dp710
g7
I0
sg18
I00
sbsg22
I00
sg23
g31
sbsg7
I2
sg19
(imyEvolve
Tree
p711
(dp712
g8
(imyEvolve
Tree
p713
(dp714
g7
I0
sg17
F2.857663730263978
sg18
I01
sbsg7
I1
sg19
(imyEvolve
Tree
p715
(dp716
g7
I0
sg18
I00
sbsg22
I00
sg23
g57
sbsg22
I00
sg23
g31
sbsg7
I3
sg22
I01
sg23
g39
sba(imyEvolve
Tree
p717
(dp718
g34
(imyEvolve
Tree
p719
(dp720
g7
I1
sg8
(imyEvolve
Tree
p721
(dp722
g7
I0
sg17
F3.961195490183222
sg18
I01
sbsg19
(imyEvolve
Tree
p723
(dp724
g7
I0
sg17
F-0.6238312008461842
sg18
I01
sbsg22
I00
sg23
g24
sbsg7
I2
sg22
I01
sg23
g39
sba(imyEvolve
Tree
p725
(dp726
g34
(imyEvolve
Tree
p727
(dp728
g7
I1
sg8
(imyEvolve
Tree
p729
(dp730
g7
I0
sg17
F-0.4467329195144103
sg18
I01
sbsg19
(imyEvolve
Tree
p731
(dp732
g7
I0
sg18
I00
sbsg22
I00
sg23
g24
sbsg7
I2
sg22
I01
sg23
g86
sba(imyEvolve
Tree
p733
(dp734
g34
(imyEvolve
Tree
p735
(dp736
g7
I4
sg8
(imyEvolve
Tree
p737
(dp738
g7
I3
sg8
(imyEvolve
Tree
p739
(dp740
g34
(imyEvolve
Tree
p741
(dp742
g7
I1
sg8
(imyEvolve
Tree
p743
(dp744
g7
I0
sg17
F3.6024922050106305
sg18
I01
sbsg19
(imyEvolve
Tree
p745
(dp746
g7
I0
sg17
F3.488973375568408
sg18
I01
sbsg22
I00
sg23
g31
sbsg7
I2
sg22
I01
sg23
g40
sbsg19
(imyEvolve
Tree
p747
(dp748
g34
(imyEvolve
Tree
p749
(dp750
g7
I1
sg8
(imyEvolve
Tree
p751
(dp752
g7
I0
sg17
F-2.077046113620966
sg18
I01
sbsg19
(imyEvolve
Tree
p753
(dp754
g7
I0
sg18
I00
sbsg22
I00
sg23
g31
sbsg7
I2
sg22
I01
sg23
g40
sbsg22
I00
sg23
g24
sbsg19
(imyEvolve
Tree
p755
(dp756
g34
(imyEvolve
Tree
p757
(dp758
g34
(imyEvolve
Tree
p759
(dp760
g7
I1
sg8
(imyEvolve
Tree
p761
(dp762
g7
I0
sg17
F-4.450978807252268
sg18
I01
sbsg19
(imyEvolve
Tree
p763
(dp764
g7
I0
sg18
I00
sbsg22
I00
sg23
g31
sbsg7
I2
sg22
I01
sg23
g39
sbsg7
I3
sg22
I01
sg23
g40
sbsg22
I00
sg23
g24
sbsg7
I5
sg22
I01
sg23
g40
sba(imyEvolve
Tree
p765
(dp766
g34
(imyEvolve
Tree
p767
(dp768
g34
(imyEvolve
Tree
p769
(dp770
g34
(imyEvolve
Tree
p771
(dp772
g8
(imyEvolve
Tree
p773
(dp774
g34
(imyEvolve
Tree
p775
(dp776
g7
I0
sg18
I00
sbsg7
I1
sg22
I01
sg23
g86
sbsg7
I2
sg19
(imyEvolve
Tree
p777
(dp778
g8
(imyEvolve
Tree
p779
(dp780
g7
I0
sg17
F1.3068629937859395
sg18
I01
sbsg7
I1
sg19
(imyEvolve
Tree
p781
(dp782
g7
I0
sg17
F-3.5286024351034015
sg18
I01
sbsg22
I00
sg23
g57
sbsg22
I00
sg23
g24
sbsg7
I3
sg22
I01
sg23
g40
sbsg7
I4
sg22
I01
sg23
g40
sbsg7
I5
sg22
I01
sg23
g86
sbaa(lp783
(imyEvolve
Tree
p784
(dp785
g8
(imyEvolve
Tree
p786
(dp787
g34
(imyEvolve
Tree
p788
(dp789
g34
(imyEvolve
Tree
p790
(dp791
g7
I0
sg17
F3.4041483525916654
sg18
I01
sbsg7
I1
sg22
I01
sg23
g97
sbsg7
I2
sg22
I01
sg23
g39
sbsg7
I3
sg19
(imyEvolve
Tree
p792
(dp793
g8
(imyEvolve
Tree
p794
(dp795
g34
(imyEvolve
Tree
p796
(dp797
g7
I0
sg17
F1.0582084590386263
sg18
I01
sbsg7
I1
sg22
I01
sg23
g40
sbsg7
I2
sg19
(imyEvolve
Tree
p798
(dp799
g8
(imyEvolve
Tree
p800
(dp801
g7
I0
sg17
F0.5845241663559708
sg18
I01
sbsg7
I1
sg19
(imyEvolve
Tree
p802
(dp803
g7
I0
sg17
F1.384185825850385
sg18
I01
sbsg22
I00
sg23
g24
sbsg22
I00
sg23
g31
sbsg22
I00
sg23
g31
sba(imyEvolve
Tree
p804
(dp805
g8
(imyEvolve
Tree
p806
(dp807
g34
(imyEvolve
Tree
p808
(dp809
g34
(imyEvolve
Tree
p810
(dp811
g8
(imyEvolve
Tree
p812
(dp813
g8
(imyEvolve
Tree
p814
(dp815
g7
I0
sg17
F-1.0219906376127117
sg18
I01
sbsg7
I1
sg19
(imyEvolve
Tree
p816
(dp817
g7
I0
sg17
F-0.29420054214707303
sg18
I01
sbsg22
I00
sg23
g24
sbsg7
I2
sg19
(imyEvolve
Tree
p818
(dp819
g8
(imyEvolve
Tree
p820
(dp821
g7
I0
sg18
I00
sbsg7
I1
sg19
(imyEvolve
Tree
p822
(dp823
g7
I0
sg17
F-4.4933270520412405
sg18
I01
sbsg22
I00
sg23
g24
sbsg22
I00
sg23
g24
sbsg7
I3
sg22
I01
sg23
g86
sbsg7
I4
sg22
I01
sg23
g39
sbsg7
I5
sg19
(imyEvolve
Tree
p824
(dp825
g8
(imyEvolve
Tree
p826
(dp827
g8
(imyEvolve
Tree
p828
(dp829
g8
(imyEvolve
Tree
p830
(dp831
g34
(imyEvolve
Tree
p832
(dp833
g7
I0
sg18
I00
sbsg7
I1
sg22
I01
sg23
g39
sbsg7
I2
sg19
(imyEvolve
Tree
p834
(dp835
g8
(imyEvolve
Tree
p836
(dp837
g7
I0
sg18
I00
sbsg7
I1
sg19
(imyEvolve
Tree
p838
(dp839
g7
I0
sg18
I00
sbsg22
I00
sg23
g24
sbsg22
I00
sg23
g31
sbsg7
I3
sg19
(imyEvolve
Tree
p840
(dp841
g8
(imyEvolve
Tree
p842
(dp843
g34
(imyEvolve
Tree
p844
(dp845
g7
I0
sg17
F-3.4194969181621007
sg18
I01
sbsg7
I1
sg22
I01
sg23
g40
sbsg7
I2
sg19
(imyEvolve
Tree
p846
(dp847
g34
(imyEvolve
Tree
p848
(dp849
g7
I0
sg18
I00
sbsg7
I1
sg22
I01
sg23
g39
sbsg22
I00
sg23
g24
sbsg22
I00
sg23
g24
sbsg7
I4
sg19
(imyEvolve
Tree
p850
(dp851
g8
(imyEvolve
Tree
p852
(dp853
g8
(imyEvolve
Tree
p854
(dp855
g34
(imyEvolve
Tree
p856
(dp857
g7
I0
sg17
F-1.673442536430556
sg18
I01
sbsg7
I1
sg22
I01
sg23
g86
sbsg7
I2
sg19
(imyEvolve
Tree
p858
(dp859
g34
(imyEvolve
Tree
p860
(dp861
g7
I0
sg17
F2.230397015063824
sg18
I01
sbsg7
I1
sg22
I01
sg23
g97
sbsg22
I00
sg23
g24
sbsg7
I3
sg19
(imyEvolve
Tree
p862
(dp863
g8
(imyEvolve
Tree
p864
(dp865
g8
(imyEvolve
Tree
p866
(dp867
g7
I0
sg18
I00
sbsg7
I1
sg19
(imyEvolve
Tree
p868
(dp869
g7
I0
sg17
F-2.5835363400552938
sg18
I01
sbsg22
I00
sg23
g31
sbsg7
I2
sg19
(imyEvolve
Tree
p870
(dp871
g34
(imyEvolve
Tree
p872
(dp873
g7
I0
sg18
I00
sbsg7
I1
sg22
I01
sg23
g40
sbsg22
I00
sg23
g31
sbsg22
I00
sg23
g57
sbsg22
I00
sg23
g24
sbsg22
I00
sg23
g57
sba(imyEvolve
Tree
p874
(dp875
g34
(imyEvolve
Tree
p876
(dp877
g34
(imyEvolve
Tree
p878
(dp879
g7
I0
sg18
I00
sbsg7
I1
sg22
I01
sg23
g40
sbsg7
I2
sg22
I01
sg23
g39
sba(imyEvolve
Tree
p880
(dp881
g34
(imyEvolve
Tree
p882
(dp883
g34
(imyEvolve
Tree
p884
(dp885
g34
(imyEvolve
Tree
p886
(dp887
g8
(imyEvolve
Tree
p888
(dp889
g8
(imyEvolve
Tree
p890
(dp891
g7
I0
sg18
I00
sbsg7
I1
sg19
(imyEvolve
Tree
p892
(dp893
g7
I0
sg18
I00
sbsg22
I00
sg23
g57
sbsg7
I2
sg19
(imyEvolve
Tree
p894
(dp895
g8
(imyEvolve
Tree
p896
(dp897
g7
I0
sg17
F-1.9945142511667493
sg18
I01
sbsg7
I1
sg19
(imyEvolve
Tree
p898
(dp899
g7
I0
sg18
I00
sbsg22
I00
sg23
g24
sbsg22
I00
sg23
g24
sbsg7
I3
sg22
I01
sg23
g40
sbsg7
I4
sg22
I01
sg23
g86
sbsg7
I5
sg22
I01
sg23
g39
sba(imyEvolve
Tree
p900
(dp901
g34
(imyEvolve
Tree
p902
(dp903
g8
(imyEvolve
Tree
p904
(dp905
g8
(imyEvolve
Tree
p906
(dp907
g7
I0
sg18
I00
sbsg7
I1
sg19
(imyEvolve
Tree
p908
(dp909
g7
I0
sg17
F0.6545080116686695
sg18
I01
sbsg22
I00
sg23
g24
sbsg7
I2
sg19
(imyEvolve
Tree
p910
(dp911
g8
(imyEvolve
Tree
p912
(dp913
g7
I0
sg18
I00
sbsg7
I1
sg19
(imyEvolve
Tree
p914
(dp915
g7
I0
sg17
F4.200686742985859
sg18
I01
sbsg22
I00
sg23
g24
sbsg22
I00
sg23
g24
sbsg7
I3
sg22
I01
sg23
g40
sba(imyEvolve
Tree
p916
(dp917
g8
(imyEvolve
Tree
p918
(dp919
g8
(imyEvolve
Tree
p920
(dp921
g7
I0
sg18
I00
sbsg7
I1
sg19
(imyEvolve
Tree
p922
(dp923
g7
I0
sg18
I00
sbsg22
I00
sg23
g31
sbsg7
I2
sg19
(imyEvolve
Tree
p924
(dp925
g34
(imyEvolve
Tree
p926
(dp927
g7
I0
sg17
F2.684125273075879
sg18
I01
sbsg7
I1
sg22
I01
sg23
g40
sbsg22
I00
sg23
g57
sba(imyEvolve
Tree
p928
(dp929
g34
(imyEvolve
Tree
p930
(dp931
g8
(imyEvolve
Tree
p932
(dp933
g34
(imyEvolve
Tree
p934
(dp935
g7
I0
sg18
I00
sbsg7
I1
sg22
I01
sg23
g40
sbsg7
I2
sg19
(imyEvolve
Tree
p936
(dp937
g34
(imyEvolve
Tree
p938
(dp939
g7
I0
sg17
F3.9102557848664006
sg18
I01
sbsg7
I1
sg22
I01
sg23
g39
sbsg22
I00
sg23
g57
sbsg7
I3
sg22
I01
sg23
g40
sba(imyEvolve
Tree
p940
(dp941
g34
(imyEvolve
Tree
p942
(dp943
g34
(imyEvolve
Tree
p944
(dp945
g8
(imyEvolve
Tree
p946
(dp947
g7
I0
sg17
F-3.040320738481358
sg18
I01
sbsg7
I1
sg19
(imyEvolve
Tree
p948
(dp949
g7
I0
sg18
I00
sbsg22
I00
sg23
g24
sbsg7
I2
sg22
I01
sg23
g97
sbsg7
I3
sg22
I01
sg23
g40
sba(imyEvolve
Tree
p950
(dp951
g34
(imyEvolve
Tree
p952
(dp953
g34
(imyEvolve
Tree
p954
(dp955
g34
(imyEvolve
Tree
p956
(dp957
g8
(imyEvolve
Tree
p958
(dp959
g8
(imyEvolve
Tree
p960
(dp961
g7
I0
sg18
I00
sbsg7
I1
sg19
(imyEvolve
Tree
p962
(dp963
g7
I0
sg17
F-4.894506938823971
sg18
I01
sbsg22
I00
sg23
g31
sbsg7
I2
sg19
(imyEvolve
Tree
p964
(dp965
g34
(imyEvolve
Tree
p966
(dp967
g7
I0
sg17
F0.5733957513113186
sg18
I01
sbsg7
I1
sg22
I01
sg23
g86
sbsg22
I00
sg23
g31
sbsg7
I3
sg22
I01
sg23
g97
sbsg7
I4
sg22
I01
sg23
g39
sbsg7
I5
sg22
I01
sg23
g86
sba(imyEvolve
Tree
p968
(dp969
g34
(imyEvolve
Tree
p970
(dp971
g34
(imyEvolve
Tree
p972
(dp973
g7
I2
sg8
(imyEvolve
Tree
p974
(dp975
g34
(imyEvolve
Tree
p976
(dp977
g7
I0
sg17
F4.107376078103904
sg18
I01
sbsg7
I1
sg22
I01
sg23
g86
sbsg19
(imyEvolve
Tree
p978
(dp979
g7
I1
sg8
(imyEvolve
Tree
p980
(dp981
g7
I0
sg18
I00
sbsg19
(imyEvolve
Tree
p982
(dp983
g7
I0
sg18
I00
sbsg22
I00
sg23
g31
sbsg22
I00
sg23
g57
sbsg7
I3
sg22
I01
sg23
g40
sbsg7
I4
sg22
I01
sg23
g40
sba(imyEvolve
Tree
p984
(dp985
g34
(imyEvolve
Tree
p986
(dp987
g34
(imyEvolve
Tree
p988
(dp989
g7
I0
sg17
F4.6116743833301115
sg18
I01
sbsg7
I1
sg22
I01
sg23
g40
sbsg7
I2
sg22
I01
sg23
g86
sba(imyEvolve
Tree
p990
(dp991
g8
(imyEvolve
Tree
p992
(dp993
g8
(imyEvolve
Tree
p994
(dp995
g34
(imyEvolve
Tree
p996
(dp997
g7
I0
sg18
I00
sbsg7
I1
sg22
I01
sg23
g39
sbsg7
I2
sg19
(imyEvolve
Tree
p998
(dp999
g8
(imyEvolve
Tree
p1000
(dp1001
g7
I0
sg17
F0.6979622571137023
sg18
I01
sbsg7
I1
sg19
(imyEvolve
Tree
p1002
(dp1003
g7
I0
sg18
I00
sbsg22
I00
sg23
g57
sbsg22
I00
sg23
g57
sbsg7
I3
sg19
(imyEvolve
Tree
p1004
(dp1005
g8
(imyEvolve
Tree
p1006
(dp1007
g8
(imyEvolve
Tree
p1008
(dp1009
g7
I0
sg17
F-0.5350305079944961
sg18
I01
sbsg7
I1
sg19
(imyEvolve
Tree
p1010
(dp1011
g7
I0
sg18
I00
sbsg22
I00
sg23
g31
sbsg7
I2
sg19
(imyEvolve
Tree
p1012
(dp1013
g8
(imyEvolve
Tree
p1014
(dp1015
g7
I0
sg17
F-2.414883800739206
sg18
I01
sbsg7
I1
sg19
(imyEvolve
Tree
p1016
(dp1017
g7
I0
sg17
F4.975841378138821
sg18
I01
sbsg22
I00
sg23
g31
sbsg22
I00
sg23
g57
sbsg22
I00
sg23
g57
sbaa(lp1018
(imyEvolve
Tree
p1019
(dp1020
g8
(imyEvolve
Tree
p1021
(dp1022
g8
(imyEvolve
Tree
p1023
(dp1024
g34
(imyEvolve
Tree
p1025
(dp1026
g7
I0
sg17
F3.5054068188841594
sg18
I01
sbsg7
I1
sg22
I01
sg23
g40
sbsg7
I2
sg19
(imyEvolve
Tree
p1027
(dp1028
g8
(imyEvolve
Tree
p1029
(dp1030
g7
I0
sg17
F0.6262576309711054
sg18
I01
sbsg7
I1
sg19
(imyEvolve
Tree
p1031
(dp1032
g7
I0
sg18
I00
sbsg22
I00
sg23
g24
sbsg22
I00
sg23
g31
sbsg7
I3
sg19
(imyEvolve
Tree
p1033
(dp1034
g34
(imyEvolve
Tree
p1035
(dp1036
g34
(imyEvolve
Tree
p1037
(dp1038
g7
I0
sg18
I00
sbsg7
I1
sg22
I01
sg23
g40
sbsg7
I2
sg22
I01
sg23
g86
sbsg22
I00
sg23
g31
sba(imyEvolve
Tree
p1039
(dp1040
g8
(imyEvolve
Tree
p1041
(dp1042
g34
(imyEvolve
Tree
p1043
(dp1044
g34
(imyEvolve
Tree
p1045
(dp1046
g7
I0
sg17
F-2.6986055737969283
sg18
I01
sbsg7
I1
sg22
I01
sg23
g40
sbsg7
I2
sg22
I01
sg23
g39
sbsg7
I3
sg19
(imyEvolve
Tree
p1047
(dp1048
g8
(imyEvolve
Tree
p1049
(dp1050
g8
(imyEvolve
Tree
p1051
(dp1052
g7
I0
sg17
F-1.377881429574912
sg18
I01
sbsg7
I1
sg19
(imyEvolve
Tree
p1053
(dp1054
g7
I0
sg18
I00
sbsg22
I00
sg23
g57
sbsg7
I2
sg19
(imyEvolve
Tree
p1055
(dp1056
g34
(imyEvolve
Tree
p1057
(dp1058
g7
I0
sg18
I00
sbsg7
I1
sg22
I01
sg23
g39
sbsg22
I00
sg23
g24
sbsg22
I00
sg23
g24
sba(imyEvolve
Tree
p1059
(dp1060
g34
(imyEvolve
Tree
p1061
(dp1062
g8
(imyEvolve
Tree
p1063
(dp1064
g7
I0
sg17
F4.332415184797643
sg18
I01
sbsg7
I1
sg19
(imyEvolve
Tree
p1065
(dp1066
g7
I0
sg18
I00
sbsg22
I00
sg23
g57
sbsg7
I2
sg22
I01
sg23
g97
sba(imyEvolve
Tree
p1067
(dp1068
g34
(imyEvolve
Tree
p1069
(dp1070
g34
(imyEvolve
Tree
p1071
(dp1072
g8
(imyEvolve
Tree
p1073
(dp1074
g8
(imyEvolve
Tree
p1075
(dp1076
g7
I0
sg17
F4.498315017216047
sg18
I01
sbsg7
I1
sg19
(imyEvolve
Tree
p1077
(dp1078
g7
I0
sg17
F3.092511277952939
sg18
I01
sbsg22
I00
sg23
g57
sbsg7
I2
sg19
(imyEvolve
Tree
p1079
(dp1080
g34
(imyEvolve
Tree
p1081
(dp1082
g7
I0
sg17
F-2.376263332875989
sg18
I01
sbsg7
I1
sg22
I01
sg23
g86
sbsg22
I00
sg23
g31
sbsg7
I3
sg22
I01
sg23
g39
sbsg7
I4
sg22
I01
sg23
g39
sba(imyEvolve
Tree
p1083
(dp1084
g34
(imyEvolve
Tree
p1085
(dp1086
g8
(imyEvolve
Tree
p1087
(dp1088
g8
(imyEvolve
Tree
p1089
(dp1090
g7
I0
sg17
F4.074345342256093
sg18
I01
sbsg7
I1
sg19
(imyEvolve
Tree
p1091
(dp1092
g7
I0
sg17
F-0.6861801366770184
sg18
I01
sbsg22
I00
sg23
g24
sbsg7
I2
sg19
(imyEvolve
Tree
p1093
(dp1094
g34
(imyEvolve
Tree
p1095
(dp1096
g7
I0
sg18
I00
sbsg7
I1
sg22
I01
sg23
g97
sbsg22
I00
sg23
g31
sbsg7
I3
sg22
I01
sg23
g86
sba(imyEvolve
Tree
p1097
(dp1098
g8
(imyEvolve
Tree
p1099
(dp1100
g8
(imyEvolve
Tree
p1101
(dp1102
g8
(imyEvolve
Tree
p1103
(dp1104
g34
(imyEvolve
Tree
p1105
(dp1106
g34
(imyEvolve
Tree
p1107
(dp1108
g7
I0
sg18
I00
sbsg7
I1
sg22
I01
sg23
g97
sbsg7
I2
sg22
I01
sg23
g40
sbsg7
I3
sg19
(imyEvolve
Tree
p1109
(dp1110
g34
(imyEvolve
Tree
p1111
(dp1112
g8
(imyEvolve
Tree
p1113
(dp1114
g7
I0
sg18
I00
sbsg7
I1
sg19
(imyEvolve
Tree
p1115
(dp1116
g7
I0
sg18
I00
sbsg22
I00
sg23
g31
sbsg7
I2
sg22
I01
sg23
g39
sbsg22
I00
sg23
g57
sbsg7
I4
sg19
(imyEvolve
Tree
p1117
(dp1118
g8
(imyEvolve
Tree
p1119
(dp1120
g8
(imyEvolve
Tree
p1121
(dp1122
g8
(imyEvolve
Tree
p1123
(dp1124
g7
I0
sg18
I00
sbsg7
I1
sg19
(imyEvolve
Tree
p1125
(dp1126
g7
I0
sg17
F2.6586616501568594
sg18
I01
sbsg22
I00
sg23
g31
sbsg7
I2
sg19
(imyEvolve
Tree
p1127
(dp1128
g8
(imyEvolve
Tree
p1129
(dp1130
g7
I0
sg18
I00
sbsg7
I1
sg19
(imyEvolve
Tree
p1131
(dp1132
g7
I0
sg18
I00
sbsg22
I00
sg23
g31
sbsg22
I00
sg23
g57
sbsg7
I3
sg19
(imyEvolve
Tree
p1133
(dp1134
g34
(imyEvolve
Tree
p1135
(dp1136
g8
(imyEvolve
Tree
p1137
(dp1138
g7
I0
sg17
F-3.01115895555872
sg18
I01
sbsg7
I1
sg19
(imyEvolve
Tree
p1139
(dp1140
g7
I0
sg17
F-4.459676237411595
sg18
I01
sbsg22
I00
sg23
g57
sbsg7
I2
sg22
I01
sg23
g40
sbsg22
I00
sg23
g31
sbsg22
I00
sg23
g57
sbsg7
I5
sg19
(imyEvolve
Tree
p1141
(dp1142
g8
(imyEvolve
Tree
p1143
(dp1144
g8
(imyEvolve
Tree
p1145
(dp1146
g34
(imyEvolve
Tree
p1147
(dp1148
g34
(imyEvolve
Tree
p1149
(dp1150
g7
I0
sg17
F2.3202691221587006
sg18
I01
sbsg7
I1
sg22
I01
sg23
g39
sbsg7
I2
sg22
I01
sg23
g97
sbsg7
I3
sg19
(imyEvolve
Tree
p1151
(dp1152
g8
(imyEvolve
Tree
p1153
(dp1154
g8
(imyEvolve
Tree
p1155
(dp1156
g7
I0
sg17
F3.7685427123499267
sg18
I01
sbsg7
I1
sg19
(imyEvolve
Tree
p1157
(dp1158
g7
I0
sg18
I00
sbsg22
I00
sg23
g57
sbsg7
I2
sg19
(imyEvolve
Tree
p1159
(dp1160
g8
(imyEvolve
Tree
p1161
(dp1162
g7
I0
sg17
F0.19825187232827535
sg18
I01
sbsg7
I1
sg19
(imyEvolve
Tree
p1163
(dp1164
g7
I0
sg18
I00
sbsg22
I00
sg23
g24
sbsg22
I00
sg23
g31
sbsg22
I00
sg23
g24
sbsg7
I4
sg19
(imyEvolve
Tree
p1165
(dp1166
g8
(imyEvolve
Tree
p1167
(dp1168
g34
(imyEvolve
Tree
p1169
(dp1170
g8
(imyEvolve
Tree
p1171
(dp1172
g7
I0
sg17
F-3.5392911466354935
sg18
I01
sbsg7
I1
sg19
(imyEvolve
Tree
p1173
(dp1174
g7
I0
sg18
I00
sbsg22
I00
sg23
g57
sbsg7
I2
sg22
I01
sg23
g39
sbsg7
I3
sg19
(imyEvolve
Tree
p1175
(dp1176
g8
(imyEvolve
Tree
p1177
(dp1178
g8
(imyEvolve
Tree
p1179
(dp1180
g7
I0
sg17
F-4.308028690453016
sg18
I01
sbsg7
I1
sg19
(imyEvolve
Tree
p1181
(dp1182
g7
I0
sg18
I00
sbsg22
I00
sg23
g31
sbsg7
I2
sg19
(imyEvolve
Tree
p1183
(dp1184
g34
(imyEvolve
Tree
p1185
(dp1186
g7
I0
sg17
F-1.2210852721992724
sg18
I01
sbsg7
I1
sg22
I01
sg23
g97
sbsg22
I00
sg23
g24
sbsg22
I00
sg23
g24
sbsg22
I00
sg23
g31
sbsg22
I00
sg23
g31
sba(imyEvolve
Tree
p1187
(dp1188
g34
(imyEvolve
Tree
p1189
(dp1190
g34
(imyEvolve
Tree
p1191
(dp1192
g34
(imyEvolve
Tree
p1193
(dp1194
g7
I0
sg17
F-4.868184332348475
sg18
I01
sbsg7
I1
sg22
I01
sg23
g39
sbsg7
I2
sg22
I01
sg23
g39
sbsg7
I3
sg22
I01
sg23
g40
sba(imyEvolve
Tree
p1195
(dp1196
g34
(imyEvolve
Tree
p1197
(dp1198
g34
(imyEvolve
Tree
p1199
(dp1200
g34
(imyEvolve
Tree
p1201
(dp1202
g34
(imyEvolve
Tree
p1203
(dp1204
g34
(imyEvolve
Tree
p1205
(dp1206
g7
I0
sg17
F-2.5712273494561035
sg18
I01
sbsg7
I1
sg22
I01
sg23
g86
sbsg7
I2
sg22
I01
sg23
g86
sbsg7
I3
sg22
I01
sg23
g40
sbsg7
I4
sg22
I01
sg23
g39
sbsg7
I5
sg22
I01
sg23
g39
sba(imyEvolve
Tree
p1207
(dp1208
g34
(imyEvolve
Tree
p1209
(dp1210
g8
(imyEvolve
Tree
p1211
(dp1212
g7
I0
sg18
I00
sbsg7
I1
sg19
(imyEvolve
Tree
p1213
(dp1214
g7
I0
sg18
I00
sbsg22
I00
sg23
g57
sbsg7
I2
sg22
I01
sg23
g97
sba(imyEvolve
Tree
p1215
(dp1216
g34
(imyEvolve
Tree
p1217
(dp1218
g34
(imyEvolve
Tree
p1219
(dp1220
g34
(imyEvolve
Tree
p1221
(dp1222
g8
(imyEvolve
Tree
p1223
(dp1224
g7
I0
sg18
I00
sbsg7
I1
sg19
(imyEvolve
Tree
p1225
(dp1226
g7
I0
sg18
I00
sbsg22
I00
sg23
g24
sbsg7
I2
sg22
I01
sg23
g40
sbsg7
I3
sg22
I01
sg23
g39
sbsg7
I4
sg22
I01
sg23
g86
sba(imyEvolve
Tree
p1227
(dp1228
g34
(imyEvolve
Tree
p1229
(dp1230
g7
I1
sg8
(imyEvolve
Tree
p1231
(dp1232
g7
I0
sg17
F-2.3850902055803913
sg18
I01
sbsg19
(imyEvolve
Tree
p1233
(dp1234
g7
I0
sg17
F-1.0402304645236593
sg18
I01
sbsg22
I00
sg23
g57
sbsg7
I2
sg22
I01
sg23
g40
sba(imyEvolve
Tree
p1235
(dp1236
g7
I3
sg8
(imyEvolve
Tree
p1237
(dp1238
g7
I2
sg8
(imyEvolve
Tree
p1239
(dp1240
g34
(imyEvolve
Tree
p1241
(dp1242
g7
I0
sg18
I00
sbsg7
I1
sg22
I01
sg23
g97
sbsg19
(imyEvolve
Tree
p1243
(dp1244
g7
I1
sg8
(imyEvolve
Tree
p1245
(dp1246
g7
I0
sg17
F-2.7475980795168087
sg18
I01
sbsg19
(imyEvolve
Tree
p1247
(dp1248
g7
I0
sg18
I00
sbsg22
I00
sg23
g24
sbsg22
I00
sg23
g24
sbsg19
(imyEvolve
Tree
p1249
(dp1250
g7
I2
sg8
(imyEvolve
Tree
p1251
(dp1252
g34
(imyEvolve
Tree
p1253
(dp1254
g7
I0
sg17
F2.866582540675452
sg18
I01
sbsg7
I1
sg22
I01
sg23
g97
sbsg19
(imyEvolve
Tree
p1255
(dp1256
g34
(imyEvolve
Tree
p1257
(dp1258
g7
I0
sg18
I00
sbsg7
I1
sg22
I01
sg23
g39
sbsg22
I00
sg23
g57
sbsg22
I00
sg23
g31
sba(imyEvolve
Tree
p1259
(dp1260
g8
(imyEvolve
Tree
p1261
(dp1262
g34
(imyEvolve
Tree
p1263
(dp1264
g8
(imyEvolve
Tree
p1265
(dp1266
g34
(imyEvolve
Tree
p1267
(dp1268
g7
I0
sg18
I00
sbsg7
I1
sg22
I01
sg23
g40
sbsg7
I2
sg19
(imyEvolve
Tree
p1269
(dp1270
g34
(imyEvolve
Tree
p1271
(dp1272
g7
I0
sg17
F-3.717151736803894
sg18
I01
sbsg7
I1
sg22
I01
sg23
g40
sbsg22
I00
sg23
g57
sbsg7
I3
sg22
I01
sg23
g97
sbsg7
I4
sg19
(imyEvolve
Tree
p1273
(dp1274
g34
(imyEvolve
Tree
p1275
(dp1276
g8
(imyEvolve
Tree
p1277
(dp1278
g8
(imyEvolve
Tree
p1279
(dp1280
g7
I0
sg18
I00
sbsg7
I1
sg19
(imyEvolve
Tree
p1281
(dp1282
g7
I0
sg18
I00
sbsg22
I00
sg23
g57
sbsg7
I2
sg19
(imyEvolve
Tree
p1283
(dp1284
g34
(imyEvolve
Tree
p1285
(dp1286
g7
I0
sg18
I00
sbsg7
I1
sg22
I01
sg23
g97
sbsg22
I00
sg23
g24
sbsg7
I3
sg22
I01
sg23
g86
sbsg22
I00
sg23
g24
sba(imyEvolve
Tree
p1287
(dp1288
g34
(imyEvolve
Tree
p1289
(dp1290
g34
(imyEvolve
Tree
p1291
(dp1292
g7
I0
sg17
F-2.3102449011677595
sg18
I01
sbsg7
I1
sg22
I01
sg23
g86
sbsg7
I2
sg22
I01
sg23
g86
sba(imyEvolve
Tree
p1293
(dp1294
g34
(imyEvolve
Tree
p1295
(dp1296
g8
(imyEvolve
Tree
p1297
(dp1298
g34
(imyEvolve
Tree
p1299
(dp1300
g34
(imyEvolve
Tree
p1301
(dp1302
g7
I0
sg18
I00
sbsg7
I1
sg22
I01
sg23
g86
sbsg7
I2
sg22
I01
sg23
g40
sbsg7
I3
sg19
(imyEvolve
Tree
p1303
(dp1304
g8
(imyEvolve
Tree
p1305
(dp1306
g34
(imyEvolve
Tree
p1307
(dp1308
g7
I0
sg18
I00
sbsg7
I1
sg22
I01
sg23
g39
sbsg7
I2
sg19
(imyEvolve
Tree
p1309
(dp1310
g34
(imyEvolve
Tree
p1311
(dp1312
g7
I0
sg17
F0.8760424691493345
sg18
I01
sbsg7
I1
sg22
I01
sg23
g39
sbsg22
I00
sg23
g57
sbsg22
I00
sg23
g57
sbsg7
I4
sg22
I01
sg23
g97
sba(imyEvolve
Tree
p1313
(dp1314
g34
(imyEvolve
Tree
p1315
(dp1316
g34
(imyEvolve
Tree
p1317
(dp1318
g7
I0
sg18
I00
sbsg7
I1
sg22
I01
sg23
g97
sbsg7
I2
sg22
I01
sg23
g86
sbaa(lp1319
(imyEvolve
Tree
p1320
(dp1321
g34
(imyEvolve
Tree
p1322
(dp1323
g34
(imyEvolve
Tree
p1324
(dp1325
g34
(imyEvolve
Tree
p1326
(dp1327
g34
(imyEvolve
Tree
p1328
(dp1329
g8
(imyEvolve
Tree
p1330
(dp1331
g7
I0
sg18
I00
sbsg7
I1
sg19
(imyEvolve
Tree
p1332
(dp1333
g7
I0
sg18
I00
sbsg22
I00
sg23
g31
sbsg7
I2
sg22
I01
sg23
g39
sbsg7
I3
sg22
I01
sg23
g86
sbsg7
I4
sg22
I01
sg23
g40
sbsg7
I5
sg22
I01
sg23
g40
sba(imyEvolve
Tree
p1334
(dp1335
g34
(imyEvolve
Tree
p1336
(dp1337
g8
(imyEvolve
Tree
p1338
(dp1339
g7
I0
sg17
F2.0010459025902128
sg18
I01
sbsg7
I1
sg19
(imyEvolve
Tree
p1340
(dp1341
g7
I0
sg18
I00
sbsg22
I00
sg23
g31
sbsg7
I2
sg22
I01
sg23
g40
sba(imyEvolve
Tree
p1342
(dp1343
g8
(imyEvolve
Tree
p1344
(dp1345
g34
(imyEvolve
Tree
p1346
(dp1347
g34
(imyEvolve
Tree
p1348
(dp1349
g34
(imyEvolve
Tree
p1350
(dp1351
g34
(imyEvolve
Tree
p1352
(dp1353
g7
I0
sg17
F-2.0535236785655284
sg18
I01
sbsg7
I1
sg22
I01
sg23
g86
sbsg7
I2
sg22
I01
sg23
g39
sbsg7
I3
sg22
I01
sg23
g97
sbsg7
I4
sg22
I01
sg23
g39
sbsg7
I5
sg19
(imyEvolve
Tree
p1354
(dp1355
g8
(imyEvolve
Tree
p1356
(dp1357
g34
(imyEvolve
Tree
p1358
(dp1359
g8
(imyEvolve
Tree
p1360
(dp1361
g34
(imyEvolve
Tree
p1362
(dp1363
g7
I0
sg18
I00
sbsg7
I1
sg22
I01
sg23
g39
sbsg7
I2
sg19
(imyEvolve
Tree
p1364
(dp1365
g34
(imyEvolve
Tree
p1366
(dp1367
g7
I0
sg18
I00
sbsg7
I1
sg22
I01
sg23
g39
sbsg22
I00
sg23
g57
sbsg7
I3
sg22
I01
sg23
g97
sbsg7
I4
sg19
(imyEvolve
Tree
p1368
(dp1369
g8
(imyEvolve
Tree
p1370
(dp1371
g34
(imyEvolve
Tree
p1372
(dp1373
g8
(imyEvolve
Tree
p1374
(dp1375
g7
I0
sg17
F3.2778553545503204
sg18
I01
sbsg7
I1
sg19
(imyEvolve
Tree
p1376
(dp1377
g7
I0
sg17
F1.3259549856298323
sg18
I01
sbsg22
I00
sg23
g31
sbsg7
I2
sg22
I01
sg23
g40
sbsg7
I3
sg19
(imyEvolve
Tree
p1378
(dp1379
g34
(imyEvolve
Tree
p1380
(dp1381
g8
(imyEvolve
Tree
p1382
(dp1383
g7
I0
sg17
F0.7166694701182603
sg18
I01
sbsg7
I1
sg19
(imyEvolve
Tree
p1384
(dp1385
g7
I0
sg18
I00
sbsg22
I00
sg23
g31
sbsg7
I2
sg22
I01
sg23
g86
sbsg22
I00
sg23
g24
sbsg22
I00
sg23
g31
sbsg22
I00
sg23
g24
sba(imyEvolve
Tree
p1386
(dp1387
g8
(imyEvolve
Tree
p1388
(dp1389
g8
(imyEvolve
Tree
p1390
(dp1391
g8
(imyEvolve
Tree
p1392
(dp1393
g8
(imyEvolve
Tree
p1394
(dp1395
g7
I0
sg18
I00
sbsg7
I1
sg19
(imyEvolve
Tree
p1396
(dp1397
g7
I0
sg17
F2.5668564158758143
sg18
I01
sbsg22
I00
sg23
g31
sbsg7
I2
sg19
(imyEvolve
Tree
p1398
(dp1399
g8
(imyEvolve
Tree
p1400
(dp1401
g7
I0
sg17
F3.4232980728301516
sg18
I01
sbsg7
I1
sg19
(imyEvolve
Tree
p1402
(dp1403
g7
I0
sg17
F-4.760597559671432
sg18
I01
sbsg22
I00
sg23
g24
sbsg22
I00
sg23
g57
sbsg7
I3
sg19
(imyEvolve
Tree
p1404
(dp1405
g34
(imyEvolve
Tree
p1406
(dp1407
g8
(imyEvolve
Tree
p1408
(dp1409
g7
I0
sg18
I00
sbsg7
I1
sg19
(imyEvolve
Tree
p1410
(dp1411
g7
I0
sg17
F4.866482724498072
sg18
I01
sbsg22
I00
sg23
g31
sbsg7
I2
sg22
I01
sg23
g40
sbsg22
I00
sg23
g24
sbsg7
I4
sg19
(imyEvolve
Tree
p1412
(dp1413
g8
(imyEvolve
Tree
p1414
(dp1415
g34
(imyEvolve
Tree
p1416
(dp1417
g34
(imyEvolve
Tree
p1418
(dp1419
g7
I0
sg18
I00
sbsg7
I1
sg22
I01
sg23
g97
sbsg7
I2
sg22
I01
sg23
g97
sbsg7
I3
sg19
(imyEvolve
Tree
p1420
(dp1421
g34
(imyEvolve
Tree
p1422
(dp1423
g34
(imyEvolve
Tree
p1424
(dp1425
g7
I0
sg18
I00
sbsg7
I1
sg22
I01
sg23
g86
sbsg7
I2
sg22
I01
sg23
g86
sbsg22
I00
sg23
g24
sbsg22
I00
sg23
g57
sba(imyEvolve
Tree
p1426
(dp1427
g8
(imyEvolve
Tree
p1428
(dp1429
g34
(imyEvolve
Tree
p1430
(dp1431
g34
(imyEvolve
Tree
p1432
(dp1433
g7
I0
sg18
I00
sbsg7
I1
sg22
I01
sg23
g39
sbsg7
I2
sg22
I01
sg23
g86
sbsg7
I3
sg19
(imyEvolve
Tree
p1434
(dp1435
g34
(imyEvolve
Tree
p1436
(dp1437
g34
(imyEvolve
Tree
p1438
(dp1439
g7
I0
sg18
I00
sbsg7
I1
sg22
I01
sg23
g97
sbsg7
I2
sg22
I01
sg23
g40
sbsg22
I00
sg23
g57
sba(imyEvolve
Tree
p1440
(dp1441
g7
I4
sg8
(imyEvolve
Tree
p1442
(dp1443
g34
(imyEvolve
Tree
p1444
(dp1445
g7
I2
sg8
(imyEvolve
Tree
p1446
(dp1447
g34
(imyEvolve
Tree
p1448
(dp1449
g7
I0
sg17
F-2.1427098521244012
sg18
I01
sbsg7
I1
sg22
I01
sg23
g40
sbsg19
(imyEvolve
Tree
p1450
(dp1451
g7
I1
sg8
(imyEvolve
Tree
p1452
(dp1453
g7
I0
sg17
F-0.15061327437171013
sg18
I01
sbsg19
(imyEvolve
Tree
p1454
(dp1455
g7
I0
sg18
I00
sbsg22
I00
sg23
g57
sbsg22
I00
sg23
g57
sbsg7
I3
sg22
I01
sg23
g97
sbsg19
(imyEvolve
Tree
p1456
(dp1457
g7
I3
sg8
(imyEvolve
Tree
p1458
(dp1459
g34
(imyEvolve
Tree
p1460
(dp1461
g7
I1
sg8
(imyEvolve
Tree
p1462
(dp1463
g7
I0
sg18
I00
sbsg19
(imyEvolve
Tree
p1464
(dp1465
g7
I0
sg17
F-0.03991104456616412
sg18
I01
sbsg22
I00
sg23
g57
sbsg7
I2
sg22
I01
sg23
g40
sbsg19
(imyEvolve
Tree
p1466
(dp1467
g7
I2
sg8
(imyEvolve
Tree
p1468
(dp1469
g34
(imyEvolve
Tree
p1470
(dp1471
g7
I0
sg17
F-4.970790090559699
sg18
I01
sbsg7
I1
sg22
I01
sg23
g86
sbsg19
(imyEvolve
Tree
p1472
(dp1473
g34
(imyEvolve
Tree
p1474
(dp1475
g7
I0
sg18
I00
sbsg7
I1
sg22
I01
sg23
g97
sbsg22
I00
sg23
g24
sbsg22
I00
sg23
g24
sbsg22
I00
sg23
g24
sba(imyEvolve
Tree
p1476
(dp1477
g8
(imyEvolve
Tree
p1478
(dp1479
g34
(imyEvolve
Tree
p1480
(dp1481
g34
(imyEvolve
Tree
p1482
(dp1483
g7
I0
sg17
F0.12951811867115737
sg18
I01
sbsg7
I1
sg22
I01
sg23
g40
sbsg7
I2
sg22
I01
sg23
g40
sbsg7
I3
sg19
(imyEvolve
Tree
p1484
(dp1485
g34
(imyEvolve
Tree
p1486
(dp1487
g34
(imyEvolve
Tree
p1488
(dp1489
g7
I0
sg18
I00
sbsg7
I1
sg22
I01
sg23
g97
sbsg7
I2
sg22
I01
sg23
g39
sbsg22
I00
sg23
g57
sba(imyEvolve
Tree
p1490
(dp1491
g8
(imyEvolve
Tree
p1492
(dp1493
g8
(imyEvolve
Tree
p1494
(dp1495
g34
(imyEvolve
Tree
p1496
(dp1497
g7
I0
sg17
F1.4352506779642846
sg18
I01
sbsg7
I1
sg22
I01
sg23
g39
sbsg7
I2
sg19
(imyEvolve
Tree
p1498
(dp1499
g8
(imyEvolve
Tree
p1500
(dp1501
g7
I0
sg18
I00
sbsg7
I1
sg19
(imyEvolve
Tree
p1502
(dp1503
g7
I0
sg17
F-1.931143725366037
sg18
I01
sbsg22
I00
sg23
g24
sbsg22
I00
sg23
g31
sbsg7
I3
sg19
(imyEvolve
Tree
p1504
(dp1505
g34
(imyEvolve
Tree
p1506
(dp1507
g34
(imyEvolve
Tree
p1508
(dp1509
g7
I0
sg18
I00
sbsg7
I1
sg22
I01
sg23
g40
sbsg7
I2
sg22
I01
sg23
g97
sbsg22
I00
sg23
g24
sba(imyEvolve
Tree
p1510
(dp1511
g8
(imyEvolve
Tree
p1512
(dp1513
g34
(imyEvolve
Tree
p1514
(dp1515
g8
(imyEvolve
Tree
p1516
(dp1517
g8
(imyEvolve
Tree
p1518
(dp1519
g8
(imyEvolve
Tree
p1520
(dp1521
g7
I0
sg17
F1.4116389407382615
sg18
I01
sbsg7
I1
sg19
(imyEvolve
Tree
p1522
(dp1523
g7
I0
sg18
I00
sbsg22
I00
sg23
g31
sbsg7
I2
sg19
(imyEvolve
Tree
p1524
(dp1525
g8
(imyEvolve
Tree
p1526
(dp1527
g7
I0
sg17
F-1.0873645725111656
sg18
I01
sbsg7
I1
sg19
(imyEvolve
Tree
p1528
(dp1529
g7
I0
sg17
F3.04871460478285
sg18
I01
sbsg22
I00
sg23
g24
sbsg22
I00
sg23
g31
sbsg7
I3
sg19
(imyEvolve
Tree
p1530
(dp1531
g34
(imyEvolve
Tree
p1532
(dp1533
g34
(imyEvolve
Tree
p1534
(dp1535
g7
I0
sg18
I00
sbsg7
I1
sg22
I01
sg23
g39
sbsg7
I2
sg22
I01
sg23
g97
sbsg22
I00
sg23
g57
sbsg7
I4
sg22
I01
sg23
g39
sbsg7
I5
sg19
(imyEvolve
Tree
p1536
(dp1537
g8
(imyEvolve
Tree
p1538
(dp1539
g34
(imyEvolve
Tree
p1540
(dp1541
g34
(imyEvolve
Tree
p1542
(dp1543
g8
(imyEvolve
Tree
p1544
(dp1545
g7
I0
sg17
F-1.4086109620731415
sg18
I01
sbsg7
I1
sg19
(imyEvolve
Tree
p1546
(dp1547
g7
I0
sg18
I00
sbsg22
I00
sg23
g24
sbsg7
I2
sg22
I01
sg23
g40
sbsg7
I3
sg22
I01
sg23
g97
sbsg7
I4
sg19
(imyEvolve
Tree
p1548
(dp1549
g34
(imyEvolve
Tree
p1550
(dp1551
g34
(imyEvolve
Tree
p1552
(dp1553
g8
(imyEvolve
Tree
p1554
(dp1555
g7
I0
sg17
F-1.1104984481577382
sg18
I01
sbsg7
I1
sg19
(imyEvolve
Tree
p1556
(dp1557
g7
I0
sg17
F-2.0689089456161436
sg18
I01
sbsg22
I00
sg23
g57
sbsg7
I2
sg22
I01
sg23
g39
sbsg7
I3
sg22
I01
sg23
g86
sbsg22
I00
sg23
g57
sbsg22
I00
sg23
g24
sba(imyEvolve
Tree
p1558
(dp1559
g8
(imyEvolve
Tree
p1560
(dp1561
g34
(imyEvolve
Tree
p1562
(dp1563
g34
(imyEvolve
Tree
p1564
(dp1565
g8
(imyEvolve
Tree
p1566
(dp1567
g8
(imyEvolve
Tree
p1568
(dp1569
g7
I0
sg18
I00
sbsg7
I1
sg19
(imyEvolve
Tree
p1570
(dp1571
g7
I0
sg17
F-3.527276896939975
sg18
I01
sbsg22
I00
sg23
g57
sbsg7
I2
sg19
(imyEvolve
Tree
p1572
(dp1573
g8
(imyEvolve
Tree
p1574
(dp1575
g7
I0
sg17
F-0.9328692905495632
sg18
I01
sbsg7
I1
sg19
(imyEvolve
Tree
p1576
(dp1577
g7
I0
sg17
F-4.172451690390131
sg18
I01
sbsg22
I00
sg23
g31
sbsg22
I00
sg23
g31
sbsg7
I3
sg22
I01
sg23
g39
sbsg7
I4
sg22
I01
sg23
g40
sbsg7
I5
sg19
(imyEvolve
Tree
p1578
(dp1579
g34
(imyEvolve
Tree
p1580
(dp1581
g8
(imyEvolve
Tree
p1582
(dp1583
g34
(imyEvolve
Tree
p1584
(dp1585
g8
(imyEvolve
Tree
p1586
(dp1587
g7
I0
sg18
I00
sbsg7
I1
sg19
(imyEvolve
Tree
p1588
(dp1589
g7
I0
sg17
F1.0685724340679101
sg18
I01
sbsg22
I00
sg23
g24
sbsg7
I2
sg22
I01
sg23
g97
sbsg7
I3
sg19
(imyEvolve
Tree
p1590
(dp1591
g8
(imyEvolve
Tree
p1592
(dp1593
g34
(imyEvolve
Tree
p1594
(dp1595
g7
I0
sg17
F1.8844263729819888
sg18
I01
sbsg7
I1
sg22
I01
sg23
g97
sbsg7
I2
sg19
(imyEvolve
Tree
p1596
(dp1597
g8
(imyEvolve
Tree
p1598
(dp1599
g7
I0
sg18
I00
sbsg7
I1
sg19
(imyEvolve
Tree
p1600
(dp1601
g7
I0
sg17
F-1.983303008879914
sg18
I01
sbsg22
I00
sg23
g57
sbsg22
I00
sg23
g24
sbsg22
I00
sg23
g57
sbsg7
I4
sg22
I01
sg23
g39
sbsg22
I00
sg23
g57
sba(imyEvolve
Tree
p1602
(dp1603
g34
(imyEvolve
Tree
p1604
(dp1605
g34
(imyEvolve
Tree
p1606
(dp1607
g34
(imyEvolve
Tree
p1608
(dp1609
g7
I0
sg17
F4.170452359029376
sg18
I01
sbsg7
I1
sg22
I01
sg23
g86
sbsg7
I2
sg22
I01
sg23
g39
sbsg7
I3
sg22
I01
sg23
g97
sba(imyEvolve
Tree
p1610
(dp1611
g34
(imyEvolve
Tree
p1612
(dp1613
g34
(imyEvolve
Tree
p1614
(dp1615
g8
(imyEvolve
Tree
p1616
(dp1617
g7
I0
sg17
F-4.3586380433050245
sg18
I01
sbsg7
I1
sg19
(imyEvolve
Tree
p1618
(dp1619
g7
I0
sg17
F-2.6966810752846717
sg18
I01
sbsg22
I00
sg23
g31
sbsg7
I2
sg22
I01
sg23
g39
sbsg7
I3
sg22
I01
sg23
g97
sba(imyEvolve
Tree
p1620
(dp1621
g8
(imyEvolve
Tree
p1622
(dp1623
g34
(imyEvolve
Tree
p1624
(dp1625
g8
(imyEvolve
Tree
p1626
(dp1627
g34
(imyEvolve
Tree
p1628
(dp1629
g8
(imyEvolve
Tree
p1630
(dp1631
g7
I0
sg17
F2.0182598892802117
sg18
I01
sbsg7
I1
sg19
(imyEvolve
Tree
p1632
(dp1633
g7
I0
sg17
F-0.6815055302108419
sg18
I01
sbsg22
I00
sg23
g24
sbsg7
I2
sg22
I01
sg23
g39
sbsg7
I3
sg19
(imyEvolve
Tree
p1634
(dp1635
g8
(imyEvolve
Tree
p1636
(dp1637
g8
(imyEvolve
Tree
p1638
(dp1639
g7
I0
sg17
F0.987800766893292
sg18
I01
sbsg7
I1
sg19
(imyEvolve
Tree
p1640
(dp1641
g7
I0
sg18
I00
sbsg22
I00
sg23
g31
sbsg7
I2
sg19
(imyEvolve
Tree
p1642
(dp1643
g34
(imyEvolve
Tree
p1644
(dp1645
g7
I0
sg17
F-4.372264894270918
sg18
I01
sbsg7
I1
sg22
I01
sg23
g97
sbsg22
I00
sg23
g57
sbsg22
I00
sg23
g24
sbsg7
I4
sg22
I01
sg23
g97
sbsg7
I5
sg19
(imyEvolve
Tree
p1646
(dp1647
g8
(imyEvolve
Tree
p1648
(dp1649
g8
(imyEvolve
Tree
p1650
(dp1651
g34
(imyEvolve
Tree
p1652
(dp1653
g8
(imyEvolve
Tree
p1654
(dp1655
g7
I0
sg18
I00
sbsg7
I1
sg19
(imyEvolve
Tree
p1656
(dp1657
g7
I0
sg18
I00
sbsg22
I00
sg23
g31
sbsg7
I2
sg22
I01
sg23
g40
sbsg7
I3
sg19
(imyEvolve
Tree
p1658
(dp1659
g34
(imyEvolve
Tree
p1660
(dp1661
g34
(imyEvolve
Tree
p1662
(dp1663
g7
I0
sg17
F3.781626519726922
sg18
I01
sbsg7
I1
sg22
I01
sg23
g40
sbsg7
I2
sg22
I01
sg23
g86
sbsg22
I00
sg23
g57
sbsg7
I4
sg19
(imyEvolve
Tree
p1664
(dp1665
g34
(imyEvolve
Tree
p1666
(dp1667
g34
(imyEvolve
Tree
p1668
(dp1669
g8
(imyEvolve
Tree
p1670
(dp1671
g7
I0
sg18
I00
sbsg7
I1
sg19
(imyEvolve
Tree
p1672
(dp1673
g7
I0
sg18
I00
sbsg22
I00
sg23
g57
sbsg7
I2
sg22
I01
sg23
g97
sbsg7
I3
sg22
I01
sg23
g86
sbsg22
I00
sg23
g24
sbsg22
I00
sg23
g24
sba(imyEvolve
Tree
p1674
(dp1675
g34
(imyEvolve
Tree
p1676
(dp1677
g34
(imyEvolve
Tree
p1678
(dp1679
g8
(imyEvolve
Tree
p1680
(dp1681
g34
(imyEvolve
Tree
p1682
(dp1683
g34
(imyEvolve
Tree
p1684
(dp1685
g7
I0
sg17
F-3.450210854715503
sg18
I01
sbsg7
I1
sg22
I01
sg23
g97
sbsg7
I2
sg22
I01
sg23
g97
sbsg7
I3
sg19
(imyEvolve
Tree
p1686
(dp1687
g8
(imyEvolve
Tree
p1688
(dp1689
g8
(imyEvolve
Tree
p1690
(dp1691
g7
I0
sg18
I00
sbsg7
I1
sg19
(imyEvolve
Tree
p1692
(dp1693
g7
I0
sg18
I00
sbsg22
I00
sg23
g31
sbsg7
I2
sg19
(imyEvolve
Tree
p1694
(dp1695
g34
(imyEvolve
Tree
p1696
(dp1697
g7
I0
sg17
F-2.5893731070852697
sg18
I01
sbsg7
I1
sg22
I01
sg23
g86
sbsg22
I00
sg23
g31
sbsg22
I00
sg23
g31
sbsg7
I4
sg22
I01
sg23
g86
sbsg7
I5
sg22
I01
sg23
g97
sbaasS'alpha'
p1698
F0.007694606804776494
sS'fitness'
p1699
cnumpy.core.multiarray
scalar
p1700
(cnumpy
dtype
p1701
(S'f8'
p1702
I0
I1
tp1703
Rp1704
(I3
S'<'
p1705
NNNI-1
I-1
I0
tp1706
bS'\x80\xe3\xa5\x9b\x96f\x84\xbf'
p1707
tp1708
Rp1709
sS'weightSharing'
p1710
(lp1711
I00
aI00
asS'fitnessValid'
p1712
I00
sS'resolution'
p1713
I84
sb.