(imyEvolve
Individual
p0
(dp1
S'funcs'
p2
(lp3
(lp4
(imyEvolve
Tree
p5
(dp6
S'left'
p7
(imyEvolve
Tree
p8
(dp9
g7
(imyEvolve
Tree
p10
(dp11
S'below'
p12
(imyEvolve
Tree
p13
(dp14
g12
(imyEvolve
Tree
p15
(dp16
g7
(imyEvolve
Tree
p17
(dp18
S'depth'
p19
I0
sS'constant'
p20
F-0.820905403248271
sS'isConstant'
p21
I01
sbsg19
I1
sS'right'
p22
(imyEvolve
Tree
p23
(dp24
g19
I0
sg21
I00
sbsS'single'
p25
I00
sS'op'
p26
coperator
sub
p27
sbsg19
I2
sg25
I01
sg26
cmyEvolve
absSqrt
p28
sbsg19
I3
sg25
I01
sg26
cmath
cos
p29
sbsg19
I4
sg22
(imyEvolve
Tree
p30
(dp31
g12
(imyEvolve
Tree
p32
(dp33
g7
(imyEvolve
Tree
p34
(dp35
g12
(imyEvolve
Tree
p36
(dp37
g19
I0
sg20
F-2.4024472704446556
sg21
I01
sbsg19
I1
sg25
I01
sg26
cmyEvolve
square
p38
sbsg19
I2
sg22
(imyEvolve
Tree
p39
(dp40
g12
(imyEvolve
Tree
p41
(dp42
g19
I0
sg20
F-2.266019131571423
sg21
I01
sbsg19
I1
sg25
I01
sg26
cmath
sin
p43
sbsg25
I00
sg26
coperator
add
p44
sbsg19
I3
sg25
I01
sg26
g43
sbsg25
I00
sg26
g27
sbsg19
I5
sg22
(imyEvolve
Tree
p45
(dp46
g12
(imyEvolve
Tree
p47
(dp48
g7
(imyEvolve
Tree
p49
(dp50
g12
(imyEvolve
Tree
p51
(dp52
g7
(imyEvolve
Tree
p53
(dp54
g19
I0
sg21
I00
sbsg19
I1
sg22
(imyEvolve
Tree
p55
(dp56
g19
I0
sg20
F-4.478477798029309
sg21
I01
sbsg25
I00
sg26
coperator
mul
p57
sbsg19
I2
sg25
I01
sg26
g38
sbsg19
I3
sg22
(imyEvolve
Tree
p58
(dp59
g12
(imyEvolve
Tree
p60
(dp61
g7
(imyEvolve
Tree
p62
(dp63
g19
I0
sg20
F1.3568793180248306
sg21
I01
sbsg19
I1
sg22
(imyEvolve
Tree
p64
(dp65
g19
I0
sg20
F0.06625150833711224
sg21
I01
sbsg25
I00
sg26
g27
sbsg19
I2
sg25
I01
sg26
g43
sbsg25
I00
sg26
g27
sbsg19
I4
sg25
I01
sg26
g43
sbsg25
I00
sg26
g57
sba(imyEvolve
Tree
p66
(dp67
g7
(imyEvolve
Tree
p68
(dp69
g12
(imyEvolve
Tree
p70
(dp71
g7
(imyEvolve
Tree
p72
(dp73
g19
I0
sg20
F0.23403116206035524
sg21
I01
sbsg19
I1
sg22
(imyEvolve
Tree
p74
(dp75
g19
I0
sg21
I00
sbsg25
I00
sg26
g27
sbsg19
I2
sg25
I01
sg26
g38
sbsg19
I3
sg22
(imyEvolve
Tree
p76
(dp77
g7
(imyEvolve
Tree
p78
(dp79
g7
(imyEvolve
Tree
p80
(dp81
g19
I0
sg20
F3.5569515997570402
sg21
I01
sbsg19
I1
sg22
(imyEvolve
Tree
p82
(dp83
g19
I0
sg20
F2.219843764454441
sg21
I01
sbsg25
I00
sg26
g57
sbsg19
I2
sg22
(imyEvolve
Tree
p84
(dp85
g12
(imyEvolve
Tree
p86
(dp87
g19
I0
sg21
I00
sbsg19
I1
sg25
I01
sg26
g43
sbsg25
I00
sg26
g44
sbsg25
I00
sg26
g27
sba(imyEvolve
Tree
p88
(dp89
g7
(imyEvolve
Tree
p90
(dp91
g7
(imyEvolve
Tree
p92
(dp93
g19
I0
sg21
I00
sbsg19
I1
sg22
(imyEvolve
Tree
p94
(dp95
g19
I0
sg21
I00
sbsg25
I00
sg26
g27
sbsg19
I2
sg22
(imyEvolve
Tree
p96
(dp97
g7
(imyEvolve
Tree
p98
(dp99
g19
I0
sg21
I00
sbsg19
I1
sg22
(imyEvolve
Tree
p100
(dp101
g19
I0
sg20
F1.1997862212991812
sg21
I01
sbsg25
I00
sg26
g57
sbsg25
I00
sg26
g44
sba(imyEvolve
Tree
p102
(dp103
g12
(imyEvolve
Tree
p104
(dp105
g12
(imyEvolve
Tree
p106
(dp107
g19
I0
sg21
I00
sbsg19
I1
sg25
I01
sg26
g29
sbsg19
I2
sg25
I01
sg26
g28
sba(imyEvolve
Tree
p108
(dp109
g12
(imyEvolve
Tree
p110
(dp111
g12
(imyEvolve
Tree
p112
(dp113
g19
I0
sg21
I00
sbsg19
I1
sg25
I01
sg26
g28
sbsg19
I2
sg25
I01
sg26
g43
sba(imyEvolve
Tree
p114
(dp115
g7
(imyEvolve
Tree
p116
(dp117
g7
(imyEvolve
Tree
p118
(dp119
g12
(imyEvolve
Tree
p120
(dp121
g19
I0
sg21
I00
sbsg19
I1
sg25
I01
sg26
g28
sbsg19
I2
sg22
(imyEvolve
Tree
p122
(dp123
g7
(imyEvolve
Tree
p124
(dp125
g19
I0
sg20
F1.6357787650675082
sg21
I01
sbsg19
I1
sg22
(imyEvolve
Tree
p126
(dp127
g19
I0
sg21
I00
sbsg25
I00
sg26
g27
sbsg25
I00
sg26
g27
sbsg19
I3
sg22
(imyEvolve
Tree
p128
(dp129
g12
(imyEvolve
Tree
p130
(dp131
g7
(imyEvolve
Tree
p132
(dp133
g19
I0
sg20
F-0.9555988417013017
sg21
I01
sbsg19
I1
sg22
(imyEvolve
Tree
p134
(dp135
g19
I0
sg21
I00
sbsg25
I00
sg26
g27
sbsg19
I2
sg25
I01
sg26
g29
sbsg25
I00
sg26
g27
sba(imyEvolve
Tree
p136
(dp137
g12
(imyEvolve
Tree
p138
(dp139
g7
(imyEvolve
Tree
p140
(dp141
g19
I0
sg20
F0.7333504045363748
sg21
I01
sbsg19
I1
sg22
(imyEvolve
Tree
p142
(dp143
g19
I0
sg21
I00
sbsg25
I00
sg26
g57
sbsg19
I2
sg25
I01
sg26
g28
sba(imyEvolve
Tree
p144
(dp145
g12
(imyEvolve
Tree
p146
(dp147
g12
(imyEvolve
Tree
p148
(dp149
g12
(imyEvolve
Tree
p150
(dp151
g7
(imyEvolve
Tree
p152
(dp153
g12
(imyEvolve
Tree
p154
(dp155
g19
I0
sg20
F-1.5266529772187711
sg21
I01
sbsg19
I1
sg25
I01
sg26
g29
sbsg19
I2
sg22
(imyEvolve
Tree
p156
(dp157
g7
(imyEvolve
Tree
p158
(dp159
g19
I0
sg20
F2.490962801265403
sg21
I01
sbsg19
I1
sg22
(imyEvolve
Tree
p160
(dp161
g19
I0
sg21
I00
sbsg25
I00
sg26
g27
sbsg25
I00
sg26
g44
sbsg19
I3
sg25
I01
sg26
g43
sbsg19
I4
sg25
I01
sg26
g28
sbsg19
I5
sg25
I01
sg26
g28
sba(imyEvolve
Tree
p162
(dp163
g12
(imyEvolve
Tree
p164
(dp165
g12
(imyEvolve
Tree
p166
(dp167
g7
(imyEvolve
Tree
p168
(dp169
g19
I0
sg21
I00
sbsg19
I1
sg22
(imyEvolve
Tree
p170
(dp171
g19
I0
sg20
F0.12237748139200111
sg21
I01
sbsg25
I00
sg26
g57
sbsg19
I2
sg25
I01
sg26
g43
sbsg19
I3
sg25
I01
sg26
g28
sba(imyEvolve
Tree
p172
(dp173
g7
(imyEvolve
Tree
p174
(dp175
g7
(imyEvolve
Tree
p176
(dp177
g7
(imyEvolve
Tree
p178
(dp179
g7
(imyEvolve
Tree
p180
(dp181
g12
(imyEvolve
Tree
p182
(dp183
g19
I0
sg21
I00
sbsg19
I1
sg25
I01
sg26
g28
sbsg19
I2
sg22
(imyEvolve
Tree
p184
(dp185
g7
(imyEvolve
Tree
p186
(dp187
g19
I0
sg20
F3.24573270997651
sg21
I01
sbsg19
I1
sg22
(imyEvolve
Tree
p188
(dp189
g19
I0
sg21
I00
sbsg25
I00
sg26
g57
sbsg25
I00
sg26
g57
sbsg19
I3
sg22
(imyEvolve
Tree
p190
(dp191
g12
(imyEvolve
Tree
p192
(dp193
g12
(imyEvolve
Tree
p194
(dp195
g19
I0
sg21
I00
sbsg19
I1
sg25
I01
sg26
g28
sbsg19
I2
sg25
I01
sg26
g29
sbsg25
I00
sg26
g57
sbsg19
I4
sg22
(imyEvolve
Tree
p196
(dp197
g12
(imyEvolve
Tree
p198
(dp199
g12
(imyEvolve
Tree
p200
(dp201
g7
(imyEvolve
Tree
p202
(dp203
g19
I0
sg21
I00
sbsg19
I1
sg22
(imyEvolve
Tree
p204
(dp205
g19
I0
sg21
I00
sbsg25
I00
sg26
g57
sbsg19
I2
sg25
I01
sg26
g29
sbsg19
I3
sg25
I01
sg26
g38
sbsg25
I00
sg26
g44
sbsg19
I5
sg22
(imyEvolve
Tree
p206
(dp207
g7
(imyEvolve
Tree
p208
(dp209
g7
(imyEvolve
Tree
p210
(dp211
g12
(imyEvolve
Tree
p212
(dp213
g12
(imyEvolve
Tree
p214
(dp215
g19
I0
sg21
I00
sbsg19
I1
sg25
I01
sg26
g38
sbsg19
I2
sg25
I01
sg26
g38
sbsg19
I3
sg22
(imyEvolve
Tree
p216
(dp217
g7
(imyEvolve
Tree
p218
(dp219
g12
(imyEvolve
Tree
p220
(dp221
g19
I0
sg21
I00
sbsg19
I1
sg25
I01
sg26
g38
sbsg19
I2
sg22
(imyEvolve
Tree
p222
(dp223
g7
(imyEvolve
Tree
p224
(dp225
g19
I0
sg20
F-4.3509255633618515
sg21
I01
sbsg19
I1
sg22
(imyEvolve
Tree
p226
(dp227
g19
I0
sg20
F1.2824754600024848
sg21
I01
sbsg25
I00
sg26
g27
sbsg25
I00
sg26
g57
sbsg25
I00
sg26
g57
sbsg19
I4
sg22
(imyEvolve
Tree
p228
(dp229
g7
(imyEvolve
Tree
p230
(dp231
g12
(imyEvolve
Tree
p232
(dp233
g12
(imyEvolve
Tree
p234
(dp235
g19
I0
sg20
F-4.185139649671111
sg21
I01
sbsg19
I1
sg25
I01
sg26
g28
sbsg19
I2
sg25
I01
sg26
g29
sbsg19
I3
sg22
(imyEvolve
Tree
p236
(dp237
g12
(imyEvolve
Tree
p238
(dp239
g7
(imyEvolve
Tree
p240
(dp241
g19
I0
sg21
I00
sbsg19
I1
sg22
(imyEvolve
Tree
p242
(dp243
g19
I0
sg21
I00
sbsg25
I00
sg26
g27
sbsg19
I2
sg25
I01
sg26
g38
sbsg25
I00
sg26
g57
sbsg25
I00
sg26
g57
sbsg25
I00
sg26
g57
sba(imyEvolve
Tree
p244
(dp245
g12
(imyEvolve
Tree
p246
(dp247
g12
(imyEvolve
Tree
p248
(dp249
g7
(imyEvolve
Tree
p250
(dp251
g19
I0
sg21
I00
sbsg19
I1
sg22
(imyEvolve
Tree
p252
(dp253
g19
I0
sg20
F3.994219386937745
sg21
I01
sbsg25
I00
sg26
g27
sbsg19
I2
sg25
I01
sg26
g43
sbsg19
I3
sg25
I01
sg26
g38
sba(imyEvolve
Tree
p254
(dp255
g19
I3
sg7
(imyEvolve
Tree
p256
(dp257
g19
I2
sg7
(imyEvolve
Tree
p258
(dp259
g12
(imyEvolve
Tree
p260
(dp261
g19
I0
sg21
I00
sbsg19
I1
sg25
I01
sg26
g38
sbsg22
(imyEvolve
Tree
p262
(dp263
g12
(imyEvolve
Tree
p264
(dp265
g19
I0
sg20
F4.67779568201593
sg21
I01
sbsg19
I1
sg25
I01
sg26
g29
sbsg25
I00
sg26
g27
sbsg22
(imyEvolve
Tree
p266
(dp267
g19
I2
sg7
(imyEvolve
Tree
p268
(dp269
g12
(imyEvolve
Tree
p270
(dp271
g19
I0
sg20
F-3.829581784416219
sg21
I01
sbsg19
I1
sg25
I01
sg26
g29
sbsg22
(imyEvolve
Tree
p272
(dp273
g19
I1
sg7
(imyEvolve
Tree
p274
(dp275
g19
I0
sg21
I00
sbsg22
(imyEvolve
Tree
p276
(dp277
g19
I0
sg21
I00
sbsg25
I00
sg26
g27
sbsg25
I00
sg26
g44
sbsg25
I00
sg26
g27
sba(imyEvolve
Tree
p278
(dp279
g12
(imyEvolve
Tree
p280
(dp281
g7
(imyEvolve
Tree
p282
(dp283
g12
(imyEvolve
Tree
p284
(dp285
g7
(imyEvolve
Tree
p286
(dp287
g19
I0
sg20
F3.7580148290723816
sg21
I01
sbsg19
I1
sg22
(imyEvolve
Tree
p288
(dp289
g19
I0
sg21
I00
sbsg25
I00
sg26
g44
sbsg19
I2
sg25
I01
sg26
g28
sbsg19
I3
sg22
(imyEvolve
Tree
p290
(dp291
g7
(imyEvolve
Tree
p292
(dp293
g7
(imyEvolve
Tree
p294
(dp295
g19
I0
sg21
I00
sbsg19
I1
sg22
(imyEvolve
Tree
p296
(dp297
g19
I0
sg20
F4.258500687547135
sg21
I01
sbsg25
I00
sg26
g27
sbsg19
I2
sg22
(imyEvolve
Tree
p298
(dp299
g12
(imyEvolve
Tree
p300
(dp301
g19
I0
sg21
I00
sbsg19
I1
sg25
I01
sg26
g43
sbsg25
I00
sg26
g44
sbsg25
I00
sg26
g44
sbsg19
I4
sg25
I01
sg26
g43
sba(imyEvolve
Tree
p302
(dp303
g12
(imyEvolve
Tree
p304
(dp305
g12
(imyEvolve
Tree
p306
(dp307
g12
(imyEvolve
Tree
p308
(dp309
g19
I0
sg20
F-2.6983488245911493
sg21
I01
sbsg19
I1
sg25
I01
sg26
g38
sbsg19
I2
sg25
I01
sg26
g43
sbsg19
I3
sg25
I01
sg26
g38
sba(imyEvolve
Tree
p310
(dp311
g12
(imyEvolve
Tree
p312
(dp313
g12
(imyEvolve
Tree
p314
(dp315
g19
I1
sg7
(imyEvolve
Tree
p316
(dp317
g19
I0
sg21
I00
sbsg22
(imyEvolve
Tree
p318
(dp319
g19
I0
sg20
F-2.2134816707625338
sg21
I01
sbsg25
I00
sg26
g44
sbsg19
I2
sg25
I01
sg26
g28
sbsg19
I3
sg25
I01
sg26
g29
sba(imyEvolve
Tree
p320
(dp321
g19
I5
sg7
(imyEvolve
Tree
p322
(dp323
g12
(imyEvolve
Tree
p324
(dp325
g19
I3
sg7
(imyEvolve
Tree
p326
(dp327
g19
I2
sg7
(imyEvolve
Tree
p328
(dp329
g12
(imyEvolve
Tree
p330
(dp331
g19
I0
sg20
F-0.12676377581508103
sg21
I01
sbsg19
I1
sg25
I01
sg26
g38
sbsg22
(imyEvolve
Tree
p332
(dp333
g12
(imyEvolve
Tree
p334
(dp335
g19
I0
sg21
I00
sbsg19
I1
sg25
I01
sg26
g29
sbsg25
I00
sg26
g57
sbsg22
(imyEvolve
Tree
p336
(dp337
g19
I2
sg7
(imyEvolve
Tree
p338
(dp339
g12
(imyEvolve
Tree
p340
(dp341
g19
I0
sg20
F2.2411068271268677
sg21
I01
sbsg19
I1
sg25
I01
sg26
g38
sbsg22
(imyEvolve
Tree
p342
(dp343
g12
(imyEvolve
Tree
p344
(dp345
g19
I0
sg20
F-2.6318136464015995
sg21
I01
sbsg19
I1
sg25
I01
sg26
g29
sbsg25
I00
sg26
g57
sbsg25
I00
sg26
g27
sbsg19
I4
sg25
I01
sg26
g29
sbsg22
(imyEvolve
Tree
p346
(dp347
g12
(imyEvolve
Tree
p348
(dp349
g12
(imyEvolve
Tree
p350
(dp351
g19
I2
sg7
(imyEvolve
Tree
p352
(dp353
g19
I1
sg7
(imyEvolve
Tree
p354
(dp355
g19
I0
sg20
F-2.437324348785941
sg21
I01
sbsg22
(imyEvolve
Tree
p356
(dp357
g19
I0
sg20
F-2.9553985533309204
sg21
I01
sbsg25
I00
sg26
g44
sbsg22
(imyEvolve
Tree
p358
(dp359
g19
I1
sg7
(imyEvolve
Tree
p360
(dp361
g19
I0
sg20
F3.8740318624164622
sg21
I01
sbsg22
(imyEvolve
Tree
p362
(dp363
g19
I0
sg20
F2.638712526645585
sg21
I01
sbsg25
I00
sg26
g27
sbsg25
I00
sg26
g27
sbsg19
I3
sg25
I01
sg26
g29
sbsg19
I4
sg25
I01
sg26
g38
sbsg25
I00
sg26
g27
sba(imyEvolve
Tree
p364
(dp365
g7
(imyEvolve
Tree
p366
(dp367
g7
(imyEvolve
Tree
p368
(dp369
g12
(imyEvolve
Tree
p370
(dp371
g19
I0
sg20
F-1.5928010025755048
sg21
I01
sbsg19
I1
sg25
I01
sg26
g29
sbsg19
I2
sg22
(imyEvolve
Tree
p372
(dp373
g7
(imyEvolve
Tree
p374
(dp375
g19
I0
sg20
F-0.2856660002625251
sg21
I01
sbsg19
I1
sg22
(imyEvolve
Tree
p376
(dp377
g19
I0
sg20
F4.192145816549843
sg21
I01
sbsg25
I00
sg26
g57
sbsg25
I00
sg26
g27
sbsg19
I3
sg22
(imyEvolve
Tree
p378
(dp379
g7
(imyEvolve
Tree
p380
(dp381
g7
(imyEvolve
Tree
p382
(dp383
g19
I0
sg20
F4.963102354681556
sg21
I01
sbsg19
I1
sg22
(imyEvolve
Tree
p384
(dp385
g19
I0
sg21
I00
sbsg25
I00
sg26
g27
sbsg19
I2
sg22
(imyEvolve
Tree
p386
(dp387
g12
(imyEvolve
Tree
p388
(dp389
g19
I0
sg21
I00
sbsg19
I1
sg25
I01
sg26
g43
sbsg25
I00
sg26
g44
sbsg25
I00
sg26
g44
sba(imyEvolve
Tree
p390
(dp391
g7
(imyEvolve
Tree
p392
(dp393
g7
(imyEvolve
Tree
p394
(dp395
g12
(imyEvolve
Tree
p396
(dp397
g19
I0
sg21
I00
sbsg19
I1
sg25
I01
sg26
g43
sbsg19
I2
sg22
(imyEvolve
Tree
p398
(dp399
g7
(imyEvolve
Tree
p400
(dp401
g19
I0
sg20
F4.1338905392528975
sg21
I01
sbsg19
I1
sg22
(imyEvolve
Tree
p402
(dp403
g19
I0
sg20
F-3.429864847490137
sg21
I01
sbsg25
I00
sg26
g44
sbsg25
I00
sg26
g27
sbsg19
I3
sg22
(imyEvolve
Tree
p404
(dp405
g7
(imyEvolve
Tree
p406
(dp407
g12
(imyEvolve
Tree
p408
(dp409
g19
I0
sg21
I00
sbsg19
I1
sg25
I01
sg26
g38
sbsg19
I2
sg22
(imyEvolve
Tree
p410
(dp411
g7
(imyEvolve
Tree
p412
(dp413
g19
I0
sg21
I00
sbsg19
I1
sg22
(imyEvolve
Tree
p414
(dp415
g19
I0
sg21
I00
sbsg25
I00
sg26
g27
sbsg25
I00
sg26
g27
sbsg25
I00
sg26
g57
sba(imyEvolve
Tree
p416
(dp417
g12
(imyEvolve
Tree
p418
(dp419
g7
(imyEvolve
Tree
p420
(dp421
g12
(imyEvolve
Tree
p422
(dp423
g12
(imyEvolve
Tree
p424
(dp425
g12
(imyEvolve
Tree
p426
(dp427
g19
I0
sg20
F2.323600104004817
sg21
I01
sbsg19
I1
sg25
I01
sg26
g38
sbsg19
I2
sg25
I01
sg26
g28
sbsg19
I3
sg25
I01
sg26
g43
sbsg19
I4
sg22
(imyEvolve
Tree
p428
(dp429
g12
(imyEvolve
Tree
p430
(dp431
g7
(imyEvolve
Tree
p432
(dp433
g7
(imyEvolve
Tree
p434
(dp435
g19
I0
sg21
I00
sbsg19
I1
sg22
(imyEvolve
Tree
p436
(dp437
g19
I0
sg20
F4.859813911713006
sg21
I01
sbsg25
I00
sg26
g27
sbsg19
I2
sg22
(imyEvolve
Tree
p438
(dp439
g7
(imyEvolve
Tree
p440
(dp441
g19
I0
sg21
I00
sbsg19
I1
sg22
(imyEvolve
Tree
p442
(dp443
g19
I0
sg21
I00
sbsg25
I00
sg26
g27
sbsg25
I00
sg26
g57
sbsg19
I3
sg25
I01
sg26
g43
sbsg25
I00
sg26
g44
sbsg19
I5
sg25
I01
sg26
g38
sbaa(lp444
(imyEvolve
Tree
p445
(dp446
g12
(imyEvolve
Tree
p447
(dp448
g7
(imyEvolve
Tree
p449
(dp450
g19
I0
sg20
F-4.845945771346235
sg21
I01
sbsg19
I1
sg22
(imyEvolve
Tree
p451
(dp452
g19
I0
sg20
F-2.649149601009241
sg21
I01
sbsg25
I00
sg26
g57
sbsg19
I2
sg25
I01
sg26
g38
sba(imyEvolve
Tree
p453
(dp454
g7
(imyEvolve
Tree
p455
(dp456
g12
(imyEvolve
Tree
p457
(dp458
g19
I0
sg20
F-1.2821020582512679
sg21
I01
sbsg19
I1
sg25
I01
sg26
g43
sbsg19
I2
sg22
(imyEvolve
Tree
p459
(dp460
g7
(imyEvolve
Tree
p461
(dp462
g19
I0
sg21
I00
sbsg19
I1
sg22
(imyEvolve
Tree
p463
(dp464
g19
I0
sg21
I00
sbsg25
I00
sg26
g57
sbsg25
I00
sg26
g44
sba(imyEvolve
Tree
p465
(dp466
g7
(imyEvolve
Tree
p467
(dp468
g12
(imyEvolve
Tree
p469
(dp470
g7
(imyEvolve
Tree
p471
(dp472
g12
(imyEvolve
Tree
p473
(dp474
g12
(imyEvolve
Tree
p475
(dp476
g19
I0
sg20
F-2.938164790465466
sg21
I01
sbsg19
I1
sg25
I01
sg26
g38
sbsg19
I2
sg25
I01
sg26
g38
sbsg19
I3
sg22
(imyEvolve
Tree
p477
(dp478
g7
(imyEvolve
Tree
p479
(dp480
g7
(imyEvolve
Tree
p481
(dp482
g19
I0
sg21
I00
sbsg19
I1
sg22
(imyEvolve
Tree
p483
(dp484
g19
I0
sg21
I00
sbsg25
I00
sg26
g44
sbsg19
I2
sg22
(imyEvolve
Tree
p485
(dp486
g7
(imyEvolve
Tree
p487
(dp488
g19
I0
sg21
I00
sbsg19
I1
sg22
(imyEvolve
Tree
p489
(dp490
g19
I0
sg20
F1.4930045785161639
sg21
I01
sbsg25
I00
sg26
g27
sbsg25
I00
sg26
g57
sbsg25
I00
sg26
g57
sbsg19
I4
sg25
I01
sg26
g29
sbsg19
I5
sg22
(imyEvolve
Tree
p491
(dp492
g7
(imyEvolve
Tree
p493
(dp494
g7
(imyEvolve
Tree
p495
(dp496
g7
(imyEvolve
Tree
p497
(dp498
g7
(imyEvolve
Tree
p499
(dp500
g19
I0
sg21
I00
sbsg19
I1
sg22
(imyEvolve
Tree
p501
(dp502
g19
I0
sg20
F-1.332231302334356
sg21
I01
sbsg25
I00
sg26
g44
sbsg19
I2
sg22
(imyEvolve
Tree
p503
(dp504
g12
(imyEvolve
Tree
p505
(dp506
g19
I0
sg21
I00
sbsg19
I1
sg25
I01
sg26
g43
sbsg25
I00
sg26
g44
sbsg19
I3
sg22
(imyEvolve
Tree
p507
(dp508
g12
(imyEvolve
Tree
p509
(dp510
g12
(imyEvolve
Tree
p511
(dp512
g19
I0
sg20
F3.7326041807392603
sg21
I01
sbsg19
I1
sg25
I01
sg26
g28
sbsg19
I2
sg25
I01
sg26
g28
sbsg25
I00
sg26
g57
sbsg19
I4
sg22
(imyEvolve
Tree
p513
(dp514
g12
(imyEvolve
Tree
p515
(dp516
g7
(imyEvolve
Tree
p517
(dp518
g7
(imyEvolve
Tree
p519
(dp520
g19
I0
sg20
F4.527674165386712
sg21
I01
sbsg19
I1
sg22
(imyEvolve
Tree
p521
(dp522
g19
I0
sg20
F-2.2994389364527414
sg21
I01
sbsg25
I00
sg26
g57
sbsg19
I2
sg22
(imyEvolve
Tree
p523
(dp524
g7
(imyEvolve
Tree
p525
(dp526
g19
I0
sg20
F-2.2359464661349406
sg21
I01
sbsg19
I1
sg22
(imyEvolve
Tree
p527
(dp528
g19
I0
sg20
F4.730216095558525
sg21
I01
sbsg25
I00
sg26
g57
sbsg25
I00
sg26
g27
sbsg19
I3
sg25
I01
sg26
g29
sbsg25
I00
sg26
g44
sbsg25
I00
sg26
g57
sba(imyEvolve
Tree
p529
(dp530
g19
I4
sg7
(imyEvolve
Tree
p531
(dp532
g19
I3
sg7
(imyEvolve
Tree
p533
(dp534
g19
I2
sg7
(imyEvolve
Tree
p535
(dp536
g12
(imyEvolve
Tree
p537
(dp538
g19
I0
sg20
F3.177539356729774
sg21
I01
sbsg19
I1
sg25
I01
sg26
g38
sbsg22
(imyEvolve
Tree
p539
(dp540
g12
(imyEvolve
Tree
p541
(dp542
g19
I0
sg20
F1.4265149868929061
sg21
I01
sbsg19
I1
sg25
I01
sg26
g28
sbsg25
I00
sg26
g57
sbsg22
(imyEvolve
Tree
p543
(dp544
g19
I2
sg7
(imyEvolve
Tree
p545
(dp546
g19
I1
sg7
(imyEvolve
Tree
p547
(dp548
g19
I0
sg20
F0.17018881540728437
sg21
I01
sbsg22
(imyEvolve
Tree
p549
(dp550
g19
I0
sg21
I00
sbsg25
I00
sg26
g57
sbsg22
(imyEvolve
Tree
p551
(dp552
g19
I1
sg7
(imyEvolve
Tree
p553
(dp554
g19
I0
sg21
I00
sbsg22
(imyEvolve
Tree
p555
(dp556
g19
I0
sg20
F-1.3407897841716876
sg21
I01
sbsg25
I00
sg26
g57
sbsg25
I00
sg26
g44
sbsg25
I00
sg26
g57
sbsg22
(imyEvolve
Tree
p557
(dp558
g19
I3
sg7
(imyEvolve
Tree
p559
(dp560
g12
(imyEvolve
Tree
p561
(dp562
g19
I1
sg7
(imyEvolve
Tree
p563
(dp564
g19
I0
sg20
F0.20064195069918878
sg21
I01
sbsg22
(imyEvolve
Tree
p565
(dp566
g19
I0
sg21
I00
sbsg25
I00
sg26
g44
sbsg19
I2
sg25
I01
sg26
g43
sbsg22
(imyEvolve
Tree
p567
(dp568
g19
I2
sg7
(imyEvolve
Tree
p569
(dp570
g19
I1
sg7
(imyEvolve
Tree
p571
(dp572
g19
I0
sg20
F2.805386924493547
sg21
I01
sbsg22
(imyEvolve
Tree
p573
(dp574
g19
I0
sg21
I00
sbsg25
I00
sg26
g27
sbsg22
(imyEvolve
Tree
p575
(dp576
g12
(imyEvolve
Tree
p577
(dp578
g19
I0
sg21
I00
sbsg19
I1
sg25
I01
sg26
g28
sbsg25
I00
sg26
g27
sbsg25
I00
sg26
g27
sbsg25
I00
sg26
g44
sba(imyEvolve
Tree
p579
(dp580
g12
(imyEvolve
Tree
p581
(dp582
g7
(imyEvolve
Tree
p583
(dp584
g12
(imyEvolve
Tree
p585
(dp586
g19
I0
sg21
I00
sbsg19
I1
sg25
I01
sg26
g38
sbsg19
I2
sg22
(imyEvolve
Tree
p587
(dp588
g7
(imyEvolve
Tree
p589
(dp590
g19
I0
sg20
F-2.700757692288296
sg21
I01
sbsg19
I1
sg22
(imyEvolve
Tree
p591
(dp592
g19
I0
sg20
F-2.4673139301749893
sg21
I01
sbsg25
I00
sg26
g57
sbsg25
I00
sg26
g27
sbsg19
I3
sg25
I01
sg26
g43
sba(imyEvolve
Tree
p593
(dp594
g19
I2
sg7
(imyEvolve
Tree
p595
(dp596
g12
(imyEvolve
Tree
p597
(dp598
g19
I0
sg21
I00
sbsg19
I1
sg25
I01
sg26
g28
sbsg22
(imyEvolve
Tree
p599
(dp600
g12
(imyEvolve
Tree
p601
(dp602
g19
I0
sg21
I00
sbsg19
I1
sg25
I01
sg26
g28
sbsg25
I00
sg26
g27
sba(imyEvolve
Tree
p603
(dp604
g12
(imyEvolve
Tree
p605
(dp606
g12
(imyEvolve
Tree
p607
(dp608
g19
I0
sg21
I00
sbsg19
I1
sg25
I01
sg26
g29
sbsg19
I2
sg25
I01
sg26
g43
sba(imyEvolve
Tree
p609
(dp610
g12
(imyEvolve
Tree
p611
(dp612
g12
(imyEvolve
Tree
p613
(dp614
g19
I0
sg20
F-4.3727934368782595
sg21
I01
sbsg19
I1
sg25
I01
sg26
g28
sbsg19
I2
sg25
I01
sg26
g28
sba(imyEvolve
Tree
p615
(dp616
g12
(imyEvolve
Tree
p617
(dp618
g7
(imyEvolve
Tree
p619
(dp620
g7
(imyEvolve
Tree
p621
(dp622
g19
I0
sg21
I00
sbsg19
I1
sg22
(imyEvolve
Tree
p623
(dp624
g19
I0
sg21
I00
sbsg25
I00
sg26
g44
sbsg19
I2
sg22
(imyEvolve
Tree
p625
(dp626
g12
(imyEvolve
Tree
p627
(dp628
g19
I0
sg21
I00
sbsg19
I1
sg25
I01
sg26
g28
sbsg25
I00
sg26
g44
sbsg19
I3
sg25
I01
sg26
g29
sba(imyEvolve
Tree
p629
(dp630
g12
(imyEvolve
Tree
p631
(dp632
g19
I2
sg7
(imyEvolve
Tree
p633
(dp634
g19
I1
sg7
(imyEvolve
Tree
p635
(dp636
g19
I0
sg21
I00
sbsg22
(imyEvolve
Tree
p637
(dp638
g19
I0
sg20
F-1.3080784118900803
sg21
I01
sbsg25
I00
sg26
g44
sbsg22
(imyEvolve
Tree
p639
(dp640
g12
(imyEvolve
Tree
p641
(dp642
g19
I0
sg21
I00
sbsg19
I1
sg25
I01
sg26
g28
sbsg25
I00
sg26
g27
sbsg19
I3
sg25
I01
sg26
g38
sba(imyEvolve
Tree
p643
(dp644
g7
(imyEvolve
Tree
p645
(dp646
g12
(imyEvolve
Tree
p647
(dp648
g12
(imyEvolve
Tree
p649
(dp650
g19
I0
sg20
F1.6929408264421202
sg21
I01
sbsg19
I1
sg25
I01
sg26
g28
sbsg19
I2
sg25
I01
sg26
g43
sbsg19
I3
sg22
(imyEvolve
Tree
p651
(dp652
g12
(imyEvolve
Tree
p653
(dp654
g12
(imyEvolve
Tree
p655
(dp656
g19
I0
sg20
F2.6007867663599926
sg21
I01
sbsg19
I1
sg25
I01
sg26
g38
sbsg19
I2
sg25
I01
sg26
g38
sbsg25
I00
sg26
g57
sba(imyEvolve
Tree
p657
(dp658
g12
(imyEvolve
Tree
p659
(dp660
g12
(imyEvolve
Tree
p661
(dp662
g19
I0
sg21
I00
sbsg19
I1
sg25
I01
sg26
g28
sbsg19
I2
sg25
I01
sg26
g38
sba(imyEvolve
Tree
p663
(dp664
g19
I2
sg7
(imyEvolve
Tree
p665
(dp666
g12
(imyEvolve
Tree
p667
(dp668
g19
I0
sg20
F-4.8199739096442915
sg21
I01
sbsg19
I1
sg25
I01
sg26
g38
sbsg22
(imyEvolve
Tree
p669
(dp670
g12
(imyEvolve
Tree
p671
(dp672
g19
I0
sg21
I00
sbsg19
I1
sg25
I01
sg26
g28
sbsg25
I00
sg26
g57
sbaa(lp673
(imyEvolve
Tree
p674
(dp675
g7
(imyEvolve
Tree
p676
(dp677
g12
(imyEvolve
Tree
p678
(dp679
g12
(imyEvolve
Tree
p680
(dp681
g12
(imyEvolve
Tree
p682
(dp683
g7
(imyEvolve
Tree
p684
(dp685
g19
I0
sg21
I00
sbsg19
I1
sg22
(imyEvolve
Tree
p686
(dp687
g19
I0
sg20
F1.5111061961564856
sg21
I01
sbsg25
I00
sg26
g44
sbsg19
I2
sg25
I01
sg26
g29
sbsg19
I3
sg25
I01
sg26
g43
sbsg19
I4
sg25
I01
sg26
g38
sbsg19
I5
sg22
(imyEvolve
Tree
p688
(dp689
g12
(imyEvolve
Tree
p690
(dp691
g12
(imyEvolve
Tree
p692
(dp693
g12
(imyEvolve
Tree
p694
(dp695
g12
(imyEvolve
Tree
p696
(dp697
g19
I0
sg20
F3.3487763688746313
sg21
I01
sbsg19
I1
sg25
I01
sg26
g43
sbsg19
I2
sg25
I01
sg26
g43
sbsg19
I3
sg25
I01
sg26
g43
sbsg19
I4
sg25
I01
sg26
g29
sbsg25
I00
sg26
g57
sba(imyEvolve
Tree
p698
(dp699
g7
(imyEvolve
Tree
p700
(dp701
g12
(imyEvolve
Tree
p702
(dp703
g12
(imyEvolve
Tree
p704
(dp705
g19
I0
sg21
I00
sbsg19
I1
sg25
I01
sg26
g29
sbsg19
I2
sg25
I01
sg26
g38
sbsg19
I3
sg22
(imyEvolve
Tree
p706
(dp707
g12
(imyEvolve
Tree
p708
(dp709
g7
(imyEvolve
Tree
p710
(dp711
g19
I0
sg20
F4.813068387450961
sg21
I01
sbsg19
I1
sg22
(imyEvolve
Tree
p712
(dp713
g19
I0
sg20
F-4.889974293189803
sg21
I01
sbsg25
I00
sg26
g44
sbsg19
I2
sg25
I01
sg26
g29
sbsg25
I00
sg26
g27
sba(imyEvolve
Tree
p714
(dp715
g7
(imyEvolve
Tree
p716
(dp717
g12
(imyEvolve
Tree
p718
(dp719
g12
(imyEvolve
Tree
p720
(dp721
g12
(imyEvolve
Tree
p722
(dp723
g19
I0
sg21
I00
sbsg19
I1
sg25
I01
sg26
g38
sbsg19
I2
sg25
I01
sg26
g28
sbsg19
I3
sg25
I01
sg26
g38
sbsg19
I4
sg22
(imyEvolve
Tree
p724
(dp725
g12
(imyEvolve
Tree
p726
(dp727
g12
(imyEvolve
Tree
p728
(dp729
g12
(imyEvolve
Tree
p730
(dp731
g19
I0
sg20
F-1.6407745224308767
sg21
I01
sbsg19
I1
sg25
I01
sg26
g38
sbsg19
I2
sg25
I01
sg26
g28
sbsg19
I3
sg25
I01
sg26
g43
sbsg25
I00
sg26
g27
sba(imyEvolve
Tree
p732
(dp733
g7
(imyEvolve
Tree
p734
(dp735
g7
(imyEvolve
Tree
p736
(dp737
g7
(imyEvolve
Tree
p738
(dp739
g12
(imyEvolve
Tree
p740
(dp741
g12
(imyEvolve
Tree
p742
(dp743
g19
I0
sg20
F-2.1235614659139546
sg21
I01
sbsg19
I1
sg25
I01
sg26
g38
sbsg19
I2
sg25
I01
sg26
g29
sbsg19
I3
sg22
(imyEvolve
Tree
p744
(dp745
g12
(imyEvolve
Tree
p746
(dp747
g12
(imyEvolve
Tree
p748
(dp749
g19
I0
sg21
I00
sbsg19
I1
sg25
I01
sg26
g29
sbsg19
I2
sg25
I01
sg26
g43
sbsg25
I00
sg26
g57
sbsg19
I4
sg22
(imyEvolve
Tree
p750
(dp751
g12
(imyEvolve
Tree
p752
(dp753
g12
(imyEvolve
Tree
p754
(dp755
g12
(imyEvolve
Tree
p756
(dp757
g19
I0
sg21
I00
sbsg19
I1
sg25
I01
sg26
g38
sbsg19
I2
sg25
I01
sg26
g29
sbsg19
I3
sg25
I01
sg26
g28
sbsg25
I00
sg26
g27
sbsg19
I5
sg22
(imyEvolve
Tree
p758
(dp759
g7
(imyEvolve
Tree
p760
(dp761
g7
(imyEvolve
Tree
p762
(dp763
g7
(imyEvolve
Tree
p764
(dp765
g12
(imyEvolve
Tree
p766
(dp767
g19
I0
sg21
I00
sbsg19
I1
sg25
I01
sg26
g38
sbsg19
I2
sg22
(imyEvolve
Tree
p768
(dp769
g12
(imyEvolve
Tree
p770
(dp771
g19
I0
sg20
F-3.0734475442883324
sg21
I01
sbsg19
I1
sg25
I01
sg26
g38
sbsg25
I00
sg26
g44
sbsg19
I3
sg22
(imyEvolve
Tree
p772
(dp773
g12
(imyEvolve
Tree
p774
(dp775
g7
(imyEvolve
Tree
p776
(dp777
g19
I0
sg20
F0.8065632869274166
sg21
I01
sbsg19
I1
sg22
(imyEvolve
Tree
p778
(dp779
g19
I0
sg21
I00
sbsg25
I00
sg26
g44
sbsg19
I2
sg25
I01
sg26
g43
sbsg25
I00
sg26
g27
sbsg19
I4
sg22
(imyEvolve
Tree
p780
(dp781
g12
(imyEvolve
Tree
p782
(dp783
g7
(imyEvolve
Tree
p784
(dp785
g7
(imyEvolve
Tree
p786
(dp787
g19
I0
sg21
I00
sbsg19
I1
sg22
(imyEvolve
Tree
p788
(dp789
g19
I0
sg20
F4.301154903072307
sg21
I01
sbsg25
I00
sg26
g44
sbsg19
I2
sg22
(imyEvolve
Tree
p790
(dp791
g7
(imyEvolve
Tree
p792
(dp793
g19
I0
sg21
I00
sbsg19
I1
sg22
(imyEvolve
Tree
p794
(dp795
g19
I0
sg20
F-2.009175406477004
sg21
I01
sbsg25
I00
sg26
g27
sbsg25
I00
sg26
g27
sbsg19
I3
sg25
I01
sg26
g29
sbsg25
I00
sg26
g44
sbsg25
I00
sg26
g27
sba(imyEvolve
Tree
p796
(dp797
g12
(imyEvolve
Tree
p798
(dp799
g12
(imyEvolve
Tree
p800
(dp801
g7
(imyEvolve
Tree
p802
(dp803
g12
(imyEvolve
Tree
p804
(dp805
g19
I0
sg20
F1.079034952624581
sg21
I01
sbsg19
I1
sg25
I01
sg26
g28
sbsg19
I2
sg22
(imyEvolve
Tree
p806
(dp807
g12
(imyEvolve
Tree
p808
(dp809
g19
I0
sg21
I00
sbsg19
I1
sg25
I01
sg26
g43
sbsg25
I00
sg26
g57
sbsg19
I3
sg25
I01
sg26
g28
sbsg19
I4
sg25
I01
sg26
g29
sba(imyEvolve
Tree
p810
(dp811
g12
(imyEvolve
Tree
p812
(dp813
g7
(imyEvolve
Tree
p814
(dp815
g7
(imyEvolve
Tree
p816
(dp817
g19
I0
sg20
F-0.1894346779309375
sg21
I01
sbsg19
I1
sg22
(imyEvolve
Tree
p818
(dp819
g19
I0
sg20
F-1.372944929387189
sg21
I01
sbsg25
I00
sg26
g44
sbsg19
I2
sg22
(imyEvolve
Tree
p820
(dp821
g12
(imyEvolve
Tree
p822
(dp823
g19
I0
sg20
F-4.510334855593234
sg21
I01
sbsg19
I1
sg25
I01
sg26
g43
sbsg25
I00
sg26
g27
sbsg19
I3
sg25
I01
sg26
g28
sba(imyEvolve
Tree
p824
(dp825
g7
(imyEvolve
Tree
p826
(dp827
g12
(imyEvolve
Tree
p828
(dp829
g19
I0
sg20
F1.7198692565316556
sg21
I01
sbsg19
I1
sg25
I01
sg26
g43
sbsg19
I2
sg22
(imyEvolve
Tree
p830
(dp831
g12
(imyEvolve
Tree
p832
(dp833
g19
I0
sg20
F2.8804175337243523
sg21
I01
sbsg19
I1
sg25
I01
sg26
g28
sbsg25
I00
sg26
g44
sba(imyEvolve
Tree
p834
(dp835
g12
(imyEvolve
Tree
p836
(dp837
g7
(imyEvolve
Tree
p838
(dp839
g19
I0
sg20
F-0.26615797079395875
sg21
I01
sbsg19
I1
sg22
(imyEvolve
Tree
p840
(dp841
g19
I0
sg21
I00
sbsg25
I00
sg26
g27
sbsg19
I2
sg25
I01
sg26
g29
sba(imyEvolve
Tree
p842
(dp843
g19
I5
sg7
(imyEvolve
Tree
p844
(dp845
g19
I4
sg7
(imyEvolve
Tree
p846
(dp847
g19
I3
sg7
(imyEvolve
Tree
p848
(dp849
g12
(imyEvolve
Tree
p850
(dp851
g19
I1
sg7
(imyEvolve
Tree
p852
(dp853
g19
I0
sg20
F-4.44025927319923
sg21
I01
sbsg22
(imyEvolve
Tree
p854
(dp855
g19
I0
sg20
F3.05987080025516
sg21
I01
sbsg25
I00
sg26
g44
sbsg19
I2
sg25
I01
sg26
g43
sbsg22
(imyEvolve
Tree
p856
(dp857
g19
I2
sg7
(imyEvolve
Tree
p858
(dp859
g19
I1
sg7
(imyEvolve
Tree
p860
(dp861
g19
I0
sg20
F-0.850371815045273
sg21
I01
sbsg22
(imyEvolve
Tree
p862
(dp863
g19
I0
sg21
I00
sbsg25
I00
sg26
g27
sbsg22
(imyEvolve
Tree
p864
(dp865
g19
I1
sg7
(imyEvolve
Tree
p866
(dp867
g19
I0
sg21
I00
sbsg22
(imyEvolve
Tree
p868
(dp869
g19
I0
sg21
I00
sbsg25
I00
sg26
g57
sbsg25
I00
sg26
g57
sbsg25
I00
sg26
g44
sbsg22
(imyEvolve
Tree
p870
(dp871
g19
I3
sg7
(imyEvolve
Tree
p872
(dp873
g12
(imyEvolve
Tree
p874
(dp875
g12
(imyEvolve
Tree
p876
(dp877
g19
I0
sg20
F2.702603752816305
sg21
I01
sbsg19
I1
sg25
I01
sg26
g43
sbsg19
I2
sg25
I01
sg26
g43
sbsg22
(imyEvolve
Tree
p878
(dp879
g12
(imyEvolve
Tree
p880
(dp881
g19
I1
sg7
(imyEvolve
Tree
p882
(dp883
g19
I0
sg20
F-2.3883995907015243
sg21
I01
sbsg22
(imyEvolve
Tree
p884
(dp885
g19
I0
sg21
I00
sbsg25
I00
sg26
g27
sbsg19
I2
sg25
I01
sg26
g38
sbsg25
I00
sg26
g44
sbsg25
I00
sg26
g57
sbsg22
(imyEvolve
Tree
p886
(dp887
g12
(imyEvolve
Tree
p888
(dp889
g19
I3
sg7
(imyEvolve
Tree
p890
(dp891
g19
I2
sg7
(imyEvolve
Tree
p892
(dp893
g19
I1
sg7
(imyEvolve
Tree
p894
(dp895
g19
I0
sg20
F-4.176944905991472
sg21
I01
sbsg22
(imyEvolve
Tree
p896
(dp897
g19
I0
sg20
F2.75722436740641
sg21
I01
sbsg25
I00
sg26
g44
sbsg22
(imyEvolve
Tree
p898
(dp899
g12
(imyEvolve
Tree
p900
(dp901
g19
I0
sg21
I00
sbsg19
I1
sg25
I01
sg26
g43
sbsg25
I00
sg26
g44
sbsg22
(imyEvolve
Tree
p902
(dp903
g19
I2
sg7
(imyEvolve
Tree
p904
(dp905
g19
I1
sg7
(imyEvolve
Tree
p906
(dp907
g19
I0
sg21
I00
sbsg22
(imyEvolve
Tree
p908
(dp909
g19
I0
sg20
F-3.1167832919599805
sg21
I01
sbsg25
I00
sg26
g44
sbsg22
(imyEvolve
Tree
p910
(dp911
g12
(imyEvolve
Tree
p912
(dp913
g19
I0
sg21
I00
sbsg19
I1
sg25
I01
sg26
g38
sbsg25
I00
sg26
g27
sbsg25
I00
sg26
g27
sbsg19
I4
sg25
I01
sg26
g28
sbsg25
I00
sg26
g27
sba(imyEvolve
Tree
p914
(dp915
g12
(imyEvolve
Tree
p916
(dp917
g12
(imyEvolve
Tree
p918
(dp919
g7
(imyEvolve
Tree
p920
(dp921
g19
I0
sg20
F1.5540374423131
sg21
I01
sbsg19
I1
sg22
(imyEvolve
Tree
p922
(dp923
g19
I0
sg20
F-1.6027916877869708
sg21
I01
sbsg25
I00
sg26
g57
sbsg19
I2
sg25
I01
sg26
g43
sbsg19
I3
sg25
I01
sg26
g29
sba(imyEvolve
Tree
p924
(dp925
g7
(imyEvolve
Tree
p926
(dp927
g7
(imyEvolve
Tree
p928
(dp929
g12
(imyEvolve
Tree
p930
(dp931
g7
(imyEvolve
Tree
p932
(dp933
g7
(imyEvolve
Tree
p934
(dp935
g19
I0
sg20
F-0.9314163753962585
sg21
I01
sbsg19
I1
sg22
(imyEvolve
Tree
p936
(dp937
g19
I0
sg21
I00
sbsg25
I00
sg26
g57
sbsg19
I2
sg22
(imyEvolve
Tree
p938
(dp939
g7
(imyEvolve
Tree
p940
(dp941
g19
I0
sg21
I00
sbsg19
I1
sg22
(imyEvolve
Tree
p942
(dp943
g19
I0
sg21
I00
sbsg25
I00
sg26
g44
sbsg25
I00
sg26
g57
sbsg19
I3
sg25
I01
sg26
g38
sbsg19
I4
sg22
(imyEvolve
Tree
p944
(dp945
g7
(imyEvolve
Tree
p946
(dp947
g7
(imyEvolve
Tree
p948
(dp949
g12
(imyEvolve
Tree
p950
(dp951
g19
I0
sg21
I00
sbsg19
I1
sg25
I01
sg26
g43
sbsg19
I2
sg22
(imyEvolve
Tree
p952
(dp953
g12
(imyEvolve
Tree
p954
(dp955
g19
I0
sg21
I00
sbsg19
I1
sg25
I01
sg26
g43
sbsg25
I00
sg26
g57
sbsg19
I3
sg22
(imyEvolve
Tree
p956
(dp957
g12
(imyEvolve
Tree
p958
(dp959
g12
(imyEvolve
Tree
p960
(dp961
g19
I0
sg20
F4.468926905194827
sg21
I01
sbsg19
I1
sg25
I01
sg26
g29
sbsg19
I2
sg25
I01
sg26
g38
sbsg25
I00
sg26
g44
sbsg25
I00
sg26
g57
sbsg19
I5
sg22
(imyEvolve
Tree
p962
(dp963
g12
(imyEvolve
Tree
p964
(dp965
g7
(imyEvolve
Tree
p966
(dp967
g12
(imyEvolve
Tree
p968
(dp969
g12
(imyEvolve
Tree
p970
(dp971
g19
I0
sg21
I00
sbsg19
I1
sg25
I01
sg26
g28
sbsg19
I2
sg25
I01
sg26
g29
sbsg19
I3
sg22
(imyEvolve
Tree
p972
(dp973
g12
(imyEvolve
Tree
p974
(dp975
g12
(imyEvolve
Tree
p976
(dp977
g19
I0
sg21
I00
sbsg19
I1
sg25
I01
sg26
g43
sbsg19
I2
sg25
I01
sg26
g43
sbsg25
I00
sg26
g57
sbsg19
I4
sg25
I01
sg26
g43
sbsg25
I00
sg26
g27
sba(imyEvolve
Tree
p978
(dp979
g7
(imyEvolve
Tree
p980
(dp981
g12
(imyEvolve
Tree
p982
(dp983
g12
(imyEvolve
Tree
p984
(dp985
g7
(imyEvolve
Tree
p986
(dp987
g19
I0
sg21
I00
sbsg19
I1
sg22
(imyEvolve
Tree
p988
(dp989
g19
I0
sg21
I00
sbsg25
I00
sg26
g27
sbsg19
I2
sg25
I01
sg26
g28
sbsg19
I3
sg25
I01
sg26
g43
sbsg19
I4
sg22
(imyEvolve
Tree
p990
(dp991
g12
(imyEvolve
Tree
p992
(dp993
g7
(imyEvolve
Tree
p994
(dp995
g12
(imyEvolve
Tree
p996
(dp997
g19
I0
sg20
F-3.5315738430803103
sg21
I01
sbsg19
I1
sg25
I01
sg26
g28
sbsg19
I2
sg22
(imyEvolve
Tree
p998
(dp999
g12
(imyEvolve
Tree
p1000
(dp1001
g19
I0
sg21
I00
sbsg19
I1
sg25
I01
sg26
g28
sbsg25
I00
sg26
g27
sbsg19
I3
sg25
I01
sg26
g38
sbsg25
I00
sg26
g44
sba(imyEvolve
Tree
p1002
(dp1003
g12
(imyEvolve
Tree
p1004
(dp1005
g7
(imyEvolve
Tree
p1006
(dp1007
g12
(imyEvolve
Tree
p1008
(dp1009
g19
I0
sg21
I00
sbsg19
I1
sg25
I01
sg26
g38
sbsg19
I2
sg22
(imyEvolve
Tree
p1010
(dp1011
g7
(imyEvolve
Tree
p1012
(dp1013
g19
I0
sg21
I00
sbsg19
I1
sg22
(imyEvolve
Tree
p1014
(dp1015
g19
I0
sg20
F-3.74351143126301
sg21
I01
sbsg25
I00
sg26
g57
sbsg25
I00
sg26
g57
sbsg19
I3
sg25
I01
sg26
g28
sba(imyEvolve
Tree
p1016
(dp1017
g19
I2
sg7
(imyEvolve
Tree
p1018
(dp1019
g12
(imyEvolve
Tree
p1020
(dp1021
g19
I0
sg20
F4.545165888764972
sg21
I01
sbsg19
I1
sg25
I01
sg26
g38
sbsg22
(imyEvolve
Tree
p1022
(dp1023
g12
(imyEvolve
Tree
p1024
(dp1025
g19
I0
sg21
I00
sbsg19
I1
sg25
I01
sg26
g43
sbsg25
I00
sg26
g27
sba(imyEvolve
Tree
p1026
(dp1027
g12
(imyEvolve
Tree
p1028
(dp1029
g12
(imyEvolve
Tree
p1030
(dp1031
g19
I0
sg21
I00
sbsg19
I1
sg25
I01
sg26
g38
sbsg19
I2
sg25
I01
sg26
g43
sbaasS'alpha'
p1032
F0.0012068478921166473
sS'fitness'
p1033
cnumpy.core.multiarray
scalar
p1034
(cnumpy
dtype
p1035
(S'f8'
p1036
I0
I1
tp1037
Rp1038
(I3
S'<'
p1039
NNNI-1
I-1
I0
tp1040
bS'\x8e\x06\xf0\xe2b\x1d\xe6?'
p1041
tp1042
Rp1043
sS'weightSharing'
p1044
(lp1045
I01
asS'fitnessValid'
p1046
I00
sS'resolution'
p1047
I81
sb.