(imyEvolve
Individual
p0
(dp1
S'funcs'
p2
(lp3
(lp4
(imyEvolve
Tree
p5
(dp6
S'below'
p7
(imyEvolve
Tree
p8
(dp9
S'depth'
p10
I1
sS'left'
p11
(imyEvolve
Tree
p12
(dp13
g10
I0
sS'constant'
p14
F0.9690445538979624
sS'isConstant'
p15
I01
sbsS'right'
p16
(imyEvolve
Tree
p17
(dp18
g10
I0
sg14
F0.33666694755988225
sg15
I01
sbsS'single'
p19
I00
sS'op'
p20
coperator
sub
p21
sbsg10
I2
sg19
I01
sg20
cmyEvolve
absSqrt
p22
sba(imyEvolve
Tree
p23
(dp24
g10
I3
sg11
(imyEvolve
Tree
p25
(dp26
g7
(imyEvolve
Tree
p27
(dp28
g7
(imyEvolve
Tree
p29
(dp30
g10
I0
sg15
I00
sbsg10
I1
sg19
I01
sg20
g22
sbsg10
I2
sg19
I01
sg20
g22
sbsg16
(imyEvolve
Tree
p31
(dp32
g7
(imyEvolve
Tree
p33
(dp34
g10
I1
sg11
(imyEvolve
Tree
p35
(dp36
g10
I0
sg15
I00
sbsg16
(imyEvolve
Tree
p37
(dp38
g10
I0
sg15
I00
sbsg19
I00
sg20
g21
sbsg10
I2
sg19
I01
sg20
cmyEvolve
square
p39
sbsg19
I00
sg20
coperator
mul
p40
sba(imyEvolve
Tree
p41
(dp42
g7
(imyEvolve
Tree
p43
(dp44
g10
I4
sg11
(imyEvolve
Tree
p45
(dp46
g7
(imyEvolve
Tree
p47
(dp48
g10
I2
sg11
(imyEvolve
Tree
p49
(dp50
g10
I1
sg11
(imyEvolve
Tree
p51
(dp52
g10
I0
sg14
F1.2152699556358009
sg15
I01
sbsg16
(imyEvolve
Tree
p53
(dp54
g10
I0
sg15
I00
sbsg19
I00
sg20
coperator
add
p55
sbsg16
(imyEvolve
Tree
p56
(dp57
g10
I1
sg11
(imyEvolve
Tree
p58
(dp59
g10
I0
sg15
I00
sbsg16
(imyEvolve
Tree
p60
(dp61
g10
I0
sg15
I00
sbsg19
I00
sg20
g55
sbsg19
I00
sg20
g21
sbsg10
I3
sg19
I01
sg20
cmath
cos
p62
sbsg16
(imyEvolve
Tree
p63
(dp64
g7
(imyEvolve
Tree
p65
(dp66
g7
(imyEvolve
Tree
p67
(dp68
g7
(imyEvolve
Tree
p69
(dp70
g10
I0
sg14
F4.397911201140305
sg15
I01
sbsg10
I1
sg19
I01
sg20
g22
sbsg10
I2
sg19
I01
sg20
g39
sbsg10
I3
sg19
I01
sg20
g39
sbsg19
I00
sg20
g21
sbsg10
I5
sg19
I01
sg20
g22
sba(imyEvolve
Tree
p71
(dp72
g7
(imyEvolve
Tree
p73
(dp74
g7
(imyEvolve
Tree
p75
(dp76
g10
I3
sg11
(imyEvolve
Tree
p77
(dp78
g7
(imyEvolve
Tree
p79
(dp80
g7
(imyEvolve
Tree
p81
(dp82
g10
I0
sg15
I00
sbsg10
I1
sg19
I01
sg20
g62
sbsg10
I2
sg19
I01
sg20
cmath
sin
p83
sbsg16
(imyEvolve
Tree
p84
(dp85
g7
(imyEvolve
Tree
p86
(dp87
g10
I1
sg11
(imyEvolve
Tree
p88
(dp89
g10
I0
sg14
F2.1578670691460182
sg15
I01
sbsg16
(imyEvolve
Tree
p90
(dp91
g10
I0
sg15
I00
sbsg19
I00
sg20
g55
sbsg10
I2
sg19
I01
sg20
g83
sbsg19
I00
sg20
g55
sbsg10
I4
sg19
I01
sg20
g62
sbsg10
I5
sg19
I01
sg20
g22
sba(imyEvolve
Tree
p92
(dp93
g10
I5
sg11
(imyEvolve
Tree
p94
(dp95
g7
(imyEvolve
Tree
p96
(dp97
g7
(imyEvolve
Tree
p98
(dp99
g10
I2
sg11
(imyEvolve
Tree
p100
(dp101
g10
I1
sg11
(imyEvolve
Tree
p102
(dp103
g10
I0
sg14
F4.584017771790116
sg15
I01
sbsg16
(imyEvolve
Tree
p104
(dp105
g10
I0
sg14
F-4.255113122092729
sg15
I01
sbsg19
I00
sg20
g21
sbsg16
(imyEvolve
Tree
p106
(dp107
g7
(imyEvolve
Tree
p108
(dp109
g10
I0
sg14
F3.4172305554388753
sg15
I01
sbsg10
I1
sg19
I01
sg20
g39
sbsg19
I00
sg20
g21
sbsg10
I3
sg19
I01
sg20
g22
sbsg10
I4
sg19
I01
sg20
g83
sbsg16
(imyEvolve
Tree
p110
(dp111
g10
I4
sg11
(imyEvolve
Tree
p112
(dp113
g7
(imyEvolve
Tree
p114
(dp115
g10
I2
sg11
(imyEvolve
Tree
p116
(dp117
g10
I1
sg11
(imyEvolve
Tree
p118
(dp119
g10
I0
sg14
F3.3040095249376193
sg15
I01
sbsg16
(imyEvolve
Tree
p120
(dp121
g10
I0
sg15
I00
sbsg19
I00
sg20
g21
sbsg16
(imyEvolve
Tree
p122
(dp123
g7
(imyEvolve
Tree
p124
(dp125
g10
I0
sg14
F-2.510959826495216
sg15
I01
sbsg10
I1
sg19
I01
sg20
g83
sbsg19
I00
sg20
g55
sbsg10
I3
sg19
I01
sg20
g62
sbsg16
(imyEvolve
Tree
p126
(dp127
g7
(imyEvolve
Tree
p128
(dp129
g7
(imyEvolve
Tree
p130
(dp131
g7
(imyEvolve
Tree
p132
(dp133
g10
I0
sg14
F-4.851866622987831
sg15
I01
sbsg10
I1
sg19
I01
sg20
g83
sbsg10
I2
sg19
I01
sg20
g83
sbsg10
I3
sg19
I01
sg20
g83
sbsg19
I00
sg20
g21
sbsg19
I00
sg20
g21
sba(imyEvolve
Tree
p134
(dp135
g7
(imyEvolve
Tree
p136
(dp137
g10
I4
sg11
(imyEvolve
Tree
p138
(dp139
g7
(imyEvolve
Tree
p140
(dp141
g7
(imyEvolve
Tree
p142
(dp143
g7
(imyEvolve
Tree
p144
(dp145
g10
I0
sg15
I00
sbsg10
I1
sg19
I01
sg20
g22
sbsg10
I2
sg19
I01
sg20
g39
sbsg10
I3
sg19
I01
sg20
g39
sbsg16
(imyEvolve
Tree
p146
(dp147
g7
(imyEvolve
Tree
p148
(dp149
g7
(imyEvolve
Tree
p150
(dp151
g7
(imyEvolve
Tree
p152
(dp153
g10
I0
sg15
I00
sbsg10
I1
sg19
I01
sg20
g22
sbsg10
I2
sg19
I01
sg20
g83
sbsg10
I3
sg19
I01
sg20
g39
sbsg19
I00
sg20
g55
sbsg10
I5
sg19
I01
sg20
g22
sba(imyEvolve
Tree
p154
(dp155
g7
(imyEvolve
Tree
p156
(dp157
g7
(imyEvolve
Tree
p158
(dp159
g7
(imyEvolve
Tree
p160
(dp161
g7
(imyEvolve
Tree
p162
(dp163
g10
I0
sg15
I00
sbsg10
I1
sg19
I01
sg20
g62
sbsg10
I2
sg19
I01
sg20
g62
sbsg10
I3
sg19
I01
sg20
g62
sbsg10
I4
sg19
I01
sg20
g83
sba(imyEvolve
Tree
p164
(dp165
g7
(imyEvolve
Tree
p166
(dp167
g10
I3
sg11
(imyEvolve
Tree
p168
(dp169
g7
(imyEvolve
Tree
p170
(dp171
g10
I1
sg11
(imyEvolve
Tree
p172
(dp173
g10
I0
sg14
F-3.4615404712834987
sg15
I01
sbsg16
(imyEvolve
Tree
p174
(dp175
g10
I0
sg15
I00
sbsg19
I00
sg20
g55
sbsg10
I2
sg19
I01
sg20
g39
sbsg16
(imyEvolve
Tree
p176
(dp177
g7
(imyEvolve
Tree
p178
(dp179
g10
I1
sg11
(imyEvolve
Tree
p180
(dp181
g10
I0
sg14
F-4.890270935428842
sg15
I01
sbsg16
(imyEvolve
Tree
p182
(dp183
g10
I0
sg15
I00
sbsg19
I00
sg20
g21
sbsg10
I2
sg19
I01
sg20
g62
sbsg19
I00
sg20
g40
sbsg10
I4
sg19
I01
sg20
g83
sba(imyEvolve
Tree
p184
(dp185
g10
I2
sg11
(imyEvolve
Tree
p186
(dp187
g10
I1
sg11
(imyEvolve
Tree
p188
(dp189
g10
I0
sg15
I00
sbsg16
(imyEvolve
Tree
p190
(dp191
g10
I0
sg15
I00
sbsg19
I00
sg20
g55
sbsg16
(imyEvolve
Tree
p192
(dp193
g10
I1
sg11
(imyEvolve
Tree
p194
(dp195
g10
I0
sg14
F2.657738027670521
sg15
I01
sbsg16
(imyEvolve
Tree
p196
(dp197
g10
I0
sg14
F4.0435406021906495
sg15
I01
sbsg19
I00
sg20
g55
sbsg19
I00
sg20
g40
sba(imyEvolve
Tree
p198
(dp199
g10
I3
sg11
(imyEvolve
Tree
p200
(dp201
g7
(imyEvolve
Tree
p202
(dp203
g7
(imyEvolve
Tree
p204
(dp205
g10
I0
sg14
F-2.868346072985719
sg15
I01
sbsg10
I1
sg19
I01
sg20
g62
sbsg10
I2
sg19
I01
sg20
g83
sbsg16
(imyEvolve
Tree
p206
(dp207
g10
I2
sg11
(imyEvolve
Tree
p208
(dp209
g7
(imyEvolve
Tree
p210
(dp211
g10
I0
sg14
F-0.0045244626634950436
sg15
I01
sbsg10
I1
sg19
I01
sg20
g62
sbsg16
(imyEvolve
Tree
p212
(dp213
g10
I1
sg11
(imyEvolve
Tree
p214
(dp215
g10
I0
sg15
I00
sbsg16
(imyEvolve
Tree
p216
(dp217
g10
I0
sg14
F2.502451292415989
sg15
I01
sbsg19
I00
sg20
g21
sbsg19
I00
sg20
g55
sbsg19
I00
sg20
g21
sba(imyEvolve
Tree
p218
(dp219
g7
(imyEvolve
Tree
p220
(dp221
g10
I1
sg11
(imyEvolve
Tree
p222
(dp223
g10
I0
sg15
I00
sbsg16
(imyEvolve
Tree
p224
(dp225
g10
I0
sg15
I00
sbsg19
I00
sg20
g40
sbsg10
I2
sg19
I01
sg20
g39
sba(imyEvolve
Tree
p226
(dp227
g10
I3
sg11
(imyEvolve
Tree
p228
(dp229
g7
(imyEvolve
Tree
p230
(dp231
g7
(imyEvolve
Tree
p232
(dp233
g10
I0
sg14
F-1.4155397355453059
sg15
I01
sbsg10
I1
sg19
I01
sg20
g83
sbsg10
I2
sg19
I01
sg20
g83
sbsg16
(imyEvolve
Tree
p234
(dp235
g7
(imyEvolve
Tree
p236
(dp237
g7
(imyEvolve
Tree
p238
(dp239
g10
I0
sg15
I00
sbsg10
I1
sg19
I01
sg20
g83
sbsg10
I2
sg19
I01
sg20
g39
sbsg19
I00
sg20
g21
sba(imyEvolve
Tree
p240
(dp241
g10
I4
sg11
(imyEvolve
Tree
p242
(dp243
g7
(imyEvolve
Tree
p244
(dp245
g10
I2
sg11
(imyEvolve
Tree
p246
(dp247
g7
(imyEvolve
Tree
p248
(dp249
g10
I0
sg15
I00
sbsg10
I1
sg19
I01
sg20
g22
sbsg16
(imyEvolve
Tree
p250
(dp251
g10
I1
sg11
(imyEvolve
Tree
p252
(dp253
g10
I0
sg14
F1.6152523892829374
sg15
I01
sbsg16
(imyEvolve
Tree
p254
(dp255
g10
I0
sg15
I00
sbsg19
I00
sg20
g21
sbsg19
I00
sg20
g40
sbsg10
I3
sg19
I01
sg20
g83
sbsg16
(imyEvolve
Tree
p256
(dp257
g10
I3
sg11
(imyEvolve
Tree
p258
(dp259
g7
(imyEvolve
Tree
p260
(dp261
g7
(imyEvolve
Tree
p262
(dp263
g10
I0
sg14
F-0.32037820486457136
sg15
I01
sbsg10
I1
sg19
I01
sg20
g62
sbsg10
I2
sg19
I01
sg20
g83
sbsg16
(imyEvolve
Tree
p264
(dp265
g7
(imyEvolve
Tree
p266
(dp267
g10
I1
sg11
(imyEvolve
Tree
p268
(dp269
g10
I0
sg15
I00
sbsg16
(imyEvolve
Tree
p270
(dp271
g10
I0
sg15
I00
sbsg19
I00
sg20
g21
sbsg10
I2
sg19
I01
sg20
g39
sbsg19
I00
sg20
g21
sbsg19
I00
sg20
g40
sbaasS'weightSharing'
p272
(lp273
I00
aI00
aI00
asS'fitnessValid'
p274
I00
sS'fitness'
p275
cnumpy.core.multiarray
scalar
p276
(cnumpy
dtype
p277
(S'f8'
p278
I0
I1
tp279
Rp280
(I3
S'<'
p281
NNNI-1
I-1
I0
tp282
bS'\x00\xe5a\xa1\x14#b?'
p283
tp284
Rp285
sS'alpha'
p286
F0.007940118183229036
sS'resolution'
p287
I64
sb.