(imyEvolve
Individual
p0
(dp1
S'funcs'
p2
(lp3
(lp4
(imyEvolve
Tree
p5
(dp6
S'below'
p7
(imyEvolve
Tree
p8
(dp9
g7
(imyEvolve
Tree
p10
(dp11
S'depth'
p12
I3
sS'left'
p13
(imyEvolve
Tree
p14
(dp15
g7
(imyEvolve
Tree
p16
(dp17
g12
I1
sg13
(imyEvolve
Tree
p18
(dp19
g12
I0
sS'isConstant'
p20
I00
sbsS'right'
p21
(imyEvolve
Tree
p22
(dp23
g12
I0
sS'constant'
p24
F-4.84529496789576
sg20
I01
sbsS'single'
p25
I00
sS'op'
p26
coperator
add
p27
sbsg12
I2
sg25
I01
sg26
cmyEvolve
square
p28
sbsg21
(imyEvolve
Tree
p29
(dp30
g12
I2
sg13
(imyEvolve
Tree
p31
(dp32
g12
I1
sg13
(imyEvolve
Tree
p33
(dp34
g12
I0
sg24
F3.464971208736756
sg20
I01
sbsg21
(imyEvolve
Tree
p35
(dp36
g12
I0
sg24
F0.06535417789853248
sg20
I01
sbsg25
I00
sg26
coperator
sub
p37
sbsg21
(imyEvolve
Tree
p38
(dp39
g12
I1
sg13
(imyEvolve
Tree
p40
(dp41
g12
I0
sg20
I00
sbsg21
(imyEvolve
Tree
p42
(dp43
g12
I0
sg24
F-4.141739183665872
sg20
I01
sbsg25
I00
sg26
g27
sbsg25
I00
sg26
g37
sbsg25
I00
sg26
g27
sbsg12
I4
sg25
I01
sg26
cmyEvolve
absSqrt
p44
sbsg12
I5
sg25
I01
sg26
cmath
sin
p45
sba(imyEvolve
Tree
p46
(dp47
g7
(imyEvolve
Tree
p48
(dp49
g7
(imyEvolve
Tree
p50
(dp51
g12
I1
sg13
(imyEvolve
Tree
p52
(dp53
g12
I0
sg20
I00
sbsg21
(imyEvolve
Tree
p54
(dp55
g12
I0
sg20
I00
sbsg25
I00
sg26
coperator
mul
p56
sbsg12
I2
sg25
I01
sg26
g28
sbsg12
I3
sg25
I01
sg26
g45
sba(imyEvolve
Tree
p57
(dp58
g12
I5
sg13
(imyEvolve
Tree
p59
(dp60
g12
I4
sg13
(imyEvolve
Tree
p61
(dp62
g12
I3
sg13
(imyEvolve
Tree
p63
(dp64
g12
I2
sg13
(imyEvolve
Tree
p65
(dp66
g7
(imyEvolve
Tree
p67
(dp68
g12
I0
sg20
I00
sbsg12
I1
sg25
I01
sg26
g45
sbsg21
(imyEvolve
Tree
p69
(dp70
g7
(imyEvolve
Tree
p71
(dp72
g12
I0
sg20
I00
sbsg12
I1
sg25
I01
sg26
g44
sbsg25
I00
sg26
g27
sbsg21
(imyEvolve
Tree
p73
(dp74
g7
(imyEvolve
Tree
p75
(dp76
g7
(imyEvolve
Tree
p77
(dp78
g12
I0
sg20
I00
sbsg12
I1
sg25
I01
sg26
g28
sbsg12
I2
sg25
I01
sg26
g44
sbsg25
I00
sg26
g27
sbsg21
(imyEvolve
Tree
p79
(dp80
g12
I3
sg13
(imyEvolve
Tree
p81
(dp82
g12
I2
sg13
(imyEvolve
Tree
p83
(dp84
g12
I1
sg13
(imyEvolve
Tree
p85
(dp86
g12
I0
sg24
F-3.9091600491091807
sg20
I01
sbsg21
(imyEvolve
Tree
p87
(dp88
g12
I0
sg20
I00
sbsg25
I00
sg26
g56
sbsg21
(imyEvolve
Tree
p89
(dp90
g7
(imyEvolve
Tree
p91
(dp92
g12
I0
sg24
F3.5849092054119662
sg20
I01
sbsg12
I1
sg25
I01
sg26
cmath
cos
p93
sbsg25
I00
sg26
g27
sbsg21
(imyEvolve
Tree
p94
(dp95
g12
I2
sg13
(imyEvolve
Tree
p96
(dp97
g12
I1
sg13
(imyEvolve
Tree
p98
(dp99
g12
I0
sg20
I00
sbsg21
(imyEvolve
Tree
p100
(dp101
g12
I0
sg20
I00
sbsg25
I00
sg26
g37
sbsg21
(imyEvolve
Tree
p102
(dp103
g7
(imyEvolve
Tree
p104
(dp105
g12
I0
sg24
F0.9604482925149043
sg20
I01
sbsg12
I1
sg25
I01
sg26
g28
sbsg25
I00
sg26
g56
sbsg25
I00
sg26
g37
sbsg25
I00
sg26
g27
sbsg21
(imyEvolve
Tree
p106
(dp107
g7
(imyEvolve
Tree
p108
(dp109
g7
(imyEvolve
Tree
p110
(dp111
g12
I2
sg13
(imyEvolve
Tree
p112
(dp113
g12
I1
sg13
(imyEvolve
Tree
p114
(dp115
g12
I0
sg20
I00
sbsg21
(imyEvolve
Tree
p116
(dp117
g12
I0
sg24
F3.8022727995299537
sg20
I01
sbsg25
I00
sg26
g37
sbsg21
(imyEvolve
Tree
p118
(dp119
g7
(imyEvolve
Tree
p120
(dp121
g12
I0
sg24
F-4.614256985915718
sg20
I01
sbsg12
I1
sg25
I01
sg26
g44
sbsg25
I00
sg26
g56
sbsg12
I3
sg25
I01
sg26
g44
sbsg12
I4
sg25
I01
sg26
g93
sbsg25
I00
sg26
g37
sba(imyEvolve
Tree
p122
(dp123
g7
(imyEvolve
Tree
p124
(dp125
g7
(imyEvolve
Tree
p126
(dp127
g12
I2
sg13
(imyEvolve
Tree
p128
(dp129
g12
I1
sg13
(imyEvolve
Tree
p130
(dp131
g12
I0
sg24
F1.5972516199064257
sg20
I01
sbsg21
(imyEvolve
Tree
p132
(dp133
g12
I0
sg24
F0.47132512441613006
sg20
I01
sbsg25
I00
sg26
g56
sbsg21
(imyEvolve
Tree
p134
(dp135
g7
(imyEvolve
Tree
p136
(dp137
g12
I0
sg24
F1.7502572583645515
sg20
I01
sbsg12
I1
sg25
I01
sg26
g28
sbsg25
I00
sg26
g37
sbsg12
I3
sg25
I01
sg26
g45
sbsg12
I4
sg25
I01
sg26
g45
sba(imyEvolve
Tree
p138
(dp139
g7
(imyEvolve
Tree
p140
(dp141
g12
I3
sg13
(imyEvolve
Tree
p142
(dp143
g12
I2
sg13
(imyEvolve
Tree
p144
(dp145
g7
(imyEvolve
Tree
p146
(dp147
g12
I0
sg24
F2.3602458237053465
sg20
I01
sbsg12
I1
sg25
I01
sg26
g44
sbsg21
(imyEvolve
Tree
p148
(dp149
g7
(imyEvolve
Tree
p150
(dp151
g12
I0
sg20
I00
sbsg12
I1
sg25
I01
sg26
g45
sbsg25
I00
sg26
g37
sbsg21
(imyEvolve
Tree
p152
(dp153
g7
(imyEvolve
Tree
p154
(dp155
g12
I1
sg13
(imyEvolve
Tree
p156
(dp157
g12
I0
sg20
I00
sbsg21
(imyEvolve
Tree
p158
(dp159
g12
I0
sg24
F4.836009968416926
sg20
I01
sbsg25
I00
sg26
g37
sbsg12
I2
sg25
I01
sg26
g93
sbsg25
I00
sg26
g27
sbsg12
I4
sg25
I01
sg26
g44
sba(imyEvolve
Tree
p160
(dp161
g7
(imyEvolve
Tree
p162
(dp163
g12
I4
sg13
(imyEvolve
Tree
p164
(dp165
g12
I3
sg13
(imyEvolve
Tree
p166
(dp167
g7
(imyEvolve
Tree
p168
(dp169
g7
(imyEvolve
Tree
p170
(dp171
g12
I0
sg24
F-4.495271219618275
sg20
I01
sbsg12
I1
sg25
I01
sg26
g93
sbsg12
I2
sg25
I01
sg26
g28
sbsg21
(imyEvolve
Tree
p172
(dp173
g7
(imyEvolve
Tree
p174
(dp175
g7
(imyEvolve
Tree
p176
(dp177
g12
I0
sg20
I00
sbsg12
I1
sg25
I01
sg26
g28
sbsg12
I2
sg25
I01
sg26
g44
sbsg25
I00
sg26
g37
sbsg21
(imyEvolve
Tree
p178
(dp179
g7
(imyEvolve
Tree
p180
(dp181
g12
I2
sg13
(imyEvolve
Tree
p182
(dp183
g12
I1
sg13
(imyEvolve
Tree
p184
(dp185
g12
I0
sg24
F-4.689970417650862
sg20
I01
sbsg21
(imyEvolve
Tree
p186
(dp187
g12
I0
sg24
F-0.6083929588800743
sg20
I01
sbsg25
I00
sg26
g56
sbsg21
(imyEvolve
Tree
p188
(dp189
g12
I1
sg13
(imyEvolve
Tree
p190
(dp191
g12
I0
sg24
F-3.404092495135024
sg20
I01
sbsg21
(imyEvolve
Tree
p192
(dp193
g12
I0
sg24
F2.561732124369863
sg20
I01
sbsg25
I00
sg26
g27
sbsg25
I00
sg26
g37
sbsg12
I3
sg25
I01
sg26
g45
sbsg25
I00
sg26
g56
sbsg12
I5
sg25
I01
sg26
g28
sba(imyEvolve
Tree
p194
(dp195
g12
I2
sg13
(imyEvolve
Tree
p196
(dp197
g12
I1
sg13
(imyEvolve
Tree
p198
(dp199
g12
I0
sg20
I00
sbsg21
(imyEvolve
Tree
p200
(dp201
g12
I0
sg24
F0.14579295628436384
sg20
I01
sbsg25
I00
sg26
g37
sbsg21
(imyEvolve
Tree
p202
(dp203
g7
(imyEvolve
Tree
p204
(dp205
g12
I0
sg24
F0.25519411963562
sg20
I01
sbsg12
I1
sg25
I01
sg26
g44
sbsg25
I00
sg26
g37
sba(imyEvolve
Tree
p206
(dp207
g12
I4
sg13
(imyEvolve
Tree
p208
(dp209
g12
I3
sg13
(imyEvolve
Tree
p210
(dp211
g7
(imyEvolve
Tree
p212
(dp213
g7
(imyEvolve
Tree
p214
(dp215
g12
I0
sg20
I00
sbsg12
I1
sg25
I01
sg26
g93
sbsg12
I2
sg25
I01
sg26
g44
sbsg21
(imyEvolve
Tree
p216
(dp217
g12
I2
sg13
(imyEvolve
Tree
p218
(dp219
g7
(imyEvolve
Tree
p220
(dp221
g12
I0
sg24
F-2.517513682059226
sg20
I01
sbsg12
I1
sg25
I01
sg26
g44
sbsg21
(imyEvolve
Tree
p222
(dp223
g12
I1
sg13
(imyEvolve
Tree
p224
(dp225
g12
I0
sg20
I00
sbsg21
(imyEvolve
Tree
p226
(dp227
g12
I0
sg24
F-2.130069339848706
sg20
I01
sbsg25
I00
sg26
g37
sbsg25
I00
sg26
g56
sbsg25
I00
sg26
g27
sbsg21
(imyEvolve
Tree
p228
(dp229
g7
(imyEvolve
Tree
p230
(dp231
g12
I2
sg13
(imyEvolve
Tree
p232
(dp233
g12
I1
sg13
(imyEvolve
Tree
p234
(dp235
g12
I0
sg24
F4.693510149858666
sg20
I01
sbsg21
(imyEvolve
Tree
p236
(dp237
g12
I0
sg24
F-4.85568671417604
sg20
I01
sbsg25
I00
sg26
g37
sbsg21
(imyEvolve
Tree
p238
(dp239
g7
(imyEvolve
Tree
p240
(dp241
g12
I0
sg20
I00
sbsg12
I1
sg25
I01
sg26
g28
sbsg25
I00
sg26
g37
sbsg12
I3
sg25
I01
sg26
g44
sbsg25
I00
sg26
g37
sba(imyEvolve
Tree
p242
(dp243
g12
I5
sg13
(imyEvolve
Tree
p244
(dp245
g7
(imyEvolve
Tree
p246
(dp247
g7
(imyEvolve
Tree
p248
(dp249
g7
(imyEvolve
Tree
p250
(dp251
g7
(imyEvolve
Tree
p252
(dp253
g12
I0
sg20
I00
sbsg12
I1
sg25
I01
sg26
g44
sbsg12
I2
sg25
I01
sg26
g93
sbsg12
I3
sg25
I01
sg26
g44
sbsg12
I4
sg25
I01
sg26
g45
sbsg21
(imyEvolve
Tree
p254
(dp255
g12
I4
sg13
(imyEvolve
Tree
p256
(dp257
g12
I3
sg13
(imyEvolve
Tree
p258
(dp259
g12
I2
sg13
(imyEvolve
Tree
p260
(dp261
g12
I1
sg13
(imyEvolve
Tree
p262
(dp263
g12
I0
sg24
F-2.1823299736387214
sg20
I01
sbsg21
(imyEvolve
Tree
p264
(dp265
g12
I0
sg24
F0.4248272505977191
sg20
I01
sbsg25
I00
sg26
g37
sbsg21
(imyEvolve
Tree
p266
(dp267
g12
I1
sg13
(imyEvolve
Tree
p268
(dp269
g12
I0
sg20
I00
sbsg21
(imyEvolve
Tree
p270
(dp271
g12
I0
sg20
I00
sbsg25
I00
sg26
g27
sbsg25
I00
sg26
g27
sbsg21
(imyEvolve
Tree
p272
(dp273
g12
I2
sg13
(imyEvolve
Tree
p274
(dp275
g12
I1
sg13
(imyEvolve
Tree
p276
(dp277
g12
I0
sg20
I00
sbsg21
(imyEvolve
Tree
p278
(dp279
g12
I0
sg20
I00
sbsg25
I00
sg26
g27
sbsg21
(imyEvolve
Tree
p280
(dp281
g12
I1
sg13
(imyEvolve
Tree
p282
(dp283
g12
I0
sg24
F-4.966142900978375
sg20
I01
sbsg21
(imyEvolve
Tree
p284
(dp285
g12
I0
sg24
F0.04441463126089751
sg20
I01
sbsg25
I00
sg26
g37
sbsg25
I00
sg26
g37
sbsg25
I00
sg26
g27
sbsg21
(imyEvolve
Tree
p286
(dp287
g12
I3
sg13
(imyEvolve
Tree
p288
(dp289
g7
(imyEvolve
Tree
p290
(dp291
g12
I1
sg13
(imyEvolve
Tree
p292
(dp293
g12
I0
sg20
I00
sbsg21
(imyEvolve
Tree
p294
(dp295
g12
I0
sg20
I00
sbsg25
I00
sg26
g27
sbsg12
I2
sg25
I01
sg26
g45
sbsg21
(imyEvolve
Tree
p296
(dp297
g7
(imyEvolve
Tree
p298
(dp299
g7
(imyEvolve
Tree
p300
(dp301
g12
I0
sg24
F-4.800733316579864
sg20
I01
sbsg12
I1
sg25
I01
sg26
g45
sbsg12
I2
sg25
I01
sg26
g28
sbsg25
I00
sg26
g37
sbsg25
I00
sg26
g56
sbsg25
I00
sg26
g56
sba(imyEvolve
Tree
p302
(dp303
g12
I5
sg13
(imyEvolve
Tree
p304
(dp305
g12
I4
sg13
(imyEvolve
Tree
p306
(dp307
g12
I3
sg13
(imyEvolve
Tree
p308
(dp309
g7
(imyEvolve
Tree
p310
(dp311
g7
(imyEvolve
Tree
p312
(dp313
g12
I0
sg20
I00
sbsg12
I1
sg25
I01
sg26
g45
sbsg12
I2
sg25
I01
sg26
g93
sbsg21
(imyEvolve
Tree
p314
(dp315
g7
(imyEvolve
Tree
p316
(dp317
g7
(imyEvolve
Tree
p318
(dp319
g12
I0
sg24
F4.903761810062511
sg20
I01
sbsg12
I1
sg25
I01
sg26
g28
sbsg12
I2
sg25
I01
sg26
g28
sbsg25
I00
sg26
g56
sbsg21
(imyEvolve
Tree
p320
(dp321
g7
(imyEvolve
Tree
p322
(dp323
g12
I2
sg13
(imyEvolve
Tree
p324
(dp325
g7
(imyEvolve
Tree
p326
(dp327
g12
I0
sg24
F-0.21772293189915892
sg20
I01
sbsg12
I1
sg25
I01
sg26
g28
sbsg21
(imyEvolve
Tree
p328
(dp329
g12
I1
sg13
(imyEvolve
Tree
p330
(dp331
g12
I0
sg20
I00
sbsg21
(imyEvolve
Tree
p332
(dp333
g12
I0
sg20
I00
sbsg25
I00
sg26
g27
sbsg25
I00
sg26
g56
sbsg12
I3
sg25
I01
sg26
g45
sbsg25
I00
sg26
g27
sbsg21
(imyEvolve
Tree
p334
(dp335
g12
I4
sg13
(imyEvolve
Tree
p336
(dp337
g7
(imyEvolve
Tree
p338
(dp339
g7
(imyEvolve
Tree
p340
(dp341
g7
(imyEvolve
Tree
p342
(dp343
g12
I0
sg20
I00
sbsg12
I1
sg25
I01
sg26
g28
sbsg12
I2
sg25
I01
sg26
g45
sbsg12
I3
sg25
I01
sg26
g45
sbsg21
(imyEvolve
Tree
p344
(dp345
g12
I3
sg13
(imyEvolve
Tree
p346
(dp347
g7
(imyEvolve
Tree
p348
(dp349
g12
I1
sg13
(imyEvolve
Tree
p350
(dp351
g12
I0
sg20
I00
sbsg21
(imyEvolve
Tree
p352
(dp353
g12
I0
sg24
F-2.9990438011031975
sg20
I01
sbsg25
I00
sg26
g27
sbsg12
I2
sg25
I01
sg26
g45
sbsg21
(imyEvolve
Tree
p354
(dp355
g7
(imyEvolve
Tree
p356
(dp357
g12
I1
sg13
(imyEvolve
Tree
p358
(dp359
g12
I0
sg20
I00
sbsg21
(imyEvolve
Tree
p360
(dp361
g12
I0
sg20
I00
sbsg25
I00
sg26
g37
sbsg12
I2
sg25
I01
sg26
g45
sbsg25
I00
sg26
g37
sbsg25
I00
sg26
g37
sbsg25
I00
sg26
g37
sba(imyEvolve
Tree
p362
(dp363
g12
I4
sg13
(imyEvolve
Tree
p364
(dp365
g7
(imyEvolve
Tree
p366
(dp367
g12
I2
sg13
(imyEvolve
Tree
p368
(dp369
g7
(imyEvolve
Tree
p370
(dp371
g12
I0
sg20
I00
sbsg12
I1
sg25
I01
sg26
g93
sbsg21
(imyEvolve
Tree
p372
(dp373
g12
I1
sg13
(imyEvolve
Tree
p374
(dp375
g12
I0
sg24
F-0.5531839876591329
sg20
I01
sbsg21
(imyEvolve
Tree
p376
(dp377
g12
I0
sg20
I00
sbsg25
I00
sg26
g27
sbsg25
I00
sg26
g56
sbsg12
I3
sg25
I01
sg26
g44
sbsg21
(imyEvolve
Tree
p378
(dp379
g7
(imyEvolve
Tree
p380
(dp381
g12
I2
sg13
(imyEvolve
Tree
p382
(dp383
g12
I1
sg13
(imyEvolve
Tree
p384
(dp385
g12
I0
sg20
I00
sbsg21
(imyEvolve
Tree
p386
(dp387
g12
I0
sg24
F1.2291968043972021
sg20
I01
sbsg25
I00
sg26
g27
sbsg21
(imyEvolve
Tree
p388
(dp389
g7
(imyEvolve
Tree
p390
(dp391
g12
I0
sg20
I00
sbsg12
I1
sg25
I01
sg26
g93
sbsg25
I00
sg26
g56
sbsg12
I3
sg25
I01
sg26
g44
sbsg25
I00
sg26
g56
sba(imyEvolve
Tree
p392
(dp393
g7
(imyEvolve
Tree
p394
(dp395
g12
I1
sg13
(imyEvolve
Tree
p396
(dp397
g12
I0
sg24
F2.8565675938658845
sg20
I01
sbsg21
(imyEvolve
Tree
p398
(dp399
g12
I0
sg24
F1.1495553623128067
sg20
I01
sbsg25
I00
sg26
g37
sbsg12
I2
sg25
I01
sg26
g44
sbaa(lp400
(imyEvolve
Tree
p401
(dp402
g12
I2
sg13
(imyEvolve
Tree
p403
(dp404
g7
(imyEvolve
Tree
p405
(dp406
g12
I0
sg24
F-2.365772005792399
sg20
I01
sbsg12
I1
sg25
I01
sg26
g28
sbsg21
(imyEvolve
Tree
p407
(dp408
g12
I1
sg13
(imyEvolve
Tree
p409
(dp410
g12
I0
sg20
I00
sbsg21
(imyEvolve
Tree
p411
(dp412
g12
I0
sg20
I00
sbsg25
I00
sg26
g27
sbsg25
I00
sg26
g56
sba(imyEvolve
Tree
p413
(dp414
g7
(imyEvolve
Tree
p415
(dp416
g7
(imyEvolve
Tree
p417
(dp418
g7
(imyEvolve
Tree
p419
(dp420
g12
I0
sg24
F3.9850688757104855
sg20
I01
sbsg12
I1
sg25
I01
sg26
g93
sbsg12
I2
sg25
I01
sg26
g45
sbsg12
I3
sg25
I01
sg26
g44
sba(imyEvolve
Tree
p421
(dp422
g12
I3
sg13
(imyEvolve
Tree
p423
(dp424
g12
I2
sg13
(imyEvolve
Tree
p425
(dp426
g7
(imyEvolve
Tree
p427
(dp428
g12
I0
sg24
F0.21518756940978268
sg20
I01
sbsg12
I1
sg25
I01
sg26
g44
sbsg21
(imyEvolve
Tree
p429
(dp430
g12
I1
sg13
(imyEvolve
Tree
p431
(dp432
g12
I0
sg20
I00
sbsg21
(imyEvolve
Tree
p433
(dp434
g12
I0
sg24
F2.9782572928646562
sg20
I01
sbsg25
I00
sg26
g56
sbsg25
I00
sg26
g37
sbsg21
(imyEvolve
Tree
p435
(dp436
g12
I2
sg13
(imyEvolve
Tree
p437
(dp438
g7
(imyEvolve
Tree
p439
(dp440
g12
I0
sg20
I00
sbsg12
I1
sg25
I01
sg26
g45
sbsg21
(imyEvolve
Tree
p441
(dp442
g7
(imyEvolve
Tree
p443
(dp444
g12
I0
sg24
F-0.1893078957450891
sg20
I01
sbsg12
I1
sg25
I01
sg26
g93
sbsg25
I00
sg26
g37
sbsg25
I00
sg26
g37
sba(imyEvolve
Tree
p445
(dp446
g7
(imyEvolve
Tree
p447
(dp448
g12
I3
sg13
(imyEvolve
Tree
p449
(dp450
g7
(imyEvolve
Tree
p451
(dp452
g12
I1
sg13
(imyEvolve
Tree
p453
(dp454
g12
I0
sg20
I00
sbsg21
(imyEvolve
Tree
p455
(dp456
g12
I0
sg24
F0.6333720942878038
sg20
I01
sbsg25
I00
sg26
g56
sbsg12
I2
sg25
I01
sg26
g45
sbsg21
(imyEvolve
Tree
p457
(dp458
g12
I2
sg13
(imyEvolve
Tree
p459
(dp460
g12
I1
sg13
(imyEvolve
Tree
p461
(dp462
g12
I0
sg24
F-0.44445442345547015
sg20
I01
sbsg21
(imyEvolve
Tree
p463
(dp464
g12
I0
sg20
I00
sbsg25
I00
sg26
g37
sbsg21
(imyEvolve
Tree
p465
(dp466
g12
I1
sg13
(imyEvolve
Tree
p467
(dp468
g12
I0
sg20
I00
sbsg21
(imyEvolve
Tree
p469
(dp470
g12
I0
sg20
I00
sbsg25
I00
sg26
g37
sbsg25
I00
sg26
g37
sbsg25
I00
sg26
g56
sbsg12
I4
sg25
I01
sg26
g45
sba(imyEvolve
Tree
p471
(dp472
g12
I3
sg13
(imyEvolve
Tree
p473
(dp474
g12
I2
sg13
(imyEvolve
Tree
p475
(dp476
g12
I1
sg13
(imyEvolve
Tree
p477
(dp478
g12
I0
sg24
F3.1742583992309505
sg20
I01
sbsg21
(imyEvolve
Tree
p479
(dp480
g12
I0
sg24
F-0.2304241184592204
sg20
I01
sbsg25
I00
sg26
g37
sbsg21
(imyEvolve
Tree
p481
(dp482
g7
(imyEvolve
Tree
p483
(dp484
g12
I0
sg24
F1.2792085890580172
sg20
I01
sbsg12
I1
sg25
I01
sg26
g45
sbsg25
I00
sg26
g56
sbsg21
(imyEvolve
Tree
p485
(dp486
g7
(imyEvolve
Tree
p487
(dp488
g7
(imyEvolve
Tree
p489
(dp490
g12
I0
sg20
I00
sbsg12
I1
sg25
I01
sg26
g93
sbsg12
I2
sg25
I01
sg26
g28
sbsg25
I00
sg26
g37
sba(imyEvolve
Tree
p491
(dp492
g12
I3
sg13
(imyEvolve
Tree
p493
(dp494
g12
I2
sg13
(imyEvolve
Tree
p495
(dp496
g7
(imyEvolve
Tree
p497
(dp498
g12
I0
sg20
I00
sbsg12
I1
sg25
I01
sg26
g45
sbsg21
(imyEvolve
Tree
p499
(dp500
g7
(imyEvolve
Tree
p501
(dp502
g12
I0
sg24
F-3.28049916344216
sg20
I01
sbsg12
I1
sg25
I01
sg26
g45
sbsg25
I00
sg26
g27
sbsg21
(imyEvolve
Tree
p503
(dp504
g12
I2
sg13
(imyEvolve
Tree
p505
(dp506
g12
I1
sg13
(imyEvolve
Tree
p507
(dp508
g12
I0
sg24
F-2.5571974613228763
sg20
I01
sbsg21
(imyEvolve
Tree
p509
(dp510
g12
I0
sg20
I00
sbsg25
I00
sg26
g37
sbsg21
(imyEvolve
Tree
p511
(dp512
g7
(imyEvolve
Tree
p513
(dp514
g12
I0
sg20
I00
sbsg12
I1
sg25
I01
sg26
g28
sbsg25
I00
sg26
g56
sbsg25
I00
sg26
g27
sba(imyEvolve
Tree
p515
(dp516
g12
I4
sg13
(imyEvolve
Tree
p517
(dp518
g7
(imyEvolve
Tree
p519
(dp520
g7
(imyEvolve
Tree
p521
(dp522
g12
I1
sg13
(imyEvolve
Tree
p523
(dp524
g12
I0
sg20
I00
sbsg21
(imyEvolve
Tree
p525
(dp526
g12
I0
sg20
I00
sbsg25
I00
sg26
g27
sbsg12
I2
sg25
I01
sg26
g28
sbsg12
I3
sg25
I01
sg26
g93
sbsg21
(imyEvolve
Tree
p527
(dp528
g7
(imyEvolve
Tree
p529
(dp530
g12
I2
sg13
(imyEvolve
Tree
p531
(dp532
g7
(imyEvolve
Tree
p533
(dp534
g12
I0
sg20
I00
sbsg12
I1
sg25
I01
sg26
g44
sbsg21
(imyEvolve
Tree
p535
(dp536
g7
(imyEvolve
Tree
p537
(dp538
g12
I0
sg24
F-4.386233076519549
sg20
I01
sbsg12
I1
sg25
I01
sg26
g45
sbsg25
I00
sg26
g27
sbsg12
I3
sg25
I01
sg26
g28
sbsg25
I00
sg26
g56
sba(imyEvolve
Tree
p539
(dp540
g7
(imyEvolve
Tree
p541
(dp542
g12
I4
sg13
(imyEvolve
Tree
p543
(dp544
g7
(imyEvolve
Tree
p545
(dp546
g12
I2
sg13
(imyEvolve
Tree
p547
(dp548
g12
I1
sg13
(imyEvolve
Tree
p549
(dp550
g12
I0
sg24
F-1.7720419520214756
sg20
I01
sbsg21
(imyEvolve
Tree
p551
(dp552
g12
I0
sg24
F-2.318803896559556
sg20
I01
sbsg25
I00
sg26
g37
sbsg21
(imyEvolve
Tree
p553
(dp554
g7
(imyEvolve
Tree
p555
(dp556
g12
I0
sg24
F2.8499652718585295
sg20
I01
sbsg12
I1
sg25
I01
sg26
g44
sbsg25
I00
sg26
g37
sbsg12
I3
sg25
I01
sg26
g45
sbsg21
(imyEvolve
Tree
p557
(dp558
g12
I3
sg13
(imyEvolve
Tree
p559
(dp560
g7
(imyEvolve
Tree
p561
(dp562
g7
(imyEvolve
Tree
p563
(dp564
g12
I0
sg24
F-0.4661502361756389
sg20
I01
sbsg12
I1
sg25
I01
sg26
g93
sbsg12
I2
sg25
I01
sg26
g28
sbsg21
(imyEvolve
Tree
p565
(dp566
g7
(imyEvolve
Tree
p567
(dp568
g7
(imyEvolve
Tree
p569
(dp570
g12
I0
sg20
I00
sbsg12
I1
sg25
I01
sg26
g93
sbsg12
I2
sg25
I01
sg26
g44
sbsg25
I00
sg26
g27
sbsg25
I00
sg26
g37
sbsg12
I5
sg25
I01
sg26
g93
sba(imyEvolve
Tree
p571
(dp572
g12
I4
sg13
(imyEvolve
Tree
p573
(dp574
g12
I3
sg13
(imyEvolve
Tree
p575
(dp576
g7
(imyEvolve
Tree
p577
(dp578
g12
I1
sg13
(imyEvolve
Tree
p579
(dp580
g12
I0
sg24
F-3.1605117252754047
sg20
I01
sbsg21
(imyEvolve
Tree
p581
(dp582
g12
I0
sg24
F3.808051755591155
sg20
I01
sbsg25
I00
sg26
g56
sbsg12
I2
sg25
I01
sg26
g28
sbsg21
(imyEvolve
Tree
p583
(dp584
g7
(imyEvolve
Tree
p585
(dp586
g7
(imyEvolve
Tree
p587
(dp588
g12
I0
sg20
I00
sbsg12
I1
sg25
I01
sg26
g28
sbsg12
I2
sg25
I01
sg26
g45
sbsg25
I00
sg26
g27
sbsg21
(imyEvolve
Tree
p589
(dp590
g7
(imyEvolve
Tree
p591
(dp592
g12
I2
sg13
(imyEvolve
Tree
p593
(dp594
g7
(imyEvolve
Tree
p595
(dp596
g12
I0
sg20
I00
sbsg12
I1
sg25
I01
sg26
g28
sbsg21
(imyEvolve
Tree
p597
(dp598
g7
(imyEvolve
Tree
p599
(dp600
g12
I0
sg20
I00
sbsg12
I1
sg25
I01
sg26
g45
sbsg25
I00
sg26
g37
sbsg12
I3
sg25
I01
sg26
g93
sbsg25
I00
sg26
g27
sbaa(lp601
(imyEvolve
Tree
p602
(dp603
g7
(imyEvolve
Tree
p604
(dp605
g7
(imyEvolve
Tree
p606
(dp607
g12
I2
sg13
(imyEvolve
Tree
p608
(dp609
g12
I1
sg13
(imyEvolve
Tree
p610
(dp611
g12
I0
sg20
I00
sbsg21
(imyEvolve
Tree
p612
(dp613
g12
I0
sg20
I00
sbsg25
I00
sg26
g27
sbsg21
(imyEvolve
Tree
p614
(dp615
g12
I1
sg13
(imyEvolve
Tree
p616
(dp617
g12
I0
sg20
I00
sbsg21
(imyEvolve
Tree
p618
(dp619
g12
I0
sg24
F0.15723987579247556
sg20
I01
sbsg25
I00
sg26
g56
sbsg25
I00
sg26
g37
sbsg12
I3
sg25
I01
sg26
g44
sbsg12
I4
sg25
I01
sg26
g93
sba(imyEvolve
Tree
p620
(dp621
g12
I5
sg13
(imyEvolve
Tree
p622
(dp623
g7
(imyEvolve
Tree
p624
(dp625
g7
(imyEvolve
Tree
p626
(dp627
g7
(imyEvolve
Tree
p628
(dp629
g7
(imyEvolve
Tree
p630
(dp631
g12
I0
sg20
I00
sbsg12
I1
sg25
I01
sg26
g44
sbsg12
I2
sg25
I01
sg26
g44
sbsg12
I3
sg25
I01
sg26
g93
sbsg12
I4
sg25
I01
sg26
g44
sbsg21
(imyEvolve
Tree
p632
(dp633
g12
I4
sg13
(imyEvolve
Tree
p634
(dp635
g12
I3
sg13
(imyEvolve
Tree
p636
(dp637
g12
I2
sg13
(imyEvolve
Tree
p638
(dp639
g7
(imyEvolve
Tree
p640
(dp641
g12
I0
sg20
I00
sbsg12
I1
sg25
I01
sg26
g28
sbsg21
(imyEvolve
Tree
p642
(dp643
g7
(imyEvolve
Tree
p644
(dp645
g12
I0
sg24
F2.527830106907932
sg20
I01
sbsg12
I1
sg25
I01
sg26
g45
sbsg25
I00
sg26
g37
sbsg21
(imyEvolve
Tree
p646
(dp647
g12
I2
sg13
(imyEvolve
Tree
p648
(dp649
g7
(imyEvolve
Tree
p650
(dp651
g12
I0
sg24
F0.7419784565739462
sg20
I01
sbsg12
I1
sg25
I01
sg26
g28
sbsg21
(imyEvolve
Tree
p652
(dp653
g12
I1
sg13
(imyEvolve
Tree
p654
(dp655
g12
I0
sg20
I00
sbsg21
(imyEvolve
Tree
p656
(dp657
g12
I0
sg24
F1.9501408550552544
sg20
I01
sbsg25
I00
sg26
g37
sbsg25
I00
sg26
g37
sbsg25
I00
sg26
g37
sbsg21
(imyEvolve
Tree
p658
(dp659
g12
I3
sg13
(imyEvolve
Tree
p660
(dp661
g12
I2
sg13
(imyEvolve
Tree
p662
(dp663
g7
(imyEvolve
Tree
p664
(dp665
g12
I0
sg24
F3.8801684602576056
sg20
I01
sbsg12
I1
sg25
I01
sg26
g93
sbsg21
(imyEvolve
Tree
p666
(dp667
g7
(imyEvolve
Tree
p668
(dp669
g12
I0
sg24
F0.6532270988896958
sg20
I01
sbsg12
I1
sg25
I01
sg26
g28
sbsg25
I00
sg26
g27
sbsg21
(imyEvolve
Tree
p670
(dp671
g12
I2
sg13
(imyEvolve
Tree
p672
(dp673
g7
(imyEvolve
Tree
p674
(dp675
g12
I0
sg24
F-1.6184534620943856
sg20
I01
sbsg12
I1
sg25
I01
sg26
g28
sbsg21
(imyEvolve
Tree
p676
(dp677
g7
(imyEvolve
Tree
p678
(dp679
g12
I0
sg24
F-1.3313275171475656
sg20
I01
sbsg12
I1
sg25
I01
sg26
g44
sbsg25
I00
sg26
g56
sbsg25
I00
sg26
g27
sbsg25
I00
sg26
g27
sbsg25
I00
sg26
g37
sba(imyEvolve
Tree
p680
(dp681
g7
(imyEvolve
Tree
p682
(dp683
g12
I1
sg13
(imyEvolve
Tree
p684
(dp685
g12
I0
sg24
F-3.9413239378175655
sg20
I01
sbsg21
(imyEvolve
Tree
p686
(dp687
g12
I0
sg24
F-0.41110797945045796
sg20
I01
sbsg25
I00
sg26
g37
sbsg12
I2
sg25
I01
sg26
g44
sba(imyEvolve
Tree
p688
(dp689
g7
(imyEvolve
Tree
p690
(dp691
g7
(imyEvolve
Tree
p692
(dp693
g12
I3
sg13
(imyEvolve
Tree
p694
(dp695
g12
I2
sg13
(imyEvolve
Tree
p696
(dp697
g7
(imyEvolve
Tree
p698
(dp699
g12
I0
sg20
I00
sbsg12
I1
sg25
I01
sg26
g28
sbsg21
(imyEvolve
Tree
p700
(dp701
g12
I1
sg13
(imyEvolve
Tree
p702
(dp703
g12
I0
sg20
I00
sbsg21
(imyEvolve
Tree
p704
(dp705
g12
I0
sg20
I00
sbsg25
I00
sg26
g56
sbsg25
I00
sg26
g27
sbsg21
(imyEvolve
Tree
p706
(dp707
g12
I2
sg13
(imyEvolve
Tree
p708
(dp709
g7
(imyEvolve
Tree
p710
(dp711
g12
I0
sg24
F4.070455179338978
sg20
I01
sbsg12
I1
sg25
I01
sg26
g28
sbsg21
(imyEvolve
Tree
p712
(dp713
g12
I1
sg13
(imyEvolve
Tree
p714
(dp715
g12
I0
sg20
I00
sbsg21
(imyEvolve
Tree
p716
(dp717
g12
I0
sg24
F-0.8642045287914177
sg20
I01
sbsg25
I00
sg26
g37
sbsg25
I00
sg26
g56
sbsg25
I00
sg26
g27
sbsg12
I4
sg25
I01
sg26
g45
sbsg12
I5
sg25
I01
sg26
g93
sba(imyEvolve
Tree
p718
(dp719
g7
(imyEvolve
Tree
p720
(dp721
g12
I1
sg13
(imyEvolve
Tree
p722
(dp723
g12
I0
sg20
I00
sbsg21
(imyEvolve
Tree
p724
(dp725
g12
I0
sg24
F-1.069025405895502
sg20
I01
sbsg25
I00
sg26
g27
sbsg12
I2
sg25
I01
sg26
g28
sba(imyEvolve
Tree
p726
(dp727
g12
I5
sg13
(imyEvolve
Tree
p728
(dp729
g7
(imyEvolve
Tree
p730
(dp731
g12
I3
sg13
(imyEvolve
Tree
p732
(dp733
g7
(imyEvolve
Tree
p734
(dp735
g12
I1
sg13
(imyEvolve
Tree
p736
(dp737
g12
I0
sg24
F-4.903500048252399
sg20
I01
sbsg21
(imyEvolve
Tree
p738
(dp739
g12
I0
sg24
F4.744972244817028
sg20
I01
sbsg25
I00
sg26
g37
sbsg12
I2
sg25
I01
sg26
g44
sbsg21
(imyEvolve
Tree
p740
(dp741
g7
(imyEvolve
Tree
p742
(dp743
g7
(imyEvolve
Tree
p744
(dp745
g12
I0
sg24
F0.021816977105434177
sg20
I01
sbsg12
I1
sg25
I01
sg26
g45
sbsg12
I2
sg25
I01
sg26
g28
sbsg25
I00
sg26
g27
sbsg12
I4
sg25
I01
sg26
g45
sbsg21
(imyEvolve
Tree
p746
(dp747
g7
(imyEvolve
Tree
p748
(dp749
g12
I3
sg13
(imyEvolve
Tree
p750
(dp751
g7
(imyEvolve
Tree
p752
(dp753
g7
(imyEvolve
Tree
p754
(dp755
g12
I0
sg20
I00
sbsg12
I1
sg25
I01
sg26
g45
sbsg12
I2
sg25
I01
sg26
g93
sbsg21
(imyEvolve
Tree
p756
(dp757
g12
I2
sg13
(imyEvolve
Tree
p758
(dp759
g7
(imyEvolve
Tree
p760
(dp761
g12
I0
sg24
F3.0779903324124867
sg20
I01
sbsg12
I1
sg25
I01
sg26
g45
sbsg21
(imyEvolve
Tree
p762
(dp763
g7
(imyEvolve
Tree
p764
(dp765
g12
I0
sg20
I00
sbsg12
I1
sg25
I01
sg26
g93
sbsg25
I00
sg26
g27
sbsg25
I00
sg26
g56
sbsg12
I4
sg25
I01
sg26
g45
sbsg25
I00
sg26
g37
sba(imyEvolve
Tree
p766
(dp767
g7
(imyEvolve
Tree
p768
(dp769
g7
(imyEvolve
Tree
p770
(dp771
g12
I3
sg13
(imyEvolve
Tree
p772
(dp773
g12
I2
sg13
(imyEvolve
Tree
p774
(dp775
g12
I1
sg13
(imyEvolve
Tree
p776
(dp777
g12
I0
sg24
F-0.22903822824752673
sg20
I01
sbsg21
(imyEvolve
Tree
p778
(dp779
g12
I0
sg24
F1.6636644476745222
sg20
I01
sbsg25
I00
sg26
g27
sbsg21
(imyEvolve
Tree
p780
(dp781
g7
(imyEvolve
Tree
p782
(dp783
g12
I0
sg20
I00
sbsg12
I1
sg25
I01
sg26
g44
sbsg25
I00
sg26
g37
sbsg21
(imyEvolve
Tree
p784
(dp785
g12
I2
sg13
(imyEvolve
Tree
p786
(dp787
g12
I1
sg13
(imyEvolve
Tree
p788
(dp789
g12
I0
sg20
I00
sbsg21
(imyEvolve
Tree
p790
(dp791
g12
I0
sg24
F1.2684895557735745
sg20
I01
sbsg25
I00
sg26
g56
sbsg21
(imyEvolve
Tree
p792
(dp793
g7
(imyEvolve
Tree
p794
(dp795
g12
I0
sg20
I00
sbsg12
I1
sg25
I01
sg26
g45
sbsg25
I00
sg26
g37
sbsg25
I00
sg26
g27
sbsg12
I4
sg25
I01
sg26
g44
sbsg12
I5
sg25
I01
sg26
g44
sba(imyEvolve
Tree
p796
(dp797
g7
(imyEvolve
Tree
p798
(dp799
g12
I4
sg13
(imyEvolve
Tree
p800
(dp801
g12
I3
sg13
(imyEvolve
Tree
p802
(dp803
g7
(imyEvolve
Tree
p804
(dp805
g7
(imyEvolve
Tree
p806
(dp807
g12
I0
sg20
I00
sbsg12
I1
sg25
I01
sg26
g45
sbsg12
I2
sg25
I01
sg26
g44
sbsg21
(imyEvolve
Tree
p808
(dp809
g7
(imyEvolve
Tree
p810
(dp811
g12
I1
sg13
(imyEvolve
Tree
p812
(dp813
g12
I0
sg24
F-3.667893118549829
sg20
I01
sbsg21
(imyEvolve
Tree
p814
(dp815
g12
I0
sg24
F-2.33051554095176
sg20
I01
sbsg25
I00
sg26
g27
sbsg12
I2
sg25
I01
sg26
g45
sbsg25
I00
sg26
g37
sbsg21
(imyEvolve
Tree
p816
(dp817
g7
(imyEvolve
Tree
p818
(dp819
g12
I2
sg13
(imyEvolve
Tree
p820
(dp821
g7
(imyEvolve
Tree
p822
(dp823
g12
I0
sg20
I00
sbsg12
I1
sg25
I01
sg26
g93
sbsg21
(imyEvolve
Tree
p824
(dp825
g7
(imyEvolve
Tree
p826
(dp827
g12
I0
sg24
F-0.48270316256297274
sg20
I01
sbsg12
I1
sg25
I01
sg26
g45
sbsg25
I00
sg26
g27
sbsg12
I3
sg25
I01
sg26
g28
sbsg25
I00
sg26
g27
sbsg12
I5
sg25
I01
sg26
g93
sba(imyEvolve
Tree
p828
(dp829
g12
I2
sg13
(imyEvolve
Tree
p830
(dp831
g7
(imyEvolve
Tree
p832
(dp833
g12
I0
sg20
I00
sbsg12
I1
sg25
I01
sg26
g93
sbsg21
(imyEvolve
Tree
p834
(dp835
g12
I1
sg13
(imyEvolve
Tree
p836
(dp837
g12
I0
sg24
F4.890914078752713
sg20
I01
sbsg21
(imyEvolve
Tree
p838
(dp839
g12
I0
sg24
F-3.6834027340700293
sg20
I01
sbsg25
I00
sg26
g37
sbsg25
I00
sg26
g27
sba(imyEvolve
Tree
p840
(dp841
g12
I4
sg13
(imyEvolve
Tree
p842
(dp843
g12
I3
sg13
(imyEvolve
Tree
p844
(dp845
g12
I2
sg13
(imyEvolve
Tree
p846
(dp847
g12
I1
sg13
(imyEvolve
Tree
p848
(dp849
g12
I0
sg20
I00
sbsg21
(imyEvolve
Tree
p850
(dp851
g12
I0
sg24
F3.4667486354039045
sg20
I01
sbsg25
I00
sg26
g27
sbsg21
(imyEvolve
Tree
p852
(dp853
g12
I1
sg13
(imyEvolve
Tree
p854
(dp855
g12
I0
sg20
I00
sbsg21
(imyEvolve
Tree
p856
(dp857
g12
I0
sg24
F-1.4168732690411225
sg20
I01
sbsg25
I00
sg26
g27
sbsg25
I00
sg26
g27
sbsg21
(imyEvolve
Tree
p858
(dp859
g12
I2
sg13
(imyEvolve
Tree
p860
(dp861
g7
(imyEvolve
Tree
p862
(dp863
g12
I0
sg24
F-4.390197528086761
sg20
I01
sbsg12
I1
sg25
I01
sg26
g93
sbsg21
(imyEvolve
Tree
p864
(dp865
g12
I1
sg13
(imyEvolve
Tree
p866
(dp867
g12
I0
sg20
I00
sbsg21
(imyEvolve
Tree
p868
(dp869
g12
I0
sg20
I00
sbsg25
I00
sg26
g27
sbsg25
I00
sg26
g27
sbsg25
I00
sg26
g27
sbsg21
(imyEvolve
Tree
p870
(dp871
g12
I3
sg13
(imyEvolve
Tree
p872
(dp873
g12
I2
sg13
(imyEvolve
Tree
p874
(dp875
g7
(imyEvolve
Tree
p876
(dp877
g12
I0
sg24
F-1.7402218250285384
sg20
I01
sbsg12
I1
sg25
I01
sg26
g45
sbsg21
(imyEvolve
Tree
p878
(dp879
g7
(imyEvolve
Tree
p880
(dp881
g12
I0
sg20
I00
sbsg12
I1
sg25
I01
sg26
g93
sbsg25
I00
sg26
g27
sbsg21
(imyEvolve
Tree
p882
(dp883
g12
I2
sg13
(imyEvolve
Tree
p884
(dp885
g7
(imyEvolve
Tree
p886
(dp887
g12
I0
sg20
I00
sbsg12
I1
sg25
I01
sg26
g44
sbsg21
(imyEvolve
Tree
p888
(dp889
g12
I1
sg13
(imyEvolve
Tree
p890
(dp891
g12
I0
sg20
I00
sbsg21
(imyEvolve
Tree
p892
(dp893
g12
I0
sg24
F-3.916000178913759
sg20
I01
sbsg25
I00
sg26
g27
sbsg25
I00
sg26
g27
sbsg25
I00
sg26
g56
sbsg25
I00
sg26
g37
sba(imyEvolve
Tree
p894
(dp895
g7
(imyEvolve
Tree
p896
(dp897
g12
I1
sg13
(imyEvolve
Tree
p898
(dp899
g12
I0
sg24
F-1.5209822177863144
sg20
I01
sbsg21
(imyEvolve
Tree
p900
(dp901
g12
I0
sg20
I00
sbsg25
I00
sg26
g27
sbsg12
I2
sg25
I01
sg26
g93
sba(imyEvolve
Tree
p902
(dp903
g12
I5
sg13
(imyEvolve
Tree
p904
(dp905
g12
I4
sg13
(imyEvolve
Tree
p906
(dp907
g12
I3
sg13
(imyEvolve
Tree
p908
(dp909
g12
I2
sg13
(imyEvolve
Tree
p910
(dp911
g12
I1
sg13
(imyEvolve
Tree
p912
(dp913
g12
I0
sg20
I00
sbsg21
(imyEvolve
Tree
p914
(dp915
g12
I0
sg24
F1.578806906934954
sg20
I01
sbsg25
I00
sg26
g56
sbsg21
(imyEvolve
Tree
p916
(dp917
g12
I1
sg13
(imyEvolve
Tree
p918
(dp919
g12
I0
sg24
F-1.5123619522823741
sg20
I01
sbsg21
(imyEvolve
Tree
p920
(dp921
g12
I0
sg20
I00
sbsg25
I00
sg26
g37
sbsg25
I00
sg26
g27
sbsg21
(imyEvolve
Tree
p922
(dp923
g7
(imyEvolve
Tree
p924
(dp925
g7
(imyEvolve
Tree
p926
(dp927
g12
I0
sg24
F-1.420314844749778
sg20
I01
sbsg12
I1
sg25
I01
sg26
g45
sbsg12
I2
sg25
I01
sg26
g45
sbsg25
I00
sg26
g37
sbsg21
(imyEvolve
Tree
p928
(dp929
g7
(imyEvolve
Tree
p930
(dp931
g12
I2
sg13
(imyEvolve
Tree
p932
(dp933
g12
I1
sg13
(imyEvolve
Tree
p934
(dp935
g12
I0
sg20
I00
sbsg21
(imyEvolve
Tree
p936
(dp937
g12
I0
sg20
I00
sbsg25
I00
sg26
g56
sbsg21
(imyEvolve
Tree
p938
(dp939
g12
I1
sg13
(imyEvolve
Tree
p940
(dp941
g12
I0
sg24
F-3.2219002643376626
sg20
I01
sbsg21
(imyEvolve
Tree
p942
(dp943
g12
I0
sg24
F2.8774471008941997
sg20
I01
sbsg25
I00
sg26
g27
sbsg25
I00
sg26
g37
sbsg12
I3
sg25
I01
sg26
g93
sbsg25
I00
sg26
g37
sbsg21
(imyEvolve
Tree
p944
(dp945
g12
I4
sg13
(imyEvolve
Tree
p946
(dp947
g12
I3
sg13
(imyEvolve
Tree
p948
(dp949
g12
I2
sg13
(imyEvolve
Tree
p950
(dp951
g7
(imyEvolve
Tree
p952
(dp953
g12
I0
sg20
I00
sbsg12
I1
sg25
I01
sg26
g93
sbsg21
(imyEvolve
Tree
p954
(dp955
g12
I1
sg13
(imyEvolve
Tree
p956
(dp957
g12
I0
sg24
F-3.1265698430325117
sg20
I01
sbsg21
(imyEvolve
Tree
p958
(dp959
g12
I0
sg20
I00
sbsg25
I00
sg26
g56
sbsg25
I00
sg26
g56
sbsg21
(imyEvolve
Tree
p960
(dp961
g12
I2
sg13
(imyEvolve
Tree
p962
(dp963
g12
I1
sg13
(imyEvolve
Tree
p964
(dp965
g12
I0
sg24
F-4.837452850411
sg20
I01
sbsg21
(imyEvolve
Tree
p966
(dp967
g12
I0
sg24
F-0.9159026343034142
sg20
I01
sbsg25
I00
sg26
g37
sbsg21
(imyEvolve
Tree
p968
(dp969
g7
(imyEvolve
Tree
p970
(dp971
g12
I0
sg20
I00
sbsg12
I1
sg25
I01
sg26
g44
sbsg25
I00
sg26
g27
sbsg25
I00
sg26
g37
sbsg21
(imyEvolve
Tree
p972
(dp973
g12
I3
sg13
(imyEvolve
Tree
p974
(dp975
g7
(imyEvolve
Tree
p976
(dp977
g7
(imyEvolve
Tree
p978
(dp979
g12
I0
sg24
F3.3437131982440853
sg20
I01
sbsg12
I1
sg25
I01
sg26
g93
sbsg12
I2
sg25
I01
sg26
g45
sbsg21
(imyEvolve
Tree
p980
(dp981
g12
I2
sg13
(imyEvolve
Tree
p982
(dp983
g12
I1
sg13
(imyEvolve
Tree
p984
(dp985
g12
I0
sg24
F4.990338852599862
sg20
I01
sbsg21
(imyEvolve
Tree
p986
(dp987
g12
I0
sg24
F4.635605757956775
sg20
I01
sbsg25
I00
sg26
g27
sbsg21
(imyEvolve
Tree
p988
(dp989
g12
I1
sg13
(imyEvolve
Tree
p990
(dp991
g12
I0
sg20
I00
sbsg21
(imyEvolve
Tree
p992
(dp993
g12
I0
sg24
F1.451788771075126
sg20
I01
sbsg25
I00
sg26
g27
sbsg25
I00
sg26
g27
sbsg25
I00
sg26
g27
sbsg25
I00
sg26
g27
sbsg25
I00
sg26
g27
sba(imyEvolve
Tree
p994
(dp995
g7
(imyEvolve
Tree
p996
(dp997
g7
(imyEvolve
Tree
p998
(dp999
g12
I3
sg13
(imyEvolve
Tree
p1000
(dp1001
g7
(imyEvolve
Tree
p1002
(dp1003
g12
I1
sg13
(imyEvolve
Tree
p1004
(dp1005
g12
I0
sg20
I00
sbsg21
(imyEvolve
Tree
p1006
(dp1007
g12
I0
sg24
F-2.4761842091755493
sg20
I01
sbsg25
I00
sg26
g37
sbsg12
I2
sg25
I01
sg26
g45
sbsg21
(imyEvolve
Tree
p1008
(dp1009
g12
I2
sg13
(imyEvolve
Tree
p1010
(dp1011
g12
I1
sg13
(imyEvolve
Tree
p1012
(dp1013
g12
I0
sg20
I00
sbsg21
(imyEvolve
Tree
p1014
(dp1015
g12
I0
sg24
F-1.182734565240573
sg20
I01
sbsg25
I00
sg26
g56
sbsg21
(imyEvolve
Tree
p1016
(dp1017
g7
(imyEvolve
Tree
p1018
(dp1019
g12
I0
sg20
I00
sbsg12
I1
sg25
I01
sg26
g44
sbsg25
I00
sg26
g56
sbsg25
I00
sg26
g37
sbsg12
I4
sg25
I01
sg26
g44
sbsg12
I5
sg25
I01
sg26
g44
sba(imyEvolve
Tree
p1020
(dp1021
g7
(imyEvolve
Tree
p1022
(dp1023
g12
I3
sg13
(imyEvolve
Tree
p1024
(dp1025
g7
(imyEvolve
Tree
p1026
(dp1027
g12
I1
sg13
(imyEvolve
Tree
p1028
(dp1029
g12
I0
sg20
I00
sbsg21
(imyEvolve
Tree
p1030
(dp1031
g12
I0
sg20
I00
sbsg25
I00
sg26
g56
sbsg12
I2
sg25
I01
sg26
g45
sbsg21
(imyEvolve
Tree
p1032
(dp1033
g12
I2
sg13
(imyEvolve
Tree
p1034
(dp1035
g7
(imyEvolve
Tree
p1036
(dp1037
g12
I0
sg20
I00
sbsg12
I1
sg25
I01
sg26
g44
sbsg21
(imyEvolve
Tree
p1038
(dp1039
g7
(imyEvolve
Tree
p1040
(dp1041
g12
I0
sg20
I00
sbsg12
I1
sg25
I01
sg26
g45
sbsg25
I00
sg26
g27
sbsg25
I00
sg26
g56
sbsg12
I4
sg25
I01
sg26
g45
sba(imyEvolve
Tree
p1042
(dp1043
g12
I2
sg13
(imyEvolve
Tree
p1044
(dp1045
g12
I1
sg13
(imyEvolve
Tree
p1046
(dp1047
g12
I0
sg20
I00
sbsg21
(imyEvolve
Tree
p1048
(dp1049
g12
I0
sg24
F4.286869498333118
sg20
I01
sbsg25
I00
sg26
g56
sbsg21
(imyEvolve
Tree
p1050
(dp1051
g12
I1
sg13
(imyEvolve
Tree
p1052
(dp1053
g12
I0
sg24
F1.8786933156560508
sg20
I01
sbsg21
(imyEvolve
Tree
p1054
(dp1055
g12
I0
sg24
F1.80255674063718
sg20
I01
sbsg25
I00
sg26
g37
sbsg25
I00
sg26
g37
sba(imyEvolve
Tree
p1056
(dp1057
g12
I3
sg13
(imyEvolve
Tree
p1058
(dp1059
g7
(imyEvolve
Tree
p1060
(dp1061
g7
(imyEvolve
Tree
p1062
(dp1063
g12
I0
sg24
F2.9004890074254526
sg20
I01
sbsg12
I1
sg25
I01
sg26
g28
sbsg12
I2
sg25
I01
sg26
g93
sbsg21
(imyEvolve
Tree
p1064
(dp1065
g7
(imyEvolve
Tree
p1066
(dp1067
g7
(imyEvolve
Tree
p1068
(dp1069
g12
I0
sg24
F0.4340622356098267
sg20
I01
sbsg12
I1
sg25
I01
sg26
g44
sbsg12
I2
sg25
I01
sg26
g44
sbsg25
I00
sg26
g56
sbaasS'weightSharing'
p1070
(lp1071
I00
aI00
asS'fitnessValid'
p1072
I00
sS'fitness'
p1073
cnumpy.core.multiarray
scalar
p1074
(cnumpy
dtype
p1075
(S'f8'
p1076
I0
I1
tp1077
Rp1078
(I3
S'<'
p1079
NNNI-1
I-1
I0
tp1080
bS'\x00\x9a\xe6\x1d\xef\x1cQ?'
p1081
tp1082
Rp1083
sS'alpha'
p1084
F0.0034626920175458843
sS'resolution'
p1085
I58
sb.