(imyEvolve
Individual
p0
(dp1
S'funcs'
p2
(lp3
(lp4
(imyEvolve
Tree
p5
(dp6
S'below'
p7
(imyEvolve
Tree
p8
(dp9
S'depth'
p10
I2
sS'left'
p11
(imyEvolve
Tree
p12
(dp13
g10
I1
sg11
(imyEvolve
Tree
p14
(dp15
g10
I0
sS'constant'
p16
F2.323695315486635
sS'isConstant'
p17
I01
sbsS'right'
p18
(imyEvolve
Tree
p19
(dp20
g10
I0
sg17
I00
sbsS'single'
p21
I00
sS'op'
p22
coperator
sub
p23
sbsg18
(imyEvolve
Tree
p24
(dp25
g10
I1
sg11
(imyEvolve
Tree
p26
(dp27
g10
I0
sg16
F0.7983534966503916
sg17
I01
sbsg18
(imyEvolve
Tree
p28
(dp29
g10
I0
sg16
F-1.795165345691391
sg17
I01
sbsg21
I00
sg22
coperator
mul
p30
sbsg21
I00
sg22
g23
sbsg10
I3
sg21
I01
sg22
cmyEvolve
absSqrt
p31
sba(imyEvolve
Tree
p32
(dp33
g7
(imyEvolve
Tree
p34
(dp35
g7
(imyEvolve
Tree
p36
(dp37
g7
(imyEvolve
Tree
p38
(dp39
g7
(imyEvolve
Tree
p40
(dp41
g10
I0
sg17
I00
sbsg10
I1
sg21
I01
sg22
g31
sbsg10
I2
sg21
I01
sg22
cmath
sin
p42
sbsg10
I3
sg21
I01
sg22
cmath
cos
p43
sbsg10
I4
sg21
I01
sg22
cmyEvolve
square
p44
sba(imyEvolve
Tree
p45
(dp46
g7
(imyEvolve
Tree
p47
(dp48
g7
(imyEvolve
Tree
p49
(dp50
g10
I2
sg11
(imyEvolve
Tree
p51
(dp52
g7
(imyEvolve
Tree
p53
(dp54
g10
I0
sg17
I00
sbsg10
I1
sg21
I01
sg22
g42
sbsg18
(imyEvolve
Tree
p55
(dp56
g10
I1
sg11
(imyEvolve
Tree
p57
(dp58
g10
I0
sg16
F3.917669434482038
sg17
I01
sbsg18
(imyEvolve
Tree
p59
(dp60
g10
I0
sg17
I00
sbsg21
I00
sg22
coperator
add
p61
sbsg21
I00
sg22
g61
sbsg10
I3
sg21
I01
sg22
g31
sbsg10
I4
sg21
I01
sg22
g44
sba(imyEvolve
Tree
p62
(dp63
g10
I4
sg11
(imyEvolve
Tree
p64
(dp65
g7
(imyEvolve
Tree
p66
(dp67
g7
(imyEvolve
Tree
p68
(dp69
g10
I1
sg11
(imyEvolve
Tree
p70
(dp71
g10
I0
sg17
I00
sbsg18
(imyEvolve
Tree
p72
(dp73
g10
I0
sg16
F-1.4279732400558132
sg17
I01
sbsg21
I00
sg22
g23
sbsg10
I2
sg21
I01
sg22
g31
sbsg10
I3
sg21
I01
sg22
g31
sbsg18
(imyEvolve
Tree
p74
(dp75
g10
I3
sg11
(imyEvolve
Tree
p76
(dp77
g10
I2
sg11
(imyEvolve
Tree
p78
(dp79
g7
(imyEvolve
Tree
p80
(dp81
g10
I0
sg16
F-4.7344347790606465
sg17
I01
sbsg10
I1
sg21
I01
sg22
g42
sbsg18
(imyEvolve
Tree
p82
(dp83
g10
I1
sg11
(imyEvolve
Tree
p84
(dp85
g10
I0
sg16
F4.366455112459411
sg17
I01
sbsg18
(imyEvolve
Tree
p86
(dp87
g10
I0
sg17
I00
sbsg21
I00
sg22
g23
sbsg21
I00
sg22
g30
sbsg18
(imyEvolve
Tree
p88
(dp89
g10
I2
sg11
(imyEvolve
Tree
p90
(dp91
g7
(imyEvolve
Tree
p92
(dp93
g10
I0
sg16
F-3.003234315143888
sg17
I01
sbsg10
I1
sg21
I01
sg22
g43
sbsg18
(imyEvolve
Tree
p94
(dp95
g10
I1
sg11
(imyEvolve
Tree
p96
(dp97
g10
I0
sg17
I00
sbsg18
(imyEvolve
Tree
p98
(dp99
g10
I0
sg16
F1.080202641756972
sg17
I01
sbsg21
I00
sg22
g61
sbsg21
I00
sg22
g61
sbsg21
I00
sg22
g30
sbsg21
I00
sg22
g23
sba(imyEvolve
Tree
p100
(dp101
g10
I4
sg11
(imyEvolve
Tree
p102
(dp103
g10
I3
sg11
(imyEvolve
Tree
p104
(dp105
g10
I2
sg11
(imyEvolve
Tree
p106
(dp107
g10
I1
sg11
(imyEvolve
Tree
p108
(dp109
g10
I0
sg16
F-4.216047189135584
sg17
I01
sbsg18
(imyEvolve
Tree
p110
(dp111
g10
I0
sg17
I00
sbsg21
I00
sg22
g61
sbsg18
(imyEvolve
Tree
p112
(dp113
g10
I1
sg11
(imyEvolve
Tree
p114
(dp115
g10
I0
sg17
I00
sbsg18
(imyEvolve
Tree
p116
(dp117
g10
I0
sg17
I00
sbsg21
I00
sg22
g30
sbsg21
I00
sg22
g30
sbsg18
(imyEvolve
Tree
p118
(dp119
g10
I2
sg11
(imyEvolve
Tree
p120
(dp121
g7
(imyEvolve
Tree
p122
(dp123
g10
I0
sg17
I00
sbsg10
I1
sg21
I01
sg22
g42
sbsg18
(imyEvolve
Tree
p124
(dp125
g10
I1
sg11
(imyEvolve
Tree
p126
(dp127
g10
I0
sg16
F-3.717863096011972
sg17
I01
sbsg18
(imyEvolve
Tree
p128
(dp129
g10
I0
sg17
I00
sbsg21
I00
sg22
g23
sbsg21
I00
sg22
g30
sbsg21
I00
sg22
g23
sbsg18
(imyEvolve
Tree
p130
(dp131
g10
I3
sg11
(imyEvolve
Tree
p132
(dp133
g7
(imyEvolve
Tree
p134
(dp135
g10
I1
sg11
(imyEvolve
Tree
p136
(dp137
g10
I0
sg16
F-1.1714110377086318
sg17
I01
sbsg18
(imyEvolve
Tree
p138
(dp139
g10
I0
sg17
I00
sbsg21
I00
sg22
g23
sbsg10
I2
sg21
I01
sg22
g31
sbsg18
(imyEvolve
Tree
p140
(dp141
g7
(imyEvolve
Tree
p142
(dp143
g7
(imyEvolve
Tree
p144
(dp145
g10
I0
sg16
F-0.03600784160066972
sg17
I01
sbsg10
I1
sg21
I01
sg22
g42
sbsg10
I2
sg21
I01
sg22
g44
sbsg21
I00
sg22
g61
sbsg21
I00
sg22
g30
sba(imyEvolve
Tree
p146
(dp147
g10
I5
sg11
(imyEvolve
Tree
p148
(dp149
g10
I4
sg11
(imyEvolve
Tree
p150
(dp151
g10
I3
sg11
(imyEvolve
Tree
p152
(dp153
g10
I2
sg11
(imyEvolve
Tree
p154
(dp155
g10
I1
sg11
(imyEvolve
Tree
p156
(dp157
g10
I0
sg17
I00
sbsg18
(imyEvolve
Tree
p158
(dp159
g10
I0
sg16
F1.2564894837313636
sg17
I01
sbsg21
I00
sg22
g61
sbsg18
(imyEvolve
Tree
p160
(dp161
g7
(imyEvolve
Tree
p162
(dp163
g10
I0
sg16
F-0.5842889494614836
sg17
I01
sbsg10
I1
sg21
I01
sg22
g43
sbsg21
I00
sg22
g23
sbsg18
(imyEvolve
Tree
p164
(dp165
g7
(imyEvolve
Tree
p166
(dp167
g7
(imyEvolve
Tree
p168
(dp169
g10
I0
sg17
I00
sbsg10
I1
sg21
I01
sg22
g31
sbsg10
I2
sg21
I01
sg22
g42
sbsg21
I00
sg22
g30
sbsg18
(imyEvolve
Tree
p170
(dp171
g7
(imyEvolve
Tree
p172
(dp173
g7
(imyEvolve
Tree
p174
(dp175
g10
I1
sg11
(imyEvolve
Tree
p176
(dp177
g10
I0
sg16
F0.25370608320376853
sg17
I01
sbsg18
(imyEvolve
Tree
p178
(dp179
g10
I0
sg16
F4.869711027969361
sg17
I01
sbsg21
I00
sg22
g30
sbsg10
I2
sg21
I01
sg22
g31
sbsg10
I3
sg21
I01
sg22
g44
sbsg21
I00
sg22
g61
sbsg18
(imyEvolve
Tree
p180
(dp181
g10
I4
sg11
(imyEvolve
Tree
p182
(dp183
g7
(imyEvolve
Tree
p184
(dp185
g10
I2
sg11
(imyEvolve
Tree
p186
(dp187
g7
(imyEvolve
Tree
p188
(dp189
g10
I0
sg16
F-3.2206880571918473
sg17
I01
sbsg10
I1
sg21
I01
sg22
g42
sbsg18
(imyEvolve
Tree
p190
(dp191
g10
I1
sg11
(imyEvolve
Tree
p192
(dp193
g10
I0
sg16
F4.187150605061909
sg17
I01
sbsg18
(imyEvolve
Tree
p194
(dp195
g10
I0
sg17
I00
sbsg21
I00
sg22
g23
sbsg21
I00
sg22
g61
sbsg10
I3
sg21
I01
sg22
g31
sbsg18
(imyEvolve
Tree
p196
(dp197
g10
I3
sg11
(imyEvolve
Tree
p198
(dp199
g7
(imyEvolve
Tree
p200
(dp201
g7
(imyEvolve
Tree
p202
(dp203
g10
I0
sg16
F-2.9708738218108954
sg17
I01
sbsg10
I1
sg21
I01
sg22
g44
sbsg10
I2
sg21
I01
sg22
g43
sbsg18
(imyEvolve
Tree
p204
(dp205
g10
I2
sg11
(imyEvolve
Tree
p206
(dp207
g7
(imyEvolve
Tree
p208
(dp209
g10
I0
sg17
I00
sbsg10
I1
sg21
I01
sg22
g42
sbsg18
(imyEvolve
Tree
p210
(dp211
g10
I1
sg11
(imyEvolve
Tree
p212
(dp213
g10
I0
sg17
I00
sbsg18
(imyEvolve
Tree
p214
(dp215
g10
I0
sg16
F3.1235426409321487
sg17
I01
sbsg21
I00
sg22
g30
sbsg21
I00
sg22
g30
sbsg21
I00
sg22
g23
sbsg21
I00
sg22
g23
sbsg21
I00
sg22
g61
sba(imyEvolve
Tree
p216
(dp217
g10
I3
sg11
(imyEvolve
Tree
p218
(dp219
g10
I2
sg11
(imyEvolve
Tree
p220
(dp221
g10
I1
sg11
(imyEvolve
Tree
p222
(dp223
g10
I0
sg16
F2.895180382625008
sg17
I01
sbsg18
(imyEvolve
Tree
p224
(dp225
g10
I0
sg16
F-4.606868491702723
sg17
I01
sbsg21
I00
sg22
g30
sbsg18
(imyEvolve
Tree
p226
(dp227
g10
I1
sg11
(imyEvolve
Tree
p228
(dp229
g10
I0
sg17
I00
sbsg18
(imyEvolve
Tree
p230
(dp231
g10
I0
sg16
F3.980034239815291
sg17
I01
sbsg21
I00
sg22
g61
sbsg21
I00
sg22
g30
sbsg18
(imyEvolve
Tree
p232
(dp233
g7
(imyEvolve
Tree
p234
(dp235
g10
I1
sg11
(imyEvolve
Tree
p236
(dp237
g10
I0
sg16
F4.148284638296365
sg17
I01
sbsg18
(imyEvolve
Tree
p238
(dp239
g10
I0
sg17
I00
sbsg21
I00
sg22
g61
sbsg10
I2
sg21
I01
sg22
g42
sbsg21
I00
sg22
g30
sba(imyEvolve
Tree
p240
(dp241
g10
I3
sg11
(imyEvolve
Tree
p242
(dp243
g10
I2
sg11
(imyEvolve
Tree
p244
(dp245
g10
I1
sg11
(imyEvolve
Tree
p246
(dp247
g10
I0
sg17
I00
sbsg18
(imyEvolve
Tree
p248
(dp249
g10
I0
sg16
F2.1065049764265096
sg17
I01
sbsg21
I00
sg22
g61
sbsg18
(imyEvolve
Tree
p250
(dp251
g10
I1
sg11
(imyEvolve
Tree
p252
(dp253
g10
I0
sg16
F2.5446875272180405
sg17
I01
sbsg18
(imyEvolve
Tree
p254
(dp255
g10
I0
sg16
F-2.0508873069802647
sg17
I01
sbsg21
I00
sg22
g23
sbsg21
I00
sg22
g23
sbsg18
(imyEvolve
Tree
p256
(dp257
g7
(imyEvolve
Tree
p258
(dp259
g10
I1
sg11
(imyEvolve
Tree
p260
(dp261
g10
I0
sg17
I00
sbsg18
(imyEvolve
Tree
p262
(dp263
g10
I0
sg17
I00
sbsg21
I00
sg22
g23
sbsg10
I2
sg21
I01
sg22
g31
sbsg21
I00
sg22
g30
sba(imyEvolve
Tree
p264
(dp265
g10
I2
sg11
(imyEvolve
Tree
p266
(dp267
g7
(imyEvolve
Tree
p268
(dp269
g10
I0
sg16
F-2.844247016293436
sg17
I01
sbsg10
I1
sg21
I01
sg22
g42
sbsg18
(imyEvolve
Tree
p270
(dp271
g7
(imyEvolve
Tree
p272
(dp273
g10
I0
sg17
I00
sbsg10
I1
sg21
I01
sg22
g42
sbsg21
I00
sg22
g30
sba(imyEvolve
Tree
p274
(dp275
g10
I2
sg11
(imyEvolve
Tree
p276
(dp277
g7
(imyEvolve
Tree
p278
(dp279
g10
I0
sg17
I00
sbsg10
I1
sg21
I01
sg22
g42
sbsg18
(imyEvolve
Tree
p280
(dp281
g7
(imyEvolve
Tree
p282
(dp283
g10
I0
sg17
I00
sbsg10
I1
sg21
I01
sg22
g44
sbsg21
I00
sg22
g61
sba(imyEvolve
Tree
p284
(dp285
g10
I5
sg11
(imyEvolve
Tree
p286
(dp287
g7
(imyEvolve
Tree
p288
(dp289
g7
(imyEvolve
Tree
p290
(dp291
g7
(imyEvolve
Tree
p292
(dp293
g10
I1
sg11
(imyEvolve
Tree
p294
(dp295
g10
I0
sg16
F-3.764988364048829
sg17
I01
sbsg18
(imyEvolve
Tree
p296
(dp297
g10
I0
sg17
I00
sbsg21
I00
sg22
g23
sbsg10
I2
sg21
I01
sg22
g43
sbsg10
I3
sg21
I01
sg22
g43
sbsg10
I4
sg21
I01
sg22
g42
sbsg18
(imyEvolve
Tree
p298
(dp299
g10
I4
sg11
(imyEvolve
Tree
p300
(dp301
g10
I3
sg11
(imyEvolve
Tree
p302
(dp303
g10
I2
sg11
(imyEvolve
Tree
p304
(dp305
g10
I1
sg11
(imyEvolve
Tree
p306
(dp307
g10
I0
sg16
F-1.5623523719156038
sg17
I01
sbsg18
(imyEvolve
Tree
p308
(dp309
g10
I0
sg16
F-4.027892048710964
sg17
I01
sbsg21
I00
sg22
g23
sbsg18
(imyEvolve
Tree
p310
(dp311
g10
I1
sg11
(imyEvolve
Tree
p312
(dp313
g10
I0
sg17
I00
sbsg18
(imyEvolve
Tree
p314
(dp315
g10
I0
sg16
F-2.3778168924333065
sg17
I01
sbsg21
I00
sg22
g23
sbsg21
I00
sg22
g30
sbsg18
(imyEvolve
Tree
p316
(dp317
g7
(imyEvolve
Tree
p318
(dp319
g7
(imyEvolve
Tree
p320
(dp321
g10
I0
sg16
F4.943589809261297
sg17
I01
sbsg10
I1
sg21
I01
sg22
g44
sbsg10
I2
sg21
I01
sg22
g31
sbsg21
I00
sg22
g23
sbsg18
(imyEvolve
Tree
p322
(dp323
g10
I3
sg11
(imyEvolve
Tree
p324
(dp325
g10
I2
sg11
(imyEvolve
Tree
p326
(dp327
g10
I1
sg11
(imyEvolve
Tree
p328
(dp329
g10
I0
sg17
I00
sbsg18
(imyEvolve
Tree
p330
(dp331
g10
I0
sg16
F-3.5972950242996404
sg17
I01
sbsg21
I00
sg22
g61
sbsg18
(imyEvolve
Tree
p332
(dp333
g7
(imyEvolve
Tree
p334
(dp335
g10
I0
sg16
F-0.5371023505090662
sg17
I01
sbsg10
I1
sg21
I01
sg22
g44
sbsg21
I00
sg22
g61
sbsg18
(imyEvolve
Tree
p336
(dp337
g7
(imyEvolve
Tree
p338
(dp339
g7
(imyEvolve
Tree
p340
(dp341
g10
I0
sg16
F-0.2730219444978532
sg17
I01
sbsg10
I1
sg21
I01
sg22
g44
sbsg10
I2
sg21
I01
sg22
g42
sbsg21
I00
sg22
g23
sbsg21
I00
sg22
g30
sbsg21
I00
sg22
g61
sba(imyEvolve
Tree
p342
(dp343
g7
(imyEvolve
Tree
p344
(dp345
g7
(imyEvolve
Tree
p346
(dp347
g10
I0
sg17
I00
sbsg10
I1
sg21
I01
sg22
g31
sbsg10
I2
sg21
I01
sg22
g42
sba(imyEvolve
Tree
p348
(dp349
g7
(imyEvolve
Tree
p350
(dp351
g7
(imyEvolve
Tree
p352
(dp353
g7
(imyEvolve
Tree
p354
(dp355
g7
(imyEvolve
Tree
p356
(dp357
g10
I0
sg16
F-0.5117536437983077
sg17
I01
sbsg10
I1
sg21
I01
sg22
g44
sbsg10
I2
sg21
I01
sg22
g43
sbsg10
I3
sg21
I01
sg22
g44
sbsg10
I4
sg21
I01
sg22
g43
sba(imyEvolve
Tree
p358
(dp359
g10
I3
sg11
(imyEvolve
Tree
p360
(dp361
g7
(imyEvolve
Tree
p362
(dp363
g10
I1
sg11
(imyEvolve
Tree
p364
(dp365
g10
I0
sg16
F0.5616132740414379
sg17
I01
sbsg18
(imyEvolve
Tree
p366
(dp367
g10
I0
sg16
F3.040783066345133
sg17
I01
sbsg21
I00
sg22
g23
sbsg10
I2
sg21
I01
sg22
g44
sbsg18
(imyEvolve
Tree
p368
(dp369
g10
I2
sg11
(imyEvolve
Tree
p370
(dp371
g7
(imyEvolve
Tree
p372
(dp373
g10
I0
sg17
I00
sbsg10
I1
sg21
I01
sg22
g31
sbsg18
(imyEvolve
Tree
p374
(dp375
g10
I1
sg11
(imyEvolve
Tree
p376
(dp377
g10
I0
sg16
F-2.994637726337268
sg17
I01
sbsg18
(imyEvolve
Tree
p378
(dp379
g10
I0
sg16
F0.9321193219790302
sg17
I01
sbsg21
I00
sg22
g30
sbsg21
I00
sg22
g61
sbsg21
I00
sg22
g30
sba(imyEvolve
Tree
p380
(dp381
g7
(imyEvolve
Tree
p382
(dp383
g7
(imyEvolve
Tree
p384
(dp385
g10
I1
sg11
(imyEvolve
Tree
p386
(dp387
g10
I0
sg17
I00
sbsg18
(imyEvolve
Tree
p388
(dp389
g10
I0
sg17
I00
sbsg21
I00
sg22
g61
sbsg10
I2
sg21
I01
sg22
g44
sbsg10
I3
sg21
I01
sg22
g42
sba(imyEvolve
Tree
p390
(dp391
g7
(imyEvolve
Tree
p392
(dp393
g10
I4
sg11
(imyEvolve
Tree
p394
(dp395
g10
I3
sg11
(imyEvolve
Tree
p396
(dp397
g10
I2
sg11
(imyEvolve
Tree
p398
(dp399
g10
I1
sg11
(imyEvolve
Tree
p400
(dp401
g10
I0
sg17
I00
sbsg18
(imyEvolve
Tree
p402
(dp403
g10
I0
sg16
F-1.2282722764097107
sg17
I01
sbsg21
I00
sg22
g23
sbsg18
(imyEvolve
Tree
p404
(dp405
g10
I1
sg11
(imyEvolve
Tree
p406
(dp407
g10
I0
sg16
F1.3031561204765199
sg17
I01
sbsg18
(imyEvolve
Tree
p408
(dp409
g10
I0
sg16
F-0.582988029456228
sg17
I01
sbsg21
I00
sg22
g30
sbsg21
I00
sg22
g23
sbsg18
(imyEvolve
Tree
p410
(dp411
g7
(imyEvolve
Tree
p412
(dp413
g10
I1
sg11
(imyEvolve
Tree
p414
(dp415
g10
I0
sg16
F-3.465712426868186
sg17
I01
sbsg18
(imyEvolve
Tree
p416
(dp417
g10
I0
sg17
I00
sbsg21
I00
sg22
g23
sbsg10
I2
sg21
I01
sg22
g44
sbsg21
I00
sg22
g61
sbsg18
(imyEvolve
Tree
p418
(dp419
g10
I3
sg11
(imyEvolve
Tree
p420
(dp421
g7
(imyEvolve
Tree
p422
(dp423
g10
I1
sg11
(imyEvolve
Tree
p424
(dp425
g10
I0
sg17
I00
sbsg18
(imyEvolve
Tree
p426
(dp427
g10
I0
sg16
F-2.4204609678304125
sg17
I01
sbsg21
I00
sg22
g30
sbsg10
I2
sg21
I01
sg22
g31
sbsg18
(imyEvolve
Tree
p428
(dp429
g7
(imyEvolve
Tree
p430
(dp431
g7
(imyEvolve
Tree
p432
(dp433
g10
I0
sg17
I00
sbsg10
I1
sg21
I01
sg22
g44
sbsg10
I2
sg21
I01
sg22
g42
sbsg21
I00
sg22
g30
sbsg21
I00
sg22
g61
sbsg10
I5
sg21
I01
sg22
g43
sba(imyEvolve
Tree
p434
(dp435
g7
(imyEvolve
Tree
p436
(dp437
g7
(imyEvolve
Tree
p438
(dp439
g10
I0
sg16
F-2.9340040031678383
sg17
I01
sbsg10
I1
sg21
I01
sg22
g44
sbsg10
I2
sg21
I01
sg22
g44
sba(imyEvolve
Tree
p440
(dp441
g10
I3
sg11
(imyEvolve
Tree
p442
(dp443
g7
(imyEvolve
Tree
p444
(dp445
g10
I1
sg11
(imyEvolve
Tree
p446
(dp447
g10
I0
sg16
F3.869984800964387
sg17
I01
sbsg18
(imyEvolve
Tree
p448
(dp449
g10
I0
sg16
F-2.317057800118535
sg17
I01
sbsg21
I00
sg22
g61
sbsg10
I2
sg21
I01
sg22
g42
sbsg18
(imyEvolve
Tree
p450
(dp451
g10
I2
sg11
(imyEvolve
Tree
p452
(dp453
g7
(imyEvolve
Tree
p454
(dp455
g10
I0
sg16
F-3.3893153829963407
sg17
I01
sbsg10
I1
sg21
I01
sg22
g44
sbsg18
(imyEvolve
Tree
p456
(dp457
g7
(imyEvolve
Tree
p458
(dp459
g10
I0
sg16
F1.4068087916827228
sg17
I01
sbsg10
I1
sg21
I01
sg22
g44
sbsg21
I00
sg22
g23
sbsg21
I00
sg22
g23
sba(imyEvolve
Tree
p460
(dp461
g10
I2
sg11
(imyEvolve
Tree
p462
(dp463
g7
(imyEvolve
Tree
p464
(dp465
g10
I0
sg17
I00
sbsg10
I1
sg21
I01
sg22
g31
sbsg18
(imyEvolve
Tree
p466
(dp467
g10
I1
sg11
(imyEvolve
Tree
p468
(dp469
g10
I0
sg16
F-4.198801979907661
sg17
I01
sbsg18
(imyEvolve
Tree
p470
(dp471
g10
I0
sg16
F-3.1422311854101057
sg17
I01
sbsg21
I00
sg22
g23
sbsg21
I00
sg22
g23
sba(imyEvolve
Tree
p472
(dp473
g7
(imyEvolve
Tree
p474
(dp475
g7
(imyEvolve
Tree
p476
(dp477
g7
(imyEvolve
Tree
p478
(dp479
g7
(imyEvolve
Tree
p480
(dp481
g10
I0
sg17
I00
sbsg10
I1
sg21
I01
sg22
g42
sbsg10
I2
sg21
I01
sg22
g44
sbsg10
I3
sg21
I01
sg22
g31
sbsg10
I4
sg21
I01
sg22
g44
sbaasS'weightSharing'
p482
(lp483
I00
aI00
aI00
aI00
aI00
aI00
asS'fitnessValid'
p484
I00
sS'fitness'
p485
cnumpy.core.multiarray
scalar
p486
(cnumpy
dtype
p487
(S'f8'
p488
I0
I1
tp489
Rp490
(I3
S'<'
p491
NNNI-1
I-1
I0
tp492
bS'\x00\x80O\x1e\x16<\xfb\xbe'
p493
tp494
Rp495
sS'alpha'
p496
F0.008543995720080065
sS'resolution'
p497
I71
sb.