(imyEvolve
Individual
p0
(dp1
S'funcs'
p2
(lp3
(lp4
(imyEvolve
Tree
p5
(dp6
S'below'
p7
(imyEvolve
Tree
p8
(dp9
S'left'
p10
(imyEvolve
Tree
p11
(dp12
g7
(imyEvolve
Tree
p13
(dp14
g10
(imyEvolve
Tree
p15
(dp16
g7
(imyEvolve
Tree
p17
(dp18
S'depth'
p19
I0
sS'constant'
p20
F-2.9364946928065008
sS'isConstant'
p21
I01
sbsg19
I1
sS'single'
p22
I01
sS'op'
p23
cmath
cos
p24
sbsg19
I2
sS'right'
p25
(imyEvolve
Tree
p26
(dp27
g7
(imyEvolve
Tree
p28
(dp29
g19
I0
sg20
F-3.572471582026553
sg21
I01
sbsg19
I1
sg22
I01
sg23
g24
sbsg22
I00
sg23
coperator
mul
p30
sbsg19
I3
sg22
I01
sg23
g24
sbsg19
I4
sg25
(imyEvolve
Tree
p31
(dp32
g10
(imyEvolve
Tree
p33
(dp34
g10
(imyEvolve
Tree
p35
(dp36
g10
(imyEvolve
Tree
p37
(dp38
g19
I0
sg21
I00
sbsg19
I1
sg25
(imyEvolve
Tree
p39
(dp40
g19
I0
sg21
I00
sbsg22
I00
sg23
coperator
sub
p41
sbsg19
I2
sg25
(imyEvolve
Tree
p42
(dp43
g7
(imyEvolve
Tree
p44
(dp45
g19
I0
sg20
F2.1304730869402917
sg21
I01
sbsg19
I1
sg22
I01
sg23
cmyEvolve
square
p46
sbsg22
I00
sg23
g30
sbsg19
I3
sg25
(imyEvolve
Tree
p47
(dp48
g7
(imyEvolve
Tree
p49
(dp50
g7
(imyEvolve
Tree
p51
(dp52
g19
I0
sg21
I00
sbsg19
I1
sg22
I01
sg23
g24
sbsg19
I2
sg22
I01
sg23
cmyEvolve
absSqrt
p53
sbsg22
I00
sg23
g30
sbsg22
I00
sg23
coperator
add
p54
sbsg19
I5
sg22
I01
sg23
g24
sba(imyEvolve
Tree
p55
(dp56
g7
(imyEvolve
Tree
p57
(dp58
g10
(imyEvolve
Tree
p59
(dp60
g19
I0
sg21
I00
sbsg19
I1
sg25
(imyEvolve
Tree
p61
(dp62
g19
I0
sg21
I00
sbsg22
I00
sg23
g30
sbsg19
I2
sg22
I01
sg23
g46
sba(imyEvolve
Tree
p63
(dp64
g10
(imyEvolve
Tree
p65
(dp66
g10
(imyEvolve
Tree
p67
(dp68
g7
(imyEvolve
Tree
p69
(dp70
g7
(imyEvolve
Tree
p71
(dp72
g7
(imyEvolve
Tree
p73
(dp74
g19
I0
sg21
I00
sbsg19
I1
sg22
I01
sg23
g46
sbsg19
I2
sg22
I01
sg23
cmath
sin
p75
sbsg19
I3
sg22
I01
sg23
g75
sbsg19
I4
sg25
(imyEvolve
Tree
p76
(dp77
g10
(imyEvolve
Tree
p78
(dp79
g10
(imyEvolve
Tree
p80
(dp81
g7
(imyEvolve
Tree
p82
(dp83
g19
I0
sg20
F-2.194625601492215
sg21
I01
sbsg19
I1
sg22
I01
sg23
g53
sbsg19
I2
sg25
(imyEvolve
Tree
p84
(dp85
g7
(imyEvolve
Tree
p86
(dp87
g19
I0
sg21
I00
sbsg19
I1
sg22
I01
sg23
g53
sbsg22
I00
sg23
g30
sbsg19
I3
sg25
(imyEvolve
Tree
p88
(dp89
g7
(imyEvolve
Tree
p90
(dp91
g10
(imyEvolve
Tree
p92
(dp93
g19
I0
sg20
F-3.0780543946744086
sg21
I01
sbsg19
I1
sg25
(imyEvolve
Tree
p94
(dp95
g19
I0
sg20
F-0.23402464932056333
sg21
I01
sbsg22
I00
sg23
g30
sbsg19
I2
sg22
I01
sg23
g75
sbsg22
I00
sg23
g41
sbsg22
I00
sg23
g54
sbsg19
I5
sg25
(imyEvolve
Tree
p96
(dp97
g7
(imyEvolve
Tree
p98
(dp99
g7
(imyEvolve
Tree
p100
(dp101
g7
(imyEvolve
Tree
p102
(dp103
g7
(imyEvolve
Tree
p104
(dp105
g19
I0
sg21
I00
sbsg19
I1
sg22
I01
sg23
g53
sbsg19
I2
sg22
I01
sg23
g46
sbsg19
I3
sg22
I01
sg23
g24
sbsg19
I4
sg22
I01
sg23
g75
sbsg22
I00
sg23
g30
sba(imyEvolve
Tree
p106
(dp107
g19
I4
sg10
(imyEvolve
Tree
p108
(dp109
g19
I3
sg10
(imyEvolve
Tree
p110
(dp111
g19
I2
sg10
(imyEvolve
Tree
p112
(dp113
g7
(imyEvolve
Tree
p114
(dp115
g19
I0
sg21
I00
sbsg19
I1
sg22
I01
sg23
g24
sbsg25
(imyEvolve
Tree
p116
(dp117
g19
I1
sg10
(imyEvolve
Tree
p118
(dp119
g19
I0
sg21
I00
sbsg25
(imyEvolve
Tree
p120
(dp121
g19
I0
sg21
I00
sbsg22
I00
sg23
g54
sbsg22
I00
sg23
g30
sbsg25
(imyEvolve
Tree
p122
(dp123
g7
(imyEvolve
Tree
p124
(dp125
g19
I1
sg10
(imyEvolve
Tree
p126
(dp127
g19
I0
sg20
F-0.6002161637023908
sg21
I01
sbsg25
(imyEvolve
Tree
p128
(dp129
g19
I0
sg21
I00
sbsg22
I00
sg23
g30
sbsg19
I2
sg22
I01
sg23
g53
sbsg22
I00
sg23
g41
sbsg25
(imyEvolve
Tree
p130
(dp131
g19
I3
sg10
(imyEvolve
Tree
p132
(dp133
g7
(imyEvolve
Tree
p134
(dp135
g19
I1
sg10
(imyEvolve
Tree
p136
(dp137
g19
I0
sg20
F1.3747173946291902
sg21
I01
sbsg25
(imyEvolve
Tree
p138
(dp139
g19
I0
sg20
F-4.4813506514255685
sg21
I01
sbsg22
I00
sg23
g30
sbsg19
I2
sg22
I01
sg23
g75
sbsg25
(imyEvolve
Tree
p140
(dp141
g19
I2
sg10
(imyEvolve
Tree
p142
(dp143
g7
(imyEvolve
Tree
p144
(dp145
g19
I0
sg21
I00
sbsg19
I1
sg22
I01
sg23
g75
sbsg25
(imyEvolve
Tree
p146
(dp147
g7
(imyEvolve
Tree
p148
(dp149
g19
I0
sg21
I00
sbsg19
I1
sg22
I01
sg23
g53
sbsg22
I00
sg23
g41
sbsg22
I00
sg23
g54
sbsg22
I00
sg23
g54
sba(imyEvolve
Tree
p150
(dp151
g7
(imyEvolve
Tree
p152
(dp153
g7
(imyEvolve
Tree
p154
(dp155
g10
(imyEvolve
Tree
p156
(dp157
g7
(imyEvolve
Tree
p158
(dp159
g7
(imyEvolve
Tree
p160
(dp161
g19
I0
sg20
F-3.5605797211046495
sg21
I01
sbsg19
I1
sg22
I01
sg23
g46
sbsg19
I2
sg22
I01
sg23
g53
sbsg19
I3
sg25
(imyEvolve
Tree
p162
(dp163
g7
(imyEvolve
Tree
p164
(dp165
g7
(imyEvolve
Tree
p166
(dp167
g19
I0
sg21
I00
sbsg19
I1
sg22
I01
sg23
g53
sbsg19
I2
sg22
I01
sg23
g75
sbsg22
I00
sg23
g41
sbsg19
I4
sg22
I01
sg23
g24
sbsg19
I5
sg22
I01
sg23
g24
sba(imyEvolve
Tree
p168
(dp169
g7
(imyEvolve
Tree
p170
(dp171
g10
(imyEvolve
Tree
p172
(dp173
g19
I0
sg21
I00
sbsg19
I1
sg25
(imyEvolve
Tree
p174
(dp175
g19
I0
sg21
I00
sbsg22
I00
sg23
g41
sbsg19
I2
sg22
I01
sg23
g24
sba(imyEvolve
Tree
p176
(dp177
g10
(imyEvolve
Tree
p178
(dp179
g7
(imyEvolve
Tree
p180
(dp181
g10
(imyEvolve
Tree
p182
(dp183
g7
(imyEvolve
Tree
p184
(dp185
g19
I0
sg21
I00
sbsg19
I1
sg22
I01
sg23
g53
sbsg19
I2
sg25
(imyEvolve
Tree
p186
(dp187
g10
(imyEvolve
Tree
p188
(dp189
g19
I0
sg20
F-1.4711310797438673
sg21
I01
sbsg19
I1
sg25
(imyEvolve
Tree
p190
(dp191
g19
I0
sg21
I00
sbsg22
I00
sg23
g41
sbsg22
I00
sg23
g41
sbsg19
I3
sg22
I01
sg23
g75
sbsg19
I4
sg25
(imyEvolve
Tree
p192
(dp193
g7
(imyEvolve
Tree
p194
(dp195
g7
(imyEvolve
Tree
p196
(dp197
g7
(imyEvolve
Tree
p198
(dp199
g19
I0
sg20
F4.093173283460931
sg21
I01
sbsg19
I1
sg22
I01
sg23
g53
sbsg19
I2
sg22
I01
sg23
g46
sbsg19
I3
sg22
I01
sg23
g24
sbsg22
I00
sg23
g30
sba(imyEvolve
Tree
p200
(dp201
g7
(imyEvolve
Tree
p202
(dp203
g19
I4
sg10
(imyEvolve
Tree
p204
(dp205
g19
I3
sg10
(imyEvolve
Tree
p206
(dp207
g19
I2
sg10
(imyEvolve
Tree
p208
(dp209
g7
(imyEvolve
Tree
p210
(dp211
g19
I0
sg21
I00
sbsg19
I1
sg22
I01
sg23
g46
sbsg25
(imyEvolve
Tree
p212
(dp213
g7
(imyEvolve
Tree
p214
(dp215
g19
I0
sg21
I00
sbsg19
I1
sg22
I01
sg23
g24
sbsg22
I00
sg23
g41
sbsg25
(imyEvolve
Tree
p216
(dp217
g19
I2
sg10
(imyEvolve
Tree
p218
(dp219
g19
I1
sg10
(imyEvolve
Tree
p220
(dp221
g19
I0
sg21
I00
sbsg25
(imyEvolve
Tree
p222
(dp223
g19
I0
sg21
I00
sbsg22
I00
sg23
g41
sbsg25
(imyEvolve
Tree
p224
(dp225
g19
I1
sg10
(imyEvolve
Tree
p226
(dp227
g19
I0
sg21
I00
sbsg25
(imyEvolve
Tree
p228
(dp229
g19
I0
sg21
I00
sbsg22
I00
sg23
g30
sbsg22
I00
sg23
g41
sbsg22
I00
sg23
g41
sbsg25
(imyEvolve
Tree
p230
(dp231
g7
(imyEvolve
Tree
p232
(dp233
g19
I2
sg10
(imyEvolve
Tree
p234
(dp235
g19
I1
sg10
(imyEvolve
Tree
p236
(dp237
g19
I0
sg21
I00
sbsg25
(imyEvolve
Tree
p238
(dp239
g19
I0
sg21
I00
sbsg22
I00
sg23
g30
sbsg25
(imyEvolve
Tree
p240
(dp241
g7
(imyEvolve
Tree
p242
(dp243
g19
I0
sg21
I00
sbsg19
I1
sg22
I01
sg23
g53
sbsg22
I00
sg23
g54
sbsg19
I3
sg22
I01
sg23
g46
sbsg22
I00
sg23
g54
sbsg19
I5
sg22
I01
sg23
g53
sba(imyEvolve
Tree
p244
(dp245
g10
(imyEvolve
Tree
p246
(dp247
g10
(imyEvolve
Tree
p248
(dp249
g10
(imyEvolve
Tree
p250
(dp251
g7
(imyEvolve
Tree
p252
(dp253
g10
(imyEvolve
Tree
p254
(dp255
g19
I0
sg21
I00
sbsg19
I1
sg25
(imyEvolve
Tree
p256
(dp257
g19
I0
sg20
F-3.1588421602934655
sg21
I01
sbsg22
I00
sg23
g30
sbsg19
I2
sg22
I01
sg23
g24
sbsg19
I3
sg25
(imyEvolve
Tree
p258
(dp259
g10
(imyEvolve
Tree
p260
(dp261
g7
(imyEvolve
Tree
p262
(dp263
g19
I0
sg20
F2.3521657001242726
sg21
I01
sbsg19
I1
sg22
I01
sg23
g46
sbsg19
I2
sg25
(imyEvolve
Tree
p264
(dp265
g10
(imyEvolve
Tree
p266
(dp267
g19
I0
sg21
I00
sbsg19
I1
sg25
(imyEvolve
Tree
p268
(dp269
g19
I0
sg20
F1.687607381302314
sg21
I01
sbsg22
I00
sg23
g41
sbsg22
I00
sg23
g30
sbsg22
I00
sg23
g41
sbsg19
I4
sg25
(imyEvolve
Tree
p270
(dp271
g7
(imyEvolve
Tree
p272
(dp273
g10
(imyEvolve
Tree
p274
(dp275
g7
(imyEvolve
Tree
p276
(dp277
g19
I0
sg21
I00
sbsg19
I1
sg22
I01
sg23
g24
sbsg19
I2
sg25
(imyEvolve
Tree
p278
(dp279
g7
(imyEvolve
Tree
p280
(dp281
g19
I0
sg20
F3.2501511916158012
sg21
I01
sbsg19
I1
sg22
I01
sg23
g53
sbsg22
I00
sg23
g41
sbsg19
I3
sg22
I01
sg23
g53
sbsg22
I00
sg23
g54
sbsg19
I5
sg25
(imyEvolve
Tree
p282
(dp283
g7
(imyEvolve
Tree
p284
(dp285
g10
(imyEvolve
Tree
p286
(dp287
g7
(imyEvolve
Tree
p288
(dp289
g10
(imyEvolve
Tree
p290
(dp291
g19
I0
sg21
I00
sbsg19
I1
sg25
(imyEvolve
Tree
p292
(dp293
g19
I0
sg20
F-0.4971146818405314
sg21
I01
sbsg22
I00
sg23
g54
sbsg19
I2
sg22
I01
sg23
g24
sbsg19
I3
sg25
(imyEvolve
Tree
p294
(dp295
g7
(imyEvolve
Tree
p296
(dp297
g10
(imyEvolve
Tree
p298
(dp299
g19
I0
sg21
I00
sbsg19
I1
sg25
(imyEvolve
Tree
p300
(dp301
g19
I0
sg21
I00
sbsg22
I00
sg23
g30
sbsg19
I2
sg22
I01
sg23
g75
sbsg22
I00
sg23
g41
sbsg19
I4
sg22
I01
sg23
g24
sbsg22
I00
sg23
g41
sba(imyEvolve
Tree
p302
(dp303
g7
(imyEvolve
Tree
p304
(dp305
g7
(imyEvolve
Tree
p306
(dp307
g7
(imyEvolve
Tree
p308
(dp309
g10
(imyEvolve
Tree
p310
(dp311
g7
(imyEvolve
Tree
p312
(dp313
g19
I0
sg21
I00
sbsg19
I1
sg22
I01
sg23
g75
sbsg19
I2
sg25
(imyEvolve
Tree
p314
(dp315
g10
(imyEvolve
Tree
p316
(dp317
g19
I0
sg21
I00
sbsg19
I1
sg25
(imyEvolve
Tree
p318
(dp319
g19
I0
sg20
F0.8911251189838865
sg21
I01
sbsg22
I00
sg23
g41
sbsg22
I00
sg23
g54
sbsg19
I3
sg22
I01
sg23
g53
sbsg19
I4
sg22
I01
sg23
g46
sbsg19
I5
sg22
I01
sg23
g24
sba(imyEvolve
Tree
p320
(dp321
g19
I5
sg10
(imyEvolve
Tree
p322
(dp323
g7
(imyEvolve
Tree
p324
(dp325
g7
(imyEvolve
Tree
p326
(dp327
g19
I2
sg10
(imyEvolve
Tree
p328
(dp329
g7
(imyEvolve
Tree
p330
(dp331
g19
I0
sg21
I00
sbsg19
I1
sg22
I01
sg23
g24
sbsg25
(imyEvolve
Tree
p332
(dp333
g19
I1
sg10
(imyEvolve
Tree
p334
(dp335
g19
I0
sg21
I00
sbsg25
(imyEvolve
Tree
p336
(dp337
g19
I0
sg21
I00
sbsg22
I00
sg23
g30
sbsg22
I00
sg23
g54
sbsg19
I3
sg22
I01
sg23
g46
sbsg19
I4
sg22
I01
sg23
g46
sbsg25
(imyEvolve
Tree
p338
(dp339
g7
(imyEvolve
Tree
p340
(dp341
g7
(imyEvolve
Tree
p342
(dp343
g19
I2
sg10
(imyEvolve
Tree
p344
(dp345
g19
I1
sg10
(imyEvolve
Tree
p346
(dp347
g19
I0
sg20
F-3.57539013068624
sg21
I01
sbsg25
(imyEvolve
Tree
p348
(dp349
g19
I0
sg21
I00
sbsg22
I00
sg23
g54
sbsg25
(imyEvolve
Tree
p350
(dp351
g19
I1
sg10
(imyEvolve
Tree
p352
(dp353
g19
I0
sg20
F1.55186736727328
sg21
I01
sbsg25
(imyEvolve
Tree
p354
(dp355
g19
I0
sg21
I00
sbsg22
I00
sg23
g54
sbsg22
I00
sg23
g41
sbsg19
I3
sg22
I01
sg23
g75
sbsg19
I4
sg22
I01
sg23
g53
sbsg22
I00
sg23
g30
sba(imyEvolve
Tree
p356
(dp357
g7
(imyEvolve
Tree
p358
(dp359
g10
(imyEvolve
Tree
p360
(dp361
g7
(imyEvolve
Tree
p362
(dp363
g7
(imyEvolve
Tree
p364
(dp365
g19
I0
sg20
F2.0741948645207398
sg21
I01
sbsg19
I1
sg22
I01
sg23
g46
sbsg19
I2
sg22
I01
sg23
g53
sbsg19
I3
sg25
(imyEvolve
Tree
p366
(dp367
g10
(imyEvolve
Tree
p368
(dp369
g10
(imyEvolve
Tree
p370
(dp371
g19
I0
sg21
I00
sbsg19
I1
sg25
(imyEvolve
Tree
p372
(dp373
g19
I0
sg20
F1.6146527970256024
sg21
I01
sbsg22
I00
sg23
g54
sbsg19
I2
sg25
(imyEvolve
Tree
p374
(dp375
g7
(imyEvolve
Tree
p376
(dp377
g19
I0
sg21
I00
sbsg19
I1
sg22
I01
sg23
g24
sbsg22
I00
sg23
g54
sbsg22
I00
sg23
g30
sbsg19
I4
sg22
I01
sg23
g75
sba(imyEvolve
Tree
p378
(dp379
g7
(imyEvolve
Tree
p380
(dp381
g7
(imyEvolve
Tree
p382
(dp383
g19
I0
sg20
F3.194390632773045
sg21
I01
sbsg19
I1
sg22
I01
sg23
g24
sbsg19
I2
sg22
I01
sg23
g75
sba(imyEvolve
Tree
p384
(dp385
g7
(imyEvolve
Tree
p386
(dp387
g7
(imyEvolve
Tree
p388
(dp389
g19
I0
sg20
F2.6897504296398678
sg21
I01
sbsg19
I1
sg22
I01
sg23
g46
sbsg19
I2
sg22
I01
sg23
g46
sba(imyEvolve
Tree
p390
(dp391
g10
(imyEvolve
Tree
p392
(dp393
g7
(imyEvolve
Tree
p394
(dp395
g19
I0
sg20
F-0.5873046072918147
sg21
I01
sbsg19
I1
sg22
I01
sg23
g53
sbsg19
I2
sg25
(imyEvolve
Tree
p396
(dp397
g7
(imyEvolve
Tree
p398
(dp399
g19
I0
sg20
F-1.2324085631721218
sg21
I01
sbsg19
I1
sg22
I01
sg23
g53
sbsg22
I00
sg23
g30
sba(imyEvolve
Tree
p400
(dp401
g7
(imyEvolve
Tree
p402
(dp403
g7
(imyEvolve
Tree
p404
(dp405
g7
(imyEvolve
Tree
p406
(dp407
g19
I0
sg21
I00
sbsg19
I1
sg22
I01
sg23
g75
sbsg19
I2
sg22
I01
sg23
g53
sbsg19
I3
sg22
I01
sg23
g46
sba(imyEvolve
Tree
p408
(dp409
g10
(imyEvolve
Tree
p410
(dp411
g7
(imyEvolve
Tree
p412
(dp413
g19
I0
sg21
I00
sbsg19
I1
sg22
I01
sg23
g53
sbsg19
I2
sg25
(imyEvolve
Tree
p414
(dp415
g7
(imyEvolve
Tree
p416
(dp417
g19
I0
sg21
I00
sbsg19
I1
sg22
I01
sg23
g24
sbsg22
I00
sg23
g54
sba(imyEvolve
Tree
p418
(dp419
g7
(imyEvolve
Tree
p420
(dp421
g7
(imyEvolve
Tree
p422
(dp423
g7
(imyEvolve
Tree
p424
(dp425
g19
I1
sg10
(imyEvolve
Tree
p426
(dp427
g19
I0
sg20
F-3.839380388867235
sg21
I01
sbsg25
(imyEvolve
Tree
p428
(dp429
g19
I0
sg21
I00
sbsg22
I00
sg23
g30
sbsg19
I2
sg22
I01
sg23
g46
sbsg19
I3
sg22
I01
sg23
g75
sbsg19
I4
sg22
I01
sg23
g24
sbaa(lp430
(imyEvolve
Tree
p431
(dp432
g7
(imyEvolve
Tree
p433
(dp434
g10
(imyEvolve
Tree
p435
(dp436
g7
(imyEvolve
Tree
p437
(dp438
g19
I0
sg21
I00
sbsg19
I1
sg22
I01
sg23
g53
sbsg19
I2
sg25
(imyEvolve
Tree
p439
(dp440
g7
(imyEvolve
Tree
p441
(dp442
g19
I0
sg21
I00
sbsg19
I1
sg22
I01
sg23
g75
sbsg22
I00
sg23
g41
sbsg19
I3
sg22
I01
sg23
g53
sba(imyEvolve
Tree
p443
(dp444
g19
I5
sg10
(imyEvolve
Tree
p445
(dp446
g7
(imyEvolve
Tree
p447
(dp448
g19
I3
sg10
(imyEvolve
Tree
p449
(dp450
g19
I2
sg10
(imyEvolve
Tree
p451
(dp452
g7
(imyEvolve
Tree
p453
(dp454
g19
I0
sg20
F-2.975586147355952
sg21
I01
sbsg19
I1
sg22
I01
sg23
g75
sbsg25
(imyEvolve
Tree
p455
(dp456
g19
I1
sg10
(imyEvolve
Tree
p457
(dp458
g19
I0
sg20
F1.5377554619062668
sg21
I01
sbsg25
(imyEvolve
Tree
p459
(dp460
g19
I0
sg20
F-1.1604408274550315
sg21
I01
sbsg22
I00
sg23
g54
sbsg22
I00
sg23
g41
sbsg25
(imyEvolve
Tree
p461
(dp462
g19
I2
sg10
(imyEvolve
Tree
p463
(dp464
g7
(imyEvolve
Tree
p465
(dp466
g19
I0
sg20
F4.89484658580975
sg21
I01
sbsg19
I1
sg22
I01
sg23
g75
sbsg25
(imyEvolve
Tree
p467
(dp468
g7
(imyEvolve
Tree
p469
(dp470
g19
I0
sg20
F3.6481197451556806
sg21
I01
sbsg19
I1
sg22
I01
sg23
g46
sbsg22
I00
sg23
g30
sbsg22
I00
sg23
g54
sbsg19
I4
sg22
I01
sg23
g24
sbsg25
(imyEvolve
Tree
p471
(dp472
g7
(imyEvolve
Tree
p473
(dp474
g19
I3
sg10
(imyEvolve
Tree
p475
(dp476
g7
(imyEvolve
Tree
p477
(dp478
g7
(imyEvolve
Tree
p479
(dp480
g19
I0
sg21
I00
sbsg19
I1
sg22
I01
sg23
g24
sbsg19
I2
sg22
I01
sg23
g46
sbsg25
(imyEvolve
Tree
p481
(dp482
g19
I2
sg10
(imyEvolve
Tree
p483
(dp484
g7
(imyEvolve
Tree
p485
(dp486
g19
I0
sg20
F-2.3720602188067663
sg21
I01
sbsg19
I1
sg22
I01
sg23
g46
sbsg25
(imyEvolve
Tree
p487
(dp488
g7
(imyEvolve
Tree
p489
(dp490
g19
I0
sg21
I00
sbsg19
I1
sg22
I01
sg23
g53
sbsg22
I00
sg23
g30
sbsg22
I00
sg23
g41
sbsg19
I4
sg22
I01
sg23
g46
sbsg22
I00
sg23
g54
sba(imyEvolve
Tree
p491
(dp492
g19
I4
sg10
(imyEvolve
Tree
p493
(dp494
g7
(imyEvolve
Tree
p495
(dp496
g7
(imyEvolve
Tree
p497
(dp498
g7
(imyEvolve
Tree
p499
(dp500
g19
I0
sg21
I00
sbsg19
I1
sg22
I01
sg23
g46
sbsg19
I2
sg22
I01
sg23
g46
sbsg19
I3
sg22
I01
sg23
g46
sbsg25
(imyEvolve
Tree
p501
(dp502
g19
I3
sg10
(imyEvolve
Tree
p503
(dp504
g19
I2
sg10
(imyEvolve
Tree
p505
(dp506
g19
I1
sg10
(imyEvolve
Tree
p507
(dp508
g19
I0
sg21
I00
sbsg25
(imyEvolve
Tree
p509
(dp510
g19
I0
sg21
I00
sbsg22
I00
sg23
g30
sbsg25
(imyEvolve
Tree
p511
(dp512
g7
(imyEvolve
Tree
p513
(dp514
g19
I0
sg21
I00
sbsg19
I1
sg22
I01
sg23
g53
sbsg22
I00
sg23
g30
sbsg25
(imyEvolve
Tree
p515
(dp516
g7
(imyEvolve
Tree
p517
(dp518
g19
I1
sg10
(imyEvolve
Tree
p519
(dp520
g19
I0
sg21
I00
sbsg25
(imyEvolve
Tree
p521
(dp522
g19
I0
sg21
I00
sbsg22
I00
sg23
g41
sbsg19
I2
sg22
I01
sg23
g46
sbsg22
I00
sg23
g41
sbsg22
I00
sg23
g54
sba(imyEvolve
Tree
p523
(dp524
g10
(imyEvolve
Tree
p525
(dp526
g10
(imyEvolve
Tree
p527
(dp528
g10
(imyEvolve
Tree
p529
(dp530
g19
I0
sg21
I00
sbsg19
I1
sg25
(imyEvolve
Tree
p531
(dp532
g19
I0
sg21
I00
sbsg22
I00
sg23
g41
sbsg19
I2
sg25
(imyEvolve
Tree
p533
(dp534
g10
(imyEvolve
Tree
p535
(dp536
g19
I0
sg20
F-1.1848850667596675
sg21
I01
sbsg19
I1
sg25
(imyEvolve
Tree
p537
(dp538
g19
I0
sg21
I00
sbsg22
I00
sg23
g54
sbsg22
I00
sg23
g30
sbsg19
I3
sg25
(imyEvolve
Tree
p539
(dp540
g10
(imyEvolve
Tree
p541
(dp542
g7
(imyEvolve
Tree
p543
(dp544
g19
I0
sg21
I00
sbsg19
I1
sg22
I01
sg23
g75
sbsg19
I2
sg25
(imyEvolve
Tree
p545
(dp546
g7
(imyEvolve
Tree
p547
(dp548
g19
I0
sg21
I00
sbsg19
I1
sg22
I01
sg23
g75
sbsg22
I00
sg23
g41
sbsg22
I00
sg23
g54
sba(imyEvolve
Tree
p549
(dp550
g7
(imyEvolve
Tree
p551
(dp552
g19
I1
sg10
(imyEvolve
Tree
p553
(dp554
g19
I0
sg20
F-4.633577510386441
sg21
I01
sbsg25
(imyEvolve
Tree
p555
(dp556
g19
I0
sg20
F-1.1848539858557396
sg21
I01
sbsg22
I00
sg23
g30
sbsg19
I2
sg22
I01
sg23
g53
sba(imyEvolve
Tree
p557
(dp558
g7
(imyEvolve
Tree
p559
(dp560
g10
(imyEvolve
Tree
p561
(dp562
g10
(imyEvolve
Tree
p563
(dp564
g7
(imyEvolve
Tree
p565
(dp566
g7
(imyEvolve
Tree
p567
(dp568
g19
I0
sg20
F-0.21640550541881964
sg21
I01
sbsg19
I1
sg22
I01
sg23
g24
sbsg19
I2
sg22
I01
sg23
g53
sbsg19
I3
sg25
(imyEvolve
Tree
p569
(dp570
g7
(imyEvolve
Tree
p571
(dp572
g7
(imyEvolve
Tree
p573
(dp574
g19
I0
sg20
F4.189804943670252
sg21
I01
sbsg19
I1
sg22
I01
sg23
g53
sbsg19
I2
sg22
I01
sg23
g24
sbsg22
I00
sg23
g54
sbsg19
I4
sg25
(imyEvolve
Tree
p575
(dp576
g7
(imyEvolve
Tree
p577
(dp578
g10
(imyEvolve
Tree
p579
(dp580
g10
(imyEvolve
Tree
p581
(dp582
g19
I0
sg20
F-0.42110337692014443
sg21
I01
sbsg19
I1
sg25
(imyEvolve
Tree
p583
(dp584
g19
I0
sg21
I00
sbsg22
I00
sg23
g30
sbsg19
I2
sg25
(imyEvolve
Tree
p585
(dp586
g10
(imyEvolve
Tree
p587
(dp588
g19
I0
sg20
F2.174813463627099
sg21
I01
sbsg19
I1
sg25
(imyEvolve
Tree
p589
(dp590
g19
I0
sg21
I00
sbsg22
I00
sg23
g54
sbsg22
I00
sg23
g54
sbsg19
I3
sg22
I01
sg23
g46
sbsg22
I00
sg23
g30
sbsg19
I5
sg22
I01
sg23
g53
sba(imyEvolve
Tree
p591
(dp592
g19
I2
sg10
(imyEvolve
Tree
p593
(dp594
g19
I1
sg10
(imyEvolve
Tree
p595
(dp596
g19
I0
sg21
I00
sbsg25
(imyEvolve
Tree
p597
(dp598
g19
I0
sg21
I00
sbsg22
I00
sg23
g41
sbsg25
(imyEvolve
Tree
p599
(dp600
g7
(imyEvolve
Tree
p601
(dp602
g19
I0
sg21
I00
sbsg19
I1
sg22
I01
sg23
g24
sbsg22
I00
sg23
g54
sba(imyEvolve
Tree
p603
(dp604
g7
(imyEvolve
Tree
p605
(dp606
g7
(imyEvolve
Tree
p607
(dp608
g10
(imyEvolve
Tree
p609
(dp610
g10
(imyEvolve
Tree
p611
(dp612
g19
I0
sg21
I00
sbsg19
I1
sg25
(imyEvolve
Tree
p613
(dp614
g19
I0
sg21
I00
sbsg22
I00
sg23
g54
sbsg19
I2
sg25
(imyEvolve
Tree
p615
(dp616
g10
(imyEvolve
Tree
p617
(dp618
g19
I0
sg20
F0.9746131049444156
sg21
I01
sbsg19
I1
sg25
(imyEvolve
Tree
p619
(dp620
g19
I0
sg21
I00
sbsg22
I00
sg23
g54
sbsg22
I00
sg23
g54
sbsg19
I3
sg22
I01
sg23
g53
sbsg19
I4
sg22
I01
sg23
g75
sba(imyEvolve
Tree
p621
(dp622
g10
(imyEvolve
Tree
p623
(dp624
g7
(imyEvolve
Tree
p625
(dp626
g10
(imyEvolve
Tree
p627
(dp628
g10
(imyEvolve
Tree
p629
(dp630
g19
I0
sg20
F1.8350864855726314
sg21
I01
sbsg19
I1
sg25
(imyEvolve
Tree
p631
(dp632
g19
I0
sg20
F-3.0034564982267264
sg21
I01
sbsg22
I00
sg23
g54
sbsg19
I2
sg25
(imyEvolve
Tree
p633
(dp634
g10
(imyEvolve
Tree
p635
(dp636
g19
I0
sg20
F-0.46726028503963946
sg21
I01
sbsg19
I1
sg25
(imyEvolve
Tree
p637
(dp638
g19
I0
sg20
F-1.3072025904848958
sg21
I01
sbsg22
I00
sg23
g30
sbsg22
I00
sg23
g30
sbsg19
I3
sg22
I01
sg23
g53
sbsg19
I4
sg25
(imyEvolve
Tree
p639
(dp640
g10
(imyEvolve
Tree
p641
(dp642
g10
(imyEvolve
Tree
p643
(dp644
g7
(imyEvolve
Tree
p645
(dp646
g19
I0
sg20
F-3.047439035591247
sg21
I01
sbsg19
I1
sg22
I01
sg23
g75
sbsg19
I2
sg25
(imyEvolve
Tree
p647
(dp648
g7
(imyEvolve
Tree
p649
(dp650
g19
I0
sg20
F-4.147117588052968
sg21
I01
sbsg19
I1
sg22
I01
sg23
g24
sbsg22
I00
sg23
g54
sbsg19
I3
sg25
(imyEvolve
Tree
p651
(dp652
g10
(imyEvolve
Tree
p653
(dp654
g10
(imyEvolve
Tree
p655
(dp656
g19
I0
sg20
F-2.2769031731218723
sg21
I01
sbsg19
I1
sg25
(imyEvolve
Tree
p657
(dp658
g19
I0
sg21
I00
sbsg22
I00
sg23
g41
sbsg19
I2
sg25
(imyEvolve
Tree
p659
(dp660
g7
(imyEvolve
Tree
p661
(dp662
g19
I0
sg21
I00
sbsg19
I1
sg22
I01
sg23
g46
sbsg22
I00
sg23
g41
sbsg22
I00
sg23
g54
sbsg22
I00
sg23
g30
sba(imyEvolve
Tree
p663
(dp664
g7
(imyEvolve
Tree
p665
(dp666
g7
(imyEvolve
Tree
p667
(dp668
g7
(imyEvolve
Tree
p669
(dp670
g19
I0
sg21
I00
sbsg19
I1
sg22
I01
sg23
g75
sbsg19
I2
sg22
I01
sg23
g53
sbsg19
I3
sg22
I01
sg23
g53
sba(imyEvolve
Tree
p671
(dp672
g19
I2
sg10
(imyEvolve
Tree
p673
(dp674
g7
(imyEvolve
Tree
p675
(dp676
g19
I0
sg21
I00
sbsg19
I1
sg22
I01
sg23
g24
sbsg25
(imyEvolve
Tree
p677
(dp678
g7
(imyEvolve
Tree
p679
(dp680
g19
I0
sg21
I00
sbsg19
I1
sg22
I01
sg23
g46
sbsg22
I00
sg23
g54
sba(imyEvolve
Tree
p681
(dp682
g7
(imyEvolve
Tree
p683
(dp684
g19
I2
sg10
(imyEvolve
Tree
p685
(dp686
g7
(imyEvolve
Tree
p687
(dp688
g19
I0
sg20
F-1.9804557550341273
sg21
I01
sbsg19
I1
sg22
I01
sg23
g24
sbsg25
(imyEvolve
Tree
p689
(dp690
g19
I1
sg10
(imyEvolve
Tree
p691
(dp692
g19
I0
sg20
F-4.6290758232033955
sg21
I01
sbsg25
(imyEvolve
Tree
p693
(dp694
g19
I0
sg20
F-2.5049933617137254
sg21
I01
sbsg22
I00
sg23
g41
sbsg22
I00
sg23
g41
sbsg19
I3
sg22
I01
sg23
g46
sba(imyEvolve
Tree
p695
(dp696
g7
(imyEvolve
Tree
p697
(dp698
g7
(imyEvolve
Tree
p699
(dp700
g19
I0
sg20
F-0.6539168139617226
sg21
I01
sbsg19
I1
sg22
I01
sg23
g53
sbsg19
I2
sg22
I01
sg23
g24
sbaa(lp701
(imyEvolve
Tree
p702
(dp703
g7
(imyEvolve
Tree
p704
(dp705
g7
(imyEvolve
Tree
p706
(dp707
g7
(imyEvolve
Tree
p708
(dp709
g7
(imyEvolve
Tree
p710
(dp711
g19
I0
sg20
F-3.4762789993667242
sg21
I01
sbsg19
I1
sg22
I01
sg23
g75
sbsg19
I2
sg22
I01
sg23
g46
sbsg19
I3
sg22
I01
sg23
g24
sbsg19
I4
sg22
I01
sg23
g53
sba(imyEvolve
Tree
p712
(dp713
g19
I3
sg10
(imyEvolve
Tree
p714
(dp715
g7
(imyEvolve
Tree
p716
(dp717
g7
(imyEvolve
Tree
p718
(dp719
g19
I0
sg20
F-4.711343906123771
sg21
I01
sbsg19
I1
sg22
I01
sg23
g53
sbsg19
I2
sg22
I01
sg23
g46
sbsg25
(imyEvolve
Tree
p720
(dp721
g7
(imyEvolve
Tree
p722
(dp723
g19
I1
sg10
(imyEvolve
Tree
p724
(dp725
g19
I0
sg21
I00
sbsg25
(imyEvolve
Tree
p726
(dp727
g19
I0
sg20
F0.7718293224641375
sg21
I01
sbsg22
I00
sg23
g30
sbsg19
I2
sg22
I01
sg23
g24
sbsg22
I00
sg23
g30
sba(imyEvolve
Tree
p728
(dp729
g10
(imyEvolve
Tree
p730
(dp731
g10
(imyEvolve
Tree
p732
(dp733
g10
(imyEvolve
Tree
p734
(dp735
g19
I0
sg21
I00
sbsg19
I1
sg25
(imyEvolve
Tree
p736
(dp737
g19
I0
sg20
F2.990293128824457
sg21
I01
sbsg22
I00
sg23
g30
sbsg19
I2
sg25
(imyEvolve
Tree
p738
(dp739
g10
(imyEvolve
Tree
p740
(dp741
g19
I0
sg21
I00
sbsg19
I1
sg25
(imyEvolve
Tree
p742
(dp743
g19
I0
sg20
F4.9090558008745635
sg21
I01
sbsg22
I00
sg23
g30
sbsg22
I00
sg23
g54
sbsg19
I3
sg25
(imyEvolve
Tree
p744
(dp745
g10
(imyEvolve
Tree
p746
(dp747
g7
(imyEvolve
Tree
p748
(dp749
g19
I0
sg20
F1.2555744269221014
sg21
I01
sbsg19
I1
sg22
I01
sg23
g75
sbsg19
I2
sg25
(imyEvolve
Tree
p750
(dp751
g7
(imyEvolve
Tree
p752
(dp753
g19
I0
sg21
I00
sbsg19
I1
sg22
I01
sg23
g75
sbsg22
I00
sg23
g30
sbsg22
I00
sg23
g54
sba(imyEvolve
Tree
p754
(dp755
g7
(imyEvolve
Tree
p756
(dp757
g7
(imyEvolve
Tree
p758
(dp759
g10
(imyEvolve
Tree
p760
(dp761
g19
I0
sg20
F3.4594628217190238
sg21
I01
sbsg19
I1
sg25
(imyEvolve
Tree
p762
(dp763
g19
I0
sg20
F2.727825275691295
sg21
I01
sbsg22
I00
sg23
g30
sbsg19
I2
sg22
I01
sg23
g75
sbsg19
I3
sg22
I01
sg23
g24
sba(imyEvolve
Tree
p764
(dp765
g7
(imyEvolve
Tree
p766
(dp767
g7
(imyEvolve
Tree
p768
(dp769
g7
(imyEvolve
Tree
p770
(dp771
g19
I0
sg21
I00
sbsg19
I1
sg22
I01
sg23
g24
sbsg19
I2
sg22
I01
sg23
g53
sbsg19
I3
sg22
I01
sg23
g53
sba(imyEvolve
Tree
p772
(dp773
g7
(imyEvolve
Tree
p774
(dp775
g7
(imyEvolve
Tree
p776
(dp777
g19
I0
sg21
I00
sbsg19
I1
sg22
I01
sg23
g75
sbsg19
I2
sg22
I01
sg23
g24
sba(imyEvolve
Tree
p778
(dp779
g7
(imyEvolve
Tree
p780
(dp781
g19
I1
sg10
(imyEvolve
Tree
p782
(dp783
g19
I0
sg21
I00
sbsg25
(imyEvolve
Tree
p784
(dp785
g19
I0
sg21
I00
sbsg22
I00
sg23
g41
sbsg19
I2
sg22
I01
sg23
g53
sba(imyEvolve
Tree
p786
(dp787
g10
(imyEvolve
Tree
p788
(dp789
g10
(imyEvolve
Tree
p790
(dp791
g10
(imyEvolve
Tree
p792
(dp793
g7
(imyEvolve
Tree
p794
(dp795
g7
(imyEvolve
Tree
p796
(dp797
g19
I0
sg21
I00
sbsg19
I1
sg22
I01
sg23
g75
sbsg19
I2
sg22
I01
sg23
g24
sbsg19
I3
sg25
(imyEvolve
Tree
p798
(dp799
g7
(imyEvolve
Tree
p800
(dp801
g10
(imyEvolve
Tree
p802
(dp803
g19
I0
sg20
F-1.240229286136889
sg21
I01
sbsg19
I1
sg25
(imyEvolve
Tree
p804
(dp805
g19
I0
sg20
F-1.6876441099316963
sg21
I01
sbsg22
I00
sg23
g54
sbsg19
I2
sg22
I01
sg23
g53
sbsg22
I00
sg23
g54
sbsg19
I4
sg25
(imyEvolve
Tree
p806
(dp807
g7
(imyEvolve
Tree
p808
(dp809
g7
(imyEvolve
Tree
p810
(dp811
g10
(imyEvolve
Tree
p812
(dp813
g19
I0
sg20
F2.3178851560157074
sg21
I01
sbsg19
I1
sg25
(imyEvolve
Tree
p814
(dp815
g19
I0
sg20
F3.3761057168468263
sg21
I01
sbsg22
I00
sg23
g41
sbsg19
I2
sg22
I01
sg23
g53
sbsg19
I3
sg22
I01
sg23
g53
sbsg22
I00
sg23
g41
sbsg19
I5
sg25
(imyEvolve
Tree
p816
(dp817
g10
(imyEvolve
Tree
p818
(dp819
g7
(imyEvolve
Tree
p820
(dp821
g7
(imyEvolve
Tree
p822
(dp823
g7
(imyEvolve
Tree
p824
(dp825
g19
I0
sg20
F0.31604404884666515
sg21
I01
sbsg19
I1
sg22
I01
sg23
g24
sbsg19
I2
sg22
I01
sg23
g75
sbsg19
I3
sg22
I01
sg23
g53
sbsg19
I4
sg25
(imyEvolve
Tree
p826
(dp827
g7
(imyEvolve
Tree
p828
(dp829
g7
(imyEvolve
Tree
p830
(dp831
g10
(imyEvolve
Tree
p832
(dp833
g19
I0
sg21
I00
sbsg19
I1
sg25
(imyEvolve
Tree
p834
(dp835
g19
I0
sg21
I00
sbsg22
I00
sg23
g41
sbsg19
I2
sg22
I01
sg23
g53
sbsg19
I3
sg22
I01
sg23
g24
sbsg22
I00
sg23
g41
sbsg22
I00
sg23
g30
sba(imyEvolve
Tree
p836
(dp837
g10
(imyEvolve
Tree
p838
(dp839
g7
(imyEvolve
Tree
p840
(dp841
g19
I0
sg20
F0.5955304716844445
sg21
I01
sbsg19
I1
sg22
I01
sg23
g24
sbsg19
I2
sg25
(imyEvolve
Tree
p842
(dp843
g7
(imyEvolve
Tree
p844
(dp845
g19
I0
sg20
F3.624182451095665
sg21
I01
sbsg19
I1
sg22
I01
sg23
g24
sbsg22
I00
sg23
g41
sba(imyEvolve
Tree
p846
(dp847
g7
(imyEvolve
Tree
p848
(dp849
g10
(imyEvolve
Tree
p850
(dp851
g10
(imyEvolve
Tree
p852
(dp853
g10
(imyEvolve
Tree
p854
(dp855
g7
(imyEvolve
Tree
p856
(dp857
g19
I0
sg20
F3.697586480831692
sg21
I01
sbsg19
I1
sg22
I01
sg23
g53
sbsg19
I2
sg25
(imyEvolve
Tree
p858
(dp859
g10
(imyEvolve
Tree
p860
(dp861
g19
I0
sg20
F0.5143511989658132
sg21
I01
sbsg19
I1
sg25
(imyEvolve
Tree
p862
(dp863
g19
I0
sg21
I00
sbsg22
I00
sg23
g41
sbsg22
I00
sg23
g30
sbsg19
I3
sg25
(imyEvolve
Tree
p864
(dp865
g10
(imyEvolve
Tree
p866
(dp867
g10
(imyEvolve
Tree
p868
(dp869
g19
I0
sg21
I00
sbsg19
I1
sg25
(imyEvolve
Tree
p870
(dp871
g19
I0
sg20
F0.9996839117788863
sg21
I01
sbsg22
I00
sg23
g54
sbsg19
I2
sg25
(imyEvolve
Tree
p872
(dp873
g7
(imyEvolve
Tree
p874
(dp875
g19
I0
sg21
I00
sbsg19
I1
sg22
I01
sg23
g46
sbsg22
I00
sg23
g41
sbsg22
I00
sg23
g54
sbsg19
I4
sg25
(imyEvolve
Tree
p876
(dp877
g7
(imyEvolve
Tree
p878
(dp879
g10
(imyEvolve
Tree
p880
(dp881
g7
(imyEvolve
Tree
p882
(dp883
g19
I0
sg20
F0.07527355194029184
sg21
I01
sbsg19
I1
sg22
I01
sg23
g75
sbsg19
I2
sg25
(imyEvolve
Tree
p884
(dp885
g7
(imyEvolve
Tree
p886
(dp887
g19
I0
sg21
I00
sbsg19
I1
sg22
I01
sg23
g46
sbsg22
I00
sg23
g54
sbsg19
I3
sg22
I01
sg23
g53
sbsg22
I00
sg23
g41
sbsg19
I5
sg22
I01
sg23
g53
sba(imyEvolve
Tree
p888
(dp889
g19
I2
sg10
(imyEvolve
Tree
p890
(dp891
g19
I1
sg10
(imyEvolve
Tree
p892
(dp893
g19
I0
sg20
F-2.4074580159857173
sg21
I01
sbsg25
(imyEvolve
Tree
p894
(dp895
g19
I0
sg20
F-3.8206525516046588
sg21
I01
sbsg22
I00
sg23
g54
sbsg25
(imyEvolve
Tree
p896
(dp897
g19
I1
sg10
(imyEvolve
Tree
p898
(dp899
g19
I0
sg20
F1.0061558059674809
sg21
I01
sbsg25
(imyEvolve
Tree
p900
(dp901
g19
I0
sg20
F-2.0240219026943675
sg21
I01
sbsg22
I00
sg23
g54
sbsg22
I00
sg23
g41
sba(imyEvolve
Tree
p902
(dp903
g7
(imyEvolve
Tree
p904
(dp905
g7
(imyEvolve
Tree
p906
(dp907
g7
(imyEvolve
Tree
p908
(dp909
g10
(imyEvolve
Tree
p910
(dp911
g7
(imyEvolve
Tree
p912
(dp913
g19
I0
sg20
F1.562701981123233
sg21
I01
sbsg19
I1
sg22
I01
sg23
g24
sbsg19
I2
sg25
(imyEvolve
Tree
p914
(dp915
g7
(imyEvolve
Tree
p916
(dp917
g19
I0
sg20
F-4.431106215619116
sg21
I01
sbsg19
I1
sg22
I01
sg23
g24
sbsg22
I00
sg23
g30
sbsg19
I3
sg22
I01
sg23
g75
sbsg19
I4
sg22
I01
sg23
g75
sbsg19
I5
sg22
I01
sg23
g53
sba(imyEvolve
Tree
p918
(dp919
g7
(imyEvolve
Tree
p920
(dp921
g19
I3
sg10
(imyEvolve
Tree
p922
(dp923
g7
(imyEvolve
Tree
p924
(dp925
g19
I1
sg10
(imyEvolve
Tree
p926
(dp927
g19
I0
sg21
I00
sbsg25
(imyEvolve
Tree
p928
(dp929
g19
I0
sg20
F-1.7776167093322837
sg21
I01
sbsg22
I00
sg23
g41
sbsg19
I2
sg22
I01
sg23
g53
sbsg25
(imyEvolve
Tree
p930
(dp931
g7
(imyEvolve
Tree
p932
(dp933
g19
I1
sg10
(imyEvolve
Tree
p934
(dp935
g19
I0
sg21
I00
sbsg25
(imyEvolve
Tree
p936
(dp937
g19
I0
sg21
I00
sbsg22
I00
sg23
g54
sbsg19
I2
sg22
I01
sg23
g24
sbsg22
I00
sg23
g54
sbsg19
I4
sg22
I01
sg23
g75
sba(imyEvolve
Tree
p938
(dp939
g7
(imyEvolve
Tree
p940
(dp941
g7
(imyEvolve
Tree
p942
(dp943
g7
(imyEvolve
Tree
p944
(dp945
g10
(imyEvolve
Tree
p946
(dp947
g7
(imyEvolve
Tree
p948
(dp949
g19
I0
sg20
F-0.9498957414187341
sg21
I01
sbsg19
I1
sg22
I01
sg23
g24
sbsg19
I2
sg25
(imyEvolve
Tree
p950
(dp951
g7
(imyEvolve
Tree
p952
(dp953
g19
I0
sg20
F-2.071042229581983
sg21
I01
sbsg19
I1
sg22
I01
sg23
g75
sbsg22
I00
sg23
g30
sbsg19
I3
sg22
I01
sg23
g24
sbsg19
I4
sg22
I01
sg23
g53
sbsg19
I5
sg22
I01
sg23
g46
sba(imyEvolve
Tree
p954
(dp955
g19
I3
sg10
(imyEvolve
Tree
p956
(dp957
g7
(imyEvolve
Tree
p958
(dp959
g19
I1
sg10
(imyEvolve
Tree
p960
(dp961
g19
I0
sg21
I00
sbsg25
(imyEvolve
Tree
p962
(dp963
g19
I0
sg20
F2.021254304693052
sg21
I01
sbsg22
I00
sg23
g54
sbsg19
I2
sg22
I01
sg23
g46
sbsg25
(imyEvolve
Tree
p964
(dp965
g7
(imyEvolve
Tree
p966
(dp967
g19
I1
sg10
(imyEvolve
Tree
p968
(dp969
g19
I0
sg20
F-1.1522654341319627
sg21
I01
sbsg25
(imyEvolve
Tree
p970
(dp971
g19
I0
sg20
F2.3043065573384824
sg21
I01
sbsg22
I00
sg23
g41
sbsg19
I2
sg22
I01
sg23
g46
sbsg22
I00
sg23
g54
sba(imyEvolve
Tree
p972
(dp973
g19
I5
sg10
(imyEvolve
Tree
p974
(dp975
g7
(imyEvolve
Tree
p976
(dp977
g19
I3
sg10
(imyEvolve
Tree
p978
(dp979
g7
(imyEvolve
Tree
p980
(dp981
g7
(imyEvolve
Tree
p982
(dp983
g19
I0
sg21
I00
sbsg19
I1
sg22
I01
sg23
g24
sbsg19
I2
sg22
I01
sg23
g24
sbsg25
(imyEvolve
Tree
p984
(dp985
g7
(imyEvolve
Tree
p986
(dp987
g19
I1
sg10
(imyEvolve
Tree
p988
(dp989
g19
I0
sg21
I00
sbsg25
(imyEvolve
Tree
p990
(dp991
g19
I0
sg20
F3.2920376566080236
sg21
I01
sbsg22
I00
sg23
g30
sbsg19
I2
sg22
I01
sg23
g46
sbsg22
I00
sg23
g41
sbsg19
I4
sg22
I01
sg23
g24
sbsg25
(imyEvolve
Tree
p992
(dp993
g7
(imyEvolve
Tree
p994
(dp995
g7
(imyEvolve
Tree
p996
(dp997
g19
I2
sg10
(imyEvolve
Tree
p998
(dp999
g19
I1
sg10
(imyEvolve
Tree
p1000
(dp1001
g19
I0
sg21
I00
sbsg25
(imyEvolve
Tree
p1002
(dp1003
g19
I0
sg21
I00
sbsg22
I00
sg23
g54
sbsg25
(imyEvolve
Tree
p1004
(dp1005
g7
(imyEvolve
Tree
p1006
(dp1007
g19
I0
sg21
I00
sbsg19
I1
sg22
I01
sg23
g46
sbsg22
I00
sg23
g54
sbsg19
I3
sg22
I01
sg23
g46
sbsg19
I4
sg22
I01
sg23
g46
sbsg22
I00
sg23
g41
sba(imyEvolve
Tree
p1008
(dp1009
g19
I5
sg10
(imyEvolve
Tree
p1010
(dp1011
g19
I4
sg10
(imyEvolve
Tree
p1012
(dp1013
g7
(imyEvolve
Tree
p1014
(dp1015
g19
I2
sg10
(imyEvolve
Tree
p1016
(dp1017
g7
(imyEvolve
Tree
p1018
(dp1019
g19
I0
sg21
I00
sbsg19
I1
sg22
I01
sg23
g46
sbsg25
(imyEvolve
Tree
p1020
(dp1021
g19
I1
sg10
(imyEvolve
Tree
p1022
(dp1023
g19
I0
sg21
I00
sbsg25
(imyEvolve
Tree
p1024
(dp1025
g19
I0
sg21
I00
sbsg22
I00
sg23
g30
sbsg22
I00
sg23
g30
sbsg19
I3
sg22
I01
sg23
g24
sbsg25
(imyEvolve
Tree
p1026
(dp1027
g19
I3
sg10
(imyEvolve
Tree
p1028
(dp1029
g19
I2
sg10
(imyEvolve
Tree
p1030
(dp1031
g7
(imyEvolve
Tree
p1032
(dp1033
g19
I0
sg21
I00
sbsg19
I1
sg22
I01
sg23
g46
sbsg25
(imyEvolve
Tree
p1034
(dp1035
g7
(imyEvolve
Tree
p1036
(dp1037
g19
I0
sg21
I00
sbsg19
I1
sg22
I01
sg23
g24
sbsg22
I00
sg23
g41
sbsg25
(imyEvolve
Tree
p1038
(dp1039
g7
(imyEvolve
Tree
p1040
(dp1041
g19
I1
sg10
(imyEvolve
Tree
p1042
(dp1043
g19
I0
sg21
I00
sbsg25
(imyEvolve
Tree
p1044
(dp1045
g19
I0
sg20
F0.6166305588819583
sg21
I01
sbsg22
I00
sg23
g41
sbsg19
I2
sg22
I01
sg23
g53
sbsg22
I00
sg23
g30
sbsg22
I00
sg23
g54
sbsg25
(imyEvolve
Tree
p1046
(dp1047
g19
I4
sg10
(imyEvolve
Tree
p1048
(dp1049
g7
(imyEvolve
Tree
p1050
(dp1051
g19
I2
sg10
(imyEvolve
Tree
p1052
(dp1053
g19
I1
sg10
(imyEvolve
Tree
p1054
(dp1055
g19
I0
sg20
F-0.06355875225008667
sg21
I01
sbsg25
(imyEvolve
Tree
p1056
(dp1057
g19
I0
sg21
I00
sbsg22
I00
sg23
g30
sbsg25
(imyEvolve
Tree
p1058
(dp1059
g19
I1
sg10
(imyEvolve
Tree
p1060
(dp1061
g19
I0
sg20
F-0.28328885727704733
sg21
I01
sbsg25
(imyEvolve
Tree
p1062
(dp1063
g19
I0
sg20
F-3.487299946733761
sg21
I01
sbsg22
I00
sg23
g41
sbsg22
I00
sg23
g54
sbsg19
I3
sg22
I01
sg23
g24
sbsg25
(imyEvolve
Tree
p1064
(dp1065
g19
I3
sg10
(imyEvolve
Tree
p1066
(dp1067
g7
(imyEvolve
Tree
p1068
(dp1069
g7
(imyEvolve
Tree
p1070
(dp1071
g19
I0
sg20
F3.6484502340221674
sg21
I01
sbsg19
I1
sg22
I01
sg23
g24
sbsg19
I2
sg22
I01
sg23
g24
sbsg25
(imyEvolve
Tree
p1072
(dp1073
g19
I2
sg10
(imyEvolve
Tree
p1074
(dp1075
g7
(imyEvolve
Tree
p1076
(dp1077
g19
I0
sg21
I00
sbsg19
I1
sg22
I01
sg23
g24
sbsg25
(imyEvolve
Tree
p1078
(dp1079
g7
(imyEvolve
Tree
p1080
(dp1081
g19
I0
sg20
F4.897633943154188
sg21
I01
sbsg19
I1
sg22
I01
sg23
g46
sbsg22
I00
sg23
g41
sbsg22
I00
sg23
g54
sbsg22
I00
sg23
g54
sbsg22
I00
sg23
g30
sbaa(lp1082
(imyEvolve
Tree
p1083
(dp1084
g10
(imyEvolve
Tree
p1085
(dp1086
g10
(imyEvolve
Tree
p1087
(dp1088
g19
I0
sg20
F-0.5843394252735781
sg21
I01
sbsg19
I1
sg25
(imyEvolve
Tree
p1089
(dp1090
g19
I0
sg21
I00
sbsg22
I00
sg23
g30
sbsg19
I2
sg25
(imyEvolve
Tree
p1091
(dp1092
g7
(imyEvolve
Tree
p1093
(dp1094
g19
I0
sg21
I00
sbsg19
I1
sg22
I01
sg23
g75
sbsg22
I00
sg23
g54
sba(imyEvolve
Tree
p1095
(dp1096
g7
(imyEvolve
Tree
p1097
(dp1098
g19
I4
sg10
(imyEvolve
Tree
p1099
(dp1100
g19
I3
sg10
(imyEvolve
Tree
p1101
(dp1102
g19
I2
sg10
(imyEvolve
Tree
p1103
(dp1104
g19
I1
sg10
(imyEvolve
Tree
p1105
(dp1106
g19
I0
sg21
I00
sbsg25
(imyEvolve
Tree
p1107
(dp1108
g19
I0
sg20
F0.5818187956574326
sg21
I01
sbsg22
I00
sg23
g30
sbsg25
(imyEvolve
Tree
p1109
(dp1110
g7
(imyEvolve
Tree
p1111
(dp1112
g19
I0
sg21
I00
sbsg19
I1
sg22
I01
sg23
g24
sbsg22
I00
sg23
g41
sbsg25
(imyEvolve
Tree
p1113
(dp1114
g7
(imyEvolve
Tree
p1115
(dp1116
g7
(imyEvolve
Tree
p1117
(dp1118
g19
I0
sg20
F0.34249333369070634
sg21
I01
sbsg19
I1
sg22
I01
sg23
g53
sbsg19
I2
sg22
I01
sg23
g24
sbsg22
I00
sg23
g30
sbsg25
(imyEvolve
Tree
p1119
(dp1120
g19
I3
sg10
(imyEvolve
Tree
p1121
(dp1122
g7
(imyEvolve
Tree
p1123
(dp1124
g19
I1
sg10
(imyEvolve
Tree
p1125
(dp1126
g19
I0
sg20
F2.320235713069305
sg21
I01
sbsg25
(imyEvolve
Tree
p1127
(dp1128
g19
I0
sg20
F-1.8306749417070192
sg21
I01
sbsg22
I00
sg23
g41
sbsg19
I2
sg22
I01
sg23
g75
sbsg25
(imyEvolve
Tree
p1129
(dp1130
g19
I2
sg10
(imyEvolve
Tree
p1131
(dp1132
g19
I1
sg10
(imyEvolve
Tree
p1133
(dp1134
g19
I0
sg20
F-2.141145880070885
sg21
I01
sbsg25
(imyEvolve
Tree
p1135
(dp1136
g19
I0
sg21
I00
sbsg22
I00
sg23
g30
sbsg25
(imyEvolve
Tree
p1137
(dp1138
g7
(imyEvolve
Tree
p1139
(dp1140
g19
I0
sg21
I00
sbsg19
I1
sg22
I01
sg23
g24
sbsg22
I00
sg23
g54
sbsg22
I00
sg23
g41
sbsg22
I00
sg23
g41
sbsg19
I5
sg22
I01
sg23
g46
sba(imyEvolve
Tree
p1141
(dp1142
g10
(imyEvolve
Tree
p1143
(dp1144
g7
(imyEvolve
Tree
p1145
(dp1146
g19
I0
sg20
F-1.0895144454311403
sg21
I01
sbsg19
I1
sg22
I01
sg23
g75
sbsg19
I2
sg25
(imyEvolve
Tree
p1147
(dp1148
g7
(imyEvolve
Tree
p1149
(dp1150
g19
I0
sg21
I00
sbsg19
I1
sg22
I01
sg23
g24
sbsg22
I00
sg23
g30
sba(imyEvolve
Tree
p1151
(dp1152
g10
(imyEvolve
Tree
p1153
(dp1154
g7
(imyEvolve
Tree
p1155
(dp1156
g19
I0
sg20
F4.947777101668791
sg21
I01
sbsg19
I1
sg22
I01
sg23
g75
sbsg19
I2
sg25
(imyEvolve
Tree
p1157
(dp1158
g10
(imyEvolve
Tree
p1159
(dp1160
g19
I0
sg21
I00
sbsg19
I1
sg25
(imyEvolve
Tree
p1161
(dp1162
g19
I0
sg20
F2.4518456031410647
sg21
I01
sbsg22
I00
sg23
g30
sbsg22
I00
sg23
g54
sba(imyEvolve
Tree
p1163
(dp1164
g7
(imyEvolve
Tree
p1165
(dp1166
g7
(imyEvolve
Tree
p1167
(dp1168
g10
(imyEvolve
Tree
p1169
(dp1170
g10
(imyEvolve
Tree
p1171
(dp1172
g7
(imyEvolve
Tree
p1173
(dp1174
g19
I0
sg20
F2.5926218817362425
sg21
I01
sbsg19
I1
sg22
I01
sg23
g46
sbsg19
I2
sg25
(imyEvolve
Tree
p1175
(dp1176
g7
(imyEvolve
Tree
p1177
(dp1178
g19
I0
sg20
F-0.45959643209134704
sg21
I01
sbsg19
I1
sg22
I01
sg23
g46
sbsg22
I00
sg23
g30
sbsg19
I3
sg25
(imyEvolve
Tree
p1179
(dp1180
g10
(imyEvolve
Tree
p1181
(dp1182
g10
(imyEvolve
Tree
p1183
(dp1184
g19
I0
sg20
F-4.361364717395535
sg21
I01
sbsg19
I1
sg25
(imyEvolve
Tree
p1185
(dp1186
g19
I0
sg20
F1.7752490353528056
sg21
I01
sbsg22
I00
sg23
g30
sbsg19
I2
sg25
(imyEvolve
Tree
p1187
(dp1188
g10
(imyEvolve
Tree
p1189
(dp1190
g19
I0
sg20
F0.43599663260302624
sg21
I01
sbsg19
I1
sg25
(imyEvolve
Tree
p1191
(dp1192
g19
I0
sg20
F0.44715213863757786
sg21
I01
sbsg22
I00
sg23
g41
sbsg22
I00
sg23
g41
sbsg22
I00
sg23
g41
sbsg19
I4
sg22
I01
sg23
g53
sbsg19
I5
sg22
I01
sg23
g75
sba(imyEvolve
Tree
p1193
(dp1194
g19
I2
sg10
(imyEvolve
Tree
p1195
(dp1196
g7
(imyEvolve
Tree
p1197
(dp1198
g19
I0
sg21
I00
sbsg19
I1
sg22
I01
sg23
g46
sbsg25
(imyEvolve
Tree
p1199
(dp1200
g19
I1
sg10
(imyEvolve
Tree
p1201
(dp1202
g19
I0
sg21
I00
sbsg25
(imyEvolve
Tree
p1203
(dp1204
g19
I0
sg21
I00
sbsg22
I00
sg23
g30
sbsg22
I00
sg23
g54
sba(imyEvolve
Tree
p1205
(dp1206
g10
(imyEvolve
Tree
p1207
(dp1208
g7
(imyEvolve
Tree
p1209
(dp1210
g10
(imyEvolve
Tree
p1211
(dp1212
g10
(imyEvolve
Tree
p1213
(dp1214
g19
I0
sg20
F-4.793533076644307
sg21
I01
sbsg19
I1
sg25
(imyEvolve
Tree
p1215
(dp1216
g19
I0
sg21
I00
sbsg22
I00
sg23
g54
sbsg19
I2
sg25
(imyEvolve
Tree
p1217
(dp1218
g10
(imyEvolve
Tree
p1219
(dp1220
g19
I0
sg21
I00
sbsg19
I1
sg25
(imyEvolve
Tree
p1221
(dp1222
g19
I0
sg20
F0.10807504635459964
sg21
I01
sbsg22
I00
sg23
g41
sbsg22
I00
sg23
g41
sbsg19
I3
sg22
I01
sg23
g24
sbsg19
I4
sg25
(imyEvolve
Tree
p1223
(dp1224
g10
(imyEvolve
Tree
p1225
(dp1226
g10
(imyEvolve
Tree
p1227
(dp1228
g10
(imyEvolve
Tree
p1229
(dp1230
g19
I0
sg20
F-3.7765587349647456
sg21
I01
sbsg19
I1
sg25
(imyEvolve
Tree
p1231
(dp1232
g19
I0
sg21
I00
sbsg22
I00
sg23
g41
sbsg19
I2
sg25
(imyEvolve
Tree
p1233
(dp1234
g7
(imyEvolve
Tree
p1235
(dp1236
g19
I0
sg20
F-4.065546622945709
sg21
I01
sbsg19
I1
sg22
I01
sg23
g75
sbsg22
I00
sg23
g41
sbsg19
I3
sg25
(imyEvolve
Tree
p1237
(dp1238
g7
(imyEvolve
Tree
p1239
(dp1240
g7
(imyEvolve
Tree
p1241
(dp1242
g19
I0
sg20
F2.9336722802778903
sg21
I01
sbsg19
I1
sg22
I01
sg23
g46
sbsg19
I2
sg22
I01
sg23
g75
sbsg22
I00
sg23
g41
sbsg22
I00
sg23
g54
sba(imyEvolve
Tree
p1243
(dp1244
g10
(imyEvolve
Tree
p1245
(dp1246
g10
(imyEvolve
Tree
p1247
(dp1248
g7
(imyEvolve
Tree
p1249
(dp1250
g10
(imyEvolve
Tree
p1251
(dp1252
g19
I0
sg21
I00
sbsg19
I1
sg25
(imyEvolve
Tree
p1253
(dp1254
g19
I0
sg21
I00
sbsg22
I00
sg23
g54
sbsg19
I2
sg22
I01
sg23
g24
sbsg19
I3
sg25
(imyEvolve
Tree
p1255
(dp1256
g7
(imyEvolve
Tree
p1257
(dp1258
g10
(imyEvolve
Tree
p1259
(dp1260
g19
I0
sg21
I00
sbsg19
I1
sg25
(imyEvolve
Tree
p1261
(dp1262
g19
I0
sg21
I00
sbsg22
I00
sg23
g30
sbsg19
I2
sg22
I01
sg23
g46
sbsg22
I00
sg23
g41
sbsg19
I4
sg25
(imyEvolve
Tree
p1263
(dp1264
g10
(imyEvolve
Tree
p1265
(dp1266
g7
(imyEvolve
Tree
p1267
(dp1268
g10
(imyEvolve
Tree
p1269
(dp1270
g19
I0
sg21
I00
sbsg19
I1
sg25
(imyEvolve
Tree
p1271
(dp1272
g19
I0
sg20
F2.4058283995222665
sg21
I01
sbsg22
I00
sg23
g41
sbsg19
I2
sg22
I01
sg23
g24
sbsg19
I3
sg25
(imyEvolve
Tree
p1273
(dp1274
g7
(imyEvolve
Tree
p1275
(dp1276
g10
(imyEvolve
Tree
p1277
(dp1278
g19
I0
sg20
F1.0828271140064007
sg21
I01
sbsg19
I1
sg25
(imyEvolve
Tree
p1279
(dp1280
g19
I0
sg21
I00
sbsg22
I00
sg23
g30
sbsg19
I2
sg22
I01
sg23
g46
sbsg22
I00
sg23
g41
sbsg22
I00
sg23
g54
sba(imyEvolve
Tree
p1281
(dp1282
g10
(imyEvolve
Tree
p1283
(dp1284
g10
(imyEvolve
Tree
p1285
(dp1286
g19
I0
sg21
I00
sbsg19
I1
sg25
(imyEvolve
Tree
p1287
(dp1288
g19
I0
sg21
I00
sbsg22
I00
sg23
g41
sbsg19
I2
sg25
(imyEvolve
Tree
p1289
(dp1290
g7
(imyEvolve
Tree
p1291
(dp1292
g19
I0
sg20
F2.573320952615356
sg21
I01
sbsg19
I1
sg22
I01
sg23
g53
sbsg22
I00
sg23
g41
sba(imyEvolve
Tree
p1293
(dp1294
g10
(imyEvolve
Tree
p1295
(dp1296
g10
(imyEvolve
Tree
p1297
(dp1298
g19
I0
sg20
F0.9518227170328242
sg21
I01
sbsg19
I1
sg25
(imyEvolve
Tree
p1299
(dp1300
g19
I0
sg20
F4.584046267804091
sg21
I01
sbsg22
I00
sg23
g54
sbsg19
I2
sg25
(imyEvolve
Tree
p1301
(dp1302
g7
(imyEvolve
Tree
p1303
(dp1304
g19
I0
sg20
F-1.3794602726212024
sg21
I01
sbsg19
I1
sg22
I01
sg23
g75
sbsg22
I00
sg23
g54
sba(imyEvolve
Tree
p1305
(dp1306
g10
(imyEvolve
Tree
p1307
(dp1308
g10
(imyEvolve
Tree
p1309
(dp1310
g19
I0
sg20
F2.1491065406087726
sg21
I01
sbsg19
I1
sg25
(imyEvolve
Tree
p1311
(dp1312
g19
I0
sg21
I00
sbsg22
I00
sg23
g41
sbsg19
I2
sg25
(imyEvolve
Tree
p1313
(dp1314
g10
(imyEvolve
Tree
p1315
(dp1316
g19
I0
sg20
F-3.348261948098238
sg21
I01
sbsg19
I1
sg25
(imyEvolve
Tree
p1317
(dp1318
g19
I0
sg21
I00
sbsg22
I00
sg23
g41
sbsg22
I00
sg23
g30
sba(imyEvolve
Tree
p1319
(dp1320
g10
(imyEvolve
Tree
p1321
(dp1322
g7
(imyEvolve
Tree
p1323
(dp1324
g10
(imyEvolve
Tree
p1325
(dp1326
g7
(imyEvolve
Tree
p1327
(dp1328
g7
(imyEvolve
Tree
p1329
(dp1330
g19
I0
sg21
I00
sbsg19
I1
sg22
I01
sg23
g24
sbsg19
I2
sg22
I01
sg23
g75
sbsg19
I3
sg25
(imyEvolve
Tree
p1331
(dp1332
g7
(imyEvolve
Tree
p1333
(dp1334
g7
(imyEvolve
Tree
p1335
(dp1336
g19
I0
sg21
I00
sbsg19
I1
sg22
I01
sg23
g46
sbsg19
I2
sg22
I01
sg23
g53
sbsg22
I00
sg23
g30
sbsg19
I4
sg22
I01
sg23
g24
sbsg19
I5
sg25
(imyEvolve
Tree
p1337
(dp1338
g10
(imyEvolve
Tree
p1339
(dp1340
g7
(imyEvolve
Tree
p1341
(dp1342
g7
(imyEvolve
Tree
p1343
(dp1344
g7
(imyEvolve
Tree
p1345
(dp1346
g19
I0
sg20
F3.2600198604411155
sg21
I01
sbsg19
I1
sg22
I01
sg23
g46
sbsg19
I2
sg22
I01
sg23
g75
sbsg19
I3
sg22
I01
sg23
g75
sbsg19
I4
sg25
(imyEvolve
Tree
p1347
(dp1348
g10
(imyEvolve
Tree
p1349
(dp1350
g7
(imyEvolve
Tree
p1351
(dp1352
g10
(imyEvolve
Tree
p1353
(dp1354
g19
I0
sg21
I00
sbsg19
I1
sg25
(imyEvolve
Tree
p1355
(dp1356
g19
I0
sg21
I00
sbsg22
I00
sg23
g30
sbsg19
I2
sg22
I01
sg23
g24
sbsg19
I3
sg25
(imyEvolve
Tree
p1357
(dp1358
g10
(imyEvolve
Tree
p1359
(dp1360
g7
(imyEvolve
Tree
p1361
(dp1362
g19
I0
sg20
F-4.612824562255577
sg21
I01
sbsg19
I1
sg22
I01
sg23
g24
sbsg19
I2
sg25
(imyEvolve
Tree
p1363
(dp1364
g10
(imyEvolve
Tree
p1365
(dp1366
g19
I0
sg20
F0.1635481450091527
sg21
I01
sbsg19
I1
sg25
(imyEvolve
Tree
p1367
(dp1368
g19
I0
sg21
I00
sbsg22
I00
sg23
g54
sbsg22
I00
sg23
g41
sbsg22
I00
sg23
g41
sbsg22
I00
sg23
g30
sbsg22
I00
sg23
g54
sba(imyEvolve
Tree
p1369
(dp1370
g7
(imyEvolve
Tree
p1371
(dp1372
g7
(imyEvolve
Tree
p1373
(dp1374
g19
I0
sg21
I00
sbsg19
I1
sg22
I01
sg23
g53
sbsg19
I2
sg22
I01
sg23
g53
sba(imyEvolve
Tree
p1375
(dp1376
g19
I5
sg10
(imyEvolve
Tree
p1377
(dp1378
g7
(imyEvolve
Tree
p1379
(dp1380
g7
(imyEvolve
Tree
p1381
(dp1382
g19
I2
sg10
(imyEvolve
Tree
p1383
(dp1384
g7
(imyEvolve
Tree
p1385
(dp1386
g19
I0
sg21
I00
sbsg19
I1
sg22
I01
sg23
g24
sbsg25
(imyEvolve
Tree
p1387
(dp1388
g7
(imyEvolve
Tree
p1389
(dp1390
g19
I0
sg21
I00
sbsg19
I1
sg22
I01
sg23
g53
sbsg22
I00
sg23
g41
sbsg19
I3
sg22
I01
sg23
g53
sbsg19
I4
sg22
I01
sg23
g75
sbsg25
(imyEvolve
Tree
p1391
(dp1392
g19
I4
sg10
(imyEvolve
Tree
p1393
(dp1394
g7
(imyEvolve
Tree
p1395
(dp1396
g7
(imyEvolve
Tree
p1397
(dp1398
g7
(imyEvolve
Tree
p1399
(dp1400
g19
I0
sg20
F3.217954128266731
sg21
I01
sbsg19
I1
sg22
I01
sg23
g75
sbsg19
I2
sg22
I01
sg23
g46
sbsg19
I3
sg22
I01
sg23
g24
sbsg25
(imyEvolve
Tree
p1401
(dp1402
g7
(imyEvolve
Tree
p1403
(dp1404
g19
I2
sg10
(imyEvolve
Tree
p1405
(dp1406
g7
(imyEvolve
Tree
p1407
(dp1408
g19
I0
sg20
F4.75782424869408
sg21
I01
sbsg19
I1
sg22
I01
sg23
g75
sbsg25
(imyEvolve
Tree
p1409
(dp1410
g7
(imyEvolve
Tree
p1411
(dp1412
g19
I0
sg20
F-1.8848827926329892
sg21
I01
sbsg19
I1
sg22
I01
sg23
g24
sbsg22
I00
sg23
g30
sbsg19
I3
sg22
I01
sg23
g24
sbsg22
I00
sg23
g54
sbsg22
I00
sg23
g41
sba(imyEvolve
Tree
p1413
(dp1414
g10
(imyEvolve
Tree
p1415
(dp1416
g7
(imyEvolve
Tree
p1417
(dp1418
g10
(imyEvolve
Tree
p1419
(dp1420
g19
I0
sg21
I00
sbsg19
I1
sg25
(imyEvolve
Tree
p1421
(dp1422
g19
I0
sg20
F-0.02834982059538227
sg21
I01
sbsg22
I00
sg23
g41
sbsg19
I2
sg22
I01
sg23
g24
sbsg19
I3
sg25
(imyEvolve
Tree
p1423
(dp1424
g10
(imyEvolve
Tree
p1425
(dp1426
g7
(imyEvolve
Tree
p1427
(dp1428
g19
I0
sg21
I00
sbsg19
I1
sg22
I01
sg23
g75
sbsg19
I2
sg25
(imyEvolve
Tree
p1429
(dp1430
g10
(imyEvolve
Tree
p1431
(dp1432
g19
I0
sg21
I00
sbsg19
I1
sg25
(imyEvolve
Tree
p1433
(dp1434
g19
I0
sg20
F2.3351014017462726
sg21
I01
sbsg22
I00
sg23
g41
sbsg22
I00
sg23
g41
sbsg22
I00
sg23
g41
sba(imyEvolve
Tree
p1435
(dp1436
g10
(imyEvolve
Tree
p1437
(dp1438
g10
(imyEvolve
Tree
p1439
(dp1440
g7
(imyEvolve
Tree
p1441
(dp1442
g19
I0
sg20
F-3.450725471731453
sg21
I01
sbsg19
I1
sg22
I01
sg23
g75
sbsg19
I2
sg25
(imyEvolve
Tree
p1443
(dp1444
g7
(imyEvolve
Tree
p1445
(dp1446
g19
I0
sg21
I00
sbsg19
I1
sg22
I01
sg23
g53
sbsg22
I00
sg23
g54
sbsg19
I3
sg25
(imyEvolve
Tree
p1447
(dp1448
g10
(imyEvolve
Tree
p1449
(dp1450
g10
(imyEvolve
Tree
p1451
(dp1452
g19
I0
sg20
F1.7418202671002163
sg21
I01
sbsg19
I1
sg25
(imyEvolve
Tree
p1453
(dp1454
g19
I0
sg21
I00
sbsg22
I00
sg23
g30
sbsg19
I2
sg25
(imyEvolve
Tree
p1455
(dp1456
g7
(imyEvolve
Tree
p1457
(dp1458
g19
I0
sg21
I00
sbsg19
I1
sg22
I01
sg23
g24
sbsg22
I00
sg23
g30
sbsg22
I00
sg23
g30
sba(imyEvolve
Tree
p1459
(dp1460
g10
(imyEvolve
Tree
p1461
(dp1462
g10
(imyEvolve
Tree
p1463
(dp1464
g10
(imyEvolve
Tree
p1465
(dp1466
g7
(imyEvolve
Tree
p1467
(dp1468
g19
I0
sg20
F2.8048389280797714
sg21
I01
sbsg19
I1
sg22
I01
sg23
g46
sbsg19
I2
sg25
(imyEvolve
Tree
p1469
(dp1470
g10
(imyEvolve
Tree
p1471
(dp1472
g19
I0
sg20
F1.0378444848066
sg21
I01
sbsg19
I1
sg25
(imyEvolve
Tree
p1473
(dp1474
g19
I0
sg20
F2.2369877367530977
sg21
I01
sbsg22
I00
sg23
g30
sbsg22
I00
sg23
g41
sbsg19
I3
sg25
(imyEvolve
Tree
p1475
(dp1476
g10
(imyEvolve
Tree
p1477
(dp1478
g7
(imyEvolve
Tree
p1479
(dp1480
g19
I0
sg20
F-4.7118949049670364
sg21
I01
sbsg19
I1
sg22
I01
sg23
g53
sbsg19
I2
sg25
(imyEvolve
Tree
p1481
(dp1482
g10
(imyEvolve
Tree
p1483
(dp1484
g19
I0
sg20
F-0.04402812613342455
sg21
I01
sbsg19
I1
sg25
(imyEvolve
Tree
p1485
(dp1486
g19
I0
sg20
F-1.6790409857239643
sg21
I01
sbsg22
I00
sg23
g54
sbsg22
I00
sg23
g30
sbsg22
I00
sg23
g54
sbsg19
I4
sg25
(imyEvolve
Tree
p1487
(dp1488
g7
(imyEvolve
Tree
p1489
(dp1490
g10
(imyEvolve
Tree
p1491
(dp1492
g10
(imyEvolve
Tree
p1493
(dp1494
g19
I0
sg20
F-2.484365699439417
sg21
I01
sbsg19
I1
sg25
(imyEvolve
Tree
p1495
(dp1496
g19
I0
sg21
I00
sbsg22
I00
sg23
g30
sbsg19
I2
sg25
(imyEvolve
Tree
p1497
(dp1498
g10
(imyEvolve
Tree
p1499
(dp1500
g19
I0
sg21
I00
sbsg19
I1
sg25
(imyEvolve
Tree
p1501
(dp1502
g19
I0
sg20
F-1.8522587652902702
sg21
I01
sbsg22
I00
sg23
g30
sbsg22
I00
sg23
g30
sbsg19
I3
sg22
I01
sg23
g53
sbsg22
I00
sg23
g41
sbaa(lp1503
(imyEvolve
Tree
p1504
(dp1505
g7
(imyEvolve
Tree
p1506
(dp1507
g7
(imyEvolve
Tree
p1508
(dp1509
g19
I0
sg21
I00
sbsg19
I1
sg22
I01
sg23
g75
sbsg19
I2
sg22
I01
sg23
g75
sba(imyEvolve
Tree
p1510
(dp1511
g7
(imyEvolve
Tree
p1512
(dp1513
g19
I4
sg10
(imyEvolve
Tree
p1514
(dp1515
g19
I3
sg10
(imyEvolve
Tree
p1516
(dp1517
g7
(imyEvolve
Tree
p1518
(dp1519
g7
(imyEvolve
Tree
p1520
(dp1521
g19
I0
sg21
I00
sbsg19
I1
sg22
I01
sg23
g75
sbsg19
I2
sg22
I01
sg23
g24
sbsg25
(imyEvolve
Tree
p1522
(dp1523
g7
(imyEvolve
Tree
p1524
(dp1525
g7
(imyEvolve
Tree
p1526
(dp1527
g19
I0
sg20
F1.89589324266176
sg21
I01
sbsg19
I1
sg22
I01
sg23
g46
sbsg19
I2
sg22
I01
sg23
g24
sbsg22
I00
sg23
g30
sbsg25
(imyEvolve
Tree
p1528
(dp1529
g19
I3
sg10
(imyEvolve
Tree
p1530
(dp1531
g19
I2
sg10
(imyEvolve
Tree
p1532
(dp1533
g19
I1
sg10
(imyEvolve
Tree
p1534
(dp1535
g19
I0
sg20
F4.224561586823048
sg21
I01
sbsg25
(imyEvolve
Tree
p1536
(dp1537
g19
I0
sg20
F3.7633457296742083
sg21
I01
sbsg22
I00
sg23
g41
sbsg25
(imyEvolve
Tree
p1538
(dp1539
g19
I1
sg10
(imyEvolve
Tree
p1540
(dp1541
g19
I0
sg20
F2.25265020753998
sg21
I01
sbsg25
(imyEvolve
Tree
p1542
(dp1543
g19
I0
sg21
I00
sbsg22
I00
sg23
g54
sbsg22
I00
sg23
g41
sbsg25
(imyEvolve
Tree
p1544
(dp1545
g7
(imyEvolve
Tree
p1546
(dp1547
g7
(imyEvolve
Tree
p1548
(dp1549
g19
I0
sg21
I00
sbsg19
I1
sg22
I01
sg23
g24
sbsg19
I2
sg22
I01
sg23
g24
sbsg22
I00
sg23
g30
sbsg22
I00
sg23
g41
sbsg19
I5
sg22
I01
sg23
g75
sba(imyEvolve
Tree
p1550
(dp1551
g19
I3
sg10
(imyEvolve
Tree
p1552
(dp1553
g19
I2
sg10
(imyEvolve
Tree
p1554
(dp1555
g7
(imyEvolve
Tree
p1556
(dp1557
g19
I0
sg20
F-3.065347147761771
sg21
I01
sbsg19
I1
sg22
I01
sg23
g75
sbsg25
(imyEvolve
Tree
p1558
(dp1559
g19
I1
sg10
(imyEvolve
Tree
p1560
(dp1561
g19
I0
sg21
I00
sbsg25
(imyEvolve
Tree
p1562
(dp1563
g19
I0
sg20
F-0.0992189655740292
sg21
I01
sbsg22
I00
sg23
g41
sbsg22
I00
sg23
g41
sbsg25
(imyEvolve
Tree
p1564
(dp1565
g19
I2
sg10
(imyEvolve
Tree
p1566
(dp1567
g7
(imyEvolve
Tree
p1568
(dp1569
g19
I0
sg21
I00
sbsg19
I1
sg22
I01
sg23
g46
sbsg25
(imyEvolve
Tree
p1570
(dp1571
g7
(imyEvolve
Tree
p1572
(dp1573
g19
I0
sg21
I00
sbsg19
I1
sg22
I01
sg23
g75
sbsg22
I00
sg23
g54
sbsg22
I00
sg23
g30
sba(imyEvolve
Tree
p1574
(dp1575
g19
I2
sg10
(imyEvolve
Tree
p1576
(dp1577
g19
I1
sg10
(imyEvolve
Tree
p1578
(dp1579
g19
I0
sg21
I00
sbsg25
(imyEvolve
Tree
p1580
(dp1581
g19
I0
sg20
F3.84960620354067
sg21
I01
sbsg22
I00
sg23
g30
sbsg25
(imyEvolve
Tree
p1582
(dp1583
g7
(imyEvolve
Tree
p1584
(dp1585
g19
I0
sg21
I00
sbsg19
I1
sg22
I01
sg23
g75
sbsg22
I00
sg23
g41
sba(imyEvolve
Tree
p1586
(dp1587
g19
I4
sg10
(imyEvolve
Tree
p1588
(dp1589
g19
I3
sg10
(imyEvolve
Tree
p1590
(dp1591
g7
(imyEvolve
Tree
p1592
(dp1593
g19
I1
sg10
(imyEvolve
Tree
p1594
(dp1595
g19
I0
sg21
I00
sbsg25
(imyEvolve
Tree
p1596
(dp1597
g19
I0
sg20
F2.952002154040617
sg21
I01
sbsg22
I00
sg23
g54
sbsg19
I2
sg22
I01
sg23
g46
sbsg25
(imyEvolve
Tree
p1598
(dp1599
g7
(imyEvolve
Tree
p1600
(dp1601
g7
(imyEvolve
Tree
p1602
(dp1603
g19
I0
sg21
I00
sbsg19
I1
sg22
I01
sg23
g75
sbsg19
I2
sg22
I01
sg23
g46
sbsg22
I00
sg23
g30
sbsg25
(imyEvolve
Tree
p1604
(dp1605
g19
I3
sg10
(imyEvolve
Tree
p1606
(dp1607
g19
I2
sg10
(imyEvolve
Tree
p1608
(dp1609
g19
I1
sg10
(imyEvolve
Tree
p1610
(dp1611
g19
I0
sg20
F-3.575416861585665
sg21
I01
sbsg25
(imyEvolve
Tree
p1612
(dp1613
g19
I0
sg20
F2.5477321070470085
sg21
I01
sbsg22
I00
sg23
g54
sbsg25
(imyEvolve
Tree
p1614
(dp1615
g7
(imyEvolve
Tree
p1616
(dp1617
g19
I0
sg20
F-2.2901558444158687
sg21
I01
sbsg19
I1
sg22
I01
sg23
g75
sbsg22
I00
sg23
g30
sbsg25
(imyEvolve
Tree
p1618
(dp1619
g7
(imyEvolve
Tree
p1620
(dp1621
g19
I1
sg10
(imyEvolve
Tree
p1622
(dp1623
g19
I0
sg20
F-3.578894887745169
sg21
I01
sbsg25
(imyEvolve
Tree
p1624
(dp1625
g19
I0
sg20
F4.17037111636888
sg21
I01
sbsg22
I00
sg23
g54
sbsg19
I2
sg22
I01
sg23
g53
sbsg22
I00
sg23
g30
sbsg22
I00
sg23
g41
sba(imyEvolve
Tree
p1626
(dp1627
g7
(imyEvolve
Tree
p1628
(dp1629
g7
(imyEvolve
Tree
p1630
(dp1631
g19
I0
sg20
F-0.700750354458445
sg21
I01
sbsg19
I1
sg22
I01
sg23
g24
sbsg19
I2
sg22
I01
sg23
g24
sba(imyEvolve
Tree
p1632
(dp1633
g19
I4
sg10
(imyEvolve
Tree
p1634
(dp1635
g7
(imyEvolve
Tree
p1636
(dp1637
g7
(imyEvolve
Tree
p1638
(dp1639
g19
I1
sg10
(imyEvolve
Tree
p1640
(dp1641
g19
I0
sg21
I00
sbsg25
(imyEvolve
Tree
p1642
(dp1643
g19
I0
sg20
F-3.6715695659730607
sg21
I01
sbsg22
I00
sg23
g30
sbsg19
I2
sg22
I01
sg23
g46
sbsg19
I3
sg22
I01
sg23
g75
sbsg25
(imyEvolve
Tree
p1644
(dp1645
g19
I3
sg10
(imyEvolve
Tree
p1646
(dp1647
g19
I2
sg10
(imyEvolve
Tree
p1648
(dp1649
g7
(imyEvolve
Tree
p1650
(dp1651
g19
I0
sg21
I00
sbsg19
I1
sg22
I01
sg23
g46
sbsg25
(imyEvolve
Tree
p1652
(dp1653
g7
(imyEvolve
Tree
p1654
(dp1655
g19
I0
sg21
I00
sbsg19
I1
sg22
I01
sg23
g24
sbsg22
I00
sg23
g41
sbsg25
(imyEvolve
Tree
p1656
(dp1657
g7
(imyEvolve
Tree
p1658
(dp1659
g19
I1
sg10
(imyEvolve
Tree
p1660
(dp1661
g19
I0
sg21
I00
sbsg25
(imyEvolve
Tree
p1662
(dp1663
g19
I0
sg21
I00
sbsg22
I00
sg23
g30
sbsg19
I2
sg22
I01
sg23
g75
sbsg22
I00
sg23
g41
sbsg22
I00
sg23
g41
sba(imyEvolve
Tree
p1664
(dp1665
g7
(imyEvolve
Tree
p1666
(dp1667
g7
(imyEvolve
Tree
p1668
(dp1669
g7
(imyEvolve
Tree
p1670
(dp1671
g7
(imyEvolve
Tree
p1672
(dp1673
g19
I1
sg10
(imyEvolve
Tree
p1674
(dp1675
g19
I0
sg20
F-4.218051821960694
sg21
I01
sbsg25
(imyEvolve
Tree
p1676
(dp1677
g19
I0
sg21
I00
sbsg22
I00
sg23
g41
sbsg19
I2
sg22
I01
sg23
g75
sbsg19
I3
sg22
I01
sg23
g53
sbsg19
I4
sg22
I01
sg23
g75
sbsg19
I5
sg22
I01
sg23
g24
sba(imyEvolve
Tree
p1678
(dp1679
g7
(imyEvolve
Tree
p1680
(dp1681
g19
I1
sg10
(imyEvolve
Tree
p1682
(dp1683
g19
I0
sg20
F0.7804102171650769
sg21
I01
sbsg25
(imyEvolve
Tree
p1684
(dp1685
g19
I0
sg21
I00
sbsg22
I00
sg23
g30
sbsg19
I2
sg22
I01
sg23
g46
sba(imyEvolve
Tree
p1686
(dp1687
g7
(imyEvolve
Tree
p1688
(dp1689
g19
I4
sg10
(imyEvolve
Tree
p1690
(dp1691
g19
I3
sg10
(imyEvolve
Tree
p1692
(dp1693
g7
(imyEvolve
Tree
p1694
(dp1695
g19
I1
sg10
(imyEvolve
Tree
p1696
(dp1697
g19
I0
sg20
F1.3191369143509055
sg21
I01
sbsg25
(imyEvolve
Tree
p1698
(dp1699
g19
I0
sg21
I00
sbsg22
I00
sg23
g41
sbsg19
I2
sg22
I01
sg23
g53
sbsg25
(imyEvolve
Tree
p1700
(dp1701
g7
(imyEvolve
Tree
p1702
(dp1703
g19
I1
sg10
(imyEvolve
Tree
p1704
(dp1705
g19
I0
sg20
F-0.8831021979159299
sg21
I01
sbsg25
(imyEvolve
Tree
p1706
(dp1707
g19
I0
sg20
F-3.7441427124904503
sg21
I01
sbsg22
I00
sg23
g54
sbsg19
I2
sg22
I01
sg23
g24
sbsg22
I00
sg23
g30
sbsg25
(imyEvolve
Tree
p1708
(dp1709
g7
(imyEvolve
Tree
p1710
(dp1711
g19
I2
sg10
(imyEvolve
Tree
p1712
(dp1713
g19
I1
sg10
(imyEvolve
Tree
p1714
(dp1715
g19
I0
sg21
I00
sbsg25
(imyEvolve
Tree
p1716
(dp1717
g19
I0
sg20
F-3.1609205010393913
sg21
I01
sbsg22
I00
sg23
g41
sbsg25
(imyEvolve
Tree
p1718
(dp1719
g7
(imyEvolve
Tree
p1720
(dp1721
g19
I0
sg21
I00
sbsg19
I1
sg22
I01
sg23
g53
sbsg22
I00
sg23
g41
sbsg19
I3
sg22
I01
sg23
g24
sbsg22
I00
sg23
g41
sbsg19
I5
sg22
I01
sg23
g53
sba(imyEvolve
Tree
p1722
(dp1723
g19
I5
sg10
(imyEvolve
Tree
p1724
(dp1725
g19
I4
sg10
(imyEvolve
Tree
p1726
(dp1727
g19
I3
sg10
(imyEvolve
Tree
p1728
(dp1729
g7
(imyEvolve
Tree
p1730
(dp1731
g7
(imyEvolve
Tree
p1732
(dp1733
g19
I0
sg21
I00
sbsg19
I1
sg22
I01
sg23
g24
sbsg19
I2
sg22
I01
sg23
g24
sbsg25
(imyEvolve
Tree
p1734
(dp1735
g19
I2
sg10
(imyEvolve
Tree
p1736
(dp1737
g19
I1
sg10
(imyEvolve
Tree
p1738
(dp1739
g19
I0
sg21
I00
sbsg25
(imyEvolve
Tree
p1740
(dp1741
g19
I0
sg21
I00
sbsg22
I00
sg23
g30
sbsg25
(imyEvolve
Tree
p1742
(dp1743
g19
I1
sg10
(imyEvolve
Tree
p1744
(dp1745
g19
I0
sg20
F-1.9690573845597328
sg21
I01
sbsg25
(imyEvolve
Tree
p1746
(dp1747
g19
I0
sg21
I00
sbsg22
I00
sg23
g54
sbsg22
I00
sg23
g54
sbsg22
I00
sg23
g54
sbsg25
(imyEvolve
Tree
p1748
(dp1749
g7
(imyEvolve
Tree
p1750
(dp1751
g7
(imyEvolve
Tree
p1752
(dp1753
g19
I1
sg10
(imyEvolve
Tree
p1754
(dp1755
g19
I0
sg21
I00
sbsg25
(imyEvolve
Tree
p1756
(dp1757
g19
I0
sg20
F1.3888154275726814
sg21
I01
sbsg22
I00
sg23
g54
sbsg19
I2
sg22
I01
sg23
g53
sbsg19
I3
sg22
I01
sg23
g46
sbsg22
I00
sg23
g30
sbsg25
(imyEvolve
Tree
p1758
(dp1759
g19
I4
sg10
(imyEvolve
Tree
p1760
(dp1761
g7
(imyEvolve
Tree
p1762
(dp1763
g7
(imyEvolve
Tree
p1764
(dp1765
g19
I1
sg10
(imyEvolve
Tree
p1766
(dp1767
g19
I0
sg20
F-1.7860296658040422
sg21
I01
sbsg25
(imyEvolve
Tree
p1768
(dp1769
g19
I0
sg20
F-4.735172488077176
sg21
I01
sbsg22
I00
sg23
g30
sbsg19
I2
sg22
I01
sg23
g53
sbsg19
I3
sg22
I01
sg23
g24
sbsg25
(imyEvolve
Tree
p1770
(dp1771
g7
(imyEvolve
Tree
p1772
(dp1773
g19
I2
sg10
(imyEvolve
Tree
p1774
(dp1775
g19
I1
sg10
(imyEvolve
Tree
p1776
(dp1777
g19
I0
sg20
F0.3936335413319494
sg21
I01
sbsg25
(imyEvolve
Tree
p1778
(dp1779
g19
I0
sg21
I00
sbsg22
I00
sg23
g54
sbsg25
(imyEvolve
Tree
p1780
(dp1781
g7
(imyEvolve
Tree
p1782
(dp1783
g19
I0
sg20
F-1.2796699167262284
sg21
I01
sbsg19
I1
sg22
I01
sg23
g24
sbsg22
I00
sg23
g41
sbsg19
I3
sg22
I01
sg23
g24
sbsg22
I00
sg23
g54
sbsg22
I00
sg23
g41
sba(imyEvolve
Tree
p1784
(dp1785
g7
(imyEvolve
Tree
p1786
(dp1787
g7
(imyEvolve
Tree
p1788
(dp1789
g7
(imyEvolve
Tree
p1790
(dp1791
g7
(imyEvolve
Tree
p1792
(dp1793
g19
I0
sg21
I00
sbsg19
I1
sg22
I01
sg23
g24
sbsg19
I2
sg22
I01
sg23
g75
sbsg19
I3
sg22
I01
sg23
g75
sbsg19
I4
sg22
I01
sg23
g24
sba(imyEvolve
Tree
p1794
(dp1795
g7
(imyEvolve
Tree
p1796
(dp1797
g19
I4
sg10
(imyEvolve
Tree
p1798
(dp1799
g7
(imyEvolve
Tree
p1800
(dp1801
g7
(imyEvolve
Tree
p1802
(dp1803
g19
I1
sg10
(imyEvolve
Tree
p1804
(dp1805
g19
I0
sg21
I00
sbsg25
(imyEvolve
Tree
p1806
(dp1807
g19
I0
sg21
I00
sbsg22
I00
sg23
g30
sbsg19
I2
sg22
I01
sg23
g53
sbsg19
I3
sg22
I01
sg23
g53
sbsg25
(imyEvolve
Tree
p1808
(dp1809
g7
(imyEvolve
Tree
p1810
(dp1811
g7
(imyEvolve
Tree
p1812
(dp1813
g19
I1
sg10
(imyEvolve
Tree
p1814
(dp1815
g19
I0
sg20
F-3.90409700120116
sg21
I01
sbsg25
(imyEvolve
Tree
p1816
(dp1817
g19
I0
sg20
F-4.036677530613542
sg21
I01
sbsg22
I00
sg23
g30
sbsg19
I2
sg22
I01
sg23
g75
sbsg19
I3
sg22
I01
sg23
g46
sbsg22
I00
sg23
g30
sbsg19
I5
sg22
I01
sg23
g46
sba(imyEvolve
Tree
p1818
(dp1819
g19
I3
sg10
(imyEvolve
Tree
p1820
(dp1821
g19
I2
sg10
(imyEvolve
Tree
p1822
(dp1823
g19
I1
sg10
(imyEvolve
Tree
p1824
(dp1825
g19
I0
sg20
F4.063035822757746
sg21
I01
sbsg25
(imyEvolve
Tree
p1826
(dp1827
g19
I0
sg21
I00
sbsg22
I00
sg23
g30
sbsg25
(imyEvolve
Tree
p1828
(dp1829
g7
(imyEvolve
Tree
p1830
(dp1831
g19
I0
sg21
I00
sbsg19
I1
sg22
I01
sg23
g53
sbsg22
I00
sg23
g41
sbsg25
(imyEvolve
Tree
p1832
(dp1833
g7
(imyEvolve
Tree
p1834
(dp1835
g7
(imyEvolve
Tree
p1836
(dp1837
g19
I0
sg21
I00
sbsg19
I1
sg22
I01
sg23
g75
sbsg19
I2
sg22
I01
sg23
g24
sbsg22
I00
sg23
g30
sba(imyEvolve
Tree
p1838
(dp1839
g19
I2
sg10
(imyEvolve
Tree
p1840
(dp1841
g19
I1
sg10
(imyEvolve
Tree
p1842
(dp1843
g19
I0
sg20
F3.613187092359457
sg21
I01
sbsg25
(imyEvolve
Tree
p1844
(dp1845
g19
I0
sg21
I00
sbsg22
I00
sg23
g54
sbsg25
(imyEvolve
Tree
p1846
(dp1847
g7
(imyEvolve
Tree
p1848
(dp1849
g19
I0
sg20
F-1.503542446459507
sg21
I01
sbsg19
I1
sg22
I01
sg23
g46
sbsg22
I00
sg23
g30
sba(imyEvolve
Tree
p1850
(dp1851
g19
I3
sg10
(imyEvolve
Tree
p1852
(dp1853
g19
I2
sg10
(imyEvolve
Tree
p1854
(dp1855
g19
I1
sg10
(imyEvolve
Tree
p1856
(dp1857
g19
I0
sg20
F0.15142514838513677
sg21
I01
sbsg25
(imyEvolve
Tree
p1858
(dp1859
g19
I0
sg20
F2.2849586370986605
sg21
I01
sbsg22
I00
sg23
g54
sbsg25
(imyEvolve
Tree
p1860
(dp1861
g19
I1
sg10
(imyEvolve
Tree
p1862
(dp1863
g19
I0
sg20
F3.088086050838477
sg21
I01
sbsg25
(imyEvolve
Tree
p1864
(dp1865
g19
I0
sg21
I00
sbsg22
I00
sg23
g41
sbsg22
I00
sg23
g54
sbsg25
(imyEvolve
Tree
p1866
(dp1867
g19
I2
sg10
(imyEvolve
Tree
p1868
(dp1869
g19
I1
sg10
(imyEvolve
Tree
p1870
(dp1871
g19
I0
sg20
F2.479520824031768
sg21
I01
sbsg25
(imyEvolve
Tree
p1872
(dp1873
g19
I0
sg21
I00
sbsg22
I00
sg23
g41
sbsg25
(imyEvolve
Tree
p1874
(dp1875
g19
I1
sg10
(imyEvolve
Tree
p1876
(dp1877
g19
I0
sg21
I00
sbsg25
(imyEvolve
Tree
p1878
(dp1879
g19
I0
sg20
F1.9357814020352837
sg21
I01
sbsg22
I00
sg23
g30
sbsg22
I00
sg23
g54
sbsg22
I00
sg23
g30
sba(imyEvolve
Tree
p1880
(dp1881
g19
I3
sg10
(imyEvolve
Tree
p1882
(dp1883
g19
I2
sg10
(imyEvolve
Tree
p1884
(dp1885
g19
I1
sg10
(imyEvolve
Tree
p1886
(dp1887
g19
I0
sg20
F-0.1752141052443239
sg21
I01
sbsg25
(imyEvolve
Tree
p1888
(dp1889
g19
I0
sg21
I00
sbsg22
I00
sg23
g30
sbsg25
(imyEvolve
Tree
p1890
(dp1891
g7
(imyEvolve
Tree
p1892
(dp1893
g19
I0
sg21
I00
sbsg19
I1
sg22
I01
sg23
g24
sbsg22
I00
sg23
g54
sbsg25
(imyEvolve
Tree
p1894
(dp1895
g7
(imyEvolve
Tree
p1896
(dp1897
g19
I1
sg10
(imyEvolve
Tree
p1898
(dp1899
g19
I0
sg20
F-3.490199309696367
sg21
I01
sbsg25
(imyEvolve
Tree
p1900
(dp1901
g19
I0
sg21
I00
sbsg22
I00
sg23
g30
sbsg19
I2
sg22
I01
sg23
g53
sbsg22
I00
sg23
g54
sbaasS'alpha'
p1902
F0.0036983268320204083
sS'fitness'
p1903
cnumpy.core.multiarray
scalar
p1904
(cnumpy
dtype
p1905
(S'f8'
p1906
I0
I1
tp1907
Rp1908
(I3
S'<'
p1909
NNNI-1
I-1
I0
tp1910
bS'mV}\xaf\x95"\xe6?'
p1911
tp1912
Rp1913
sS'weightSharing'
p1914
(lp1915
I00
asS'fitnessValid'
p1916
I00
sS'resolution'
p1917
I65
sb.