(imyEvolve
Individual
p0
(dp1
S'funcs'
p2
(lp3
(lp4
(imyEvolve
Tree
p5
(dp6
S'depth'
p7
I2
sS'left'
p8
(imyEvolve
Tree
p9
(dp10
S'below'
p11
(imyEvolve
Tree
p12
(dp13
g7
I0
sS'isConstant'
p14
I00
sbsg7
I1
sS'single'
p15
I01
sS'op'
p16
cmyEvolve
absSqrt
p17
sbsS'right'
p18
(imyEvolve
Tree
p19
(dp20
g7
I1
sg8
(imyEvolve
Tree
p21
(dp22
g7
I0
sg14
I00
sbsg18
(imyEvolve
Tree
p23
(dp24
g7
I0
sS'constant'
p25
F-3.0650901572425227
sg14
I01
sbsg15
I00
sg16
coperator
add
p26
sbsg15
I00
sg16
g26
sba(imyEvolve
Tree
p27
(dp28
g7
I2
sg8
(imyEvolve
Tree
p29
(dp30
g11
(imyEvolve
Tree
p31
(dp32
g7
I0
sg14
I00
sbsg7
I1
sg15
I01
sg16
cmyEvolve
square
p33
sbsg18
(imyEvolve
Tree
p34
(dp35
g7
I1
sg8
(imyEvolve
Tree
p36
(dp37
g7
I0
sg25
F3.487013979638638
sg14
I01
sbsg18
(imyEvolve
Tree
p38
(dp39
g7
I0
sg25
F-1.3028578873290897
sg14
I01
sbsg15
I00
sg16
g26
sbsg15
I00
sg16
coperator
sub
p40
sba(imyEvolve
Tree
p41
(dp42
g8
(imyEvolve
Tree
p43
(dp44
g8
(imyEvolve
Tree
p45
(dp46
g11
(imyEvolve
Tree
p47
(dp48
g11
(imyEvolve
Tree
p49
(dp50
g11
(imyEvolve
Tree
p51
(dp52
g7
I0
sg14
I00
sbsg7
I1
sg15
I01
sg16
g33
sbsg7
I2
sg15
I01
sg16
cmath
sin
p53
sbsg7
I3
sg15
I01
sg16
g53
sbsg7
I4
sg18
(imyEvolve
Tree
p54
(dp55
g8
(imyEvolve
Tree
p56
(dp57
g8
(imyEvolve
Tree
p58
(dp59
g11
(imyEvolve
Tree
p60
(dp61
g7
I0
sg25
F-2.194625601492215
sg14
I01
sbsg7
I1
sg15
I01
sg16
g17
sbsg7
I2
sg18
(imyEvolve
Tree
p62
(dp63
g11
(imyEvolve
Tree
p64
(dp65
g7
I0
sg14
I00
sbsg7
I1
sg15
I01
sg16
g17
sbsg15
I00
sg16
coperator
mul
p66
sbsg7
I3
sg18
(imyEvolve
Tree
p67
(dp68
g11
(imyEvolve
Tree
p69
(dp70
g8
(imyEvolve
Tree
p71
(dp72
g7
I0
sg25
F-3.0780543946744086
sg14
I01
sbsg7
I1
sg18
(imyEvolve
Tree
p73
(dp74
g7
I0
sg25
F-0.23402464932056333
sg14
I01
sbsg15
I00
sg16
g66
sbsg7
I2
sg15
I01
sg16
g53
sbsg15
I00
sg16
g40
sbsg15
I00
sg16
g26
sbsg7
I5
sg18
(imyEvolve
Tree
p75
(dp76
g11
(imyEvolve
Tree
p77
(dp78
g11
(imyEvolve
Tree
p79
(dp80
g11
(imyEvolve
Tree
p81
(dp82
g11
(imyEvolve
Tree
p83
(dp84
g7
I0
sg14
I00
sbsg7
I1
sg15
I01
sg16
g17
sbsg7
I2
sg15
I01
sg16
g33
sbsg7
I3
sg15
I01
sg16
cmath
cos
p85
sbsg7
I4
sg15
I01
sg16
g53
sbsg15
I00
sg16
g66
sba(imyEvolve
Tree
p86
(dp87
g8
(imyEvolve
Tree
p88
(dp89
g11
(imyEvolve
Tree
p90
(dp91
g11
(imyEvolve
Tree
p92
(dp93
g8
(imyEvolve
Tree
p94
(dp95
g8
(imyEvolve
Tree
p96
(dp97
g7
I0
sg14
I00
sbsg7
I1
sg18
(imyEvolve
Tree
p98
(dp99
g7
I0
sg25
F4.0335451256297326
sg14
I01
sbsg15
I00
sg16
g66
sbsg7
I2
sg18
(imyEvolve
Tree
p100
(dp101
g11
(imyEvolve
Tree
p102
(dp103
g7
I0
sg14
I00
sbsg7
I1
sg15
I01
sg16
g85
sbsg15
I00
sg16
g26
sbsg7
I3
sg15
I01
sg16
g17
sbsg7
I4
sg15
I01
sg16
g53
sbsg7
I5
sg18
(imyEvolve
Tree
p104
(dp105
g8
(imyEvolve
Tree
p106
(dp107
g8
(imyEvolve
Tree
p108
(dp109
g8
(imyEvolve
Tree
p110
(dp111
g8
(imyEvolve
Tree
p112
(dp113
g7
I0
sg25
F4.914571258548197
sg14
I01
sbsg7
I1
sg18
(imyEvolve
Tree
p114
(dp115
g7
I0
sg25
F2.958972057203794
sg14
I01
sbsg15
I00
sg16
g26
sbsg7
I2
sg18
(imyEvolve
Tree
p116
(dp117
g8
(imyEvolve
Tree
p118
(dp119
g7
I0
sg14
I00
sbsg7
I1
sg18
(imyEvolve
Tree
p120
(dp121
g7
I0
sg25
F1.6082563923527768
sg14
I01
sbsg15
I00
sg16
g66
sbsg15
I00
sg16
g26
sbsg7
I3
sg18
(imyEvolve
Tree
p122
(dp123
g11
(imyEvolve
Tree
p124
(dp125
g8
(imyEvolve
Tree
p126
(dp127
g7
I0
sg25
F-2.077475977782166
sg14
I01
sbsg7
I1
sg18
(imyEvolve
Tree
p128
(dp129
g7
I0
sg14
I00
sbsg15
I00
sg16
g66
sbsg7
I2
sg15
I01
sg16
g85
sbsg15
I00
sg16
g66
sbsg7
I4
sg18
(imyEvolve
Tree
p130
(dp131
g11
(imyEvolve
Tree
p132
(dp133
g8
(imyEvolve
Tree
p134
(dp135
g8
(imyEvolve
Tree
p136
(dp137
g7
I0
sg25
F4.40289127860782
sg14
I01
sbsg7
I1
sg18
(imyEvolve
Tree
p138
(dp139
g7
I0
sg14
I00
sbsg15
I00
sg16
g66
sbsg7
I2
sg18
(imyEvolve
Tree
p140
(dp141
g11
(imyEvolve
Tree
p142
(dp143
g7
I0
sg14
I00
sbsg7
I1
sg15
I01
sg16
g33
sbsg15
I00
sg16
g40
sbsg7
I3
sg15
I01
sg16
g33
sbsg15
I00
sg16
g40
sbsg15
I00
sg16
g26
sba(imyEvolve
Tree
p144
(dp145
g11
(imyEvolve
Tree
p146
(dp147
g11
(imyEvolve
Tree
p148
(dp149
g8
(imyEvolve
Tree
p150
(dp151
g11
(imyEvolve
Tree
p152
(dp153
g11
(imyEvolve
Tree
p154
(dp155
g7
I0
sg25
F-3.5605797211046495
sg14
I01
sbsg7
I1
sg15
I01
sg16
g33
sbsg7
I2
sg15
I01
sg16
g17
sbsg7
I3
sg18
(imyEvolve
Tree
p156
(dp157
g11
(imyEvolve
Tree
p158
(dp159
g11
(imyEvolve
Tree
p160
(dp161
g7
I0
sg14
I00
sbsg7
I1
sg15
I01
sg16
g17
sbsg7
I2
sg15
I01
sg16
g53
sbsg15
I00
sg16
g40
sbsg7
I4
sg15
I01
sg16
g85
sbsg7
I5
sg15
I01
sg16
g85
sba(imyEvolve
Tree
p162
(dp163
g11
(imyEvolve
Tree
p164
(dp165
g8
(imyEvolve
Tree
p166
(dp167
g7
I0
sg14
I00
sbsg7
I1
sg18
(imyEvolve
Tree
p168
(dp169
g7
I0
sg14
I00
sbsg15
I00
sg16
g40
sbsg7
I2
sg15
I01
sg16
g85
sba(imyEvolve
Tree
p170
(dp171
g8
(imyEvolve
Tree
p172
(dp173
g11
(imyEvolve
Tree
p174
(dp175
g8
(imyEvolve
Tree
p176
(dp177
g11
(imyEvolve
Tree
p178
(dp179
g7
I0
sg14
I00
sbsg7
I1
sg15
I01
sg16
g17
sbsg7
I2
sg18
(imyEvolve
Tree
p180
(dp181
g8
(imyEvolve
Tree
p182
(dp183
g7
I0
sg25
F-1.4711310797438673
sg14
I01
sbsg7
I1
sg18
(imyEvolve
Tree
p184
(dp185
g7
I0
sg14
I00
sbsg15
I00
sg16
g40
sbsg15
I00
sg16
g40
sbsg7
I3
sg15
I01
sg16
g53
sbsg7
I4
sg18
(imyEvolve
Tree
p186
(dp187
g11
(imyEvolve
Tree
p188
(dp189
g11
(imyEvolve
Tree
p190
(dp191
g11
(imyEvolve
Tree
p192
(dp193
g7
I0
sg25
F4.093173283460931
sg14
I01
sbsg7
I1
sg15
I01
sg16
g17
sbsg7
I2
sg15
I01
sg16
g33
sbsg7
I3
sg15
I01
sg16
g85
sbsg15
I00
sg16
g66
sba(imyEvolve
Tree
p194
(dp195
g11
(imyEvolve
Tree
p196
(dp197
g11
(imyEvolve
Tree
p198
(dp199
g11
(imyEvolve
Tree
p200
(dp201
g7
I0
sg14
I00
sbsg7
I1
sg15
I01
sg16
g85
sbsg7
I2
sg15
I01
sg16
g17
sbsg7
I3
sg15
I01
sg16
g33
sba(imyEvolve
Tree
p202
(dp203
g8
(imyEvolve
Tree
p204
(dp205
g8
(imyEvolve
Tree
p206
(dp207
g8
(imyEvolve
Tree
p208
(dp209
g11
(imyEvolve
Tree
p210
(dp211
g8
(imyEvolve
Tree
p212
(dp213
g7
I0
sg14
I00
sbsg7
I1
sg18
(imyEvolve
Tree
p214
(dp215
g7
I0
sg25
F-3.1588421602934655
sg14
I01
sbsg15
I00
sg16
g66
sbsg7
I2
sg15
I01
sg16
g85
sbsg7
I3
sg18
(imyEvolve
Tree
p216
(dp217
g8
(imyEvolve
Tree
p218
(dp219
g11
(imyEvolve
Tree
p220
(dp221
g7
I0
sg25
F2.3521657001242726
sg14
I01
sbsg7
I1
sg15
I01
sg16
g33
sbsg7
I2
sg18
(imyEvolve
Tree
p222
(dp223
g8
(imyEvolve
Tree
p224
(dp225
g7
I0
sg14
I00
sbsg7
I1
sg18
(imyEvolve
Tree
p226
(dp227
g7
I0
sg25
F1.687607381302314
sg14
I01
sbsg15
I00
sg16
g40
sbsg15
I00
sg16
g66
sbsg15
I00
sg16
g40
sbsg7
I4
sg18
(imyEvolve
Tree
p228
(dp229
g11
(imyEvolve
Tree
p230
(dp231
g8
(imyEvolve
Tree
p232
(dp233
g11
(imyEvolve
Tree
p234
(dp235
g7
I0
sg14
I00
sbsg7
I1
sg15
I01
sg16
g85
sbsg7
I2
sg18
(imyEvolve
Tree
p236
(dp237
g11
(imyEvolve
Tree
p238
(dp239
g7
I0
sg25
F3.2501511916158012
sg14
I01
sbsg7
I1
sg15
I01
sg16
g17
sbsg15
I00
sg16
g40
sbsg7
I3
sg15
I01
sg16
g17
sbsg15
I00
sg16
g26
sbsg7
I5
sg18
(imyEvolve
Tree
p240
(dp241
g11
(imyEvolve
Tree
p242
(dp243
g8
(imyEvolve
Tree
p244
(dp245
g11
(imyEvolve
Tree
p246
(dp247
g8
(imyEvolve
Tree
p248
(dp249
g7
I0
sg14
I00
sbsg7
I1
sg18
(imyEvolve
Tree
p250
(dp251
g7
I0
sg25
F-0.4971146818405314
sg14
I01
sbsg15
I00
sg16
g26
sbsg7
I2
sg15
I01
sg16
g85
sbsg7
I3
sg18
(imyEvolve
Tree
p252
(dp253
g11
(imyEvolve
Tree
p254
(dp255
g8
(imyEvolve
Tree
p256
(dp257
g7
I0
sg14
I00
sbsg7
I1
sg18
(imyEvolve
Tree
p258
(dp259
g7
I0
sg14
I00
sbsg15
I00
sg16
g66
sbsg7
I2
sg15
I01
sg16
g53
sbsg15
I00
sg16
g40
sbsg7
I4
sg15
I01
sg16
g85
sbsg15
I00
sg16
g40
sba(imyEvolve
Tree
p260
(dp261
g11
(imyEvolve
Tree
p262
(dp263
g11
(imyEvolve
Tree
p264
(dp265
g11
(imyEvolve
Tree
p266
(dp267
g8
(imyEvolve
Tree
p268
(dp269
g11
(imyEvolve
Tree
p270
(dp271
g7
I0
sg14
I00
sbsg7
I1
sg15
I01
sg16
g53
sbsg7
I2
sg18
(imyEvolve
Tree
p272
(dp273
g8
(imyEvolve
Tree
p274
(dp275
g7
I0
sg14
I00
sbsg7
I1
sg18
(imyEvolve
Tree
p276
(dp277
g7
I0
sg25
F0.8911251189838865
sg14
I01
sbsg15
I00
sg16
g40
sbsg15
I00
sg16
g26
sbsg7
I3
sg15
I01
sg16
g17
sbsg7
I4
sg15
I01
sg16
g33
sbsg7
I5
sg15
I01
sg16
g85
sba(imyEvolve
Tree
p278
(dp279
g8
(imyEvolve
Tree
p280
(dp281
g8
(imyEvolve
Tree
p282
(dp283
g11
(imyEvolve
Tree
p284
(dp285
g11
(imyEvolve
Tree
p286
(dp287
g7
I0
sg14
I00
sbsg7
I1
sg15
I01
sg16
g33
sbsg7
I2
sg15
I01
sg16
g53
sbsg7
I3
sg18
(imyEvolve
Tree
p288
(dp289
g11
(imyEvolve
Tree
p290
(dp291
g8
(imyEvolve
Tree
p292
(dp293
g7
I0
sg14
I00
sbsg7
I1
sg18
(imyEvolve
Tree
p294
(dp295
g7
I0
sg14
I00
sbsg15
I00
sg16
g66
sbsg7
I2
sg15
I01
sg16
g17
sbsg15
I00
sg16
g40
sbsg7
I4
sg18
(imyEvolve
Tree
p296
(dp297
g11
(imyEvolve
Tree
p298
(dp299
g8
(imyEvolve
Tree
p300
(dp301
g8
(imyEvolve
Tree
p302
(dp303
g7
I0
sg25
F-2.8845711841019894
sg14
I01
sbsg7
I1
sg18
(imyEvolve
Tree
p304
(dp305
g7
I0
sg14
I00
sbsg15
I00
sg16
g40
sbsg7
I2
sg18
(imyEvolve
Tree
p306
(dp307
g8
(imyEvolve
Tree
p308
(dp309
g7
I0
sg25
F4.932791729972729
sg14
I01
sbsg7
I1
sg18
(imyEvolve
Tree
p310
(dp311
g7
I0
sg14
I00
sbsg15
I00
sg16
g40
sbsg15
I00
sg16
g40
sbsg7
I3
sg15
I01
sg16
g17
sbsg15
I00
sg16
g66
sba(imyEvolve
Tree
p312
(dp313
g11
(imyEvolve
Tree
p314
(dp315
g8
(imyEvolve
Tree
p316
(dp317
g11
(imyEvolve
Tree
p318
(dp319
g11
(imyEvolve
Tree
p320
(dp321
g7
I0
sg25
F2.0741948645207398
sg14
I01
sbsg7
I1
sg15
I01
sg16
g33
sbsg7
I2
sg15
I01
sg16
g17
sbsg7
I3
sg18
(imyEvolve
Tree
p322
(dp323
g8
(imyEvolve
Tree
p324
(dp325
g8
(imyEvolve
Tree
p326
(dp327
g7
I0
sg14
I00
sbsg7
I1
sg18
(imyEvolve
Tree
p328
(dp329
g7
I0
sg25
F1.6146527970256024
sg14
I01
sbsg15
I00
sg16
g26
sbsg7
I2
sg18
(imyEvolve
Tree
p330
(dp331
g11
(imyEvolve
Tree
p332
(dp333
g7
I0
sg14
I00
sbsg7
I1
sg15
I01
sg16
g85
sbsg15
I00
sg16
g26
sbsg15
I00
sg16
g66
sbsg7
I4
sg15
I01
sg16
g53
sba(imyEvolve
Tree
p334
(dp335
g11
(imyEvolve
Tree
p336
(dp337
g11
(imyEvolve
Tree
p338
(dp339
g7
I0
sg25
F3.194390632773045
sg14
I01
sbsg7
I1
sg15
I01
sg16
g85
sbsg7
I2
sg15
I01
sg16
g53
sba(imyEvolve
Tree
p340
(dp341
g11
(imyEvolve
Tree
p342
(dp343
g11
(imyEvolve
Tree
p344
(dp345
g7
I0
sg25
F2.6897504296398678
sg14
I01
sbsg7
I1
sg15
I01
sg16
g33
sbsg7
I2
sg15
I01
sg16
g33
sba(imyEvolve
Tree
p346
(dp347
g8
(imyEvolve
Tree
p348
(dp349
g11
(imyEvolve
Tree
p350
(dp351
g7
I0
sg25
F-0.5873046072918147
sg14
I01
sbsg7
I1
sg15
I01
sg16
g17
sbsg7
I2
sg18
(imyEvolve
Tree
p352
(dp353
g11
(imyEvolve
Tree
p354
(dp355
g7
I0
sg25
F-1.2324085631721218
sg14
I01
sbsg7
I1
sg15
I01
sg16
g17
sbsg15
I00
sg16
g66
sba(imyEvolve
Tree
p356
(dp357
g11
(imyEvolve
Tree
p358
(dp359
g11
(imyEvolve
Tree
p360
(dp361
g11
(imyEvolve
Tree
p362
(dp363
g7
I0
sg14
I00
sbsg7
I1
sg15
I01
sg16
g53
sbsg7
I2
sg15
I01
sg16
g17
sbsg7
I3
sg15
I01
sg16
g33
sba(imyEvolve
Tree
p364
(dp365
g8
(imyEvolve
Tree
p366
(dp367
g11
(imyEvolve
Tree
p368
(dp369
g7
I0
sg14
I00
sbsg7
I1
sg15
I01
sg16
g17
sbsg7
I2
sg18
(imyEvolve
Tree
p370
(dp371
g11
(imyEvolve
Tree
p372
(dp373
g7
I0
sg14
I00
sbsg7
I1
sg15
I01
sg16
g85
sbsg15
I00
sg16
g26
sba(imyEvolve
Tree
p374
(dp375
g11
(imyEvolve
Tree
p376
(dp377
g7
I1
sg8
(imyEvolve
Tree
p378
(dp379
g7
I0
sg14
I00
sbsg18
(imyEvolve
Tree
p380
(dp381
g7
I0
sg14
I00
sbsg15
I00
sg16
g26
sbsg7
I2
sg15
I01
sg16
g17
sbaa(lp382
(imyEvolve
Tree
p383
(dp384
g11
(imyEvolve
Tree
p385
(dp386
g11
(imyEvolve
Tree
p387
(dp388
g7
I0
sg25
F-4.052209945180438
sg14
I01
sbsg7
I1
sg15
I01
sg16
g33
sbsg7
I2
sg15
I01
sg16
g85
sba(imyEvolve
Tree
p389
(dp390
g11
(imyEvolve
Tree
p391
(dp392
g7
I2
sg8
(imyEvolve
Tree
p393
(dp394
g7
I1
sg8
(imyEvolve
Tree
p395
(dp396
g7
I0
sg25
F-1.7835093461837248
sg14
I01
sbsg18
(imyEvolve
Tree
p397
(dp398
g7
I0
sg25
F-4.62366674585522
sg14
I01
sbsg15
I00
sg16
g66
sbsg18
(imyEvolve
Tree
p399
(dp400
g7
I1
sg8
(imyEvolve
Tree
p401
(dp402
g7
I0
sg25
F-2.7583376389647496
sg14
I01
sbsg18
(imyEvolve
Tree
p403
(dp404
g7
I0
sg14
I00
sbsg15
I00
sg16
g40
sbsg15
I00
sg16
g66
sbsg7
I3
sg15
I01
sg16
g85
sba(imyEvolve
Tree
p405
(dp406
g7
I3
sg8
(imyEvolve
Tree
p407
(dp408
g11
(imyEvolve
Tree
p409
(dp410
g11
(imyEvolve
Tree
p411
(dp412
g7
I0
sg25
F-4.05711030456701
sg14
I01
sbsg7
I1
sg15
I01
sg16
g85
sbsg7
I2
sg15
I01
sg16
g33
sbsg18
(imyEvolve
Tree
p413
(dp414
g11
(imyEvolve
Tree
p415
(dp416
g7
I1
sg8
(imyEvolve
Tree
p417
(dp418
g7
I0
sg14
I00
sbsg18
(imyEvolve
Tree
p419
(dp420
g7
I0
sg14
I00
sbsg15
I00
sg16
g40
sbsg7
I2
sg15
I01
sg16
g85
sbsg15
I00
sg16
g66
sba(imyEvolve
Tree
p421
(dp422
g8
(imyEvolve
Tree
p423
(dp424
g8
(imyEvolve
Tree
p425
(dp426
g8
(imyEvolve
Tree
p427
(dp428
g7
I0
sg14
I00
sbsg7
I1
sg18
(imyEvolve
Tree
p429
(dp430
g7
I0
sg14
I00
sbsg15
I00
sg16
g40
sbsg7
I2
sg18
(imyEvolve
Tree
p431
(dp432
g8
(imyEvolve
Tree
p433
(dp434
g7
I0
sg25
F-1.1848850667596675
sg14
I01
sbsg7
I1
sg18
(imyEvolve
Tree
p435
(dp436
g7
I0
sg14
I00
sbsg15
I00
sg16
g26
sbsg15
I00
sg16
g66
sbsg7
I3
sg18
(imyEvolve
Tree
p437
(dp438
g8
(imyEvolve
Tree
p439
(dp440
g11
(imyEvolve
Tree
p441
(dp442
g7
I0
sg14
I00
sbsg7
I1
sg15
I01
sg16
g53
sbsg7
I2
sg18
(imyEvolve
Tree
p443
(dp444
g11
(imyEvolve
Tree
p445
(dp446
g7
I0
sg14
I00
sbsg7
I1
sg15
I01
sg16
g53
sbsg15
I00
sg16
g40
sbsg15
I00
sg16
g26
sba(imyEvolve
Tree
p447
(dp448
g11
(imyEvolve
Tree
p449
(dp450
g7
I4
sg8
(imyEvolve
Tree
p451
(dp452
g7
I3
sg8
(imyEvolve
Tree
p453
(dp454
g7
I2
sg8
(imyEvolve
Tree
p455
(dp456
g7
I1
sg8
(imyEvolve
Tree
p457
(dp458
g7
I0
sg14
I00
sbsg18
(imyEvolve
Tree
p459
(dp460
g7
I0
sg14
I00
sbsg15
I00
sg16
g66
sbsg18
(imyEvolve
Tree
p461
(dp462
g7
I1
sg8
(imyEvolve
Tree
p463
(dp464
g7
I0
sg14
I00
sbsg18
(imyEvolve
Tree
p465
(dp466
g7
I0
sg25
F0.5181968414518678
sg14
I01
sbsg15
I00
sg16
g26
sbsg15
I00
sg16
g66
sbsg18
(imyEvolve
Tree
p467
(dp468
g7
I2
sg8
(imyEvolve
Tree
p469
(dp470
g11
(imyEvolve
Tree
p471
(dp472
g7
I0
sg14
I00
sbsg7
I1
sg15
I01
sg16
g33
sbsg18
(imyEvolve
Tree
p473
(dp474
g11
(imyEvolve
Tree
p475
(dp476
g7
I0
sg25
F-3.3833386469261564
sg14
I01
sbsg7
I1
sg15
I01
sg16
g17
sbsg15
I00
sg16
g40
sbsg15
I00
sg16
g40
sbsg18
(imyEvolve
Tree
p477
(dp478
g11
(imyEvolve
Tree
p479
(dp480
g7
I2
sg8
(imyEvolve
Tree
p481
(dp482
g7
I1
sg8
(imyEvolve
Tree
p483
(dp484
g7
I0
sg25
F0.8860960017918087
sg14
I01
sbsg18
(imyEvolve
Tree
p485
(dp486
g7
I0
sg25
F4.201237350706451
sg14
I01
sbsg15
I00
sg16
g40
sbsg18
(imyEvolve
Tree
p487
(dp488
g7
I1
sg8
(imyEvolve
Tree
p489
(dp490
g7
I0
sg25
F4.390198204894718
sg14
I01
sbsg18
(imyEvolve
Tree
p491
(dp492
g7
I0
sg14
I00
sbsg15
I00
sg16
g66
sbsg15
I00
sg16
g66
sbsg7
I3
sg15
I01
sg16
g17
sbsg15
I00
sg16
g26
sbsg7
I5
sg15
I01
sg16
g17
sba(imyEvolve
Tree
p493
(dp494
g7
I4
sg8
(imyEvolve
Tree
p495
(dp496
g11
(imyEvolve
Tree
p497
(dp498
g11
(imyEvolve
Tree
p499
(dp500
g7
I1
sg8
(imyEvolve
Tree
p501
(dp502
g7
I0
sg25
F-3.0517215506553397
sg14
I01
sbsg18
(imyEvolve
Tree
p503
(dp504
g7
I0
sg14
I00
sbsg15
I00
sg16
g40
sbsg7
I2
sg15
I01
sg16
g85
sbsg7
I3
sg15
I01
sg16
g17
sbsg18
(imyEvolve
Tree
p505
(dp506
g7
I3
sg8
(imyEvolve
Tree
p507
(dp508
g11
(imyEvolve
Tree
p509
(dp510
g11
(imyEvolve
Tree
p511
(dp512
g7
I0
sg14
I00
sbsg7
I1
sg15
I01
sg16
g33
sbsg7
I2
sg15
I01
sg16
g33
sbsg18
(imyEvolve
Tree
p513
(dp514
g11
(imyEvolve
Tree
p515
(dp516
g7
I1
sg8
(imyEvolve
Tree
p517
(dp518
g7
I0
sg25
F0.3738059758386836
sg14
I01
sbsg18
(imyEvolve
Tree
p519
(dp520
g7
I0
sg25
F2.4252787709405865
sg14
I01
sbsg15
I00
sg16
g66
sbsg7
I2
sg15
I01
sg16
g17
sbsg15
I00
sg16
g40
sbsg15
I00
sg16
g26
sba(imyEvolve
Tree
p521
(dp522
g11
(imyEvolve
Tree
p523
(dp524
g8
(imyEvolve
Tree
p525
(dp526
g8
(imyEvolve
Tree
p527
(dp528
g8
(imyEvolve
Tree
p529
(dp530
g7
I0
sg25
F-3.708706885759232
sg14
I01
sbsg7
I1
sg18
(imyEvolve
Tree
p531
(dp532
g7
I0
sg14
I00
sbsg15
I00
sg16
g26
sbsg7
I2
sg18
(imyEvolve
Tree
p533
(dp534
g8
(imyEvolve
Tree
p535
(dp536
g7
I0
sg14
I00
sbsg7
I1
sg18
(imyEvolve
Tree
p537
(dp538
g7
I0
sg14
I00
sbsg15
I00
sg16
g26
sbsg15
I00
sg16
g66
sbsg7
I3
sg18
(imyEvolve
Tree
p539
(dp540
g11
(imyEvolve
Tree
p541
(dp542
g11
(imyEvolve
Tree
p543
(dp544
g7
I0
sg25
F2.741288991206935
sg14
I01
sbsg7
I1
sg15
I01
sg16
g53
sbsg7
I2
sg15
I01
sg16
g85
sbsg15
I00
sg16
g66
sbsg7
I4
sg15
I01
sg16
g33
sba(imyEvolve
Tree
p545
(dp546
g11
(imyEvolve
Tree
p547
(dp548
g11
(imyEvolve
Tree
p549
(dp550
g8
(imyEvolve
Tree
p551
(dp552
g8
(imyEvolve
Tree
p553
(dp554
g7
I0
sg14
I00
sbsg7
I1
sg18
(imyEvolve
Tree
p555
(dp556
g7
I0
sg14
I00
sbsg15
I00
sg16
g26
sbsg7
I2
sg18
(imyEvolve
Tree
p557
(dp558
g8
(imyEvolve
Tree
p559
(dp560
g7
I0
sg25
F0.9746131049444156
sg14
I01
sbsg7
I1
sg18
(imyEvolve
Tree
p561
(dp562
g7
I0
sg14
I00
sbsg15
I00
sg16
g26
sbsg15
I00
sg16
g26
sbsg7
I3
sg15
I01
sg16
g17
sbsg7
I4
sg15
I01
sg16
g53
sba(imyEvolve
Tree
p563
(dp564
g7
I5
sg8
(imyEvolve
Tree
p565
(dp566
g7
I4
sg8
(imyEvolve
Tree
p567
(dp568
g11
(imyEvolve
Tree
p569
(dp570
g7
I2
sg8
(imyEvolve
Tree
p571
(dp572
g7
I1
sg8
(imyEvolve
Tree
p573
(dp574
g7
I0
sg25
F0.6734743539103007
sg14
I01
sbsg18
(imyEvolve
Tree
p575
(dp576
g7
I0
sg25
F1.230287028727619
sg14
I01
sbsg15
I00
sg16
g40
sbsg18
(imyEvolve
Tree
p577
(dp578
g11
(imyEvolve
Tree
p579
(dp580
g7
I0
sg14
I00
sbsg7
I1
sg15
I01
sg16
g53
sbsg15
I00
sg16
g66
sbsg7
I3
sg15
I01
sg16
g33
sbsg18
(imyEvolve
Tree
p581
(dp582
g7
I3
sg8
(imyEvolve
Tree
p583
(dp584
g7
I2
sg8
(imyEvolve
Tree
p585
(dp586
g11
(imyEvolve
Tree
p587
(dp588
g7
I0
sg14
I00
sbsg7
I1
sg15
I01
sg16
g17
sbsg18
(imyEvolve
Tree
p589
(dp590
g11
(imyEvolve
Tree
p591
(dp592
g7
I0
sg14
I00
sbsg7
I1
sg15
I01
sg16
g53
sbsg15
I00
sg16
g66
sbsg18
(imyEvolve
Tree
p593
(dp594
g7
I2
sg8
(imyEvolve
Tree
p595
(dp596
g11
(imyEvolve
Tree
p597
(dp598
g7
I0
sg14
I00
sbsg7
I1
sg15
I01
sg16
g33
sbsg18
(imyEvolve
Tree
p599
(dp600
g7
I1
sg8
(imyEvolve
Tree
p601
(dp602
g7
I0
sg25
F0.9146473753668127
sg14
I01
sbsg18
(imyEvolve
Tree
p603
(dp604
g7
I0
sg25
F-1.1352685437333054
sg14
I01
sbsg15
I00
sg16
g40
sbsg15
I00
sg16
g66
sbsg15
I00
sg16
g26
sbsg15
I00
sg16
g26
sbsg18
(imyEvolve
Tree
p605
(dp606
g7
I4
sg8
(imyEvolve
Tree
p607
(dp608
g7
I3
sg8
(imyEvolve
Tree
p609
(dp610
g11
(imyEvolve
Tree
p611
(dp612
g11
(imyEvolve
Tree
p613
(dp614
g7
I0
sg25
F3.5320886931784976
sg14
I01
sbsg7
I1
sg15
I01
sg16
g85
sbsg7
I2
sg15
I01
sg16
g53
sbsg18
(imyEvolve
Tree
p615
(dp616
g11
(imyEvolve
Tree
p617
(dp618
g7
I1
sg8
(imyEvolve
Tree
p619
(dp620
g7
I0
sg14
I00
sbsg18
(imyEvolve
Tree
p621
(dp622
g7
I0
sg25
F4.126942852357605
sg14
I01
sbsg15
I00
sg16
g26
sbsg7
I2
sg15
I01
sg16
g17
sbsg15
I00
sg16
g66
sbsg18
(imyEvolve
Tree
p623
(dp624
g7
I3
sg8
(imyEvolve
Tree
p625
(dp626
g11
(imyEvolve
Tree
p627
(dp628
g7
I1
sg8
(imyEvolve
Tree
p629
(dp630
g7
I0
sg14
I00
sbsg18
(imyEvolve
Tree
p631
(dp632
g7
I0
sg14
I00
sbsg15
I00
sg16
g40
sbsg7
I2
sg15
I01
sg16
g53
sbsg18
(imyEvolve
Tree
p633
(dp634
g11
(imyEvolve
Tree
p635
(dp636
g11
(imyEvolve
Tree
p637
(dp638
g7
I0
sg25
F-3.8771047253233935
sg14
I01
sbsg7
I1
sg15
I01
sg16
g53
sbsg7
I2
sg15
I01
sg16
g53
sbsg15
I00
sg16
g66
sbsg15
I00
sg16
g66
sbsg15
I00
sg16
g66
sba(imyEvolve
Tree
p639
(dp640
g11
(imyEvolve
Tree
p641
(dp642
g11
(imyEvolve
Tree
p643
(dp644
g11
(imyEvolve
Tree
p645
(dp646
g7
I0
sg14
I00
sbsg7
I1
sg15
I01
sg16
g53
sbsg7
I2
sg15
I01
sg16
g17
sbsg7
I3
sg15
I01
sg16
g17
sba(imyEvolve
Tree
p647
(dp648
g11
(imyEvolve
Tree
p649
(dp650
g8
(imyEvolve
Tree
p651
(dp652
g7
I0
sg14
I00
sbsg7
I1
sg18
(imyEvolve
Tree
p653
(dp654
g7
I0
sg14
I00
sbsg15
I00
sg16
g66
sbsg7
I2
sg15
I01
sg16
g53
sba(imyEvolve
Tree
p655
(dp656
g11
(imyEvolve
Tree
p657
(dp658
g11
(imyEvolve
Tree
p659
(dp660
g11
(imyEvolve
Tree
p661
(dp662
g11
(imyEvolve
Tree
p663
(dp664
g7
I0
sg25
F-2.3807552443199063
sg14
I01
sbsg7
I1
sg15
I01
sg16
g17
sbsg7
I2
sg15
I01
sg16
g53
sbsg7
I3
sg15
I01
sg16
g85
sbsg7
I4
sg15
I01
sg16
g53
sba(imyEvolve
Tree
p665
(dp666
g11
(imyEvolve
Tree
p667
(dp668
g11
(imyEvolve
Tree
p669
(dp670
g11
(imyEvolve
Tree
p671
(dp672
g11
(imyEvolve
Tree
p673
(dp674
g7
I1
sg8
(imyEvolve
Tree
p675
(dp676
g7
I0
sg14
I00
sbsg18
(imyEvolve
Tree
p677
(dp678
g7
I0
sg14
I00
sbsg15
I00
sg16
g40
sbsg7
I2
sg15
I01
sg16
g53
sbsg7
I3
sg15
I01
sg16
g53
sbsg7
I4
sg15
I01
sg16
g33
sbsg7
I5
sg15
I01
sg16
g53
sbaa(lp679
(imyEvolve
Tree
p680
(dp681
g11
(imyEvolve
Tree
p682
(dp683
g7
I4
sg8
(imyEvolve
Tree
p684
(dp685
g7
I3
sg8
(imyEvolve
Tree
p686
(dp687
g11
(imyEvolve
Tree
p688
(dp689
g11
(imyEvolve
Tree
p690
(dp691
g7
I0
sg14
I00
sbsg7
I1
sg15
I01
sg16
g17
sbsg7
I2
sg15
I01
sg16
g53
sbsg18
(imyEvolve
Tree
p692
(dp693
g7
I2
sg8
(imyEvolve
Tree
p694
(dp695
g11
(imyEvolve
Tree
p696
(dp697
g7
I0
sg25
F1.6021306727272755
sg14
I01
sbsg7
I1
sg15
I01
sg16
g53
sbsg18
(imyEvolve
Tree
p698
(dp699
g7
I1
sg8
(imyEvolve
Tree
p700
(dp701
g7
I0
sg14
I00
sbsg18
(imyEvolve
Tree
p702
(dp703
g7
I0
sg25
F4.004233758458579
sg14
I01
sbsg15
I00
sg16
g40
sbsg15
I00
sg16
g26
sbsg15
I00
sg16
g26
sbsg18
(imyEvolve
Tree
p704
(dp705
g11
(imyEvolve
Tree
p706
(dp707
g11
(imyEvolve
Tree
p708
(dp709
g7
I1
sg8
(imyEvolve
Tree
p710
(dp711
g7
I0
sg25
F2.891020301997612
sg14
I01
sbsg18
(imyEvolve
Tree
p712
(dp713
g7
I0
sg14
I00
sbsg15
I00
sg16
g40
sbsg7
I2
sg15
I01
sg16
g85
sbsg7
I3
sg15
I01
sg16
g85
sbsg15
I00
sg16
g66
sbsg7
I5
sg15
I01
sg16
g53
sba(imyEvolve
Tree
p714
(dp715
g11
(imyEvolve
Tree
p716
(dp717
g8
(imyEvolve
Tree
p718
(dp719
g11
(imyEvolve
Tree
p720
(dp721
g11
(imyEvolve
Tree
p722
(dp723
g8
(imyEvolve
Tree
p724
(dp725
g7
I0
sg25
F2.614108993147531
sg14
I01
sbsg7
I1
sg18
(imyEvolve
Tree
p726
(dp727
g7
I0
sg25
F-1.2425068391727434
sg14
I01
sbsg15
I00
sg16
g66
sbsg7
I2
sg15
I01
sg16
g17
sbsg7
I3
sg15
I01
sg16
g53
sbsg7
I4
sg18
(imyEvolve
Tree
p728
(dp729
g11
(imyEvolve
Tree
p730
(dp731
g11
(imyEvolve
Tree
p732
(dp733
g8
(imyEvolve
Tree
p734
(dp735
g7
I0
sg14
I00
sbsg7
I1
sg18
(imyEvolve
Tree
p736
(dp737
g7
I0
sg25
F-4.684047032647596
sg14
I01
sbsg15
I00
sg16
g40
sbsg7
I2
sg15
I01
sg16
g53
sbsg7
I3
sg15
I01
sg16
g17
sbsg15
I00
sg16
g40
sbsg7
I5
sg15
I01
sg16
g53
sba(imyEvolve
Tree
p738
(dp739
g8
(imyEvolve
Tree
p740
(dp741
g8
(imyEvolve
Tree
p742
(dp743
g8
(imyEvolve
Tree
p744
(dp745
g7
I0
sg14
I00
sbsg7
I1
sg18
(imyEvolve
Tree
p746
(dp747
g7
I0
sg25
F2.990293128824457
sg14
I01
sbsg15
I00
sg16
g66
sbsg7
I2
sg18
(imyEvolve
Tree
p748
(dp749
g8
(imyEvolve
Tree
p750
(dp751
g7
I0
sg14
I00
sbsg7
I1
sg18
(imyEvolve
Tree
p752
(dp753
g7
I0
sg25
F4.9090558008745635
sg14
I01
sbsg15
I00
sg16
g66
sbsg15
I00
sg16
g26
sbsg7
I3
sg18
(imyEvolve
Tree
p754
(dp755
g8
(imyEvolve
Tree
p756
(dp757
g11
(imyEvolve
Tree
p758
(dp759
g7
I0
sg25
F1.2555744269221014
sg14
I01
sbsg7
I1
sg15
I01
sg16
g53
sbsg7
I2
sg18
(imyEvolve
Tree
p760
(dp761
g11
(imyEvolve
Tree
p762
(dp763
g7
I0
sg14
I00
sbsg7
I1
sg15
I01
sg16
g53
sbsg15
I00
sg16
g66
sbsg15
I00
sg16
g26
sba(imyEvolve
Tree
p764
(dp765
g11
(imyEvolve
Tree
p766
(dp767
g11
(imyEvolve
Tree
p768
(dp769
g7
I2
sg8
(imyEvolve
Tree
p770
(dp771
g11
(imyEvolve
Tree
p772
(dp773
g7
I0
sg25
F-1.6111354271018987
sg14
I01
sbsg7
I1
sg15
I01
sg16
g53
sbsg18
(imyEvolve
Tree
p774
(dp775
g11
(imyEvolve
Tree
p776
(dp777
g7
I0
sg25
F-0.21929852762860325
sg14
I01
sbsg7
I1
sg15
I01
sg16
g17
sbsg15
I00
sg16
g26
sbsg7
I3
sg15
I01
sg16
g85
sbsg7
I4
sg15
I01
sg16
g17
sba(imyEvolve
Tree
p778
(dp779
g11
(imyEvolve
Tree
p780
(dp781
g11
(imyEvolve
Tree
p782
(dp783
g11
(imyEvolve
Tree
p784
(dp785
g7
I0
sg14
I00
sbsg7
I1
sg15
I01
sg16
g85
sbsg7
I2
sg15
I01
sg16
g17
sbsg7
I3
sg15
I01
sg16
g17
sba(imyEvolve
Tree
p786
(dp787
g7
I3
sg8
(imyEvolve
Tree
p788
(dp789
g7
I2
sg8
(imyEvolve
Tree
p790
(dp791
g7
I1
sg8
(imyEvolve
Tree
p792
(dp793
g7
I0
sg25
F0.3770607117124536
sg14
I01
sbsg18
(imyEvolve
Tree
p794
(dp795
g7
I0
sg14
I00
sbsg15
I00
sg16
g40
sbsg18
(imyEvolve
Tree
p796
(dp797
g11
(imyEvolve
Tree
p798
(dp799
g7
I0
sg25
F-4.798733724174962
sg14
I01
sbsg7
I1
sg15
I01
sg16
g17
sbsg15
I00
sg16
g26
sbsg18
(imyEvolve
Tree
p800
(dp801
g11
(imyEvolve
Tree
p802
(dp803
g11
(imyEvolve
Tree
p804
(dp805
g7
I0
sg25
F3.2572038118665745
sg14
I01
sbsg7
I1
sg15
I01
sg16
g33
sbsg7
I2
sg15
I01
sg16
g33
sbsg15
I00
sg16
g66
sba(imyEvolve
Tree
p806
(dp807
g11
(imyEvolve
Tree
p808
(dp809
g11
(imyEvolve
Tree
p810
(dp811
g11
(imyEvolve
Tree
p812
(dp813
g11
(imyEvolve
Tree
p814
(dp815
g7
I0
sg14
I00
sbsg7
I1
sg15
I01
sg16
g33
sbsg7
I2
sg15
I01
sg16
g33
sbsg7
I3
sg15
I01
sg16
g17
sbsg7
I4
sg15
I01
sg16
g85
sba(imyEvolve
Tree
p816
(dp817
g8
(imyEvolve
Tree
p818
(dp819
g8
(imyEvolve
Tree
p820
(dp821
g8
(imyEvolve
Tree
p822
(dp823
g11
(imyEvolve
Tree
p824
(dp825
g11
(imyEvolve
Tree
p826
(dp827
g7
I0
sg14
I00
sbsg7
I1
sg15
I01
sg16
g53
sbsg7
I2
sg15
I01
sg16
g85
sbsg7
I3
sg18
(imyEvolve
Tree
p828
(dp829
g11
(imyEvolve
Tree
p830
(dp831
g8
(imyEvolve
Tree
p832
(dp833
g7
I0
sg25
F-1.240229286136889
sg14
I01
sbsg7
I1
sg18
(imyEvolve
Tree
p834
(dp835
g7
I0
sg25
F-1.6876441099316963
sg14
I01
sbsg15
I00
sg16
g26
sbsg7
I2
sg15
I01
sg16
g17
sbsg15
I00
sg16
g26
sbsg7
I4
sg18
(imyEvolve
Tree
p836
(dp837
g11
(imyEvolve
Tree
p838
(dp839
g11
(imyEvolve
Tree
p840
(dp841
g8
(imyEvolve
Tree
p842
(dp843
g7
I0
sg25
F2.3178851560157074
sg14
I01
sbsg7
I1
sg18
(imyEvolve
Tree
p844
(dp845
g7
I0
sg25
F3.3761057168468263
sg14
I01
sbsg15
I00
sg16
g40
sbsg7
I2
sg15
I01
sg16
g17
sbsg7
I3
sg15
I01
sg16
g17
sbsg15
I00
sg16
g40
sbsg7
I5
sg18
(imyEvolve
Tree
p846
(dp847
g8
(imyEvolve
Tree
p848
(dp849
g11
(imyEvolve
Tree
p850
(dp851
g11
(imyEvolve
Tree
p852
(dp853
g11
(imyEvolve
Tree
p854
(dp855
g7
I0
sg25
F0.31604404884666515
sg14
I01
sbsg7
I1
sg15
I01
sg16
g85
sbsg7
I2
sg15
I01
sg16
g53
sbsg7
I3
sg15
I01
sg16
g17
sbsg7
I4
sg18
(imyEvolve
Tree
p856
(dp857
g11
(imyEvolve
Tree
p858
(dp859
g11
(imyEvolve
Tree
p860
(dp861
g8
(imyEvolve
Tree
p862
(dp863
g7
I0
sg14
I00
sbsg7
I1
sg18
(imyEvolve
Tree
p864
(dp865
g7
I0
sg14
I00
sbsg15
I00
sg16
g40
sbsg7
I2
sg15
I01
sg16
g17
sbsg7
I3
sg15
I01
sg16
g85
sbsg15
I00
sg16
g40
sbsg15
I00
sg16
g66
sba(imyEvolve
Tree
p866
(dp867
g8
(imyEvolve
Tree
p868
(dp869
g11
(imyEvolve
Tree
p870
(dp871
g7
I0
sg25
F0.5955304716844445
sg14
I01
sbsg7
I1
sg15
I01
sg16
g85
sbsg7
I2
sg18
(imyEvolve
Tree
p872
(dp873
g11
(imyEvolve
Tree
p874
(dp875
g7
I0
sg25
F3.624182451095665
sg14
I01
sbsg7
I1
sg15
I01
sg16
g85
sbsg15
I00
sg16
g40
sba(imyEvolve
Tree
p876
(dp877
g11
(imyEvolve
Tree
p878
(dp879
g8
(imyEvolve
Tree
p880
(dp881
g8
(imyEvolve
Tree
p882
(dp883
g8
(imyEvolve
Tree
p884
(dp885
g11
(imyEvolve
Tree
p886
(dp887
g7
I0
sg25
F3.697586480831692
sg14
I01
sbsg7
I1
sg15
I01
sg16
g17
sbsg7
I2
sg18
(imyEvolve
Tree
p888
(dp889
g8
(imyEvolve
Tree
p890
(dp891
g7
I0
sg25
F0.5143511989658132
sg14
I01
sbsg7
I1
sg18
(imyEvolve
Tree
p892
(dp893
g7
I0
sg14
I00
sbsg15
I00
sg16
g40
sbsg15
I00
sg16
g66
sbsg7
I3
sg18
(imyEvolve
Tree
p894
(dp895
g8
(imyEvolve
Tree
p896
(dp897
g8
(imyEvolve
Tree
p898
(dp899
g7
I0
sg14
I00
sbsg7
I1
sg18
(imyEvolve
Tree
p900
(dp901
g7
I0
sg25
F0.9996839117788863
sg14
I01
sbsg15
I00
sg16
g26
sbsg7
I2
sg18
(imyEvolve
Tree
p902
(dp903
g11
(imyEvolve
Tree
p904
(dp905
g7
I0
sg14
I00
sbsg7
I1
sg15
I01
sg16
g33
sbsg15
I00
sg16
g40
sbsg15
I00
sg16
g26
sbsg7
I4
sg18
(imyEvolve
Tree
p906
(dp907
g11
(imyEvolve
Tree
p908
(dp909
g8
(imyEvolve
Tree
p910
(dp911
g11
(imyEvolve
Tree
p912
(dp913
g7
I0
sg25
F0.07527355194029184
sg14
I01
sbsg7
I1
sg15
I01
sg16
g53
sbsg7
I2
sg18
(imyEvolve
Tree
p914
(dp915
g11
(imyEvolve
Tree
p916
(dp917
g7
I0
sg14
I00
sbsg7
I1
sg15
I01
sg16
g33
sbsg15
I00
sg16
g26
sbsg7
I3
sg15
I01
sg16
g17
sbsg15
I00
sg16
g40
sbsg7
I5
sg15
I01
sg16
g17
sba(imyEvolve
Tree
p918
(dp919
g8
(imyEvolve
Tree
p920
(dp921
g8
(imyEvolve
Tree
p922
(dp923
g11
(imyEvolve
Tree
p924
(dp925
g7
I0
sg14
I00
sbsg7
I1
sg15
I01
sg16
g85
sbsg7
I2
sg18
(imyEvolve
Tree
p926
(dp927
g8
(imyEvolve
Tree
p928
(dp929
g7
I0
sg25
F3.4420438171397425
sg14
I01
sbsg7
I1
sg18
(imyEvolve
Tree
p930
(dp931
g7
I0
sg14
I00
sbsg15
I00
sg16
g40
sbsg15
I00
sg16
g66
sbsg7
I3
sg18
(imyEvolve
Tree
p932
(dp933
g8
(imyEvolve
Tree
p934
(dp935
g8
(imyEvolve
Tree
p936
(dp937
g7
I0
sg14
I00
sbsg7
I1
sg18
(imyEvolve
Tree
p938
(dp939
g7
I0
sg14
I00
sbsg15
I00
sg16
g40
sbsg7
I2
sg18
(imyEvolve
Tree
p940
(dp941
g11
(imyEvolve
Tree
p942
(dp943
g7
I0
sg25
F-3.405643021607742
sg14
I01
sbsg7
I1
sg15
I01
sg16
g85
sbsg15
I00
sg16
g26
sbsg15
I00
sg16
g26
sba(imyEvolve
Tree
p944
(dp945
g11
(imyEvolve
Tree
p946
(dp947
g11
(imyEvolve
Tree
p948
(dp949
g11
(imyEvolve
Tree
p950
(dp951
g8
(imyEvolve
Tree
p952
(dp953
g11
(imyEvolve
Tree
p954
(dp955
g7
I0
sg25
F1.562701981123233
sg14
I01
sbsg7
I1
sg15
I01
sg16
g85
sbsg7
I2
sg18
(imyEvolve
Tree
p956
(dp957
g11
(imyEvolve
Tree
p958
(dp959
g7
I0
sg25
F-4.431106215619116
sg14
I01
sbsg7
I1
sg15
I01
sg16
g85
sbsg15
I00
sg16
g66
sbsg7
I3
sg15
I01
sg16
g53
sbsg7
I4
sg15
I01
sg16
g53
sbsg7
I5
sg15
I01
sg16
g17
sba(imyEvolve
Tree
p960
(dp961
g11
(imyEvolve
Tree
p962
(dp963
g8
(imyEvolve
Tree
p964
(dp965
g8
(imyEvolve
Tree
p966
(dp967
g11
(imyEvolve
Tree
p968
(dp969
g7
I0
sg14
I00
sbsg7
I1
sg15
I01
sg16
g33
sbsg7
I2
sg18
(imyEvolve
Tree
p970
(dp971
g11
(imyEvolve
Tree
p972
(dp973
g7
I0
sg25
F-1.4685759705920698
sg14
I01
sbsg7
I1
sg15
I01
sg16
g85
sbsg15
I00
sg16
g26
sbsg7
I3
sg18
(imyEvolve
Tree
p974
(dp975
g11
(imyEvolve
Tree
p976
(dp977
g8
(imyEvolve
Tree
p978
(dp979
g7
I0
sg14
I00
sbsg7
I1
sg18
(imyEvolve
Tree
p980
(dp981
g7
I0
sg25
F1.4144764119125695
sg14
I01
sbsg15
I00
sg16
g40
sbsg7
I2
sg15
I01
sg16
g85
sbsg15
I00
sg16
g26
sbsg7
I4
sg15
I01
sg16
g33
sba(imyEvolve
Tree
p982
(dp983
g11
(imyEvolve
Tree
p984
(dp985
g11
(imyEvolve
Tree
p986
(dp987
g11
(imyEvolve
Tree
p988
(dp989
g8
(imyEvolve
Tree
p990
(dp991
g11
(imyEvolve
Tree
p992
(dp993
g7
I0
sg25
F-0.9498957414187341
sg14
I01
sbsg7
I1
sg15
I01
sg16
g85
sbsg7
I2
sg18
(imyEvolve
Tree
p994
(dp995
g11
(imyEvolve
Tree
p996
(dp997
g7
I0
sg25
F-2.071042229581983
sg14
I01
sbsg7
I1
sg15
I01
sg16
g53
sbsg15
I00
sg16
g66
sbsg7
I3
sg15
I01
sg16
g85
sbsg7
I4
sg15
I01
sg16
g17
sbsg7
I5
sg15
I01
sg16
g33
sba(imyEvolve
Tree
p998
(dp999
g7
I5
sg8
(imyEvolve
Tree
p1000
(dp1001
g7
I4
sg8
(imyEvolve
Tree
p1002
(dp1003
g7
I3
sg8
(imyEvolve
Tree
p1004
(dp1005
g7
I2
sg8
(imyEvolve
Tree
p1006
(dp1007
g7
I1
sg8
(imyEvolve
Tree
p1008
(dp1009
g7
I0
sg14
I00
sbsg18
(imyEvolve
Tree
p1010
(dp1011
g7
I0
sg14
I00
sbsg15
I00
sg16
g26
sbsg18
(imyEvolve
Tree
p1012
(dp1013
g7
I1
sg8
(imyEvolve
Tree
p1014
(dp1015
g7
I0
sg14
I00
sbsg18
(imyEvolve
Tree
p1016
(dp1017
g7
I0
sg25
F-2.7234477042488203
sg14
I01
sbsg15
I00
sg16
g66
sbsg15
I00
sg16
g66
sbsg18
(imyEvolve
Tree
p1018
(dp1019
g11
(imyEvolve
Tree
p1020
(dp1021
g11
(imyEvolve
Tree
p1022
(dp1023
g7
I0
sg25
F4.3614843489550985
sg14
I01
sbsg7
I1
sg15
I01
sg16
g53
sbsg7
I2
sg15
I01
sg16
g85
sbsg15
I00
sg16
g26
sbsg18
(imyEvolve
Tree
p1024
(dp1025
g7
I3
sg8
(imyEvolve
Tree
p1026
(dp1027
g11
(imyEvolve
Tree
p1028
(dp1029
g11
(imyEvolve
Tree
p1030
(dp1031
g7
I0
sg25
F-3.1088219078927004
sg14
I01
sbsg7
I1
sg15
I01
sg16
g85
sbsg7
I2
sg15
I01
sg16
g33
sbsg18
(imyEvolve
Tree
p1032
(dp1033
g11
(imyEvolve
Tree
p1034
(dp1035
g7
I1
sg8
(imyEvolve
Tree
p1036
(dp1037
g7
I0
sg25
F-4.8223789720173365
sg14
I01
sbsg18
(imyEvolve
Tree
p1038
(dp1039
g7
I0
sg25
F-3.1486166930505934
sg14
I01
sbsg15
I00
sg16
g40
sbsg7
I2
sg15
I01
sg16
g85
sbsg15
I00
sg16
g40
sbsg15
I00
sg16
g66
sbsg18
(imyEvolve
Tree
p1040
(dp1041
g11
(imyEvolve
Tree
p1042
(dp1043
g7
I3
sg8
(imyEvolve
Tree
p1044
(dp1045
g7
I2
sg8
(imyEvolve
Tree
p1046
(dp1047
g7
I1
sg8
(imyEvolve
Tree
p1048
(dp1049
g7
I0
sg14
I00
sbsg18
(imyEvolve
Tree
p1050
(dp1051
g7
I0
sg25
F0.01273591152583542
sg14
I01
sbsg15
I00
sg16
g26
sbsg18
(imyEvolve
Tree
p1052
(dp1053
g7
I1
sg8
(imyEvolve
Tree
p1054
(dp1055
g7
I0
sg25
F3.7439345389733205
sg14
I01
sbsg18
(imyEvolve
Tree
p1056
(dp1057
g7
I0
sg14
I00
sbsg15
I00
sg16
g40
sbsg15
I00
sg16
g26
sbsg18
(imyEvolve
Tree
p1058
(dp1059
g7
I2
sg8
(imyEvolve
Tree
p1060
(dp1061
g11
(imyEvolve
Tree
p1062
(dp1063
g7
I0
sg25
F-0.02752509374206724
sg14
I01
sbsg7
I1
sg15
I01
sg16
g85
sbsg18
(imyEvolve
Tree
p1064
(dp1065
g11
(imyEvolve
Tree
p1066
(dp1067
g7
I0
sg25
F2.9631998519259835
sg14
I01
sbsg7
I1
sg15
I01
sg16
g17
sbsg15
I00
sg16
g26
sbsg15
I00
sg16
g40
sbsg7
I4
sg15
I01
sg16
g53
sbsg15
I00
sg16
g40
sba(imyEvolve
Tree
p1068
(dp1069
g11
(imyEvolve
Tree
p1070
(dp1071
g8
(imyEvolve
Tree
p1072
(dp1073
g8
(imyEvolve
Tree
p1074
(dp1075
g8
(imyEvolve
Tree
p1076
(dp1077
g7
I0
sg14
I00
sbsg7
I1
sg18
(imyEvolve
Tree
p1078
(dp1079
g7
I0
sg25
F-3.1728552362278517
sg14
I01
sbsg15
I00
sg16
g26
sbsg7
I2
sg18
(imyEvolve
Tree
p1080
(dp1081
g8
(imyEvolve
Tree
p1082
(dp1083
g7
I0
sg14
I00
sbsg7
I1
sg18
(imyEvolve
Tree
p1084
(dp1085
g7
I0
sg25
F1.8388820017201146
sg14
I01
sbsg15
I00
sg16
g66
sbsg15
I00
sg16
g26
sbsg7
I3
sg18
(imyEvolve
Tree
p1086
(dp1087
g11
(imyEvolve
Tree
p1088
(dp1089
g8
(imyEvolve
Tree
p1090
(dp1091
g7
I0
sg14
I00
sbsg7
I1
sg18
(imyEvolve
Tree
p1092
(dp1093
g7
I0
sg25
F0.5987293816904158
sg14
I01
sbsg15
I00
sg16
g66
sbsg7
I2
sg15
I01
sg16
g53
sbsg15
I00
sg16
g66
sbsg7
I4
sg15
I01
sg16
g53
sba(imyEvolve
Tree
p1094
(dp1095
g11
(imyEvolve
Tree
p1096
(dp1097
g7
I1
sg8
(imyEvolve
Tree
p1098
(dp1099
g7
I0
sg14
I00
sbsg18
(imyEvolve
Tree
p1100
(dp1101
g7
I0
sg14
I00
sbsg15
I00
sg16
g40
sbsg7
I2
sg15
I01
sg16
g53
sbaa(lp1102
(imyEvolve
Tree
p1103
(dp1104
g8
(imyEvolve
Tree
p1105
(dp1106
g8
(imyEvolve
Tree
p1107
(dp1108
g7
I0
sg25
F-0.5843394252735781
sg14
I01
sbsg7
I1
sg18
(imyEvolve
Tree
p1109
(dp1110
g7
I0
sg14
I00
sbsg15
I00
sg16
g66
sbsg7
I2
sg18
(imyEvolve
Tree
p1111
(dp1112
g11
(imyEvolve
Tree
p1113
(dp1114
g7
I0
sg14
I00
sbsg7
I1
sg15
I01
sg16
g53
sbsg15
I00
sg16
g26
sba(imyEvolve
Tree
p1115
(dp1116
g7
I2
sg8
(imyEvolve
Tree
p1117
(dp1118
g11
(imyEvolve
Tree
p1119
(dp1120
g7
I0
sg25
F3.2877463790219252
sg14
I01
sbsg7
I1
sg15
I01
sg16
g33
sbsg18
(imyEvolve
Tree
p1121
(dp1122
g11
(imyEvolve
Tree
p1123
(dp1124
g7
I0
sg14
I00
sbsg7
I1
sg15
I01
sg16
g33
sbsg15
I00
sg16
g66
sba(imyEvolve
Tree
p1125
(dp1126
g8
(imyEvolve
Tree
p1127
(dp1128
g11
(imyEvolve
Tree
p1129
(dp1130
g7
I0
sg25
F-1.0895144454311403
sg14
I01
sbsg7
I1
sg15
I01
sg16
g53
sbsg7
I2
sg18
(imyEvolve
Tree
p1131
(dp1132
g11
(imyEvolve
Tree
p1133
(dp1134
g7
I0
sg14
I00
sbsg7
I1
sg15
I01
sg16
g85
sbsg15
I00
sg16
g66
sba(imyEvolve
Tree
p1135
(dp1136
g7
I3
sg8
(imyEvolve
Tree
p1137
(dp1138
g7
I2
sg8
(imyEvolve
Tree
p1139
(dp1140
g7
I1
sg8
(imyEvolve
Tree
p1141
(dp1142
g7
I0
sg14
I00
sbsg18
(imyEvolve
Tree
p1143
(dp1144
g7
I0
sg14
I00
sbsg15
I00
sg16
g26
sbsg18
(imyEvolve
Tree
p1145
(dp1146
g7
I1
sg8
(imyEvolve
Tree
p1147
(dp1148
g7
I0
sg14
I00
sbsg18
(imyEvolve
Tree
p1149
(dp1150
g7
I0
sg25
F-3.061801545266957
sg14
I01
sbsg15
I00
sg16
g26
sbsg15
I00
sg16
g26
sbsg18
(imyEvolve
Tree
p1151
(dp1152
g7
I2
sg8
(imyEvolve
Tree
p1153
(dp1154
g11
(imyEvolve
Tree
p1155
(dp1156
g7
I0
sg25
F1.9543949779413499
sg14
I01
sbsg7
I1
sg15
I01
sg16
g53
sbsg18
(imyEvolve
Tree
p1157
(dp1158
g11
(imyEvolve
Tree
p1159
(dp1160
g7
I0
sg25
F0.526803150986014
sg14
I01
sbsg7
I1
sg15
I01
sg16
g53
sbsg15
I00
sg16
g26
sbsg15
I00
sg16
g40
sba(imyEvolve
Tree
p1161
(dp1162
g11
(imyEvolve
Tree
p1163
(dp1164
g11
(imyEvolve
Tree
p1165
(dp1166
g8
(imyEvolve
Tree
p1167
(dp1168
g8
(imyEvolve
Tree
p1169
(dp1170
g11
(imyEvolve
Tree
p1171
(dp1172
g7
I0
sg25
F2.5926218817362425
sg14
I01
sbsg7
I1
sg15
I01
sg16
g33
sbsg7
I2
sg18
(imyEvolve
Tree
p1173
(dp1174
g11
(imyEvolve
Tree
p1175
(dp1176
g7
I0
sg25
F-0.45959643209134704
sg14
I01
sbsg7
I1
sg15
I01
sg16
g33
sbsg15
I00
sg16
g66
sbsg7
I3
sg18
(imyEvolve
Tree
p1177
(dp1178
g8
(imyEvolve
Tree
p1179
(dp1180
g8
(imyEvolve
Tree
p1181
(dp1182
g7
I0
sg25
F-4.361364717395535
sg14
I01
sbsg7
I1
sg18
(imyEvolve
Tree
p1183
(dp1184
g7
I0
sg25
F1.7752490353528056
sg14
I01
sbsg15
I00
sg16
g66
sbsg7
I2
sg18
(imyEvolve
Tree
p1185
(dp1186
g8
(imyEvolve
Tree
p1187
(dp1188
g7
I0
sg25
F0.43599663260302624
sg14
I01
sbsg7
I1
sg18
(imyEvolve
Tree
p1189
(dp1190
g7
I0
sg25
F0.44715213863757786
sg14
I01
sbsg15
I00
sg16
g40
sbsg15
I00
sg16
g40
sbsg15
I00
sg16
g40
sbsg7
I4
sg15
I01
sg16
g17
sbsg7
I5
sg15
I01
sg16
g53
sba(imyEvolve
Tree
p1191
(dp1192
g8
(imyEvolve
Tree
p1193
(dp1194
g11
(imyEvolve
Tree
p1195
(dp1196
g11
(imyEvolve
Tree
p1197
(dp1198
g8
(imyEvolve
Tree
p1199
(dp1200
g11
(imyEvolve
Tree
p1201
(dp1202
g7
I0
sg25
F-4.083010619636087
sg14
I01
sbsg7
I1
sg15
I01
sg16
g33
sbsg7
I2
sg18
(imyEvolve
Tree
p1203
(dp1204
g8
(imyEvolve
Tree
p1205
(dp1206
g7
I0
sg25
F-0.09718018710264076
sg14
I01
sbsg7
I1
sg18
(imyEvolve
Tree
p1207
(dp1208
g7
I0
sg25
F-0.2621862515918938
sg14
I01
sbsg15
I00
sg16
g66
sbsg15
I00
sg16
g40
sbsg7
I3
sg15
I01
sg16
g85
sbsg7
I4
sg15
I01
sg16
g53
sbsg7
I5
sg18
(imyEvolve
Tree
p1209
(dp1210
g8
(imyEvolve
Tree
p1211
(dp1212
g8
(imyEvolve
Tree
p1213
(dp1214
g11
(imyEvolve
Tree
p1215
(dp1216
g8
(imyEvolve
Tree
p1217
(dp1218
g7
I0
sg14
I00
sbsg7
I1
sg18
(imyEvolve
Tree
p1219
(dp1220
g7
I0
sg14
I00
sbsg15
I00
sg16
g40
sbsg7
I2
sg15
I01
sg16
g53
sbsg7
I3
sg18
(imyEvolve
Tree
p1221
(dp1222
g8
(imyEvolve
Tree
p1223
(dp1224
g11
(imyEvolve
Tree
p1225
(dp1226
g7
I0
sg14
I00
sbsg7
I1
sg15
I01
sg16
g33
sbsg7
I2
sg18
(imyEvolve
Tree
p1227
(dp1228
g11
(imyEvolve
Tree
p1229
(dp1230
g7
I0
sg25
F1.2627839341203595
sg14
I01
sbsg7
I1
sg15
I01
sg16
g53
sbsg15
I00
sg16
g26
sbsg15
I00
sg16
g40
sbsg7
I4
sg18
(imyEvolve
Tree
p1231
(dp1232
g11
(imyEvolve
Tree
p1233
(dp1234
g8
(imyEvolve
Tree
p1235
(dp1236
g8
(imyEvolve
Tree
p1237
(dp1238
g7
I0
sg14
I00
sbsg7
I1
sg18
(imyEvolve
Tree
p1239
(dp1240
g7
I0
sg25
F2.936507695421838
sg14
I01
sbsg15
I00
sg16
g40
sbsg7
I2
sg18
(imyEvolve
Tree
p1241
(dp1242
g8
(imyEvolve
Tree
p1243
(dp1244
g7
I0
sg14
I00
sbsg7
I1
sg18
(imyEvolve
Tree
p1245
(dp1246
g7
I0
sg14
I00
sbsg15
I00
sg16
g40
sbsg15
I00
sg16
g40
sbsg7
I3
sg15
I01
sg16
g85
sbsg15
I00
sg16
g66
sbsg15
I00
sg16
g40
sba(imyEvolve
Tree
p1247
(dp1248
g7
I3
sg8
(imyEvolve
Tree
p1249
(dp1250
g11
(imyEvolve
Tree
p1251
(dp1252
g11
(imyEvolve
Tree
p1253
(dp1254
g7
I0
sg25
F-4.934126937866836
sg14
I01
sbsg7
I1
sg15
I01
sg16
g85
sbsg7
I2
sg15
I01
sg16
g33
sbsg18
(imyEvolve
Tree
p1255
(dp1256
g7
I2
sg8
(imyEvolve
Tree
p1257
(dp1258
g7
I1
sg8
(imyEvolve
Tree
p1259
(dp1260
g7
I0
sg14
I00
sbsg18
(imyEvolve
Tree
p1261
(dp1262
g7
I0
sg25
F-0.6426637123997541
sg14
I01
sbsg15
I00
sg16
g40
sbsg18
(imyEvolve
Tree
p1263
(dp1264
g7
I1
sg8
(imyEvolve
Tree
p1265
(dp1266
g7
I0
sg14
I00
sbsg18
(imyEvolve
Tree
p1267
(dp1268
g7
I0
sg14
I00
sbsg15
I00
sg16
g66
sbsg15
I00
sg16
g66
sbsg15
I00
sg16
g26
sba(imyEvolve
Tree
p1269
(dp1270
g11
(imyEvolve
Tree
p1271
(dp1272
g7
I2
sg8
(imyEvolve
Tree
p1273
(dp1274
g11
(imyEvolve
Tree
p1275
(dp1276
g7
I0
sg14
I00
sbsg7
I1
sg15
I01
sg16
g33
sbsg18
(imyEvolve
Tree
p1277
(dp1278
g7
I1
sg8
(imyEvolve
Tree
p1279
(dp1280
g7
I0
sg25
F-0.7941582701318461
sg14
I01
sbsg18
(imyEvolve
Tree
p1281
(dp1282
g7
I0
sg14
I00
sbsg15
I00
sg16
g66
sbsg15
I00
sg16
g26
sbsg7
I3
sg15
I01
sg16
g33
sba(imyEvolve
Tree
p1283
(dp1284
g11
(imyEvolve
Tree
p1285
(dp1286
g7
I2
sg8
(imyEvolve
Tree
p1287
(dp1288
g7
I1
sg8
(imyEvolve
Tree
p1289
(dp1290
g7
I0
sg25
F-0.32730407322375665
sg14
I01
sbsg18
(imyEvolve
Tree
p1291
(dp1292
g7
I0
sg14
I00
sbsg15
I00
sg16
g26
sbsg18
(imyEvolve
Tree
p1293
(dp1294
g11
(imyEvolve
Tree
p1295
(dp1296
g7
I0
sg25
F3.526383006477854
sg14
I01
sbsg7
I1
sg15
I01
sg16
g53
sbsg15
I00
sg16
g26
sbsg7
I3
sg15
I01
sg16
g17
sba(imyEvolve
Tree
p1297
(dp1298
g8
(imyEvolve
Tree
p1299
(dp1300
g8
(imyEvolve
Tree
p1301
(dp1302
g7
I0
sg25
F0.9518227170328242
sg14
I01
sbsg7
I1
sg18
(imyEvolve
Tree
p1303
(dp1304
g7
I0
sg25
F4.584046267804091
sg14
I01
sbsg15
I00
sg16
g26
sbsg7
I2
sg18
(imyEvolve
Tree
p1305
(dp1306
g11
(imyEvolve
Tree
p1307
(dp1308
g7
I0
sg25
F-1.3794602726212024
sg14
I01
sbsg7
I1
sg15
I01
sg16
g53
sbsg15
I00
sg16
g26
sba(imyEvolve
Tree
p1309
(dp1310
g8
(imyEvolve
Tree
p1311
(dp1312
g8
(imyEvolve
Tree
p1313
(dp1314
g7
I0
sg25
F2.1491065406087726
sg14
I01
sbsg7
I1
sg18
(imyEvolve
Tree
p1315
(dp1316
g7
I0
sg14
I00
sbsg15
I00
sg16
g40
sbsg7
I2
sg18
(imyEvolve
Tree
p1317
(dp1318
g8
(imyEvolve
Tree
p1319
(dp1320
g7
I0
sg25
F-3.348261948098238
sg14
I01
sbsg7
I1
sg18
(imyEvolve
Tree
p1321
(dp1322
g7
I0
sg14
I00
sbsg15
I00
sg16
g40
sbsg15
I00
sg16
g66
sba(imyEvolve
Tree
p1323
(dp1324
g8
(imyEvolve
Tree
p1325
(dp1326
g11
(imyEvolve
Tree
p1327
(dp1328
g8
(imyEvolve
Tree
p1329
(dp1330
g11
(imyEvolve
Tree
p1331
(dp1332
g11
(imyEvolve
Tree
p1333
(dp1334
g7
I0
sg14
I00
sbsg7
I1
sg15
I01
sg16
g85
sbsg7
I2
sg15
I01
sg16
g53
sbsg7
I3
sg18
(imyEvolve
Tree
p1335
(dp1336
g11
(imyEvolve
Tree
p1337
(dp1338
g11
(imyEvolve
Tree
p1339
(dp1340
g7
I0
sg14
I00
sbsg7
I1
sg15
I01
sg16
g33
sbsg7
I2
sg15
I01
sg16
g17
sbsg15
I00
sg16
g66
sbsg7
I4
sg15
I01
sg16
g85
sbsg7
I5
sg18
(imyEvolve
Tree
p1341
(dp1342
g8
(imyEvolve
Tree
p1343
(dp1344
g11
(imyEvolve
Tree
p1345
(dp1346
g11
(imyEvolve
Tree
p1347
(dp1348
g11
(imyEvolve
Tree
p1349
(dp1350
g7
I0
sg25
F3.2600198604411155
sg14
I01
sbsg7
I1
sg15
I01
sg16
g33
sbsg7
I2
sg15
I01
sg16
g53
sbsg7
I3
sg15
I01
sg16
g53
sbsg7
I4
sg18
(imyEvolve
Tree
p1351
(dp1352
g8
(imyEvolve
Tree
p1353
(dp1354
g11
(imyEvolve
Tree
p1355
(dp1356
g8
(imyEvolve
Tree
p1357
(dp1358
g7
I0
sg14
I00
sbsg7
I1
sg18
(imyEvolve
Tree
p1359
(dp1360
g7
I0
sg14
I00
sbsg15
I00
sg16
g66
sbsg7
I2
sg15
I01
sg16
g85
sbsg7
I3
sg18
(imyEvolve
Tree
p1361
(dp1362
g8
(imyEvolve
Tree
p1363
(dp1364
g11
(imyEvolve
Tree
p1365
(dp1366
g7
I0
sg25
F-4.612824562255577
sg14
I01
sbsg7
I1
sg15
I01
sg16
g85
sbsg7
I2
sg18
(imyEvolve
Tree
p1367
(dp1368
g8
(imyEvolve
Tree
p1369
(dp1370
g7
I0
sg25
F0.1635481450091527
sg14
I01
sbsg7
I1
sg18
(imyEvolve
Tree
p1371
(dp1372
g7
I0
sg14
I00
sbsg15
I00
sg16
g26
sbsg15
I00
sg16
g40
sbsg15
I00
sg16
g40
sbsg15
I00
sg16
g66
sbsg15
I00
sg16
g26
sba(imyEvolve
Tree
p1373
(dp1374
g11
(imyEvolve
Tree
p1375
(dp1376
g11
(imyEvolve
Tree
p1377
(dp1378
g7
I0
sg14
I00
sbsg7
I1
sg15
I01
sg16
g17
sbsg7
I2
sg15
I01
sg16
g17
sba(imyEvolve
Tree
p1379
(dp1380
g8
(imyEvolve
Tree
p1381
(dp1382
g8
(imyEvolve
Tree
p1383
(dp1384
g7
I0
sg25
F-2.9536163258247026
sg14
I01
sbsg7
I1
sg18
(imyEvolve
Tree
p1385
(dp1386
g7
I0
sg25
F-1.6670561860067523
sg14
I01
sbsg15
I00
sg16
g66
sbsg7
I2
sg18
(imyEvolve
Tree
p1387
(dp1388
g11
(imyEvolve
Tree
p1389
(dp1390
g7
I0
sg14
I00
sbsg7
I1
sg15
I01
sg16
g17
sbsg15
I00
sg16
g40
sba(imyEvolve
Tree
p1391
(dp1392
g7
I2
sg8
(imyEvolve
Tree
p1393
(dp1394
g7
I1
sg8
(imyEvolve
Tree
p1395
(dp1396
g7
I0
sg25
F3.0708602807270253
sg14
I01
sbsg18
(imyEvolve
Tree
p1397
(dp1398
g7
I0
sg25
F4.173900175115293
sg14
I01
sbsg15
I00
sg16
g40
sbsg18
(imyEvolve
Tree
p1399
(dp1400
g11
(imyEvolve
Tree
p1401
(dp1402
g7
I0
sg25
F4.260489804578954
sg14
I01
sbsg7
I1
sg15
I01
sg16
g85
sbsg15
I00
sg16
g26
sba(imyEvolve
Tree
p1403
(dp1404
g8
(imyEvolve
Tree
p1405
(dp1406
g8
(imyEvolve
Tree
p1407
(dp1408
g11
(imyEvolve
Tree
p1409
(dp1410
g7
I0
sg25
F-3.450725471731453
sg14
I01
sbsg7
I1
sg15
I01
sg16
g53
sbsg7
I2
sg18
(imyEvolve
Tree
p1411
(dp1412
g11
(imyEvolve
Tree
p1413
(dp1414
g7
I0
sg14
I00
sbsg7
I1
sg15
I01
sg16
g17
sbsg15
I00
sg16
g26
sbsg7
I3
sg18
(imyEvolve
Tree
p1415
(dp1416
g8
(imyEvolve
Tree
p1417
(dp1418
g8
(imyEvolve
Tree
p1419
(dp1420
g7
I0
sg25
F1.7418202671002163
sg14
I01
sbsg7
I1
sg18
(imyEvolve
Tree
p1421
(dp1422
g7
I0
sg14
I00
sbsg15
I00
sg16
g66
sbsg7
I2
sg18
(imyEvolve
Tree
p1423
(dp1424
g11
(imyEvolve
Tree
p1425
(dp1426
g7
I0
sg14
I00
sbsg7
I1
sg15
I01
sg16
g85
sbsg15
I00
sg16
g66
sbsg15
I00
sg16
g66
sba(imyEvolve
Tree
p1427
(dp1428
g7
I2
sg8
(imyEvolve
Tree
p1429
(dp1430
g7
I1
sg8
(imyEvolve
Tree
p1431
(dp1432
g7
I0
sg14
I00
sbsg18
(imyEvolve
Tree
p1433
(dp1434
g7
I0
sg14
I00
sbsg15
I00
sg16
g66
sbsg18
(imyEvolve
Tree
p1435
(dp1436
g11
(imyEvolve
Tree
p1437
(dp1438
g7
I0
sg14
I00
sbsg7
I1
sg15
I01
sg16
g33
sbsg15
I00
sg16
g66
sbaasS'alpha'
p1439
F0.0036983268320204083
sS'fitness'
p1440
cnumpy.core.multiarray
scalar
p1441
(cnumpy
dtype
p1442
(S'f8'
p1443
I0
I1
tp1444
Rp1445
(I3
S'<'
p1446
NNNI-1
I-1
I0
tp1447
bS'\x9a\x08\x1b\xc0G!\xe6?'
p1448
tp1449
Rp1450
sS'weightSharing'
p1451
(lp1452
I00
asS'fitnessValid'
p1453
I00
sS'resolution'
p1454
I65
sb.