(imyEvolve
Individual
p0
(dp1
S'funcs'
p2
(lp3
(lp4
(imyEvolve
Tree
p5
(dp6
S'below'
p7
(imyEvolve
Tree
p8
(dp9
g7
(imyEvolve
Tree
p10
(dp11
g7
(imyEvolve
Tree
p12
(dp13
S'left'
p14
(imyEvolve
Tree
p15
(dp16
g14
(imyEvolve
Tree
p17
(dp18
S'depth'
p19
I0
sS'isConstant'
p20
I00
sbsg19
I1
sS'right'
p21
(imyEvolve
Tree
p22
(dp23
g19
I0
sS'constant'
p24
F3.984427907563571
sg20
I01
sbsS'single'
p25
I00
sS'op'
p26
coperator
sub
p27
sbsg19
I2
sg21
(imyEvolve
Tree
p28
(dp29
g14
(imyEvolve
Tree
p30
(dp31
g19
I0
sg20
I00
sbsg19
I1
sg21
(imyEvolve
Tree
p32
(dp33
g19
I0
sg20
I00
sbsg25
I00
sg26
coperator
mul
p34
sbsg25
I00
sg26
coperator
add
p35
sbsg19
I3
sg25
I01
sg26
cmyEvolve
absSqrt
p36
sbsg19
I4
sg25
I01
sg26
cmath
cos
p37
sbsg19
I5
sg25
I01
sg26
cmyEvolve
square
p38
sba(imyEvolve
Tree
p39
(dp40
g7
(imyEvolve
Tree
p41
(dp42
g14
(imyEvolve
Tree
p43
(dp44
g14
(imyEvolve
Tree
p45
(dp46
g14
(imyEvolve
Tree
p47
(dp48
g19
I0
sg24
F-1.5787364402262218
sg20
I01
sbsg19
I1
sg21
(imyEvolve
Tree
p49
(dp50
g19
I0
sg20
I00
sbsg25
I00
sg26
g35
sbsg19
I2
sg21
(imyEvolve
Tree
p51
(dp52
g14
(imyEvolve
Tree
p53
(dp54
g19
I0
sg20
I00
sbsg19
I1
sg21
(imyEvolve
Tree
p55
(dp56
g19
I0
sg20
I00
sbsg25
I00
sg26
g35
sbsg25
I00
sg26
g35
sbsg19
I3
sg21
(imyEvolve
Tree
p57
(dp58
g14
(imyEvolve
Tree
p59
(dp60
g14
(imyEvolve
Tree
p61
(dp62
g19
I0
sg20
I00
sbsg19
I1
sg21
(imyEvolve
Tree
p63
(dp64
g19
I0
sg24
F-4.071317450982369
sg20
I01
sbsg25
I00
sg26
g35
sbsg19
I2
sg21
(imyEvolve
Tree
p65
(dp66
g14
(imyEvolve
Tree
p67
(dp68
g19
I0
sg24
F-3.595530767154006
sg20
I01
sbsg19
I1
sg21
(imyEvolve
Tree
p69
(dp70
g19
I0
sg24
F1.584900337646033
sg20
I01
sbsg25
I00
sg26
g35
sbsg25
I00
sg26
g27
sbsg25
I00
sg26
g34
sbsg19
I4
sg25
I01
sg26
g38
sba(imyEvolve
Tree
p71
(dp72
g7
(imyEvolve
Tree
p73
(dp74
g7
(imyEvolve
Tree
p75
(dp76
g14
(imyEvolve
Tree
p77
(dp78
g19
I0
sg24
F-4.125099713695647
sg20
I01
sbsg19
I1
sg21
(imyEvolve
Tree
p79
(dp80
g19
I0
sg24
F-0.9152356311262988
sg20
I01
sbsg25
I00
sg26
g27
sbsg19
I2
sg25
I01
sg26
g38
sbsg19
I3
sg25
I01
sg26
g36
sba(imyEvolve
Tree
p81
(dp82
g7
(imyEvolve
Tree
p83
(dp84
g7
(imyEvolve
Tree
p85
(dp86
g19
I0
sg20
I00
sbsg19
I1
sg25
I01
sg26
cmath
sin
p87
sbsg19
I2
sg25
I01
sg26
g37
sba(imyEvolve
Tree
p88
(dp89
g14
(imyEvolve
Tree
p90
(dp91
g7
(imyEvolve
Tree
p92
(dp93
g14
(imyEvolve
Tree
p94
(dp95
g7
(imyEvolve
Tree
p96
(dp97
g14
(imyEvolve
Tree
p98
(dp99
g19
I0
sg24
F4.0396433389151944
sg20
I01
sbsg19
I1
sg21
(imyEvolve
Tree
p100
(dp101
g19
I0
sg20
I00
sbsg25
I00
sg26
g27
sbsg19
I2
sg25
I01
sg26
g36
sbsg19
I3
sg21
(imyEvolve
Tree
p102
(dp103
g7
(imyEvolve
Tree
p104
(dp105
g7
(imyEvolve
Tree
p106
(dp107
g19
I0
sg20
I00
sbsg19
I1
sg25
I01
sg26
g36
sbsg19
I2
sg25
I01
sg26
g37
sbsg25
I00
sg26
g27
sbsg19
I4
sg25
I01
sg26
g38
sbsg19
I5
sg21
(imyEvolve
Tree
p108
(dp109
g14
(imyEvolve
Tree
p110
(dp111
g7
(imyEvolve
Tree
p112
(dp113
g14
(imyEvolve
Tree
p114
(dp115
g7
(imyEvolve
Tree
p116
(dp117
g19
I0
sg20
I00
sbsg19
I1
sg25
I01
sg26
g37
sbsg19
I2
sg21
(imyEvolve
Tree
p118
(dp119
g14
(imyEvolve
Tree
p120
(dp121
g19
I0
sg24
F3.170171351217242
sg20
I01
sbsg19
I1
sg21
(imyEvolve
Tree
p122
(dp123
g19
I0
sg24
F-4.363646497794421
sg20
I01
sbsg25
I00
sg26
g27
sbsg25
I00
sg26
g27
sbsg19
I3
sg25
I01
sg26
g38
sbsg19
I4
sg21
(imyEvolve
Tree
p124
(dp125
g14
(imyEvolve
Tree
p126
(dp127
g7
(imyEvolve
Tree
p128
(dp129
g7
(imyEvolve
Tree
p130
(dp131
g19
I0
sg24
F1.967929402358985
sg20
I01
sbsg19
I1
sg25
I01
sg26
g87
sbsg19
I2
sg25
I01
sg26
g38
sbsg19
I3
sg21
(imyEvolve
Tree
p132
(dp133
g7
(imyEvolve
Tree
p134
(dp135
g7
(imyEvolve
Tree
p136
(dp137
g19
I0
sg20
I00
sbsg19
I1
sg25
I01
sg26
g38
sbsg19
I2
sg25
I01
sg26
g87
sbsg25
I00
sg26
g34
sbsg25
I00
sg26
g27
sbsg25
I00
sg26
g35
sba(imyEvolve
Tree
p138
(dp139
g7
(imyEvolve
Tree
p140
(dp141
g7
(imyEvolve
Tree
p142
(dp143
g14
(imyEvolve
Tree
p144
(dp145
g7
(imyEvolve
Tree
p146
(dp147
g7
(imyEvolve
Tree
p148
(dp149
g19
I0
sg20
I00
sbsg19
I1
sg25
I01
sg26
g87
sbsg19
I2
sg25
I01
sg26
g87
sbsg19
I3
sg21
(imyEvolve
Tree
p150
(dp151
g7
(imyEvolve
Tree
p152
(dp153
g14
(imyEvolve
Tree
p154
(dp155
g19
I0
sg24
F-1.1861224669500436
sg20
I01
sbsg19
I1
sg21
(imyEvolve
Tree
p156
(dp157
g19
I0
sg20
I00
sbsg25
I00
sg26
g35
sbsg19
I2
sg25
I01
sg26
g87
sbsg25
I00
sg26
g34
sbsg19
I4
sg25
I01
sg26
g38
sbsg19
I5
sg25
I01
sg26
g38
sba(imyEvolve
Tree
p158
(dp159
g14
(imyEvolve
Tree
p160
(dp161
g7
(imyEvolve
Tree
p162
(dp163
g14
(imyEvolve
Tree
p164
(dp165
g19
I0
sg20
I00
sbsg19
I1
sg21
(imyEvolve
Tree
p166
(dp167
g19
I0
sg24
F1.0217643525660849
sg20
I01
sbsg25
I00
sg26
g27
sbsg19
I2
sg25
I01
sg26
g37
sbsg19
I3
sg21
(imyEvolve
Tree
p168
(dp169
g7
(imyEvolve
Tree
p170
(dp171
g7
(imyEvolve
Tree
p172
(dp173
g19
I0
sg24
F2.7183803353093055
sg20
I01
sbsg19
I1
sg25
I01
sg26
g87
sbsg19
I2
sg25
I01
sg26
g37
sbsg25
I00
sg26
g34
sba(imyEvolve
Tree
p174
(dp175
g14
(imyEvolve
Tree
p176
(dp177
g7
(imyEvolve
Tree
p178
(dp179
g14
(imyEvolve
Tree
p180
(dp181
g7
(imyEvolve
Tree
p182
(dp183
g14
(imyEvolve
Tree
p184
(dp185
g19
I0
sg20
I00
sbsg19
I1
sg21
(imyEvolve
Tree
p186
(dp187
g19
I0
sg20
I00
sbsg25
I00
sg26
g35
sbsg19
I2
sg25
I01
sg26
g37
sbsg19
I3
sg21
(imyEvolve
Tree
p188
(dp189
g14
(imyEvolve
Tree
p190
(dp191
g7
(imyEvolve
Tree
p192
(dp193
g19
I0
sg24
F0.46885582864117037
sg20
I01
sbsg19
I1
sg25
I01
sg26
g36
sbsg19
I2
sg21
(imyEvolve
Tree
p194
(dp195
g14
(imyEvolve
Tree
p196
(dp197
g19
I0
sg20
I00
sbsg19
I1
sg21
(imyEvolve
Tree
p198
(dp199
g19
I0
sg20
I00
sbsg25
I00
sg26
g27
sbsg25
I00
sg26
g27
sbsg25
I00
sg26
g34
sbsg19
I4
sg25
I01
sg26
g87
sbsg19
I5
sg21
(imyEvolve
Tree
p200
(dp201
g7
(imyEvolve
Tree
p202
(dp203
g14
(imyEvolve
Tree
p204
(dp205
g7
(imyEvolve
Tree
p206
(dp207
g14
(imyEvolve
Tree
p208
(dp209
g19
I0
sg24
F3.705529910164774
sg20
I01
sbsg19
I1
sg21
(imyEvolve
Tree
p210
(dp211
g19
I0
sg24
F-4.5397349346008395
sg20
I01
sbsg25
I00
sg26
g35
sbsg19
I2
sg25
I01
sg26
g36
sbsg19
I3
sg21
(imyEvolve
Tree
p212
(dp213
g7
(imyEvolve
Tree
p214
(dp215
g7
(imyEvolve
Tree
p216
(dp217
g19
I0
sg24
F-2.9443916459360175
sg20
I01
sbsg19
I1
sg25
I01
sg26
g38
sbsg19
I2
sg25
I01
sg26
g38
sbsg25
I00
sg26
g27
sbsg19
I4
sg25
I01
sg26
g37
sbsg25
I00
sg26
g27
sbaa(lp218
(imyEvolve
Tree
p219
(dp220
g19
I2
sg14
(imyEvolve
Tree
p221
(dp222
g7
(imyEvolve
Tree
p223
(dp224
g19
I0
sg24
F-3.051102819816769
sg20
I01
sbsg19
I1
sg25
I01
sg26
g38
sbsg21
(imyEvolve
Tree
p225
(dp226
g19
I1
sg14
(imyEvolve
Tree
p227
(dp228
g19
I0
sg24
F3.766230792951493
sg20
I01
sbsg21
(imyEvolve
Tree
p229
(dp230
g19
I0
sg20
I00
sbsg25
I00
sg26
g35
sbsg25
I00
sg26
g34
sba(imyEvolve
Tree
p231
(dp232
g14
(imyEvolve
Tree
p233
(dp234
g7
(imyEvolve
Tree
p235
(dp236
g7
(imyEvolve
Tree
p237
(dp238
g7
(imyEvolve
Tree
p239
(dp240
g19
I0
sg20
I00
sbsg19
I1
sg25
I01
sg26
g87
sbsg19
I2
sg25
I01
sg26
g37
sbsg19
I3
sg25
I01
sg26
g38
sbsg19
I4
sg21
(imyEvolve
Tree
p241
(dp242
g14
(imyEvolve
Tree
p243
(dp244
g14
(imyEvolve
Tree
p245
(dp246
g7
(imyEvolve
Tree
p247
(dp248
g19
I0
sg24
F-3.953719394271904
sg20
I01
sbsg19
I1
sg25
I01
sg26
g87
sbsg19
I2
sg21
(imyEvolve
Tree
p249
(dp250
g7
(imyEvolve
Tree
p251
(dp252
g19
I0
sg24
F2.2112499590500168
sg20
I01
sbsg19
I1
sg25
I01
sg26
g37
sbsg25
I00
sg26
g27
sbsg19
I3
sg21
(imyEvolve
Tree
p253
(dp254
g7
(imyEvolve
Tree
p255
(dp256
g7
(imyEvolve
Tree
p257
(dp258
g19
I0
sg24
F-4.87101732650288
sg20
I01
sbsg19
I1
sg25
I01
sg26
g87
sbsg19
I2
sg25
I01
sg26
g37
sbsg25
I00
sg26
g35
sbsg25
I00
sg26
g34
sba(imyEvolve
Tree
p259
(dp260
g14
(imyEvolve
Tree
p261
(dp262
g14
(imyEvolve
Tree
p263
(dp264
g19
I0
sg20
I00
sbsg19
I1
sg21
(imyEvolve
Tree
p265
(dp266
g19
I0
sg20
I00
sbsg25
I00
sg26
g35
sbsg19
I2
sg21
(imyEvolve
Tree
p267
(dp268
g7
(imyEvolve
Tree
p269
(dp270
g19
I0
sg20
I00
sbsg19
I1
sg25
I01
sg26
g38
sbsg25
I00
sg26
g34
sba(imyEvolve
Tree
p271
(dp272
g14
(imyEvolve
Tree
p273
(dp274
g14
(imyEvolve
Tree
p275
(dp276
g19
I0
sg20
I00
sbsg19
I1
sg21
(imyEvolve
Tree
p277
(dp278
g19
I0
sg24
F-1.5050626985088877
sg20
I01
sbsg25
I00
sg26
g27
sbsg19
I2
sg21
(imyEvolve
Tree
p279
(dp280
g7
(imyEvolve
Tree
p281
(dp282
g19
I0
sg20
I00
sbsg19
I1
sg25
I01
sg26
g37
sbsg25
I00
sg26
g35
sba(imyEvolve
Tree
p283
(dp284
g19
I2
sg14
(imyEvolve
Tree
p285
(dp286
g19
I1
sg14
(imyEvolve
Tree
p287
(dp288
g19
I0
sg24
F-4.939291809122239
sg20
I01
sbsg21
(imyEvolve
Tree
p289
(dp290
g19
I0
sg20
I00
sbsg25
I00
sg26
g35
sbsg21
(imyEvolve
Tree
p291
(dp292
g19
I1
sg14
(imyEvolve
Tree
p293
(dp294
g19
I0
sg24
F-0.02929698496215849
sg20
I01
sbsg21
(imyEvolve
Tree
p295
(dp296
g19
I0
sg24
F-1.4614946842321794
sg20
I01
sbsg25
I00
sg26
g34
sbsg25
I00
sg26
g34
sba(imyEvolve
Tree
p297
(dp298
g7
(imyEvolve
Tree
p299
(dp300
g14
(imyEvolve
Tree
p301
(dp302
g7
(imyEvolve
Tree
p303
(dp304
g19
I0
sg20
I00
sbsg19
I1
sg25
I01
sg26
g38
sbsg19
I2
sg21
(imyEvolve
Tree
p305
(dp306
g7
(imyEvolve
Tree
p307
(dp308
g19
I0
sg24
F4.60060567636064
sg20
I01
sbsg19
I1
sg25
I01
sg26
g37
sbsg25
I00
sg26
g34
sbsg19
I3
sg25
I01
sg26
g87
sba(imyEvolve
Tree
p309
(dp310
g7
(imyEvolve
Tree
p311
(dp312
g7
(imyEvolve
Tree
p313
(dp314
g7
(imyEvolve
Tree
p315
(dp316
g7
(imyEvolve
Tree
p317
(dp318
g7
(imyEvolve
Tree
p319
(dp320
g19
I0
sg20
I00
sbsg19
I1
sg25
I01
sg26
g87
sbsg19
I2
sg25
I01
sg26
g36
sbsg19
I3
sg25
I01
sg26
g37
sbsg19
I4
sg25
I01
sg26
g38
sbsg19
I5
sg25
I01
sg26
g37
sba(imyEvolve
Tree
p321
(dp322
g7
(imyEvolve
Tree
p323
(dp324
g7
(imyEvolve
Tree
p325
(dp326
g7
(imyEvolve
Tree
p327
(dp328
g19
I0
sg20
I00
sbsg19
I1
sg25
I01
sg26
g36
sbsg19
I2
sg25
I01
sg26
g38
sbsg19
I3
sg25
I01
sg26
g87
sba(imyEvolve
Tree
p329
(dp330
g7
(imyEvolve
Tree
p331
(dp332
g7
(imyEvolve
Tree
p333
(dp334
g19
I0
sg24
F4.920875181572963
sg20
I01
sbsg19
I1
sg25
I01
sg26
g38
sbsg19
I2
sg25
I01
sg26
g36
sba(imyEvolve
Tree
p335
(dp336
g7
(imyEvolve
Tree
p337
(dp338
g14
(imyEvolve
Tree
p339
(dp340
g14
(imyEvolve
Tree
p341
(dp342
g19
I0
sg24
F1.7830900044286349
sg20
I01
sbsg19
I1
sg21
(imyEvolve
Tree
p343
(dp344
g19
I0
sg24
F-1.1987786485235552
sg20
I01
sbsg25
I00
sg26
g35
sbsg19
I2
sg21
(imyEvolve
Tree
p345
(dp346
g14
(imyEvolve
Tree
p347
(dp348
g19
I0
sg24
F2.2103201594598527
sg20
I01
sbsg19
I1
sg21
(imyEvolve
Tree
p349
(dp350
g19
I0
sg20
I00
sbsg25
I00
sg26
g35
sbsg25
I00
sg26
g35
sbsg19
I3
sg25
I01
sg26
g36
sba(imyEvolve
Tree
p351
(dp352
g7
(imyEvolve
Tree
p353
(dp354
g7
(imyEvolve
Tree
p355
(dp356
g19
I0
sg24
F-2.7322598214210037
sg20
I01
sbsg19
I1
sg25
I01
sg26
g36
sbsg19
I2
sg25
I01
sg26
g36
sba(imyEvolve
Tree
p357
(dp358
g14
(imyEvolve
Tree
p359
(dp360
g14
(imyEvolve
Tree
p361
(dp362
g7
(imyEvolve
Tree
p363
(dp364
g14
(imyEvolve
Tree
p365
(dp366
g7
(imyEvolve
Tree
p367
(dp368
g19
I0
sg20
I00
sbsg19
I1
sg25
I01
sg26
g38
sbsg19
I2
sg21
(imyEvolve
Tree
p369
(dp370
g7
(imyEvolve
Tree
p371
(dp372
g19
I0
sg24
F-3.3116970512313717
sg20
I01
sbsg19
I1
sg25
I01
sg26
g36
sbsg25
I00
sg26
g35
sbsg19
I3
sg25
I01
sg26
g36
sbsg19
I4
sg21
(imyEvolve
Tree
p373
(dp374
g14
(imyEvolve
Tree
p375
(dp376
g7
(imyEvolve
Tree
p377
(dp378
g7
(imyEvolve
Tree
p379
(dp380
g19
I0
sg20
I00
sbsg19
I1
sg25
I01
sg26
g38
sbsg19
I2
sg25
I01
sg26
g36
sbsg19
I3
sg21
(imyEvolve
Tree
p381
(dp382
g7
(imyEvolve
Tree
p383
(dp384
g7
(imyEvolve
Tree
p385
(dp386
g19
I0
sg24
F2.4317245076071305
sg20
I01
sbsg19
I1
sg25
I01
sg26
g38
sbsg19
I2
sg25
I01
sg26
g37
sbsg25
I00
sg26
g27
sbsg25
I00
sg26
g34
sbsg19
I5
sg21
(imyEvolve
Tree
p387
(dp388
g14
(imyEvolve
Tree
p389
(dp390
g7
(imyEvolve
Tree
p391
(dp392
g7
(imyEvolve
Tree
p393
(dp394
g14
(imyEvolve
Tree
p395
(dp396
g19
I0
sg20
I00
sbsg19
I1
sg21
(imyEvolve
Tree
p397
(dp398
g19
I0
sg24
F4.640373551918032
sg20
I01
sbsg25
I00
sg26
g34
sbsg19
I2
sg25
I01
sg26
g38
sbsg19
I3
sg25
I01
sg26
g37
sbsg19
I4
sg21
(imyEvolve
Tree
p399
(dp400
g7
(imyEvolve
Tree
p401
(dp402
g7
(imyEvolve
Tree
p403
(dp404
g7
(imyEvolve
Tree
p405
(dp406
g19
I0
sg20
I00
sbsg19
I1
sg25
I01
sg26
g87
sbsg19
I2
sg25
I01
sg26
g37
sbsg19
I3
sg25
I01
sg26
g38
sbsg25
I00
sg26
g27
sbsg25
I00
sg26
g27
sbaa(lp407
(imyEvolve
Tree
p408
(dp409
g7
(imyEvolve
Tree
p410
(dp411
g7
(imyEvolve
Tree
p412
(dp413
g7
(imyEvolve
Tree
p414
(dp415
g19
I0
sg24
F3.2148556041463525
sg20
I01
sbsg19
I1
sg25
I01
sg26
g36
sbsg19
I2
sg25
I01
sg26
g36
sbsg19
I3
sg25
I01
sg26
g38
sba(imyEvolve
Tree
p416
(dp417
g7
(imyEvolve
Tree
p418
(dp419
g7
(imyEvolve
Tree
p420
(dp421
g7
(imyEvolve
Tree
p422
(dp423
g19
I1
sg14
(imyEvolve
Tree
p424
(dp425
g19
I0
sg24
F2.305023813747554
sg20
I01
sbsg21
(imyEvolve
Tree
p426
(dp427
g19
I0
sg20
I00
sbsg25
I00
sg26
g35
sbsg19
I2
sg25
I01
sg26
g36
sbsg19
I3
sg25
I01
sg26
g38
sbsg19
I4
sg25
I01
sg26
g36
sba(imyEvolve
Tree
p428
(dp429
g7
(imyEvolve
Tree
p430
(dp431
g7
(imyEvolve
Tree
p432
(dp433
g7
(imyEvolve
Tree
p434
(dp435
g19
I1
sg14
(imyEvolve
Tree
p436
(dp437
g19
I0
sg24
F4.1543727743255445
sg20
I01
sbsg21
(imyEvolve
Tree
p438
(dp439
g19
I0
sg20
I00
sbsg25
I00
sg26
g35
sbsg19
I2
sg25
I01
sg26
g36
sbsg19
I3
sg25
I01
sg26
g87
sbsg19
I4
sg25
I01
sg26
g38
sba(imyEvolve
Tree
p440
(dp441
g19
I4
sg14
(imyEvolve
Tree
p442
(dp443
g19
I3
sg14
(imyEvolve
Tree
p444
(dp445
g19
I2
sg14
(imyEvolve
Tree
p446
(dp447
g19
I1
sg14
(imyEvolve
Tree
p448
(dp449
g19
I0
sg20
I00
sbsg21
(imyEvolve
Tree
p450
(dp451
g19
I0
sg20
I00
sbsg25
I00
sg26
g27
sbsg21
(imyEvolve
Tree
p452
(dp453
g19
I1
sg14
(imyEvolve
Tree
p454
(dp455
g19
I0
sg24
F4.256835580932673
sg20
I01
sbsg21
(imyEvolve
Tree
p456
(dp457
g19
I0
sg24
F4.323417935215675
sg20
I01
sbsg25
I00
sg26
g27
sbsg25
I00
sg26
g27
sbsg21
(imyEvolve
Tree
p458
(dp459
g7
(imyEvolve
Tree
p460
(dp461
g19
I1
sg14
(imyEvolve
Tree
p462
(dp463
g19
I0
sg24
F1.677356877888431
sg20
I01
sbsg21
(imyEvolve
Tree
p464
(dp465
g19
I0
sg20
I00
sbsg25
I00
sg26
g35
sbsg19
I2
sg25
I01
sg26
g36
sbsg25
I00
sg26
g27
sbsg21
(imyEvolve
Tree
p466
(dp467
g7
(imyEvolve
Tree
p468
(dp469
g7
(imyEvolve
Tree
p470
(dp471
g7
(imyEvolve
Tree
p472
(dp473
g19
I0
sg20
I00
sbsg19
I1
sg25
I01
sg26
g36
sbsg19
I2
sg25
I01
sg26
g37
sbsg19
I3
sg25
I01
sg26
g37
sbsg25
I00
sg26
g34
sba(imyEvolve
Tree
p474
(dp475
g14
(imyEvolve
Tree
p476
(dp477
g7
(imyEvolve
Tree
p478
(dp479
g19
I0
sg24
F-3.6178532335385185
sg20
I01
sbsg19
I1
sg25
I01
sg26
g38
sbsg19
I2
sg21
(imyEvolve
Tree
p480
(dp481
g7
(imyEvolve
Tree
p482
(dp483
g19
I0
sg20
I00
sbsg19
I1
sg25
I01
sg26
g36
sbsg25
I00
sg26
g34
sba(imyEvolve
Tree
p484
(dp485
g7
(imyEvolve
Tree
p486
(dp487
g14
(imyEvolve
Tree
p488
(dp489
g14
(imyEvolve
Tree
p490
(dp491
g19
I0
sg20
I00
sbsg19
I1
sg21
(imyEvolve
Tree
p492
(dp493
g19
I0
sg24
F4.57318657479089
sg20
I01
sbsg25
I00
sg26
g27
sbsg19
I2
sg21
(imyEvolve
Tree
p494
(dp495
g7
(imyEvolve
Tree
p496
(dp497
g19
I0
sg20
I00
sbsg19
I1
sg25
I01
sg26
g87
sbsg25
I00
sg26
g35
sbsg19
I3
sg25
I01
sg26
g36
sba(imyEvolve
Tree
p498
(dp499
g14
(imyEvolve
Tree
p500
(dp501
g7
(imyEvolve
Tree
p502
(dp503
g7
(imyEvolve
Tree
p504
(dp505
g14
(imyEvolve
Tree
p506
(dp507
g19
I0
sg20
I00
sbsg19
I1
sg21
(imyEvolve
Tree
p508
(dp509
g19
I0
sg20
I00
sbsg25
I00
sg26
g27
sbsg19
I2
sg25
I01
sg26
g38
sbsg19
I3
sg25
I01
sg26
g38
sbsg19
I4
sg21
(imyEvolve
Tree
p510
(dp511
g14
(imyEvolve
Tree
p512
(dp513
g14
(imyEvolve
Tree
p514
(dp515
g14
(imyEvolve
Tree
p516
(dp517
g19
I0
sg20
I00
sbsg19
I1
sg21
(imyEvolve
Tree
p518
(dp519
g19
I0
sg24
F-0.14158704149658874
sg20
I01
sbsg25
I00
sg26
g27
sbsg19
I2
sg21
(imyEvolve
Tree
p520
(dp521
g7
(imyEvolve
Tree
p522
(dp523
g19
I0
sg24
F0.1111288196329765
sg20
I01
sbsg19
I1
sg25
I01
sg26
g38
sbsg25
I00
sg26
g27
sbsg19
I3
sg21
(imyEvolve
Tree
p524
(dp525
g14
(imyEvolve
Tree
p526
(dp527
g14
(imyEvolve
Tree
p528
(dp529
g19
I0
sg20
I00
sbsg19
I1
sg21
(imyEvolve
Tree
p530
(dp531
g19
I0
sg20
I00
sbsg25
I00
sg26
g35
sbsg19
I2
sg21
(imyEvolve
Tree
p532
(dp533
g7
(imyEvolve
Tree
p534
(dp535
g19
I0
sg20
I00
sbsg19
I1
sg25
I01
sg26
g87
sbsg25
I00
sg26
g35
sbsg25
I00
sg26
g27
sbsg25
I00
sg26
g34
sba(imyEvolve
Tree
p536
(dp537
g7
(imyEvolve
Tree
p538
(dp539
g7
(imyEvolve
Tree
p540
(dp541
g14
(imyEvolve
Tree
p542
(dp543
g14
(imyEvolve
Tree
p544
(dp545
g19
I0
sg20
I00
sbsg19
I1
sg21
(imyEvolve
Tree
p546
(dp547
g19
I0
sg24
F2.6312471590262723
sg20
I01
sbsg25
I00
sg26
g35
sbsg19
I2
sg21
(imyEvolve
Tree
p548
(dp549
g7
(imyEvolve
Tree
p550
(dp551
g19
I0
sg24
F-0.9703541138704193
sg20
I01
sbsg19
I1
sg25
I01
sg26
g36
sbsg25
I00
sg26
g27
sbsg19
I3
sg25
I01
sg26
g38
sbsg19
I4
sg25
I01
sg26
g36
sba(imyEvolve
Tree
p552
(dp553
g14
(imyEvolve
Tree
p554
(dp555
g14
(imyEvolve
Tree
p556
(dp557
g7
(imyEvolve
Tree
p558
(dp559
g14
(imyEvolve
Tree
p560
(dp561
g19
I0
sg24
F1.4396042513113718
sg20
I01
sbsg19
I1
sg21
(imyEvolve
Tree
p562
(dp563
g19
I0
sg24
F2.207175636606186
sg20
I01
sbsg25
I00
sg26
g35
sbsg19
I2
sg25
I01
sg26
g37
sbsg19
I3
sg21
(imyEvolve
Tree
p564
(dp565
g7
(imyEvolve
Tree
p566
(dp567
g14
(imyEvolve
Tree
p568
(dp569
g19
I0
sg20
I00
sbsg19
I1
sg21
(imyEvolve
Tree
p570
(dp571
g19
I0
sg24
F3.861996641265476
sg20
I01
sbsg25
I00
sg26
g27
sbsg19
I2
sg25
I01
sg26
g38
sbsg25
I00
sg26
g35
sbsg19
I4
sg21
(imyEvolve
Tree
p572
(dp573
g14
(imyEvolve
Tree
p574
(dp575
g7
(imyEvolve
Tree
p576
(dp577
g7
(imyEvolve
Tree
p578
(dp579
g19
I0
sg24
F-4.414610067947651
sg20
I01
sbsg19
I1
sg25
I01
sg26
g37
sbsg19
I2
sg25
I01
sg26
g36
sbsg19
I3
sg21
(imyEvolve
Tree
p580
(dp581
g14
(imyEvolve
Tree
p582
(dp583
g7
(imyEvolve
Tree
p584
(dp585
g19
I0
sg24
F-3.2306758995993823
sg20
I01
sbsg19
I1
sg25
I01
sg26
g87
sbsg19
I2
sg21
(imyEvolve
Tree
p586
(dp587
g14
(imyEvolve
Tree
p588
(dp589
g19
I0
sg24
F-1.4674133880890716
sg20
I01
sbsg19
I1
sg21
(imyEvolve
Tree
p590
(dp591
g19
I0
sg20
I00
sbsg25
I00
sg26
g35
sbsg25
I00
sg26
g34
sbsg25
I00
sg26
g34
sbsg25
I00
sg26
g27
sba(imyEvolve
Tree
p592
(dp593
g7
(imyEvolve
Tree
p594
(dp595
g14
(imyEvolve
Tree
p596
(dp597
g14
(imyEvolve
Tree
p598
(dp599
g19
I0
sg20
I00
sbsg19
I1
sg21
(imyEvolve
Tree
p600
(dp601
g19
I0
sg24
F-3.975322356800314
sg20
I01
sbsg25
I00
sg26
g35
sbsg19
I2
sg21
(imyEvolve
Tree
p602
(dp603
g14
(imyEvolve
Tree
p604
(dp605
g19
I0
sg24
F-0.5660603997116382
sg20
I01
sbsg19
I1
sg21
(imyEvolve
Tree
p606
(dp607
g19
I0
sg20
I00
sbsg25
I00
sg26
g35
sbsg25
I00
sg26
g27
sbsg19
I3
sg25
I01
sg26
g36
sba(imyEvolve
Tree
p608
(dp609
g19
I3
sg14
(imyEvolve
Tree
p610
(dp611
g19
I2
sg14
(imyEvolve
Tree
p612
(dp613
g7
(imyEvolve
Tree
p614
(dp615
g19
I0
sg20
I00
sbsg19
I1
sg25
I01
sg26
g36
sbsg21
(imyEvolve
Tree
p616
(dp617
g7
(imyEvolve
Tree
p618
(dp619
g19
I0
sg20
I00
sbsg19
I1
sg25
I01
sg26
g87
sbsg25
I00
sg26
g34
sbsg21
(imyEvolve
Tree
p620
(dp621
g19
I2
sg14
(imyEvolve
Tree
p622
(dp623
g19
I1
sg14
(imyEvolve
Tree
p624
(dp625
g19
I0
sg24
F-2.2725678761727397
sg20
I01
sbsg21
(imyEvolve
Tree
p626
(dp627
g19
I0
sg24
F-2.280759513775096
sg20
I01
sbsg25
I00
sg26
g27
sbsg21
(imyEvolve
Tree
p628
(dp629
g7
(imyEvolve
Tree
p630
(dp631
g19
I0
sg24
F3.4717089710064073
sg20
I01
sbsg19
I1
sg25
I01
sg26
g36
sbsg25
I00
sg26
g27
sbsg25
I00
sg26
g27
sba(imyEvolve
Tree
p632
(dp633
g19
I5
sg14
(imyEvolve
Tree
p634
(dp635
g19
I4
sg14
(imyEvolve
Tree
p636
(dp637
g19
I3
sg14
(imyEvolve
Tree
p638
(dp639
g7
(imyEvolve
Tree
p640
(dp641
g19
I1
sg14
(imyEvolve
Tree
p642
(dp643
g19
I0
sg24
F-4.272326519065769
sg20
I01
sbsg21
(imyEvolve
Tree
p644
(dp645
g19
I0
sg24
F1.3550657965265174
sg20
I01
sbsg25
I00
sg26
g35
sbsg19
I2
sg25
I01
sg26
g37
sbsg21
(imyEvolve
Tree
p646
(dp647
g7
(imyEvolve
Tree
p648
(dp649
g7
(imyEvolve
Tree
p650
(dp651
g19
I0
sg20
I00
sbsg19
I1
sg25
I01
sg26
g38
sbsg19
I2
sg25
I01
sg26
g37
sbsg25
I00
sg26
g35
sbsg21
(imyEvolve
Tree
p652
(dp653
g7
(imyEvolve
Tree
p654
(dp655
g7
(imyEvolve
Tree
p656
(dp657
g19
I1
sg14
(imyEvolve
Tree
p658
(dp659
g19
I0
sg24
F-0.9327563905220737
sg20
I01
sbsg21
(imyEvolve
Tree
p660
(dp661
g19
I0
sg20
I00
sbsg25
I00
sg26
g34
sbsg19
I2
sg25
I01
sg26
g38
sbsg19
I3
sg25
I01
sg26
g36
sbsg25
I00
sg26
g34
sbsg21
(imyEvolve
Tree
p662
(dp663
g7
(imyEvolve
Tree
p664
(dp665
g7
(imyEvolve
Tree
p666
(dp667
g7
(imyEvolve
Tree
p668
(dp669
g7
(imyEvolve
Tree
p670
(dp671
g19
I0
sg24
F1.6981965272777169
sg20
I01
sbsg19
I1
sg25
I01
sg26
g87
sbsg19
I2
sg25
I01
sg26
g38
sbsg19
I3
sg25
I01
sg26
g36
sbsg19
I4
sg25
I01
sg26
g37
sbsg25
I00
sg26
g35
sba(imyEvolve
Tree
p672
(dp673
g14
(imyEvolve
Tree
p674
(dp675
g7
(imyEvolve
Tree
p676
(dp677
g19
I0
sg24
F-0.8815828922941593
sg20
I01
sbsg19
I1
sg25
I01
sg26
g87
sbsg19
I2
sg21
(imyEvolve
Tree
p678
(dp679
g7
(imyEvolve
Tree
p680
(dp681
g19
I0
sg20
I00
sbsg19
I1
sg25
I01
sg26
g37
sbsg25
I00
sg26
g35
sba(imyEvolve
Tree
p682
(dp683
g7
(imyEvolve
Tree
p684
(dp685
g7
(imyEvolve
Tree
p686
(dp687
g7
(imyEvolve
Tree
p688
(dp689
g19
I0
sg20
I00
sbsg19
I1
sg25
I01
sg26
g87
sbsg19
I2
sg25
I01
sg26
g36
sbsg19
I3
sg25
I01
sg26
g37
sbaasS'alpha'
p690
F0.007471123144049652
sS'fitness'
p691
cnumpy.core.multiarray
scalar
p692
(cnumpy
dtype
p693
(S'f8'
p694
I0
I1
tp695
Rp696
(I3
S'<'
p697
NNNI-1
I-1
I0
tp698
bS'\x80\xdd$\x86\x06\x0f\x7f\xbf'
p699
tp700
Rp701
sS'weightSharing'
p702
(lp703
I00
aI00
asS'fitnessValid'
p704
I00
sS'resolution'
p705
I73
sb.