(imyEvolve
Individual
p0
(dp1
S'funcs'
p2
(lp3
(lp4
(imyEvolve
Tree
p5
(dp6
S'below'
p7
(imyEvolve
Tree
p8
(dp9
S'depth'
p10
I2
sS'left'
p11
(imyEvolve
Tree
p12
(dp13
g7
(imyEvolve
Tree
p14
(dp15
g10
I0
sS'constant'
p16
F-0.024994225944171333
sS'isConstant'
p17
I01
sbsg10
I1
sS'single'
p18
I01
sS'op'
p19
cmath
sin
p20
sbsS'right'
p21
(imyEvolve
Tree
p22
(dp23
g10
I1
sg11
(imyEvolve
Tree
p24
(dp25
g10
I0
sg16
F-4.643158548973329
sg17
I01
sbsg21
(imyEvolve
Tree
p26
(dp27
g10
I0
sg16
F-0.39839548002632696
sg17
I01
sbsg18
I00
sg19
coperator
sub
p28
sbsg18
I00
sg19
g28
sbsg10
I3
sg18
I01
sg19
g20
sba(imyEvolve
Tree
p29
(dp30
g7
(imyEvolve
Tree
p31
(dp32
g10
I1
sg11
(imyEvolve
Tree
p33
(dp34
g10
I0
sg17
I00
sbsg21
(imyEvolve
Tree
p35
(dp36
g10
I0
sg16
F-4.829960632508633
sg17
I01
sbsg18
I00
sg19
g28
sbsg10
I2
sg18
I01
sg19
g20
sba(imyEvolve
Tree
p37
(dp38
g7
(imyEvolve
Tree
p39
(dp40
g10
I4
sg11
(imyEvolve
Tree
p41
(dp42
g10
I3
sg11
(imyEvolve
Tree
p43
(dp44
g7
(imyEvolve
Tree
p45
(dp46
g7
(imyEvolve
Tree
p47
(dp48
g10
I0
sg17
I00
sbsg10
I1
sg18
I01
sg19
cmyEvolve
square
p49
sbsg10
I2
sg18
I01
sg19
g20
sbsg21
(imyEvolve
Tree
p50
(dp51
g10
I2
sg11
(imyEvolve
Tree
p52
(dp53
g10
I1
sg11
(imyEvolve
Tree
p54
(dp55
g10
I0
sg16
F-0.49750164407558994
sg17
I01
sbsg21
(imyEvolve
Tree
p56
(dp57
g10
I0
sg16
F-1.9948530674899514
sg17
I01
sbsg18
I00
sg19
coperator
mul
p58
sbsg21
(imyEvolve
Tree
p59
(dp60
g7
(imyEvolve
Tree
p61
(dp62
g10
I0
sg16
F-4.3825365886856105
sg17
I01
sbsg10
I1
sg18
I01
sg19
g20
sbsg18
I00
sg19
coperator
add
p63
sbsg18
I00
sg19
g28
sbsg21
(imyEvolve
Tree
p64
(dp65
g7
(imyEvolve
Tree
p66
(dp67
g10
I2
sg11
(imyEvolve
Tree
p68
(dp69
g7
(imyEvolve
Tree
p70
(dp71
g10
I0
sg17
I00
sbsg10
I1
sg18
I01
sg19
cmyEvolve
absSqrt
p72
sbsg21
(imyEvolve
Tree
p73
(dp74
g7
(imyEvolve
Tree
p75
(dp76
g10
I0
sg17
I00
sbsg10
I1
sg18
I01
sg19
g49
sbsg18
I00
sg19
g28
sbsg10
I3
sg18
I01
sg19
g20
sbsg18
I00
sg19
g63
sbsg10
I5
sg18
I01
sg19
cmath
cos
p77
sba(imyEvolve
Tree
p78
(dp79
g10
I3
sg11
(imyEvolve
Tree
p80
(dp81
g7
(imyEvolve
Tree
p82
(dp83
g10
I1
sg11
(imyEvolve
Tree
p84
(dp85
g10
I0
sg16
F-1.1406182228655104
sg17
I01
sbsg21
(imyEvolve
Tree
p86
(dp87
g10
I0
sg16
F-2.2720041129664894
sg17
I01
sbsg18
I00
sg19
g63
sbsg10
I2
sg18
I01
sg19
g49
sbsg21
(imyEvolve
Tree
p88
(dp89
g7
(imyEvolve
Tree
p90
(dp91
g7
(imyEvolve
Tree
p92
(dp93
g10
I0
sg16
F3.8693387953691136
sg17
I01
sbsg10
I1
sg18
I01
sg19
g49
sbsg10
I2
sg18
I01
sg19
g72
sbsg18
I00
sg19
g58
sba(imyEvolve
Tree
p94
(dp95
g7
(imyEvolve
Tree
p96
(dp97
g10
I4
sg11
(imyEvolve
Tree
p98
(dp99
g10
I3
sg11
(imyEvolve
Tree
p100
(dp101
g10
I2
sg11
(imyEvolve
Tree
p102
(dp103
g10
I1
sg11
(imyEvolve
Tree
p104
(dp105
g10
I0
sg17
I00
sbsg21
(imyEvolve
Tree
p106
(dp107
g10
I0
sg17
I00
sbsg18
I00
sg19
g63
sbsg21
(imyEvolve
Tree
p108
(dp109
g10
I1
sg11
(imyEvolve
Tree
p110
(dp111
g10
I0
sg17
I00
sbsg21
(imyEvolve
Tree
p112
(dp113
g10
I0
sg17
I00
sbsg18
I00
sg19
g63
sbsg18
I00
sg19
g28
sbsg21
(imyEvolve
Tree
p114
(dp115
g10
I2
sg11
(imyEvolve
Tree
p116
(dp117
g10
I1
sg11
(imyEvolve
Tree
p118
(dp119
g10
I0
sg16
F1.3110082748716358
sg17
I01
sbsg21
(imyEvolve
Tree
p120
(dp121
g10
I0
sg17
I00
sbsg18
I00
sg19
g28
sbsg21
(imyEvolve
Tree
p122
(dp123
g10
I1
sg11
(imyEvolve
Tree
p124
(dp125
g10
I0
sg17
I00
sbsg21
(imyEvolve
Tree
p126
(dp127
g10
I0
sg17
I00
sbsg18
I00
sg19
g63
sbsg18
I00
sg19
g58
sbsg18
I00
sg19
g63
sbsg21
(imyEvolve
Tree
p128
(dp129
g10
I3
sg11
(imyEvolve
Tree
p130
(dp131
g10
I2
sg11
(imyEvolve
Tree
p132
(dp133
g10
I1
sg11
(imyEvolve
Tree
p134
(dp135
g10
I0
sg16
F-3.97063339282084
sg17
I01
sbsg21
(imyEvolve
Tree
p136
(dp137
g10
I0
sg16
F4.223921421690921
sg17
I01
sbsg18
I00
sg19
g28
sbsg21
(imyEvolve
Tree
p138
(dp139
g10
I1
sg11
(imyEvolve
Tree
p140
(dp141
g10
I0
sg16
F-3.3621739578887064
sg17
I01
sbsg21
(imyEvolve
Tree
p142
(dp143
g10
I0
sg17
I00
sbsg18
I00
sg19
g28
sbsg18
I00
sg19
g63
sbsg21
(imyEvolve
Tree
p144
(dp145
g10
I2
sg11
(imyEvolve
Tree
p146
(dp147
g10
I1
sg11
(imyEvolve
Tree
p148
(dp149
g10
I0
sg17
I00
sbsg21
(imyEvolve
Tree
p150
(dp151
g10
I0
sg17
I00
sbsg18
I00
sg19
g28
sbsg21
(imyEvolve
Tree
p152
(dp153
g7
(imyEvolve
Tree
p154
(dp155
g10
I0
sg16
F-4.808100287624104
sg17
I01
sbsg10
I1
sg18
I01
sg19
g49
sbsg18
I00
sg19
g28
sbsg18
I00
sg19
g28
sbsg18
I00
sg19
g63
sbsg10
I5
sg18
I01
sg19
g77
sba(imyEvolve
Tree
p156
(dp157
g7
(imyEvolve
Tree
p158
(dp159
g10
I1
sg11
(imyEvolve
Tree
p160
(dp161
g10
I0
sg17
I00
sbsg21
(imyEvolve
Tree
p162
(dp163
g10
I0
sg16
F1.8885491532160543
sg17
I01
sbsg18
I00
sg19
g58
sbsg10
I2
sg18
I01
sg19
g77
sba(imyEvolve
Tree
p164
(dp165
g7
(imyEvolve
Tree
p166
(dp167
g10
I4
sg11
(imyEvolve
Tree
p168
(dp169
g10
I3
sg11
(imyEvolve
Tree
p170
(dp171
g7
(imyEvolve
Tree
p172
(dp173
g7
(imyEvolve
Tree
p174
(dp175
g10
I0
sg16
F3.6725960850943355
sg17
I01
sbsg10
I1
sg18
I01
sg19
g72
sbsg10
I2
sg18
I01
sg19
g77
sbsg21
(imyEvolve
Tree
p176
(dp177
g7
(imyEvolve
Tree
p178
(dp179
g7
(imyEvolve
Tree
p180
(dp181
g10
I0
sg16
F1.1728957161613582
sg17
I01
sbsg10
I1
sg18
I01
sg19
g77
sbsg10
I2
sg18
I01
sg19
g49
sbsg18
I00
sg19
g63
sbsg21
(imyEvolve
Tree
p182
(dp183
g10
I3
sg11
(imyEvolve
Tree
p184
(dp185
g10
I2
sg11
(imyEvolve
Tree
p186
(dp187
g10
I1
sg11
(imyEvolve
Tree
p188
(dp189
g10
I0
sg17
I00
sbsg21
(imyEvolve
Tree
p190
(dp191
g10
I0
sg17
I00
sbsg18
I00
sg19
g63
sbsg21
(imyEvolve
Tree
p192
(dp193
g7
(imyEvolve
Tree
p194
(dp195
g10
I0
sg17
I00
sbsg10
I1
sg18
I01
sg19
g20
sbsg18
I00
sg19
g63
sbsg21
(imyEvolve
Tree
p196
(dp197
g7
(imyEvolve
Tree
p198
(dp199
g7
(imyEvolve
Tree
p200
(dp201
g10
I0
sg16
F1.1527929962228871
sg17
I01
sbsg10
I1
sg18
I01
sg19
g72
sbsg10
I2
sg18
I01
sg19
g72
sbsg18
I00
sg19
g63
sbsg18
I00
sg19
g63
sbsg10
I5
sg18
I01
sg19
g20
sba(imyEvolve
Tree
p202
(dp203
g10
I2
sg11
(imyEvolve
Tree
p204
(dp205
g7
(imyEvolve
Tree
p206
(dp207
g10
I0
sg17
I00
sbsg10
I1
sg18
I01
sg19
g20
sbsg21
(imyEvolve
Tree
p208
(dp209
g7
(imyEvolve
Tree
p210
(dp211
g10
I0
sg16
F3.400972350208052
sg17
I01
sbsg10
I1
sg18
I01
sg19
g72
sbsg18
I00
sg19
g63
sba(imyEvolve
Tree
p212
(dp213
g10
I4
sg11
(imyEvolve
Tree
p214
(dp215
g7
(imyEvolve
Tree
p216
(dp217
g7
(imyEvolve
Tree
p218
(dp219
g7
(imyEvolve
Tree
p220
(dp221
g10
I0
sg17
I00
sbsg10
I1
sg18
I01
sg19
g72
sbsg10
I2
sg18
I01
sg19
g49
sbsg10
I3
sg18
I01
sg19
g20
sbsg21
(imyEvolve
Tree
p222
(dp223
g7
(imyEvolve
Tree
p224
(dp225
g7
(imyEvolve
Tree
p226
(dp227
g10
I1
sg11
(imyEvolve
Tree
p228
(dp229
g10
I0
sg17
I00
sbsg21
(imyEvolve
Tree
p230
(dp231
g10
I0
sg17
I00
sbsg18
I00
sg19
g58
sbsg10
I2
sg18
I01
sg19
g49
sbsg10
I3
sg18
I01
sg19
g72
sbsg18
I00
sg19
g58
sba(imyEvolve
Tree
p232
(dp233
g10
I3
sg11
(imyEvolve
Tree
p234
(dp235
g7
(imyEvolve
Tree
p236
(dp237
g10
I1
sg11
(imyEvolve
Tree
p238
(dp239
g10
I0
sg16
F1.5552272812416579
sg17
I01
sbsg21
(imyEvolve
Tree
p240
(dp241
g10
I0
sg16
F0.5717048642977032
sg17
I01
sbsg18
I00
sg19
g28
sbsg10
I2
sg18
I01
sg19
g72
sbsg21
(imyEvolve
Tree
p242
(dp243
g10
I2
sg11
(imyEvolve
Tree
p244
(dp245
g10
I1
sg11
(imyEvolve
Tree
p246
(dp247
g10
I0
sg17
I00
sbsg21
(imyEvolve
Tree
p248
(dp249
g10
I0
sg17
I00
sbsg18
I00
sg19
g63
sbsg21
(imyEvolve
Tree
p250
(dp251
g10
I1
sg11
(imyEvolve
Tree
p252
(dp253
g10
I0
sg17
I00
sbsg21
(imyEvolve
Tree
p254
(dp255
g10
I0
sg16
F-4.1805629885358675
sg17
I01
sbsg18
I00
sg19
g28
sbsg18
I00
sg19
g28
sbsg18
I00
sg19
g63
sbaa(lp256
(imyEvolve
Tree
p257
(dp258
g7
(imyEvolve
Tree
p259
(dp260
g10
I4
sg11
(imyEvolve
Tree
p261
(dp262
g7
(imyEvolve
Tree
p263
(dp264
g10
I2
sg11
(imyEvolve
Tree
p265
(dp266
g7
(imyEvolve
Tree
p267
(dp268
g10
I0
sg16
F-3.838685583094038
sg17
I01
sbsg10
I1
sg18
I01
sg19
g77
sbsg21
(imyEvolve
Tree
p269
(dp270
g10
I1
sg11
(imyEvolve
Tree
p271
(dp272
g10
I0
sg16
F-4.271507365473305
sg17
I01
sbsg21
(imyEvolve
Tree
p273
(dp274
g10
I0
sg17
I00
sbsg18
I00
sg19
g28
sbsg18
I00
sg19
g63
sbsg10
I3
sg18
I01
sg19
g49
sbsg21
(imyEvolve
Tree
p275
(dp276
g10
I3
sg11
(imyEvolve
Tree
p277
(dp278
g7
(imyEvolve
Tree
p279
(dp280
g7
(imyEvolve
Tree
p281
(dp282
g10
I0
sg16
F3.83875781294053
sg17
I01
sbsg10
I1
sg18
I01
sg19
g77
sbsg10
I2
sg18
I01
sg19
g77
sbsg21
(imyEvolve
Tree
p283
(dp284
g10
I2
sg11
(imyEvolve
Tree
p285
(dp286
g10
I1
sg11
(imyEvolve
Tree
p287
(dp288
g10
I0
sg17
I00
sbsg21
(imyEvolve
Tree
p289
(dp290
g10
I0
sg17
I00
sbsg18
I00
sg19
g63
sbsg21
(imyEvolve
Tree
p291
(dp292
g10
I1
sg11
(imyEvolve
Tree
p293
(dp294
g10
I0
sg17
I00
sbsg21
(imyEvolve
Tree
p295
(dp296
g10
I0
sg16
F-1.1905176940666973
sg17
I01
sbsg18
I00
sg19
g28
sbsg18
I00
sg19
g58
sbsg18
I00
sg19
g58
sbsg18
I00
sg19
g28
sbsg10
I5
sg18
I01
sg19
g20
sba(imyEvolve
Tree
p297
(dp298
g10
I3
sg11
(imyEvolve
Tree
p299
(dp300
g10
I2
sg11
(imyEvolve
Tree
p301
(dp302
g10
I1
sg11
(imyEvolve
Tree
p303
(dp304
g10
I0
sg17
I00
sbsg21
(imyEvolve
Tree
p305
(dp306
g10
I0
sg17
I00
sbsg18
I00
sg19
g28
sbsg21
(imyEvolve
Tree
p307
(dp308
g7
(imyEvolve
Tree
p309
(dp310
g10
I0
sg16
F0.9845098667364383
sg17
I01
sbsg10
I1
sg18
I01
sg19
g72
sbsg18
I00
sg19
g58
sbsg21
(imyEvolve
Tree
p311
(dp312
g10
I2
sg11
(imyEvolve
Tree
p313
(dp314
g7
(imyEvolve
Tree
p315
(dp316
g10
I0
sg16
F-4.400169959899927
sg17
I01
sbsg10
I1
sg18
I01
sg19
g77
sbsg21
(imyEvolve
Tree
p317
(dp318
g7
(imyEvolve
Tree
p319
(dp320
g10
I0
sg17
I00
sbsg10
I1
sg18
I01
sg19
g20
sbsg18
I00
sg19
g63
sbsg18
I00
sg19
g58
sba(imyEvolve
Tree
p321
(dp322
g7
(imyEvolve
Tree
p323
(dp324
g10
I4
sg11
(imyEvolve
Tree
p325
(dp326
g10
I3
sg11
(imyEvolve
Tree
p327
(dp328
g7
(imyEvolve
Tree
p329
(dp330
g10
I1
sg11
(imyEvolve
Tree
p331
(dp332
g10
I0
sg17
I00
sbsg21
(imyEvolve
Tree
p333
(dp334
g10
I0
sg17
I00
sbsg18
I00
sg19
g58
sbsg10
I2
sg18
I01
sg19
g72
sbsg21
(imyEvolve
Tree
p335
(dp336
g7
(imyEvolve
Tree
p337
(dp338
g7
(imyEvolve
Tree
p339
(dp340
g10
I0
sg17
I00
sbsg10
I1
sg18
I01
sg19
g72
sbsg10
I2
sg18
I01
sg19
g49
sbsg18
I00
sg19
g63
sbsg21
(imyEvolve
Tree
p341
(dp342
g10
I3
sg11
(imyEvolve
Tree
p343
(dp344
g10
I2
sg11
(imyEvolve
Tree
p345
(dp346
g7
(imyEvolve
Tree
p347
(dp348
g10
I0
sg17
I00
sbsg10
I1
sg18
I01
sg19
g49
sbsg21
(imyEvolve
Tree
p349
(dp350
g7
(imyEvolve
Tree
p351
(dp352
g10
I0
sg16
F0.649376756306232
sg17
I01
sbsg10
I1
sg18
I01
sg19
g49
sbsg18
I00
sg19
g63
sbsg21
(imyEvolve
Tree
p353
(dp354
g10
I2
sg11
(imyEvolve
Tree
p355
(dp356
g7
(imyEvolve
Tree
p357
(dp358
g10
I0
sg17
I00
sbsg10
I1
sg18
I01
sg19
g49
sbsg21
(imyEvolve
Tree
p359
(dp360
g7
(imyEvolve
Tree
p361
(dp362
g10
I0
sg16
F-4.161755631225352
sg17
I01
sbsg10
I1
sg18
I01
sg19
g72
sbsg18
I00
sg19
g28
sbsg18
I00
sg19
g63
sbsg18
I00
sg19
g58
sbsg10
I5
sg18
I01
sg19
g72
sba(imyEvolve
Tree
p363
(dp364
g10
I2
sg11
(imyEvolve
Tree
p365
(dp366
g10
I1
sg11
(imyEvolve
Tree
p367
(dp368
g10
I0
sg17
I00
sbsg21
(imyEvolve
Tree
p369
(dp370
g10
I0
sg17
I00
sbsg18
I00
sg19
g28
sbsg21
(imyEvolve
Tree
p371
(dp372
g10
I1
sg11
(imyEvolve
Tree
p373
(dp374
g10
I0
sg16
F1.3788181648620723
sg17
I01
sbsg21
(imyEvolve
Tree
p375
(dp376
g10
I0
sg16
F-2.085333894147696
sg17
I01
sbsg18
I00
sg19
g28
sbsg18
I00
sg19
g63
sba(imyEvolve
Tree
p377
(dp378
g7
(imyEvolve
Tree
p379
(dp380
g10
I3
sg11
(imyEvolve
Tree
p381
(dp382
g7
(imyEvolve
Tree
p383
(dp384
g10
I1
sg11
(imyEvolve
Tree
p385
(dp386
g10
I0
sg16
F-2.2402614608167126
sg17
I01
sbsg21
(imyEvolve
Tree
p387
(dp388
g10
I0
sg16
F-3.652638479196865
sg17
I01
sbsg18
I00
sg19
g63
sbsg10
I2
sg18
I01
sg19
g72
sbsg21
(imyEvolve
Tree
p389
(dp390
g7
(imyEvolve
Tree
p391
(dp392
g10
I1
sg11
(imyEvolve
Tree
p393
(dp394
g10
I0
sg17
I00
sbsg21
(imyEvolve
Tree
p395
(dp396
g10
I0
sg17
I00
sbsg18
I00
sg19
g63
sbsg10
I2
sg18
I01
sg19
g72
sbsg18
I00
sg19
g28
sbsg10
I4
sg18
I01
sg19
g77
sba(imyEvolve
Tree
p397
(dp398
g7
(imyEvolve
Tree
p399
(dp400
g7
(imyEvolve
Tree
p401
(dp402
g7
(imyEvolve
Tree
p403
(dp404
g10
I0
sg17
I00
sbsg10
I1
sg18
I01
sg19
g49
sbsg10
I2
sg18
I01
sg19
g77
sbsg10
I3
sg18
I01
sg19
g49
sba(imyEvolve
Tree
p405
(dp406
g7
(imyEvolve
Tree
p407
(dp408
g7
(imyEvolve
Tree
p409
(dp410
g10
I2
sg11
(imyEvolve
Tree
p411
(dp412
g7
(imyEvolve
Tree
p413
(dp414
g10
I0
sg17
I00
sbsg10
I1
sg18
I01
sg19
g72
sbsg21
(imyEvolve
Tree
p415
(dp416
g7
(imyEvolve
Tree
p417
(dp418
g10
I0
sg17
I00
sbsg10
I1
sg18
I01
sg19
g49
sbsg18
I00
sg19
g28
sbsg10
I3
sg18
I01
sg19
g49
sbsg10
I4
sg18
I01
sg19
g77
sba(imyEvolve
Tree
p419
(dp420
g7
(imyEvolve
Tree
p421
(dp422
g7
(imyEvolve
Tree
p423
(dp424
g10
I2
sg11
(imyEvolve
Tree
p425
(dp426
g7
(imyEvolve
Tree
p427
(dp428
g10
I0
sg16
F-3.7549555616800037
sg17
I01
sbsg10
I1
sg18
I01
sg19
g77
sbsg21
(imyEvolve
Tree
p429
(dp430
g7
(imyEvolve
Tree
p431
(dp432
g10
I0
sg17
I00
sbsg10
I1
sg18
I01
sg19
g72
sbsg18
I00
sg19
g28
sbsg10
I3
sg18
I01
sg19
g72
sbsg10
I4
sg18
I01
sg19
g77
sba(imyEvolve
Tree
p433
(dp434
g10
I4
sg11
(imyEvolve
Tree
p435
(dp436
g7
(imyEvolve
Tree
p437
(dp438
g7
(imyEvolve
Tree
p439
(dp440
g10
I1
sg11
(imyEvolve
Tree
p441
(dp442
g10
I0
sg17
I00
sbsg21
(imyEvolve
Tree
p443
(dp444
g10
I0
sg16
F4.762781788097442
sg17
I01
sbsg18
I00
sg19
g28
sbsg10
I2
sg18
I01
sg19
g20
sbsg10
I3
sg18
I01
sg19
g72
sbsg21
(imyEvolve
Tree
p445
(dp446
g7
(imyEvolve
Tree
p447
(dp448
g7
(imyEvolve
Tree
p449
(dp450
g10
I1
sg11
(imyEvolve
Tree
p451
(dp452
g10
I0
sg16
F-3.760012888879837
sg17
I01
sbsg21
(imyEvolve
Tree
p453
(dp454
g10
I0
sg16
F-0.6577956705724457
sg17
I01
sbsg18
I00
sg19
g63
sbsg10
I2
sg18
I01
sg19
g20
sbsg10
I3
sg18
I01
sg19
g20
sbsg18
I00
sg19
g58
sba(imyEvolve
Tree
p455
(dp456
g7
(imyEvolve
Tree
p457
(dp458
g7
(imyEvolve
Tree
p459
(dp460
g7
(imyEvolve
Tree
p461
(dp462
g7
(imyEvolve
Tree
p463
(dp464
g10
I0
sg16
F1.9898865453768257
sg17
I01
sbsg10
I1
sg18
I01
sg19
g20
sbsg10
I2
sg18
I01
sg19
g77
sbsg10
I3
sg18
I01
sg19
g49
sbsg10
I4
sg18
I01
sg19
g49
sba(imyEvolve
Tree
p465
(dp466
g10
I5
sg11
(imyEvolve
Tree
p467
(dp468
g10
I4
sg11
(imyEvolve
Tree
p469
(dp470
g10
I3
sg11
(imyEvolve
Tree
p471
(dp472
g7
(imyEvolve
Tree
p473
(dp474
g10
I1
sg11
(imyEvolve
Tree
p475
(dp476
g10
I0
sg16
F-4.960527012190452
sg17
I01
sbsg21
(imyEvolve
Tree
p477
(dp478
g10
I0
sg17
I00
sbsg18
I00
sg19
g58
sbsg10
I2
sg18
I01
sg19
g20
sbsg21
(imyEvolve
Tree
p479
(dp480
g7
(imyEvolve
Tree
p481
(dp482
g7
(imyEvolve
Tree
p483
(dp484
g10
I0
sg17
I00
sbsg10
I1
sg18
I01
sg19
g49
sbsg10
I2
sg18
I01
sg19
g77
sbsg18
I00
sg19
g63
sbsg21
(imyEvolve
Tree
p485
(dp486
g7
(imyEvolve
Tree
p487
(dp488
g7
(imyEvolve
Tree
p489
(dp490
g7
(imyEvolve
Tree
p491
(dp492
g10
I0
sg17
I00
sbsg10
I1
sg18
I01
sg19
g72
sbsg10
I2
sg18
I01
sg19
g77
sbsg10
I3
sg18
I01
sg19
g20
sbsg18
I00
sg19
g28
sbsg21
(imyEvolve
Tree
p493
(dp494
g10
I4
sg11
(imyEvolve
Tree
p495
(dp496
g10
I3
sg11
(imyEvolve
Tree
p497
(dp498
g7
(imyEvolve
Tree
p499
(dp500
g10
I1
sg11
(imyEvolve
Tree
p501
(dp502
g10
I0
sg17
I00
sbsg21
(imyEvolve
Tree
p503
(dp504
g10
I0
sg16
F4.166334396248876
sg17
I01
sbsg18
I00
sg19
g28
sbsg10
I2
sg18
I01
sg19
g49
sbsg21
(imyEvolve
Tree
p505
(dp506
g10
I2
sg11
(imyEvolve
Tree
p507
(dp508
g7
(imyEvolve
Tree
p509
(dp510
g10
I0
sg17
I00
sbsg10
I1
sg18
I01
sg19
g20
sbsg21
(imyEvolve
Tree
p511
(dp512
g10
I1
sg11
(imyEvolve
Tree
p513
(dp514
g10
I0
sg17
I00
sbsg21
(imyEvolve
Tree
p515
(dp516
g10
I0
sg17
I00
sbsg18
I00
sg19
g58
sbsg18
I00
sg19
g58
sbsg18
I00
sg19
g58
sbsg21
(imyEvolve
Tree
p517
(dp518
g7
(imyEvolve
Tree
p519
(dp520
g7
(imyEvolve
Tree
p521
(dp522
g7
(imyEvolve
Tree
p523
(dp524
g10
I0
sg16
F1.3491239078250228
sg17
I01
sbsg10
I1
sg18
I01
sg19
g20
sbsg10
I2
sg18
I01
sg19
g77
sbsg10
I3
sg18
I01
sg19
g72
sbsg18
I00
sg19
g28
sbsg18
I00
sg19
g28
sba(imyEvolve
Tree
p525
(dp526
g7
(imyEvolve
Tree
p527
(dp528
g10
I4
sg11
(imyEvolve
Tree
p529
(dp530
g7
(imyEvolve
Tree
p531
(dp532
g7
(imyEvolve
Tree
p533
(dp534
g10
I1
sg11
(imyEvolve
Tree
p535
(dp536
g10
I0
sg17
I00
sbsg21
(imyEvolve
Tree
p537
(dp538
g10
I0
sg17
I00
sbsg18
I00
sg19
g63
sbsg10
I2
sg18
I01
sg19
g72
sbsg10
I3
sg18
I01
sg19
g20
sbsg21
(imyEvolve
Tree
p539
(dp540
g7
(imyEvolve
Tree
p541
(dp542
g10
I2
sg11
(imyEvolve
Tree
p543
(dp544
g10
I1
sg11
(imyEvolve
Tree
p545
(dp546
g10
I0
sg16
F1.9004379715565296
sg17
I01
sbsg21
(imyEvolve
Tree
p547
(dp548
g10
I0
sg16
F4.373436004727711
sg17
I01
sbsg18
I00
sg19
g63
sbsg21
(imyEvolve
Tree
p549
(dp550
g7
(imyEvolve
Tree
p551
(dp552
g10
I0
sg16
F1.0875500720914744
sg17
I01
sbsg10
I1
sg18
I01
sg19
g20
sbsg18
I00
sg19
g63
sbsg10
I3
sg18
I01
sg19
g72
sbsg18
I00
sg19
g58
sbsg10
I5
sg18
I01
sg19
g72
sba(imyEvolve
Tree
p553
(dp554
g7
(imyEvolve
Tree
p555
(dp556
g7
(imyEvolve
Tree
p557
(dp558
g10
I0
sg16
F1.252105394109897
sg17
I01
sbsg10
I1
sg18
I01
sg19
g49
sbsg10
I2
sg18
I01
sg19
g49
sba(imyEvolve
Tree
p559
(dp560
g7
(imyEvolve
Tree
p561
(dp562
g10
I3
sg11
(imyEvolve
Tree
p563
(dp564
g7
(imyEvolve
Tree
p565
(dp566
g10
I1
sg11
(imyEvolve
Tree
p567
(dp568
g10
I0
sg16
F-3.0105029156886873
sg17
I01
sbsg21
(imyEvolve
Tree
p569
(dp570
g10
I0
sg17
I00
sbsg18
I00
sg19
g63
sbsg10
I2
sg18
I01
sg19
g20
sbsg21
(imyEvolve
Tree
p571
(dp572
g10
I2
sg11
(imyEvolve
Tree
p573
(dp574
g7
(imyEvolve
Tree
p575
(dp576
g10
I0
sg17
I00
sbsg10
I1
sg18
I01
sg19
g20
sbsg21
(imyEvolve
Tree
p577
(dp578
g7
(imyEvolve
Tree
p579
(dp580
g10
I0
sg17
I00
sbsg10
I1
sg18
I01
sg19
g72
sbsg18
I00
sg19
g63
sbsg18
I00
sg19
g28
sbsg10
I4
sg18
I01
sg19
g20
sba(imyEvolve
Tree
p581
(dp582
g7
(imyEvolve
Tree
p583
(dp584
g10
I1
sg11
(imyEvolve
Tree
p585
(dp586
g10
I0
sg16
F3.2833047693074953
sg17
I01
sbsg21
(imyEvolve
Tree
p587
(dp588
g10
I0
sg16
F1.9423613471772931
sg17
I01
sbsg18
I00
sg19
g28
sbsg10
I2
sg18
I01
sg19
g49
sba(imyEvolve
Tree
p589
(dp590
g7
(imyEvolve
Tree
p591
(dp592
g10
I4
sg11
(imyEvolve
Tree
p593
(dp594
g7
(imyEvolve
Tree
p595
(dp596
g7
(imyEvolve
Tree
p597
(dp598
g7
(imyEvolve
Tree
p599
(dp600
g10
I0
sg16
F-3.996167372332613
sg17
I01
sbsg10
I1
sg18
I01
sg19
g20
sbsg10
I2
sg18
I01
sg19
g20
sbsg10
I3
sg18
I01
sg19
g72
sbsg21
(imyEvolve
Tree
p601
(dp602
g10
I3
sg11
(imyEvolve
Tree
p603
(dp604
g10
I2
sg11
(imyEvolve
Tree
p605
(dp606
g10
I1
sg11
(imyEvolve
Tree
p607
(dp608
g10
I0
sg17
I00
sbsg21
(imyEvolve
Tree
p609
(dp610
g10
I0
sg17
I00
sbsg18
I00
sg19
g58
sbsg21
(imyEvolve
Tree
p611
(dp612
g10
I1
sg11
(imyEvolve
Tree
p613
(dp614
g10
I0
sg17
I00
sbsg21
(imyEvolve
Tree
p615
(dp616
g10
I0
sg16
F2.999280234622476
sg17
I01
sbsg18
I00
sg19
g28
sbsg18
I00
sg19
g58
sbsg21
(imyEvolve
Tree
p617
(dp618
g7
(imyEvolve
Tree
p619
(dp620
g7
(imyEvolve
Tree
p621
(dp622
g10
I0
sg17
I00
sbsg10
I1
sg18
I01
sg19
g20
sbsg10
I2
sg18
I01
sg19
g77
sbsg18
I00
sg19
g63
sbsg18
I00
sg19
g28
sbsg10
I5
sg18
I01
sg19
g20
sba(imyEvolve
Tree
p623
(dp624
g7
(imyEvolve
Tree
p625
(dp626
g10
I1
sg11
(imyEvolve
Tree
p627
(dp628
g10
I0
sg17
I00
sbsg21
(imyEvolve
Tree
p629
(dp630
g10
I0
sg17
I00
sbsg18
I00
sg19
g28
sbsg10
I2
sg18
I01
sg19
g77
sbaa(lp631
(imyEvolve
Tree
p632
(dp633
g10
I3
sg11
(imyEvolve
Tree
p634
(dp635
g10
I2
sg11
(imyEvolve
Tree
p636
(dp637
g10
I1
sg11
(imyEvolve
Tree
p638
(dp639
g10
I0
sg17
I00
sbsg21
(imyEvolve
Tree
p640
(dp641
g10
I0
sg16
F3.587170010620726
sg17
I01
sbsg18
I00
sg19
g63
sbsg21
(imyEvolve
Tree
p642
(dp643
g7
(imyEvolve
Tree
p644
(dp645
g10
I0
sg16
F1.8548838259440608
sg17
I01
sbsg10
I1
sg18
I01
sg19
g49
sbsg18
I00
sg19
g28
sbsg21
(imyEvolve
Tree
p646
(dp647
g7
(imyEvolve
Tree
p648
(dp649
g7
(imyEvolve
Tree
p650
(dp651
g10
I0
sg16
F-1.5682819348960209
sg17
I01
sbsg10
I1
sg18
I01
sg19
g20
sbsg10
I2
sg18
I01
sg19
g49
sbsg18
I00
sg19
g63
sba(imyEvolve
Tree
p652
(dp653
g7
(imyEvolve
Tree
p654
(dp655
g7
(imyEvolve
Tree
p656
(dp657
g7
(imyEvolve
Tree
p658
(dp659
g10
I0
sg16
F4.963903417611032
sg17
I01
sbsg10
I1
sg18
I01
sg19
g49
sbsg10
I2
sg18
I01
sg19
g20
sbsg10
I3
sg18
I01
sg19
g72
sba(imyEvolve
Tree
p660
(dp661
g7
(imyEvolve
Tree
p662
(dp663
g10
I2
sg11
(imyEvolve
Tree
p664
(dp665
g10
I1
sg11
(imyEvolve
Tree
p666
(dp667
g10
I0
sg17
I00
sbsg21
(imyEvolve
Tree
p668
(dp669
g10
I0
sg17
I00
sbsg18
I00
sg19
g58
sbsg21
(imyEvolve
Tree
p670
(dp671
g10
I1
sg11
(imyEvolve
Tree
p672
(dp673
g10
I0
sg16
F-0.950422937106163
sg17
I01
sbsg21
(imyEvolve
Tree
p674
(dp675
g10
I0
sg17
I00
sbsg18
I00
sg19
g28
sbsg18
I00
sg19
g63
sbsg10
I3
sg18
I01
sg19
g20
sba(imyEvolve
Tree
p676
(dp677
g7
(imyEvolve
Tree
p678
(dp679
g7
(imyEvolve
Tree
p680
(dp681
g7
(imyEvolve
Tree
p682
(dp683
g10
I1
sg11
(imyEvolve
Tree
p684
(dp685
g10
I0
sg17
I00
sbsg21
(imyEvolve
Tree
p686
(dp687
g10
I0
sg16
F0.3323948353099615
sg17
I01
sbsg18
I00
sg19
g63
sbsg10
I2
sg18
I01
sg19
g77
sbsg10
I3
sg18
I01
sg19
g77
sbsg10
I4
sg18
I01
sg19
g20
sba(imyEvolve
Tree
p688
(dp689
g7
(imyEvolve
Tree
p690
(dp691
g7
(imyEvolve
Tree
p692
(dp693
g10
I3
sg11
(imyEvolve
Tree
p694
(dp695
g10
I2
sg11
(imyEvolve
Tree
p696
(dp697
g7
(imyEvolve
Tree
p698
(dp699
g10
I0
sg16
F3.4655733915201417
sg17
I01
sbsg10
I1
sg18
I01
sg19
g20
sbsg21
(imyEvolve
Tree
p700
(dp701
g7
(imyEvolve
Tree
p702
(dp703
g10
I0
sg16
F-4.8912387065059075
sg17
I01
sbsg10
I1
sg18
I01
sg19
g72
sbsg18
I00
sg19
g63
sbsg21
(imyEvolve
Tree
p704
(dp705
g7
(imyEvolve
Tree
p706
(dp707
g10
I1
sg11
(imyEvolve
Tree
p708
(dp709
g10
I0
sg16
F-3.8357091385183404
sg17
I01
sbsg21
(imyEvolve
Tree
p710
(dp711
g10
I0
sg17
I00
sbsg18
I00
sg19
g58
sbsg10
I2
sg18
I01
sg19
g20
sbsg18
I00
sg19
g63
sbsg10
I4
sg18
I01
sg19
g77
sbsg10
I5
sg18
I01
sg19
g77
sba(imyEvolve
Tree
p712
(dp713
g7
(imyEvolve
Tree
p714
(dp715
g7
(imyEvolve
Tree
p716
(dp717
g10
I1
sg11
(imyEvolve
Tree
p718
(dp719
g10
I0
sg17
I00
sbsg21
(imyEvolve
Tree
p720
(dp721
g10
I0
sg16
F-3.5757441864014905
sg17
I01
sbsg18
I00
sg19
g63
sbsg10
I2
sg18
I01
sg19
g20
sbsg10
I3
sg18
I01
sg19
g72
sba(imyEvolve
Tree
p722
(dp723
g7
(imyEvolve
Tree
p724
(dp725
g10
I4
sg11
(imyEvolve
Tree
p726
(dp727
g7
(imyEvolve
Tree
p728
(dp729
g10
I2
sg11
(imyEvolve
Tree
p730
(dp731
g7
(imyEvolve
Tree
p732
(dp733
g10
I0
sg16
F4.41138205445626
sg17
I01
sbsg10
I1
sg18
I01
sg19
g20
sbsg21
(imyEvolve
Tree
p734
(dp735
g10
I1
sg11
(imyEvolve
Tree
p736
(dp737
g10
I0
sg16
F0.8838817984337943
sg17
I01
sbsg21
(imyEvolve
Tree
p738
(dp739
g10
I0
sg16
F4.248028869053467
sg17
I01
sbsg18
I00
sg19
g63
sbsg18
I00
sg19
g28
sbsg10
I3
sg18
I01
sg19
g49
sbsg21
(imyEvolve
Tree
p740
(dp741
g10
I3
sg11
(imyEvolve
Tree
p742
(dp743
g10
I2
sg11
(imyEvolve
Tree
p744
(dp745
g7
(imyEvolve
Tree
p746
(dp747
g10
I0
sg17
I00
sbsg10
I1
sg18
I01
sg19
g49
sbsg21
(imyEvolve
Tree
p748
(dp749
g10
I1
sg11
(imyEvolve
Tree
p750
(dp751
g10
I0
sg16
F0.5448164418465815
sg17
I01
sbsg21
(imyEvolve
Tree
p752
(dp753
g10
I0
sg16
F-1.7164457587473847
sg17
I01
sbsg18
I00
sg19
g63
sbsg18
I00
sg19
g28
sbsg21
(imyEvolve
Tree
p754
(dp755
g7
(imyEvolve
Tree
p756
(dp757
g10
I1
sg11
(imyEvolve
Tree
p758
(dp759
g10
I0
sg16
F-0.7251277788115162
sg17
I01
sbsg21
(imyEvolve
Tree
p760
(dp761
g10
I0
sg17
I00
sbsg18
I00
sg19
g63
sbsg10
I2
sg18
I01
sg19
g77
sbsg18
I00
sg19
g58
sbsg18
I00
sg19
g58
sbsg10
I5
sg18
I01
sg19
g20
sba(imyEvolve
Tree
p762
(dp763
g10
I5
sg11
(imyEvolve
Tree
p764
(dp765
g10
I4
sg11
(imyEvolve
Tree
p766
(dp767
g10
I3
sg11
(imyEvolve
Tree
p768
(dp769
g10
I2
sg11
(imyEvolve
Tree
p770
(dp771
g7
(imyEvolve
Tree
p772
(dp773
g10
I0
sg17
I00
sbsg10
I1
sg18
I01
sg19
g77
sbsg21
(imyEvolve
Tree
p774
(dp775
g10
I1
sg11
(imyEvolve
Tree
p776
(dp777
g10
I0
sg17
I00
sbsg21
(imyEvolve
Tree
p778
(dp779
g10
I0
sg16
F4.486946906112504
sg17
I01
sbsg18
I00
sg19
g63
sbsg18
I00
sg19
g63
sbsg21
(imyEvolve
Tree
p780
(dp781
g7
(imyEvolve
Tree
p782
(dp783
g10
I1
sg11
(imyEvolve
Tree
p784
(dp785
g10
I0
sg17
I00
sbsg21
(imyEvolve
Tree
p786
(dp787
g10
I0
sg16
F-3.2633967364741787
sg17
I01
sbsg18
I00
sg19
g58
sbsg10
I2
sg18
I01
sg19
g72
sbsg18
I00
sg19
g28
sbsg21
(imyEvolve
Tree
p788
(dp789
g10
I3
sg11
(imyEvolve
Tree
p790
(dp791
g7
(imyEvolve
Tree
p792
(dp793
g10
I1
sg11
(imyEvolve
Tree
p794
(dp795
g10
I0
sg16
F-2.213872637642471
sg17
I01
sbsg21
(imyEvolve
Tree
p796
(dp797
g10
I0
sg16
F-3.5761762249020137
sg17
I01
sbsg18
I00
sg19
g58
sbsg10
I2
sg18
I01
sg19
g20
sbsg21
(imyEvolve
Tree
p798
(dp799
g7
(imyEvolve
Tree
p800
(dp801
g10
I1
sg11
(imyEvolve
Tree
p802
(dp803
g10
I0
sg17
I00
sbsg21
(imyEvolve
Tree
p804
(dp805
g10
I0
sg17
I00
sbsg18
I00
sg19
g28
sbsg10
I2
sg18
I01
sg19
g20
sbsg18
I00
sg19
g58
sbsg18
I00
sg19
g28
sbsg21
(imyEvolve
Tree
p806
(dp807
g7
(imyEvolve
Tree
p808
(dp809
g10
I3
sg11
(imyEvolve
Tree
p810
(dp811
g10
I2
sg11
(imyEvolve
Tree
p812
(dp813
g7
(imyEvolve
Tree
p814
(dp815
g10
I0
sg17
I00
sbsg10
I1
sg18
I01
sg19
g49
sbsg21
(imyEvolve
Tree
p816
(dp817
g10
I1
sg11
(imyEvolve
Tree
p818
(dp819
g10
I0
sg17
I00
sbsg21
(imyEvolve
Tree
p820
(dp821
g10
I0
sg17
I00
sbsg18
I00
sg19
g28
sbsg18
I00
sg19
g28
sbsg21
(imyEvolve
Tree
p822
(dp823
g7
(imyEvolve
Tree
p824
(dp825
g7
(imyEvolve
Tree
p826
(dp827
g10
I0
sg17
I00
sbsg10
I1
sg18
I01
sg19
g77
sbsg10
I2
sg18
I01
sg19
g72
sbsg18
I00
sg19
g58
sbsg10
I4
sg18
I01
sg19
g77
sbsg18
I00
sg19
g28
sba(imyEvolve
Tree
p828
(dp829
g10
I4
sg11
(imyEvolve
Tree
p830
(dp831
g7
(imyEvolve
Tree
p832
(dp833
g7
(imyEvolve
Tree
p834
(dp835
g10
I1
sg11
(imyEvolve
Tree
p836
(dp837
g10
I0
sg16
F-3.412466881161648
sg17
I01
sbsg21
(imyEvolve
Tree
p838
(dp839
g10
I0
sg17
I00
sbsg18
I00
sg19
g58
sbsg10
I2
sg18
I01
sg19
g72
sbsg10
I3
sg18
I01
sg19
g72
sbsg21
(imyEvolve
Tree
p840
(dp841
g10
I3
sg11
(imyEvolve
Tree
p842
(dp843
g7
(imyEvolve
Tree
p844
(dp845
g7
(imyEvolve
Tree
p846
(dp847
g10
I0
sg17
I00
sbsg10
I1
sg18
I01
sg19
g20
sbsg10
I2
sg18
I01
sg19
g20
sbsg21
(imyEvolve
Tree
p848
(dp849
g7
(imyEvolve
Tree
p850
(dp851
g7
(imyEvolve
Tree
p852
(dp853
g10
I0
sg16
F-4.888715217031714
sg17
I01
sbsg10
I1
sg18
I01
sg19
g49
sbsg10
I2
sg18
I01
sg19
g77
sbsg18
I00
sg19
g63
sbsg18
I00
sg19
g58
sba(imyEvolve
Tree
p854
(dp855
g7
(imyEvolve
Tree
p856
(dp857
g7
(imyEvolve
Tree
p858
(dp859
g10
I1
sg11
(imyEvolve
Tree
p860
(dp861
g10
I0
sg17
I00
sbsg21
(imyEvolve
Tree
p862
(dp863
g10
I0
sg17
I00
sbsg18
I00
sg19
g28
sbsg10
I2
sg18
I01
sg19
g49
sbsg10
I3
sg18
I01
sg19
g77
sba(imyEvolve
Tree
p864
(dp865
g7
(imyEvolve
Tree
p866
(dp867
g7
(imyEvolve
Tree
p868
(dp869
g10
I0
sg17
I00
sbsg10
I1
sg18
I01
sg19
g20
sbsg10
I2
sg18
I01
sg19
g77
sba(imyEvolve
Tree
p870
(dp871
g7
(imyEvolve
Tree
p872
(dp873
g7
(imyEvolve
Tree
p874
(dp875
g10
I3
sg11
(imyEvolve
Tree
p876
(dp877
g10
I2
sg11
(imyEvolve
Tree
p878
(dp879
g7
(imyEvolve
Tree
p880
(dp881
g10
I0
sg17
I00
sbsg10
I1
sg18
I01
sg19
g77
sbsg21
(imyEvolve
Tree
p882
(dp883
g10
I1
sg11
(imyEvolve
Tree
p884
(dp885
g10
I0
sg17
I00
sbsg21
(imyEvolve
Tree
p886
(dp887
g10
I0
sg17
I00
sbsg18
I00
sg19
g58
sbsg18
I00
sg19
g58
sbsg21
(imyEvolve
Tree
p888
(dp889
g10
I2
sg11
(imyEvolve
Tree
p890
(dp891
g7
(imyEvolve
Tree
p892
(dp893
g10
I0
sg16
F-4.644742280844817
sg17
I01
sbsg10
I1
sg18
I01
sg19
g49
sbsg21
(imyEvolve
Tree
p894
(dp895
g7
(imyEvolve
Tree
p896
(dp897
g10
I0
sg16
F-1.8447743322833565
sg17
I01
sbsg10
I1
sg18
I01
sg19
g77
sbsg18
I00
sg19
g58
sbsg18
I00
sg19
g58
sbsg10
I4
sg18
I01
sg19
g72
sbsg10
I5
sg18
I01
sg19
g72
sba(imyEvolve
Tree
p898
(dp899
g7
(imyEvolve
Tree
p900
(dp901
g7
(imyEvolve
Tree
p902
(dp903
g10
I2
sg11
(imyEvolve
Tree
p904
(dp905
g7
(imyEvolve
Tree
p906
(dp907
g10
I0
sg17
I00
sbsg10
I1
sg18
I01
sg19
g49
sbsg21
(imyEvolve
Tree
p908
(dp909
g7
(imyEvolve
Tree
p910
(dp911
g10
I0
sg16
F0.7650825695608487
sg17
I01
sbsg10
I1
sg18
I01
sg19
g20
sbsg18
I00
sg19
g63
sbsg10
I3
sg18
I01
sg19
g49
sbsg10
I4
sg18
I01
sg19
g77
sba(imyEvolve
Tree
p912
(dp913
g10
I5
sg11
(imyEvolve
Tree
p914
(dp915
g7
(imyEvolve
Tree
p916
(dp917
g10
I3
sg11
(imyEvolve
Tree
p918
(dp919
g7
(imyEvolve
Tree
p920
(dp921
g7
(imyEvolve
Tree
p922
(dp923
g10
I0
sg16
F-2.9507058173524214
sg17
I01
sbsg10
I1
sg18
I01
sg19
g72
sbsg10
I2
sg18
I01
sg19
g20
sbsg21
(imyEvolve
Tree
p924
(dp925
g10
I2
sg11
(imyEvolve
Tree
p926
(dp927
g7
(imyEvolve
Tree
p928
(dp929
g10
I0
sg17
I00
sbsg10
I1
sg18
I01
sg19
g77
sbsg21
(imyEvolve
Tree
p930
(dp931
g10
I1
sg11
(imyEvolve
Tree
p932
(dp933
g10
I0
sg16
F0.660744227400297
sg17
I01
sbsg21
(imyEvolve
Tree
p934
(dp935
g10
I0
sg17
I00
sbsg18
I00
sg19
g28
sbsg18
I00
sg19
g28
sbsg18
I00
sg19
g58
sbsg10
I4
sg18
I01
sg19
g49
sbsg21
(imyEvolve
Tree
p936
(dp937
g10
I4
sg11
(imyEvolve
Tree
p938
(dp939
g10
I3
sg11
(imyEvolve
Tree
p940
(dp941
g7
(imyEvolve
Tree
p942
(dp943
g10
I1
sg11
(imyEvolve
Tree
p944
(dp945
g10
I0
sg16
F-0.37643549685498634
sg17
I01
sbsg21
(imyEvolve
Tree
p946
(dp947
g10
I0
sg16
F2.235187095865413
sg17
I01
sbsg18
I00
sg19
g28
sbsg10
I2
sg18
I01
sg19
g72
sbsg21
(imyEvolve
Tree
p948
(dp949
g7
(imyEvolve
Tree
p950
(dp951
g10
I1
sg11
(imyEvolve
Tree
p952
(dp953
g10
I0
sg16
F2.3603406874129815
sg17
I01
sbsg21
(imyEvolve
Tree
p954
(dp955
g10
I0
sg16
F-2.859503320980762
sg17
I01
sbsg18
I00
sg19
g63
sbsg10
I2
sg18
I01
sg19
g20
sbsg18
I00
sg19
g58
sbsg21
(imyEvolve
Tree
p956
(dp957
g7
(imyEvolve
Tree
p958
(dp959
g7
(imyEvolve
Tree
p960
(dp961
g7
(imyEvolve
Tree
p962
(dp963
g10
I0
sg16
F-2.414740070522281
sg17
I01
sbsg10
I1
sg18
I01
sg19
g77
sbsg10
I2
sg18
I01
sg19
g72
sbsg10
I3
sg18
I01
sg19
g20
sbsg18
I00
sg19
g28
sbsg18
I00
sg19
g58
sba(imyEvolve
Tree
p964
(dp965
g7
(imyEvolve
Tree
p966
(dp967
g10
I3
sg11
(imyEvolve
Tree
p968
(dp969
g10
I2
sg11
(imyEvolve
Tree
p970
(dp971
g7
(imyEvolve
Tree
p972
(dp973
g10
I0
sg17
I00
sbsg10
I1
sg18
I01
sg19
g72
sbsg21
(imyEvolve
Tree
p974
(dp975
g10
I1
sg11
(imyEvolve
Tree
p976
(dp977
g10
I0
sg17
I00
sbsg21
(imyEvolve
Tree
p978
(dp979
g10
I0
sg17
I00
sbsg18
I00
sg19
g28
sbsg18
I00
sg19
g28
sbsg21
(imyEvolve
Tree
p980
(dp981
g10
I2
sg11
(imyEvolve
Tree
p982
(dp983
g10
I1
sg11
(imyEvolve
Tree
p984
(dp985
g10
I0
sg16
F1.0056254811224825
sg17
I01
sbsg21
(imyEvolve
Tree
p986
(dp987
g10
I0
sg16
F-3.360228289164695
sg17
I01
sbsg18
I00
sg19
g28
sbsg21
(imyEvolve
Tree
p988
(dp989
g10
I1
sg11
(imyEvolve
Tree
p990
(dp991
g10
I0
sg17
I00
sbsg21
(imyEvolve
Tree
p992
(dp993
g10
I0
sg17
I00
sbsg18
I00
sg19
g63
sbsg18
I00
sg19
g58
sbsg18
I00
sg19
g28
sbsg10
I4
sg18
I01
sg19
g77
sba(imyEvolve
Tree
p994
(dp995
g7
(imyEvolve
Tree
p996
(dp997
g10
I4
sg11
(imyEvolve
Tree
p998
(dp999
g10
I3
sg11
(imyEvolve
Tree
p1000
(dp1001
g10
I2
sg11
(imyEvolve
Tree
p1002
(dp1003
g10
I1
sg11
(imyEvolve
Tree
p1004
(dp1005
g10
I0
sg17
I00
sbsg21
(imyEvolve
Tree
p1006
(dp1007
g10
I0
sg16
F4.910954221052938
sg17
I01
sbsg18
I00
sg19
g63
sbsg21
(imyEvolve
Tree
p1008
(dp1009
g7
(imyEvolve
Tree
p1010
(dp1011
g10
I0
sg16
F-3.2393766534685966
sg17
I01
sbsg10
I1
sg18
I01
sg19
g20
sbsg18
I00
sg19
g58
sbsg21
(imyEvolve
Tree
p1012
(dp1013
g10
I2
sg11
(imyEvolve
Tree
p1014
(dp1015
g10
I1
sg11
(imyEvolve
Tree
p1016
(dp1017
g10
I0
sg16
F3.427176082126106
sg17
I01
sbsg21
(imyEvolve
Tree
p1018
(dp1019
g10
I0
sg16
F-3.259209246601756
sg17
I01
sbsg18
I00
sg19
g63
sbsg21
(imyEvolve
Tree
p1020
(dp1021
g7
(imyEvolve
Tree
p1022
(dp1023
g10
I0
sg16
F-2.5219591907658554
sg17
I01
sbsg10
I1
sg18
I01
sg19
g72
sbsg18
I00
sg19
g28
sbsg18
I00
sg19
g63
sbsg21
(imyEvolve
Tree
p1024
(dp1025
g7
(imyEvolve
Tree
p1026
(dp1027
g7
(imyEvolve
Tree
p1028
(dp1029
g7
(imyEvolve
Tree
p1030
(dp1031
g10
I0
sg16
F-0.5827287193533675
sg17
I01
sbsg10
I1
sg18
I01
sg19
g20
sbsg10
I2
sg18
I01
sg19
g77
sbsg10
I3
sg18
I01
sg19
g20
sbsg18
I00
sg19
g58
sbsg10
I5
sg18
I01
sg19
g49
sba(imyEvolve
Tree
p1032
(dp1033
g10
I2
sg11
(imyEvolve
Tree
p1034
(dp1035
g7
(imyEvolve
Tree
p1036
(dp1037
g10
I0
sg16
F-1.0848458297691477
sg17
I01
sbsg10
I1
sg18
I01
sg19
g49
sbsg21
(imyEvolve
Tree
p1038
(dp1039
g10
I1
sg11
(imyEvolve
Tree
p1040
(dp1041
g10
I0
sg17
I00
sbsg21
(imyEvolve
Tree
p1042
(dp1043
g10
I0
sg17
I00
sbsg18
I00
sg19
g28
sbsg18
I00
sg19
g28
sba(imyEvolve
Tree
p1044
(dp1045
g7
(imyEvolve
Tree
p1046
(dp1047
g7
(imyEvolve
Tree
p1048
(dp1049
g7
(imyEvolve
Tree
p1050
(dp1051
g10
I0
sg17
I00
sbsg10
I1
sg18
I01
sg19
g77
sbsg10
I2
sg18
I01
sg19
g49
sbsg10
I3
sg18
I01
sg19
g20
sbaasS'weightSharing'
p1052
(lp1053
I01
aI00
asS'fitnessValid'
p1054
I00
sS'fitness'
p1055
cnumpy.core.multiarray
scalar
p1056
(cnumpy
dtype
p1057
(S'f8'
p1058
I0
I1
tp1059
Rp1060
(I3
S'<'
p1061
NNNI-1
I-1
I0
tp1062
bS'\x00\xfeC\xfa\xe44c\xbf'
p1063
tp1064
Rp1065
sS'alpha'
p1066
F0.0014035830342677181
sS'resolution'
p1067
I92
sb.