(imyEvolve
Individual
p0
(dp1
S'funcs'
p2
(lp3
(lp4
(imyEvolve
Tree
p5
(dp6
S'below'
p7
(imyEvolve
Tree
p8
(dp9
g7
(imyEvolve
Tree
p10
(dp11
g7
(imyEvolve
Tree
p12
(dp13
g7
(imyEvolve
Tree
p14
(dp15
S'depth'
p16
I0
sS'constant'
p17
F-1.0724974125524889
sS'isConstant'
p18
I01
sbsg16
I1
sS'single'
p19
I01
sS'op'
p20
cmath
sin
p21
sbsg16
I2
sg19
I01
sg20
cmyEvolve
absSqrt
p22
sbsg16
I3
sg19
I01
sg20
g21
sbsg16
I4
sg19
I01
sg20
cmath
cos
p23
sba(imyEvolve
Tree
p24
(dp25
g16
I3
sS'left'
p26
(imyEvolve
Tree
p27
(dp28
g16
I2
sg26
(imyEvolve
Tree
p29
(dp30
g16
I1
sg26
(imyEvolve
Tree
p31
(dp32
g16
I0
sg17
F-1.1881820877800142
sg18
I01
sbsS'right'
p33
(imyEvolve
Tree
p34
(dp35
g16
I0
sg17
F3.7094136264459383
sg18
I01
sbsg19
I00
sg20
coperator
add
p36
sbsg33
(imyEvolve
Tree
p37
(dp38
g16
I1
sg26
(imyEvolve
Tree
p39
(dp40
g16
I0
sg18
I00
sbsg33
(imyEvolve
Tree
p41
(dp42
g16
I0
sg17
F1.160127769962572
sg18
I01
sbsg19
I00
sg20
coperator
sub
p43
sbsg19
I00
sg20
coperator
mul
p44
sbsg33
(imyEvolve
Tree
p45
(dp46
g16
I2
sg26
(imyEvolve
Tree
p47
(dp48
g16
I1
sg26
(imyEvolve
Tree
p49
(dp50
g16
I0
sg18
I00
sbsg33
(imyEvolve
Tree
p51
(dp52
g16
I0
sg17
F4.4594416747676
sg18
I01
sbsg19
I00
sg20
g43
sbsg33
(imyEvolve
Tree
p53
(dp54
g16
I1
sg26
(imyEvolve
Tree
p55
(dp56
g16
I0
sg17
F-3.711351214475913
sg18
I01
sbsg33
(imyEvolve
Tree
p57
(dp58
g16
I0
sg17
F4.456129032670791
sg18
I01
sbsg19
I00
sg20
g36
sbsg19
I00
sg20
g44
sbsg19
I00
sg20
g44
sba(imyEvolve
Tree
p59
(dp60
g7
(imyEvolve
Tree
p61
(dp62
g16
I3
sg26
(imyEvolve
Tree
p63
(dp64
g16
I2
sg26
(imyEvolve
Tree
p65
(dp66
g7
(imyEvolve
Tree
p67
(dp68
g16
I0
sg17
F4.113494049610205
sg18
I01
sbsg16
I1
sg19
I01
sg20
g21
sbsg33
(imyEvolve
Tree
p69
(dp70
g16
I1
sg26
(imyEvolve
Tree
p71
(dp72
g16
I0
sg17
F-1.4277843709730762
sg18
I01
sbsg33
(imyEvolve
Tree
p73
(dp74
g16
I0
sg18
I00
sbsg19
I00
sg20
g44
sbsg19
I00
sg20
g43
sbsg33
(imyEvolve
Tree
p75
(dp76
g16
I2
sg26
(imyEvolve
Tree
p77
(dp78
g16
I1
sg26
(imyEvolve
Tree
p79
(dp80
g16
I0
sg17
F3.5900337533204727
sg18
I01
sbsg33
(imyEvolve
Tree
p81
(dp82
g16
I0
sg17
F-2.2235786149357697
sg18
I01
sbsg19
I00
sg20
g36
sbsg33
(imyEvolve
Tree
p83
(dp84
g16
I1
sg26
(imyEvolve
Tree
p85
(dp86
g16
I0
sg17
F-0.38695904427439487
sg18
I01
sbsg33
(imyEvolve
Tree
p87
(dp88
g16
I0
sg18
I00
sbsg19
I00
sg20
g36
sbsg19
I00
sg20
g44
sbsg19
I00
sg20
g44
sbsg16
I4
sg19
I01
sg20
cmyEvolve
square
p89
sba(imyEvolve
Tree
p90
(dp91
g7
(imyEvolve
Tree
p92
(dp93
g7
(imyEvolve
Tree
p94
(dp95
g16
I3
sg26
(imyEvolve
Tree
p96
(dp97
g16
I2
sg26
(imyEvolve
Tree
p98
(dp99
g7
(imyEvolve
Tree
p100
(dp101
g16
I0
sg17
F-2.9263501231869493
sg18
I01
sbsg16
I1
sg19
I01
sg20
g22
sbsg33
(imyEvolve
Tree
p102
(dp103
g16
I1
sg26
(imyEvolve
Tree
p104
(dp105
g16
I0
sg18
I00
sbsg33
(imyEvolve
Tree
p106
(dp107
g16
I0
sg18
I00
sbsg19
I00
sg20
g43
sbsg19
I00
sg20
g44
sbsg33
(imyEvolve
Tree
p108
(dp109
g16
I2
sg26
(imyEvolve
Tree
p110
(dp111
g7
(imyEvolve
Tree
p112
(dp113
g16
I0
sg17
F1.5276632353878465
sg18
I01
sbsg16
I1
sg19
I01
sg20
g22
sbsg33
(imyEvolve
Tree
p114
(dp115
g16
I1
sg26
(imyEvolve
Tree
p116
(dp117
g16
I0
sg18
I00
sbsg33
(imyEvolve
Tree
p118
(dp119
g16
I0
sg18
I00
sbsg19
I00
sg20
g36
sbsg19
I00
sg20
g36
sbsg19
I00
sg20
g36
sbsg16
I4
sg19
I01
sg20
g21
sbsg16
I5
sg19
I01
sg20
g23
sba(imyEvolve
Tree
p120
(dp121
g7
(imyEvolve
Tree
p122
(dp123
g16
I4
sg26
(imyEvolve
Tree
p124
(dp125
g16
I3
sg26
(imyEvolve
Tree
p126
(dp127
g7
(imyEvolve
Tree
p128
(dp129
g7
(imyEvolve
Tree
p130
(dp131
g16
I0
sg17
F0.7779369455138827
sg18
I01
sbsg16
I1
sg19
I01
sg20
g21
sbsg16
I2
sg19
I01
sg20
g23
sbsg33
(imyEvolve
Tree
p132
(dp133
g7
(imyEvolve
Tree
p134
(dp135
g7
(imyEvolve
Tree
p136
(dp137
g16
I0
sg18
I00
sbsg16
I1
sg19
I01
sg20
g89
sbsg16
I2
sg19
I01
sg20
g21
sbsg19
I00
sg20
g36
sbsg33
(imyEvolve
Tree
p138
(dp139
g16
I3
sg26
(imyEvolve
Tree
p140
(dp141
g16
I2
sg26
(imyEvolve
Tree
p142
(dp143
g7
(imyEvolve
Tree
p144
(dp145
g16
I0
sg17
F-4.1651003695969715
sg18
I01
sbsg16
I1
sg19
I01
sg20
g21
sbsg33
(imyEvolve
Tree
p146
(dp147
g16
I1
sg26
(imyEvolve
Tree
p148
(dp149
g16
I0
sg17
F-1.229678635524233
sg18
I01
sbsg33
(imyEvolve
Tree
p150
(dp151
g16
I0
sg18
I00
sbsg19
I00
sg20
g43
sbsg19
I00
sg20
g44
sbsg33
(imyEvolve
Tree
p152
(dp153
g7
(imyEvolve
Tree
p154
(dp155
g16
I1
sg26
(imyEvolve
Tree
p156
(dp157
g16
I0
sg18
I00
sbsg33
(imyEvolve
Tree
p158
(dp159
g16
I0
sg17
F1.6740257058900996
sg18
I01
sbsg19
I00
sg20
g36
sbsg16
I2
sg19
I01
sg20
g22
sbsg19
I00
sg20
g43
sbsg19
I00
sg20
g43
sbsg16
I5
sg19
I01
sg20
g21
sba(imyEvolve
Tree
p160
(dp161
g16
I2
sg26
(imyEvolve
Tree
p162
(dp163
g16
I1
sg26
(imyEvolve
Tree
p164
(dp165
g16
I0
sg18
I00
sbsg33
(imyEvolve
Tree
p166
(dp167
g16
I0
sg17
F-2.39721498589606
sg18
I01
sbsg19
I00
sg20
g43
sbsg33
(imyEvolve
Tree
p168
(dp169
g7
(imyEvolve
Tree
p170
(dp171
g16
I0
sg17
F-0.21158833116066766
sg18
I01
sbsg16
I1
sg19
I01
sg20
g21
sbsg19
I00
sg20
g44
sba(imyEvolve
Tree
p172
(dp173
g16
I4
sg26
(imyEvolve
Tree
p174
(dp175
g7
(imyEvolve
Tree
p176
(dp177
g16
I2
sg26
(imyEvolve
Tree
p178
(dp179
g7
(imyEvolve
Tree
p180
(dp181
g16
I0
sg17
F-2.7591914654907934
sg18
I01
sbsg16
I1
sg19
I01
sg20
g23
sbsg33
(imyEvolve
Tree
p182
(dp183
g16
I1
sg26
(imyEvolve
Tree
p184
(dp185
g16
I0
sg17
F0.3604190333193422
sg18
I01
sbsg33
(imyEvolve
Tree
p186
(dp187
g16
I0
sg17
F4.349390443728565
sg18
I01
sbsg19
I00
sg20
g44
sbsg19
I00
sg20
g36
sbsg16
I3
sg19
I01
sg20
g22
sbsg33
(imyEvolve
Tree
p188
(dp189
g16
I3
sg26
(imyEvolve
Tree
p190
(dp191
g7
(imyEvolve
Tree
p192
(dp193
g16
I1
sg26
(imyEvolve
Tree
p194
(dp195
g16
I0
sg17
F0.8069133229575511
sg18
I01
sbsg33
(imyEvolve
Tree
p196
(dp197
g16
I0
sg17
F3.209381022253396
sg18
I01
sbsg19
I00
sg20
g44
sbsg16
I2
sg19
I01
sg20
g22
sbsg33
(imyEvolve
Tree
p198
(dp199
g16
I2
sg26
(imyEvolve
Tree
p200
(dp201
g7
(imyEvolve
Tree
p202
(dp203
g16
I0
sg17
F-3.0788127441239688
sg18
I01
sbsg16
I1
sg19
I01
sg20
g22
sbsg33
(imyEvolve
Tree
p204
(dp205
g16
I1
sg26
(imyEvolve
Tree
p206
(dp207
g16
I0
sg17
F1.7838900925546284
sg18
I01
sbsg33
(imyEvolve
Tree
p208
(dp209
g16
I0
sg17
F-0.20403966627840475
sg18
I01
sbsg19
I00
sg20
g36
sbsg19
I00
sg20
g43
sbsg19
I00
sg20
g43
sbsg19
I00
sg20
g43
sba(imyEvolve
Tree
p210
(dp211
g7
(imyEvolve
Tree
p212
(dp213
g16
I3
sg26
(imyEvolve
Tree
p214
(dp215
g7
(imyEvolve
Tree
p216
(dp217
g16
I1
sg26
(imyEvolve
Tree
p218
(dp219
g16
I0
sg18
I00
sbsg33
(imyEvolve
Tree
p220
(dp221
g16
I0
sg18
I00
sbsg19
I00
sg20
g44
sbsg16
I2
sg19
I01
sg20
g89
sbsg33
(imyEvolve
Tree
p222
(dp223
g7
(imyEvolve
Tree
p224
(dp225
g16
I1
sg26
(imyEvolve
Tree
p226
(dp227
g16
I0
sg18
I00
sbsg33
(imyEvolve
Tree
p228
(dp229
g16
I0
sg17
F-3.5905986459828565
sg18
I01
sbsg19
I00
sg20
g36
sbsg16
I2
sg19
I01
sg20
g22
sbsg19
I00
sg20
g36
sbsg16
I4
sg19
I01
sg20
g21
sba(imyEvolve
Tree
p230
(dp231
g16
I2
sg26
(imyEvolve
Tree
p232
(dp233
g16
I1
sg26
(imyEvolve
Tree
p234
(dp235
g16
I0
sg18
I00
sbsg33
(imyEvolve
Tree
p236
(dp237
g16
I0
sg18
I00
sbsg19
I00
sg20
g44
sbsg33
(imyEvolve
Tree
p238
(dp239
g7
(imyEvolve
Tree
p240
(dp241
g16
I0
sg17
F2.812047562603941
sg18
I01
sbsg16
I1
sg19
I01
sg20
g23
sbsg19
I00
sg20
g44
sbaa(lp242
(imyEvolve
Tree
p243
(dp244
g7
(imyEvolve
Tree
p245
(dp246
g7
(imyEvolve
Tree
p247
(dp248
g7
(imyEvolve
Tree
p249
(dp250
g7
(imyEvolve
Tree
p251
(dp252
g16
I1
sg26
(imyEvolve
Tree
p253
(dp254
g16
I0
sg18
I00
sbsg33
(imyEvolve
Tree
p255
(dp256
g16
I0
sg18
I00
sbsg19
I00
sg20
g43
sbsg16
I2
sg19
I01
sg20
g89
sbsg16
I3
sg19
I01
sg20
g89
sbsg16
I4
sg19
I01
sg20
g21
sbsg16
I5
sg19
I01
sg20
g23
sba(imyEvolve
Tree
p257
(dp258
g16
I5
sg26
(imyEvolve
Tree
p259
(dp260
g16
I4
sg26
(imyEvolve
Tree
p261
(dp262
g16
I3
sg26
(imyEvolve
Tree
p263
(dp264
g16
I2
sg26
(imyEvolve
Tree
p265
(dp266
g16
I1
sg26
(imyEvolve
Tree
p267
(dp268
g16
I0
sg17
F1.3116086821126238
sg18
I01
sbsg33
(imyEvolve
Tree
p269
(dp270
g16
I0
sg18
I00
sbsg19
I00
sg20
g44
sbsg33
(imyEvolve
Tree
p271
(dp272
g7
(imyEvolve
Tree
p273
(dp274
g16
I0
sg18
I00
sbsg16
I1
sg19
I01
sg20
g23
sbsg19
I00
sg20
g43
sbsg33
(imyEvolve
Tree
p275
(dp276
g16
I2
sg26
(imyEvolve
Tree
p277
(dp278
g7
(imyEvolve
Tree
p279
(dp280
g16
I0
sg17
F4.0947073016930595
sg18
I01
sbsg16
I1
sg19
I01
sg20
g89
sbsg33
(imyEvolve
Tree
p281
(dp282
g7
(imyEvolve
Tree
p283
(dp284
g16
I0
sg18
I00
sbsg16
I1
sg19
I01
sg20
g22
sbsg19
I00
sg20
g36
sbsg19
I00
sg20
g43
sbsg33
(imyEvolve
Tree
p285
(dp286
g16
I3
sg26
(imyEvolve
Tree
p287
(dp288
g7
(imyEvolve
Tree
p289
(dp290
g16
I1
sg26
(imyEvolve
Tree
p291
(dp292
g16
I0
sg18
I00
sbsg33
(imyEvolve
Tree
p293
(dp294
g16
I0
sg17
F-0.12789529232704488
sg18
I01
sbsg19
I00
sg20
g43
sbsg16
I2
sg19
I01
sg20
g21
sbsg33
(imyEvolve
Tree
p295
(dp296
g16
I2
sg26
(imyEvolve
Tree
p297
(dp298
g7
(imyEvolve
Tree
p299
(dp300
g16
I0
sg17
F4.22556242399982
sg18
I01
sbsg16
I1
sg19
I01
sg20
g22
sbsg33
(imyEvolve
Tree
p301
(dp302
g7
(imyEvolve
Tree
p303
(dp304
g16
I0
sg18
I00
sbsg16
I1
sg19
I01
sg20
g22
sbsg19
I00
sg20
g44
sbsg19
I00
sg20
g43
sbsg19
I00
sg20
g36
sbsg33
(imyEvolve
Tree
p305
(dp306
g16
I4
sg26
(imyEvolve
Tree
p307
(dp308
g7
(imyEvolve
Tree
p309
(dp310
g16
I2
sg26
(imyEvolve
Tree
p311
(dp312
g16
I1
sg26
(imyEvolve
Tree
p313
(dp314
g16
I0
sg17
F2.0869203782044687
sg18
I01
sbsg33
(imyEvolve
Tree
p315
(dp316
g16
I0
sg18
I00
sbsg19
I00
sg20
g44
sbsg33
(imyEvolve
Tree
p317
(dp318
g16
I1
sg26
(imyEvolve
Tree
p319
(dp320
g16
I0
sg17
F2.726632364898885
sg18
I01
sbsg33
(imyEvolve
Tree
p321
(dp322
g16
I0
sg17
F-3.685035105337172
sg18
I01
sbsg19
I00
sg20
g44
sbsg19
I00
sg20
g36
sbsg16
I3
sg19
I01
sg20
g21
sbsg33
(imyEvolve
Tree
p323
(dp324
g16
I3
sg26
(imyEvolve
Tree
p325
(dp326
g16
I2
sg26
(imyEvolve
Tree
p327
(dp328
g7
(imyEvolve
Tree
p329
(dp330
g16
I0
sg18
I00
sbsg16
I1
sg19
I01
sg20
g22
sbsg33
(imyEvolve
Tree
p331
(dp332
g7
(imyEvolve
Tree
p333
(dp334
g16
I0
sg17
F0.7642023838321581
sg18
I01
sbsg16
I1
sg19
I01
sg20
g22
sbsg19
I00
sg20
g44
sbsg33
(imyEvolve
Tree
p335
(dp336
g16
I2
sg26
(imyEvolve
Tree
p337
(dp338
g7
(imyEvolve
Tree
p339
(dp340
g16
I0
sg18
I00
sbsg16
I1
sg19
I01
sg20
g22
sbsg33
(imyEvolve
Tree
p341
(dp342
g7
(imyEvolve
Tree
p343
(dp344
g16
I0
sg18
I00
sbsg16
I1
sg19
I01
sg20
g22
sbsg19
I00
sg20
g36
sbsg19
I00
sg20
g43
sbsg19
I00
sg20
g43
sbsg19
I00
sg20
g36
sba(imyEvolve
Tree
p345
(dp346
g16
I3
sg26
(imyEvolve
Tree
p347
(dp348
g7
(imyEvolve
Tree
p349
(dp350
g16
I1
sg26
(imyEvolve
Tree
p351
(dp352
g16
I0
sg18
I00
sbsg33
(imyEvolve
Tree
p353
(dp354
g16
I0
sg17
F-1.5972996347615798
sg18
I01
sbsg19
I00
sg20
g43
sbsg16
I2
sg19
I01
sg20
g89
sbsg33
(imyEvolve
Tree
p355
(dp356
g16
I2
sg26
(imyEvolve
Tree
p357
(dp358
g16
I1
sg26
(imyEvolve
Tree
p359
(dp360
g16
I0
sg18
I00
sbsg33
(imyEvolve
Tree
p361
(dp362
g16
I0
sg18
I00
sbsg19
I00
sg20
g43
sbsg33
(imyEvolve
Tree
p363
(dp364
g7
(imyEvolve
Tree
p365
(dp366
g16
I0
sg17
F-4.165686258971552
sg18
I01
sbsg16
I1
sg19
I01
sg20
g22
sbsg19
I00
sg20
g43
sbsg19
I00
sg20
g36
sba(imyEvolve
Tree
p367
(dp368
g7
(imyEvolve
Tree
p369
(dp370
g7
(imyEvolve
Tree
p371
(dp372
g16
I0
sg17
F-3.7005672554883438
sg18
I01
sbsg16
I1
sg19
I01
sg20
g89
sbsg16
I2
sg19
I01
sg20
g21
sba(imyEvolve
Tree
p373
(dp374
g16
I3
sg26
(imyEvolve
Tree
p375
(dp376
g16
I2
sg26
(imyEvolve
Tree
p377
(dp378
g16
I1
sg26
(imyEvolve
Tree
p379
(dp380
g16
I0
sg17
F-3.3739756332936666
sg18
I01
sbsg33
(imyEvolve
Tree
p381
(dp382
g16
I0
sg18
I00
sbsg19
I00
sg20
g44
sbsg33
(imyEvolve
Tree
p383
(dp384
g7
(imyEvolve
Tree
p385
(dp386
g16
I0
sg17
F-0.14668383042980704
sg18
I01
sbsg16
I1
sg19
I01
sg20
g23
sbsg19
I00
sg20
g43
sbsg33
(imyEvolve
Tree
p387
(dp388
g16
I2
sg26
(imyEvolve
Tree
p389
(dp390
g16
I1
sg26
(imyEvolve
Tree
p391
(dp392
g16
I0
sg18
I00
sbsg33
(imyEvolve
Tree
p393
(dp394
g16
I0
sg17
F0.5976332082476796
sg18
I01
sbsg19
I00
sg20
g36
sbsg33
(imyEvolve
Tree
p395
(dp396
g7
(imyEvolve
Tree
p397
(dp398
g16
I0
sg18
I00
sbsg16
I1
sg19
I01
sg20
g23
sbsg19
I00
sg20
g36
sbsg19
I00
sg20
g36
sba(imyEvolve
Tree
p399
(dp400
g16
I2
sg26
(imyEvolve
Tree
p401
(dp402
g7
(imyEvolve
Tree
p403
(dp404
g16
I0
sg17
F-3.0177508138532527
sg18
I01
sbsg16
I1
sg19
I01
sg20
g23
sbsg33
(imyEvolve
Tree
p405
(dp406
g16
I1
sg26
(imyEvolve
Tree
p407
(dp408
g16
I0
sg18
I00
sbsg33
(imyEvolve
Tree
p409
(dp410
g16
I0
sg17
F1.3363870941208988
sg18
I01
sbsg19
I00
sg20
g44
sbsg19
I00
sg20
g44
sba(imyEvolve
Tree
p411
(dp412
g16
I3
sg26
(imyEvolve
Tree
p413
(dp414
g16
I2
sg26
(imyEvolve
Tree
p415
(dp416
g7
(imyEvolve
Tree
p417
(dp418
g16
I0
sg18
I00
sbsg16
I1
sg19
I01
sg20
g21
sbsg33
(imyEvolve
Tree
p419
(dp420
g16
I1
sg26
(imyEvolve
Tree
p421
(dp422
g16
I0
sg17
F1.6307893151257034
sg18
I01
sbsg33
(imyEvolve
Tree
p423
(dp424
g16
I0
sg18
I00
sbsg19
I00
sg20
g44
sbsg19
I00
sg20
g36
sbsg33
(imyEvolve
Tree
p425
(dp426
g7
(imyEvolve
Tree
p427
(dp428
g7
(imyEvolve
Tree
p429
(dp430
g16
I0
sg17
F4.678068798671045
sg18
I01
sbsg16
I1
sg19
I01
sg20
g22
sbsg16
I2
sg19
I01
sg20
g89
sbsg19
I00
sg20
g43
sba(imyEvolve
Tree
p431
(dp432
g16
I3
sg26
(imyEvolve
Tree
p433
(dp434
g7
(imyEvolve
Tree
p435
(dp436
g7
(imyEvolve
Tree
p437
(dp438
g16
I0
sg18
I00
sbsg16
I1
sg19
I01
sg20
g23
sbsg16
I2
sg19
I01
sg20
g22
sbsg33
(imyEvolve
Tree
p439
(dp440
g7
(imyEvolve
Tree
p441
(dp442
g7
(imyEvolve
Tree
p443
(dp444
g16
I0
sg18
I00
sbsg16
I1
sg19
I01
sg20
g23
sbsg16
I2
sg19
I01
sg20
g89
sbsg19
I00
sg20
g44
sba(imyEvolve
Tree
p445
(dp446
g7
(imyEvolve
Tree
p447
(dp448
g7
(imyEvolve
Tree
p449
(dp450
g16
I0
sg17
F0.3778821861168957
sg18
I01
sbsg16
I1
sg19
I01
sg20
g23
sbsg16
I2
sg19
I01
sg20
g89
sba(imyEvolve
Tree
p451
(dp452
g16
I2
sg26
(imyEvolve
Tree
p453
(dp454
g7
(imyEvolve
Tree
p455
(dp456
g16
I0
sg18
I00
sbsg16
I1
sg19
I01
sg20
g23
sbsg33
(imyEvolve
Tree
p457
(dp458
g7
(imyEvolve
Tree
p459
(dp460
g16
I0
sg17
F3.2344307896832554
sg18
I01
sbsg16
I1
sg19
I01
sg20
g21
sbsg19
I00
sg20
g36
sba(imyEvolve
Tree
p461
(dp462
g7
(imyEvolve
Tree
p463
(dp464
g16
I2
sg26
(imyEvolve
Tree
p465
(dp466
g16
I1
sg26
(imyEvolve
Tree
p467
(dp468
g16
I0
sg18
I00
sbsg33
(imyEvolve
Tree
p469
(dp470
g16
I0
sg18
I00
sbsg19
I00
sg20
g36
sbsg33
(imyEvolve
Tree
p471
(dp472
g16
I1
sg26
(imyEvolve
Tree
p473
(dp474
g16
I0
sg17
F-2.802304695624814
sg18
I01
sbsg33
(imyEvolve
Tree
p475
(dp476
g16
I0
sg18
I00
sbsg19
I00
sg20
g43
sbsg19
I00
sg20
g43
sbsg16
I3
sg19
I01
sg20
g23
sba(imyEvolve
Tree
p477
(dp478
g16
I3
sg26
(imyEvolve
Tree
p479
(dp480
g16
I2
sg26
(imyEvolve
Tree
p481
(dp482
g7
(imyEvolve
Tree
p483
(dp484
g16
I0
sg18
I00
sbsg16
I1
sg19
I01
sg20
g89
sbsg33
(imyEvolve
Tree
p485
(dp486
g16
I1
sg26
(imyEvolve
Tree
p487
(dp488
g16
I0
sg18
I00
sbsg33
(imyEvolve
Tree
p489
(dp490
g16
I0
sg17
F-2.205369367777903
sg18
I01
sbsg19
I00
sg20
g36
sbsg19
I00
sg20
g36
sbsg33
(imyEvolve
Tree
p491
(dp492
g16
I2
sg26
(imyEvolve
Tree
p493
(dp494
g16
I1
sg26
(imyEvolve
Tree
p495
(dp496
g16
I0
sg17
F-3.810274074171145
sg18
I01
sbsg33
(imyEvolve
Tree
p497
(dp498
g16
I0
sg18
I00
sbsg19
I00
sg20
g44
sbsg33
(imyEvolve
Tree
p499
(dp500
g16
I1
sg26
(imyEvolve
Tree
p501
(dp502
g16
I0
sg17
F-4.7598889181568715
sg18
I01
sbsg33
(imyEvolve
Tree
p503
(dp504
g16
I0
sg18
I00
sbsg19
I00
sg20
g43
sbsg19
I00
sg20
g43
sbsg19
I00
sg20
g36
sbaa(lp505
(imyEvolve
Tree
p506
(dp507
g16
I2
sg26
(imyEvolve
Tree
p508
(dp509
g16
I1
sg26
(imyEvolve
Tree
p510
(dp511
g16
I0
sg17
F-0.6323255800914298
sg18
I01
sbsg33
(imyEvolve
Tree
p512
(dp513
g16
I0
sg18
I00
sbsg19
I00
sg20
g44
sbsg33
(imyEvolve
Tree
p514
(dp515
g7
(imyEvolve
Tree
p516
(dp517
g16
I0
sg17
F3.7525653822434037
sg18
I01
sbsg16
I1
sg19
I01
sg20
g89
sbsg19
I00
sg20
g36
sba(imyEvolve
Tree
p518
(dp519
g16
I5
sg26
(imyEvolve
Tree
p520
(dp521
g16
I4
sg26
(imyEvolve
Tree
p522
(dp523
g7
(imyEvolve
Tree
p524
(dp525
g16
I2
sg26
(imyEvolve
Tree
p526
(dp527
g16
I1
sg26
(imyEvolve
Tree
p528
(dp529
g16
I0
sg17
F3.904764344901558
sg18
I01
sbsg33
(imyEvolve
Tree
p530
(dp531
g16
I0
sg17
F2.060753821990949
sg18
I01
sbsg19
I00
sg20
g44
sbsg33
(imyEvolve
Tree
p532
(dp533
g7
(imyEvolve
Tree
p534
(dp535
g16
I0
sg17
F-1.1392739968404086
sg18
I01
sbsg16
I1
sg19
I01
sg20
g21
sbsg19
I00
sg20
g44
sbsg16
I3
sg19
I01
sg20
g89
sbsg33
(imyEvolve
Tree
p536
(dp537
g16
I3
sg26
(imyEvolve
Tree
p538
(dp539
g7
(imyEvolve
Tree
p540
(dp541
g7
(imyEvolve
Tree
p542
(dp543
g16
I0
sg17
F0.36521781779022966
sg18
I01
sbsg16
I1
sg19
I01
sg20
g23
sbsg16
I2
sg19
I01
sg20
g21
sbsg33
(imyEvolve
Tree
p544
(dp545
g7
(imyEvolve
Tree
p546
(dp547
g16
I1
sg26
(imyEvolve
Tree
p548
(dp549
g16
I0
sg17
F-4.099463153055747
sg18
I01
sbsg33
(imyEvolve
Tree
p550
(dp551
g16
I0
sg18
I00
sbsg19
I00
sg20
g36
sbsg16
I2
sg19
I01
sg20
g22
sbsg19
I00
sg20
g43
sbsg19
I00
sg20
g43
sbsg33
(imyEvolve
Tree
p552
(dp553
g16
I4
sg26
(imyEvolve
Tree
p554
(dp555
g16
I3
sg26
(imyEvolve
Tree
p556
(dp557
g7
(imyEvolve
Tree
p558
(dp559
g16
I1
sg26
(imyEvolve
Tree
p560
(dp561
g16
I0
sg17
F-0.07143448324029222
sg18
I01
sbsg33
(imyEvolve
Tree
p562
(dp563
g16
I0
sg17
F1.3914131280980477
sg18
I01
sbsg19
I00
sg20
g36
sbsg16
I2
sg19
I01
sg20
g23
sbsg33
(imyEvolve
Tree
p564
(dp565
g7
(imyEvolve
Tree
p566
(dp567
g16
I1
sg26
(imyEvolve
Tree
p568
(dp569
g16
I0
sg17
F-4.45615651891059
sg18
I01
sbsg33
(imyEvolve
Tree
p570
(dp571
g16
I0
sg17
F2.0767601953079398
sg18
I01
sbsg19
I00
sg20
g36
sbsg16
I2
sg19
I01
sg20
g22
sbsg19
I00
sg20
g36
sbsg33
(imyEvolve
Tree
p572
(dp573
g16
I3
sg26
(imyEvolve
Tree
p574
(dp575
g16
I2
sg26
(imyEvolve
Tree
p576
(dp577
g16
I1
sg26
(imyEvolve
Tree
p578
(dp579
g16
I0
sg17
F-4.932772731633161
sg18
I01
sbsg33
(imyEvolve
Tree
p580
(dp581
g16
I0
sg17
F-3.4003348473806128
sg18
I01
sbsg19
I00
sg20
g43
sbsg33
(imyEvolve
Tree
p582
(dp583
g16
I1
sg26
(imyEvolve
Tree
p584
(dp585
g16
I0
sg17
F-4.107577769028311
sg18
I01
sbsg33
(imyEvolve
Tree
p586
(dp587
g16
I0
sg18
I00
sbsg19
I00
sg20
g43
sbsg19
I00
sg20
g43
sbsg33
(imyEvolve
Tree
p588
(dp589
g16
I2
sg26
(imyEvolve
Tree
p590
(dp591
g16
I1
sg26
(imyEvolve
Tree
p592
(dp593
g16
I0
sg17
F-4.792031692400181
sg18
I01
sbsg33
(imyEvolve
Tree
p594
(dp595
g16
I0
sg18
I00
sbsg19
I00
sg20
g43
sbsg33
(imyEvolve
Tree
p596
(dp597
g16
I1
sg26
(imyEvolve
Tree
p598
(dp599
g16
I0
sg17
F3.5313018003663412
sg18
I01
sbsg33
(imyEvolve
Tree
p600
(dp601
g16
I0
sg17
F4.686452326413505
sg18
I01
sbsg19
I00
sg20
g44
sbsg19
I00
sg20
g36
sbsg19
I00
sg20
g44
sbsg19
I00
sg20
g44
sbsg19
I00
sg20
g44
sba(imyEvolve
Tree
p602
(dp603
g7
(imyEvolve
Tree
p604
(dp605
g16
I4
sg26
(imyEvolve
Tree
p606
(dp607
g7
(imyEvolve
Tree
p608
(dp609
g16
I2
sg26
(imyEvolve
Tree
p610
(dp611
g16
I1
sg26
(imyEvolve
Tree
p612
(dp613
g16
I0
sg17
F1.2732697843880345
sg18
I01
sbsg33
(imyEvolve
Tree
p614
(dp615
g16
I0
sg17
F-1.9847034524327958
sg18
I01
sbsg19
I00
sg20
g43
sbsg33
(imyEvolve
Tree
p616
(dp617
g16
I1
sg26
(imyEvolve
Tree
p618
(dp619
g16
I0
sg18
I00
sbsg33
(imyEvolve
Tree
p620
(dp621
g16
I0
sg18
I00
sbsg19
I00
sg20
g43
sbsg19
I00
sg20
g36
sbsg16
I3
sg19
I01
sg20
g21
sbsg33
(imyEvolve
Tree
p622
(dp623
g7
(imyEvolve
Tree
p624
(dp625
g16
I2
sg26
(imyEvolve
Tree
p626
(dp627
g7
(imyEvolve
Tree
p628
(dp629
g16
I0
sg17
F2.850969111400379
sg18
I01
sbsg16
I1
sg19
I01
sg20
g21
sbsg33
(imyEvolve
Tree
p630
(dp631
g7
(imyEvolve
Tree
p632
(dp633
g16
I0
sg18
I00
sbsg16
I1
sg19
I01
sg20
g22
sbsg19
I00
sg20
g43
sbsg16
I3
sg19
I01
sg20
g21
sbsg19
I00
sg20
g44
sbsg16
I5
sg19
I01
sg20
g23
sba(imyEvolve
Tree
p634
(dp635
g16
I5
sg26
(imyEvolve
Tree
p636
(dp637
g16
I4
sg26
(imyEvolve
Tree
p638
(dp639
g16
I3
sg26
(imyEvolve
Tree
p640
(dp641
g7
(imyEvolve
Tree
p642
(dp643
g16
I1
sg26
(imyEvolve
Tree
p644
(dp645
g16
I0
sg17
F-1.0063005631476143
sg18
I01
sbsg33
(imyEvolve
Tree
p646
(dp647
g16
I0
sg18
I00
sbsg19
I00
sg20
g44
sbsg16
I2
sg19
I01
sg20
g21
sbsg33
(imyEvolve
Tree
p648
(dp649
g16
I2
sg26
(imyEvolve
Tree
p650
(dp651
g16
I1
sg26
(imyEvolve
Tree
p652
(dp653
g16
I0
sg18
I00
sbsg33
(imyEvolve
Tree
p654
(dp655
g16
I0
sg18
I00
sbsg19
I00
sg20
g36
sbsg33
(imyEvolve
Tree
p656
(dp657
g16
I1
sg26
(imyEvolve
Tree
p658
(dp659
g16
I0
sg18
I00
sbsg33
(imyEvolve
Tree
p660
(dp661
g16
I0
sg17
F2.9171197923891334
sg18
I01
sbsg19
I00
sg20
g43
sbsg19
I00
sg20
g36
sbsg19
I00
sg20
g44
sbsg33
(imyEvolve
Tree
p662
(dp663
g7
(imyEvolve
Tree
p664
(dp665
g7
(imyEvolve
Tree
p666
(dp667
g16
I1
sg26
(imyEvolve
Tree
p668
(dp669
g16
I0
sg17
F-3.522559164551179
sg18
I01
sbsg33
(imyEvolve
Tree
p670
(dp671
g16
I0
sg18
I00
sbsg19
I00
sg20
g36
sbsg16
I2
sg19
I01
sg20
g23
sbsg16
I3
sg19
I01
sg20
g89
sbsg19
I00
sg20
g44
sbsg33
(imyEvolve
Tree
p672
(dp673
g7
(imyEvolve
Tree
p674
(dp675
g7
(imyEvolve
Tree
p676
(dp677
g7
(imyEvolve
Tree
p678
(dp679
g7
(imyEvolve
Tree
p680
(dp681
g16
I0
sg18
I00
sbsg16
I1
sg19
I01
sg20
g89
sbsg16
I2
sg19
I01
sg20
g89
sbsg16
I3
sg19
I01
sg20
g23
sbsg16
I4
sg19
I01
sg20
g89
sbsg19
I00
sg20
g44
sba(imyEvolve
Tree
p682
(dp683
g7
(imyEvolve
Tree
p684
(dp685
g7
(imyEvolve
Tree
p686
(dp687
g7
(imyEvolve
Tree
p688
(dp689
g16
I0
sg18
I00
sbsg16
I1
sg19
I01
sg20
g21
sbsg16
I2
sg19
I01
sg20
g21
sbsg16
I3
sg19
I01
sg20
g89
sba(imyEvolve
Tree
p690
(dp691
g7
(imyEvolve
Tree
p692
(dp693
g16
I4
sg26
(imyEvolve
Tree
p694
(dp695
g16
I3
sg26
(imyEvolve
Tree
p696
(dp697
g16
I2
sg26
(imyEvolve
Tree
p698
(dp699
g7
(imyEvolve
Tree
p700
(dp701
g16
I0
sg17
F-3.1672783859146714
sg18
I01
sbsg16
I1
sg19
I01
sg20
g21
sbsg33
(imyEvolve
Tree
p702
(dp703
g16
I1
sg26
(imyEvolve
Tree
p704
(dp705
g16
I0
sg17
F1.4216024719643858
sg18
I01
sbsg33
(imyEvolve
Tree
p706
(dp707
g16
I0
sg18
I00
sbsg19
I00
sg20
g36
sbsg19
I00
sg20
g36
sbsg33
(imyEvolve
Tree
p708
(dp709
g7
(imyEvolve
Tree
p710
(dp711
g7
(imyEvolve
Tree
p712
(dp713
g16
I0
sg18
I00
sbsg16
I1
sg19
I01
sg20
g21
sbsg16
I2
sg19
I01
sg20
g89
sbsg19
I00
sg20
g43
sbsg33
(imyEvolve
Tree
p714
(dp715
g16
I3
sg26
(imyEvolve
Tree
p716
(dp717
g7
(imyEvolve
Tree
p718
(dp719
g16
I1
sg26
(imyEvolve
Tree
p720
(dp721
g16
I0
sg17
F0.06807839348634293
sg18
I01
sbsg33
(imyEvolve
Tree
p722
(dp723
g16
I0
sg18
I00
sbsg19
I00
sg20
g36
sbsg16
I2
sg19
I01
sg20
g21
sbsg33
(imyEvolve
Tree
p724
(dp725
g16
I2
sg26
(imyEvolve
Tree
p726
(dp727
g7
(imyEvolve
Tree
p728
(dp729
g16
I0
sg17
F-2.413537894886899
sg18
I01
sbsg16
I1
sg19
I01
sg20
g21
sbsg33
(imyEvolve
Tree
p730
(dp731
g7
(imyEvolve
Tree
p732
(dp733
g16
I0
sg17
F2.9062212505876968
sg18
I01
sbsg16
I1
sg19
I01
sg20
g89
sbsg19
I00
sg20
g43
sbsg19
I00
sg20
g44
sbsg19
I00
sg20
g43
sbsg16
I5
sg19
I01
sg20
g23
sba(imyEvolve
Tree
p734
(dp735
g7
(imyEvolve
Tree
p736
(dp737
g16
I1
sg26
(imyEvolve
Tree
p738
(dp739
g16
I0
sg17
F3.5278467671466522
sg18
I01
sbsg33
(imyEvolve
Tree
p740
(dp741
g16
I0
sg17
F-0.9388961428783187
sg18
I01
sbsg19
I00
sg20
g36
sbsg16
I2
sg19
I01
sg20
g22
sba(imyEvolve
Tree
p742
(dp743
g16
I2
sg26
(imyEvolve
Tree
p744
(dp745
g16
I1
sg26
(imyEvolve
Tree
p746
(dp747
g16
I0
sg18
I00
sbsg33
(imyEvolve
Tree
p748
(dp749
g16
I0
sg18
I00
sbsg19
I00
sg20
g36
sbsg33
(imyEvolve
Tree
p750
(dp751
g16
I1
sg26
(imyEvolve
Tree
p752
(dp753
g16
I0
sg18
I00
sbsg33
(imyEvolve
Tree
p754
(dp755
g16
I0
sg18
I00
sbsg19
I00
sg20
g44
sbsg19
I00
sg20
g43
sba(imyEvolve
Tree
p756
(dp757
g7
(imyEvolve
Tree
p758
(dp759
g7
(imyEvolve
Tree
p760
(dp761
g16
I2
sg26
(imyEvolve
Tree
p762
(dp763
g7
(imyEvolve
Tree
p764
(dp765
g16
I0
sg18
I00
sbsg16
I1
sg19
I01
sg20
g23
sbsg33
(imyEvolve
Tree
p766
(dp767
g7
(imyEvolve
Tree
p768
(dp769
g16
I0
sg18
I00
sbsg16
I1
sg19
I01
sg20
g21
sbsg19
I00
sg20
g44
sbsg16
I3
sg19
I01
sg20
g21
sbsg16
I4
sg19
I01
sg20
g21
sba(imyEvolve
Tree
p770
(dp771
g7
(imyEvolve
Tree
p772
(dp773
g7
(imyEvolve
Tree
p774
(dp775
g16
I1
sg26
(imyEvolve
Tree
p776
(dp777
g16
I0
sg18
I00
sbsg33
(imyEvolve
Tree
p778
(dp779
g16
I0
sg18
I00
sbsg19
I00
sg20
g43
sbsg16
I2
sg19
I01
sg20
g89
sbsg16
I3
sg19
I01
sg20
g23
sba(imyEvolve
Tree
p780
(dp781
g16
I2
sg26
(imyEvolve
Tree
p782
(dp783
g16
I1
sg26
(imyEvolve
Tree
p784
(dp785
g16
I0
sg17
F-1.439240005232496
sg18
I01
sbsg33
(imyEvolve
Tree
p786
(dp787
g16
I0
sg18
I00
sbsg19
I00
sg20
g36
sbsg33
(imyEvolve
Tree
p788
(dp789
g7
(imyEvolve
Tree
p790
(dp791
g16
I0
sg17
F-3.849788957207805
sg18
I01
sbsg16
I1
sg19
I01
sg20
g89
sbsg19
I00
sg20
g44
sba(imyEvolve
Tree
p792
(dp793
g16
I2
sg26
(imyEvolve
Tree
p794
(dp795
g16
I1
sg26
(imyEvolve
Tree
p796
(dp797
g16
I0
sg18
I00
sbsg33
(imyEvolve
Tree
p798
(dp799
g16
I0
sg18
I00
sbsg19
I00
sg20
g36
sbsg33
(imyEvolve
Tree
p800
(dp801
g7
(imyEvolve
Tree
p802
(dp803
g16
I0
sg18
I00
sbsg16
I1
sg19
I01
sg20
g21
sbsg19
I00
sg20
g44
sba(imyEvolve
Tree
p804
(dp805
g16
I4
sg26
(imyEvolve
Tree
p806
(dp807
g7
(imyEvolve
Tree
p808
(dp809
g7
(imyEvolve
Tree
p810
(dp811
g7
(imyEvolve
Tree
p812
(dp813
g16
I0
sg17
F-2.2641379613724943
sg18
I01
sbsg16
I1
sg19
I01
sg20
g21
sbsg16
I2
sg19
I01
sg20
g22
sbsg16
I3
sg19
I01
sg20
g22
sbsg33
(imyEvolve
Tree
p814
(dp815
g7
(imyEvolve
Tree
p816
(dp817
g7
(imyEvolve
Tree
p818
(dp819
g7
(imyEvolve
Tree
p820
(dp821
g16
I0
sg18
I00
sbsg16
I1
sg19
I01
sg20
g23
sbsg16
I2
sg19
I01
sg20
g22
sbsg16
I3
sg19
I01
sg20
g23
sbsg19
I00
sg20
g43
sbaa(lp822
(imyEvolve
Tree
p823
(dp824
g7
(imyEvolve
Tree
p825
(dp826
g7
(imyEvolve
Tree
p827
(dp828
g7
(imyEvolve
Tree
p829
(dp830
g16
I2
sg26
(imyEvolve
Tree
p831
(dp832
g7
(imyEvolve
Tree
p833
(dp834
g16
I0
sg17
F1.0176659965399093
sg18
I01
sbsg16
I1
sg19
I01
sg20
g21
sbsg33
(imyEvolve
Tree
p835
(dp836
g7
(imyEvolve
Tree
p837
(dp838
g16
I0
sg17
F-2.1132190367885206
sg18
I01
sbsg16
I1
sg19
I01
sg20
g22
sbsg19
I00
sg20
g43
sbsg16
I3
sg19
I01
sg20
g22
sbsg16
I4
sg19
I01
sg20
g23
sbsg16
I5
sg19
I01
sg20
g89
sba(imyEvolve
Tree
p839
(dp840
g16
I4
sg26
(imyEvolve
Tree
p841
(dp842
g7
(imyEvolve
Tree
p843
(dp844
g16
I2
sg26
(imyEvolve
Tree
p845
(dp846
g16
I1
sg26
(imyEvolve
Tree
p847
(dp848
g16
I0
sg17
F2.269627337553529
sg18
I01
sbsg33
(imyEvolve
Tree
p849
(dp850
g16
I0
sg17
F-3.3718116238630893
sg18
I01
sbsg19
I00
sg20
g43
sbsg33
(imyEvolve
Tree
p851
(dp852
g7
(imyEvolve
Tree
p853
(dp854
g16
I0
sg18
I00
sbsg16
I1
sg19
I01
sg20
g23
sbsg19
I00
sg20
g43
sbsg16
I3
sg19
I01
sg20
g21
sbsg33
(imyEvolve
Tree
p855
(dp856
g7
(imyEvolve
Tree
p857
(dp858
g16
I2
sg26
(imyEvolve
Tree
p859
(dp860
g16
I1
sg26
(imyEvolve
Tree
p861
(dp862
g16
I0
sg17
F4.8740949100603075
sg18
I01
sbsg33
(imyEvolve
Tree
p863
(dp864
g16
I0
sg18
I00
sbsg19
I00
sg20
g43
sbsg33
(imyEvolve
Tree
p865
(dp866
g7
(imyEvolve
Tree
p867
(dp868
g16
I0
sg18
I00
sbsg16
I1
sg19
I01
sg20
g22
sbsg19
I00
sg20
g44
sbsg16
I3
sg19
I01
sg20
g23
sbsg19
I00
sg20
g36
sba(imyEvolve
Tree
p869
(dp870
g7
(imyEvolve
Tree
p871
(dp872
g7
(imyEvolve
Tree
p873
(dp874
g16
I2
sg26
(imyEvolve
Tree
p875
(dp876
g16
I1
sg26
(imyEvolve
Tree
p877
(dp878
g16
I0
sg18
I00
sbsg33
(imyEvolve
Tree
p879
(dp880
g16
I0
sg17
F2.94542720728582
sg18
I01
sbsg19
I00
sg20
g36
sbsg33
(imyEvolve
Tree
p881
(dp882
g16
I1
sg26
(imyEvolve
Tree
p883
(dp884
g16
I0
sg18
I00
sbsg33
(imyEvolve
Tree
p885
(dp886
g16
I0
sg17
F-0.9517429030458064
sg18
I01
sbsg19
I00
sg20
g44
sbsg19
I00
sg20
g36
sbsg16
I3
sg19
I01
sg20
g89
sbsg16
I4
sg19
I01
sg20
g89
sba(imyEvolve
Tree
p887
(dp888
g7
(imyEvolve
Tree
p889
(dp890
g7
(imyEvolve
Tree
p891
(dp892
g16
I0
sg18
I00
sbsg16
I1
sg19
I01
sg20
g22
sbsg16
I2
sg19
I01
sg20
g23
sba(imyEvolve
Tree
p893
(dp894
g16
I3
sg26
(imyEvolve
Tree
p895
(dp896
g16
I2
sg26
(imyEvolve
Tree
p897
(dp898
g16
I1
sg26
(imyEvolve
Tree
p899
(dp900
g16
I0
sg18
I00
sbsg33
(imyEvolve
Tree
p901
(dp902
g16
I0
sg17
F-3.9672254105142892
sg18
I01
sbsg19
I00
sg20
g43
sbsg33
(imyEvolve
Tree
p903
(dp904
g7
(imyEvolve
Tree
p905
(dp906
g16
I0
sg18
I00
sbsg16
I1
sg19
I01
sg20
g89
sbsg19
I00
sg20
g44
sbsg33
(imyEvolve
Tree
p907
(dp908
g16
I2
sg26
(imyEvolve
Tree
p909
(dp910
g16
I1
sg26
(imyEvolve
Tree
p911
(dp912
g16
I0
sg17
F1.504049151470519
sg18
I01
sbsg33
(imyEvolve
Tree
p913
(dp914
g16
I0
sg18
I00
sbsg19
I00
sg20
g36
sbsg33
(imyEvolve
Tree
p915
(dp916
g7
(imyEvolve
Tree
p917
(dp918
g16
I0
sg18
I00
sbsg16
I1
sg19
I01
sg20
g89
sbsg19
I00
sg20
g44
sbsg19
I00
sg20
g44
sba(imyEvolve
Tree
p919
(dp920
g16
I4
sg26
(imyEvolve
Tree
p921
(dp922
g16
I3
sg26
(imyEvolve
Tree
p923
(dp924
g7
(imyEvolve
Tree
p925
(dp926
g7
(imyEvolve
Tree
p927
(dp928
g16
I0
sg17
F-0.47476354990083625
sg18
I01
sbsg16
I1
sg19
I01
sg20
g89
sbsg16
I2
sg19
I01
sg20
g23
sbsg33
(imyEvolve
Tree
p929
(dp930
g16
I2
sg26
(imyEvolve
Tree
p931
(dp932
g16
I1
sg26
(imyEvolve
Tree
p933
(dp934
g16
I0
sg17
F1.398869140331378
sg18
I01
sbsg33
(imyEvolve
Tree
p935
(dp936
g16
I0
sg17
F-4.193216675891009
sg18
I01
sbsg19
I00
sg20
g43
sbsg33
(imyEvolve
Tree
p937
(dp938
g7
(imyEvolve
Tree
p939
(dp940
g16
I0
sg17
F-4.936663967761431
sg18
I01
sbsg16
I1
sg19
I01
sg20
g22
sbsg19
I00
sg20
g43
sbsg19
I00
sg20
g43
sbsg33
(imyEvolve
Tree
p941
(dp942
g7
(imyEvolve
Tree
p943
(dp944
g7
(imyEvolve
Tree
p945
(dp946
g7
(imyEvolve
Tree
p947
(dp948
g16
I0
sg18
I00
sbsg16
I1
sg19
I01
sg20
g89
sbsg16
I2
sg19
I01
sg20
g23
sbsg16
I3
sg19
I01
sg20
g89
sbsg19
I00
sg20
g36
sba(imyEvolve
Tree
p949
(dp950
g7
(imyEvolve
Tree
p951
(dp952
g16
I2
sg26
(imyEvolve
Tree
p953
(dp954
g7
(imyEvolve
Tree
p955
(dp956
g16
I0
sg17
F-4.595408462970391
sg18
I01
sbsg16
I1
sg19
I01
sg20
g21
sbsg33
(imyEvolve
Tree
p957
(dp958
g7
(imyEvolve
Tree
p959
(dp960
g16
I0
sg18
I00
sbsg16
I1
sg19
I01
sg20
g21
sbsg19
I00
sg20
g44
sbsg16
I3
sg19
I01
sg20
g22
sba(imyEvolve
Tree
p961
(dp962
g16
I5
sg26
(imyEvolve
Tree
p963
(dp964
g7
(imyEvolve
Tree
p965
(dp966
g7
(imyEvolve
Tree
p967
(dp968
g16
I2
sg26
(imyEvolve
Tree
p969
(dp970
g16
I1
sg26
(imyEvolve
Tree
p971
(dp972
g16
I0
sg17
F-2.8607915047992294
sg18
I01
sbsg33
(imyEvolve
Tree
p973
(dp974
g16
I0
sg18
I00
sbsg19
I00
sg20
g36
sbsg33
(imyEvolve
Tree
p975
(dp976
g16
I1
sg26
(imyEvolve
Tree
p977
(dp978
g16
I0
sg18
I00
sbsg33
(imyEvolve
Tree
p979
(dp980
g16
I0
sg17
F4.455227992123449
sg18
I01
sbsg19
I00
sg20
g36
sbsg19
I00
sg20
g43
sbsg16
I3
sg19
I01
sg20
g89
sbsg16
I4
sg19
I01
sg20
g89
sbsg33
(imyEvolve
Tree
p981
(dp982
g7
(imyEvolve
Tree
p983
(dp984
g7
(imyEvolve
Tree
p985
(dp986
g7
(imyEvolve
Tree
p987
(dp988
g16
I1
sg26
(imyEvolve
Tree
p989
(dp990
g16
I0
sg17
F-3.192644728450796
sg18
I01
sbsg33
(imyEvolve
Tree
p991
(dp992
g16
I0
sg17
F-2.185238877960675
sg18
I01
sbsg19
I00
sg20
g44
sbsg16
I2
sg19
I01
sg20
g23
sbsg16
I3
sg19
I01
sg20
g23
sbsg16
I4
sg19
I01
sg20
g22
sbsg19
I00
sg20
g43
sba(imyEvolve
Tree
p993
(dp994
g16
I3
sg26
(imyEvolve
Tree
p995
(dp996
g16
I2
sg26
(imyEvolve
Tree
p997
(dp998
g7
(imyEvolve
Tree
p999
(dp1000
g16
I0
sg18
I00
sbsg16
I1
sg19
I01
sg20
g21
sbsg33
(imyEvolve
Tree
p1001
(dp1002
g16
I1
sg26
(imyEvolve
Tree
p1003
(dp1004
g16
I0
sg18
I00
sbsg33
(imyEvolve
Tree
p1005
(dp1006
g16
I0
sg17
F4.059431518195966
sg18
I01
sbsg19
I00
sg20
g36
sbsg19
I00
sg20
g43
sbsg33
(imyEvolve
Tree
p1007
(dp1008
g16
I2
sg26
(imyEvolve
Tree
p1009
(dp1010
g7
(imyEvolve
Tree
p1011
(dp1012
g16
I0
sg18
I00
sbsg16
I1
sg19
I01
sg20
g22
sbsg33
(imyEvolve
Tree
p1013
(dp1014
g7
(imyEvolve
Tree
p1015
(dp1016
g16
I0
sg17
F-0.1440442584332846
sg18
I01
sbsg16
I1
sg19
I01
sg20
g23
sbsg19
I00
sg20
g43
sbsg19
I00
sg20
g36
sba(imyEvolve
Tree
p1017
(dp1018
g7
(imyEvolve
Tree
p1019
(dp1020
g16
I4
sg26
(imyEvolve
Tree
p1021
(dp1022
g16
I3
sg26
(imyEvolve
Tree
p1023
(dp1024
g16
I2
sg26
(imyEvolve
Tree
p1025
(dp1026
g7
(imyEvolve
Tree
p1027
(dp1028
g16
I0
sg18
I00
sbsg16
I1
sg19
I01
sg20
g21
sbsg33
(imyEvolve
Tree
p1029
(dp1030
g16
I1
sg26
(imyEvolve
Tree
p1031
(dp1032
g16
I0
sg18
I00
sbsg33
(imyEvolve
Tree
p1033
(dp1034
g16
I0
sg17
F2.147470847021613
sg18
I01
sbsg19
I00
sg20
g44
sbsg19
I00
sg20
g36
sbsg33
(imyEvolve
Tree
p1035
(dp1036
g16
I2
sg26
(imyEvolve
Tree
p1037
(dp1038
g16
I1
sg26
(imyEvolve
Tree
p1039
(dp1040
g16
I0
sg18
I00
sbsg33
(imyEvolve
Tree
p1041
(dp1042
g16
I0
sg18
I00
sbsg19
I00
sg20
g36
sbsg33
(imyEvolve
Tree
p1043
(dp1044
g7
(imyEvolve
Tree
p1045
(dp1046
g16
I0
sg18
I00
sbsg16
I1
sg19
I01
sg20
g23
sbsg19
I00
sg20
g44
sbsg19
I00
sg20
g43
sbsg33
(imyEvolve
Tree
p1047
(dp1048
g16
I3
sg26
(imyEvolve
Tree
p1049
(dp1050
g7
(imyEvolve
Tree
p1051
(dp1052
g16
I1
sg26
(imyEvolve
Tree
p1053
(dp1054
g16
I0
sg17
F-4.434134101748582
sg18
I01
sbsg33
(imyEvolve
Tree
p1055
(dp1056
g16
I0
sg17
F4.896011754435349
sg18
I01
sbsg19
I00
sg20
g36
sbsg16
I2
sg19
I01
sg20
g23
sbsg33
(imyEvolve
Tree
p1057
(dp1058
g16
I2
sg26
(imyEvolve
Tree
p1059
(dp1060
g7
(imyEvolve
Tree
p1061
(dp1062
g16
I0
sg17
F-4.004210451544322
sg18
I01
sbsg16
I1
sg19
I01
sg20
g23
sbsg33
(imyEvolve
Tree
p1063
(dp1064
g7
(imyEvolve
Tree
p1065
(dp1066
g16
I0
sg18
I00
sbsg16
I1
sg19
I01
sg20
g89
sbsg19
I00
sg20
g44
sbsg19
I00
sg20
g44
sbsg19
I00
sg20
g44
sbsg16
I5
sg19
I01
sg20
g89
sba(imyEvolve
Tree
p1067
(dp1068
g16
I4
sg26
(imyEvolve
Tree
p1069
(dp1070
g7
(imyEvolve
Tree
p1071
(dp1072
g7
(imyEvolve
Tree
p1073
(dp1074
g16
I1
sg26
(imyEvolve
Tree
p1075
(dp1076
g16
I0
sg17
F-4.467346068923352
sg18
I01
sbsg33
(imyEvolve
Tree
p1077
(dp1078
g16
I0
sg17
F-1.1923738174692309
sg18
I01
sbsg19
I00
sg20
g44
sbsg16
I2
sg19
I01
sg20
g22
sbsg16
I3
sg19
I01
sg20
g23
sbsg33
(imyEvolve
Tree
p1079
(dp1080
g7
(imyEvolve
Tree
p1081
(dp1082
g16
I2
sg26
(imyEvolve
Tree
p1083
(dp1084
g16
I1
sg26
(imyEvolve
Tree
p1085
(dp1086
g16
I0
sg17
F4.985789267498234
sg18
I01
sbsg33
(imyEvolve
Tree
p1087
(dp1088
g16
I0
sg18
I00
sbsg19
I00
sg20
g36
sbsg33
(imyEvolve
Tree
p1089
(dp1090
g16
I1
sg26
(imyEvolve
Tree
p1091
(dp1092
g16
I0
sg18
I00
sbsg33
(imyEvolve
Tree
p1093
(dp1094
g16
I0
sg18
I00
sbsg19
I00
sg20
g43
sbsg19
I00
sg20
g36
sbsg16
I3
sg19
I01
sg20
g22
sbsg19
I00
sg20
g43
sba(imyEvolve
Tree
p1095
(dp1096
g7
(imyEvolve
Tree
p1097
(dp1098
g7
(imyEvolve
Tree
p1099
(dp1100
g16
I0
sg17
F-0.8924164427306893
sg18
I01
sbsg16
I1
sg19
I01
sg20
g23
sbsg16
I2
sg19
I01
sg20
g89
sba(imyEvolve
Tree
p1101
(dp1102
g7
(imyEvolve
Tree
p1103
(dp1104
g16
I2
sg26
(imyEvolve
Tree
p1105
(dp1106
g7
(imyEvolve
Tree
p1107
(dp1108
g16
I0
sg18
I00
sbsg16
I1
sg19
I01
sg20
g22
sbsg33
(imyEvolve
Tree
p1109
(dp1110
g7
(imyEvolve
Tree
p1111
(dp1112
g16
I0
sg17
F1.625830827652809
sg18
I01
sbsg16
I1
sg19
I01
sg20
g23
sbsg19
I00
sg20
g44
sbsg16
I3
sg19
I01
sg20
g21
sba(imyEvolve
Tree
p1113
(dp1114
g7
(imyEvolve
Tree
p1115
(dp1116
g16
I1
sg26
(imyEvolve
Tree
p1117
(dp1118
g16
I0
sg18
I00
sbsg33
(imyEvolve
Tree
p1119
(dp1120
g16
I0
sg18
I00
sbsg19
I00
sg20
g36
sbsg16
I2
sg19
I01
sg20
g23
sba(imyEvolve
Tree
p1121
(dp1122
g7
(imyEvolve
Tree
p1123
(dp1124
g7
(imyEvolve
Tree
p1125
(dp1126
g16
I0
sg18
I00
sbsg16
I1
sg19
I01
sg20
g23
sbsg16
I2
sg19
I01
sg20
g23
sba(imyEvolve
Tree
p1127
(dp1128
g7
(imyEvolve
Tree
p1129
(dp1130
g16
I4
sg26
(imyEvolve
Tree
p1131
(dp1132
g16
I3
sg26
(imyEvolve
Tree
p1133
(dp1134
g16
I2
sg26
(imyEvolve
Tree
p1135
(dp1136
g7
(imyEvolve
Tree
p1137
(dp1138
g16
I0
sg17
F1.229742456418407
sg18
I01
sbsg16
I1
sg19
I01
sg20
g22
sbsg33
(imyEvolve
Tree
p1139
(dp1140
g7
(imyEvolve
Tree
p1141
(dp1142
g16
I0
sg18
I00
sbsg16
I1
sg19
I01
sg20
g22
sbsg19
I00
sg20
g43
sbsg33
(imyEvolve
Tree
p1143
(dp1144
g7
(imyEvolve
Tree
p1145
(dp1146
g16
I1
sg26
(imyEvolve
Tree
p1147
(dp1148
g16
I0
sg18
I00
sbsg33
(imyEvolve
Tree
p1149
(dp1150
g16
I0
sg18
I00
sbsg19
I00
sg20
g43
sbsg16
I2
sg19
I01
sg20
g21
sbsg19
I00
sg20
g36
sbsg33
(imyEvolve
Tree
p1151
(dp1152
g16
I3
sg26
(imyEvolve
Tree
p1153
(dp1154
g16
I2
sg26
(imyEvolve
Tree
p1155
(dp1156
g7
(imyEvolve
Tree
p1157
(dp1158
g16
I0
sg18
I00
sbsg16
I1
sg19
I01
sg20
g23
sbsg33
(imyEvolve
Tree
p1159
(dp1160
g7
(imyEvolve
Tree
p1161
(dp1162
g16
I0
sg18
I00
sbsg16
I1
sg19
I01
sg20
g22
sbsg19
I00
sg20
g36
sbsg33
(imyEvolve
Tree
p1163
(dp1164
g7
(imyEvolve
Tree
p1165
(dp1166
g16
I1
sg26
(imyEvolve
Tree
p1167
(dp1168
g16
I0
sg17
F-0.7591288882918068
sg18
I01
sbsg33
(imyEvolve
Tree
p1169
(dp1170
g16
I0
sg17
F-3.768972502934258
sg18
I01
sbsg19
I00
sg20
g44
sbsg16
I2
sg19
I01
sg20
g21
sbsg19
I00
sg20
g36
sbsg19
I00
sg20
g43
sbsg16
I5
sg19
I01
sg20
g23
sba(imyEvolve
Tree
p1171
(dp1172
g7
(imyEvolve
Tree
p1173
(dp1174
g16
I3
sg26
(imyEvolve
Tree
p1175
(dp1176
g16
I2
sg26
(imyEvolve
Tree
p1177
(dp1178
g7
(imyEvolve
Tree
p1179
(dp1180
g16
I0
sg18
I00
sbsg16
I1
sg19
I01
sg20
g21
sbsg33
(imyEvolve
Tree
p1181
(dp1182
g7
(imyEvolve
Tree
p1183
(dp1184
g16
I0
sg17
F2.1966770845462715
sg18
I01
sbsg16
I1
sg19
I01
sg20
g89
sbsg19
I00
sg20
g43
sbsg33
(imyEvolve
Tree
p1185
(dp1186
g7
(imyEvolve
Tree
p1187
(dp1188
g7
(imyEvolve
Tree
p1189
(dp1190
g16
I0
sg17
F1.858367506064205
sg18
I01
sbsg16
I1
sg19
I01
sg20
g22
sbsg16
I2
sg19
I01
sg20
g22
sbsg19
I00
sg20
g44
sbsg16
I4
sg19
I01
sg20
g21
sba(imyEvolve
Tree
p1191
(dp1192
g16
I5
sg26
(imyEvolve
Tree
p1193
(dp1194
g7
(imyEvolve
Tree
p1195
(dp1196
g7
(imyEvolve
Tree
p1197
(dp1198
g7
(imyEvolve
Tree
p1199
(dp1200
g16
I1
sg26
(imyEvolve
Tree
p1201
(dp1202
g16
I0
sg18
I00
sbsg33
(imyEvolve
Tree
p1203
(dp1204
g16
I0
sg18
I00
sbsg19
I00
sg20
g36
sbsg16
I2
sg19
I01
sg20
g21
sbsg16
I3
sg19
I01
sg20
g22
sbsg16
I4
sg19
I01
sg20
g21
sbsg33
(imyEvolve
Tree
p1205
(dp1206
g7
(imyEvolve
Tree
p1207
(dp1208
g16
I3
sg26
(imyEvolve
Tree
p1209
(dp1210
g16
I2
sg26
(imyEvolve
Tree
p1211
(dp1212
g7
(imyEvolve
Tree
p1213
(dp1214
g16
I0
sg18
I00
sbsg16
I1
sg19
I01
sg20
g89
sbsg33
(imyEvolve
Tree
p1215
(dp1216
g7
(imyEvolve
Tree
p1217
(dp1218
g16
I0
sg18
I00
sbsg16
I1
sg19
I01
sg20
g21
sbsg19
I00
sg20
g36
sbsg33
(imyEvolve
Tree
p1219
(dp1220
g7
(imyEvolve
Tree
p1221
(dp1222
g7
(imyEvolve
Tree
p1223
(dp1224
g16
I0
sg17
F1.7510547666284815
sg18
I01
sbsg16
I1
sg19
I01
sg20
g21
sbsg16
I2
sg19
I01
sg20
g89
sbsg19
I00
sg20
g44
sbsg16
I4
sg19
I01
sg20
g22
sbsg19
I00
sg20
g44
sba(imyEvolve
Tree
p1225
(dp1226
g7
(imyEvolve
Tree
p1227
(dp1228
g16
I3
sg26
(imyEvolve
Tree
p1229
(dp1230
g16
I2
sg26
(imyEvolve
Tree
p1231
(dp1232
g16
I1
sg26
(imyEvolve
Tree
p1233
(dp1234
g16
I0
sg17
F-1.7297254351023836
sg18
I01
sbsg33
(imyEvolve
Tree
p1235
(dp1236
g16
I0
sg18
I00
sbsg19
I00
sg20
g36
sbsg33
(imyEvolve
Tree
p1237
(dp1238
g16
I1
sg26
(imyEvolve
Tree
p1239
(dp1240
g16
I0
sg18
I00
sbsg33
(imyEvolve
Tree
p1241
(dp1242
g16
I0
sg17
F2.263518659661133
sg18
I01
sbsg19
I00
sg20
g44
sbsg19
I00
sg20
g43
sbsg33
(imyEvolve
Tree
p1243
(dp1244
g16
I2
sg26
(imyEvolve
Tree
p1245
(dp1246
g7
(imyEvolve
Tree
p1247
(dp1248
g16
I0
sg17
F1.3894278177055641
sg18
I01
sbsg16
I1
sg19
I01
sg20
g89
sbsg33
(imyEvolve
Tree
p1249
(dp1250
g16
I1
sg26
(imyEvolve
Tree
p1251
(dp1252
g16
I0
sg17
F0.6961510489396012
sg18
I01
sbsg33
(imyEvolve
Tree
p1253
(dp1254
g16
I0
sg17
F1.4330543559095528
sg18
I01
sbsg19
I00
sg20
g43
sbsg19
I00
sg20
g44
sbsg19
I00
sg20
g44
sbsg16
I4
sg19
I01
sg20
g23
sba(imyEvolve
Tree
p1255
(dp1256
g7
(imyEvolve
Tree
p1257
(dp1258
g16
I3
sg26
(imyEvolve
Tree
p1259
(dp1260
g7
(imyEvolve
Tree
p1261
(dp1262
g7
(imyEvolve
Tree
p1263
(dp1264
g16
I0
sg17
F1.7261615480610182
sg18
I01
sbsg16
I1
sg19
I01
sg20
g89
sbsg16
I2
sg19
I01
sg20
g22
sbsg33
(imyEvolve
Tree
p1265
(dp1266
g7
(imyEvolve
Tree
p1267
(dp1268
g16
I1
sg26
(imyEvolve
Tree
p1269
(dp1270
g16
I0
sg17
F3.7701139377024955
sg18
I01
sbsg33
(imyEvolve
Tree
p1271
(dp1272
g16
I0
sg17
F-0.8675739250034642
sg18
I01
sbsg19
I00
sg20
g44
sbsg16
I2
sg19
I01
sg20
g23
sbsg19
I00
sg20
g43
sbsg16
I4
sg19
I01
sg20
g89
sbaa(lp1273
(imyEvolve
Tree
p1274
(dp1275
g16
I2
sg26
(imyEvolve
Tree
p1276
(dp1277
g16
I1
sg26
(imyEvolve
Tree
p1278
(dp1279
g16
I0
sg18
I00
sbsg33
(imyEvolve
Tree
p1280
(dp1281
g16
I0
sg17
F-2.178675747957608
sg18
I01
sbsg19
I00
sg20
g44
sbsg33
(imyEvolve
Tree
p1282
(dp1283
g7
(imyEvolve
Tree
p1284
(dp1285
g16
I0
sg17
F-2.7533572093255367
sg18
I01
sbsg16
I1
sg19
I01
sg20
g89
sbsg19
I00
sg20
g44
sba(imyEvolve
Tree
p1286
(dp1287
g7
(imyEvolve
Tree
p1288
(dp1289
g7
(imyEvolve
Tree
p1290
(dp1291
g16
I3
sg26
(imyEvolve
Tree
p1292
(dp1293
g16
I2
sg26
(imyEvolve
Tree
p1294
(dp1295
g16
I1
sg26
(imyEvolve
Tree
p1296
(dp1297
g16
I0
sg17
F3.6919759435946187
sg18
I01
sbsg33
(imyEvolve
Tree
p1298
(dp1299
g16
I0
sg18
I00
sbsg19
I00
sg20
g36
sbsg33
(imyEvolve
Tree
p1300
(dp1301
g16
I1
sg26
(imyEvolve
Tree
p1302
(dp1303
g16
I0
sg17
F1.3818642912088759
sg18
I01
sbsg33
(imyEvolve
Tree
p1304
(dp1305
g16
I0
sg17
F-4.433441041436429
sg18
I01
sbsg19
I00
sg20
g44
sbsg19
I00
sg20
g44
sbsg33
(imyEvolve
Tree
p1306
(dp1307
g7
(imyEvolve
Tree
p1308
(dp1309
g7
(imyEvolve
Tree
p1310
(dp1311
g16
I0
sg18
I00
sbsg16
I1
sg19
I01
sg20
g23
sbsg16
I2
sg19
I01
sg20
g89
sbsg19
I00
sg20
g36
sbsg16
I4
sg19
I01
sg20
g22
sbsg16
I5
sg19
I01
sg20
g21
sba(imyEvolve
Tree
p1312
(dp1313
g16
I4
sg26
(imyEvolve
Tree
p1314
(dp1315
g16
I3
sg26
(imyEvolve
Tree
p1316
(dp1317
g7
(imyEvolve
Tree
p1318
(dp1319
g7
(imyEvolve
Tree
p1320
(dp1321
g16
I0
sg18
I00
sbsg16
I1
sg19
I01
sg20
g22
sbsg16
I2
sg19
I01
sg20
g21
sbsg33
(imyEvolve
Tree
p1322
(dp1323
g16
I2
sg26
(imyEvolve
Tree
p1324
(dp1325
g7
(imyEvolve
Tree
p1326
(dp1327
g16
I0
sg17
F2.070056944586459
sg18
I01
sbsg16
I1
sg19
I01
sg20
g21
sbsg33
(imyEvolve
Tree
p1328
(dp1329
g16
I1
sg26
(imyEvolve
Tree
p1330
(dp1331
g16
I0
sg17
F3.9329189042219017
sg18
I01
sbsg33
(imyEvolve
Tree
p1332
(dp1333
g16
I0
sg17
F-2.1362530078243704
sg18
I01
sbsg19
I00
sg20
g36
sbsg19
I00
sg20
g43
sbsg19
I00
sg20
g36
sbsg33
(imyEvolve
Tree
p1334
(dp1335
g16
I3
sg26
(imyEvolve
Tree
p1336
(dp1337
g7
(imyEvolve
Tree
p1338
(dp1339
g7
(imyEvolve
Tree
p1340
(dp1341
g16
I0
sg18
I00
sbsg16
I1
sg19
I01
sg20
g21
sbsg16
I2
sg19
I01
sg20
g89
sbsg33
(imyEvolve
Tree
p1342
(dp1343
g16
I2
sg26
(imyEvolve
Tree
p1344
(dp1345
g16
I1
sg26
(imyEvolve
Tree
p1346
(dp1347
g16
I0
sg18
I00
sbsg33
(imyEvolve
Tree
p1348
(dp1349
g16
I0
sg18
I00
sbsg19
I00
sg20
g36
sbsg33
(imyEvolve
Tree
p1350
(dp1351
g7
(imyEvolve
Tree
p1352
(dp1353
g16
I0
sg17
F-4.2529832894873465
sg18
I01
sbsg16
I1
sg19
I01
sg20
g21
sbsg19
I00
sg20
g44
sbsg19
I00
sg20
g36
sbsg19
I00
sg20
g44
sba(imyEvolve
Tree
p1354
(dp1355
g7
(imyEvolve
Tree
p1356
(dp1357
g7
(imyEvolve
Tree
p1358
(dp1359
g7
(imyEvolve
Tree
p1360
(dp1361
g16
I0
sg18
I00
sbsg16
I1
sg19
I01
sg20
g23
sbsg16
I2
sg19
I01
sg20
g23
sbsg16
I3
sg19
I01
sg20
g89
sba(imyEvolve
Tree
p1362
(dp1363
g7
(imyEvolve
Tree
p1364
(dp1365
g7
(imyEvolve
Tree
p1366
(dp1367
g16
I2
sg26
(imyEvolve
Tree
p1368
(dp1369
g16
I1
sg26
(imyEvolve
Tree
p1370
(dp1371
g16
I0
sg18
I00
sbsg33
(imyEvolve
Tree
p1372
(dp1373
g16
I0
sg18
I00
sbsg19
I00
sg20
g44
sbsg33
(imyEvolve
Tree
p1374
(dp1375
g16
I1
sg26
(imyEvolve
Tree
p1376
(dp1377
g16
I0
sg18
I00
sbsg33
(imyEvolve
Tree
p1378
(dp1379
g16
I0
sg18
I00
sbsg19
I00
sg20
g44
sbsg19
I00
sg20
g44
sbsg16
I3
sg19
I01
sg20
g89
sbsg16
I4
sg19
I01
sg20
g22
sba(imyEvolve
Tree
p1380
(dp1381
g7
(imyEvolve
Tree
p1382
(dp1383
g16
I1
sg26
(imyEvolve
Tree
p1384
(dp1385
g16
I0
sg17
F-3.3336103070957215
sg18
I01
sbsg33
(imyEvolve
Tree
p1386
(dp1387
g16
I0
sg18
I00
sbsg19
I00
sg20
g36
sbsg16
I2
sg19
I01
sg20
g21
sba(imyEvolve
Tree
p1388
(dp1389
g16
I4
sg26
(imyEvolve
Tree
p1390
(dp1391
g16
I3
sg26
(imyEvolve
Tree
p1392
(dp1393
g7
(imyEvolve
Tree
p1394
(dp1395
g16
I1
sg26
(imyEvolve
Tree
p1396
(dp1397
g16
I0
sg18
I00
sbsg33
(imyEvolve
Tree
p1398
(dp1399
g16
I0
sg17
F0.3208848869876215
sg18
I01
sbsg19
I00
sg20
g43
sbsg16
I2
sg19
I01
sg20
g22
sbsg33
(imyEvolve
Tree
p1400
(dp1401
g16
I2
sg26
(imyEvolve
Tree
p1402
(dp1403
g7
(imyEvolve
Tree
p1404
(dp1405
g16
I0
sg18
I00
sbsg16
I1
sg19
I01
sg20
g89
sbsg33
(imyEvolve
Tree
p1406
(dp1407
g7
(imyEvolve
Tree
p1408
(dp1409
g16
I0
sg18
I00
sbsg16
I1
sg19
I01
sg20
g22
sbsg19
I00
sg20
g43
sbsg19
I00
sg20
g36
sbsg33
(imyEvolve
Tree
p1410
(dp1411
g7
(imyEvolve
Tree
p1412
(dp1413
g7
(imyEvolve
Tree
p1414
(dp1415
g7
(imyEvolve
Tree
p1416
(dp1417
g16
I0
sg18
I00
sbsg16
I1
sg19
I01
sg20
g21
sbsg16
I2
sg19
I01
sg20
g21
sbsg16
I3
sg19
I01
sg20
g89
sbsg19
I00
sg20
g36
sba(imyEvolve
Tree
p1418
(dp1419
g16
I2
sg26
(imyEvolve
Tree
p1420
(dp1421
g16
I1
sg26
(imyEvolve
Tree
p1422
(dp1423
g16
I0
sg18
I00
sbsg33
(imyEvolve
Tree
p1424
(dp1425
g16
I0
sg17
F1.942977524232905
sg18
I01
sbsg19
I00
sg20
g36
sbsg33
(imyEvolve
Tree
p1426
(dp1427
g7
(imyEvolve
Tree
p1428
(dp1429
g16
I0
sg18
I00
sbsg16
I1
sg19
I01
sg20
g23
sbsg19
I00
sg20
g43
sbaasS'weightSharing'
p1430
(lp1431
I00
asS'fitnessValid'
p1432
I00
sS'fitness'
p1433
cnumpy.core.multiarray
scalar
p1434
(cnumpy
dtype
p1435
(S'f8'
p1436
I0
I1
tp1437
Rp1438
(I3
S'<'
p1439
NNNI-1
I-1
I0
tp1440
bS"\x00\xfb\xcb\xee\x9b'b?"
p1441
tp1442
Rp1443
sS'alpha'
p1444
F0.006009181424306427
sS'resolution'
p1445
I82
sb.