(imyEvolve
Individual
p0
(dp1
S'funcs'
p2
(lp3
(lp4
(imyEvolve
Tree
p5
(dp6
S'left'
p7
(imyEvolve
Tree
p8
(dp9
S'below'
p10
(imyEvolve
Tree
p11
(dp12
g10
(imyEvolve
Tree
p13
(dp14
S'depth'
p15
I0
sS'constant'
p16
F-3.844949732784144
sS'isConstant'
p17
I01
sbsg15
I1
sS'single'
p18
I01
sS'op'
p19
cmyEvolve
square
p20
sbsg15
I2
sg18
I01
sg19
g20
sbsg15
I3
sS'right'
p21
(imyEvolve
Tree
p22
(dp23
g10
(imyEvolve
Tree
p24
(dp25
g10
(imyEvolve
Tree
p26
(dp27
g15
I0
sg16
F0.9357483577926997
sg17
I01
sbsg15
I1
sg18
I01
sg19
cmyEvolve
absSqrt
p28
sbsg15
I2
sg18
I01
sg19
g28
sbsg18
I00
sg19
coperator
mul
p29
sba(imyEvolve
Tree
p30
(dp31
g10
(imyEvolve
Tree
p32
(dp33
g7
(imyEvolve
Tree
p34
(dp35
g10
(imyEvolve
Tree
p36
(dp37
g15
I0
sg16
F-0.7573524128027485
sg17
I01
sbsg15
I1
sg18
I01
sg19
cmath
sin
p38
sbsg15
I2
sg21
(imyEvolve
Tree
p39
(dp40
g7
(imyEvolve
Tree
p41
(dp42
g15
I0
sg16
F-0.4033370162106902
sg17
I01
sbsg15
I1
sg21
(imyEvolve
Tree
p43
(dp44
g15
I0
sg16
F0.9046919294210376
sg17
I01
sbsg18
I00
sg19
g29
sbsg18
I00
sg19
coperator
add
p45
sbsg15
I3
sg18
I01
sg19
g38
sba(imyEvolve
Tree
p46
(dp47
g15
I4
sg7
(imyEvolve
Tree
p48
(dp49
g10
(imyEvolve
Tree
p50
(dp51
g15
I2
sg7
(imyEvolve
Tree
p52
(dp53
g15
I1
sg7
(imyEvolve
Tree
p54
(dp55
g15
I0
sg17
I00
sbsg21
(imyEvolve
Tree
p56
(dp57
g15
I0
sg16
F-4.695460454035598
sg17
I01
sbsg18
I00
sg19
g45
sbsg21
(imyEvolve
Tree
p58
(dp59
g10
(imyEvolve
Tree
p60
(dp61
g15
I0
sg16
F3.3777886000705273
sg17
I01
sbsg15
I1
sg18
I01
sg19
g28
sbsg18
I00
sg19
coperator
sub
p62
sbsg15
I3
sg18
I01
sg19
cmath
cos
p63
sbsg21
(imyEvolve
Tree
p64
(dp65
g10
(imyEvolve
Tree
p66
(dp67
g15
I2
sg7
(imyEvolve
Tree
p68
(dp69
g10
(imyEvolve
Tree
p70
(dp71
g15
I0
sg16
F-2.796978983323093
sg17
I01
sbsg15
I1
sg18
I01
sg19
g38
sbsg21
(imyEvolve
Tree
p72
(dp73
g15
I1
sg7
(imyEvolve
Tree
p74
(dp75
g15
I0
sg17
I00
sbsg21
(imyEvolve
Tree
p76
(dp77
g15
I0
sg17
I00
sbsg18
I00
sg19
g62
sbsg18
I00
sg19
g45
sbsg15
I3
sg18
I01
sg19
g20
sbsg18
I00
sg19
g62
sba(imyEvolve
Tree
p78
(dp79
g7
(imyEvolve
Tree
p80
(dp81
g7
(imyEvolve
Tree
p82
(dp83
g10
(imyEvolve
Tree
p84
(dp85
g7
(imyEvolve
Tree
p86
(dp87
g10
(imyEvolve
Tree
p88
(dp89
g15
I0
sg16
F-1.4627284152354947
sg17
I01
sbsg15
I1
sg18
I01
sg19
g28
sbsg15
I2
sg21
(imyEvolve
Tree
p90
(dp91
g7
(imyEvolve
Tree
p92
(dp93
g15
I0
sg17
I00
sbsg15
I1
sg21
(imyEvolve
Tree
p94
(dp95
g15
I0
sg17
I00
sbsg18
I00
sg19
g29
sbsg18
I00
sg19
g29
sbsg15
I3
sg18
I01
sg19
g28
sbsg15
I4
sg21
(imyEvolve
Tree
p96
(dp97
g10
(imyEvolve
Tree
p98
(dp99
g7
(imyEvolve
Tree
p100
(dp101
g10
(imyEvolve
Tree
p102
(dp103
g15
I0
sg16
F-4.178526413143969
sg17
I01
sbsg15
I1
sg18
I01
sg19
g28
sbsg15
I2
sg21
(imyEvolve
Tree
p104
(dp105
g7
(imyEvolve
Tree
p106
(dp107
g15
I0
sg16
F-0.3947798601193728
sg17
I01
sbsg15
I1
sg21
(imyEvolve
Tree
p108
(dp109
g15
I0
sg16
F-3.688284187974149
sg17
I01
sbsg18
I00
sg19
g29
sbsg18
I00
sg19
g29
sbsg15
I3
sg18
I01
sg19
g38
sbsg18
I00
sg19
g62
sbsg15
I5
sg21
(imyEvolve
Tree
p110
(dp111
g7
(imyEvolve
Tree
p112
(dp113
g10
(imyEvolve
Tree
p114
(dp115
g7
(imyEvolve
Tree
p116
(dp117
g10
(imyEvolve
Tree
p118
(dp119
g15
I0
sg17
I00
sbsg15
I1
sg18
I01
sg19
g20
sbsg15
I2
sg21
(imyEvolve
Tree
p120
(dp121
g7
(imyEvolve
Tree
p122
(dp123
g15
I0
sg17
I00
sbsg15
I1
sg21
(imyEvolve
Tree
p124
(dp125
g15
I0
sg17
I00
sbsg18
I00
sg19
g29
sbsg18
I00
sg19
g45
sbsg15
I3
sg18
I01
sg19
g20
sbsg15
I4
sg21
(imyEvolve
Tree
p126
(dp127
g7
(imyEvolve
Tree
p128
(dp129
g10
(imyEvolve
Tree
p130
(dp131
g7
(imyEvolve
Tree
p132
(dp133
g15
I0
sg16
F3.435970457466368
sg17
I01
sbsg15
I1
sg21
(imyEvolve
Tree
p134
(dp135
g15
I0
sg16
F-1.8967526745248176
sg17
I01
sbsg18
I00
sg19
g62
sbsg15
I2
sg18
I01
sg19
g63
sbsg15
I3
sg21
(imyEvolve
Tree
p136
(dp137
g7
(imyEvolve
Tree
p138
(dp139
g7
(imyEvolve
Tree
p140
(dp141
g15
I0
sg17
I00
sbsg15
I1
sg21
(imyEvolve
Tree
p142
(dp143
g15
I0
sg17
I00
sbsg18
I00
sg19
g45
sbsg15
I2
sg21
(imyEvolve
Tree
p144
(dp145
g7
(imyEvolve
Tree
p146
(dp147
g15
I0
sg16
F-4.261280436482378
sg17
I01
sbsg15
I1
sg21
(imyEvolve
Tree
p148
(dp149
g15
I0
sg17
I00
sbsg18
I00
sg19
g45
sbsg18
I00
sg19
g29
sbsg18
I00
sg19
g62
sbsg18
I00
sg19
g45
sbsg18
I00
sg19
g62
sba(imyEvolve
Tree
p150
(dp151
g10
(imyEvolve
Tree
p152
(dp153
g7
(imyEvolve
Tree
p154
(dp155
g7
(imyEvolve
Tree
p156
(dp157
g10
(imyEvolve
Tree
p158
(dp159
g10
(imyEvolve
Tree
p160
(dp161
g15
I0
sg17
I00
sbsg15
I1
sg18
I01
sg19
g38
sbsg15
I2
sg18
I01
sg19
g28
sbsg15
I3
sg21
(imyEvolve
Tree
p162
(dp163
g7
(imyEvolve
Tree
p164
(dp165
g10
(imyEvolve
Tree
p166
(dp167
g15
I0
sg16
F1.6332381595393155
sg17
I01
sbsg15
I1
sg18
I01
sg19
g28
sbsg15
I2
sg21
(imyEvolve
Tree
p168
(dp169
g10
(imyEvolve
Tree
p170
(dp171
g15
I0
sg17
I00
sbsg15
I1
sg18
I01
sg19
g20
sbsg18
I00
sg19
g45
sbsg18
I00
sg19
g45
sbsg15
I4
sg21
(imyEvolve
Tree
p172
(dp173
g10
(imyEvolve
Tree
p174
(dp175
g7
(imyEvolve
Tree
p176
(dp177
g7
(imyEvolve
Tree
p178
(dp179
g15
I0
sg16
F4.8524345854550965
sg17
I01
sbsg15
I1
sg21
(imyEvolve
Tree
p180
(dp181
g15
I0
sg16
F0.8169634613320884
sg17
I01
sbsg18
I00
sg19
g29
sbsg15
I2
sg21
(imyEvolve
Tree
p182
(dp183
g10
(imyEvolve
Tree
p184
(dp185
g15
I0
sg17
I00
sbsg15
I1
sg18
I01
sg19
g20
sbsg18
I00
sg19
g62
sbsg15
I3
sg18
I01
sg19
g38
sbsg18
I00
sg19
g29
sbsg15
I5
sg18
I01
sg19
g20
sba(imyEvolve
Tree
p186
(dp187
g10
(imyEvolve
Tree
p188
(dp189
g7
(imyEvolve
Tree
p190
(dp191
g10
(imyEvolve
Tree
p192
(dp193
g15
I0
sg17
I00
sbsg15
I1
sg18
I01
sg19
g28
sbsg15
I2
sg21
(imyEvolve
Tree
p194
(dp195
g7
(imyEvolve
Tree
p196
(dp197
g15
I0
sg16
F-3.4731268840405005
sg17
I01
sbsg15
I1
sg21
(imyEvolve
Tree
p198
(dp199
g15
I0
sg16
F0.7724480232484101
sg17
I01
sbsg18
I00
sg19
g45
sbsg18
I00
sg19
g29
sbsg15
I3
sg18
I01
sg19
g63
sba(imyEvolve
Tree
p200
(dp201
g7
(imyEvolve
Tree
p202
(dp203
g10
(imyEvolve
Tree
p204
(dp205
g7
(imyEvolve
Tree
p206
(dp207
g10
(imyEvolve
Tree
p208
(dp209
g7
(imyEvolve
Tree
p210
(dp211
g15
I0
sg17
I00
sbsg15
I1
sg21
(imyEvolve
Tree
p212
(dp213
g15
I0
sg16
F-3.280107237908949
sg17
I01
sbsg18
I00
sg19
g45
sbsg15
I2
sg18
I01
sg19
g20
sbsg15
I3
sg21
(imyEvolve
Tree
p214
(dp215
g7
(imyEvolve
Tree
p216
(dp217
g10
(imyEvolve
Tree
p218
(dp219
g15
I0
sg17
I00
sbsg15
I1
sg18
I01
sg19
g28
sbsg15
I2
sg21
(imyEvolve
Tree
p220
(dp221
g10
(imyEvolve
Tree
p222
(dp223
g15
I0
sg17
I00
sbsg15
I1
sg18
I01
sg19
g20
sbsg18
I00
sg19
g45
sbsg18
I00
sg19
g45
sbsg15
I4
sg18
I01
sg19
g20
sbsg15
I5
sg21
(imyEvolve
Tree
p224
(dp225
g7
(imyEvolve
Tree
p226
(dp227
g7
(imyEvolve
Tree
p228
(dp229
g10
(imyEvolve
Tree
p230
(dp231
g10
(imyEvolve
Tree
p232
(dp233
g15
I0
sg16
F0.21132415384433134
sg17
I01
sbsg15
I1
sg18
I01
sg19
g28
sbsg15
I2
sg18
I01
sg19
g63
sbsg15
I3
sg21
(imyEvolve
Tree
p234
(dp235
g7
(imyEvolve
Tree
p236
(dp237
g7
(imyEvolve
Tree
p238
(dp239
g15
I0
sg17
I00
sbsg15
I1
sg21
(imyEvolve
Tree
p240
(dp241
g15
I0
sg17
I00
sbsg18
I00
sg19
g29
sbsg15
I2
sg21
(imyEvolve
Tree
p242
(dp243
g7
(imyEvolve
Tree
p244
(dp245
g15
I0
sg17
I00
sbsg15
I1
sg21
(imyEvolve
Tree
p246
(dp247
g15
I0
sg17
I00
sbsg18
I00
sg19
g29
sbsg18
I00
sg19
g45
sbsg18
I00
sg19
g45
sbsg15
I4
sg21
(imyEvolve
Tree
p248
(dp249
g10
(imyEvolve
Tree
p250
(dp251
g10
(imyEvolve
Tree
p252
(dp253
g7
(imyEvolve
Tree
p254
(dp255
g15
I0
sg17
I00
sbsg15
I1
sg21
(imyEvolve
Tree
p256
(dp257
g15
I0
sg17
I00
sbsg18
I00
sg19
g62
sbsg15
I2
sg18
I01
sg19
g63
sbsg15
I3
sg18
I01
sg19
g63
sbsg18
I00
sg19
g62
sbsg18
I00
sg19
g29
sba(imyEvolve
Tree
p258
(dp259
g10
(imyEvolve
Tree
p260
(dp261
g10
(imyEvolve
Tree
p262
(dp263
g15
I0
sg16
F0.2913606689884407
sg17
I01
sbsg15
I1
sg18
I01
sg19
g28
sbsg15
I2
sg18
I01
sg19
g63
sba(imyEvolve
Tree
p264
(dp265
g10
(imyEvolve
Tree
p266
(dp267
g10
(imyEvolve
Tree
p268
(dp269
g7
(imyEvolve
Tree
p270
(dp271
g7
(imyEvolve
Tree
p272
(dp273
g15
I0
sg16
F-2.029690646546981
sg17
I01
sbsg15
I1
sg21
(imyEvolve
Tree
p274
(dp275
g15
I0
sg16
F3.739655075523169
sg17
I01
sbsg18
I00
sg19
g45
sbsg15
I2
sg21
(imyEvolve
Tree
p276
(dp277
g7
(imyEvolve
Tree
p278
(dp279
g15
I0
sg17
I00
sbsg15
I1
sg21
(imyEvolve
Tree
p280
(dp281
g15
I0
sg17
I00
sbsg18
I00
sg19
g29
sbsg18
I00
sg19
g45
sbsg15
I3
sg18
I01
sg19
g63
sbsg15
I4
sg18
I01
sg19
g38
sba(imyEvolve
Tree
p282
(dp283
g15
I2
sg7
(imyEvolve
Tree
p284
(dp285
g10
(imyEvolve
Tree
p286
(dp287
g15
I0
sg17
I00
sbsg15
I1
sg18
I01
sg19
g38
sbsg21
(imyEvolve
Tree
p288
(dp289
g10
(imyEvolve
Tree
p290
(dp291
g15
I0
sg16
F-0.9936347007420991
sg17
I01
sbsg15
I1
sg18
I01
sg19
g63
sbsg18
I00
sg19
g45
sba(imyEvolve
Tree
p292
(dp293
g7
(imyEvolve
Tree
p294
(dp295
g7
(imyEvolve
Tree
p296
(dp297
g15
I0
sg17
I00
sbsg15
I1
sg21
(imyEvolve
Tree
p298
(dp299
g15
I0
sg17
I00
sbsg18
I00
sg19
g29
sbsg15
I2
sg21
(imyEvolve
Tree
p300
(dp301
g10
(imyEvolve
Tree
p302
(dp303
g15
I0
sg17
I00
sbsg15
I1
sg18
I01
sg19
g63
sbsg18
I00
sg19
g29
sba(imyEvolve
Tree
p304
(dp305
g15
I3
sg7
(imyEvolve
Tree
p306
(dp307
g15
I2
sg7
(imyEvolve
Tree
p308
(dp309
g15
I1
sg7
(imyEvolve
Tree
p310
(dp311
g15
I0
sg16
F-2.1315830322497598
sg17
I01
sbsg21
(imyEvolve
Tree
p312
(dp313
g15
I0
sg17
I00
sbsg18
I00
sg19
g29
sbsg21
(imyEvolve
Tree
p314
(dp315
g10
(imyEvolve
Tree
p316
(dp317
g15
I0
sg17
I00
sbsg15
I1
sg18
I01
sg19
g20
sbsg18
I00
sg19
g45
sbsg21
(imyEvolve
Tree
p318
(dp319
g15
I2
sg7
(imyEvolve
Tree
p320
(dp321
g15
I1
sg7
(imyEvolve
Tree
p322
(dp323
g15
I0
sg16
F-3.4993647094587246
sg17
I01
sbsg21
(imyEvolve
Tree
p324
(dp325
g15
I0
sg16
F-2.81128958329952
sg17
I01
sbsg18
I00
sg19
g62
sbsg21
(imyEvolve
Tree
p326
(dp327
g10
(imyEvolve
Tree
p328
(dp329
g15
I0
sg17
I00
sbsg15
I1
sg18
I01
sg19
g20
sbsg18
I00
sg19
g29
sbsg18
I00
sg19
g45
sba(imyEvolve
Tree
p330
(dp331
g10
(imyEvolve
Tree
p332
(dp333
g10
(imyEvolve
Tree
p334
(dp335
g15
I2
sg7
(imyEvolve
Tree
p336
(dp337
g10
(imyEvolve
Tree
p338
(dp339
g15
I0
sg16
F0.6158899172961476
sg17
I01
sbsg15
I1
sg18
I01
sg19
g38
sbsg21
(imyEvolve
Tree
p340
(dp341
g15
I1
sg7
(imyEvolve
Tree
p342
(dp343
g15
I0
sg16
F0.139394945785142
sg17
I01
sbsg21
(imyEvolve
Tree
p344
(dp345
g15
I0
sg16
F-4.418905306155107
sg17
I01
sbsg18
I00
sg19
g45
sbsg18
I00
sg19
g45
sbsg15
I3
sg18
I01
sg19
g38
sbsg15
I4
sg18
I01
sg19
g38
sba(imyEvolve
Tree
p346
(dp347
g7
(imyEvolve
Tree
p348
(dp349
g10
(imyEvolve
Tree
p350
(dp351
g10
(imyEvolve
Tree
p352
(dp353
g7
(imyEvolve
Tree
p354
(dp355
g15
I0
sg17
I00
sbsg15
I1
sg21
(imyEvolve
Tree
p356
(dp357
g15
I0
sg16
F-4.2658845076695435
sg17
I01
sbsg18
I00
sg19
g45
sbsg15
I2
sg18
I01
sg19
g28
sbsg15
I3
sg18
I01
sg19
g63
sbsg15
I4
sg21
(imyEvolve
Tree
p358
(dp359
g7
(imyEvolve
Tree
p360
(dp361
g7
(imyEvolve
Tree
p362
(dp363
g10
(imyEvolve
Tree
p364
(dp365
g15
I0
sg16
F-0.7151891930270349
sg17
I01
sbsg15
I1
sg18
I01
sg19
g38
sbsg15
I2
sg21
(imyEvolve
Tree
p366
(dp367
g7
(imyEvolve
Tree
p368
(dp369
g15
I0
sg17
I00
sbsg15
I1
sg21
(imyEvolve
Tree
p370
(dp371
g15
I0
sg17
I00
sbsg18
I00
sg19
g62
sbsg18
I00
sg19
g45
sbsg15
I3
sg21
(imyEvolve
Tree
p372
(dp373
g7
(imyEvolve
Tree
p374
(dp375
g7
(imyEvolve
Tree
p376
(dp377
g15
I0
sg17
I00
sbsg15
I1
sg21
(imyEvolve
Tree
p378
(dp379
g15
I0
sg17
I00
sbsg18
I00
sg19
g62
sbsg15
I2
sg21
(imyEvolve
Tree
p380
(dp381
g10
(imyEvolve
Tree
p382
(dp383
g15
I0
sg17
I00
sbsg15
I1
sg18
I01
sg19
g28
sbsg18
I00
sg19
g29
sbsg18
I00
sg19
g45
sbsg18
I00
sg19
g62
sba(imyEvolve
Tree
p384
(dp385
g15
I2
sg7
(imyEvolve
Tree
p386
(dp387
g15
I1
sg7
(imyEvolve
Tree
p388
(dp389
g15
I0
sg17
I00
sbsg21
(imyEvolve
Tree
p390
(dp391
g15
I0
sg17
I00
sbsg18
I00
sg19
g29
sbsg21
(imyEvolve
Tree
p392
(dp393
g15
I1
sg7
(imyEvolve
Tree
p394
(dp395
g15
I0
sg16
F-2.904190192009055
sg17
I01
sbsg21
(imyEvolve
Tree
p396
(dp397
g15
I0
sg16
F0.4571733746387707
sg17
I01
sbsg18
I00
sg19
g29
sbsg18
I00
sg19
g62
sba(imyEvolve
Tree
p398
(dp399
g7
(imyEvolve
Tree
p400
(dp401
g7
(imyEvolve
Tree
p402
(dp403
g15
I0
sg16
F-2.6035793568859567
sg17
I01
sbsg15
I1
sg21
(imyEvolve
Tree
p404
(dp405
g15
I0
sg17
I00
sbsg18
I00
sg19
g45
sbsg15
I2
sg21
(imyEvolve
Tree
p406
(dp407
g7
(imyEvolve
Tree
p408
(dp409
g15
I0
sg17
I00
sbsg15
I1
sg21
(imyEvolve
Tree
p410
(dp411
g15
I0
sg17
I00
sbsg18
I00
sg19
g62
sbsg18
I00
sg19
g62
sba(imyEvolve
Tree
p412
(dp413
g10
(imyEvolve
Tree
p414
(dp415
g15
I4
sg7
(imyEvolve
Tree
p416
(dp417
g10
(imyEvolve
Tree
p418
(dp419
g15
I2
sg7
(imyEvolve
Tree
p420
(dp421
g10
(imyEvolve
Tree
p422
(dp423
g15
I0
sg16
F-4.690738317575893
sg17
I01
sbsg15
I1
sg18
I01
sg19
g28
sbsg21
(imyEvolve
Tree
p424
(dp425
g15
I1
sg7
(imyEvolve
Tree
p426
(dp427
g15
I0
sg16
F-1.0850866570047235
sg17
I01
sbsg21
(imyEvolve
Tree
p428
(dp429
g15
I0
sg17
I00
sbsg18
I00
sg19
g45
sbsg18
I00
sg19
g45
sbsg15
I3
sg18
I01
sg19
g63
sbsg21
(imyEvolve
Tree
p430
(dp431
g15
I3
sg7
(imyEvolve
Tree
p432
(dp433
g15
I2
sg7
(imyEvolve
Tree
p434
(dp435
g15
I1
sg7
(imyEvolve
Tree
p436
(dp437
g15
I0
sg16
F4.633474159615689
sg17
I01
sbsg21
(imyEvolve
Tree
p438
(dp439
g15
I0
sg17
I00
sbsg18
I00
sg19
g62
sbsg21
(imyEvolve
Tree
p440
(dp441
g15
I1
sg7
(imyEvolve
Tree
p442
(dp443
g15
I0
sg16
F4.407647157367517
sg17
I01
sbsg21
(imyEvolve
Tree
p444
(dp445
g15
I0
sg16
F2.2937569250809586
sg17
I01
sbsg18
I00
sg19
g62
sbsg18
I00
sg19
g62
sbsg21
(imyEvolve
Tree
p446
(dp447
g15
I2
sg7
(imyEvolve
Tree
p448
(dp449
g10
(imyEvolve
Tree
p450
(dp451
g15
I0
sg17
I00
sbsg15
I1
sg18
I01
sg19
g20
sbsg21
(imyEvolve
Tree
p452
(dp453
g10
(imyEvolve
Tree
p454
(dp455
g15
I0
sg17
I00
sbsg15
I1
sg18
I01
sg19
g28
sbsg18
I00
sg19
g62
sbsg18
I00
sg19
g45
sbsg18
I00
sg19
g62
sbsg15
I5
sg18
I01
sg19
g28
sba(imyEvolve
Tree
p456
(dp457
g7
(imyEvolve
Tree
p458
(dp459
g7
(imyEvolve
Tree
p460
(dp461
g15
I0
sg16
F3.178338160170977
sg17
I01
sbsg15
I1
sg21
(imyEvolve
Tree
p462
(dp463
g15
I0
sg17
I00
sbsg18
I00
sg19
g62
sbsg15
I2
sg21
(imyEvolve
Tree
p464
(dp465
g7
(imyEvolve
Tree
p466
(dp467
g15
I0
sg16
F4.65916394773997
sg17
I01
sbsg15
I1
sg21
(imyEvolve
Tree
p468
(dp469
g15
I0
sg17
I00
sbsg18
I00
sg19
g45
sbsg18
I00
sg19
g29
sbaa(lp470
(imyEvolve
Tree
p471
(dp472
g15
I2
sg7
(imyEvolve
Tree
p473
(dp474
g10
(imyEvolve
Tree
p475
(dp476
g15
I0
sg17
I00
sbsg15
I1
sg18
I01
sg19
g28
sbsg21
(imyEvolve
Tree
p477
(dp478
g15
I1
sg7
(imyEvolve
Tree
p479
(dp480
g15
I0
sg16
F-1.073119488175914
sg17
I01
sbsg21
(imyEvolve
Tree
p481
(dp482
g15
I0
sg17
I00
sbsg18
I00
sg19
g29
sbsg18
I00
sg19
g45
sba(imyEvolve
Tree
p483
(dp484
g10
(imyEvolve
Tree
p485
(dp486
g7
(imyEvolve
Tree
p487
(dp488
g7
(imyEvolve
Tree
p489
(dp490
g10
(imyEvolve
Tree
p491
(dp492
g15
I0
sg17
I00
sbsg15
I1
sg18
I01
sg19
g20
sbsg15
I2
sg21
(imyEvolve
Tree
p493
(dp494
g10
(imyEvolve
Tree
p495
(dp496
g15
I0
sg17
I00
sbsg15
I1
sg18
I01
sg19
g28
sbsg18
I00
sg19
g45
sbsg15
I3
sg21
(imyEvolve
Tree
p497
(dp498
g7
(imyEvolve
Tree
p499
(dp500
g10
(imyEvolve
Tree
p501
(dp502
g15
I0
sg17
I00
sbsg15
I1
sg18
I01
sg19
g28
sbsg15
I2
sg21
(imyEvolve
Tree
p503
(dp504
g7
(imyEvolve
Tree
p505
(dp506
g15
I0
sg16
F-0.49695795130495135
sg17
I01
sbsg15
I1
sg21
(imyEvolve
Tree
p507
(dp508
g15
I0
sg17
I00
sbsg18
I00
sg19
g29
sbsg18
I00
sg19
g29
sbsg18
I00
sg19
g29
sbsg15
I4
sg18
I01
sg19
g28
sba(imyEvolve
Tree
p509
(dp510
g7
(imyEvolve
Tree
p511
(dp512
g10
(imyEvolve
Tree
p513
(dp514
g10
(imyEvolve
Tree
p515
(dp516
g10
(imyEvolve
Tree
p517
(dp518
g10
(imyEvolve
Tree
p519
(dp520
g15
I0
sg17
I00
sbsg15
I1
sg18
I01
sg19
g20
sbsg15
I2
sg18
I01
sg19
g38
sbsg15
I3
sg18
I01
sg19
g28
sbsg15
I4
sg18
I01
sg19
g28
sbsg15
I5
sg21
(imyEvolve
Tree
p521
(dp522
g10
(imyEvolve
Tree
p523
(dp524
g7
(imyEvolve
Tree
p525
(dp526
g10
(imyEvolve
Tree
p527
(dp528
g10
(imyEvolve
Tree
p529
(dp530
g15
I0
sg17
I00
sbsg15
I1
sg18
I01
sg19
g20
sbsg15
I2
sg18
I01
sg19
g63
sbsg15
I3
sg21
(imyEvolve
Tree
p531
(dp532
g10
(imyEvolve
Tree
p533
(dp534
g7
(imyEvolve
Tree
p535
(dp536
g15
I0
sg16
F0.7053577025429858
sg17
I01
sbsg15
I1
sg21
(imyEvolve
Tree
p537
(dp538
g15
I0
sg17
I00
sbsg18
I00
sg19
g62
sbsg15
I2
sg18
I01
sg19
g38
sbsg18
I00
sg19
g45
sbsg15
I4
sg18
I01
sg19
g63
sbsg18
I00
sg19
g45
sba(imyEvolve
Tree
p539
(dp540
g7
(imyEvolve
Tree
p541
(dp542
g7
(imyEvolve
Tree
p543
(dp544
g15
I0
sg16
F-3.0558260228894008
sg17
I01
sbsg15
I1
sg21
(imyEvolve
Tree
p545
(dp546
g15
I0
sg17
I00
sbsg18
I00
sg19
g45
sbsg15
I2
sg21
(imyEvolve
Tree
p547
(dp548
g7
(imyEvolve
Tree
p549
(dp550
g15
I0
sg16
F-1.4200020506221467
sg17
I01
sbsg15
I1
sg21
(imyEvolve
Tree
p551
(dp552
g15
I0
sg17
I00
sbsg18
I00
sg19
g29
sbsg18
I00
sg19
g45
sba(imyEvolve
Tree
p553
(dp554
g7
(imyEvolve
Tree
p555
(dp556
g7
(imyEvolve
Tree
p557
(dp558
g10
(imyEvolve
Tree
p559
(dp560
g10
(imyEvolve
Tree
p561
(dp562
g15
I0
sg17
I00
sbsg15
I1
sg18
I01
sg19
g38
sbsg15
I2
sg18
I01
sg19
g20
sbsg15
I3
sg21
(imyEvolve
Tree
p563
(dp564
g10
(imyEvolve
Tree
p565
(dp566
g10
(imyEvolve
Tree
p567
(dp568
g15
I0
sg16
F1.0001772943947085
sg17
I01
sbsg15
I1
sg18
I01
sg19
g38
sbsg15
I2
sg18
I01
sg19
g63
sbsg18
I00
sg19
g45
sbsg15
I4
sg21
(imyEvolve
Tree
p569
(dp570
g7
(imyEvolve
Tree
p571
(dp572
g7
(imyEvolve
Tree
p573
(dp574
g7
(imyEvolve
Tree
p575
(dp576
g15
I0
sg17
I00
sbsg15
I1
sg21
(imyEvolve
Tree
p577
(dp578
g15
I0
sg16
F-4.020805249285849
sg17
I01
sbsg18
I00
sg19
g62
sbsg15
I2
sg21
(imyEvolve
Tree
p579
(dp580
g10
(imyEvolve
Tree
p581
(dp582
g15
I0
sg16
F1.3094354558865309
sg17
I01
sbsg15
I1
sg18
I01
sg19
g28
sbsg18
I00
sg19
g62
sbsg15
I3
sg21
(imyEvolve
Tree
p583
(dp584
g10
(imyEvolve
Tree
p585
(dp586
g7
(imyEvolve
Tree
p587
(dp588
g15
I0
sg16
F-3.0168504602466117
sg17
I01
sbsg15
I1
sg21
(imyEvolve
Tree
p589
(dp590
g15
I0
sg16
F0.044594014025860496
sg17
I01
sbsg18
I00
sg19
g29
sbsg15
I2
sg18
I01
sg19
g20
sbsg18
I00
sg19
g29
sbsg18
I00
sg19
g29
sba(imyEvolve
Tree
p591
(dp592
g10
(imyEvolve
Tree
p593
(dp594
g15
I4
sg7
(imyEvolve
Tree
p595
(dp596
g15
I3
sg7
(imyEvolve
Tree
p597
(dp598
g10
(imyEvolve
Tree
p599
(dp600
g10
(imyEvolve
Tree
p601
(dp602
g15
I0
sg16
F4.037253070762679
sg17
I01
sbsg15
I1
sg18
I01
sg19
g38
sbsg15
I2
sg18
I01
sg19
g20
sbsg21
(imyEvolve
Tree
p603
(dp604
g15
I2
sg7
(imyEvolve
Tree
p605
(dp606
g10
(imyEvolve
Tree
p607
(dp608
g15
I0
sg17
I00
sbsg15
I1
sg18
I01
sg19
g28
sbsg21
(imyEvolve
Tree
p609
(dp610
g15
I1
sg7
(imyEvolve
Tree
p611
(dp612
g15
I0
sg17
I00
sbsg21
(imyEvolve
Tree
p613
(dp614
g15
I0
sg16
F-2.412584680577581
sg17
I01
sbsg18
I00
sg19
g45
sbsg18
I00
sg19
g45
sbsg18
I00
sg19
g62
sbsg21
(imyEvolve
Tree
p615
(dp616
g15
I3
sg7
(imyEvolve
Tree
p617
(dp618
g15
I2
sg7
(imyEvolve
Tree
p619
(dp620
g15
I1
sg7
(imyEvolve
Tree
p621
(dp622
g15
I0
sg16
F-3.760090932353044
sg17
I01
sbsg21
(imyEvolve
Tree
p623
(dp624
g15
I0
sg17
I00
sbsg18
I00
sg19
g29
sbsg21
(imyEvolve
Tree
p625
(dp626
g15
I1
sg7
(imyEvolve
Tree
p627
(dp628
g15
I0
sg16
F-0.7042594874490202
sg17
I01
sbsg21
(imyEvolve
Tree
p629
(dp630
g15
I0
sg16
F1.3617362683683023
sg17
I01
sbsg18
I00
sg19
g62
sbsg18
I00
sg19
g62
sbsg21
(imyEvolve
Tree
p631
(dp632
g10
(imyEvolve
Tree
p633
(dp634
g15
I1
sg7
(imyEvolve
Tree
p635
(dp636
g15
I0
sg16
F1.9455340724637917
sg17
I01
sbsg21
(imyEvolve
Tree
p637
(dp638
g15
I0
sg17
I00
sbsg18
I00
sg19
g62
sbsg15
I2
sg18
I01
sg19
g63
sbsg18
I00
sg19
g45
sbsg18
I00
sg19
g62
sbsg15
I5
sg18
I01
sg19
g63
sba(imyEvolve
Tree
p639
(dp640
g7
(imyEvolve
Tree
p641
(dp642
g10
(imyEvolve
Tree
p643
(dp644
g15
I0
sg16
F-1.8765376310571802
sg17
I01
sbsg15
I1
sg18
I01
sg19
g63
sbsg15
I2
sg21
(imyEvolve
Tree
p645
(dp646
g7
(imyEvolve
Tree
p647
(dp648
g15
I0
sg16
F-4.3464385475649445
sg17
I01
sbsg15
I1
sg21
(imyEvolve
Tree
p649
(dp650
g15
I0
sg16
F-2.5143004447572515
sg17
I01
sbsg18
I00
sg19
g45
sbsg18
I00
sg19
g29
sba(imyEvolve
Tree
p651
(dp652
g10
(imyEvolve
Tree
p653
(dp654
g10
(imyEvolve
Tree
p655
(dp656
g7
(imyEvolve
Tree
p657
(dp658
g10
(imyEvolve
Tree
p659
(dp660
g7
(imyEvolve
Tree
p661
(dp662
g15
I0
sg16
F4.724329071510255
sg17
I01
sbsg15
I1
sg21
(imyEvolve
Tree
p663
(dp664
g15
I0
sg17
I00
sbsg18
I00
sg19
g29
sbsg15
I2
sg18
I01
sg19
g20
sbsg15
I3
sg21
(imyEvolve
Tree
p665
(dp666
g7
(imyEvolve
Tree
p667
(dp668
g10
(imyEvolve
Tree
p669
(dp670
g15
I0
sg16
F3.1712726919715237
sg17
I01
sbsg15
I1
sg18
I01
sg19
g20
sbsg15
I2
sg21
(imyEvolve
Tree
p671
(dp672
g10
(imyEvolve
Tree
p673
(dp674
g15
I0
sg16
F-2.4378044028652592
sg17
I01
sbsg15
I1
sg18
I01
sg19
g20
sbsg18
I00
sg19
g62
sbsg18
I00
sg19
g62
sbsg15
I4
sg18
I01
sg19
g38
sbsg15
I5
sg18
I01
sg19
g28
sba(imyEvolve
Tree
p675
(dp676
g15
I4
sg7
(imyEvolve
Tree
p677
(dp678
g15
I3
sg7
(imyEvolve
Tree
p679
(dp680
g10
(imyEvolve
Tree
p681
(dp682
g15
I1
sg7
(imyEvolve
Tree
p683
(dp684
g15
I0
sg16
F-4.684271144896614
sg17
I01
sbsg21
(imyEvolve
Tree
p685
(dp686
g15
I0
sg16
F-2.4588055667938367
sg17
I01
sbsg18
I00
sg19
g62
sbsg15
I2
sg18
I01
sg19
g38
sbsg21
(imyEvolve
Tree
p687
(dp688
g15
I2
sg7
(imyEvolve
Tree
p689
(dp690
g10
(imyEvolve
Tree
p691
(dp692
g15
I0
sg16
F2.793666309745171
sg17
I01
sbsg15
I1
sg18
I01
sg19
g63
sbsg21
(imyEvolve
Tree
p693
(dp694
g10
(imyEvolve
Tree
p695
(dp696
g15
I0
sg17
I00
sbsg15
I1
sg18
I01
sg19
g63
sbsg18
I00
sg19
g29
sbsg18
I00
sg19
g45
sbsg21
(imyEvolve
Tree
p697
(dp698
g15
I3
sg7
(imyEvolve
Tree
p699
(dp700
g10
(imyEvolve
Tree
p701
(dp702
g10
(imyEvolve
Tree
p703
(dp704
g15
I0
sg16
F-2.5469196614744694
sg17
I01
sbsg15
I1
sg18
I01
sg19
g63
sbsg15
I2
sg18
I01
sg19
g38
sbsg21
(imyEvolve
Tree
p705
(dp706
g10
(imyEvolve
Tree
p707
(dp708
g15
I1
sg7
(imyEvolve
Tree
p709
(dp710
g15
I0
sg16
F-1.4812961603921861
sg17
I01
sbsg21
(imyEvolve
Tree
p711
(dp712
g15
I0
sg17
I00
sbsg18
I00
sg19
g45
sbsg15
I2
sg18
I01
sg19
g28
sbsg18
I00
sg19
g29
sbsg18
I00
sg19
g29
sba(imyEvolve
Tree
p713
(dp714
g7
(imyEvolve
Tree
p715
(dp716
g7
(imyEvolve
Tree
p717
(dp718
g10
(imyEvolve
Tree
p719
(dp720
g10
(imyEvolve
Tree
p721
(dp722
g15
I0
sg16
F2.493071552530779
sg17
I01
sbsg15
I1
sg18
I01
sg19
g20
sbsg15
I2
sg18
I01
sg19
g28
sbsg15
I3
sg21
(imyEvolve
Tree
p723
(dp724
g10
(imyEvolve
Tree
p725
(dp726
g7
(imyEvolve
Tree
p727
(dp728
g15
I0
sg16
F-1.9688625640355184
sg17
I01
sbsg15
I1
sg21
(imyEvolve
Tree
p729
(dp730
g15
I0
sg16
F0.8183637529579553
sg17
I01
sbsg18
I00
sg19
g62
sbsg15
I2
sg18
I01
sg19
g28
sbsg18
I00
sg19
g45
sbsg15
I4
sg21
(imyEvolve
Tree
p731
(dp732
g7
(imyEvolve
Tree
p733
(dp734
g10
(imyEvolve
Tree
p735
(dp736
g7
(imyEvolve
Tree
p737
(dp738
g15
I0
sg16
F-2.2051375433970644
sg17
I01
sbsg15
I1
sg21
(imyEvolve
Tree
p739
(dp740
g15
I0
sg17
I00
sbsg18
I00
sg19
g45
sbsg15
I2
sg18
I01
sg19
g63
sbsg15
I3
sg21
(imyEvolve
Tree
p741
(dp742
g7
(imyEvolve
Tree
p743
(dp744
g7
(imyEvolve
Tree
p745
(dp746
g15
I0
sg16
F2.904198862706444
sg17
I01
sbsg15
I1
sg21
(imyEvolve
Tree
p747
(dp748
g15
I0
sg17
I00
sbsg18
I00
sg19
g45
sbsg15
I2
sg21
(imyEvolve
Tree
p749
(dp750
g7
(imyEvolve
Tree
p751
(dp752
g15
I0
sg17
I00
sbsg15
I1
sg21
(imyEvolve
Tree
p753
(dp754
g15
I0
sg17
I00
sbsg18
I00
sg19
g45
sbsg18
I00
sg19
g29
sbsg18
I00
sg19
g29
sbsg18
I00
sg19
g62
sba(imyEvolve
Tree
p755
(dp756
g15
I2
sg7
(imyEvolve
Tree
p757
(dp758
g10
(imyEvolve
Tree
p759
(dp760
g15
I0
sg16
F0.6948345009949666
sg17
I01
sbsg15
I1
sg18
I01
sg19
g28
sbsg21
(imyEvolve
Tree
p761
(dp762
g15
I1
sg7
(imyEvolve
Tree
p763
(dp764
g15
I0
sg16
F-4.327373441309224
sg17
I01
sbsg21
(imyEvolve
Tree
p765
(dp766
g15
I0
sg17
I00
sbsg18
I00
sg19
g62
sbsg18
I00
sg19
g62
sba(imyEvolve
Tree
p767
(dp768
g10
(imyEvolve
Tree
p769
(dp770
g15
I2
sg7
(imyEvolve
Tree
p771
(dp772
g15
I1
sg7
(imyEvolve
Tree
p773
(dp774
g15
I0
sg16
F4.82606805199425
sg17
I01
sbsg21
(imyEvolve
Tree
p775
(dp776
g15
I0
sg16
F-3.57181460229964
sg17
I01
sbsg18
I00
sg19
g62
sbsg21
(imyEvolve
Tree
p777
(dp778
g15
I1
sg7
(imyEvolve
Tree
p779
(dp780
g15
I0
sg16
F2.0425486156999497
sg17
I01
sbsg21
(imyEvolve
Tree
p781
(dp782
g15
I0
sg17
I00
sbsg18
I00
sg19
g45
sbsg18
I00
sg19
g45
sbsg15
I3
sg18
I01
sg19
g20
sba(imyEvolve
Tree
p783
(dp784
g15
I2
sg7
(imyEvolve
Tree
p785
(dp786
g10
(imyEvolve
Tree
p787
(dp788
g15
I0
sg16
F-2.4375735621666927
sg17
I01
sbsg15
I1
sg18
I01
sg19
g63
sbsg21
(imyEvolve
Tree
p789
(dp790
g10
(imyEvolve
Tree
p791
(dp792
g15
I0
sg16
F2.376151123086264
sg17
I01
sbsg15
I1
sg18
I01
sg19
g38
sbsg18
I00
sg19
g45
sba(imyEvolve
Tree
p793
(dp794
g10
(imyEvolve
Tree
p795
(dp796
g10
(imyEvolve
Tree
p797
(dp798
g10
(imyEvolve
Tree
p799
(dp800
g10
(imyEvolve
Tree
p801
(dp802
g15
I1
sg7
(imyEvolve
Tree
p803
(dp804
g15
I0
sg16
F3.9877166373637216
sg17
I01
sbsg21
(imyEvolve
Tree
p805
(dp806
g15
I0
sg16
F-1.5932337825980625
sg17
I01
sbsg18
I00
sg19
g45
sbsg15
I2
sg18
I01
sg19
g20
sbsg15
I3
sg18
I01
sg19
g38
sbsg15
I4
sg18
I01
sg19
g63
sbsg15
I5
sg18
I01
sg19
g38
sba(imyEvolve
Tree
p807
(dp808
g7
(imyEvolve
Tree
p809
(dp810
g7
(imyEvolve
Tree
p811
(dp812
g7
(imyEvolve
Tree
p813
(dp814
g15
I0
sg17
I00
sbsg15
I1
sg21
(imyEvolve
Tree
p815
(dp816
g15
I0
sg17
I00
sbsg18
I00
sg19
g62
sbsg15
I2
sg21
(imyEvolve
Tree
p817
(dp818
g10
(imyEvolve
Tree
p819
(dp820
g15
I0
sg16
F-4.895568681079007
sg17
I01
sbsg15
I1
sg18
I01
sg19
g38
sbsg18
I00
sg19
g62
sbsg15
I3
sg21
(imyEvolve
Tree
p821
(dp822
g7
(imyEvolve
Tree
p823
(dp824
g10
(imyEvolve
Tree
p825
(dp826
g15
I0
sg17
I00
sbsg15
I1
sg18
I01
sg19
g28
sbsg15
I2
sg21
(imyEvolve
Tree
p827
(dp828
g10
(imyEvolve
Tree
p829
(dp830
g15
I0
sg17
I00
sbsg15
I1
sg18
I01
sg19
g20
sbsg18
I00
sg19
g29
sbsg18
I00
sg19
g62
sba(imyEvolve
Tree
p831
(dp832
g7
(imyEvolve
Tree
p833
(dp834
g10
(imyEvolve
Tree
p835
(dp836
g15
I0
sg17
I00
sbsg15
I1
sg18
I01
sg19
g20
sbsg15
I2
sg21
(imyEvolve
Tree
p837
(dp838
g10
(imyEvolve
Tree
p839
(dp840
g15
I0
sg16
F4.337476903860351
sg17
I01
sbsg15
I1
sg18
I01
sg19
g38
sbsg18
I00
sg19
g29
sba(imyEvolve
Tree
p841
(dp842
g10
(imyEvolve
Tree
p843
(dp844
g7
(imyEvolve
Tree
p845
(dp846
g7
(imyEvolve
Tree
p847
(dp848
g15
I0
sg17
I00
sbsg15
I1
sg21
(imyEvolve
Tree
p849
(dp850
g15
I0
sg17
I00
sbsg18
I00
sg19
g62
sbsg15
I2
sg21
(imyEvolve
Tree
p851
(dp852
g10
(imyEvolve
Tree
p853
(dp854
g15
I0
sg16
F-4.706496241494607
sg17
I01
sbsg15
I1
sg18
I01
sg19
g20
sbsg18
I00
sg19
g45
sbsg15
I3
sg18
I01
sg19
g20
sba(imyEvolve
Tree
p855
(dp856
g7
(imyEvolve
Tree
p857
(dp858
g10
(imyEvolve
Tree
p859
(dp860
g7
(imyEvolve
Tree
p861
(dp862
g7
(imyEvolve
Tree
p863
(dp864
g10
(imyEvolve
Tree
p865
(dp866
g15
I0
sg17
I00
sbsg15
I1
sg18
I01
sg19
g20
sbsg15
I2
sg21
(imyEvolve
Tree
p867
(dp868
g10
(imyEvolve
Tree
p869
(dp870
g15
I0
sg17
I00
sbsg15
I1
sg18
I01
sg19
g38
sbsg18
I00
sg19
g29
sbsg15
I3
sg21
(imyEvolve
Tree
p871
(dp872
g7
(imyEvolve
Tree
p873
(dp874
g10
(imyEvolve
Tree
p875
(dp876
g15
I0
sg17
I00
sbsg15
I1
sg18
I01
sg19
g38
sbsg15
I2
sg21
(imyEvolve
Tree
p877
(dp878
g7
(imyEvolve
Tree
p879
(dp880
g15
I0
sg16
F-4.378350185480336
sg17
I01
sbsg15
I1
sg21
(imyEvolve
Tree
p881
(dp882
g15
I0
sg17
I00
sbsg18
I00
sg19
g62
sbsg18
I00
sg19
g29
sbsg18
I00
sg19
g45
sbsg15
I4
sg18
I01
sg19
g38
sbsg15
I5
sg21
(imyEvolve
Tree
p883
(dp884
g10
(imyEvolve
Tree
p885
(dp886
g10
(imyEvolve
Tree
p887
(dp888
g10
(imyEvolve
Tree
p889
(dp890
g7
(imyEvolve
Tree
p891
(dp892
g15
I0
sg16
F-4.466750014225425
sg17
I01
sbsg15
I1
sg21
(imyEvolve
Tree
p893
(dp894
g15
I0
sg16
F0.9530944139931474
sg17
I01
sbsg18
I00
sg19
g29
sbsg15
I2
sg18
I01
sg19
g28
sbsg15
I3
sg18
I01
sg19
g28
sbsg15
I4
sg18
I01
sg19
g28
sbsg18
I00
sg19
g62
sba(imyEvolve
Tree
p895
(dp896
g15
I5
sg7
(imyEvolve
Tree
p897
(dp898
g15
I4
sg7
(imyEvolve
Tree
p899
(dp900
g10
(imyEvolve
Tree
p901
(dp902
g10
(imyEvolve
Tree
p903
(dp904
g15
I1
sg7
(imyEvolve
Tree
p905
(dp906
g15
I0
sg17
I00
sbsg21
(imyEvolve
Tree
p907
(dp908
g15
I0
sg17
I00
sbsg18
I00
sg19
g45
sbsg15
I2
sg18
I01
sg19
g28
sbsg15
I3
sg18
I01
sg19
g38
sbsg21
(imyEvolve
Tree
p909
(dp910
g15
I3
sg7
(imyEvolve
Tree
p911
(dp912
g10
(imyEvolve
Tree
p913
(dp914
g10
(imyEvolve
Tree
p915
(dp916
g15
I0
sg17
I00
sbsg15
I1
sg18
I01
sg19
g63
sbsg15
I2
sg18
I01
sg19
g63
sbsg21
(imyEvolve
Tree
p917
(dp918
g15
I2
sg7
(imyEvolve
Tree
p919
(dp920
g10
(imyEvolve
Tree
p921
(dp922
g15
I0
sg16
F-4.562702893433974
sg17
I01
sbsg15
I1
sg18
I01
sg19
g38
sbsg21
(imyEvolve
Tree
p923
(dp924
g10
(imyEvolve
Tree
p925
(dp926
g15
I0
sg16
F4.977142055925064
sg17
I01
sbsg15
I1
sg18
I01
sg19
g63
sbsg18
I00
sg19
g29
sbsg18
I00
sg19
g29
sbsg18
I00
sg19
g29
sbsg21
(imyEvolve
Tree
p927
(dp928
g15
I4
sg7
(imyEvolve
Tree
p929
(dp930
g15
I3
sg7
(imyEvolve
Tree
p931
(dp932
g15
I2
sg7
(imyEvolve
Tree
p933
(dp934
g15
I1
sg7
(imyEvolve
Tree
p935
(dp936
g15
I0
sg16
F-4.5021464159158056
sg17
I01
sbsg21
(imyEvolve
Tree
p937
(dp938
g15
I0
sg16
F0.5959540187296
sg17
I01
sbsg18
I00
sg19
g45
sbsg21
(imyEvolve
Tree
p939
(dp940
g10
(imyEvolve
Tree
p941
(dp942
g15
I0
sg16
F-0.33936457943226017
sg17
I01
sbsg15
I1
sg18
I01
sg19
g20
sbsg18
I00
sg19
g29
sbsg21
(imyEvolve
Tree
p943
(dp944
g10
(imyEvolve
Tree
p945
(dp946
g15
I1
sg7
(imyEvolve
Tree
p947
(dp948
g15
I0
sg16
F4.503971460718434
sg17
I01
sbsg21
(imyEvolve
Tree
p949
(dp950
g15
I0
sg16
F-4.2324843056469765
sg17
I01
sbsg18
I00
sg19
g62
sbsg15
I2
sg18
I01
sg19
g28
sbsg18
I00
sg19
g62
sbsg21
(imyEvolve
Tree
p951
(dp952
g15
I3
sg7
(imyEvolve
Tree
p953
(dp954
g15
I2
sg7
(imyEvolve
Tree
p955
(dp956
g10
(imyEvolve
Tree
p957
(dp958
g15
I0
sg16
F-2.162988742269004
sg17
I01
sbsg15
I1
sg18
I01
sg19
g38
sbsg21
(imyEvolve
Tree
p959
(dp960
g10
(imyEvolve
Tree
p961
(dp962
g15
I0
sg16
F-0.19652732946913165
sg17
I01
sbsg15
I1
sg18
I01
sg19
g20
sbsg18
I00
sg19
g45
sbsg21
(imyEvolve
Tree
p963
(dp964
g10
(imyEvolve
Tree
p965
(dp966
g10
(imyEvolve
Tree
p967
(dp968
g15
I0
sg16
F-0.2688286345625448
sg17
I01
sbsg15
I1
sg18
I01
sg19
g63
sbsg15
I2
sg18
I01
sg19
g28
sbsg18
I00
sg19
g62
sbsg18
I00
sg19
g62
sbsg18
I00
sg19
g45
sba(imyEvolve
Tree
p969
(dp970
g15
I2
sg7
(imyEvolve
Tree
p971
(dp972
g10
(imyEvolve
Tree
p973
(dp974
g15
I0
sg17
I00
sbsg15
I1
sg18
I01
sg19
g38
sbsg21
(imyEvolve
Tree
p975
(dp976
g10
(imyEvolve
Tree
p977
(dp978
g15
I0
sg16
F3.6506842300809854
sg17
I01
sbsg15
I1
sg18
I01
sg19
g38
sbsg18
I00
sg19
g29
sbaasS'alpha'
p979
F0.0025506773862888268
sS'fitness'
p980
cnumpy.core.multiarray
scalar
p981
(cnumpy
dtype
p982
(S'f8'
p983
I0
I1
tp984
Rp985
(I3
S'<'
p986
NNNI-1
I-1
I0
tp987
bS'#\xdb\xf91\xd8\x1e\xe6?'
p988
tp989
Rp990
sS'weightSharing'
p991
(lp992
I00
asS'fitnessValid'
p993
I00
sS'resolution'
p994
I78
sb.