(imyEvolve
Individual
p0
(dp1
S'funcs'
p2
(lp3
(lp4
(imyEvolve
Tree
p5
(dp6
S'below'
p7
(imyEvolve
Tree
p8
(dp9
g7
(imyEvolve
Tree
p10
(dp11
g7
(imyEvolve
Tree
p12
(dp13
S'left'
p14
(imyEvolve
Tree
p15
(dp16
g14
(imyEvolve
Tree
p17
(dp18
S'depth'
p19
I0
sS'isConstant'
p20
I00
sbsg19
I1
sS'right'
p21
(imyEvolve
Tree
p22
(dp23
g19
I0
sS'constant'
p24
F3.984427907563571
sg20
I01
sbsS'single'
p25
I00
sS'op'
p26
coperator
sub
p27
sbsg19
I2
sg21
(imyEvolve
Tree
p28
(dp29
g14
(imyEvolve
Tree
p30
(dp31
g19
I0
sg20
I00
sbsg19
I1
sg21
(imyEvolve
Tree
p32
(dp33
g19
I0
sg20
I00
sbsg25
I00
sg26
coperator
mul
p34
sbsg25
I00
sg26
coperator
add
p35
sbsg19
I3
sg25
I01
sg26
cmyEvolve
absSqrt
p36
sbsg19
I4
sg25
I01
sg26
cmath
cos
p37
sbsg19
I5
sg25
I01
sg26
cmyEvolve
square
p38
sba(imyEvolve
Tree
p39
(dp40
g7
(imyEvolve
Tree
p41
(dp42
g14
(imyEvolve
Tree
p43
(dp44
g14
(imyEvolve
Tree
p45
(dp46
g14
(imyEvolve
Tree
p47
(dp48
g19
I0
sg24
F-1.5787364402262218
sg20
I01
sbsg19
I1
sg21
(imyEvolve
Tree
p49
(dp50
g19
I0
sg20
I00
sbsg25
I00
sg26
g35
sbsg19
I2
sg21
(imyEvolve
Tree
p51
(dp52
g14
(imyEvolve
Tree
p53
(dp54
g19
I0
sg20
I00
sbsg19
I1
sg21
(imyEvolve
Tree
p55
(dp56
g19
I0
sg20
I00
sbsg25
I00
sg26
g35
sbsg25
I00
sg26
g35
sbsg19
I3
sg21
(imyEvolve
Tree
p57
(dp58
g14
(imyEvolve
Tree
p59
(dp60
g14
(imyEvolve
Tree
p61
(dp62
g19
I0
sg20
I00
sbsg19
I1
sg21
(imyEvolve
Tree
p63
(dp64
g19
I0
sg24
F-4.071317450982369
sg20
I01
sbsg25
I00
sg26
g35
sbsg19
I2
sg21
(imyEvolve
Tree
p65
(dp66
g14
(imyEvolve
Tree
p67
(dp68
g19
I0
sg24
F-3.595530767154006
sg20
I01
sbsg19
I1
sg21
(imyEvolve
Tree
p69
(dp70
g19
I0
sg24
F1.584900337646033
sg20
I01
sbsg25
I00
sg26
g35
sbsg25
I00
sg26
g27
sbsg25
I00
sg26
g34
sbsg19
I4
sg25
I01
sg26
g38
sba(imyEvolve
Tree
p71
(dp72
g19
I2
sg14
(imyEvolve
Tree
p73
(dp74
g19
I1
sg14
(imyEvolve
Tree
p75
(dp76
g19
I0
sg20
I00
sbsg21
(imyEvolve
Tree
p77
(dp78
g19
I0
sg20
I00
sbsg25
I00
sg26
g34
sbsg21
(imyEvolve
Tree
p79
(dp80
g7
(imyEvolve
Tree
p81
(dp82
g19
I0
sg24
F-4.408749752240787
sg20
I01
sbsg19
I1
sg25
I01
sg26
g36
sbsg25
I00
sg26
g35
sba(imyEvolve
Tree
p83
(dp84
g19
I3
sg14
(imyEvolve
Tree
p85
(dp86
g7
(imyEvolve
Tree
p87
(dp88
g7
(imyEvolve
Tree
p89
(dp90
g19
I0
sg24
F2.0982504127652426
sg20
I01
sbsg19
I1
sg25
I01
sg26
g38
sbsg19
I2
sg25
I01
sg26
cmath
sin
p91
sbsg21
(imyEvolve
Tree
p92
(dp93
g7
(imyEvolve
Tree
p94
(dp95
g19
I1
sg14
(imyEvolve
Tree
p96
(dp97
g19
I0
sg24
F4.002409640137097
sg20
I01
sbsg21
(imyEvolve
Tree
p98
(dp99
g19
I0
sg24
F-3.548787480019583
sg20
I01
sbsg25
I00
sg26
g27
sbsg19
I2
sg25
I01
sg26
g36
sbsg25
I00
sg26
g35
sba(imyEvolve
Tree
p100
(dp101
g14
(imyEvolve
Tree
p102
(dp103
g7
(imyEvolve
Tree
p104
(dp105
g14
(imyEvolve
Tree
p106
(dp107
g7
(imyEvolve
Tree
p108
(dp109
g14
(imyEvolve
Tree
p110
(dp111
g19
I0
sg24
F4.0396433389151944
sg20
I01
sbsg19
I1
sg21
(imyEvolve
Tree
p112
(dp113
g19
I0
sg20
I00
sbsg25
I00
sg26
g27
sbsg19
I2
sg25
I01
sg26
g36
sbsg19
I3
sg21
(imyEvolve
Tree
p114
(dp115
g7
(imyEvolve
Tree
p116
(dp117
g7
(imyEvolve
Tree
p118
(dp119
g19
I0
sg20
I00
sbsg19
I1
sg25
I01
sg26
g36
sbsg19
I2
sg25
I01
sg26
g37
sbsg25
I00
sg26
g27
sbsg19
I4
sg25
I01
sg26
g38
sbsg19
I5
sg21
(imyEvolve
Tree
p120
(dp121
g14
(imyEvolve
Tree
p122
(dp123
g7
(imyEvolve
Tree
p124
(dp125
g14
(imyEvolve
Tree
p126
(dp127
g7
(imyEvolve
Tree
p128
(dp129
g19
I0
sg20
I00
sbsg19
I1
sg25
I01
sg26
g37
sbsg19
I2
sg21
(imyEvolve
Tree
p130
(dp131
g14
(imyEvolve
Tree
p132
(dp133
g19
I0
sg24
F3.170171351217242
sg20
I01
sbsg19
I1
sg21
(imyEvolve
Tree
p134
(dp135
g19
I0
sg24
F-4.363646497794421
sg20
I01
sbsg25
I00
sg26
g27
sbsg25
I00
sg26
g27
sbsg19
I3
sg25
I01
sg26
g38
sbsg19
I4
sg21
(imyEvolve
Tree
p136
(dp137
g14
(imyEvolve
Tree
p138
(dp139
g7
(imyEvolve
Tree
p140
(dp141
g7
(imyEvolve
Tree
p142
(dp143
g19
I0
sg24
F1.967929402358985
sg20
I01
sbsg19
I1
sg25
I01
sg26
g91
sbsg19
I2
sg25
I01
sg26
g38
sbsg19
I3
sg21
(imyEvolve
Tree
p144
(dp145
g7
(imyEvolve
Tree
p146
(dp147
g7
(imyEvolve
Tree
p148
(dp149
g19
I0
sg20
I00
sbsg19
I1
sg25
I01
sg26
g38
sbsg19
I2
sg25
I01
sg26
g91
sbsg25
I00
sg26
g34
sbsg25
I00
sg26
g27
sbsg25
I00
sg26
g35
sba(imyEvolve
Tree
p150
(dp151
g7
(imyEvolve
Tree
p152
(dp153
g7
(imyEvolve
Tree
p154
(dp155
g14
(imyEvolve
Tree
p156
(dp157
g7
(imyEvolve
Tree
p158
(dp159
g7
(imyEvolve
Tree
p160
(dp161
g19
I0
sg20
I00
sbsg19
I1
sg25
I01
sg26
g91
sbsg19
I2
sg25
I01
sg26
g91
sbsg19
I3
sg21
(imyEvolve
Tree
p162
(dp163
g7
(imyEvolve
Tree
p164
(dp165
g14
(imyEvolve
Tree
p166
(dp167
g19
I0
sg24
F-1.1861224669500436
sg20
I01
sbsg19
I1
sg21
(imyEvolve
Tree
p168
(dp169
g19
I0
sg20
I00
sbsg25
I00
sg26
g35
sbsg19
I2
sg25
I01
sg26
g91
sbsg25
I00
sg26
g34
sbsg19
I4
sg25
I01
sg26
g38
sbsg19
I5
sg25
I01
sg26
g38
sba(imyEvolve
Tree
p170
(dp171
g14
(imyEvolve
Tree
p172
(dp173
g7
(imyEvolve
Tree
p174
(dp175
g14
(imyEvolve
Tree
p176
(dp177
g19
I0
sg20
I00
sbsg19
I1
sg21
(imyEvolve
Tree
p178
(dp179
g19
I0
sg24
F1.0217643525660849
sg20
I01
sbsg25
I00
sg26
g27
sbsg19
I2
sg25
I01
sg26
g37
sbsg19
I3
sg21
(imyEvolve
Tree
p180
(dp181
g7
(imyEvolve
Tree
p182
(dp183
g7
(imyEvolve
Tree
p184
(dp185
g19
I0
sg24
F2.7183803353093055
sg20
I01
sbsg19
I1
sg25
I01
sg26
g91
sbsg19
I2
sg25
I01
sg26
g37
sbsg25
I00
sg26
g34
sba(imyEvolve
Tree
p186
(dp187
g14
(imyEvolve
Tree
p188
(dp189
g7
(imyEvolve
Tree
p190
(dp191
g14
(imyEvolve
Tree
p192
(dp193
g7
(imyEvolve
Tree
p194
(dp195
g14
(imyEvolve
Tree
p196
(dp197
g19
I0
sg20
I00
sbsg19
I1
sg21
(imyEvolve
Tree
p198
(dp199
g19
I0
sg20
I00
sbsg25
I00
sg26
g35
sbsg19
I2
sg25
I01
sg26
g37
sbsg19
I3
sg21
(imyEvolve
Tree
p200
(dp201
g14
(imyEvolve
Tree
p202
(dp203
g7
(imyEvolve
Tree
p204
(dp205
g19
I0
sg24
F0.46885582864117037
sg20
I01
sbsg19
I1
sg25
I01
sg26
g36
sbsg19
I2
sg21
(imyEvolve
Tree
p206
(dp207
g14
(imyEvolve
Tree
p208
(dp209
g19
I0
sg20
I00
sbsg19
I1
sg21
(imyEvolve
Tree
p210
(dp211
g19
I0
sg20
I00
sbsg25
I00
sg26
g27
sbsg25
I00
sg26
g27
sbsg25
I00
sg26
g34
sbsg19
I4
sg25
I01
sg26
g91
sbsg19
I5
sg21
(imyEvolve
Tree
p212
(dp213
g7
(imyEvolve
Tree
p214
(dp215
g14
(imyEvolve
Tree
p216
(dp217
g7
(imyEvolve
Tree
p218
(dp219
g14
(imyEvolve
Tree
p220
(dp221
g19
I0
sg24
F3.705529910164774
sg20
I01
sbsg19
I1
sg21
(imyEvolve
Tree
p222
(dp223
g19
I0
sg24
F-4.5397349346008395
sg20
I01
sbsg25
I00
sg26
g35
sbsg19
I2
sg25
I01
sg26
g36
sbsg19
I3
sg21
(imyEvolve
Tree
p224
(dp225
g7
(imyEvolve
Tree
p226
(dp227
g7
(imyEvolve
Tree
p228
(dp229
g19
I0
sg24
F-2.9443916459360175
sg20
I01
sbsg19
I1
sg25
I01
sg26
g38
sbsg19
I2
sg25
I01
sg26
g38
sbsg25
I00
sg26
g27
sbsg19
I4
sg25
I01
sg26
g37
sbsg25
I00
sg26
g27
sbaa(lp230
(imyEvolve
Tree
p231
(dp232
g14
(imyEvolve
Tree
p233
(dp234
g7
(imyEvolve
Tree
p235
(dp236
g19
I0
sg24
F4.659652594258729
sg20
I01
sbsg19
I1
sg25
I01
sg26
g37
sbsg19
I2
sg21
(imyEvolve
Tree
p237
(dp238
g7
(imyEvolve
Tree
p239
(dp240
g19
I0
sg20
I00
sbsg19
I1
sg25
I01
sg26
g91
sbsg25
I00
sg26
g34
sba(imyEvolve
Tree
p241
(dp242
g19
I5
sg14
(imyEvolve
Tree
p243
(dp244
g19
I4
sg14
(imyEvolve
Tree
p245
(dp246
g7
(imyEvolve
Tree
p247
(dp248
g19
I2
sg14
(imyEvolve
Tree
p249
(dp250
g7
(imyEvolve
Tree
p251
(dp252
g19
I0
sg20
I00
sbsg19
I1
sg25
I01
sg26
g38
sbsg21
(imyEvolve
Tree
p253
(dp254
g19
I1
sg14
(imyEvolve
Tree
p255
(dp256
g19
I0
sg24
F-0.23300678540601183
sg20
I01
sbsg21
(imyEvolve
Tree
p257
(dp258
g19
I0
sg24
F-2.2635261350241285
sg20
I01
sbsg25
I00
sg26
g27
sbsg25
I00
sg26
g27
sbsg19
I3
sg25
I01
sg26
g37
sbsg21
(imyEvolve
Tree
p259
(dp260
g7
(imyEvolve
Tree
p261
(dp262
g19
I2
sg14
(imyEvolve
Tree
p263
(dp264
g19
I1
sg14
(imyEvolve
Tree
p265
(dp266
g19
I0
sg24
F-4.441057812568515
sg20
I01
sbsg21
(imyEvolve
Tree
p267
(dp268
g19
I0
sg20
I00
sbsg25
I00
sg26
g27
sbsg21
(imyEvolve
Tree
p269
(dp270
g7
(imyEvolve
Tree
p271
(dp272
g19
I0
sg24
F0.4474607284833363
sg20
I01
sbsg19
I1
sg25
I01
sg26
g37
sbsg25
I00
sg26
g34
sbsg19
I3
sg25
I01
sg26
g36
sbsg25
I00
sg26
g35
sbsg21
(imyEvolve
Tree
p273
(dp274
g19
I4
sg14
(imyEvolve
Tree
p275
(dp276
g19
I3
sg14
(imyEvolve
Tree
p277
(dp278
g19
I2
sg14
(imyEvolve
Tree
p279
(dp280
g19
I1
sg14
(imyEvolve
Tree
p281
(dp282
g19
I0
sg24
F2.9011027859682237
sg20
I01
sbsg21
(imyEvolve
Tree
p283
(dp284
g19
I0
sg20
I00
sbsg25
I00
sg26
g35
sbsg21
(imyEvolve
Tree
p285
(dp286
g7
(imyEvolve
Tree
p287
(dp288
g19
I0
sg24
F-0.5749273447446646
sg20
I01
sbsg19
I1
sg25
I01
sg26
g91
sbsg25
I00
sg26
g34
sbsg21
(imyEvolve
Tree
p289
(dp290
g7
(imyEvolve
Tree
p291
(dp292
g7
(imyEvolve
Tree
p293
(dp294
g19
I0
sg24
F-0.568075997113997
sg20
I01
sbsg19
I1
sg25
I01
sg26
g36
sbsg19
I2
sg25
I01
sg26
g36
sbsg25
I00
sg26
g35
sbsg21
(imyEvolve
Tree
p295
(dp296
g19
I3
sg14
(imyEvolve
Tree
p297
(dp298
g19
I2
sg14
(imyEvolve
Tree
p299
(dp300
g19
I1
sg14
(imyEvolve
Tree
p301
(dp302
g19
I0
sg20
I00
sbsg21
(imyEvolve
Tree
p303
(dp304
g19
I0
sg24
F-3.405408213270592
sg20
I01
sbsg25
I00
sg26
g27
sbsg21
(imyEvolve
Tree
p305
(dp306
g7
(imyEvolve
Tree
p307
(dp308
g19
I0
sg20
I00
sbsg19
I1
sg25
I01
sg26
g38
sbsg25
I00
sg26
g27
sbsg21
(imyEvolve
Tree
p309
(dp310
g19
I2
sg14
(imyEvolve
Tree
p311
(dp312
g19
I1
sg14
(imyEvolve
Tree
p313
(dp314
g19
I0
sg24
F-1.762672094733576
sg20
I01
sbsg21
(imyEvolve
Tree
p315
(dp316
g19
I0
sg20
I00
sbsg25
I00
sg26
g34
sbsg21
(imyEvolve
Tree
p317
(dp318
g19
I1
sg14
(imyEvolve
Tree
p319
(dp320
g19
I0
sg20
I00
sbsg21
(imyEvolve
Tree
p321
(dp322
g19
I0
sg24
F2.415477818425873
sg20
I01
sbsg25
I00
sg26
g27
sbsg25
I00
sg26
g27
sbsg25
I00
sg26
g27
sbsg25
I00
sg26
g34
sbsg25
I00
sg26
g34
sba(imyEvolve
Tree
p323
(dp324
g7
(imyEvolve
Tree
p325
(dp326
g7
(imyEvolve
Tree
p327
(dp328
g19
I2
sg14
(imyEvolve
Tree
p329
(dp330
g19
I1
sg14
(imyEvolve
Tree
p331
(dp332
g19
I0
sg20
I00
sbsg21
(imyEvolve
Tree
p333
(dp334
g19
I0
sg24
F1.1667663113158957
sg20
I01
sbsg25
I00
sg26
g27
sbsg21
(imyEvolve
Tree
p335
(dp336
g19
I1
sg14
(imyEvolve
Tree
p337
(dp338
g19
I0
sg20
I00
sbsg21
(imyEvolve
Tree
p339
(dp340
g19
I0
sg24
F-4.072451482178537
sg20
I01
sbsg25
I00
sg26
g27
sbsg25
I00
sg26
g27
sbsg19
I3
sg25
I01
sg26
g38
sbsg19
I4
sg25
I01
sg26
g37
sba(imyEvolve
Tree
p341
(dp342
g7
(imyEvolve
Tree
p343
(dp344
g19
I2
sg14
(imyEvolve
Tree
p345
(dp346
g7
(imyEvolve
Tree
p347
(dp348
g19
I0
sg24
F-0.6475707422457786
sg20
I01
sbsg19
I1
sg25
I01
sg26
g36
sbsg21
(imyEvolve
Tree
p349
(dp350
g19
I1
sg14
(imyEvolve
Tree
p351
(dp352
g19
I0
sg24
F-1.6348784857248075
sg20
I01
sbsg21
(imyEvolve
Tree
p353
(dp354
g19
I0
sg20
I00
sbsg25
I00
sg26
g34
sbsg25
I00
sg26
g35
sbsg19
I3
sg25
I01
sg26
g91
sba(imyEvolve
Tree
p355
(dp356
g14
(imyEvolve
Tree
p357
(dp358
g7
(imyEvolve
Tree
p359
(dp360
g14
(imyEvolve
Tree
p361
(dp362
g7
(imyEvolve
Tree
p363
(dp364
g19
I0
sg20
I00
sbsg19
I1
sg25
I01
sg26
g91
sbsg19
I2
sg21
(imyEvolve
Tree
p365
(dp366
g7
(imyEvolve
Tree
p367
(dp368
g19
I0
sg20
I00
sbsg19
I1
sg25
I01
sg26
g36
sbsg25
I00
sg26
g34
sbsg19
I3
sg25
I01
sg26
g37
sbsg19
I4
sg21
(imyEvolve
Tree
p369
(dp370
g7
(imyEvolve
Tree
p371
(dp372
g7
(imyEvolve
Tree
p373
(dp374
g7
(imyEvolve
Tree
p375
(dp376
g19
I0
sg20
I00
sbsg19
I1
sg25
I01
sg26
g36
sbsg19
I2
sg25
I01
sg26
g91
sbsg19
I3
sg25
I01
sg26
g91
sbsg25
I00
sg26
g34
sba(imyEvolve
Tree
p377
(dp378
g19
I5
sg14
(imyEvolve
Tree
p379
(dp380
g7
(imyEvolve
Tree
p381
(dp382
g7
(imyEvolve
Tree
p383
(dp384
g7
(imyEvolve
Tree
p385
(dp386
g19
I1
sg14
(imyEvolve
Tree
p387
(dp388
g19
I0
sg24
F1.3908813118154093
sg20
I01
sbsg21
(imyEvolve
Tree
p389
(dp390
g19
I0
sg24
F-4.024302270258826
sg20
I01
sbsg25
I00
sg26
g27
sbsg19
I2
sg25
I01
sg26
g36
sbsg19
I3
sg25
I01
sg26
g91
sbsg19
I4
sg25
I01
sg26
g37
sbsg21
(imyEvolve
Tree
p391
(dp392
g7
(imyEvolve
Tree
p393
(dp394
g19
I3
sg14
(imyEvolve
Tree
p395
(dp396
g19
I2
sg14
(imyEvolve
Tree
p397
(dp398
g7
(imyEvolve
Tree
p399
(dp400
g19
I0
sg24
F-2.5135635393290476
sg20
I01
sbsg19
I1
sg25
I01
sg26
g37
sbsg21
(imyEvolve
Tree
p401
(dp402
g19
I1
sg14
(imyEvolve
Tree
p403
(dp404
g19
I0
sg24
F4.898233388259559
sg20
I01
sbsg21
(imyEvolve
Tree
p405
(dp406
g19
I0
sg20
I00
sbsg25
I00
sg26
g27
sbsg25
I00
sg26
g27
sbsg21
(imyEvolve
Tree
p407
(dp408
g7
(imyEvolve
Tree
p409
(dp410
g7
(imyEvolve
Tree
p411
(dp412
g19
I0
sg24
F-4.473232361487181
sg20
I01
sbsg19
I1
sg25
I01
sg26
g37
sbsg19
I2
sg25
I01
sg26
g37
sbsg25
I00
sg26
g35
sbsg19
I4
sg25
I01
sg26
g36
sbsg25
I00
sg26
g35
sba(imyEvolve
Tree
p413
(dp414
g7
(imyEvolve
Tree
p415
(dp416
g7
(imyEvolve
Tree
p417
(dp418
g7
(imyEvolve
Tree
p419
(dp420
g7
(imyEvolve
Tree
p421
(dp422
g7
(imyEvolve
Tree
p423
(dp424
g19
I0
sg20
I00
sbsg19
I1
sg25
I01
sg26
g91
sbsg19
I2
sg25
I01
sg26
g36
sbsg19
I3
sg25
I01
sg26
g37
sbsg19
I4
sg25
I01
sg26
g38
sbsg19
I5
sg25
I01
sg26
g37
sba(imyEvolve
Tree
p425
(dp426
g7
(imyEvolve
Tree
p427
(dp428
g7
(imyEvolve
Tree
p429
(dp430
g19
I0
sg24
F-2.3986747264041752
sg20
I01
sbsg19
I1
sg25
I01
sg26
g36
sbsg19
I2
sg25
I01
sg26
g36
sba(imyEvolve
Tree
p431
(dp432
g7
(imyEvolve
Tree
p433
(dp434
g7
(imyEvolve
Tree
p435
(dp436
g19
I0
sg24
F4.920875181572963
sg20
I01
sbsg19
I1
sg25
I01
sg26
g38
sbsg19
I2
sg25
I01
sg26
g36
sba(imyEvolve
Tree
p437
(dp438
g7
(imyEvolve
Tree
p439
(dp440
g14
(imyEvolve
Tree
p441
(dp442
g14
(imyEvolve
Tree
p443
(dp444
g19
I0
sg24
F1.7830900044286349
sg20
I01
sbsg19
I1
sg21
(imyEvolve
Tree
p445
(dp446
g19
I0
sg24
F-1.1987786485235552
sg20
I01
sbsg25
I00
sg26
g35
sbsg19
I2
sg21
(imyEvolve
Tree
p447
(dp448
g14
(imyEvolve
Tree
p449
(dp450
g19
I0
sg24
F2.2103201594598527
sg20
I01
sbsg19
I1
sg21
(imyEvolve
Tree
p451
(dp452
g19
I0
sg20
I00
sbsg25
I00
sg26
g35
sbsg25
I00
sg26
g35
sbsg19
I3
sg25
I01
sg26
g36
sba(imyEvolve
Tree
p453
(dp454
g14
(imyEvolve
Tree
p455
(dp456
g7
(imyEvolve
Tree
p457
(dp458
g14
(imyEvolve
Tree
p459
(dp460
g7
(imyEvolve
Tree
p461
(dp462
g14
(imyEvolve
Tree
p463
(dp464
g19
I0
sg24
F-4.737511868862114
sg20
I01
sbsg19
I1
sg21
(imyEvolve
Tree
p465
(dp466
g19
I0
sg24
F3.7521648800040026
sg20
I01
sbsg25
I00
sg26
g27
sbsg19
I2
sg25
I01
sg26
g38
sbsg19
I3
sg21
(imyEvolve
Tree
p467
(dp468
g14
(imyEvolve
Tree
p469
(dp470
g14
(imyEvolve
Tree
p471
(dp472
g19
I0
sg20
I00
sbsg19
I1
sg21
(imyEvolve
Tree
p473
(dp474
g19
I0
sg24
F-1.0816151023391307
sg20
I01
sbsg25
I00
sg26
g35
sbsg19
I2
sg21
(imyEvolve
Tree
p475
(dp476
g7
(imyEvolve
Tree
p477
(dp478
g19
I0
sg24
F4.614271217284497
sg20
I01
sbsg19
I1
sg25
I01
sg26
g37
sbsg25
I00
sg26
g35
sbsg25
I00
sg26
g27
sbsg19
I4
sg25
I01
sg26
g37
sbsg19
I5
sg21
(imyEvolve
Tree
p479
(dp480
g7
(imyEvolve
Tree
p481
(dp482
g7
(imyEvolve
Tree
p483
(dp484
g7
(imyEvolve
Tree
p485
(dp486
g7
(imyEvolve
Tree
p487
(dp488
g19
I0
sg20
I00
sbsg19
I1
sg25
I01
sg26
g38
sbsg19
I2
sg25
I01
sg26
g38
sbsg19
I3
sg25
I01
sg26
g37
sbsg19
I4
sg25
I01
sg26
g37
sbsg25
I00
sg26
g27
sba(imyEvolve
Tree
p489
(dp490
g14
(imyEvolve
Tree
p491
(dp492
g14
(imyEvolve
Tree
p493
(dp494
g7
(imyEvolve
Tree
p495
(dp496
g14
(imyEvolve
Tree
p497
(dp498
g7
(imyEvolve
Tree
p499
(dp500
g19
I0
sg20
I00
sbsg19
I1
sg25
I01
sg26
g38
sbsg19
I2
sg21
(imyEvolve
Tree
p501
(dp502
g7
(imyEvolve
Tree
p503
(dp504
g19
I0
sg24
F-3.3116970512313717
sg20
I01
sbsg19
I1
sg25
I01
sg26
g36
sbsg25
I00
sg26
g35
sbsg19
I3
sg25
I01
sg26
g36
sbsg19
I4
sg21
(imyEvolve
Tree
p505
(dp506
g14
(imyEvolve
Tree
p507
(dp508
g7
(imyEvolve
Tree
p509
(dp510
g7
(imyEvolve
Tree
p511
(dp512
g19
I0
sg20
I00
sbsg19
I1
sg25
I01
sg26
g38
sbsg19
I2
sg25
I01
sg26
g36
sbsg19
I3
sg21
(imyEvolve
Tree
p513
(dp514
g7
(imyEvolve
Tree
p515
(dp516
g7
(imyEvolve
Tree
p517
(dp518
g19
I0
sg24
F2.4317245076071305
sg20
I01
sbsg19
I1
sg25
I01
sg26
g38
sbsg19
I2
sg25
I01
sg26
g37
sbsg25
I00
sg26
g27
sbsg25
I00
sg26
g34
sbsg19
I5
sg21
(imyEvolve
Tree
p519
(dp520
g14
(imyEvolve
Tree
p521
(dp522
g7
(imyEvolve
Tree
p523
(dp524
g7
(imyEvolve
Tree
p525
(dp526
g14
(imyEvolve
Tree
p527
(dp528
g19
I0
sg20
I00
sbsg19
I1
sg21
(imyEvolve
Tree
p529
(dp530
g19
I0
sg24
F4.640373551918032
sg20
I01
sbsg25
I00
sg26
g34
sbsg19
I2
sg25
I01
sg26
g38
sbsg19
I3
sg25
I01
sg26
g37
sbsg19
I4
sg21
(imyEvolve
Tree
p531
(dp532
g7
(imyEvolve
Tree
p533
(dp534
g7
(imyEvolve
Tree
p535
(dp536
g7
(imyEvolve
Tree
p537
(dp538
g19
I0
sg20
I00
sbsg19
I1
sg25
I01
sg26
g91
sbsg19
I2
sg25
I01
sg26
g37
sbsg19
I3
sg25
I01
sg26
g38
sbsg25
I00
sg26
g27
sbsg25
I00
sg26
g27
sbaa(lp539
(imyEvolve
Tree
p540
(dp541
g7
(imyEvolve
Tree
p542
(dp543
g7
(imyEvolve
Tree
p544
(dp545
g7
(imyEvolve
Tree
p546
(dp547
g19
I0
sg24
F2.7799744554251893
sg20
I01
sbsg19
I1
sg25
I01
sg26
g37
sbsg19
I2
sg25
I01
sg26
g38
sbsg19
I3
sg25
I01
sg26
g38
sba(imyEvolve
Tree
p548
(dp549
g14
(imyEvolve
Tree
p550
(dp551
g14
(imyEvolve
Tree
p552
(dp553
g7
(imyEvolve
Tree
p554
(dp555
g14
(imyEvolve
Tree
p556
(dp557
g7
(imyEvolve
Tree
p558
(dp559
g19
I0
sg24
F4.276482765628039
sg20
I01
sbsg19
I1
sg25
I01
sg26
g36
sbsg19
I2
sg21
(imyEvolve
Tree
p560
(dp561
g7
(imyEvolve
Tree
p562
(dp563
g19
I0
sg24
F0.1902149452745121
sg20
I01
sbsg19
I1
sg25
I01
sg26
g36
sbsg25
I00
sg26
g35
sbsg19
I3
sg25
I01
sg26
g37
sbsg19
I4
sg21
(imyEvolve
Tree
p564
(dp565
g14
(imyEvolve
Tree
p566
(dp567
g7
(imyEvolve
Tree
p568
(dp569
g14
(imyEvolve
Tree
p570
(dp571
g19
I0
sg20
I00
sbsg19
I1
sg21
(imyEvolve
Tree
p572
(dp573
g19
I0
sg24
F-3.7382981899894894
sg20
I01
sbsg25
I00
sg26
g27
sbsg19
I2
sg25
I01
sg26
g36
sbsg19
I3
sg21
(imyEvolve
Tree
p574
(dp575
g14
(imyEvolve
Tree
p576
(dp577
g14
(imyEvolve
Tree
p578
(dp579
g19
I0
sg20
I00
sbsg19
I1
sg21
(imyEvolve
Tree
p580
(dp581
g19
I0
sg24
F-3.699354253628384
sg20
I01
sbsg25
I00
sg26
g34
sbsg19
I2
sg21
(imyEvolve
Tree
p582
(dp583
g7
(imyEvolve
Tree
p584
(dp585
g19
I0
sg20
I00
sbsg19
I1
sg25
I01
sg26
g37
sbsg25
I00
sg26
g35
sbsg25
I00
sg26
g27
sbsg25
I00
sg26
g27
sbsg19
I5
sg21
(imyEvolve
Tree
p586
(dp587
g7
(imyEvolve
Tree
p588
(dp589
g7
(imyEvolve
Tree
p590
(dp591
g14
(imyEvolve
Tree
p592
(dp593
g7
(imyEvolve
Tree
p594
(dp595
g19
I0
sg20
I00
sbsg19
I1
sg25
I01
sg26
g91
sbsg19
I2
sg21
(imyEvolve
Tree
p596
(dp597
g14
(imyEvolve
Tree
p598
(dp599
g19
I0
sg24
F2.6501444584697555
sg20
I01
sbsg19
I1
sg21
(imyEvolve
Tree
p600
(dp601
g19
I0
sg20
I00
sbsg25
I00
sg26
g35
sbsg25
I00
sg26
g35
sbsg19
I3
sg25
I01
sg26
g37
sbsg19
I4
sg25
I01
sg26
g91
sbsg25
I00
sg26
g34
sba(imyEvolve
Tree
p602
(dp603
g14
(imyEvolve
Tree
p604
(dp605
g7
(imyEvolve
Tree
p606
(dp607
g7
(imyEvolve
Tree
p608
(dp609
g19
I0
sg24
F-2.3311905986264083
sg20
I01
sbsg19
I1
sg25
I01
sg26
g37
sbsg19
I2
sg25
I01
sg26
g91
sbsg19
I3
sg21
(imyEvolve
Tree
p610
(dp611
g7
(imyEvolve
Tree
p612
(dp613
g7
(imyEvolve
Tree
p614
(dp615
g19
I0
sg20
I00
sbsg19
I1
sg25
I01
sg26
g91
sbsg19
I2
sg25
I01
sg26
g36
sbsg25
I00
sg26
g35
sba(imyEvolve
Tree
p616
(dp617
g14
(imyEvolve
Tree
p618
(dp619
g14
(imyEvolve
Tree
p620
(dp621
g7
(imyEvolve
Tree
p622
(dp623
g19
I0
sg20
I00
sbsg19
I1
sg25
I01
sg26
g38
sbsg19
I2
sg21
(imyEvolve
Tree
p624
(dp625
g14
(imyEvolve
Tree
p626
(dp627
g19
I0
sg20
I00
sbsg19
I1
sg21
(imyEvolve
Tree
p628
(dp629
g19
I0
sg24
F-0.941585394241848
sg20
I01
sbsg25
I00
sg26
g34
sbsg25
I00
sg26
g35
sbsg19
I3
sg21
(imyEvolve
Tree
p630
(dp631
g14
(imyEvolve
Tree
p632
(dp633
g7
(imyEvolve
Tree
p634
(dp635
g19
I0
sg24
F2.6210174398404575
sg20
I01
sbsg19
I1
sg25
I01
sg26
g37
sbsg19
I2
sg21
(imyEvolve
Tree
p636
(dp637
g7
(imyEvolve
Tree
p638
(dp639
g19
I0
sg24
F-4.045359181508706
sg20
I01
sbsg19
I1
sg25
I01
sg26
g91
sbsg25
I00
sg26
g34
sbsg25
I00
sg26
g35
sba(imyEvolve
Tree
p640
(dp641
g7
(imyEvolve
Tree
p642
(dp643
g14
(imyEvolve
Tree
p644
(dp645
g14
(imyEvolve
Tree
p646
(dp647
g14
(imyEvolve
Tree
p648
(dp649
g19
I0
sg24
F-2.7578655337997384
sg20
I01
sbsg19
I1
sg21
(imyEvolve
Tree
p650
(dp651
g19
I0
sg24
F-2.4645350105081167
sg20
I01
sbsg25
I00
sg26
g35
sbsg19
I2
sg21
(imyEvolve
Tree
p652
(dp653
g7
(imyEvolve
Tree
p654
(dp655
g19
I0
sg24
F2.063864900141521
sg20
I01
sbsg19
I1
sg25
I01
sg26
g36
sbsg25
I00
sg26
g35
sbsg19
I3
sg21
(imyEvolve
Tree
p656
(dp657
g14
(imyEvolve
Tree
p658
(dp659
g7
(imyEvolve
Tree
p660
(dp661
g19
I0
sg20
I00
sbsg19
I1
sg25
I01
sg26
g36
sbsg19
I2
sg21
(imyEvolve
Tree
p662
(dp663
g14
(imyEvolve
Tree
p664
(dp665
g19
I0
sg20
I00
sbsg19
I1
sg21
(imyEvolve
Tree
p666
(dp667
g19
I0
sg20
I00
sbsg25
I00
sg26
g34
sbsg25
I00
sg26
g27
sbsg25
I00
sg26
g27
sbsg19
I4
sg25
I01
sg26
g36
sba(imyEvolve
Tree
p668
(dp669
g7
(imyEvolve
Tree
p670
(dp671
g7
(imyEvolve
Tree
p672
(dp673
g7
(imyEvolve
Tree
p674
(dp675
g19
I0
sg24
F2.463642144004816
sg20
I01
sbsg19
I1
sg25
I01
sg26
g38
sbsg19
I2
sg25
I01
sg26
g36
sbsg19
I3
sg25
I01
sg26
g36
sba(imyEvolve
Tree
p676
(dp677
g7
(imyEvolve
Tree
p678
(dp679
g7
(imyEvolve
Tree
p680
(dp681
g14
(imyEvolve
Tree
p682
(dp683
g14
(imyEvolve
Tree
p684
(dp685
g19
I0
sg20
I00
sbsg19
I1
sg21
(imyEvolve
Tree
p686
(dp687
g19
I0
sg20
I00
sbsg25
I00
sg26
g35
sbsg19
I2
sg21
(imyEvolve
Tree
p688
(dp689
g14
(imyEvolve
Tree
p690
(dp691
g19
I0
sg24
F-4.661466121407454
sg20
I01
sbsg19
I1
sg21
(imyEvolve
Tree
p692
(dp693
g19
I0
sg20
I00
sbsg25
I00
sg26
g35
sbsg25
I00
sg26
g34
sbsg19
I3
sg25
I01
sg26
g91
sbsg19
I4
sg25
I01
sg26
g37
sba(imyEvolve
Tree
p694
(dp695
g7
(imyEvolve
Tree
p696
(dp697
g19
I2
sg14
(imyEvolve
Tree
p698
(dp699
g19
I1
sg14
(imyEvolve
Tree
p700
(dp701
g19
I0
sg24
F2.308255272830416
sg20
I01
sbsg21
(imyEvolve
Tree
p702
(dp703
g19
I0
sg24
F3.7576220785323997
sg20
I01
sbsg25
I00
sg26
g35
sbsg21
(imyEvolve
Tree
p704
(dp705
g19
I1
sg14
(imyEvolve
Tree
p706
(dp707
g19
I0
sg20
I00
sbsg21
(imyEvolve
Tree
p708
(dp709
g19
I0
sg20
I00
sbsg25
I00
sg26
g34
sbsg25
I00
sg26
g27
sbsg19
I3
sg25
I01
sg26
g91
sba(imyEvolve
Tree
p710
(dp711
g14
(imyEvolve
Tree
p712
(dp713
g7
(imyEvolve
Tree
p714
(dp715
g14
(imyEvolve
Tree
p716
(dp717
g7
(imyEvolve
Tree
p718
(dp719
g7
(imyEvolve
Tree
p720
(dp721
g19
I0
sg20
I00
sbsg19
I1
sg25
I01
sg26
g91
sbsg19
I2
sg25
I01
sg26
g37
sbsg19
I3
sg21
(imyEvolve
Tree
p722
(dp723
g14
(imyEvolve
Tree
p724
(dp725
g7
(imyEvolve
Tree
p726
(dp727
g19
I0
sg20
I00
sbsg19
I1
sg25
I01
sg26
g36
sbsg19
I2
sg21
(imyEvolve
Tree
p728
(dp729
g7
(imyEvolve
Tree
p730
(dp731
g19
I0
sg20
I00
sbsg19
I1
sg25
I01
sg26
g36
sbsg25
I00
sg26
g35
sbsg25
I00
sg26
g27
sbsg19
I4
sg25
I01
sg26
g91
sbsg19
I5
sg21
(imyEvolve
Tree
p732
(dp733
g14
(imyEvolve
Tree
p734
(dp735
g7
(imyEvolve
Tree
p736
(dp737
g7
(imyEvolve
Tree
p738
(dp739
g7
(imyEvolve
Tree
p740
(dp741
g19
I0
sg20
I00
sbsg19
I1
sg25
I01
sg26
g38
sbsg19
I2
sg25
I01
sg26
g36
sbsg19
I3
sg25
I01
sg26
g36
sbsg19
I4
sg21
(imyEvolve
Tree
p742
(dp743
g14
(imyEvolve
Tree
p744
(dp745
g7
(imyEvolve
Tree
p746
(dp747
g14
(imyEvolve
Tree
p748
(dp749
g19
I0
sg20
I00
sbsg19
I1
sg21
(imyEvolve
Tree
p750
(dp751
g19
I0
sg20
I00
sbsg25
I00
sg26
g35
sbsg19
I2
sg25
I01
sg26
g91
sbsg19
I3
sg21
(imyEvolve
Tree
p752
(dp753
g7
(imyEvolve
Tree
p754
(dp755
g7
(imyEvolve
Tree
p756
(dp757
g19
I0
sg24
F-3.2077212438364433
sg20
I01
sbsg19
I1
sg25
I01
sg26
g38
sbsg19
I2
sg25
I01
sg26
g91
sbsg25
I00
sg26
g34
sbsg25
I00
sg26
g34
sbsg25
I00
sg26
g35
sba(imyEvolve
Tree
p758
(dp759
g7
(imyEvolve
Tree
p760
(dp761
g19
I3
sg14
(imyEvolve
Tree
p762
(dp763
g19
I2
sg14
(imyEvolve
Tree
p764
(dp765
g7
(imyEvolve
Tree
p766
(dp767
g19
I0
sg20
I00
sbsg19
I1
sg25
I01
sg26
g38
sbsg21
(imyEvolve
Tree
p768
(dp769
g7
(imyEvolve
Tree
p770
(dp771
g19
I0
sg20
I00
sbsg19
I1
sg25
I01
sg26
g36
sbsg25
I00
sg26
g35
sbsg21
(imyEvolve
Tree
p772
(dp773
g19
I2
sg14
(imyEvolve
Tree
p774
(dp775
g7
(imyEvolve
Tree
p776
(dp777
g19
I0
sg24
F2.115403512228273
sg20
I01
sbsg19
I1
sg25
I01
sg26
g36
sbsg21
(imyEvolve
Tree
p778
(dp779
g19
I1
sg14
(imyEvolve
Tree
p780
(dp781
g19
I0
sg20
I00
sbsg21
(imyEvolve
Tree
p782
(dp783
g19
I0
sg24
F-3.699187070786497
sg20
I01
sbsg25
I00
sg26
g34
sbsg25
I00
sg26
g35
sbsg25
I00
sg26
g27
sbsg19
I4
sg25
I01
sg26
g91
sba(imyEvolve
Tree
p784
(dp785
g14
(imyEvolve
Tree
p786
(dp787
g14
(imyEvolve
Tree
p788
(dp789
g7
(imyEvolve
Tree
p790
(dp791
g19
I0
sg20
I00
sbsg19
I1
sg25
I01
sg26
g38
sbsg19
I2
sg21
(imyEvolve
Tree
p792
(dp793
g14
(imyEvolve
Tree
p794
(dp795
g19
I0
sg20
I00
sbsg19
I1
sg21
(imyEvolve
Tree
p796
(dp797
g19
I0
sg20
I00
sbsg25
I00
sg26
g27
sbsg25
I00
sg26
g27
sbsg19
I3
sg21
(imyEvolve
Tree
p798
(dp799
g7
(imyEvolve
Tree
p800
(dp801
g7
(imyEvolve
Tree
p802
(dp803
g19
I0
sg24
F-4.700930982825623
sg20
I01
sbsg19
I1
sg25
I01
sg26
g91
sbsg19
I2
sg25
I01
sg26
g91
sbsg25
I00
sg26
g27
sba(imyEvolve
Tree
p804
(dp805
g7
(imyEvolve
Tree
p806
(dp807
g7
(imyEvolve
Tree
p808
(dp809
g14
(imyEvolve
Tree
p810
(dp811
g19
I0
sg20
I00
sbsg19
I1
sg21
(imyEvolve
Tree
p812
(dp813
g19
I0
sg20
I00
sbsg25
I00
sg26
g34
sbsg19
I2
sg25
I01
sg26
g37
sbsg19
I3
sg25
I01
sg26
g37
sba(imyEvolve
Tree
p814
(dp815
g14
(imyEvolve
Tree
p816
(dp817
g14
(imyEvolve
Tree
p818
(dp819
g14
(imyEvolve
Tree
p820
(dp821
g14
(imyEvolve
Tree
p822
(dp823
g19
I0
sg24
F-1.6936525170870476
sg20
I01
sbsg19
I1
sg21
(imyEvolve
Tree
p824
(dp825
g19
I0
sg20
I00
sbsg25
I00
sg26
g35
sbsg19
I2
sg21
(imyEvolve
Tree
p826
(dp827
g14
(imyEvolve
Tree
p828
(dp829
g19
I0
sg20
I00
sbsg19
I1
sg21
(imyEvolve
Tree
p830
(dp831
g19
I0
sg24
F-1.521540828356096
sg20
I01
sbsg25
I00
sg26
g35
sbsg25
I00
sg26
g35
sbsg19
I3
sg21
(imyEvolve
Tree
p832
(dp833
g14
(imyEvolve
Tree
p834
(dp835
g7
(imyEvolve
Tree
p836
(dp837
g19
I0
sg20
I00
sbsg19
I1
sg25
I01
sg26
g91
sbsg19
I2
sg21
(imyEvolve
Tree
p838
(dp839
g7
(imyEvolve
Tree
p840
(dp841
g19
I0
sg20
I00
sbsg19
I1
sg25
I01
sg26
g91
sbsg25
I00
sg26
g27
sbsg25
I00
sg26
g34
sbsg19
I4
sg21
(imyEvolve
Tree
p842
(dp843
g14
(imyEvolve
Tree
p844
(dp845
g14
(imyEvolve
Tree
p846
(dp847
g14
(imyEvolve
Tree
p848
(dp849
g19
I0
sg20
I00
sbsg19
I1
sg21
(imyEvolve
Tree
p850
(dp851
g19
I0
sg24
F-4.295276679830261
sg20
I01
sbsg25
I00
sg26
g34
sbsg19
I2
sg21
(imyEvolve
Tree
p852
(dp853
g14
(imyEvolve
Tree
p854
(dp855
g19
I0
sg20
I00
sbsg19
I1
sg21
(imyEvolve
Tree
p856
(dp857
g19
I0
sg20
I00
sbsg25
I00
sg26
g27
sbsg25
I00
sg26
g34
sbsg19
I3
sg21
(imyEvolve
Tree
p858
(dp859
g14
(imyEvolve
Tree
p860
(dp861
g14
(imyEvolve
Tree
p862
(dp863
g19
I0
sg24
F-1.4969336506450026
sg20
I01
sbsg19
I1
sg21
(imyEvolve
Tree
p864
(dp865
g19
I0
sg20
I00
sbsg25
I00
sg26
g35
sbsg19
I2
sg21
(imyEvolve
Tree
p866
(dp867
g7
(imyEvolve
Tree
p868
(dp869
g19
I0
sg20
I00
sbsg19
I1
sg25
I01
sg26
g91
sbsg25
I00
sg26
g35
sbsg25
I00
sg26
g34
sbsg25
I00
sg26
g34
sba(imyEvolve
Tree
p870
(dp871
g14
(imyEvolve
Tree
p872
(dp873
g7
(imyEvolve
Tree
p874
(dp875
g7
(imyEvolve
Tree
p876
(dp877
g19
I0
sg20
I00
sbsg19
I1
sg25
I01
sg26
g37
sbsg19
I2
sg25
I01
sg26
g38
sbsg19
I3
sg21
(imyEvolve
Tree
p878
(dp879
g7
(imyEvolve
Tree
p880
(dp881
g14
(imyEvolve
Tree
p882
(dp883
g19
I0
sg20
I00
sbsg19
I1
sg21
(imyEvolve
Tree
p884
(dp885
g19
I0
sg20
I00
sbsg25
I00
sg26
g34
sbsg19
I2
sg25
I01
sg26
g37
sbsg25
I00
sg26
g34
sba(imyEvolve
Tree
p886
(dp887
g14
(imyEvolve
Tree
p888
(dp889
g7
(imyEvolve
Tree
p890
(dp891
g19
I0
sg24
F-3.594012668945904
sg20
I01
sbsg19
I1
sg25
I01
sg26
g38
sbsg19
I2
sg21
(imyEvolve
Tree
p892
(dp893
g14
(imyEvolve
Tree
p894
(dp895
g19
I0
sg20
I00
sbsg19
I1
sg21
(imyEvolve
Tree
p896
(dp897
g19
I0
sg20
I00
sbsg25
I00
sg26
g27
sbsg25
I00
sg26
g34
sbaa(lp898
(imyEvolve
Tree
p899
(dp900
g19
I4
sg14
(imyEvolve
Tree
p901
(dp902
g7
(imyEvolve
Tree
p903
(dp904
g7
(imyEvolve
Tree
p905
(dp906
g19
I1
sg14
(imyEvolve
Tree
p907
(dp908
g19
I0
sg20
I00
sbsg21
(imyEvolve
Tree
p909
(dp910
g19
I0
sg24
F-3.1673075491812464
sg20
I01
sbsg25
I00
sg26
g34
sbsg19
I2
sg25
I01
sg26
g38
sbsg19
I3
sg25
I01
sg26
g38
sbsg21
(imyEvolve
Tree
p911
(dp912
g7
(imyEvolve
Tree
p913
(dp914
g19
I2
sg14
(imyEvolve
Tree
p915
(dp916
g19
I1
sg14
(imyEvolve
Tree
p917
(dp918
g19
I0
sg24
F0.9849096616785067
sg20
I01
sbsg21
(imyEvolve
Tree
p919
(dp920
g19
I0
sg24
F3.818410919719513
sg20
I01
sbsg25
I00
sg26
g27
sbsg21
(imyEvolve
Tree
p921
(dp922
g19
I1
sg14
(imyEvolve
Tree
p923
(dp924
g19
I0
sg20
I00
sbsg21
(imyEvolve
Tree
p925
(dp926
g19
I0
sg20
I00
sbsg25
I00
sg26
g27
sbsg25
I00
sg26
g35
sbsg19
I3
sg25
I01
sg26
g91
sbsg25
I00
sg26
g27
sba(imyEvolve
Tree
p927
(dp928
g19
I4
sg14
(imyEvolve
Tree
p929
(dp930
g19
I3
sg14
(imyEvolve
Tree
p931
(dp932
g7
(imyEvolve
Tree
p933
(dp934
g19
I1
sg14
(imyEvolve
Tree
p935
(dp936
g19
I0
sg24
F0.5606235087398694
sg20
I01
sbsg21
(imyEvolve
Tree
p937
(dp938
g19
I0
sg20
I00
sbsg25
I00
sg26
g34
sbsg19
I2
sg25
I01
sg26
g37
sbsg21
(imyEvolve
Tree
p939
(dp940
g7
(imyEvolve
Tree
p941
(dp942
g19
I1
sg14
(imyEvolve
Tree
p943
(dp944
g19
I0
sg24
F2.1699355855307534
sg20
I01
sbsg21
(imyEvolve
Tree
p945
(dp946
g19
I0
sg24
F4.468282820112542
sg20
I01
sbsg25
I00
sg26
g27
sbsg19
I2
sg25
I01
sg26
g36
sbsg25
I00
sg26
g35
sbsg21
(imyEvolve
Tree
p947
(dp948
g19
I3
sg14
(imyEvolve
Tree
p949
(dp950
g7
(imyEvolve
Tree
p951
(dp952
g19
I1
sg14
(imyEvolve
Tree
p953
(dp954
g19
I0
sg20
I00
sbsg21
(imyEvolve
Tree
p955
(dp956
g19
I0
sg20
I00
sbsg25
I00
sg26
g27
sbsg19
I2
sg25
I01
sg26
g91
sbsg21
(imyEvolve
Tree
p957
(dp958
g19
I2
sg14
(imyEvolve
Tree
p959
(dp960
g7
(imyEvolve
Tree
p961
(dp962
g19
I0
sg24
F0.8314845520724878
sg20
I01
sbsg19
I1
sg25
I01
sg26
g38
sbsg21
(imyEvolve
Tree
p963
(dp964
g7
(imyEvolve
Tree
p965
(dp966
g19
I0
sg20
I00
sbsg19
I1
sg25
I01
sg26
g91
sbsg25
I00
sg26
g34
sbsg25
I00
sg26
g27
sbsg25
I00
sg26
g27
sba(imyEvolve
Tree
p967
(dp968
g14
(imyEvolve
Tree
p969
(dp970
g14
(imyEvolve
Tree
p971
(dp972
g19
I0
sg20
I00
sbsg19
I1
sg21
(imyEvolve
Tree
p973
(dp974
g19
I0
sg20
I00
sbsg25
I00
sg26
g34
sbsg19
I2
sg21
(imyEvolve
Tree
p975
(dp976
g14
(imyEvolve
Tree
p977
(dp978
g19
I0
sg20
I00
sbsg19
I1
sg21
(imyEvolve
Tree
p979
(dp980
g19
I0
sg24
F4.892517680927174
sg20
I01
sbsg25
I00
sg26
g34
sbsg25
I00
sg26
g27
sba(imyEvolve
Tree
p981
(dp982
g14
(imyEvolve
Tree
p983
(dp984
g14
(imyEvolve
Tree
p985
(dp986
g14
(imyEvolve
Tree
p987
(dp988
g14
(imyEvolve
Tree
p989
(dp990
g19
I0
sg20
I00
sbsg19
I1
sg21
(imyEvolve
Tree
p991
(dp992
g19
I0
sg20
I00
sbsg25
I00
sg26
g27
sbsg19
I2
sg21
(imyEvolve
Tree
p993
(dp994
g7
(imyEvolve
Tree
p995
(dp996
g19
I0
sg20
I00
sbsg19
I1
sg25
I01
sg26
g91
sbsg25
I00
sg26
g27
sbsg19
I3
sg21
(imyEvolve
Tree
p997
(dp998
g14
(imyEvolve
Tree
p999
(dp1000
g14
(imyEvolve
Tree
p1001
(dp1002
g19
I0
sg20
I00
sbsg19
I1
sg21
(imyEvolve
Tree
p1003
(dp1004
g19
I0
sg24
F-0.6212005546131003
sg20
I01
sbsg25
I00
sg26
g35
sbsg19
I2
sg21
(imyEvolve
Tree
p1005
(dp1006
g14
(imyEvolve
Tree
p1007
(dp1008
g19
I0
sg20
I00
sbsg19
I1
sg21
(imyEvolve
Tree
p1009
(dp1010
g19
I0
sg24
F4.7304303209193534
sg20
I01
sbsg25
I00
sg26
g34
sbsg25
I00
sg26
g27
sbsg25
I00
sg26
g34
sbsg19
I4
sg21
(imyEvolve
Tree
p1011
(dp1012
g14
(imyEvolve
Tree
p1013
(dp1014
g7
(imyEvolve
Tree
p1015
(dp1016
g14
(imyEvolve
Tree
p1017
(dp1018
g19
I0
sg24
F2.819326682676082
sg20
I01
sbsg19
I1
sg21
(imyEvolve
Tree
p1019
(dp1020
g19
I0
sg24
F-4.893844115724075
sg20
I01
sbsg25
I00
sg26
g35
sbsg19
I2
sg25
I01
sg26
g37
sbsg19
I3
sg21
(imyEvolve
Tree
p1021
(dp1022
g7
(imyEvolve
Tree
p1023
(dp1024
g14
(imyEvolve
Tree
p1025
(dp1026
g19
I0
sg24
F4.827115676323343
sg20
I01
sbsg19
I1
sg21
(imyEvolve
Tree
p1027
(dp1028
g19
I0
sg20
I00
sbsg25
I00
sg26
g35
sbsg19
I2
sg25
I01
sg26
g38
sbsg25
I00
sg26
g34
sbsg25
I00
sg26
g27
sba(imyEvolve
Tree
p1029
(dp1030
g14
(imyEvolve
Tree
p1031
(dp1032
g7
(imyEvolve
Tree
p1033
(dp1034
g19
I0
sg24
F-3.6178532335385185
sg20
I01
sbsg19
I1
sg25
I01
sg26
g38
sbsg19
I2
sg21
(imyEvolve
Tree
p1035
(dp1036
g7
(imyEvolve
Tree
p1037
(dp1038
g19
I0
sg20
I00
sbsg19
I1
sg25
I01
sg26
g36
sbsg25
I00
sg26
g34
sba(imyEvolve
Tree
p1039
(dp1040
g19
I4
sg14
(imyEvolve
Tree
p1041
(dp1042
g19
I3
sg14
(imyEvolve
Tree
p1043
(dp1044
g7
(imyEvolve
Tree
p1045
(dp1046
g19
I1
sg14
(imyEvolve
Tree
p1047
(dp1048
g19
I0
sg24
F-2.6308202665244176
sg20
I01
sbsg21
(imyEvolve
Tree
p1049
(dp1050
g19
I0
sg24
F-4.306796480894006
sg20
I01
sbsg25
I00
sg26
g27
sbsg19
I2
sg25
I01
sg26
g38
sbsg21
(imyEvolve
Tree
p1051
(dp1052
g19
I2
sg14
(imyEvolve
Tree
p1053
(dp1054
g19
I1
sg14
(imyEvolve
Tree
p1055
(dp1056
g19
I0
sg20
I00
sbsg21
(imyEvolve
Tree
p1057
(dp1058
g19
I0
sg24
F-2.406378317445582
sg20
I01
sbsg25
I00
sg26
g27
sbsg21
(imyEvolve
Tree
p1059
(dp1060
g19
I1
sg14
(imyEvolve
Tree
p1061
(dp1062
g19
I0
sg24
F-2.43018259671035
sg20
I01
sbsg21
(imyEvolve
Tree
p1063
(dp1064
g19
I0
sg24
F-0.2902254338855297
sg20
I01
sbsg25
I00
sg26
g34
sbsg25
I00
sg26
g34
sbsg25
I00
sg26
g27
sbsg21
(imyEvolve
Tree
p1065
(dp1066
g7
(imyEvolve
Tree
p1067
(dp1068
g7
(imyEvolve
Tree
p1069
(dp1070
g7
(imyEvolve
Tree
p1071
(dp1072
g19
I0
sg20
I00
sbsg19
I1
sg25
I01
sg26
g37
sbsg19
I2
sg25
I01
sg26
g38
sbsg19
I3
sg25
I01
sg26
g38
sbsg25
I00
sg26
g34
sba(imyEvolve
Tree
p1073
(dp1074
g14
(imyEvolve
Tree
p1075
(dp1076
g7
(imyEvolve
Tree
p1077
(dp1078
g7
(imyEvolve
Tree
p1079
(dp1080
g14
(imyEvolve
Tree
p1081
(dp1082
g19
I0
sg20
I00
sbsg19
I1
sg21
(imyEvolve
Tree
p1083
(dp1084
g19
I0
sg20
I00
sbsg25
I00
sg26
g27
sbsg19
I2
sg25
I01
sg26
g38
sbsg19
I3
sg25
I01
sg26
g38
sbsg19
I4
sg21
(imyEvolve
Tree
p1085
(dp1086
g14
(imyEvolve
Tree
p1087
(dp1088
g14
(imyEvolve
Tree
p1089
(dp1090
g14
(imyEvolve
Tree
p1091
(dp1092
g19
I0
sg20
I00
sbsg19
I1
sg21
(imyEvolve
Tree
p1093
(dp1094
g19
I0
sg24
F-0.14158704149658874
sg20
I01
sbsg25
I00
sg26
g27
sbsg19
I2
sg21
(imyEvolve
Tree
p1095
(dp1096
g7
(imyEvolve
Tree
p1097
(dp1098
g19
I0
sg24
F0.1111288196329765
sg20
I01
sbsg19
I1
sg25
I01
sg26
g38
sbsg25
I00
sg26
g27
sbsg19
I3
sg21
(imyEvolve
Tree
p1099
(dp1100
g14
(imyEvolve
Tree
p1101
(dp1102
g14
(imyEvolve
Tree
p1103
(dp1104
g19
I0
sg20
I00
sbsg19
I1
sg21
(imyEvolve
Tree
p1105
(dp1106
g19
I0
sg20
I00
sbsg25
I00
sg26
g35
sbsg19
I2
sg21
(imyEvolve
Tree
p1107
(dp1108
g7
(imyEvolve
Tree
p1109
(dp1110
g19
I0
sg20
I00
sbsg19
I1
sg25
I01
sg26
g91
sbsg25
I00
sg26
g35
sbsg25
I00
sg26
g27
sbsg25
I00
sg26
g34
sba(imyEvolve
Tree
p1111
(dp1112
g7
(imyEvolve
Tree
p1113
(dp1114
g7
(imyEvolve
Tree
p1115
(dp1116
g19
I0
sg24
F-2.6364559652754194
sg20
I01
sbsg19
I1
sg25
I01
sg26
g36
sbsg19
I2
sg25
I01
sg26
g38
sba(imyEvolve
Tree
p1117
(dp1118
g7
(imyEvolve
Tree
p1119
(dp1120
g19
I4
sg14
(imyEvolve
Tree
p1121
(dp1122
g19
I3
sg14
(imyEvolve
Tree
p1123
(dp1124
g7
(imyEvolve
Tree
p1125
(dp1126
g19
I1
sg14
(imyEvolve
Tree
p1127
(dp1128
g19
I0
sg20
I00
sbsg21
(imyEvolve
Tree
p1129
(dp1130
g19
I0
sg20
I00
sbsg25
I00
sg26
g34
sbsg19
I2
sg25
I01
sg26
g37
sbsg21
(imyEvolve
Tree
p1131
(dp1132
g19
I2
sg14
(imyEvolve
Tree
p1133
(dp1134
g7
(imyEvolve
Tree
p1135
(dp1136
g19
I0
sg20
I00
sbsg19
I1
sg25
I01
sg26
g38
sbsg21
(imyEvolve
Tree
p1137
(dp1138
g19
I1
sg14
(imyEvolve
Tree
p1139
(dp1140
g19
I0
sg24
F4.232888895696494
sg20
I01
sbsg21
(imyEvolve
Tree
p1141
(dp1142
g19
I0
sg24
F-3.758706427443302
sg20
I01
sbsg25
I00
sg26
g34
sbsg25
I00
sg26
g34
sbsg25
I00
sg26
g34
sbsg21
(imyEvolve
Tree
p1143
(dp1144
g7
(imyEvolve
Tree
p1145
(dp1146
g19
I2
sg14
(imyEvolve
Tree
p1147
(dp1148
g7
(imyEvolve
Tree
p1149
(dp1150
g19
I0
sg20
I00
sbsg19
I1
sg25
I01
sg26
g91
sbsg21
(imyEvolve
Tree
p1151
(dp1152
g19
I1
sg14
(imyEvolve
Tree
p1153
(dp1154
g19
I0
sg24
F4.728949843295922
sg20
I01
sbsg21
(imyEvolve
Tree
p1155
(dp1156
g19
I0
sg20
I00
sbsg25
I00
sg26
g27
sbsg25
I00
sg26
g27
sbsg19
I3
sg25
I01
sg26
g38
sbsg25
I00
sg26
g35
sbsg19
I5
sg25
I01
sg26
g36
sba(imyEvolve
Tree
p1157
(dp1158
g7
(imyEvolve
Tree
p1159
(dp1160
g14
(imyEvolve
Tree
p1161
(dp1162
g14
(imyEvolve
Tree
p1163
(dp1164
g19
I0
sg20
I00
sbsg19
I1
sg21
(imyEvolve
Tree
p1165
(dp1166
g19
I0
sg24
F-3.975322356800314
sg20
I01
sbsg25
I00
sg26
g35
sbsg19
I2
sg21
(imyEvolve
Tree
p1167
(dp1168
g14
(imyEvolve
Tree
p1169
(dp1170
g19
I0
sg24
F-0.5660603997116382
sg20
I01
sbsg19
I1
sg21
(imyEvolve
Tree
p1171
(dp1172
g19
I0
sg20
I00
sbsg25
I00
sg26
g35
sbsg25
I00
sg26
g27
sbsg19
I3
sg25
I01
sg26
g36
sba(imyEvolve
Tree
p1173
(dp1174
g7
(imyEvolve
Tree
p1175
(dp1176
g7
(imyEvolve
Tree
p1177
(dp1178
g7
(imyEvolve
Tree
p1179
(dp1180
g7
(imyEvolve
Tree
p1181
(dp1182
g14
(imyEvolve
Tree
p1183
(dp1184
g19
I0
sg24
F-2.1320685991224497
sg20
I01
sbsg19
I1
sg21
(imyEvolve
Tree
p1185
(dp1186
g19
I0
sg20
I00
sbsg25
I00
sg26
g34
sbsg19
I2
sg25
I01
sg26
g91
sbsg19
I3
sg25
I01
sg26
g36
sbsg19
I4
sg25
I01
sg26
g38
sbsg19
I5
sg25
I01
sg26
g91
sba(imyEvolve
Tree
p1187
(dp1188
g7
(imyEvolve
Tree
p1189
(dp1190
g7
(imyEvolve
Tree
p1191
(dp1192
g19
I0
sg24
F-3.129296090179927
sg20
I01
sbsg19
I1
sg25
I01
sg26
g36
sbsg19
I2
sg25
I01
sg26
g38
sba(imyEvolve
Tree
p1193
(dp1194
g14
(imyEvolve
Tree
p1195
(dp1196
g7
(imyEvolve
Tree
p1197
(dp1198
g19
I0
sg24
F-0.8815828922941593
sg20
I01
sbsg19
I1
sg25
I01
sg26
g91
sbsg19
I2
sg21
(imyEvolve
Tree
p1199
(dp1200
g7
(imyEvolve
Tree
p1201
(dp1202
g19
I0
sg20
I00
sbsg19
I1
sg25
I01
sg26
g37
sbsg25
I00
sg26
g35
sba(imyEvolve
Tree
p1203
(dp1204
g7
(imyEvolve
Tree
p1205
(dp1206
g7
(imyEvolve
Tree
p1207
(dp1208
g19
I0
sg20
I00
sbsg19
I1
sg25
I01
sg26
g38
sbsg19
I2
sg25
I01
sg26
g91
sbaa(lp1209
(imyEvolve
Tree
p1210
(dp1211
g19
I3
sg14
(imyEvolve
Tree
p1212
(dp1213
g19
I2
sg14
(imyEvolve
Tree
p1214
(dp1215
g19
I1
sg14
(imyEvolve
Tree
p1216
(dp1217
g19
I0
sg24
F-0.31158492667712245
sg20
I01
sbsg21
(imyEvolve
Tree
p1218
(dp1219
g19
I0
sg20
I00
sbsg25
I00
sg26
g35
sbsg21
(imyEvolve
Tree
p1220
(dp1221
g19
I1
sg14
(imyEvolve
Tree
p1222
(dp1223
g19
I0
sg24
F0.33792788926589346
sg20
I01
sbsg21
(imyEvolve
Tree
p1224
(dp1225
g19
I0
sg24
F-1.9592135888939497
sg20
I01
sbsg25
I00
sg26
g35
sbsg25
I00
sg26
g34
sbsg21
(imyEvolve
Tree
p1226
(dp1227
g7
(imyEvolve
Tree
p1228
(dp1229
g7
(imyEvolve
Tree
p1230
(dp1231
g19
I0
sg20
I00
sbsg19
I1
sg25
I01
sg26
g38
sbsg19
I2
sg25
I01
sg26
g37
sbsg25
I00
sg26
g34
sba(imyEvolve
Tree
p1232
(dp1233
g7
(imyEvolve
Tree
p1234
(dp1235
g19
I2
sg14
(imyEvolve
Tree
p1236
(dp1237
g7
(imyEvolve
Tree
p1238
(dp1239
g19
I0
sg24
F0.37710657886550436
sg20
I01
sbsg19
I1
sg25
I01
sg26
g38
sbsg21
(imyEvolve
Tree
p1240
(dp1241
g19
I1
sg14
(imyEvolve
Tree
p1242
(dp1243
g19
I0
sg24
F-4.7070426194914425
sg20
I01
sbsg21
(imyEvolve
Tree
p1244
(dp1245
g19
I0
sg24
F1.292526253126355
sg20
I01
sbsg25
I00
sg26
g27
sbsg25
I00
sg26
g34
sbsg19
I3
sg25
I01
sg26
g91
sba(imyEvolve
Tree
p1246
(dp1247
g7
(imyEvolve
Tree
p1248
(dp1249
g19
I1
sg14
(imyEvolve
Tree
p1250
(dp1251
g19
I0
sg20
I00
sbsg21
(imyEvolve
Tree
p1252
(dp1253
g19
I0
sg20
I00
sbsg25
I00
sg26
g27
sbsg19
I2
sg25
I01
sg26
g36
sba(imyEvolve
Tree
p1254
(dp1255
g19
I2
sg14
(imyEvolve
Tree
p1256
(dp1257
g7
(imyEvolve
Tree
p1258
(dp1259
g19
I0
sg24
F-4.180477031980652
sg20
I01
sbsg19
I1
sg25
I01
sg26
g36
sbsg21
(imyEvolve
Tree
p1260
(dp1261
g7
(imyEvolve
Tree
p1262
(dp1263
g19
I0
sg24
F-2.0856275735597283
sg20
I01
sbsg19
I1
sg25
I01
sg26
g91
sbsg25
I00
sg26
g35
sba(imyEvolve
Tree
p1264
(dp1265
g19
I5
sg14
(imyEvolve
Tree
p1266
(dp1267
g7
(imyEvolve
Tree
p1268
(dp1269
g7
(imyEvolve
Tree
p1270
(dp1271
g7
(imyEvolve
Tree
p1272
(dp1273
g7
(imyEvolve
Tree
p1274
(dp1275
g19
I0
sg24
F3.983518816965681
sg20
I01
sbsg19
I1
sg25
I01
sg26
g36
sbsg19
I2
sg25
I01
sg26
g36
sbsg19
I3
sg25
I01
sg26
g37
sbsg19
I4
sg25
I01
sg26
g91
sbsg21
(imyEvolve
Tree
p1276
(dp1277
g7
(imyEvolve
Tree
p1278
(dp1279
g7
(imyEvolve
Tree
p1280
(dp1281
g7
(imyEvolve
Tree
p1282
(dp1283
g19
I1
sg14
(imyEvolve
Tree
p1284
(dp1285
g19
I0
sg20
I00
sbsg21
(imyEvolve
Tree
p1286
(dp1287
g19
I0
sg20
I00
sbsg25
I00
sg26
g35
sbsg19
I2
sg25
I01
sg26
g36
sbsg19
I3
sg25
I01
sg26
g38
sbsg19
I4
sg25
I01
sg26
g91
sbsg25
I00
sg26
g34
sba(imyEvolve
Tree
p1288
(dp1289
g19
I4
sg14
(imyEvolve
Tree
p1290
(dp1291
g19
I3
sg14
(imyEvolve
Tree
p1292
(dp1293
g19
I2
sg14
(imyEvolve
Tree
p1294
(dp1295
g19
I1
sg14
(imyEvolve
Tree
p1296
(dp1297
g19
I0
sg20
I00
sbsg21
(imyEvolve
Tree
p1298
(dp1299
g19
I0
sg24
F-3.8190319520514215
sg20
I01
sbsg25
I00
sg26
g35
sbsg21
(imyEvolve
Tree
p1300
(dp1301
g19
I1
sg14
(imyEvolve
Tree
p1302
(dp1303
g19
I0
sg24
F3.1253339801196507
sg20
I01
sbsg21
(imyEvolve
Tree
p1304
(dp1305
g19
I0
sg20
I00
sbsg25
I00
sg26
g35
sbsg25
I00
sg26
g27
sbsg21
(imyEvolve
Tree
p1306
(dp1307
g7
(imyEvolve
Tree
p1308
(dp1309
g7
(imyEvolve
Tree
p1310
(dp1311
g19
I0
sg24
F0.8539720961910273
sg20
I01
sbsg19
I1
sg25
I01
sg26
g91
sbsg19
I2
sg25
I01
sg26
g38
sbsg25
I00
sg26
g35
sbsg21
(imyEvolve
Tree
p1312
(dp1313
g7
(imyEvolve
Tree
p1314
(dp1315
g19
I2
sg14
(imyEvolve
Tree
p1316
(dp1317
g7
(imyEvolve
Tree
p1318
(dp1319
g19
I0
sg24
F-2.3333548832550877
sg20
I01
sbsg19
I1
sg25
I01
sg26
g91
sbsg21
(imyEvolve
Tree
p1320
(dp1321
g19
I1
sg14
(imyEvolve
Tree
p1322
(dp1323
g19
I0
sg20
I00
sbsg21
(imyEvolve
Tree
p1324
(dp1325
g19
I0
sg20
I00
sbsg25
I00
sg26
g35
sbsg25
I00
sg26
g34
sbsg19
I3
sg25
I01
sg26
g36
sbsg25
I00
sg26
g35
sba(imyEvolve
Tree
p1326
(dp1327
g19
I2
sg14
(imyEvolve
Tree
p1328
(dp1329
g7
(imyEvolve
Tree
p1330
(dp1331
g19
I0
sg24
F-3.119173820942569
sg20
I01
sbsg19
I1
sg25
I01
sg26
g37
sbsg21
(imyEvolve
Tree
p1332
(dp1333
g19
I1
sg14
(imyEvolve
Tree
p1334
(dp1335
g19
I0
sg24
F-1.8000944752970707
sg20
I01
sbsg21
(imyEvolve
Tree
p1336
(dp1337
g19
I0
sg24
F-2.6799836731721385
sg20
I01
sbsg25
I00
sg26
g34
sbsg25
I00
sg26
g35
sba(imyEvolve
Tree
p1338
(dp1339
g7
(imyEvolve
Tree
p1340
(dp1341
g7
(imyEvolve
Tree
p1342
(dp1343
g7
(imyEvolve
Tree
p1344
(dp1345
g7
(imyEvolve
Tree
p1346
(dp1347
g7
(imyEvolve
Tree
p1348
(dp1349
g19
I0
sg24
F-1.0213522100549155
sg20
I01
sbsg19
I1
sg25
I01
sg26
g37
sbsg19
I2
sg25
I01
sg26
g38
sbsg19
I3
sg25
I01
sg26
g91
sbsg19
I4
sg25
I01
sg26
g37
sbsg19
I5
sg25
I01
sg26
g37
sba(imyEvolve
Tree
p1350
(dp1351
g19
I5
sg14
(imyEvolve
Tree
p1352
(dp1353
g19
I4
sg14
(imyEvolve
Tree
p1354
(dp1355
g7
(imyEvolve
Tree
p1356
(dp1357
g19
I2
sg14
(imyEvolve
Tree
p1358
(dp1359
g19
I1
sg14
(imyEvolve
Tree
p1360
(dp1361
g19
I0
sg24
F1.9298934529404823
sg20
I01
sbsg21
(imyEvolve
Tree
p1362
(dp1363
g19
I0
sg20
I00
sbsg25
I00
sg26
g34
sbsg21
(imyEvolve
Tree
p1364
(dp1365
g19
I1
sg14
(imyEvolve
Tree
p1366
(dp1367
g19
I0
sg24
F1.0484629614307783
sg20
I01
sbsg21
(imyEvolve
Tree
p1368
(dp1369
g19
I0
sg20
I00
sbsg25
I00
sg26
g27
sbsg25
I00
sg26
g27
sbsg19
I3
sg25
I01
sg26
g37
sbsg21
(imyEvolve
Tree
p1370
(dp1371
g7
(imyEvolve
Tree
p1372
(dp1373
g19
I2
sg14
(imyEvolve
Tree
p1374
(dp1375
g7
(imyEvolve
Tree
p1376
(dp1377
g19
I0
sg24
F0.18377047527621748
sg20
I01
sbsg19
I1
sg25
I01
sg26
g38
sbsg21
(imyEvolve
Tree
p1378
(dp1379
g19
I1
sg14
(imyEvolve
Tree
p1380
(dp1381
g19
I0
sg20
I00
sbsg21
(imyEvolve
Tree
p1382
(dp1383
g19
I0
sg20
I00
sbsg25
I00
sg26
g27
sbsg25
I00
sg26
g27
sbsg19
I3
sg25
I01
sg26
g36
sbsg25
I00
sg26
g27
sbsg21
(imyEvolve
Tree
p1384
(dp1385
g19
I4
sg14
(imyEvolve
Tree
p1386
(dp1387
g19
I3
sg14
(imyEvolve
Tree
p1388
(dp1389
g7
(imyEvolve
Tree
p1390
(dp1391
g19
I1
sg14
(imyEvolve
Tree
p1392
(dp1393
g19
I0
sg20
I00
sbsg21
(imyEvolve
Tree
p1394
(dp1395
g19
I0
sg24
F1.3356538626835608
sg20
I01
sbsg25
I00
sg26
g34
sbsg19
I2
sg25
I01
sg26
g91
sbsg21
(imyEvolve
Tree
p1396
(dp1397
g19
I2
sg14
(imyEvolve
Tree
p1398
(dp1399
g7
(imyEvolve
Tree
p1400
(dp1401
g19
I0
sg24
F-0.14077376380370943
sg20
I01
sbsg19
I1
sg25
I01
sg26
g37
sbsg21
(imyEvolve
Tree
p1402
(dp1403
g7
(imyEvolve
Tree
p1404
(dp1405
g19
I0
sg24
F2.2929346391680436
sg20
I01
sbsg19
I1
sg25
I01
sg26
g37
sbsg25
I00
sg26
g34
sbsg25
I00
sg26
g27
sbsg21
(imyEvolve
Tree
p1406
(dp1407
g7
(imyEvolve
Tree
p1408
(dp1409
g19
I2
sg14
(imyEvolve
Tree
p1410
(dp1411
g19
I1
sg14
(imyEvolve
Tree
p1412
(dp1413
g19
I0
sg24
F-4.114831787364105
sg20
I01
sbsg21
(imyEvolve
Tree
p1414
(dp1415
g19
I0
sg20
I00
sbsg25
I00
sg26
g27
sbsg21
(imyEvolve
Tree
p1416
(dp1417
g19
I1
sg14
(imyEvolve
Tree
p1418
(dp1419
g19
I0
sg24
F-3.31090308456105
sg20
I01
sbsg21
(imyEvolve
Tree
p1420
(dp1421
g19
I0
sg24
F3.126935352323038
sg20
I01
sbsg25
I00
sg26
g35
sbsg25
I00
sg26
g35
sbsg19
I3
sg25
I01
sg26
g38
sbsg25
I00
sg26
g27
sbsg25
I00
sg26
g35
sba(imyEvolve
Tree
p1422
(dp1423
g19
I2
sg14
(imyEvolve
Tree
p1424
(dp1425
g7
(imyEvolve
Tree
p1426
(dp1427
g19
I0
sg24
F-1.7371322019071256
sg20
I01
sbsg19
I1
sg25
I01
sg26
g91
sbsg21
(imyEvolve
Tree
p1428
(dp1429
g19
I1
sg14
(imyEvolve
Tree
p1430
(dp1431
g19
I0
sg24
F-4.688599852942338
sg20
I01
sbsg21
(imyEvolve
Tree
p1432
(dp1433
g19
I0
sg24
F-0.5872746616025992
sg20
I01
sbsg25
I00
sg26
g27
sbsg25
I00
sg26
g35
sba(imyEvolve
Tree
p1434
(dp1435
g7
(imyEvolve
Tree
p1436
(dp1437
g7
(imyEvolve
Tree
p1438
(dp1439
g19
I0
sg24
F3.673976442104223
sg20
I01
sbsg19
I1
sg25
I01
sg26
g37
sbsg19
I2
sg25
I01
sg26
g91
sba(imyEvolve
Tree
p1440
(dp1441
g19
I2
sg14
(imyEvolve
Tree
p1442
(dp1443
g7
(imyEvolve
Tree
p1444
(dp1445
g19
I0
sg20
I00
sbsg19
I1
sg25
I01
sg26
g37
sbsg21
(imyEvolve
Tree
p1446
(dp1447
g19
I1
sg14
(imyEvolve
Tree
p1448
(dp1449
g19
I0
sg24
F-1.4529443522969974
sg20
I01
sbsg21
(imyEvolve
Tree
p1450
(dp1451
g19
I0
sg20
I00
sbsg25
I00
sg26
g27
sbsg25
I00
sg26
g35
sba(imyEvolve
Tree
p1452
(dp1453
g7
(imyEvolve
Tree
p1454
(dp1455
g7
(imyEvolve
Tree
p1456
(dp1457
g7
(imyEvolve
Tree
p1458
(dp1459
g19
I0
sg24
F-2.6634471432119255
sg20
I01
sbsg19
I1
sg25
I01
sg26
g38
sbsg19
I2
sg25
I01
sg26
g36
sbsg19
I3
sg25
I01
sg26
g37
sba(imyEvolve
Tree
p1460
(dp1461
g19
I4
sg14
(imyEvolve
Tree
p1462
(dp1463
g19
I3
sg14
(imyEvolve
Tree
p1464
(dp1465
g7
(imyEvolve
Tree
p1466
(dp1467
g19
I1
sg14
(imyEvolve
Tree
p1468
(dp1469
g19
I0
sg20
I00
sbsg21
(imyEvolve
Tree
p1470
(dp1471
g19
I0
sg24
F-1.3028463036434355
sg20
I01
sbsg25
I00
sg26
g35
sbsg19
I2
sg25
I01
sg26
g36
sbsg21
(imyEvolve
Tree
p1472
(dp1473
g7
(imyEvolve
Tree
p1474
(dp1475
g19
I1
sg14
(imyEvolve
Tree
p1476
(dp1477
g19
I0
sg24
F-3.0128382407037835
sg20
I01
sbsg21
(imyEvolve
Tree
p1478
(dp1479
g19
I0
sg20
I00
sbsg25
I00
sg26
g34
sbsg19
I2
sg25
I01
sg26
g37
sbsg25
I00
sg26
g34
sbsg21
(imyEvolve
Tree
p1480
(dp1481
g7
(imyEvolve
Tree
p1482
(dp1483
g7
(imyEvolve
Tree
p1484
(dp1485
g7
(imyEvolve
Tree
p1486
(dp1487
g19
I0
sg24
F1.055097787814553
sg20
I01
sbsg19
I1
sg25
I01
sg26
g37
sbsg19
I2
sg25
I01
sg26
g38
sbsg19
I3
sg25
I01
sg26
g91
sbsg25
I00
sg26
g27
sbaasS'alpha'
p1488
F0.007471123144049652
sS'fitness'
p1489
cnumpy.core.multiarray
scalar
p1490
(cnumpy
dtype
p1491
(S'f8'
p1492
I0
I1
tp1493
Rp1494
(I3
S'<'
p1495
NNNI-1
I-1
I0
tp1496
bS'\x00\x90\x87\x85\xaaz=\xbf'
p1497
tp1498
Rp1499
sS'weightSharing'
p1500
(lp1501
I00
asS'fitnessValid'
p1502
I00
sS'resolution'
p1503
I70
sb.