(imyEvolve
Individual
p0
(dp1
S'funcs'
p2
(lp3
(lp4
(imyEvolve
Tree
p5
(dp6
S'left'
p7
(imyEvolve
Tree
p8
(dp9
S'below'
p10
(imyEvolve
Tree
p11
(dp12
S'depth'
p13
I0
sS'isConstant'
p14
I00
sbsg13
I1
sS'single'
p15
I01
sS'op'
p16
cmyEvolve
square
p17
sbsg13
I2
sS'right'
p18
(imyEvolve
Tree
p19
(dp20
g7
(imyEvolve
Tree
p21
(dp22
g13
I0
sS'constant'
p23
F-1.5327513289949044
sg14
I01
sbsg13
I1
sg18
(imyEvolve
Tree
p24
(dp25
g13
I0
sg23
F0.9729893646949375
sg14
I01
sbsg15
I00
sg16
coperator
mul
p26
sbsg15
I00
sg16
coperator
add
p27
sba(imyEvolve
Tree
p28
(dp29
g13
I4
sg7
(imyEvolve
Tree
p30
(dp31
g10
(imyEvolve
Tree
p32
(dp33
g13
I2
sg7
(imyEvolve
Tree
p34
(dp35
g13
I1
sg7
(imyEvolve
Tree
p36
(dp37
g13
I0
sg23
F-1.2601515500297333
sg14
I01
sbsg18
(imyEvolve
Tree
p38
(dp39
g13
I0
sg23
F0.6318378593670335
sg14
I01
sbsg15
I00
sg16
coperator
sub
p40
sbsg18
(imyEvolve
Tree
p41
(dp42
g10
(imyEvolve
Tree
p43
(dp44
g13
I0
sg23
F-2.1367907856329227
sg14
I01
sbsg13
I1
sg15
I01
sg16
cmath
cos
p45
sbsg15
I00
sg16
g27
sbsg13
I3
sg15
I01
sg16
g45
sbsg18
(imyEvolve
Tree
p46
(dp47
g13
I3
sg7
(imyEvolve
Tree
p48
(dp49
g13
I2
sg7
(imyEvolve
Tree
p50
(dp51
g10
(imyEvolve
Tree
p52
(dp53
g13
I0
sg23
F2.2670672950905164
sg14
I01
sbsg13
I1
sg15
I01
sg16
cmath
sin
p54
sbsg18
(imyEvolve
Tree
p55
(dp56
g13
I1
sg7
(imyEvolve
Tree
p57
(dp58
g13
I0
sg14
I00
sbsg18
(imyEvolve
Tree
p59
(dp60
g13
I0
sg23
F3.340803503203933
sg14
I01
sbsg15
I00
sg16
g27
sbsg15
I00
sg16
g26
sbsg18
(imyEvolve
Tree
p61
(dp62
g10
(imyEvolve
Tree
p63
(dp64
g10
(imyEvolve
Tree
p65
(dp66
g13
I0
sg14
I00
sbsg13
I1
sg15
I01
sg16
g17
sbsg13
I2
sg15
I01
sg16
g17
sbsg15
I00
sg16
g26
sbsg15
I00
sg16
g26
sba(imyEvolve
Tree
p67
(dp68
g10
(imyEvolve
Tree
p69
(dp70
g7
(imyEvolve
Tree
p71
(dp72
g7
(imyEvolve
Tree
p73
(dp74
g10
(imyEvolve
Tree
p75
(dp76
g13
I0
sg14
I00
sbsg13
I1
sg15
I01
sg16
g54
sbsg13
I2
sg18
(imyEvolve
Tree
p77
(dp78
g10
(imyEvolve
Tree
p79
(dp80
g13
I0
sg14
I00
sbsg13
I1
sg15
I01
sg16
g17
sbsg15
I00
sg16
g26
sbsg13
I3
sg18
(imyEvolve
Tree
p81
(dp82
g7
(imyEvolve
Tree
p83
(dp84
g7
(imyEvolve
Tree
p85
(dp86
g13
I0
sg14
I00
sbsg13
I1
sg18
(imyEvolve
Tree
p87
(dp88
g13
I0
sg23
F-4.090391860496188
sg14
I01
sbsg15
I00
sg16
g40
sbsg13
I2
sg18
(imyEvolve
Tree
p89
(dp90
g10
(imyEvolve
Tree
p91
(dp92
g13
I0
sg23
F2.4475927049836157
sg14
I01
sbsg13
I1
sg15
I01
sg16
g45
sbsg15
I00
sg16
g40
sbsg15
I00
sg16
g26
sbsg13
I4
sg15
I01
sg16
g54
sba(imyEvolve
Tree
p93
(dp94
g10
(imyEvolve
Tree
p95
(dp96
g10
(imyEvolve
Tree
p97
(dp98
g10
(imyEvolve
Tree
p99
(dp100
g10
(imyEvolve
Tree
p101
(dp102
g7
(imyEvolve
Tree
p103
(dp104
g13
I0
sg14
I00
sbsg13
I1
sg18
(imyEvolve
Tree
p105
(dp106
g13
I0
sg23
F0.06780091458725135
sg14
I01
sbsg15
I00
sg16
g40
sbsg13
I2
sg15
I01
sg16
cmyEvolve
absSqrt
p107
sbsg13
I3
sg15
I01
sg16
g54
sbsg13
I4
sg15
I01
sg16
g45
sbsg13
I5
sg15
I01
sg16
g107
sba(imyEvolve
Tree
p108
(dp109
g13
I4
sg7
(imyEvolve
Tree
p110
(dp111
g10
(imyEvolve
Tree
p112
(dp113
g13
I2
sg7
(imyEvolve
Tree
p114
(dp115
g13
I1
sg7
(imyEvolve
Tree
p116
(dp117
g13
I0
sg23
F4.742559705986583
sg14
I01
sbsg18
(imyEvolve
Tree
p118
(dp119
g13
I0
sg23
F0.38827637784241364
sg14
I01
sbsg15
I00
sg16
g40
sbsg18
(imyEvolve
Tree
p120
(dp121
g13
I1
sg7
(imyEvolve
Tree
p122
(dp123
g13
I0
sg14
I00
sbsg18
(imyEvolve
Tree
p124
(dp125
g13
I0
sg14
I00
sbsg15
I00
sg16
g40
sbsg15
I00
sg16
g27
sbsg13
I3
sg15
I01
sg16
g17
sbsg18
(imyEvolve
Tree
p126
(dp127
g10
(imyEvolve
Tree
p128
(dp129
g10
(imyEvolve
Tree
p130
(dp131
g13
I1
sg7
(imyEvolve
Tree
p132
(dp133
g13
I0
sg23
F-3.6658341852118026
sg14
I01
sbsg18
(imyEvolve
Tree
p134
(dp135
g13
I0
sg23
F3.8884912594377266
sg14
I01
sbsg15
I00
sg16
g27
sbsg13
I2
sg15
I01
sg16
g107
sbsg13
I3
sg15
I01
sg16
g45
sbsg15
I00
sg16
g27
sba(imyEvolve
Tree
p136
(dp137
g7
(imyEvolve
Tree
p138
(dp139
g10
(imyEvolve
Tree
p140
(dp141
g10
(imyEvolve
Tree
p142
(dp143
g7
(imyEvolve
Tree
p144
(dp145
g13
I0
sg23
F-3.8996145352988467
sg14
I01
sbsg13
I1
sg18
(imyEvolve
Tree
p146
(dp147
g13
I0
sg23
F-2.8168975876226234
sg14
I01
sbsg15
I00
sg16
g40
sbsg13
I2
sg15
I01
sg16
g45
sbsg13
I3
sg15
I01
sg16
g17
sbsg13
I4
sg18
(imyEvolve
Tree
p148
(dp149
g7
(imyEvolve
Tree
p150
(dp151
g7
(imyEvolve
Tree
p152
(dp153
g7
(imyEvolve
Tree
p154
(dp155
g13
I0
sg23
F-1.1818719150243986
sg14
I01
sbsg13
I1
sg18
(imyEvolve
Tree
p156
(dp157
g13
I0
sg14
I00
sbsg15
I00
sg16
g26
sbsg13
I2
sg18
(imyEvolve
Tree
p158
(dp159
g7
(imyEvolve
Tree
p160
(dp161
g13
I0
sg23
F-0.266751876691278
sg14
I01
sbsg13
I1
sg18
(imyEvolve
Tree
p162
(dp163
g13
I0
sg14
I00
sbsg15
I00
sg16
g40
sbsg15
I00
sg16
g27
sbsg13
I3
sg18
(imyEvolve
Tree
p164
(dp165
g7
(imyEvolve
Tree
p166
(dp167
g10
(imyEvolve
Tree
p168
(dp169
g13
I0
sg14
I00
sbsg13
I1
sg15
I01
sg16
g45
sbsg13
I2
sg18
(imyEvolve
Tree
p170
(dp171
g10
(imyEvolve
Tree
p172
(dp173
g13
I0
sg23
F0.5789172615681712
sg14
I01
sbsg13
I1
sg15
I01
sg16
g17
sbsg15
I00
sg16
g40
sbsg15
I00
sg16
g27
sbsg15
I00
sg16
g40
sba(imyEvolve
Tree
p174
(dp175
g7
(imyEvolve
Tree
p176
(dp177
g7
(imyEvolve
Tree
p178
(dp179
g13
I0
sg14
I00
sbsg13
I1
sg18
(imyEvolve
Tree
p180
(dp181
g13
I0
sg23
F0.7498203774778833
sg14
I01
sbsg15
I00
sg16
g27
sbsg13
I2
sg18
(imyEvolve
Tree
p182
(dp183
g10
(imyEvolve
Tree
p184
(dp185
g13
I0
sg23
F2.3500615334230233
sg14
I01
sbsg13
I1
sg15
I01
sg16
g54
sbsg15
I00
sg16
g26
sba(imyEvolve
Tree
p186
(dp187
g10
(imyEvolve
Tree
p188
(dp189
g10
(imyEvolve
Tree
p190
(dp191
g10
(imyEvolve
Tree
p192
(dp193
g13
I0
sg14
I00
sbsg13
I1
sg15
I01
sg16
g54
sbsg13
I2
sg15
I01
sg16
g54
sbsg13
I3
sg15
I01
sg16
g107
sba(imyEvolve
Tree
p194
(dp195
g10
(imyEvolve
Tree
p196
(dp197
g7
(imyEvolve
Tree
p198
(dp199
g7
(imyEvolve
Tree
p200
(dp201
g13
I0
sg23
F-0.03993167120625429
sg14
I01
sbsg13
I1
sg18
(imyEvolve
Tree
p202
(dp203
g13
I0
sg23
F-0.5149591048081525
sg14
I01
sbsg15
I00
sg16
g40
sbsg13
I2
sg18
(imyEvolve
Tree
p204
(dp205
g7
(imyEvolve
Tree
p206
(dp207
g13
I0
sg23
F2.8233851811766097
sg14
I01
sbsg13
I1
sg18
(imyEvolve
Tree
p208
(dp209
g13
I0
sg23
F3.370592278098014
sg14
I01
sbsg15
I00
sg16
g26
sbsg15
I00
sg16
g40
sbsg13
I3
sg15
I01
sg16
g107
sba(imyEvolve
Tree
p210
(dp211
g10
(imyEvolve
Tree
p212
(dp213
g7
(imyEvolve
Tree
p214
(dp215
g10
(imyEvolve
Tree
p216
(dp217
g13
I0
sg23
F2.0522991062125326
sg14
I01
sbsg13
I1
sg15
I01
sg16
g45
sbsg13
I2
sg18
(imyEvolve
Tree
p218
(dp219
g10
(imyEvolve
Tree
p220
(dp221
g13
I0
sg14
I00
sbsg13
I1
sg15
I01
sg16
g54
sbsg15
I00
sg16
g40
sbsg13
I3
sg15
I01
sg16
g54
sba(imyEvolve
Tree
p222
(dp223
g7
(imyEvolve
Tree
p224
(dp225
g10
(imyEvolve
Tree
p226
(dp227
g13
I0
sg23
F-2.730835104919187
sg14
I01
sbsg13
I1
sg15
I01
sg16
g54
sbsg13
I2
sg18
(imyEvolve
Tree
p228
(dp229
g7
(imyEvolve
Tree
p230
(dp231
g13
I0
sg14
I00
sbsg13
I1
sg18
(imyEvolve
Tree
p232
(dp233
g13
I0
sg14
I00
sbsg15
I00
sg16
g27
sbsg15
I00
sg16
g40
sba(imyEvolve
Tree
p234
(dp235
g10
(imyEvolve
Tree
p236
(dp237
g10
(imyEvolve
Tree
p238
(dp239
g10
(imyEvolve
Tree
p240
(dp241
g13
I0
sg23
F3.293746312949814
sg14
I01
sbsg13
I1
sg15
I01
sg16
g17
sbsg13
I2
sg15
I01
sg16
g45
sbsg13
I3
sg15
I01
sg16
g45
sba(imyEvolve
Tree
p242
(dp243
g10
(imyEvolve
Tree
p244
(dp245
g10
(imyEvolve
Tree
p246
(dp247
g10
(imyEvolve
Tree
p248
(dp249
g10
(imyEvolve
Tree
p250
(dp251
g13
I0
sg14
I00
sbsg13
I1
sg15
I01
sg16
g107
sbsg13
I2
sg15
I01
sg16
g107
sbsg13
I3
sg15
I01
sg16
g107
sbsg13
I4
sg15
I01
sg16
g54
sba(imyEvolve
Tree
p252
(dp253
g10
(imyEvolve
Tree
p254
(dp255
g10
(imyEvolve
Tree
p256
(dp257
g10
(imyEvolve
Tree
p258
(dp259
g13
I0
sg14
I00
sbsg13
I1
sg15
I01
sg16
g54
sbsg13
I2
sg15
I01
sg16
g17
sbsg13
I3
sg15
I01
sg16
g54
sba(imyEvolve
Tree
p260
(dp261
g10
(imyEvolve
Tree
p262
(dp263
g7
(imyEvolve
Tree
p264
(dp265
g10
(imyEvolve
Tree
p266
(dp267
g10
(imyEvolve
Tree
p268
(dp269
g13
I0
sg23
F1.2673741460726085
sg14
I01
sbsg13
I1
sg15
I01
sg16
g54
sbsg13
I2
sg15
I01
sg16
g17
sbsg13
I3
sg18
(imyEvolve
Tree
p270
(dp271
g7
(imyEvolve
Tree
p272
(dp273
g7
(imyEvolve
Tree
p274
(dp275
g13
I0
sg14
I00
sbsg13
I1
sg18
(imyEvolve
Tree
p276
(dp277
g13
I0
sg23
F1.1813954358826475
sg14
I01
sbsg15
I00
sg16
g40
sbsg13
I2
sg18
(imyEvolve
Tree
p278
(dp279
g10
(imyEvolve
Tree
p280
(dp281
g13
I0
sg23
F1.9851409186653566
sg14
I01
sbsg13
I1
sg15
I01
sg16
g45
sbsg15
I00
sg16
g26
sbsg15
I00
sg16
g26
sbsg13
I4
sg15
I01
sg16
g107
sba(imyEvolve
Tree
p282
(dp283
g10
(imyEvolve
Tree
p284
(dp285
g7
(imyEvolve
Tree
p286
(dp287
g13
I0
sg14
I00
sbsg13
I1
sg18
(imyEvolve
Tree
p288
(dp289
g13
I0
sg23
F-3.5713627831542105
sg14
I01
sbsg15
I00
sg16
g26
sbsg13
I2
sg15
I01
sg16
g107
sba(imyEvolve
Tree
p290
(dp291
g10
(imyEvolve
Tree
p292
(dp293
g7
(imyEvolve
Tree
p294
(dp295
g10
(imyEvolve
Tree
p296
(dp297
g10
(imyEvolve
Tree
p298
(dp299
g13
I0
sg23
F4.621639351528035
sg14
I01
sbsg13
I1
sg15
I01
sg16
g17
sbsg13
I2
sg15
I01
sg16
g17
sbsg13
I3
sg18
(imyEvolve
Tree
p300
(dp301
g10
(imyEvolve
Tree
p302
(dp303
g7
(imyEvolve
Tree
p304
(dp305
g13
I0
sg14
I00
sbsg13
I1
sg18
(imyEvolve
Tree
p306
(dp307
g13
I0
sg14
I00
sbsg15
I00
sg16
g26
sbsg13
I2
sg15
I01
sg16
g45
sbsg15
I00
sg16
g40
sbsg13
I4
sg15
I01
sg16
g45
sba(imyEvolve
Tree
p308
(dp309
g7
(imyEvolve
Tree
p310
(dp311
g10
(imyEvolve
Tree
p312
(dp313
g7
(imyEvolve
Tree
p314
(dp315
g7
(imyEvolve
Tree
p316
(dp317
g13
I0
sg23
F-2.333072058415188
sg14
I01
sbsg13
I1
sg18
(imyEvolve
Tree
p318
(dp319
g13
I0
sg14
I00
sbsg15
I00
sg16
g26
sbsg13
I2
sg18
(imyEvolve
Tree
p320
(dp321
g10
(imyEvolve
Tree
p322
(dp323
g13
I0
sg14
I00
sbsg13
I1
sg15
I01
sg16
g45
sbsg15
I00
sg16
g40
sbsg13
I3
sg15
I01
sg16
g45
sbsg13
I4
sg18
(imyEvolve
Tree
p324
(dp325
g7
(imyEvolve
Tree
p326
(dp327
g10
(imyEvolve
Tree
p328
(dp329
g10
(imyEvolve
Tree
p330
(dp331
g13
I0
sg14
I00
sbsg13
I1
sg15
I01
sg16
g45
sbsg13
I2
sg15
I01
sg16
g17
sbsg13
I3
sg18
(imyEvolve
Tree
p332
(dp333
g7
(imyEvolve
Tree
p334
(dp335
g10
(imyEvolve
Tree
p336
(dp337
g13
I0
sg23
F-1.1860108469205057
sg14
I01
sbsg13
I1
sg15
I01
sg16
g54
sbsg13
I2
sg18
(imyEvolve
Tree
p338
(dp339
g7
(imyEvolve
Tree
p340
(dp341
g13
I0
sg14
I00
sbsg13
I1
sg18
(imyEvolve
Tree
p342
(dp343
g13
I0
sg14
I00
sbsg15
I00
sg16
g26
sbsg15
I00
sg16
g26
sbsg15
I00
sg16
g26
sbsg15
I00
sg16
g40
sba(imyEvolve
Tree
p344
(dp345
g7
(imyEvolve
Tree
p346
(dp347
g7
(imyEvolve
Tree
p348
(dp349
g7
(imyEvolve
Tree
p350
(dp351
g7
(imyEvolve
Tree
p352
(dp353
g13
I0
sg23
F-1.3856725040700613
sg14
I01
sbsg13
I1
sg18
(imyEvolve
Tree
p354
(dp355
g13
I0
sg23
F-2.6666571928058036
sg14
I01
sbsg15
I00
sg16
g40
sbsg13
I2
sg18
(imyEvolve
Tree
p356
(dp357
g7
(imyEvolve
Tree
p358
(dp359
g13
I0
sg23
F4.74265453836958
sg14
I01
sbsg13
I1
sg18
(imyEvolve
Tree
p360
(dp361
g13
I0
sg14
I00
sbsg15
I00
sg16
g27
sbsg15
I00
sg16
g40
sbsg13
I3
sg18
(imyEvolve
Tree
p362
(dp363
g7
(imyEvolve
Tree
p364
(dp365
g7
(imyEvolve
Tree
p366
(dp367
g13
I0
sg23
F-4.571888899603472
sg14
I01
sbsg13
I1
sg18
(imyEvolve
Tree
p368
(dp369
g13
I0
sg14
I00
sbsg15
I00
sg16
g26
sbsg13
I2
sg18
(imyEvolve
Tree
p370
(dp371
g7
(imyEvolve
Tree
p372
(dp373
g13
I0
sg14
I00
sbsg13
I1
sg18
(imyEvolve
Tree
p374
(dp375
g13
I0
sg23
F-4.238122781513663
sg14
I01
sbsg15
I00
sg16
g40
sbsg15
I00
sg16
g27
sbsg15
I00
sg16
g40
sbsg13
I4
sg18
(imyEvolve
Tree
p376
(dp377
g10
(imyEvolve
Tree
p378
(dp379
g7
(imyEvolve
Tree
p380
(dp381
g10
(imyEvolve
Tree
p382
(dp383
g13
I0
sg23
F-4.899822936894786
sg14
I01
sbsg13
I1
sg15
I01
sg16
g45
sbsg13
I2
sg18
(imyEvolve
Tree
p384
(dp385
g10
(imyEvolve
Tree
p386
(dp387
g13
I0
sg23
F0.8133443715456803
sg14
I01
sbsg13
I1
sg15
I01
sg16
g45
sbsg15
I00
sg16
g26
sbsg13
I3
sg15
I01
sg16
g45
sbsg15
I00
sg16
g27
sbaa(lp388
(imyEvolve
Tree
p389
(dp390
g10
(imyEvolve
Tree
p391
(dp392
g7
(imyEvolve
Tree
p393
(dp394
g7
(imyEvolve
Tree
p395
(dp396
g10
(imyEvolve
Tree
p397
(dp398
g13
I0
sg23
F-0.5177396789217017
sg14
I01
sbsg13
I1
sg15
I01
sg16
g107
sbsg13
I2
sg18
(imyEvolve
Tree
p399
(dp400
g10
(imyEvolve
Tree
p401
(dp402
g13
I0
sg23
F-2.9952610245265
sg14
I01
sbsg13
I1
sg15
I01
sg16
g107
sbsg15
I00
sg16
g26
sbsg13
I3
sg18
(imyEvolve
Tree
p403
(dp404
g7
(imyEvolve
Tree
p405
(dp406
g10
(imyEvolve
Tree
p407
(dp408
g13
I0
sg23
F4.85832124502879
sg14
I01
sbsg13
I1
sg15
I01
sg16
g54
sbsg13
I2
sg18
(imyEvolve
Tree
p409
(dp410
g10
(imyEvolve
Tree
p411
(dp412
g13
I0
sg14
I00
sbsg13
I1
sg15
I01
sg16
g17
sbsg15
I00
sg16
g40
sbsg15
I00
sg16
g40
sbsg13
I4
sg15
I01
sg16
g107
sba(imyEvolve
Tree
p413
(dp414
g7
(imyEvolve
Tree
p415
(dp416
g10
(imyEvolve
Tree
p417
(dp418
g13
I0
sg23
F-4.102018097452792
sg14
I01
sbsg13
I1
sg15
I01
sg16
g54
sbsg13
I2
sg18
(imyEvolve
Tree
p419
(dp420
g10
(imyEvolve
Tree
p421
(dp422
g13
I0
sg23
F-1.103799335200696
sg14
I01
sbsg13
I1
sg15
I01
sg16
g17
sbsg15
I00
sg16
g40
sba(imyEvolve
Tree
p423
(dp424
g13
I2
sg7
(imyEvolve
Tree
p425
(dp426
g13
I1
sg7
(imyEvolve
Tree
p427
(dp428
g13
I0
sg14
I00
sbsg18
(imyEvolve
Tree
p429
(dp430
g13
I0
sg23
F-4.83117397185282
sg14
I01
sbsg15
I00
sg16
g40
sbsg18
(imyEvolve
Tree
p431
(dp432
g10
(imyEvolve
Tree
p433
(dp434
g13
I0
sg23
F1.3440668329749244
sg14
I01
sbsg13
I1
sg15
I01
sg16
g54
sbsg15
I00
sg16
g27
sba(imyEvolve
Tree
p435
(dp436
g7
(imyEvolve
Tree
p437
(dp438
g10
(imyEvolve
Tree
p439
(dp440
g7
(imyEvolve
Tree
p441
(dp442
g10
(imyEvolve
Tree
p443
(dp444
g13
I0
sg14
I00
sbsg13
I1
sg15
I01
sg16
g107
sbsg13
I2
sg18
(imyEvolve
Tree
p445
(dp446
g7
(imyEvolve
Tree
p447
(dp448
g13
I0
sg23
F-1.3856565181639366
sg14
I01
sbsg13
I1
sg18
(imyEvolve
Tree
p449
(dp450
g13
I0
sg14
I00
sbsg15
I00
sg16
g26
sbsg15
I00
sg16
g40
sbsg13
I3
sg15
I01
sg16
g54
sbsg13
I4
sg18
(imyEvolve
Tree
p451
(dp452
g7
(imyEvolve
Tree
p453
(dp454
g10
(imyEvolve
Tree
p455
(dp456
g10
(imyEvolve
Tree
p457
(dp458
g13
I0
sg23
F-4.664571699332604
sg14
I01
sbsg13
I1
sg15
I01
sg16
g17
sbsg13
I2
sg15
I01
sg16
g45
sbsg13
I3
sg18
(imyEvolve
Tree
p459
(dp460
g7
(imyEvolve
Tree
p461
(dp462
g7
(imyEvolve
Tree
p463
(dp464
g13
I0
sg14
I00
sbsg13
I1
sg18
(imyEvolve
Tree
p465
(dp466
g13
I0
sg23
F4.061115404924191
sg14
I01
sbsg15
I00
sg16
g40
sbsg13
I2
sg18
(imyEvolve
Tree
p467
(dp468
g7
(imyEvolve
Tree
p469
(dp470
g13
I0
sg14
I00
sbsg13
I1
sg18
(imyEvolve
Tree
p471
(dp472
g13
I0
sg23
F-0.8345457042793845
sg14
I01
sbsg15
I00
sg16
g27
sbsg15
I00
sg16
g27
sbsg15
I00
sg16
g27
sbsg15
I00
sg16
g27
sba(imyEvolve
Tree
p473
(dp474
g7
(imyEvolve
Tree
p475
(dp476
g7
(imyEvolve
Tree
p477
(dp478
g10
(imyEvolve
Tree
p479
(dp480
g7
(imyEvolve
Tree
p481
(dp482
g10
(imyEvolve
Tree
p483
(dp484
g13
I0
sg14
I00
sbsg13
I1
sg15
I01
sg16
g54
sbsg13
I2
sg18
(imyEvolve
Tree
p485
(dp486
g10
(imyEvolve
Tree
p487
(dp488
g13
I0
sg23
F-1.495007676420422
sg14
I01
sbsg13
I1
sg15
I01
sg16
g17
sbsg15
I00
sg16
g27
sbsg13
I3
sg15
I01
sg16
g45
sbsg13
I4
sg18
(imyEvolve
Tree
p489
(dp490
g7
(imyEvolve
Tree
p491
(dp492
g10
(imyEvolve
Tree
p493
(dp494
g10
(imyEvolve
Tree
p495
(dp496
g13
I0
sg23
F-1.0584899895778257
sg14
I01
sbsg13
I1
sg15
I01
sg16
g45
sbsg13
I2
sg15
I01
sg16
g54
sbsg13
I3
sg18
(imyEvolve
Tree
p497
(dp498
g10
(imyEvolve
Tree
p499
(dp500
g7
(imyEvolve
Tree
p501
(dp502
g13
I0
sg14
I00
sbsg13
I1
sg18
(imyEvolve
Tree
p503
(dp504
g13
I0
sg14
I00
sbsg15
I00
sg16
g40
sbsg13
I2
sg15
I01
sg16
g54
sbsg15
I00
sg16
g40
sbsg15
I00
sg16
g40
sbsg13
I5
sg18
(imyEvolve
Tree
p505
(dp506
g7
(imyEvolve
Tree
p507
(dp508
g10
(imyEvolve
Tree
p509
(dp510
g10
(imyEvolve
Tree
p511
(dp512
g7
(imyEvolve
Tree
p513
(dp514
g13
I0
sg23
F-4.053300571933121
sg14
I01
sbsg13
I1
sg18
(imyEvolve
Tree
p515
(dp516
g13
I0
sg14
I00
sbsg15
I00
sg16
g26
sbsg13
I2
sg15
I01
sg16
g107
sbsg13
I3
sg15
I01
sg16
g17
sbsg13
I4
sg18
(imyEvolve
Tree
p517
(dp518
g7
(imyEvolve
Tree
p519
(dp520
g7
(imyEvolve
Tree
p521
(dp522
g10
(imyEvolve
Tree
p523
(dp524
g13
I0
sg14
I00
sbsg13
I1
sg15
I01
sg16
g45
sbsg13
I2
sg18
(imyEvolve
Tree
p525
(dp526
g10
(imyEvolve
Tree
p527
(dp528
g13
I0
sg23
F-1.716418313909621
sg14
I01
sbsg13
I1
sg15
I01
sg16
g54
sbsg15
I00
sg16
g40
sbsg13
I3
sg18
(imyEvolve
Tree
p529
(dp530
g7
(imyEvolve
Tree
p531
(dp532
g7
(imyEvolve
Tree
p533
(dp534
g13
I0
sg23
F4.600271725428852
sg14
I01
sbsg13
I1
sg18
(imyEvolve
Tree
p535
(dp536
g13
I0
sg23
F1.686821794750771
sg14
I01
sbsg15
I00
sg16
g26
sbsg13
I2
sg18
(imyEvolve
Tree
p537
(dp538
g10
(imyEvolve
Tree
p539
(dp540
g13
I0
sg23
F4.459644316834634
sg14
I01
sbsg13
I1
sg15
I01
sg16
g45
sbsg15
I00
sg16
g26
sbsg15
I00
sg16
g26
sbsg15
I00
sg16
g26
sbsg15
I00
sg16
g27
sba(imyEvolve
Tree
p541
(dp542
g13
I4
sg7
(imyEvolve
Tree
p543
(dp544
g13
I3
sg7
(imyEvolve
Tree
p545
(dp546
g10
(imyEvolve
Tree
p547
(dp548
g13
I1
sg7
(imyEvolve
Tree
p549
(dp550
g13
I0
sg14
I00
sbsg18
(imyEvolve
Tree
p551
(dp552
g13
I0
sg14
I00
sbsg15
I00
sg16
g27
sbsg13
I2
sg15
I01
sg16
g17
sbsg18
(imyEvolve
Tree
p553
(dp554
g10
(imyEvolve
Tree
p555
(dp556
g13
I1
sg7
(imyEvolve
Tree
p557
(dp558
g13
I0
sg23
F-4.275863811856501
sg14
I01
sbsg18
(imyEvolve
Tree
p559
(dp560
g13
I0
sg23
F4.200701549702952
sg14
I01
sbsg15
I00
sg16
g40
sbsg13
I2
sg15
I01
sg16
g45
sbsg15
I00
sg16
g40
sbsg18
(imyEvolve
Tree
p561
(dp562
g13
I3
sg7
(imyEvolve
Tree
p563
(dp564
g13
I2
sg7
(imyEvolve
Tree
p565
(dp566
g10
(imyEvolve
Tree
p567
(dp568
g13
I0
sg14
I00
sbsg13
I1
sg15
I01
sg16
g17
sbsg18
(imyEvolve
Tree
p569
(dp570
g10
(imyEvolve
Tree
p571
(dp572
g13
I0
sg23
F-1.4126334221773442
sg14
I01
sbsg13
I1
sg15
I01
sg16
g107
sbsg15
I00
sg16
g27
sbsg18
(imyEvolve
Tree
p573
(dp574
g13
I2
sg7
(imyEvolve
Tree
p575
(dp576
g10
(imyEvolve
Tree
p577
(dp578
g13
I0
sg14
I00
sbsg13
I1
sg15
I01
sg16
g107
sbsg18
(imyEvolve
Tree
p579
(dp580
g10
(imyEvolve
Tree
p581
(dp582
g13
I0
sg14
I00
sbsg13
I1
sg15
I01
sg16
g45
sbsg15
I00
sg16
g40
sbsg15
I00
sg16
g40
sbsg15
I00
sg16
g40
sba(imyEvolve
Tree
p583
(dp584
g7
(imyEvolve
Tree
p585
(dp586
g7
(imyEvolve
Tree
p587
(dp588
g10
(imyEvolve
Tree
p589
(dp590
g7
(imyEvolve
Tree
p591
(dp592
g7
(imyEvolve
Tree
p593
(dp594
g13
I0
sg23
F-4.316295892362173
sg14
I01
sbsg13
I1
sg18
(imyEvolve
Tree
p595
(dp596
g13
I0
sg23
F1.1680017252663797
sg14
I01
sbsg15
I00
sg16
g27
sbsg13
I2
sg18
(imyEvolve
Tree
p597
(dp598
g10
(imyEvolve
Tree
p599
(dp600
g13
I0
sg14
I00
sbsg13
I1
sg15
I01
sg16
g54
sbsg15
I00
sg16
g40
sbsg13
I3
sg15
I01
sg16
g54
sbsg13
I4
sg18
(imyEvolve
Tree
p601
(dp602
g10
(imyEvolve
Tree
p603
(dp604
g10
(imyEvolve
Tree
p605
(dp606
g10
(imyEvolve
Tree
p607
(dp608
g13
I0
sg23
F-4.170120426647075
sg14
I01
sbsg13
I1
sg15
I01
sg16
g17
sbsg13
I2
sg15
I01
sg16
g107
sbsg13
I3
sg15
I01
sg16
g17
sbsg15
I00
sg16
g27
sbsg13
I5
sg18
(imyEvolve
Tree
p609
(dp610
g7
(imyEvolve
Tree
p611
(dp612
g7
(imyEvolve
Tree
p613
(dp614
g7
(imyEvolve
Tree
p615
(dp616
g7
(imyEvolve
Tree
p617
(dp618
g13
I0
sg23
F0.7549396622476987
sg14
I01
sbsg13
I1
sg18
(imyEvolve
Tree
p619
(dp620
g13
I0
sg14
I00
sbsg15
I00
sg16
g40
sbsg13
I2
sg18
(imyEvolve
Tree
p621
(dp622
g7
(imyEvolve
Tree
p623
(dp624
g13
I0
sg14
I00
sbsg13
I1
sg18
(imyEvolve
Tree
p625
(dp626
g13
I0
sg23
F-3.6292086562857993
sg14
I01
sbsg15
I00
sg16
g26
sbsg15
I00
sg16
g27
sbsg13
I3
sg18
(imyEvolve
Tree
p627
(dp628
g7
(imyEvolve
Tree
p629
(dp630
g7
(imyEvolve
Tree
p631
(dp632
g13
I0
sg14
I00
sbsg13
I1
sg18
(imyEvolve
Tree
p633
(dp634
g13
I0
sg23
F1.1552142192433
sg14
I01
sbsg15
I00
sg16
g40
sbsg13
I2
sg18
(imyEvolve
Tree
p635
(dp636
g10
(imyEvolve
Tree
p637
(dp638
g13
I0
sg23
F3.7330980110057848
sg14
I01
sbsg13
I1
sg15
I01
sg16
g54
sbsg15
I00
sg16
g40
sbsg15
I00
sg16
g26
sbsg13
I4
sg18
(imyEvolve
Tree
p639
(dp640
g7
(imyEvolve
Tree
p641
(dp642
g10
(imyEvolve
Tree
p643
(dp644
g7
(imyEvolve
Tree
p645
(dp646
g13
I0
sg14
I00
sbsg13
I1
sg18
(imyEvolve
Tree
p647
(dp648
g13
I0
sg23
F2.7514455130405118
sg14
I01
sbsg15
I00
sg16
g27
sbsg13
I2
sg15
I01
sg16
g17
sbsg13
I3
sg18
(imyEvolve
Tree
p649
(dp650
g7
(imyEvolve
Tree
p651
(dp652
g7
(imyEvolve
Tree
p653
(dp654
g13
I0
sg23
F2.775957724469177
sg14
I01
sbsg13
I1
sg18
(imyEvolve
Tree
p655
(dp656
g13
I0
sg23
F-2.975232514732633
sg14
I01
sbsg15
I00
sg16
g27
sbsg13
I2
sg18
(imyEvolve
Tree
p657
(dp658
g7
(imyEvolve
Tree
p659
(dp660
g13
I0
sg14
I00
sbsg13
I1
sg18
(imyEvolve
Tree
p661
(dp662
g13
I0
sg14
I00
sbsg15
I00
sg16
g27
sbsg15
I00
sg16
g26
sbsg15
I00
sg16
g26
sbsg15
I00
sg16
g40
sbsg15
I00
sg16
g26
sba(imyEvolve
Tree
p663
(dp664
g7
(imyEvolve
Tree
p665
(dp666
g10
(imyEvolve
Tree
p667
(dp668
g7
(imyEvolve
Tree
p669
(dp670
g7
(imyEvolve
Tree
p671
(dp672
g10
(imyEvolve
Tree
p673
(dp674
g13
I0
sg23
F0.07053482830773916
sg14
I01
sbsg13
I1
sg15
I01
sg16
g54
sbsg13
I2
sg18
(imyEvolve
Tree
p675
(dp676
g7
(imyEvolve
Tree
p677
(dp678
g13
I0
sg14
I00
sbsg13
I1
sg18
(imyEvolve
Tree
p679
(dp680
g13
I0
sg14
I00
sbsg15
I00
sg16
g27
sbsg15
I00
sg16
g27
sbsg13
I3
sg18
(imyEvolve
Tree
p681
(dp682
g7
(imyEvolve
Tree
p683
(dp684
g7
(imyEvolve
Tree
p685
(dp686
g13
I0
sg14
I00
sbsg13
I1
sg18
(imyEvolve
Tree
p687
(dp688
g13
I0
sg14
I00
sbsg15
I00
sg16
g27
sbsg13
I2
sg18
(imyEvolve
Tree
p689
(dp690
g7
(imyEvolve
Tree
p691
(dp692
g13
I0
sg14
I00
sbsg13
I1
sg18
(imyEvolve
Tree
p693
(dp694
g13
I0
sg14
I00
sbsg15
I00
sg16
g26
sbsg15
I00
sg16
g40
sbsg15
I00
sg16
g40
sbsg13
I4
sg15
I01
sg16
g45
sbsg13
I5
sg18
(imyEvolve
Tree
p695
(dp696
g10
(imyEvolve
Tree
p697
(dp698
g7
(imyEvolve
Tree
p699
(dp700
g7
(imyEvolve
Tree
p701
(dp702
g7
(imyEvolve
Tree
p703
(dp704
g13
I0
sg14
I00
sbsg13
I1
sg18
(imyEvolve
Tree
p705
(dp706
g13
I0
sg14
I00
sbsg15
I00
sg16
g26
sbsg13
I2
sg18
(imyEvolve
Tree
p707
(dp708
g7
(imyEvolve
Tree
p709
(dp710
g13
I0
sg23
F3.051346654255127
sg14
I01
sbsg13
I1
sg18
(imyEvolve
Tree
p711
(dp712
g13
I0
sg14
I00
sbsg15
I00
sg16
g27
sbsg15
I00
sg16
g26
sbsg13
I3
sg18
(imyEvolve
Tree
p713
(dp714
g7
(imyEvolve
Tree
p715
(dp716
g7
(imyEvolve
Tree
p717
(dp718
g13
I0
sg14
I00
sbsg13
I1
sg18
(imyEvolve
Tree
p719
(dp720
g13
I0
sg14
I00
sbsg15
I00
sg16
g40
sbsg13
I2
sg18
(imyEvolve
Tree
p721
(dp722
g10
(imyEvolve
Tree
p723
(dp724
g13
I0
sg14
I00
sbsg13
I1
sg15
I01
sg16
g107
sbsg15
I00
sg16
g27
sbsg15
I00
sg16
g27
sbsg13
I4
sg15
I01
sg16
g54
sbsg15
I00
sg16
g27
sba(imyEvolve
Tree
p725
(dp726
g7
(imyEvolve
Tree
p727
(dp728
g7
(imyEvolve
Tree
p729
(dp730
g13
I0
sg23
F-4.477638229545947
sg14
I01
sbsg13
I1
sg18
(imyEvolve
Tree
p731
(dp732
g13
I0
sg14
I00
sbsg15
I00
sg16
g26
sbsg13
I2
sg18
(imyEvolve
Tree
p733
(dp734
g10
(imyEvolve
Tree
p735
(dp736
g13
I0
sg23
F3.587499140363162
sg14
I01
sbsg13
I1
sg15
I01
sg16
g107
sbsg15
I00
sg16
g40
sba(imyEvolve
Tree
p737
(dp738
g10
(imyEvolve
Tree
p739
(dp740
g10
(imyEvolve
Tree
p741
(dp742
g10
(imyEvolve
Tree
p743
(dp744
g7
(imyEvolve
Tree
p745
(dp746
g13
I0
sg23
F4.004720502461838
sg14
I01
sbsg13
I1
sg18
(imyEvolve
Tree
p747
(dp748
g13
I0
sg14
I00
sbsg15
I00
sg16
g26
sbsg13
I2
sg15
I01
sg16
g54
sbsg13
I3
sg15
I01
sg16
g107
sbsg13
I4
sg15
I01
sg16
g17
sba(imyEvolve
Tree
p749
(dp750
g10
(imyEvolve
Tree
p751
(dp752
g7
(imyEvolve
Tree
p753
(dp754
g13
I0
sg23
F-3.479478107695284
sg14
I01
sbsg13
I1
sg18
(imyEvolve
Tree
p755
(dp756
g13
I0
sg23
F-1.6758953675370467
sg14
I01
sbsg15
I00
sg16
g40
sbsg13
I2
sg15
I01
sg16
g45
sba(imyEvolve
Tree
p757
(dp758
g7
(imyEvolve
Tree
p759
(dp760
g10
(imyEvolve
Tree
p761
(dp762
g10
(imyEvolve
Tree
p763
(dp764
g10
(imyEvolve
Tree
p765
(dp766
g13
I0
sg14
I00
sbsg13
I1
sg15
I01
sg16
g107
sbsg13
I2
sg15
I01
sg16
g17
sbsg13
I3
sg15
I01
sg16
g45
sbsg13
I4
sg18
(imyEvolve
Tree
p767
(dp768
g10
(imyEvolve
Tree
p769
(dp770
g7
(imyEvolve
Tree
p771
(dp772
g7
(imyEvolve
Tree
p773
(dp774
g13
I0
sg23
F0.8533206227983179
sg14
I01
sbsg13
I1
sg18
(imyEvolve
Tree
p775
(dp776
g13
I0
sg14
I00
sbsg15
I00
sg16
g40
sbsg13
I2
sg18
(imyEvolve
Tree
p777
(dp778
g10
(imyEvolve
Tree
p779
(dp780
g13
I0
sg14
I00
sbsg13
I1
sg15
I01
sg16
g17
sbsg15
I00
sg16
g40
sbsg13
I3
sg15
I01
sg16
g54
sbsg15
I00
sg16
g27
sba(imyEvolve
Tree
p781
(dp782
g10
(imyEvolve
Tree
p783
(dp784
g13
I2
sg7
(imyEvolve
Tree
p785
(dp786
g10
(imyEvolve
Tree
p787
(dp788
g13
I0
sg14
I00
sbsg13
I1
sg15
I01
sg16
g107
sbsg18
(imyEvolve
Tree
p789
(dp790
g10
(imyEvolve
Tree
p791
(dp792
g13
I0
sg23
F-0.16350247084664105
sg14
I01
sbsg13
I1
sg15
I01
sg16
g45
sbsg15
I00
sg16
g40
sbsg13
I3
sg15
I01
sg16
g45
sba(imyEvolve
Tree
p793
(dp794
g10
(imyEvolve
Tree
p795
(dp796
g13
I4
sg7
(imyEvolve
Tree
p797
(dp798
g13
I3
sg7
(imyEvolve
Tree
p799
(dp800
g10
(imyEvolve
Tree
p801
(dp802
g13
I1
sg7
(imyEvolve
Tree
p803
(dp804
g13
I0
sg14
I00
sbsg18
(imyEvolve
Tree
p805
(dp806
g13
I0
sg23
F3.794475921285702
sg14
I01
sbsg15
I00
sg16
g40
sbsg13
I2
sg15
I01
sg16
g54
sbsg18
(imyEvolve
Tree
p807
(dp808
g13
I2
sg7
(imyEvolve
Tree
p809
(dp810
g13
I1
sg7
(imyEvolve
Tree
p811
(dp812
g13
I0
sg23
F4.848825315760628
sg14
I01
sbsg18
(imyEvolve
Tree
p813
(dp814
g13
I0
sg23
F1.9798469058821224
sg14
I01
sbsg15
I00
sg16
g27
sbsg18
(imyEvolve
Tree
p815
(dp816
g13
I1
sg7
(imyEvolve
Tree
p817
(dp818
g13
I0
sg23
F-0.17422905217085827
sg14
I01
sbsg18
(imyEvolve
Tree
p819
(dp820
g13
I0
sg14
I00
sbsg15
I00
sg16
g26
sbsg15
I00
sg16
g27
sbsg15
I00
sg16
g27
sbsg18
(imyEvolve
Tree
p821
(dp822
g10
(imyEvolve
Tree
p823
(dp824
g13
I2
sg7
(imyEvolve
Tree
p825
(dp826
g10
(imyEvolve
Tree
p827
(dp828
g13
I0
sg14
I00
sbsg13
I1
sg15
I01
sg16
g17
sbsg18
(imyEvolve
Tree
p829
(dp830
g13
I1
sg7
(imyEvolve
Tree
p831
(dp832
g13
I0
sg23
F1.3191900034067103
sg14
I01
sbsg18
(imyEvolve
Tree
p833
(dp834
g13
I0
sg23
F4.14495759333936
sg14
I01
sbsg15
I00
sg16
g40
sbsg15
I00
sg16
g40
sbsg13
I3
sg15
I01
sg16
g54
sbsg15
I00
sg16
g26
sbsg13
I5
sg15
I01
sg16
g17
sba(imyEvolve
Tree
p835
(dp836
g7
(imyEvolve
Tree
p837
(dp838
g7
(imyEvolve
Tree
p839
(dp840
g7
(imyEvolve
Tree
p841
(dp842
g10
(imyEvolve
Tree
p843
(dp844
g13
I0
sg23
F3.110522686969542
sg14
I01
sbsg13
I1
sg15
I01
sg16
g107
sbsg13
I2
sg18
(imyEvolve
Tree
p845
(dp846
g7
(imyEvolve
Tree
p847
(dp848
g13
I0
sg23
F3.5497262842872743
sg14
I01
sbsg13
I1
sg18
(imyEvolve
Tree
p849
(dp850
g13
I0
sg23
F4.287766952472632
sg14
I01
sbsg15
I00
sg16
g40
sbsg15
I00
sg16
g40
sbsg13
I3
sg18
(imyEvolve
Tree
p851
(dp852
g10
(imyEvolve
Tree
p853
(dp854
g7
(imyEvolve
Tree
p855
(dp856
g13
I0
sg23
F2.819410729463386
sg14
I01
sbsg13
I1
sg18
(imyEvolve
Tree
p857
(dp858
g13
I0
sg23
F-1.1342960213841713
sg14
I01
sbsg15
I00
sg16
g26
sbsg13
I2
sg15
I01
sg16
g17
sbsg15
I00
sg16
g27
sbsg13
I4
sg18
(imyEvolve
Tree
p859
(dp860
g10
(imyEvolve
Tree
p861
(dp862
g10
(imyEvolve
Tree
p863
(dp864
g10
(imyEvolve
Tree
p865
(dp866
g13
I0
sg14
I00
sbsg13
I1
sg15
I01
sg16
g107
sbsg13
I2
sg15
I01
sg16
g17
sbsg13
I3
sg15
I01
sg16
g54
sbsg15
I00
sg16
g40
sba(imyEvolve
Tree
p867
(dp868
g7
(imyEvolve
Tree
p869
(dp870
g7
(imyEvolve
Tree
p871
(dp872
g7
(imyEvolve
Tree
p873
(dp874
g10
(imyEvolve
Tree
p875
(dp876
g13
I0
sg14
I00
sbsg13
I1
sg15
I01
sg16
g54
sbsg13
I2
sg18
(imyEvolve
Tree
p877
(dp878
g7
(imyEvolve
Tree
p879
(dp880
g13
I0
sg14
I00
sbsg13
I1
sg18
(imyEvolve
Tree
p881
(dp882
g13
I0
sg23
F-4.920340509286749
sg14
I01
sbsg15
I00
sg16
g26
sbsg15
I00
sg16
g40
sbsg13
I3
sg18
(imyEvolve
Tree
p883
(dp884
g10
(imyEvolve
Tree
p885
(dp886
g7
(imyEvolve
Tree
p887
(dp888
g13
I0
sg14
I00
sbsg13
I1
sg18
(imyEvolve
Tree
p889
(dp890
g13
I0
sg23
F4.575555976558526
sg14
I01
sbsg15
I00
sg16
g27
sbsg13
I2
sg15
I01
sg16
g107
sbsg15
I00
sg16
g27
sbsg13
I4
sg18
(imyEvolve
Tree
p891
(dp892
g7
(imyEvolve
Tree
p893
(dp894
g10
(imyEvolve
Tree
p895
(dp896
g10
(imyEvolve
Tree
p897
(dp898
g13
I0
sg23
F0.1331008107027012
sg14
I01
sbsg13
I1
sg15
I01
sg16
g17
sbsg13
I2
sg15
I01
sg16
g54
sbsg13
I3
sg18
(imyEvolve
Tree
p899
(dp900
g7
(imyEvolve
Tree
p901
(dp902
g10
(imyEvolve
Tree
p903
(dp904
g13
I0
sg23
F-2.7967584422862766
sg14
I01
sbsg13
I1
sg15
I01
sg16
g107
sbsg13
I2
sg18
(imyEvolve
Tree
p905
(dp906
g10
(imyEvolve
Tree
p907
(dp908
g13
I0
sg23
F3.7810310734289594
sg14
I01
sbsg13
I1
sg15
I01
sg16
g17
sbsg15
I00
sg16
g40
sbsg15
I00
sg16
g40
sbsg15
I00
sg16
g26
sba(imyEvolve
Tree
p909
(dp910
g7
(imyEvolve
Tree
p911
(dp912
g7
(imyEvolve
Tree
p913
(dp914
g10
(imyEvolve
Tree
p915
(dp916
g10
(imyEvolve
Tree
p917
(dp918
g13
I0
sg14
I00
sbsg13
I1
sg15
I01
sg16
g45
sbsg13
I2
sg15
I01
sg16
g107
sbsg13
I3
sg18
(imyEvolve
Tree
p919
(dp920
g7
(imyEvolve
Tree
p921
(dp922
g10
(imyEvolve
Tree
p923
(dp924
g13
I0
sg14
I00
sbsg13
I1
sg15
I01
sg16
g54
sbsg13
I2
sg18
(imyEvolve
Tree
p925
(dp926
g7
(imyEvolve
Tree
p927
(dp928
g13
I0
sg14
I00
sbsg13
I1
sg18
(imyEvolve
Tree
p929
(dp930
g13
I0
sg23
F4.863990904785201
sg14
I01
sbsg15
I00
sg16
g26
sbsg15
I00
sg16
g26
sbsg15
I00
sg16
g26
sbsg13
I4
sg18
(imyEvolve
Tree
p931
(dp932
g10
(imyEvolve
Tree
p933
(dp934
g10
(imyEvolve
Tree
p935
(dp936
g7
(imyEvolve
Tree
p937
(dp938
g13
I0
sg23
F3.6586648237888557
sg14
I01
sbsg13
I1
sg18
(imyEvolve
Tree
p939
(dp940
g13
I0
sg14
I00
sbsg15
I00
sg16
g26
sbsg13
I2
sg15
I01
sg16
g17
sbsg13
I3
sg15
I01
sg16
g107
sbsg15
I00
sg16
g40
sbaa(lp941
(imyEvolve
Tree
p942
(dp943
g10
(imyEvolve
Tree
p944
(dp945
g7
(imyEvolve
Tree
p946
(dp947
g7
(imyEvolve
Tree
p948
(dp949
g7
(imyEvolve
Tree
p950
(dp951
g7
(imyEvolve
Tree
p952
(dp953
g13
I0
sg14
I00
sbsg13
I1
sg18
(imyEvolve
Tree
p954
(dp955
g13
I0
sg23
F-1.3956777795380306
sg14
I01
sbsg15
I00
sg16
g40
sbsg13
I2
sg18
(imyEvolve
Tree
p956
(dp957
g10
(imyEvolve
Tree
p958
(dp959
g13
I0
sg14
I00
sbsg13
I1
sg15
I01
sg16
g45
sbsg15
I00
sg16
g40
sbsg13
I3
sg18
(imyEvolve
Tree
p960
(dp961
g10
(imyEvolve
Tree
p962
(dp963
g10
(imyEvolve
Tree
p964
(dp965
g13
I0
sg14
I00
sbsg13
I1
sg15
I01
sg16
g107
sbsg13
I2
sg15
I01
sg16
g54
sbsg15
I00
sg16
g27
sbsg13
I4
sg18
(imyEvolve
Tree
p966
(dp967
g10
(imyEvolve
Tree
p968
(dp969
g10
(imyEvolve
Tree
p970
(dp971
g7
(imyEvolve
Tree
p972
(dp973
g13
I0
sg14
I00
sbsg13
I1
sg18
(imyEvolve
Tree
p974
(dp975
g13
I0
sg14
I00
sbsg15
I00
sg16
g26
sbsg13
I2
sg15
I01
sg16
g17
sbsg13
I3
sg15
I01
sg16
g17
sbsg15
I00
sg16
g26
sbsg13
I5
sg15
I01
sg16
g17
sba(imyEvolve
Tree
p976
(dp977
g10
(imyEvolve
Tree
p978
(dp979
g13
I3
sg7
(imyEvolve
Tree
p980
(dp981
g10
(imyEvolve
Tree
p982
(dp983
g13
I1
sg7
(imyEvolve
Tree
p984
(dp985
g13
I0
sg14
I00
sbsg18
(imyEvolve
Tree
p986
(dp987
g13
I0
sg23
F3.3386903274489406
sg14
I01
sbsg15
I00
sg16
g40
sbsg13
I2
sg15
I01
sg16
g45
sbsg18
(imyEvolve
Tree
p988
(dp989
g10
(imyEvolve
Tree
p990
(dp991
g10
(imyEvolve
Tree
p992
(dp993
g13
I0
sg14
I00
sbsg13
I1
sg15
I01
sg16
g45
sbsg13
I2
sg15
I01
sg16
g54
sbsg15
I00
sg16
g27
sbsg13
I4
sg15
I01
sg16
g17
sba(imyEvolve
Tree
p994
(dp995
g10
(imyEvolve
Tree
p996
(dp997
g7
(imyEvolve
Tree
p998
(dp999
g7
(imyEvolve
Tree
p1000
(dp1001
g13
I0
sg23
F3.1456975748575573
sg14
I01
sbsg13
I1
sg18
(imyEvolve
Tree
p1002
(dp1003
g13
I0
sg14
I00
sbsg15
I00
sg16
g40
sbsg13
I2
sg18
(imyEvolve
Tree
p1004
(dp1005
g10
(imyEvolve
Tree
p1006
(dp1007
g13
I0
sg14
I00
sbsg13
I1
sg15
I01
sg16
g17
sbsg15
I00
sg16
g26
sbsg13
I3
sg15
I01
sg16
g17
sba(imyEvolve
Tree
p1008
(dp1009
g7
(imyEvolve
Tree
p1010
(dp1011
g10
(imyEvolve
Tree
p1012
(dp1013
g13
I0
sg14
I00
sbsg13
I1
sg15
I01
sg16
g45
sbsg13
I2
sg18
(imyEvolve
Tree
p1014
(dp1015
g7
(imyEvolve
Tree
p1016
(dp1017
g13
I0
sg23
F1.0073655632145915
sg14
I01
sbsg13
I1
sg18
(imyEvolve
Tree
p1018
(dp1019
g13
I0
sg14
I00
sbsg15
I00
sg16
g27
sbsg15
I00
sg16
g40
sba(imyEvolve
Tree
p1020
(dp1021
g10
(imyEvolve
Tree
p1022
(dp1023
g10
(imyEvolve
Tree
p1024
(dp1025
g10
(imyEvolve
Tree
p1026
(dp1027
g13
I1
sg7
(imyEvolve
Tree
p1028
(dp1029
g13
I0
sg23
F-4.151392524464809
sg14
I01
sbsg18
(imyEvolve
Tree
p1030
(dp1031
g13
I0
sg14
I00
sbsg15
I00
sg16
g40
sbsg13
I2
sg15
I01
sg16
g54
sbsg13
I3
sg15
I01
sg16
g107
sbsg13
I4
sg15
I01
sg16
g45
sba(imyEvolve
Tree
p1032
(dp1033
g10
(imyEvolve
Tree
p1034
(dp1035
g13
I3
sg7
(imyEvolve
Tree
p1036
(dp1037
g13
I2
sg7
(imyEvolve
Tree
p1038
(dp1039
g10
(imyEvolve
Tree
p1040
(dp1041
g13
I0
sg14
I00
sbsg13
I1
sg15
I01
sg16
g54
sbsg18
(imyEvolve
Tree
p1042
(dp1043
g13
I1
sg7
(imyEvolve
Tree
p1044
(dp1045
g13
I0
sg14
I00
sbsg18
(imyEvolve
Tree
p1046
(dp1047
g13
I0
sg23
F-2.3196557181076294
sg14
I01
sbsg15
I00
sg16
g27
sbsg15
I00
sg16
g40
sbsg18
(imyEvolve
Tree
p1048
(dp1049
g13
I2
sg7
(imyEvolve
Tree
p1050
(dp1051
g13
I1
sg7
(imyEvolve
Tree
p1052
(dp1053
g13
I0
sg23
F2.1453641357356092
sg14
I01
sbsg18
(imyEvolve
Tree
p1054
(dp1055
g13
I0
sg23
F3.1194711572505724
sg14
I01
sbsg15
I00
sg16
g26
sbsg18
(imyEvolve
Tree
p1056
(dp1057
g13
I1
sg7
(imyEvolve
Tree
p1058
(dp1059
g13
I0
sg14
I00
sbsg18
(imyEvolve
Tree
p1060
(dp1061
g13
I0
sg14
I00
sbsg15
I00
sg16
g26
sbsg15
I00
sg16
g40
sbsg15
I00
sg16
g40
sbsg13
I4
sg15
I01
sg16
g54
sba(imyEvolve
Tree
p1062
(dp1063
g10
(imyEvolve
Tree
p1064
(dp1065
g7
(imyEvolve
Tree
p1066
(dp1067
g13
I0
sg14
I00
sbsg13
I1
sg18
(imyEvolve
Tree
p1068
(dp1069
g13
I0
sg23
F2.8982093822512036
sg14
I01
sbsg15
I00
sg16
g40
sbsg13
I2
sg15
I01
sg16
g17
sba(imyEvolve
Tree
p1070
(dp1071
g7
(imyEvolve
Tree
p1072
(dp1073
g7
(imyEvolve
Tree
p1074
(dp1075
g13
I0
sg23
F1.909221571340999
sg14
I01
sbsg13
I1
sg18
(imyEvolve
Tree
p1076
(dp1077
g13
I0
sg23
F0.1717035768885724
sg14
I01
sbsg15
I00
sg16
g27
sbsg13
I2
sg18
(imyEvolve
Tree
p1078
(dp1079
g10
(imyEvolve
Tree
p1080
(dp1081
g13
I0
sg23
F-1.1466521072567781
sg14
I01
sbsg13
I1
sg15
I01
sg16
g54
sbsg15
I00
sg16
g27
sba(imyEvolve
Tree
p1082
(dp1083
g7
(imyEvolve
Tree
p1084
(dp1085
g10
(imyEvolve
Tree
p1086
(dp1087
g13
I0
sg23
F2.0040809612078325
sg14
I01
sbsg13
I1
sg15
I01
sg16
g107
sbsg13
I2
sg18
(imyEvolve
Tree
p1088
(dp1089
g10
(imyEvolve
Tree
p1090
(dp1091
g13
I0
sg23
F-1.5210632673941293
sg14
I01
sbsg13
I1
sg15
I01
sg16
g45
sbsg15
I00
sg16
g26
sba(imyEvolve
Tree
p1092
(dp1093
g10
(imyEvolve
Tree
p1094
(dp1095
g10
(imyEvolve
Tree
p1096
(dp1097
g13
I0
sg14
I00
sbsg13
I1
sg15
I01
sg16
g17
sbsg13
I2
sg15
I01
sg16
g54
sba(imyEvolve
Tree
p1098
(dp1099
g7
(imyEvolve
Tree
p1100
(dp1101
g10
(imyEvolve
Tree
p1102
(dp1103
g13
I0
sg14
I00
sbsg13
I1
sg15
I01
sg16
g54
sbsg13
I2
sg18
(imyEvolve
Tree
p1104
(dp1105
g7
(imyEvolve
Tree
p1106
(dp1107
g13
I0
sg23
F3.1974177695709685
sg14
I01
sbsg13
I1
sg18
(imyEvolve
Tree
p1108
(dp1109
g13
I0
sg23
F-3.6392771285584944
sg14
I01
sbsg15
I00
sg16
g27
sbsg15
I00
sg16
g27
sba(imyEvolve
Tree
p1110
(dp1111
g10
(imyEvolve
Tree
p1112
(dp1113
g10
(imyEvolve
Tree
p1114
(dp1115
g10
(imyEvolve
Tree
p1116
(dp1117
g13
I0
sg14
I00
sbsg13
I1
sg15
I01
sg16
g107
sbsg13
I2
sg15
I01
sg16
g45
sbsg13
I3
sg15
I01
sg16
g107
sbaa(lp1118
(imyEvolve
Tree
p1119
(dp1120
g7
(imyEvolve
Tree
p1121
(dp1122
g7
(imyEvolve
Tree
p1123
(dp1124
g7
(imyEvolve
Tree
p1125
(dp1126
g7
(imyEvolve
Tree
p1127
(dp1128
g10
(imyEvolve
Tree
p1129
(dp1130
g13
I0
sg14
I00
sbsg13
I1
sg15
I01
sg16
g45
sbsg13
I2
sg18
(imyEvolve
Tree
p1131
(dp1132
g7
(imyEvolve
Tree
p1133
(dp1134
g13
I0
sg23
F-2.743911455839384
sg14
I01
sbsg13
I1
sg18
(imyEvolve
Tree
p1135
(dp1136
g13
I0
sg23
F-1.7772390996308953
sg14
I01
sbsg15
I00
sg16
g40
sbsg15
I00
sg16
g27
sbsg13
I3
sg18
(imyEvolve
Tree
p1137
(dp1138
g10
(imyEvolve
Tree
p1139
(dp1140
g7
(imyEvolve
Tree
p1141
(dp1142
g13
I0
sg23
F1.1383517873787063
sg14
I01
sbsg13
I1
sg18
(imyEvolve
Tree
p1143
(dp1144
g13
I0
sg23
F-4.877651328175979
sg14
I01
sbsg15
I00
sg16
g27
sbsg13
I2
sg15
I01
sg16
g107
sbsg15
I00
sg16
g40
sbsg13
I4
sg18
(imyEvolve
Tree
p1145
(dp1146
g7
(imyEvolve
Tree
p1147
(dp1148
g10
(imyEvolve
Tree
p1149
(dp1150
g10
(imyEvolve
Tree
p1151
(dp1152
g13
I0
sg14
I00
sbsg13
I1
sg15
I01
sg16
g107
sbsg13
I2
sg15
I01
sg16
g107
sbsg13
I3
sg18
(imyEvolve
Tree
p1153
(dp1154
g7
(imyEvolve
Tree
p1155
(dp1156
g10
(imyEvolve
Tree
p1157
(dp1158
g13
I0
sg14
I00
sbsg13
I1
sg15
I01
sg16
g45
sbsg13
I2
sg18
(imyEvolve
Tree
p1159
(dp1160
g10
(imyEvolve
Tree
p1161
(dp1162
g13
I0
sg14
I00
sbsg13
I1
sg15
I01
sg16
g45
sbsg15
I00
sg16
g27
sbsg15
I00
sg16
g27
sbsg15
I00
sg16
g27
sbsg13
I5
sg18
(imyEvolve
Tree
p1163
(dp1164
g10
(imyEvolve
Tree
p1165
(dp1166
g10
(imyEvolve
Tree
p1167
(dp1168
g10
(imyEvolve
Tree
p1169
(dp1170
g10
(imyEvolve
Tree
p1171
(dp1172
g13
I0
sg14
I00
sbsg13
I1
sg15
I01
sg16
g45
sbsg13
I2
sg15
I01
sg16
g45
sbsg13
I3
sg15
I01
sg16
g107
sbsg13
I4
sg15
I01
sg16
g45
sbsg15
I00
sg16
g40
sba(imyEvolve
Tree
p1173
(dp1174
g10
(imyEvolve
Tree
p1175
(dp1176
g7
(imyEvolve
Tree
p1177
(dp1178
g13
I0
sg14
I00
sbsg13
I1
sg18
(imyEvolve
Tree
p1179
(dp1180
g13
I0
sg14
I00
sbsg15
I00
sg16
g26
sbsg13
I2
sg15
I01
sg16
g54
sba(imyEvolve
Tree
p1181
(dp1182
g10
(imyEvolve
Tree
p1183
(dp1184
g10
(imyEvolve
Tree
p1185
(dp1186
g7
(imyEvolve
Tree
p1187
(dp1188
g7
(imyEvolve
Tree
p1189
(dp1190
g7
(imyEvolve
Tree
p1191
(dp1192
g13
I0
sg14
I00
sbsg13
I1
sg18
(imyEvolve
Tree
p1193
(dp1194
g13
I0
sg23
F-0.6433655500260986
sg14
I01
sbsg15
I00
sg16
g26
sbsg13
I2
sg18
(imyEvolve
Tree
p1195
(dp1196
g7
(imyEvolve
Tree
p1197
(dp1198
g13
I0
sg14
I00
sbsg13
I1
sg18
(imyEvolve
Tree
p1199
(dp1200
g13
I0
sg14
I00
sbsg15
I00
sg16
g26
sbsg15
I00
sg16
g27
sbsg13
I3
sg18
(imyEvolve
Tree
p1201
(dp1202
g10
(imyEvolve
Tree
p1203
(dp1204
g7
(imyEvolve
Tree
p1205
(dp1206
g13
I0
sg14
I00
sbsg13
I1
sg18
(imyEvolve
Tree
p1207
(dp1208
g13
I0
sg23
F2.94861295901791
sg14
I01
sbsg15
I00
sg16
g27
sbsg13
I2
sg15
I01
sg16
g54
sbsg15
I00
sg16
g26
sbsg13
I4
sg15
I01
sg16
g45
sbsg13
I5
sg15
I01
sg16
g54
sba(imyEvolve
Tree
p1209
(dp1210
g10
(imyEvolve
Tree
p1211
(dp1212
g10
(imyEvolve
Tree
p1213
(dp1214
g10
(imyEvolve
Tree
p1215
(dp1216
g7
(imyEvolve
Tree
p1217
(dp1218
g13
I0
sg23
F-3.5981690464944216
sg14
I01
sbsg13
I1
sg18
(imyEvolve
Tree
p1219
(dp1220
g13
I0
sg14
I00
sbsg15
I00
sg16
g27
sbsg13
I2
sg15
I01
sg16
g45
sbsg13
I3
sg15
I01
sg16
g17
sbsg13
I4
sg15
I01
sg16
g107
sba(imyEvolve
Tree
p1221
(dp1222
g7
(imyEvolve
Tree
p1223
(dp1224
g10
(imyEvolve
Tree
p1225
(dp1226
g10
(imyEvolve
Tree
p1227
(dp1228
g10
(imyEvolve
Tree
p1229
(dp1230
g10
(imyEvolve
Tree
p1231
(dp1232
g13
I0
sg23
F-3.001831422167476
sg14
I01
sbsg13
I1
sg15
I01
sg16
g45
sbsg13
I2
sg15
I01
sg16
g107
sbsg13
I3
sg15
I01
sg16
g107
sbsg13
I4
sg15
I01
sg16
g45
sbsg13
I5
sg18
(imyEvolve
Tree
p1233
(dp1234
g7
(imyEvolve
Tree
p1235
(dp1236
g10
(imyEvolve
Tree
p1237
(dp1238
g7
(imyEvolve
Tree
p1239
(dp1240
g10
(imyEvolve
Tree
p1241
(dp1242
g13
I0
sg23
F-1.8652378696750205
sg14
I01
sbsg13
I1
sg15
I01
sg16
g45
sbsg13
I2
sg18
(imyEvolve
Tree
p1243
(dp1244
g10
(imyEvolve
Tree
p1245
(dp1246
g13
I0
sg23
F0.2310779613222298
sg14
I01
sbsg13
I1
sg15
I01
sg16
g17
sbsg15
I00
sg16
g26
sbsg13
I3
sg15
I01
sg16
g17
sbsg13
I4
sg18
(imyEvolve
Tree
p1247
(dp1248
g10
(imyEvolve
Tree
p1249
(dp1250
g10
(imyEvolve
Tree
p1251
(dp1252
g10
(imyEvolve
Tree
p1253
(dp1254
g13
I0
sg14
I00
sbsg13
I1
sg15
I01
sg16
g17
sbsg13
I2
sg15
I01
sg16
g45
sbsg13
I3
sg15
I01
sg16
g107
sbsg15
I00
sg16
g26
sbsg15
I00
sg16
g26
sba(imyEvolve
Tree
p1255
(dp1256
g10
(imyEvolve
Tree
p1257
(dp1258
g7
(imyEvolve
Tree
p1259
(dp1260
g13
I0
sg14
I00
sbsg13
I1
sg18
(imyEvolve
Tree
p1261
(dp1262
g13
I0
sg23
F3.0381287702462316
sg14
I01
sbsg15
I00
sg16
g26
sbsg13
I2
sg15
I01
sg16
g45
sba(imyEvolve
Tree
p1263
(dp1264
g13
I5
sg7
(imyEvolve
Tree
p1265
(dp1266
g10
(imyEvolve
Tree
p1267
(dp1268
g10
(imyEvolve
Tree
p1269
(dp1270
g13
I2
sg7
(imyEvolve
Tree
p1271
(dp1272
g13
I1
sg7
(imyEvolve
Tree
p1273
(dp1274
g13
I0
sg23
F-3.2991296269420323
sg14
I01
sbsg18
(imyEvolve
Tree
p1275
(dp1276
g13
I0
sg14
I00
sbsg15
I00
sg16
g27
sbsg18
(imyEvolve
Tree
p1277
(dp1278
g13
I1
sg7
(imyEvolve
Tree
p1279
(dp1280
g13
I0
sg23
F1.6404354532510386
sg14
I01
sbsg18
(imyEvolve
Tree
p1281
(dp1282
g13
I0
sg23
F-4.266196497140839
sg14
I01
sbsg15
I00
sg16
g27
sbsg15
I00
sg16
g26
sbsg13
I3
sg15
I01
sg16
g17
sbsg13
I4
sg15
I01
sg16
g107
sbsg18
(imyEvolve
Tree
p1283
(dp1284
g10
(imyEvolve
Tree
p1285
(dp1286
g10
(imyEvolve
Tree
p1287
(dp1288
g13
I2
sg7
(imyEvolve
Tree
p1289
(dp1290
g10
(imyEvolve
Tree
p1291
(dp1292
g13
I0
sg23
F3.0629839972606216
sg14
I01
sbsg13
I1
sg15
I01
sg16
g17
sbsg18
(imyEvolve
Tree
p1293
(dp1294
g10
(imyEvolve
Tree
p1295
(dp1296
g13
I0
sg23
F1.3931921375276612
sg14
I01
sbsg13
I1
sg15
I01
sg16
g17
sbsg15
I00
sg16
g26
sbsg13
I3
sg15
I01
sg16
g107
sbsg13
I4
sg15
I01
sg16
g54
sbsg15
I00
sg16
g40
sba(imyEvolve
Tree
p1297
(dp1298
g7
(imyEvolve
Tree
p1299
(dp1300
g7
(imyEvolve
Tree
p1301
(dp1302
g7
(imyEvolve
Tree
p1303
(dp1304
g10
(imyEvolve
Tree
p1305
(dp1306
g13
I0
sg23
F-2.7682995845769276
sg14
I01
sbsg13
I1
sg15
I01
sg16
g45
sbsg13
I2
sg18
(imyEvolve
Tree
p1307
(dp1308
g7
(imyEvolve
Tree
p1309
(dp1310
g13
I0
sg23
F-0.9341798676646231
sg14
I01
sbsg13
I1
sg18
(imyEvolve
Tree
p1311
(dp1312
g13
I0
sg23
F3.8766547531814037
sg14
I01
sbsg15
I00
sg16
g26
sbsg15
I00
sg16
g27
sbsg13
I3
sg18
(imyEvolve
Tree
p1313
(dp1314
g10
(imyEvolve
Tree
p1315
(dp1316
g10
(imyEvolve
Tree
p1317
(dp1318
g13
I0
sg14
I00
sbsg13
I1
sg15
I01
sg16
g45
sbsg13
I2
sg15
I01
sg16
g17
sbsg15
I00
sg16
g40
sbsg13
I4
sg18
(imyEvolve
Tree
p1319
(dp1320
g7
(imyEvolve
Tree
p1321
(dp1322
g7
(imyEvolve
Tree
p1323
(dp1324
g10
(imyEvolve
Tree
p1325
(dp1326
g13
I0
sg14
I00
sbsg13
I1
sg15
I01
sg16
g107
sbsg13
I2
sg18
(imyEvolve
Tree
p1327
(dp1328
g10
(imyEvolve
Tree
p1329
(dp1330
g13
I0
sg14
I00
sbsg13
I1
sg15
I01
sg16
g17
sbsg15
I00
sg16
g40
sbsg13
I3
sg18
(imyEvolve
Tree
p1331
(dp1332
g7
(imyEvolve
Tree
p1333
(dp1334
g7
(imyEvolve
Tree
p1335
(dp1336
g13
I0
sg23
F-1.8008272400228797
sg14
I01
sbsg13
I1
sg18
(imyEvolve
Tree
p1337
(dp1338
g13
I0
sg14
I00
sbsg15
I00
sg16
g40
sbsg13
I2
sg18
(imyEvolve
Tree
p1339
(dp1340
g10
(imyEvolve
Tree
p1341
(dp1342
g13
I0
sg14
I00
sbsg13
I1
sg15
I01
sg16
g54
sbsg15
I00
sg16
g40
sbsg15
I00
sg16
g40
sbsg15
I00
sg16
g40
sba(imyEvolve
Tree
p1343
(dp1344
g13
I3
sg7
(imyEvolve
Tree
p1345
(dp1346
g10
(imyEvolve
Tree
p1347
(dp1348
g10
(imyEvolve
Tree
p1349
(dp1350
g13
I0
sg14
I00
sbsg13
I1
sg15
I01
sg16
g45
sbsg13
I2
sg15
I01
sg16
g17
sbsg18
(imyEvolve
Tree
p1351
(dp1352
g10
(imyEvolve
Tree
p1353
(dp1354
g13
I1
sg7
(imyEvolve
Tree
p1355
(dp1356
g13
I0
sg23
F3.6799051287930844
sg14
I01
sbsg18
(imyEvolve
Tree
p1357
(dp1358
g13
I0
sg23
F-1.9729289932848393
sg14
I01
sbsg15
I00
sg16
g27
sbsg13
I2
sg15
I01
sg16
g54
sbsg15
I00
sg16
g27
sba(imyEvolve
Tree
p1359
(dp1360
g10
(imyEvolve
Tree
p1361
(dp1362
g10
(imyEvolve
Tree
p1363
(dp1364
g10
(imyEvolve
Tree
p1365
(dp1366
g13
I1
sg7
(imyEvolve
Tree
p1367
(dp1368
g13
I0
sg14
I00
sbsg18
(imyEvolve
Tree
p1369
(dp1370
g13
I0
sg23
F-0.8617017311871251
sg14
I01
sbsg15
I00
sg16
g27
sbsg13
I2
sg15
I01
sg16
g17
sbsg13
I3
sg15
I01
sg16
g45
sbsg13
I4
sg15
I01
sg16
g17
sba(imyEvolve
Tree
p1371
(dp1372
g10
(imyEvolve
Tree
p1373
(dp1374
g10
(imyEvolve
Tree
p1375
(dp1376
g13
I0
sg23
F2.291281480866145
sg14
I01
sbsg13
I1
sg15
I01
sg16
g45
sbsg13
I2
sg15
I01
sg16
g54
sba(imyEvolve
Tree
p1377
(dp1378
g10
(imyEvolve
Tree
p1379
(dp1380
g10
(imyEvolve
Tree
p1381
(dp1382
g13
I1
sg7
(imyEvolve
Tree
p1383
(dp1384
g13
I0
sg14
I00
sbsg18
(imyEvolve
Tree
p1385
(dp1386
g13
I0
sg14
I00
sbsg15
I00
sg16
g40
sbsg13
I2
sg15
I01
sg16
g45
sbsg13
I3
sg15
I01
sg16
g54
sba(imyEvolve
Tree
p1387
(dp1388
g10
(imyEvolve
Tree
p1389
(dp1390
g7
(imyEvolve
Tree
p1391
(dp1392
g7
(imyEvolve
Tree
p1393
(dp1394
g7
(imyEvolve
Tree
p1395
(dp1396
g7
(imyEvolve
Tree
p1397
(dp1398
g13
I0
sg14
I00
sbsg13
I1
sg18
(imyEvolve
Tree
p1399
(dp1400
g13
I0
sg23
F-4.549928205391498
sg14
I01
sbsg15
I00
sg16
g40
sbsg13
I2
sg18
(imyEvolve
Tree
p1401
(dp1402
g10
(imyEvolve
Tree
p1403
(dp1404
g13
I0
sg14
I00
sbsg13
I1
sg15
I01
sg16
g45
sbsg15
I00
sg16
g26
sbsg13
I3
sg18
(imyEvolve
Tree
p1405
(dp1406
g10
(imyEvolve
Tree
p1407
(dp1408
g10
(imyEvolve
Tree
p1409
(dp1410
g13
I0
sg23
F-2.3494068433804207
sg14
I01
sbsg13
I1
sg15
I01
sg16
g54
sbsg13
I2
sg15
I01
sg16
g107
sbsg15
I00
sg16
g26
sbsg13
I4
sg18
(imyEvolve
Tree
p1411
(dp1412
g10
(imyEvolve
Tree
p1413
(dp1414
g10
(imyEvolve
Tree
p1415
(dp1416
g7
(imyEvolve
Tree
p1417
(dp1418
g13
I0
sg23
F3.9893312898646816
sg14
I01
sbsg13
I1
sg18
(imyEvolve
Tree
p1419
(dp1420
g13
I0
sg23
F0.4108753836374843
sg14
I01
sbsg15
I00
sg16
g26
sbsg13
I2
sg15
I01
sg16
g54
sbsg13
I3
sg15
I01
sg16
g17
sbsg15
I00
sg16
g26
sbsg13
I5
sg15
I01
sg16
g17
sba(imyEvolve
Tree
p1421
(dp1422
g10
(imyEvolve
Tree
p1423
(dp1424
g10
(imyEvolve
Tree
p1425
(dp1426
g7
(imyEvolve
Tree
p1427
(dp1428
g13
I0
sg23
F0.5691938618860579
sg14
I01
sbsg13
I1
sg18
(imyEvolve
Tree
p1429
(dp1430
g13
I0
sg23
F-1.6410647166317958
sg14
I01
sbsg15
I00
sg16
g27
sbsg13
I2
sg15
I01
sg16
g54
sbsg13
I3
sg15
I01
sg16
g107
sba(imyEvolve
Tree
p1431
(dp1432
g7
(imyEvolve
Tree
p1433
(dp1434
g7
(imyEvolve
Tree
p1435
(dp1436
g10
(imyEvolve
Tree
p1437
(dp1438
g7
(imyEvolve
Tree
p1439
(dp1440
g7
(imyEvolve
Tree
p1441
(dp1442
g13
I0
sg23
F-2.467032713470868
sg14
I01
sbsg13
I1
sg18
(imyEvolve
Tree
p1443
(dp1444
g13
I0
sg14
I00
sbsg15
I00
sg16
g40
sbsg13
I2
sg18
(imyEvolve
Tree
p1445
(dp1446
g7
(imyEvolve
Tree
p1447
(dp1448
g13
I0
sg14
I00
sbsg13
I1
sg18
(imyEvolve
Tree
p1449
(dp1450
g13
I0
sg14
I00
sbsg15
I00
sg16
g26
sbsg15
I00
sg16
g27
sbsg13
I3
sg15
I01
sg16
g107
sbsg13
I4
sg18
(imyEvolve
Tree
p1451
(dp1452
g7
(imyEvolve
Tree
p1453
(dp1454
g7
(imyEvolve
Tree
p1455
(dp1456
g10
(imyEvolve
Tree
p1457
(dp1458
g13
I0
sg23
F-4.044949353974122
sg14
I01
sbsg13
I1
sg15
I01
sg16
g54
sbsg13
I2
sg18
(imyEvolve
Tree
p1459
(dp1460
g10
(imyEvolve
Tree
p1461
(dp1462
g13
I0
sg23
F0.6881346226531369
sg14
I01
sbsg13
I1
sg15
I01
sg16
g107
sbsg15
I00
sg16
g40
sbsg13
I3
sg18
(imyEvolve
Tree
p1463
(dp1464
g7
(imyEvolve
Tree
p1465
(dp1466
g10
(imyEvolve
Tree
p1467
(dp1468
g13
I0
sg23
F-1.9785211056273355
sg14
I01
sbsg13
I1
sg15
I01
sg16
g17
sbsg13
I2
sg18
(imyEvolve
Tree
p1469
(dp1470
g10
(imyEvolve
Tree
p1471
(dp1472
g13
I0
sg23
F-2.121036572475361
sg14
I01
sbsg13
I1
sg15
I01
sg16
g107
sbsg15
I00
sg16
g40
sbsg15
I00
sg16
g27
sbsg15
I00
sg16
g40
sbsg13
I5
sg18
(imyEvolve
Tree
p1473
(dp1474
g7
(imyEvolve
Tree
p1475
(dp1476
g10
(imyEvolve
Tree
p1477
(dp1478
g7
(imyEvolve
Tree
p1479
(dp1480
g7
(imyEvolve
Tree
p1481
(dp1482
g13
I0
sg23
F-4.6253276190621495
sg14
I01
sbsg13
I1
sg18
(imyEvolve
Tree
p1483
(dp1484
g13
I0
sg23
F-3.0818344043489496
sg14
I01
sbsg15
I00
sg16
g26
sbsg13
I2
sg18
(imyEvolve
Tree
p1485
(dp1486
g10
(imyEvolve
Tree
p1487
(dp1488
g13
I0
sg23
F3.7202326780769255
sg14
I01
sbsg13
I1
sg15
I01
sg16
g45
sbsg15
I00
sg16
g40
sbsg13
I3
sg15
I01
sg16
g107
sbsg13
I4
sg18
(imyEvolve
Tree
p1489
(dp1490
g7
(imyEvolve
Tree
p1491
(dp1492
g10
(imyEvolve
Tree
p1493
(dp1494
g7
(imyEvolve
Tree
p1495
(dp1496
g13
I0
sg23
F1.2134502705780923
sg14
I01
sbsg13
I1
sg18
(imyEvolve
Tree
p1497
(dp1498
g13
I0
sg14
I00
sbsg15
I00
sg16
g40
sbsg13
I2
sg15
I01
sg16
g17
sbsg13
I3
sg18
(imyEvolve
Tree
p1499
(dp1500
g10
(imyEvolve
Tree
p1501
(dp1502
g10
(imyEvolve
Tree
p1503
(dp1504
g13
I0
sg14
I00
sbsg13
I1
sg15
I01
sg16
g54
sbsg13
I2
sg15
I01
sg16
g17
sbsg15
I00
sg16
g27
sbsg15
I00
sg16
g26
sbsg15
I00
sg16
g40
sba(imyEvolve
Tree
p1505
(dp1506
g10
(imyEvolve
Tree
p1507
(dp1508
g13
I2
sg7
(imyEvolve
Tree
p1509
(dp1510
g13
I1
sg7
(imyEvolve
Tree
p1511
(dp1512
g13
I0
sg14
I00
sbsg18
(imyEvolve
Tree
p1513
(dp1514
g13
I0
sg23
F-4.236017512033428
sg14
I01
sbsg15
I00
sg16
g40
sbsg18
(imyEvolve
Tree
p1515
(dp1516
g13
I1
sg7
(imyEvolve
Tree
p1517
(dp1518
g13
I0
sg14
I00
sbsg18
(imyEvolve
Tree
p1519
(dp1520
g13
I0
sg23
F-2.3311178229529403
sg14
I01
sbsg15
I00
sg16
g40
sbsg15
I00
sg16
g26
sbsg13
I3
sg15
I01
sg16
g45
sba(imyEvolve
Tree
p1521
(dp1522
g10
(imyEvolve
Tree
p1523
(dp1524
g10
(imyEvolve
Tree
p1525
(dp1526
g10
(imyEvolve
Tree
p1527
(dp1528
g7
(imyEvolve
Tree
p1529
(dp1530
g13
I0
sg14
I00
sbsg13
I1
sg18
(imyEvolve
Tree
p1531
(dp1532
g13
I0
sg23
F-1.332505910564369
sg14
I01
sbsg15
I00
sg16
g26
sbsg13
I2
sg15
I01
sg16
g54
sbsg13
I3
sg15
I01
sg16
g107
sbsg13
I4
sg15
I01
sg16
g45
sba(imyEvolve
Tree
p1533
(dp1534
g13
I5
sg7
(imyEvolve
Tree
p1535
(dp1536
g13
I4
sg7
(imyEvolve
Tree
p1537
(dp1538
g10
(imyEvolve
Tree
p1539
(dp1540
g13
I2
sg7
(imyEvolve
Tree
p1541
(dp1542
g10
(imyEvolve
Tree
p1543
(dp1544
g13
I0
sg14
I00
sbsg13
I1
sg15
I01
sg16
g17
sbsg18
(imyEvolve
Tree
p1545
(dp1546
g10
(imyEvolve
Tree
p1547
(dp1548
g13
I0
sg14
I00
sbsg13
I1
sg15
I01
sg16
g54
sbsg15
I00
sg16
g40
sbsg13
I3
sg15
I01
sg16
g17
sbsg18
(imyEvolve
Tree
p1549
(dp1550
g10
(imyEvolve
Tree
p1551
(dp1552
g10
(imyEvolve
Tree
p1553
(dp1554
g13
I1
sg7
(imyEvolve
Tree
p1555
(dp1556
g13
I0
sg23
F4.941482699382274
sg14
I01
sbsg18
(imyEvolve
Tree
p1557
(dp1558
g13
I0
sg14
I00
sbsg15
I00
sg16
g26
sbsg13
I2
sg15
I01
sg16
g17
sbsg13
I3
sg15
I01
sg16
g107
sbsg15
I00
sg16
g26
sbsg18
(imyEvolve
Tree
p1559
(dp1560
g13
I4
sg7
(imyEvolve
Tree
p1561
(dp1562
g13
I3
sg7
(imyEvolve
Tree
p1563
(dp1564
g10
(imyEvolve
Tree
p1565
(dp1566
g13
I1
sg7
(imyEvolve
Tree
p1567
(dp1568
g13
I0
sg23
F1.014983903681986
sg14
I01
sbsg18
(imyEvolve
Tree
p1569
(dp1570
g13
I0
sg23
F3.0396253964314806
sg14
I01
sbsg15
I00
sg16
g40
sbsg13
I2
sg15
I01
sg16
g54
sbsg18
(imyEvolve
Tree
p1571
(dp1572
g10
(imyEvolve
Tree
p1573
(dp1574
g10
(imyEvolve
Tree
p1575
(dp1576
g13
I0
sg14
I00
sbsg13
I1
sg15
I01
sg16
g17
sbsg13
I2
sg15
I01
sg16
g107
sbsg15
I00
sg16
g40
sbsg18
(imyEvolve
Tree
p1577
(dp1578
g13
I3
sg7
(imyEvolve
Tree
p1579
(dp1580
g13
I2
sg7
(imyEvolve
Tree
p1581
(dp1582
g13
I1
sg7
(imyEvolve
Tree
p1583
(dp1584
g13
I0
sg14
I00
sbsg18
(imyEvolve
Tree
p1585
(dp1586
g13
I0
sg14
I00
sbsg15
I00
sg16
g40
sbsg18
(imyEvolve
Tree
p1587
(dp1588
g13
I1
sg7
(imyEvolve
Tree
p1589
(dp1590
g13
I0
sg14
I00
sbsg18
(imyEvolve
Tree
p1591
(dp1592
g13
I0
sg14
I00
sbsg15
I00
sg16
g40
sbsg15
I00
sg16
g40
sbsg18
(imyEvolve
Tree
p1593
(dp1594
g13
I2
sg7
(imyEvolve
Tree
p1595
(dp1596
g13
I1
sg7
(imyEvolve
Tree
p1597
(dp1598
g13
I0
sg23
F-0.677082642344172
sg14
I01
sbsg18
(imyEvolve
Tree
p1599
(dp1600
g13
I0
sg14
I00
sbsg15
I00
sg16
g27
sbsg18
(imyEvolve
Tree
p1601
(dp1602
g13
I1
sg7
(imyEvolve
Tree
p1603
(dp1604
g13
I0
sg23
F3.2048470857852145
sg14
I01
sbsg18
(imyEvolve
Tree
p1605
(dp1606
g13
I0
sg14
I00
sbsg15
I00
sg16
g26
sbsg15
I00
sg16
g40
sbsg15
I00
sg16
g40
sbsg15
I00
sg16
g26
sbsg15
I00
sg16
g40
sba(imyEvolve
Tree
p1607
(dp1608
g10
(imyEvolve
Tree
p1609
(dp1610
g10
(imyEvolve
Tree
p1611
(dp1612
g10
(imyEvolve
Tree
p1613
(dp1614
g7
(imyEvolve
Tree
p1615
(dp1616
g10
(imyEvolve
Tree
p1617
(dp1618
g13
I0
sg23
F3.652123850910918
sg14
I01
sbsg13
I1
sg15
I01
sg16
g45
sbsg13
I2
sg18
(imyEvolve
Tree
p1619
(dp1620
g10
(imyEvolve
Tree
p1621
(dp1622
g13
I0
sg14
I00
sbsg13
I1
sg15
I01
sg16
g45
sbsg15
I00
sg16
g26
sbsg13
I3
sg15
I01
sg16
g45
sbsg13
I4
sg15
I01
sg16
g45
sbsg13
I5
sg15
I01
sg16
g17
sbaa(lp1623
(imyEvolve
Tree
p1624
(dp1625
g10
(imyEvolve
Tree
p1626
(dp1627
g10
(imyEvolve
Tree
p1628
(dp1629
g13
I0
sg23
F-1.8591403602891599
sg14
I01
sbsg13
I1
sg15
I01
sg16
g45
sbsg13
I2
sg15
I01
sg16
g107
sba(imyEvolve
Tree
p1630
(dp1631
g7
(imyEvolve
Tree
p1632
(dp1633
g7
(imyEvolve
Tree
p1634
(dp1635
g10
(imyEvolve
Tree
p1636
(dp1637
g7
(imyEvolve
Tree
p1638
(dp1639
g13
I0
sg14
I00
sbsg13
I1
sg18
(imyEvolve
Tree
p1640
(dp1641
g13
I0
sg23
F-4.745495492891818
sg14
I01
sbsg15
I00
sg16
g27
sbsg13
I2
sg15
I01
sg16
g107
sbsg13
I3
sg18
(imyEvolve
Tree
p1642
(dp1643
g10
(imyEvolve
Tree
p1644
(dp1645
g10
(imyEvolve
Tree
p1646
(dp1647
g13
I0
sg23
F-4.665731917359209
sg14
I01
sbsg13
I1
sg15
I01
sg16
g107
sbsg13
I2
sg15
I01
sg16
g17
sbsg15
I00
sg16
g27
sbsg13
I4
sg18
(imyEvolve
Tree
p1648
(dp1649
g7
(imyEvolve
Tree
p1650
(dp1651
g7
(imyEvolve
Tree
p1652
(dp1653
g7
(imyEvolve
Tree
p1654
(dp1655
g13
I0
sg23
F3.7323650779383666
sg14
I01
sbsg13
I1
sg18
(imyEvolve
Tree
p1656
(dp1657
g13
I0
sg23
F-3.7244465804849303
sg14
I01
sbsg15
I00
sg16
g26
sbsg13
I2
sg18
(imyEvolve
Tree
p1658
(dp1659
g10
(imyEvolve
Tree
p1660
(dp1661
g13
I0
sg23
F2.580782864962413
sg14
I01
sbsg13
I1
sg15
I01
sg16
g17
sbsg15
I00
sg16
g26
sbsg13
I3
sg18
(imyEvolve
Tree
p1662
(dp1663
g10
(imyEvolve
Tree
p1664
(dp1665
g10
(imyEvolve
Tree
p1666
(dp1667
g13
I0
sg23
F1.5516209349817087
sg14
I01
sbsg13
I1
sg15
I01
sg16
g54
sbsg13
I2
sg15
I01
sg16
g17
sbsg15
I00
sg16
g27
sbsg15
I00
sg16
g26
sba(imyEvolve
Tree
p1668
(dp1669
g7
(imyEvolve
Tree
p1670
(dp1671
g10
(imyEvolve
Tree
p1672
(dp1673
g10
(imyEvolve
Tree
p1674
(dp1675
g10
(imyEvolve
Tree
p1676
(dp1677
g10
(imyEvolve
Tree
p1678
(dp1679
g13
I0
sg23
F1.6064537190007497
sg14
I01
sbsg13
I1
sg15
I01
sg16
g45
sbsg13
I2
sg15
I01
sg16
g54
sbsg13
I3
sg15
I01
sg16
g45
sbsg13
I4
sg15
I01
sg16
g17
sbsg13
I5
sg18
(imyEvolve
Tree
p1680
(dp1681
g10
(imyEvolve
Tree
p1682
(dp1683
g7
(imyEvolve
Tree
p1684
(dp1685
g10
(imyEvolve
Tree
p1686
(dp1687
g10
(imyEvolve
Tree
p1688
(dp1689
g13
I0
sg23
F-0.4523132483933612
sg14
I01
sbsg13
I1
sg15
I01
sg16
g45
sbsg13
I2
sg15
I01
sg16
g45
sbsg13
I3
sg18
(imyEvolve
Tree
p1690
(dp1691
g10
(imyEvolve
Tree
p1692
(dp1693
g7
(imyEvolve
Tree
p1694
(dp1695
g13
I0
sg23
F3.917590243693928
sg14
I01
sbsg13
I1
sg18
(imyEvolve
Tree
p1696
(dp1697
g13
I0
sg23
F-2.6463471473152325
sg14
I01
sbsg15
I00
sg16
g26
sbsg13
I2
sg15
I01
sg16
g54
sbsg15
I00
sg16
g27
sbsg13
I4
sg15
I01
sg16
g45
sbsg15
I00
sg16
g40
sba(imyEvolve
Tree
p1698
(dp1699
g10
(imyEvolve
Tree
p1700
(dp1701
g10
(imyEvolve
Tree
p1702
(dp1703
g13
I1
sg7
(imyEvolve
Tree
p1704
(dp1705
g13
I0
sg14
I00
sbsg18
(imyEvolve
Tree
p1706
(dp1707
g13
I0
sg23
F1.0734259716181036
sg14
I01
sbsg15
I00
sg16
g40
sbsg13
I2
sg15
I01
sg16
g107
sbsg13
I3
sg15
I01
sg16
g107
sba(imyEvolve
Tree
p1708
(dp1709
g13
I2
sg7
(imyEvolve
Tree
p1710
(dp1711
g13
I1
sg7
(imyEvolve
Tree
p1712
(dp1713
g13
I0
sg23
F-1.0326328299094834
sg14
I01
sbsg18
(imyEvolve
Tree
p1714
(dp1715
g13
I0
sg23
F-2.5117917020956995
sg14
I01
sbsg15
I00
sg16
g26
sbsg18
(imyEvolve
Tree
p1716
(dp1717
g13
I1
sg7
(imyEvolve
Tree
p1718
(dp1719
g13
I0
sg23
F2.871804102826977
sg14
I01
sbsg18
(imyEvolve
Tree
p1720
(dp1721
g13
I0
sg23
F-1.1081971945628002
sg14
I01
sbsg15
I00
sg16
g26
sbsg15
I00
sg16
g40
sba(imyEvolve
Tree
p1722
(dp1723
g13
I4
sg7
(imyEvolve
Tree
p1724
(dp1725
g10
(imyEvolve
Tree
p1726
(dp1727
g10
(imyEvolve
Tree
p1728
(dp1729
g10
(imyEvolve
Tree
p1730
(dp1731
g13
I0
sg14
I00
sbsg13
I1
sg15
I01
sg16
g54
sbsg13
I2
sg15
I01
sg16
g107
sbsg13
I3
sg15
I01
sg16
g54
sbsg18
(imyEvolve
Tree
p1732
(dp1733
g10
(imyEvolve
Tree
p1734
(dp1735
g10
(imyEvolve
Tree
p1736
(dp1737
g10
(imyEvolve
Tree
p1738
(dp1739
g13
I0
sg14
I00
sbsg13
I1
sg15
I01
sg16
g54
sbsg13
I2
sg15
I01
sg16
g17
sbsg13
I3
sg15
I01
sg16
g45
sbsg15
I00
sg16
g26
sba(imyEvolve
Tree
p1740
(dp1741
g10
(imyEvolve
Tree
p1742
(dp1743
g7
(imyEvolve
Tree
p1744
(dp1745
g10
(imyEvolve
Tree
p1746
(dp1747
g13
I0
sg14
I00
sbsg13
I1
sg15
I01
sg16
g54
sbsg13
I2
sg18
(imyEvolve
Tree
p1748
(dp1749
g10
(imyEvolve
Tree
p1750
(dp1751
g13
I0
sg23
F1.592690586619642
sg14
I01
sbsg13
I1
sg15
I01
sg16
g54
sbsg15
I00
sg16
g40
sbsg13
I3
sg15
I01
sg16
g45
sba(imyEvolve
Tree
p1752
(dp1753
g10
(imyEvolve
Tree
p1754
(dp1755
g10
(imyEvolve
Tree
p1756
(dp1757
g10
(imyEvolve
Tree
p1758
(dp1759
g7
(imyEvolve
Tree
p1760
(dp1761
g13
I0
sg14
I00
sbsg13
I1
sg18
(imyEvolve
Tree
p1762
(dp1763
g13
I0
sg14
I00
sbsg15
I00
sg16
g40
sbsg13
I2
sg15
I01
sg16
g107
sbsg13
I3
sg15
I01
sg16
g17
sbsg13
I4
sg15
I01
sg16
g45
sba(imyEvolve
Tree
p1764
(dp1765
g10
(imyEvolve
Tree
p1766
(dp1767
g10
(imyEvolve
Tree
p1768
(dp1769
g13
I0
sg23
F-1.2336487734708768
sg14
I01
sbsg13
I1
sg15
I01
sg16
g107
sbsg13
I2
sg15
I01
sg16
g107
sba(imyEvolve
Tree
p1770
(dp1771
g10
(imyEvolve
Tree
p1772
(dp1773
g10
(imyEvolve
Tree
p1774
(dp1775
g10
(imyEvolve
Tree
p1776
(dp1777
g10
(imyEvolve
Tree
p1778
(dp1779
g13
I0
sg23
F4.441685344314276
sg14
I01
sbsg13
I1
sg15
I01
sg16
g107
sbsg13
I2
sg15
I01
sg16
g17
sbsg13
I3
sg15
I01
sg16
g45
sbsg13
I4
sg15
I01
sg16
g45
sbaasS'alpha'
p1780
F0.006235283429227879
sS'fitness'
p1781
cnumpy.core.multiarray
scalar
p1782
(cnumpy
dtype
p1783
(S'f8'
p1784
I0
I1
tp1785
Rp1786
(I3
S'<'
p1787
NNNI-1
I-1
I0
tp1788
bS'\x00\x9a\x08\x1b\x13\xa9\xa6\xbf'
p1789
tp1790
Rp1791
sS'weightSharing'
p1792
(lp1793
I01
aI00
asS'fitnessValid'
p1794
I00
sS'resolution'
p1795
I84
sb.