(imyEvolve
Individual
p0
(dp1
S'funcs'
p2
(lp3
(lp4
(imyEvolve
Tree
p5
(dp6
S'depth'
p7
I5
sS'left'
p8
(imyEvolve
Tree
p9
(dp10
S'below'
p11
(imyEvolve
Tree
p12
(dp13
g11
(imyEvolve
Tree
p14
(dp15
g7
I2
sg8
(imyEvolve
Tree
p16
(dp17
g7
I1
sg8
(imyEvolve
Tree
p18
(dp19
g7
I0
sS'isConstant'
p20
I00
sbsS'right'
p21
(imyEvolve
Tree
p22
(dp23
g7
I0
sS'constant'
p24
F-3.43631908255279
sg20
I01
sbsS'single'
p25
I00
sS'op'
p26
coperator
add
p27
sbsg21
(imyEvolve
Tree
p28
(dp29
g11
(imyEvolve
Tree
p30
(dp31
g7
I0
sg24
F2.3562592932971826
sg20
I01
sbsg7
I1
sg25
I01
sg26
cmyEvolve
square
p32
sbsg25
I00
sg26
coperator
sub
p33
sbsg7
I3
sg25
I01
sg26
cmath
cos
p34
sbsg7
I4
sg25
I01
sg26
cmath
sin
p35
sbsg21
(imyEvolve
Tree
p36
(dp37
g7
I4
sg8
(imyEvolve
Tree
p38
(dp39
g11
(imyEvolve
Tree
p40
(dp41
g11
(imyEvolve
Tree
p42
(dp43
g11
(imyEvolve
Tree
p44
(dp45
g7
I0
sg20
I00
sbsg7
I1
sg25
I01
sg26
g32
sbsg7
I2
sg25
I01
sg26
g32
sbsg7
I3
sg25
I01
sg26
g32
sbsg21
(imyEvolve
Tree
p46
(dp47
g11
(imyEvolve
Tree
p48
(dp49
g11
(imyEvolve
Tree
p50
(dp51
g11
(imyEvolve
Tree
p52
(dp53
g7
I0
sg20
I00
sbsg7
I1
sg25
I01
sg26
g35
sbsg7
I2
sg25
I01
sg26
g32
sbsg7
I3
sg25
I01
sg26
g34
sbsg25
I00
sg26
coperator
mul
p54
sbsg25
I00
sg26
g54
sba(imyEvolve
Tree
p55
(dp56
g11
(imyEvolve
Tree
p57
(dp58
g7
I4
sg8
(imyEvolve
Tree
p59
(dp60
g7
I3
sg8
(imyEvolve
Tree
p61
(dp62
g7
I2
sg8
(imyEvolve
Tree
p63
(dp64
g11
(imyEvolve
Tree
p65
(dp66
g7
I0
sg20
I00
sbsg7
I1
sg25
I01
sg26
g35
sbsg21
(imyEvolve
Tree
p67
(dp68
g7
I1
sg8
(imyEvolve
Tree
p69
(dp70
g7
I0
sg24
F1.0353294362004037
sg20
I01
sbsg21
(imyEvolve
Tree
p71
(dp72
g7
I0
sg20
I00
sbsg25
I00
sg26
g33
sbsg25
I00
sg26
g54
sbsg21
(imyEvolve
Tree
p73
(dp74
g11
(imyEvolve
Tree
p75
(dp76
g11
(imyEvolve
Tree
p77
(dp78
g7
I0
sg20
I00
sbsg7
I1
sg25
I01
sg26
g32
sbsg7
I2
sg25
I01
sg26
g34
sbsg25
I00
sg26
g33
sbsg21
(imyEvolve
Tree
p79
(dp80
g11
(imyEvolve
Tree
p81
(dp82
g7
I2
sg8
(imyEvolve
Tree
p83
(dp84
g11
(imyEvolve
Tree
p85
(dp86
g7
I0
sg20
I00
sbsg7
I1
sg25
I01
sg26
g34
sbsg21
(imyEvolve
Tree
p87
(dp88
g7
I1
sg8
(imyEvolve
Tree
p89
(dp90
g7
I0
sg24
F-1.2121072128547827
sg20
I01
sbsg21
(imyEvolve
Tree
p91
(dp92
g7
I0
sg24
F-1.2872247244322166
sg20
I01
sbsg25
I00
sg26
g27
sbsg25
I00
sg26
g54
sbsg7
I3
sg25
I01
sg26
g35
sbsg25
I00
sg26
g54
sbsg7
I5
sg25
I01
sg26
g35
sba(imyEvolve
Tree
p93
(dp94
g11
(imyEvolve
Tree
p95
(dp96
g11
(imyEvolve
Tree
p97
(dp98
g7
I0
sg24
F1.6533204258519465
sg20
I01
sbsg7
I1
sg25
I01
sg26
g34
sbsg7
I2
sg25
I01
sg26
g32
sba(imyEvolve
Tree
p99
(dp100
g7
I5
sg8
(imyEvolve
Tree
p101
(dp102
g11
(imyEvolve
Tree
p103
(dp104
g7
I3
sg8
(imyEvolve
Tree
p105
(dp106
g11
(imyEvolve
Tree
p107
(dp108
g7
I1
sg8
(imyEvolve
Tree
p109
(dp110
g7
I0
sg20
I00
sbsg21
(imyEvolve
Tree
p111
(dp112
g7
I0
sg24
F-2.4361228834020068
sg20
I01
sbsg25
I00
sg26
g33
sbsg7
I2
sg25
I01
sg26
cmyEvolve
absSqrt
p113
sbsg21
(imyEvolve
Tree
p114
(dp115
g7
I2
sg8
(imyEvolve
Tree
p116
(dp117
g7
I1
sg8
(imyEvolve
Tree
p118
(dp119
g7
I0
sg20
I00
sbsg21
(imyEvolve
Tree
p120
(dp121
g7
I0
sg24
F3.9059286225150416
sg20
I01
sbsg25
I00
sg26
g33
sbsg21
(imyEvolve
Tree
p122
(dp123
g11
(imyEvolve
Tree
p124
(dp125
g7
I0
sg20
I00
sbsg7
I1
sg25
I01
sg26
g113
sbsg25
I00
sg26
g54
sbsg25
I00
sg26
g33
sbsg7
I4
sg25
I01
sg26
g35
sbsg21
(imyEvolve
Tree
p126
(dp127
g11
(imyEvolve
Tree
p128
(dp129
g11
(imyEvolve
Tree
p130
(dp131
g7
I2
sg8
(imyEvolve
Tree
p132
(dp133
g11
(imyEvolve
Tree
p134
(dp135
g7
I0
sg24
F1.0785996735590286
sg20
I01
sbsg7
I1
sg25
I01
sg26
g32
sbsg21
(imyEvolve
Tree
p136
(dp137
g11
(imyEvolve
Tree
p138
(dp139
g7
I0
sg20
I00
sbsg7
I1
sg25
I01
sg26
g34
sbsg25
I00
sg26
g33
sbsg7
I3
sg25
I01
sg26
g32
sbsg7
I4
sg25
I01
sg26
g113
sbsg25
I00
sg26
g54
sba(imyEvolve
Tree
p140
(dp141
g11
(imyEvolve
Tree
p142
(dp143
g11
(imyEvolve
Tree
p144
(dp145
g7
I0
sg20
I00
sbsg7
I1
sg25
I01
sg26
g34
sbsg7
I2
sg25
I01
sg26
g35
sba(imyEvolve
Tree
p146
(dp147
g7
I4
sg8
(imyEvolve
Tree
p148
(dp149
g11
(imyEvolve
Tree
p150
(dp151
g7
I2
sg8
(imyEvolve
Tree
p152
(dp153
g7
I1
sg8
(imyEvolve
Tree
p154
(dp155
g7
I0
sg20
I00
sbsg21
(imyEvolve
Tree
p156
(dp157
g7
I0
sg24
F-3.818490853627833
sg20
I01
sbsg25
I00
sg26
g54
sbsg21
(imyEvolve
Tree
p158
(dp159
g7
I1
sg8
(imyEvolve
Tree
p160
(dp161
g7
I0
sg20
I00
sbsg21
(imyEvolve
Tree
p162
(dp163
g7
I0
sg20
I00
sbsg25
I00
sg26
g33
sbsg25
I00
sg26
g33
sbsg7
I3
sg25
I01
sg26
g34
sbsg21
(imyEvolve
Tree
p164
(dp165
g7
I3
sg8
(imyEvolve
Tree
p166
(dp167
g11
(imyEvolve
Tree
p168
(dp169
g7
I1
sg8
(imyEvolve
Tree
p170
(dp171
g7
I0
sg20
I00
sbsg21
(imyEvolve
Tree
p172
(dp173
g7
I0
sg20
I00
sbsg25
I00
sg26
g27
sbsg7
I2
sg25
I01
sg26
g113
sbsg21
(imyEvolve
Tree
p174
(dp175
g11
(imyEvolve
Tree
p176
(dp177
g7
I1
sg8
(imyEvolve
Tree
p178
(dp179
g7
I0
sg24
F-1.9849710465051542
sg20
I01
sbsg21
(imyEvolve
Tree
p180
(dp181
g7
I0
sg24
F4.407040230224558
sg20
I01
sbsg25
I00
sg26
g27
sbsg7
I2
sg25
I01
sg26
g34
sbsg25
I00
sg26
g33
sbsg25
I00
sg26
g27
sba(imyEvolve
Tree
p182
(dp183
g7
I3
sg8
(imyEvolve
Tree
p184
(dp185
g7
I2
sg8
(imyEvolve
Tree
p186
(dp187
g7
I1
sg8
(imyEvolve
Tree
p188
(dp189
g7
I0
sg24
F-2.685821026883567
sg20
I01
sbsg21
(imyEvolve
Tree
p190
(dp191
g7
I0
sg20
I00
sbsg25
I00
sg26
g27
sbsg21
(imyEvolve
Tree
p192
(dp193
g11
(imyEvolve
Tree
p194
(dp195
g7
I0
sg24
F-3.6131342821228616
sg20
I01
sbsg7
I1
sg25
I01
sg26
g35
sbsg25
I00
sg26
g54
sbsg21
(imyEvolve
Tree
p196
(dp197
g11
(imyEvolve
Tree
p198
(dp199
g7
I1
sg8
(imyEvolve
Tree
p200
(dp201
g7
I0
sg24
F3.8170219715307656
sg20
I01
sbsg21
(imyEvolve
Tree
p202
(dp203
g7
I0
sg24
F-1.7034861135177226
sg20
I01
sbsg25
I00
sg26
g33
sbsg7
I2
sg25
I01
sg26
g32
sbsg25
I00
sg26
g33
sba(imyEvolve
Tree
p204
(dp205
g11
(imyEvolve
Tree
p206
(dp207
g11
(imyEvolve
Tree
p208
(dp209
g7
I2
sg8
(imyEvolve
Tree
p210
(dp211
g11
(imyEvolve
Tree
p212
(dp213
g7
I0
sg20
I00
sbsg7
I1
sg25
I01
sg26
g113
sbsg21
(imyEvolve
Tree
p214
(dp215
g11
(imyEvolve
Tree
p216
(dp217
g7
I0
sg20
I00
sbsg7
I1
sg25
I01
sg26
g32
sbsg25
I00
sg26
g33
sbsg7
I3
sg25
I01
sg26
g34
sbsg7
I4
sg25
I01
sg26
g34
sba(imyEvolve
Tree
p218
(dp219
g11
(imyEvolve
Tree
p220
(dp221
g7
I1
sg8
(imyEvolve
Tree
p222
(dp223
g7
I0
sg24
F0.7244907870734094
sg20
I01
sbsg21
(imyEvolve
Tree
p224
(dp225
g7
I0
sg20
I00
sbsg25
I00
sg26
g33
sbsg7
I2
sg25
I01
sg26
g35
sba(imyEvolve
Tree
p226
(dp227
g7
I2
sg8
(imyEvolve
Tree
p228
(dp229
g11
(imyEvolve
Tree
p230
(dp231
g7
I0
sg20
I00
sbsg7
I1
sg25
I01
sg26
g34
sbsg21
(imyEvolve
Tree
p232
(dp233
g7
I1
sg8
(imyEvolve
Tree
p234
(dp235
g7
I0
sg20
I00
sbsg21
(imyEvolve
Tree
p236
(dp237
g7
I0
sg24
F-0.11018215510358509
sg20
I01
sbsg25
I00
sg26
g33
sbsg25
I00
sg26
g33
sba(imyEvolve
Tree
p238
(dp239
g7
I4
sg8
(imyEvolve
Tree
p240
(dp241
g11
(imyEvolve
Tree
p242
(dp243
g7
I2
sg8
(imyEvolve
Tree
p244
(dp245
g11
(imyEvolve
Tree
p246
(dp247
g7
I0
sg24
F2.6380853281541627
sg20
I01
sbsg7
I1
sg25
I01
sg26
g113
sbsg21
(imyEvolve
Tree
p248
(dp249
g7
I1
sg8
(imyEvolve
Tree
p250
(dp251
g7
I0
sg24
F1.72061603491691
sg20
I01
sbsg21
(imyEvolve
Tree
p252
(dp253
g7
I0
sg20
I00
sbsg25
I00
sg26
g33
sbsg25
I00
sg26
g54
sbsg7
I3
sg25
I01
sg26
g113
sbsg21
(imyEvolve
Tree
p254
(dp255
g7
I3
sg8
(imyEvolve
Tree
p256
(dp257
g7
I2
sg8
(imyEvolve
Tree
p258
(dp259
g7
I1
sg8
(imyEvolve
Tree
p260
(dp261
g7
I0
sg24
F0.7859003645299154
sg20
I01
sbsg21
(imyEvolve
Tree
p262
(dp263
g7
I0
sg24
F-4.471091538774381
sg20
I01
sbsg25
I00
sg26
g27
sbsg21
(imyEvolve
Tree
p264
(dp265
g11
(imyEvolve
Tree
p266
(dp267
g7
I0
sg20
I00
sbsg7
I1
sg25
I01
sg26
g113
sbsg25
I00
sg26
g27
sbsg21
(imyEvolve
Tree
p268
(dp269
g7
I2
sg8
(imyEvolve
Tree
p270
(dp271
g7
I1
sg8
(imyEvolve
Tree
p272
(dp273
g7
I0
sg20
I00
sbsg21
(imyEvolve
Tree
p274
(dp275
g7
I0
sg20
I00
sbsg25
I00
sg26
g33
sbsg21
(imyEvolve
Tree
p276
(dp277
g11
(imyEvolve
Tree
p278
(dp279
g7
I0
sg24
F-1.5078320191485082
sg20
I01
sbsg7
I1
sg25
I01
sg26
g32
sbsg25
I00
sg26
g33
sbsg25
I00
sg26
g27
sbsg25
I00
sg26
g54
sba(imyEvolve
Tree
p280
(dp281
g7
I3
sg8
(imyEvolve
Tree
p282
(dp283
g7
I2
sg8
(imyEvolve
Tree
p284
(dp285
g11
(imyEvolve
Tree
p286
(dp287
g7
I0
sg20
I00
sbsg7
I1
sg25
I01
sg26
g113
sbsg21
(imyEvolve
Tree
p288
(dp289
g11
(imyEvolve
Tree
p290
(dp291
g7
I0
sg24
F1.969054041363945
sg20
I01
sbsg7
I1
sg25
I01
sg26
g34
sbsg25
I00
sg26
g54
sbsg21
(imyEvolve
Tree
p292
(dp293
g11
(imyEvolve
Tree
p294
(dp295
g7
I1
sg8
(imyEvolve
Tree
p296
(dp297
g7
I0
sg20
I00
sbsg21
(imyEvolve
Tree
p298
(dp299
g7
I0
sg24
F1.5281688023290085
sg20
I01
sbsg25
I00
sg26
g33
sbsg7
I2
sg25
I01
sg26
g34
sbsg25
I00
sg26
g33
sba(imyEvolve
Tree
p300
(dp301
g11
(imyEvolve
Tree
p302
(dp303
g11
(imyEvolve
Tree
p304
(dp305
g11
(imyEvolve
Tree
p306
(dp307
g7
I0
sg20
I00
sbsg7
I1
sg25
I01
sg26
g113
sbsg7
I2
sg25
I01
sg26
g35
sbsg7
I3
sg25
I01
sg26
g35
sbaa(lp308
(imyEvolve
Tree
p309
(dp310
g11
(imyEvolve
Tree
p311
(dp312
g7
I2
sg8
(imyEvolve
Tree
p313
(dp314
g11
(imyEvolve
Tree
p315
(dp316
g7
I0
sg20
I00
sbsg7
I1
sg25
I01
sg26
g113
sbsg21
(imyEvolve
Tree
p317
(dp318
g7
I1
sg8
(imyEvolve
Tree
p319
(dp320
g7
I0
sg24
F0.7991556175557548
sg20
I01
sbsg21
(imyEvolve
Tree
p321
(dp322
g7
I0
sg24
F0.9312257853917032
sg20
I01
sbsg25
I00
sg26
g54
sbsg25
I00
sg26
g54
sbsg7
I3
sg25
I01
sg26
g35
sba(imyEvolve
Tree
p323
(dp324
g7
I4
sg8
(imyEvolve
Tree
p325
(dp326
g11
(imyEvolve
Tree
p327
(dp328
g7
I2
sg8
(imyEvolve
Tree
p329
(dp330
g11
(imyEvolve
Tree
p331
(dp332
g7
I0
sg24
F-2.1738850261703857
sg20
I01
sbsg7
I1
sg25
I01
sg26
g32
sbsg21
(imyEvolve
Tree
p333
(dp334
g7
I1
sg8
(imyEvolve
Tree
p335
(dp336
g7
I0
sg20
I00
sbsg21
(imyEvolve
Tree
p337
(dp338
g7
I0
sg20
I00
sbsg25
I00
sg26
g33
sbsg25
I00
sg26
g54
sbsg7
I3
sg25
I01
sg26
g34
sbsg21
(imyEvolve
Tree
p339
(dp340
g7
I3
sg8
(imyEvolve
Tree
p341
(dp342
g7
I2
sg8
(imyEvolve
Tree
p343
(dp344
g7
I1
sg8
(imyEvolve
Tree
p345
(dp346
g7
I0
sg24
F-3.142690705486765
sg20
I01
sbsg21
(imyEvolve
Tree
p347
(dp348
g7
I0
sg20
I00
sbsg25
I00
sg26
g27
sbsg21
(imyEvolve
Tree
p349
(dp350
g7
I1
sg8
(imyEvolve
Tree
p351
(dp352
g7
I0
sg20
I00
sbsg21
(imyEvolve
Tree
p353
(dp354
g7
I0
sg20
I00
sbsg25
I00
sg26
g27
sbsg25
I00
sg26
g33
sbsg21
(imyEvolve
Tree
p355
(dp356
g7
I2
sg8
(imyEvolve
Tree
p357
(dp358
g11
(imyEvolve
Tree
p359
(dp360
g7
I0
sg24
F0.9403471060797877
sg20
I01
sbsg7
I1
sg25
I01
sg26
g32
sbsg21
(imyEvolve
Tree
p361
(dp362
g7
I1
sg8
(imyEvolve
Tree
p363
(dp364
g7
I0
sg20
I00
sbsg21
(imyEvolve
Tree
p365
(dp366
g7
I0
sg24
F-0.5224218406925454
sg20
I01
sbsg25
I00
sg26
g33
sbsg25
I00
sg26
g27
sbsg25
I00
sg26
g27
sbsg25
I00
sg26
g33
sba(imyEvolve
Tree
p367
(dp368
g7
I5
sg8
(imyEvolve
Tree
p369
(dp370
g7
I4
sg8
(imyEvolve
Tree
p371
(dp372
g7
I3
sg8
(imyEvolve
Tree
p373
(dp374
g11
(imyEvolve
Tree
p375
(dp376
g7
I1
sg8
(imyEvolve
Tree
p377
(dp378
g7
I0
sg24
F-4.963376374025953
sg20
I01
sbsg21
(imyEvolve
Tree
p379
(dp380
g7
I0
sg24
F-2.2653534010483245
sg20
I01
sbsg25
I00
sg26
g54
sbsg7
I2
sg25
I01
sg26
g32
sbsg21
(imyEvolve
Tree
p381
(dp382
g7
I2
sg8
(imyEvolve
Tree
p383
(dp384
g11
(imyEvolve
Tree
p385
(dp386
g7
I0
sg20
I00
sbsg7
I1
sg25
I01
sg26
g35
sbsg21
(imyEvolve
Tree
p387
(dp388
g11
(imyEvolve
Tree
p389
(dp390
g7
I0
sg20
I00
sbsg7
I1
sg25
I01
sg26
g34
sbsg25
I00
sg26
g54
sbsg25
I00
sg26
g27
sbsg21
(imyEvolve
Tree
p391
(dp392
g7
I3
sg8
(imyEvolve
Tree
p393
(dp394
g7
I2
sg8
(imyEvolve
Tree
p395
(dp396
g7
I1
sg8
(imyEvolve
Tree
p397
(dp398
g7
I0
sg24
F3.728896388969181
sg20
I01
sbsg21
(imyEvolve
Tree
p399
(dp400
g7
I0
sg20
I00
sbsg25
I00
sg26
g54
sbsg21
(imyEvolve
Tree
p401
(dp402
g11
(imyEvolve
Tree
p403
(dp404
g7
I0
sg20
I00
sbsg7
I1
sg25
I01
sg26
g32
sbsg25
I00
sg26
g27
sbsg21
(imyEvolve
Tree
p405
(dp406
g7
I2
sg8
(imyEvolve
Tree
p407
(dp408
g11
(imyEvolve
Tree
p409
(dp410
g7
I0
sg20
I00
sbsg7
I1
sg25
I01
sg26
g34
sbsg21
(imyEvolve
Tree
p411
(dp412
g7
I1
sg8
(imyEvolve
Tree
p413
(dp414
g7
I0
sg20
I00
sbsg21
(imyEvolve
Tree
p415
(dp416
g7
I0
sg20
I00
sbsg25
I00
sg26
g33
sbsg25
I00
sg26
g54
sbsg25
I00
sg26
g54
sbsg25
I00
sg26
g33
sbsg21
(imyEvolve
Tree
p417
(dp418
g11
(imyEvolve
Tree
p419
(dp420
g7
I3
sg8
(imyEvolve
Tree
p421
(dp422
g11
(imyEvolve
Tree
p423
(dp424
g11
(imyEvolve
Tree
p425
(dp426
g7
I0
sg24
F-0.4170113358137826
sg20
I01
sbsg7
I1
sg25
I01
sg26
g34
sbsg7
I2
sg25
I01
sg26
g113
sbsg21
(imyEvolve
Tree
p427
(dp428
g11
(imyEvolve
Tree
p429
(dp430
g7
I1
sg8
(imyEvolve
Tree
p431
(dp432
g7
I0
sg24
F1.967206547378697
sg20
I01
sbsg21
(imyEvolve
Tree
p433
(dp434
g7
I0
sg20
I00
sbsg25
I00
sg26
g54
sbsg7
I2
sg25
I01
sg26
g113
sbsg25
I00
sg26
g54
sbsg7
I4
sg25
I01
sg26
g113
sbsg25
I00
sg26
g54
sba(imyEvolve
Tree
p435
(dp436
g7
I3
sg8
(imyEvolve
Tree
p437
(dp438
g7
I2
sg8
(imyEvolve
Tree
p439
(dp440
g7
I1
sg8
(imyEvolve
Tree
p441
(dp442
g7
I0
sg20
I00
sbsg21
(imyEvolve
Tree
p443
(dp444
g7
I0
sg20
I00
sbsg25
I00
sg26
g33
sbsg21
(imyEvolve
Tree
p445
(dp446
g11
(imyEvolve
Tree
p447
(dp448
g7
I0
sg20
I00
sbsg7
I1
sg25
I01
sg26
g35
sbsg25
I00
sg26
g33
sbsg21
(imyEvolve
Tree
p449
(dp450
g11
(imyEvolve
Tree
p451
(dp452
g11
(imyEvolve
Tree
p453
(dp454
g7
I0
sg24
F2.4965144440082305
sg20
I01
sbsg7
I1
sg25
I01
sg26
g35
sbsg7
I2
sg25
I01
sg26
g113
sbsg25
I00
sg26
g33
sba(imyEvolve
Tree
p455
(dp456
g11
(imyEvolve
Tree
p457
(dp458
g11
(imyEvolve
Tree
p459
(dp460
g11
(imyEvolve
Tree
p461
(dp462
g11
(imyEvolve
Tree
p463
(dp464
g7
I0
sg20
I00
sbsg7
I1
sg25
I01
sg26
g32
sbsg7
I2
sg25
I01
sg26
g113
sbsg7
I3
sg25
I01
sg26
g32
sbsg7
I4
sg25
I01
sg26
g35
sba(imyEvolve
Tree
p465
(dp466
g11
(imyEvolve
Tree
p467
(dp468
g7
I1
sg8
(imyEvolve
Tree
p469
(dp470
g7
I0
sg24
F1.297380299234523
sg20
I01
sbsg21
(imyEvolve
Tree
p471
(dp472
g7
I0
sg24
F-1.9035444029209057
sg20
I01
sbsg25
I00
sg26
g54
sbsg7
I2
sg25
I01
sg26
g34
sba(imyEvolve
Tree
p473
(dp474
g11
(imyEvolve
Tree
p475
(dp476
g7
I1
sg8
(imyEvolve
Tree
p477
(dp478
g7
I0
sg24
F-4.216191480082074
sg20
I01
sbsg21
(imyEvolve
Tree
p479
(dp480
g7
I0
sg20
I00
sbsg25
I00
sg26
g27
sbsg7
I2
sg25
I01
sg26
g35
sba(imyEvolve
Tree
p481
(dp482
g11
(imyEvolve
Tree
p483
(dp484
g7
I2
sg8
(imyEvolve
Tree
p485
(dp486
g11
(imyEvolve
Tree
p487
(dp488
g7
I0
sg20
I00
sbsg7
I1
sg25
I01
sg26
g32
sbsg21
(imyEvolve
Tree
p489
(dp490
g11
(imyEvolve
Tree
p491
(dp492
g7
I0
sg20
I00
sbsg7
I1
sg25
I01
sg26
g35
sbsg25
I00
sg26
g27
sbsg7
I3
sg25
I01
sg26
g32
sba(imyEvolve
Tree
p493
(dp494
g11
(imyEvolve
Tree
p495
(dp496
g7
I3
sg8
(imyEvolve
Tree
p497
(dp498
g7
I2
sg8
(imyEvolve
Tree
p499
(dp500
g7
I1
sg8
(imyEvolve
Tree
p501
(dp502
g7
I0
sg24
F1.3298277069334308
sg20
I01
sbsg21
(imyEvolve
Tree
p503
(dp504
g7
I0
sg24
F1.3884347630736462
sg20
I01
sbsg25
I00
sg26
g33
sbsg21
(imyEvolve
Tree
p505
(dp506
g7
I1
sg8
(imyEvolve
Tree
p507
(dp508
g7
I0
sg24
F-2.856092144068448
sg20
I01
sbsg21
(imyEvolve
Tree
p509
(dp510
g7
I0
sg24
F1.2138453462192667
sg20
I01
sbsg25
I00
sg26
g54
sbsg25
I00
sg26
g33
sbsg21
(imyEvolve
Tree
p511
(dp512
g7
I2
sg8
(imyEvolve
Tree
p513
(dp514
g11
(imyEvolve
Tree
p515
(dp516
g7
I0
sg24
F-0.015269630991559424
sg20
I01
sbsg7
I1
sg25
I01
sg26
g35
sbsg21
(imyEvolve
Tree
p517
(dp518
g11
(imyEvolve
Tree
p519
(dp520
g7
I0
sg20
I00
sbsg7
I1
sg25
I01
sg26
g113
sbsg25
I00
sg26
g33
sbsg25
I00
sg26
g27
sbsg7
I4
sg25
I01
sg26
g35
sba(imyEvolve
Tree
p521
(dp522
g11
(imyEvolve
Tree
p523
(dp524
g11
(imyEvolve
Tree
p525
(dp526
g7
I0
sg24
F4.002892488542059
sg20
I01
sbsg7
I1
sg25
I01
sg26
g35
sbsg7
I2
sg25
I01
sg26
g32
sba(imyEvolve
Tree
p527
(dp528
g7
I3
sg8
(imyEvolve
Tree
p529
(dp530
g11
(imyEvolve
Tree
p531
(dp532
g7
I1
sg8
(imyEvolve
Tree
p533
(dp534
g7
I0
sg20
I00
sbsg21
(imyEvolve
Tree
p535
(dp536
g7
I0
sg24
F0.4419016026095557
sg20
I01
sbsg25
I00
sg26
g33
sbsg7
I2
sg25
I01
sg26
g113
sbsg21
(imyEvolve
Tree
p537
(dp538
g7
I2
sg8
(imyEvolve
Tree
p539
(dp540
g7
I1
sg8
(imyEvolve
Tree
p541
(dp542
g7
I0
sg24
F-0.21727778655946395
sg20
I01
sbsg21
(imyEvolve
Tree
p543
(dp544
g7
I0
sg20
I00
sbsg25
I00
sg26
g27
sbsg21
(imyEvolve
Tree
p545
(dp546
g11
(imyEvolve
Tree
p547
(dp548
g7
I0
sg20
I00
sbsg7
I1
sg25
I01
sg26
g34
sbsg25
I00
sg26
g54
sbsg25
I00
sg26
g33
sba(imyEvolve
Tree
p549
(dp550
g7
I5
sg8
(imyEvolve
Tree
p551
(dp552
g11
(imyEvolve
Tree
p553
(dp554
g11
(imyEvolve
Tree
p555
(dp556
g11
(imyEvolve
Tree
p557
(dp558
g7
I1
sg8
(imyEvolve
Tree
p559
(dp560
g7
I0
sg20
I00
sbsg21
(imyEvolve
Tree
p561
(dp562
g7
I0
sg24
F4.285869379492674
sg20
I01
sbsg25
I00
sg26
g54
sbsg7
I2
sg25
I01
sg26
g113
sbsg7
I3
sg25
I01
sg26
g34
sbsg7
I4
sg25
I01
sg26
g113
sbsg21
(imyEvolve
Tree
p563
(dp564
g7
I4
sg8
(imyEvolve
Tree
p565
(dp566
g11
(imyEvolve
Tree
p567
(dp568
g11
(imyEvolve
Tree
p569
(dp570
g7
I1
sg8
(imyEvolve
Tree
p571
(dp572
g7
I0
sg20
I00
sbsg21
(imyEvolve
Tree
p573
(dp574
g7
I0
sg20
I00
sbsg25
I00
sg26
g33
sbsg7
I2
sg25
I01
sg26
g34
sbsg7
I3
sg25
I01
sg26
g113
sbsg21
(imyEvolve
Tree
p575
(dp576
g7
I3
sg8
(imyEvolve
Tree
p577
(dp578
g7
I2
sg8
(imyEvolve
Tree
p579
(dp580
g11
(imyEvolve
Tree
p581
(dp582
g7
I0
sg20
I00
sbsg7
I1
sg25
I01
sg26
g113
sbsg21
(imyEvolve
Tree
p583
(dp584
g11
(imyEvolve
Tree
p585
(dp586
g7
I0
sg20
I00
sbsg7
I1
sg25
I01
sg26
g113
sbsg25
I00
sg26
g27
sbsg21
(imyEvolve
Tree
p587
(dp588
g7
I2
sg8
(imyEvolve
Tree
p589
(dp590
g7
I1
sg8
(imyEvolve
Tree
p591
(dp592
g7
I0
sg20
I00
sbsg21
(imyEvolve
Tree
p593
(dp594
g7
I0
sg20
I00
sbsg25
I00
sg26
g27
sbsg21
(imyEvolve
Tree
p595
(dp596
g11
(imyEvolve
Tree
p597
(dp598
g7
I0
sg24
F-2.555373206785111
sg20
I01
sbsg7
I1
sg25
I01
sg26
g34
sbsg25
I00
sg26
g33
sbsg25
I00
sg26
g54
sbsg25
I00
sg26
g27
sbsg25
I00
sg26
g33
sba(imyEvolve
Tree
p599
(dp600
g11
(imyEvolve
Tree
p601
(dp602
g7
I3
sg8
(imyEvolve
Tree
p603
(dp604
g11
(imyEvolve
Tree
p605
(dp606
g11
(imyEvolve
Tree
p607
(dp608
g7
I0
sg20
I00
sbsg7
I1
sg25
I01
sg26
g32
sbsg7
I2
sg25
I01
sg26
g32
sbsg21
(imyEvolve
Tree
p609
(dp610
g11
(imyEvolve
Tree
p611
(dp612
g7
I1
sg8
(imyEvolve
Tree
p613
(dp614
g7
I0
sg20
I00
sbsg21
(imyEvolve
Tree
p615
(dp616
g7
I0
sg20
I00
sbsg25
I00
sg26
g54
sbsg7
I2
sg25
I01
sg26
g34
sbsg25
I00
sg26
g27
sbsg7
I4
sg25
I01
sg26
g32
sbaa(lp617
(imyEvolve
Tree
p618
(dp619
g11
(imyEvolve
Tree
p620
(dp621
g7
I1
sg8
(imyEvolve
Tree
p622
(dp623
g7
I0
sg24
F4.4282274777437785
sg20
I01
sbsg21
(imyEvolve
Tree
p624
(dp625
g7
I0
sg20
I00
sbsg25
I00
sg26
g33
sbsg7
I2
sg25
I01
sg26
g32
sba(imyEvolve
Tree
p626
(dp627
g7
I4
sg8
(imyEvolve
Tree
p628
(dp629
g7
I3
sg8
(imyEvolve
Tree
p630
(dp631
g7
I2
sg8
(imyEvolve
Tree
p632
(dp633
g11
(imyEvolve
Tree
p634
(dp635
g7
I0
sg20
I00
sbsg7
I1
sg25
I01
sg26
g32
sbsg21
(imyEvolve
Tree
p636
(dp637
g11
(imyEvolve
Tree
p638
(dp639
g7
I0
sg24
F3.5010246513444834
sg20
I01
sbsg7
I1
sg25
I01
sg26
g34
sbsg25
I00
sg26
g54
sbsg21
(imyEvolve
Tree
p640
(dp641
g7
I2
sg8
(imyEvolve
Tree
p642
(dp643
g7
I1
sg8
(imyEvolve
Tree
p644
(dp645
g7
I0
sg24
F2.2449934521415438
sg20
I01
sbsg21
(imyEvolve
Tree
p646
(dp647
g7
I0
sg24
F-2.452209520037716
sg20
I01
sbsg25
I00
sg26
g54
sbsg21
(imyEvolve
Tree
p648
(dp649
g7
I1
sg8
(imyEvolve
Tree
p650
(dp651
g7
I0
sg20
I00
sbsg21
(imyEvolve
Tree
p652
(dp653
g7
I0
sg24
F-2.9115324845836255
sg20
I01
sbsg25
I00
sg26
g27
sbsg25
I00
sg26
g27
sbsg25
I00
sg26
g54
sbsg21
(imyEvolve
Tree
p654
(dp655
g11
(imyEvolve
Tree
p656
(dp657
g11
(imyEvolve
Tree
p658
(dp659
g7
I1
sg8
(imyEvolve
Tree
p660
(dp661
g7
I0
sg20
I00
sbsg21
(imyEvolve
Tree
p662
(dp663
g7
I0
sg20
I00
sbsg25
I00
sg26
g54
sbsg7
I2
sg25
I01
sg26
g32
sbsg7
I3
sg25
I01
sg26
g34
sbsg25
I00
sg26
g33
sba(imyEvolve
Tree
p664
(dp665
g7
I2
sg8
(imyEvolve
Tree
p666
(dp667
g11
(imyEvolve
Tree
p668
(dp669
g7
I0
sg24
F-0.3419482731947383
sg20
I01
sbsg7
I1
sg25
I01
sg26
g32
sbsg21
(imyEvolve
Tree
p670
(dp671
g11
(imyEvolve
Tree
p672
(dp673
g7
I0
sg20
I00
sbsg7
I1
sg25
I01
sg26
g35
sbsg25
I00
sg26
g27
sba(imyEvolve
Tree
p674
(dp675
g7
I5
sg8
(imyEvolve
Tree
p676
(dp677
g11
(imyEvolve
Tree
p678
(dp679
g11
(imyEvolve
Tree
p680
(dp681
g7
I2
sg8
(imyEvolve
Tree
p682
(dp683
g7
I1
sg8
(imyEvolve
Tree
p684
(dp685
g7
I0
sg24
F3.830699429406387
sg20
I01
sbsg21
(imyEvolve
Tree
p686
(dp687
g7
I0
sg24
F0.03896641775260257
sg20
I01
sbsg25
I00
sg26
g54
sbsg21
(imyEvolve
Tree
p688
(dp689
g11
(imyEvolve
Tree
p690
(dp691
g7
I0
sg24
F-0.10005677810782743
sg20
I01
sbsg7
I1
sg25
I01
sg26
g113
sbsg25
I00
sg26
g27
sbsg7
I3
sg25
I01
sg26
g113
sbsg7
I4
sg25
I01
sg26
g34
sbsg21
(imyEvolve
Tree
p692
(dp693
g11
(imyEvolve
Tree
p694
(dp695
g11
(imyEvolve
Tree
p696
(dp697
g7
I2
sg8
(imyEvolve
Tree
p698
(dp699
g7
I1
sg8
(imyEvolve
Tree
p700
(dp701
g7
I0
sg20
I00
sbsg21
(imyEvolve
Tree
p702
(dp703
g7
I0
sg20
I00
sbsg25
I00
sg26
g54
sbsg21
(imyEvolve
Tree
p704
(dp705
g7
I1
sg8
(imyEvolve
Tree
p706
(dp707
g7
I0
sg20
I00
sbsg21
(imyEvolve
Tree
p708
(dp709
g7
I0
sg20
I00
sbsg25
I00
sg26
g27
sbsg25
I00
sg26
g33
sbsg7
I3
sg25
I01
sg26
g32
sbsg7
I4
sg25
I01
sg26
g35
sbsg25
I00
sg26
g33
sba(imyEvolve
Tree
p710
(dp711
g11
(imyEvolve
Tree
p712
(dp713
g7
I2
sg8
(imyEvolve
Tree
p714
(dp715
g7
I1
sg8
(imyEvolve
Tree
p716
(dp717
g7
I0
sg20
I00
sbsg21
(imyEvolve
Tree
p718
(dp719
g7
I0
sg20
I00
sbsg25
I00
sg26
g33
sbsg21
(imyEvolve
Tree
p720
(dp721
g7
I1
sg8
(imyEvolve
Tree
p722
(dp723
g7
I0
sg20
I00
sbsg21
(imyEvolve
Tree
p724
(dp725
g7
I0
sg24
F-4.635902058606285
sg20
I01
sbsg25
I00
sg26
g27
sbsg25
I00
sg26
g54
sbsg7
I3
sg25
I01
sg26
g113
sba(imyEvolve
Tree
p726
(dp727
g11
(imyEvolve
Tree
p728
(dp729
g7
I4
sg8
(imyEvolve
Tree
p730
(dp731
g7
I3
sg8
(imyEvolve
Tree
p732
(dp733
g11
(imyEvolve
Tree
p734
(dp735
g7
I1
sg8
(imyEvolve
Tree
p736
(dp737
g7
I0
sg24
F3.0947381087503487
sg20
I01
sbsg21
(imyEvolve
Tree
p738
(dp739
g7
I0
sg20
I00
sbsg25
I00
sg26
g33
sbsg7
I2
sg25
I01
sg26
g34
sbsg21
(imyEvolve
Tree
p740
(dp741
g7
I2
sg8
(imyEvolve
Tree
p742
(dp743
g7
I1
sg8
(imyEvolve
Tree
p744
(dp745
g7
I0
sg20
I00
sbsg21
(imyEvolve
Tree
p746
(dp747
g7
I0
sg20
I00
sbsg25
I00
sg26
g33
sbsg21
(imyEvolve
Tree
p748
(dp749
g7
I1
sg8
(imyEvolve
Tree
p750
(dp751
g7
I0
sg24
F3.7365788582936386
sg20
I01
sbsg21
(imyEvolve
Tree
p752
(dp753
g7
I0
sg20
I00
sbsg25
I00
sg26
g54
sbsg25
I00
sg26
g54
sbsg25
I00
sg26
g33
sbsg21
(imyEvolve
Tree
p754
(dp755
g7
I3
sg8
(imyEvolve
Tree
p756
(dp757
g11
(imyEvolve
Tree
p758
(dp759
g7
I1
sg8
(imyEvolve
Tree
p760
(dp761
g7
I0
sg24
F-4.3161285267823635
sg20
I01
sbsg21
(imyEvolve
Tree
p762
(dp763
g7
I0
sg20
I00
sbsg25
I00
sg26
g27
sbsg7
I2
sg25
I01
sg26
g32
sbsg21
(imyEvolve
Tree
p764
(dp765
g11
(imyEvolve
Tree
p766
(dp767
g7
I1
sg8
(imyEvolve
Tree
p768
(dp769
g7
I0
sg24
F0.6300799906604571
sg20
I01
sbsg21
(imyEvolve
Tree
p770
(dp771
g7
I0
sg20
I00
sbsg25
I00
sg26
g54
sbsg7
I2
sg25
I01
sg26
g113
sbsg25
I00
sg26
g54
sbsg25
I00
sg26
g33
sbsg7
I5
sg25
I01
sg26
g35
sba(imyEvolve
Tree
p772
(dp773
g7
I2
sg8
(imyEvolve
Tree
p774
(dp775
g11
(imyEvolve
Tree
p776
(dp777
g7
I0
sg20
I00
sbsg7
I1
sg25
I01
sg26
g34
sbsg21
(imyEvolve
Tree
p778
(dp779
g7
I1
sg8
(imyEvolve
Tree
p780
(dp781
g7
I0
sg24
F-1.3683059752689184
sg20
I01
sbsg21
(imyEvolve
Tree
p782
(dp783
g7
I0
sg24
F4.1829386333042144
sg20
I01
sbsg25
I00
sg26
g33
sbsg25
I00
sg26
g54
sba(imyEvolve
Tree
p784
(dp785
g7
I2
sg8
(imyEvolve
Tree
p786
(dp787
g7
I1
sg8
(imyEvolve
Tree
p788
(dp789
g7
I0
sg20
I00
sbsg21
(imyEvolve
Tree
p790
(dp791
g7
I0
sg20
I00
sbsg25
I00
sg26
g33
sbsg21
(imyEvolve
Tree
p792
(dp793
g7
I1
sg8
(imyEvolve
Tree
p794
(dp795
g7
I0
sg20
I00
sbsg21
(imyEvolve
Tree
p796
(dp797
g7
I0
sg24
F-0.4257270039037131
sg20
I01
sbsg25
I00
sg26
g33
sbsg25
I00
sg26
g33
sba(imyEvolve
Tree
p798
(dp799
g7
I4
sg8
(imyEvolve
Tree
p800
(dp801
g7
I3
sg8
(imyEvolve
Tree
p802
(dp803
g11
(imyEvolve
Tree
p804
(dp805
g11
(imyEvolve
Tree
p806
(dp807
g7
I0
sg24
F2.9135166536258206
sg20
I01
sbsg7
I1
sg25
I01
sg26
g35
sbsg7
I2
sg25
I01
sg26
g113
sbsg21
(imyEvolve
Tree
p808
(dp809
g7
I2
sg8
(imyEvolve
Tree
p810
(dp811
g7
I1
sg8
(imyEvolve
Tree
p812
(dp813
g7
I0
sg24
F-3.8481027248327226
sg20
I01
sbsg21
(imyEvolve
Tree
p814
(dp815
g7
I0
sg24
F-2.095953875594634
sg20
I01
sbsg25
I00
sg26
g27
sbsg21
(imyEvolve
Tree
p816
(dp817
g7
I1
sg8
(imyEvolve
Tree
p818
(dp819
g7
I0
sg20
I00
sbsg21
(imyEvolve
Tree
p820
(dp821
g7
I0
sg24
F4.190784365275311
sg20
I01
sbsg25
I00
sg26
g27
sbsg25
I00
sg26
g54
sbsg25
I00
sg26
g54
sbsg21
(imyEvolve
Tree
p822
(dp823
g11
(imyEvolve
Tree
p824
(dp825
g7
I2
sg8
(imyEvolve
Tree
p826
(dp827
g11
(imyEvolve
Tree
p828
(dp829
g7
I0
sg24
F-4.3315409514359065
sg20
I01
sbsg7
I1
sg25
I01
sg26
g35
sbsg21
(imyEvolve
Tree
p830
(dp831
g11
(imyEvolve
Tree
p832
(dp833
g7
I0
sg24
F-3.2528881570282087
sg20
I01
sbsg7
I1
sg25
I01
sg26
g32
sbsg25
I00
sg26
g54
sbsg7
I3
sg25
I01
sg26
g34
sbsg25
I00
sg26
g27
sbaa(lp834
(imyEvolve
Tree
p835
(dp836
g11
(imyEvolve
Tree
p837
(dp838
g11
(imyEvolve
Tree
p839
(dp840
g11
(imyEvolve
Tree
p841
(dp842
g7
I2
sg8
(imyEvolve
Tree
p843
(dp844
g7
I1
sg8
(imyEvolve
Tree
p845
(dp846
g7
I0
sg24
F-4.782513987184927
sg20
I01
sbsg21
(imyEvolve
Tree
p847
(dp848
g7
I0
sg20
I00
sbsg25
I00
sg26
g27
sbsg21
(imyEvolve
Tree
p849
(dp850
g11
(imyEvolve
Tree
p851
(dp852
g7
I0
sg24
F-1.1100286734099232
sg20
I01
sbsg7
I1
sg25
I01
sg26
g35
sbsg25
I00
sg26
g54
sbsg7
I3
sg25
I01
sg26
g32
sbsg7
I4
sg25
I01
sg26
g35
sbsg7
I5
sg25
I01
sg26
g35
sba(imyEvolve
Tree
p853
(dp854
g7
I2
sg8
(imyEvolve
Tree
p855
(dp856
g7
I1
sg8
(imyEvolve
Tree
p857
(dp858
g7
I0
sg20
I00
sbsg21
(imyEvolve
Tree
p859
(dp860
g7
I0
sg20
I00
sbsg25
I00
sg26
g54
sbsg21
(imyEvolve
Tree
p861
(dp862
g7
I1
sg8
(imyEvolve
Tree
p863
(dp864
g7
I0
sg24
F4.602876913400889
sg20
I01
sbsg21
(imyEvolve
Tree
p865
(dp866
g7
I0
sg24
F-4.15395294060958
sg20
I01
sbsg25
I00
sg26
g54
sbsg25
I00
sg26
g54
sba(imyEvolve
Tree
p867
(dp868
g7
I2
sg8
(imyEvolve
Tree
p869
(dp870
g11
(imyEvolve
Tree
p871
(dp872
g7
I0
sg20
I00
sbsg7
I1
sg25
I01
sg26
g32
sbsg21
(imyEvolve
Tree
p873
(dp874
g7
I1
sg8
(imyEvolve
Tree
p875
(dp876
g7
I0
sg24
F-2.633205246609972
sg20
I01
sbsg21
(imyEvolve
Tree
p877
(dp878
g7
I0
sg24
F1.8538248127275567
sg20
I01
sbsg25
I00
sg26
g27
sbsg25
I00
sg26
g54
sba(imyEvolve
Tree
p879
(dp880
g7
I2
sg8
(imyEvolve
Tree
p881
(dp882
g11
(imyEvolve
Tree
p883
(dp884
g7
I0
sg20
I00
sbsg7
I1
sg25
I01
sg26
g113
sbsg21
(imyEvolve
Tree
p885
(dp886
g7
I1
sg8
(imyEvolve
Tree
p887
(dp888
g7
I0
sg24
F-4.17793976028923
sg20
I01
sbsg21
(imyEvolve
Tree
p889
(dp890
g7
I0
sg20
I00
sbsg25
I00
sg26
g54
sbsg25
I00
sg26
g54
sba(imyEvolve
Tree
p891
(dp892
g7
I4
sg8
(imyEvolve
Tree
p893
(dp894
g7
I3
sg8
(imyEvolve
Tree
p895
(dp896
g11
(imyEvolve
Tree
p897
(dp898
g7
I1
sg8
(imyEvolve
Tree
p899
(dp900
g7
I0
sg20
I00
sbsg21
(imyEvolve
Tree
p901
(dp902
g7
I0
sg20
I00
sbsg25
I00
sg26
g27
sbsg7
I2
sg25
I01
sg26
g35
sbsg21
(imyEvolve
Tree
p903
(dp904
g7
I2
sg8
(imyEvolve
Tree
p905
(dp906
g11
(imyEvolve
Tree
p907
(dp908
g7
I0
sg24
F-2.816992707005146
sg20
I01
sbsg7
I1
sg25
I01
sg26
g113
sbsg21
(imyEvolve
Tree
p909
(dp910
g11
(imyEvolve
Tree
p911
(dp912
g7
I0
sg24
F-1.1062457614307575
sg20
I01
sbsg7
I1
sg25
I01
sg26
g32
sbsg25
I00
sg26
g33
sbsg25
I00
sg26
g33
sbsg21
(imyEvolve
Tree
p913
(dp914
g11
(imyEvolve
Tree
p915
(dp916
g7
I2
sg8
(imyEvolve
Tree
p917
(dp918
g7
I1
sg8
(imyEvolve
Tree
p919
(dp920
g7
I0
sg20
I00
sbsg21
(imyEvolve
Tree
p921
(dp922
g7
I0
sg20
I00
sbsg25
I00
sg26
g27
sbsg21
(imyEvolve
Tree
p923
(dp924
g7
I1
sg8
(imyEvolve
Tree
p925
(dp926
g7
I0
sg20
I00
sbsg21
(imyEvolve
Tree
p927
(dp928
g7
I0
sg24
F0.850174591995704
sg20
I01
sbsg25
I00
sg26
g54
sbsg25
I00
sg26
g27
sbsg7
I3
sg25
I01
sg26
g113
sbsg25
I00
sg26
g27
sba(imyEvolve
Tree
p929
(dp930
g11
(imyEvolve
Tree
p931
(dp932
g7
I2
sg8
(imyEvolve
Tree
p933
(dp934
g7
I1
sg8
(imyEvolve
Tree
p935
(dp936
g7
I0
sg24
F-0.9709743488921081
sg20
I01
sbsg21
(imyEvolve
Tree
p937
(dp938
g7
I0
sg24
F3.8524646365556805
sg20
I01
sbsg25
I00
sg26
g33
sbsg21
(imyEvolve
Tree
p939
(dp940
g7
I1
sg8
(imyEvolve
Tree
p941
(dp942
g7
I0
sg24
F4.578184895701817
sg20
I01
sbsg21
(imyEvolve
Tree
p943
(dp944
g7
I0
sg24
F-0.020814599373951026
sg20
I01
sbsg25
I00
sg26
g54
sbsg25
I00
sg26
g54
sbsg7
I3
sg25
I01
sg26
g34
sba(imyEvolve
Tree
p945
(dp946
g11
(imyEvolve
Tree
p947
(dp948
g11
(imyEvolve
Tree
p949
(dp950
g7
I3
sg8
(imyEvolve
Tree
p951
(dp952
g11
(imyEvolve
Tree
p953
(dp954
g7
I1
sg8
(imyEvolve
Tree
p955
(dp956
g7
I0
sg24
F0.7972371824501723
sg20
I01
sbsg21
(imyEvolve
Tree
p957
(dp958
g7
I0
sg24
F-0.5837249312444648
sg20
I01
sbsg25
I00
sg26
g27
sbsg7
I2
sg25
I01
sg26
g32
sbsg21
(imyEvolve
Tree
p959
(dp960
g11
(imyEvolve
Tree
p961
(dp962
g7
I1
sg8
(imyEvolve
Tree
p963
(dp964
g7
I0
sg20
I00
sbsg21
(imyEvolve
Tree
p965
(dp966
g7
I0
sg20
I00
sbsg25
I00
sg26
g33
sbsg7
I2
sg25
I01
sg26
g35
sbsg25
I00
sg26
g54
sbsg7
I4
sg25
I01
sg26
g113
sbsg7
I5
sg25
I01
sg26
g113
sba(imyEvolve
Tree
p967
(dp968
g11
(imyEvolve
Tree
p969
(dp970
g7
I1
sg8
(imyEvolve
Tree
p971
(dp972
g7
I0
sg24
F0.6707552923411777
sg20
I01
sbsg21
(imyEvolve
Tree
p973
(dp974
g7
I0
sg20
I00
sbsg25
I00
sg26
g33
sbsg7
I2
sg25
I01
sg26
g32
sba(imyEvolve
Tree
p975
(dp976
g7
I3
sg8
(imyEvolve
Tree
p977
(dp978
g11
(imyEvolve
Tree
p979
(dp980
g7
I1
sg8
(imyEvolve
Tree
p981
(dp982
g7
I0
sg20
I00
sbsg21
(imyEvolve
Tree
p983
(dp984
g7
I0
sg24
F-3.4461886067485645
sg20
I01
sbsg25
I00
sg26
g54
sbsg7
I2
sg25
I01
sg26
g32
sbsg21
(imyEvolve
Tree
p985
(dp986
g11
(imyEvolve
Tree
p987
(dp988
g7
I1
sg8
(imyEvolve
Tree
p989
(dp990
g7
I0
sg20
I00
sbsg21
(imyEvolve
Tree
p991
(dp992
g7
I0
sg24
F0.0671348143055468
sg20
I01
sbsg25
I00
sg26
g27
sbsg7
I2
sg25
I01
sg26
g113
sbsg25
I00
sg26
g54
sba(imyEvolve
Tree
p993
(dp994
g11
(imyEvolve
Tree
p995
(dp996
g7
I2
sg8
(imyEvolve
Tree
p997
(dp998
g7
I1
sg8
(imyEvolve
Tree
p999
(dp1000
g7
I0
sg24
F-3.418702015609335
sg20
I01
sbsg21
(imyEvolve
Tree
p1001
(dp1002
g7
I0
sg20
I00
sbsg25
I00
sg26
g27
sbsg21
(imyEvolve
Tree
p1003
(dp1004
g7
I1
sg8
(imyEvolve
Tree
p1005
(dp1006
g7
I0
sg24
F-4.882579856444263
sg20
I01
sbsg21
(imyEvolve
Tree
p1007
(dp1008
g7
I0
sg20
I00
sbsg25
I00
sg26
g54
sbsg25
I00
sg26
g54
sbsg7
I3
sg25
I01
sg26
g32
sba(imyEvolve
Tree
p1009
(dp1010
g11
(imyEvolve
Tree
p1011
(dp1012
g7
I2
sg8
(imyEvolve
Tree
p1013
(dp1014
g7
I1
sg8
(imyEvolve
Tree
p1015
(dp1016
g7
I0
sg24
F-0.16485198675477264
sg20
I01
sbsg21
(imyEvolve
Tree
p1017
(dp1018
g7
I0
sg20
I00
sbsg25
I00
sg26
g54
sbsg21
(imyEvolve
Tree
p1019
(dp1020
g7
I1
sg8
(imyEvolve
Tree
p1021
(dp1022
g7
I0
sg20
I00
sbsg21
(imyEvolve
Tree
p1023
(dp1024
g7
I0
sg20
I00
sbsg25
I00
sg26
g33
sbsg25
I00
sg26
g27
sbsg7
I3
sg25
I01
sg26
g32
sba(imyEvolve
Tree
p1025
(dp1026
g11
(imyEvolve
Tree
p1027
(dp1028
g11
(imyEvolve
Tree
p1029
(dp1030
g7
I3
sg8
(imyEvolve
Tree
p1031
(dp1032
g11
(imyEvolve
Tree
p1033
(dp1034
g7
I1
sg8
(imyEvolve
Tree
p1035
(dp1036
g7
I0
sg20
I00
sbsg21
(imyEvolve
Tree
p1037
(dp1038
g7
I0
sg24
F4.654255674153751
sg20
I01
sbsg25
I00
sg26
g27
sbsg7
I2
sg25
I01
sg26
g113
sbsg21
(imyEvolve
Tree
p1039
(dp1040
g7
I2
sg8
(imyEvolve
Tree
p1041
(dp1042
g11
(imyEvolve
Tree
p1043
(dp1044
g7
I0
sg24
F-3.6337659554071724
sg20
I01
sbsg7
I1
sg25
I01
sg26
g34
sbsg21
(imyEvolve
Tree
p1045
(dp1046
g7
I1
sg8
(imyEvolve
Tree
p1047
(dp1048
g7
I0
sg20
I00
sbsg21
(imyEvolve
Tree
p1049
(dp1050
g7
I0
sg24
F4.877429923785705
sg20
I01
sbsg25
I00
sg26
g27
sbsg25
I00
sg26
g27
sbsg25
I00
sg26
g54
sbsg7
I4
sg25
I01
sg26
g32
sbsg7
I5
sg25
I01
sg26
g34
sba(imyEvolve
Tree
p1051
(dp1052
g11
(imyEvolve
Tree
p1053
(dp1054
g7
I4
sg8
(imyEvolve
Tree
p1055
(dp1056
g7
I3
sg8
(imyEvolve
Tree
p1057
(dp1058
g7
I2
sg8
(imyEvolve
Tree
p1059
(dp1060
g7
I1
sg8
(imyEvolve
Tree
p1061
(dp1062
g7
I0
sg20
I00
sbsg21
(imyEvolve
Tree
p1063
(dp1064
g7
I0
sg24
F-0.2973560450986943
sg20
I01
sbsg25
I00
sg26
g33
sbsg21
(imyEvolve
Tree
p1065
(dp1066
g7
I1
sg8
(imyEvolve
Tree
p1067
(dp1068
g7
I0
sg20
I00
sbsg21
(imyEvolve
Tree
p1069
(dp1070
g7
I0
sg20
I00
sbsg25
I00
sg26
g54
sbsg25
I00
sg26
g33
sbsg21
(imyEvolve
Tree
p1071
(dp1072
g11
(imyEvolve
Tree
p1073
(dp1074
g7
I1
sg8
(imyEvolve
Tree
p1075
(dp1076
g7
I0
sg24
F-1.7707367979639708
sg20
I01
sbsg21
(imyEvolve
Tree
p1077
(dp1078
g7
I0
sg24
F2.844659277953583
sg20
I01
sbsg25
I00
sg26
g33
sbsg7
I2
sg25
I01
sg26
g35
sbsg25
I00
sg26
g54
sbsg21
(imyEvolve
Tree
p1079
(dp1080
g11
(imyEvolve
Tree
p1081
(dp1082
g11
(imyEvolve
Tree
p1083
(dp1084
g7
I1
sg8
(imyEvolve
Tree
p1085
(dp1086
g7
I0
sg24
F0.4342302532722595
sg20
I01
sbsg21
(imyEvolve
Tree
p1087
(dp1088
g7
I0
sg20
I00
sbsg25
I00
sg26
g54
sbsg7
I2
sg25
I01
sg26
g113
sbsg7
I3
sg25
I01
sg26
g34
sbsg25
I00
sg26
g54
sbsg7
I5
sg25
I01
sg26
g32
sba(imyEvolve
Tree
p1089
(dp1090
g7
I5
sg8
(imyEvolve
Tree
p1091
(dp1092
g11
(imyEvolve
Tree
p1093
(dp1094
g11
(imyEvolve
Tree
p1095
(dp1096
g7
I2
sg8
(imyEvolve
Tree
p1097
(dp1098
g7
I1
sg8
(imyEvolve
Tree
p1099
(dp1100
g7
I0
sg24
F-0.3444357575866617
sg20
I01
sbsg21
(imyEvolve
Tree
p1101
(dp1102
g7
I0
sg24
F2.975289383634667
sg20
I01
sbsg25
I00
sg26
g33
sbsg21
(imyEvolve
Tree
p1103
(dp1104
g7
I1
sg8
(imyEvolve
Tree
p1105
(dp1106
g7
I0
sg24
F-2.0816996016241216
sg20
I01
sbsg21
(imyEvolve
Tree
p1107
(dp1108
g7
I0
sg20
I00
sbsg25
I00
sg26
g54
sbsg25
I00
sg26
g54
sbsg7
I3
sg25
I01
sg26
g34
sbsg7
I4
sg25
I01
sg26
g34
sbsg21
(imyEvolve
Tree
p1109
(dp1110
g11
(imyEvolve
Tree
p1111
(dp1112
g7
I3
sg8
(imyEvolve
Tree
p1113
(dp1114
g11
(imyEvolve
Tree
p1115
(dp1116
g11
(imyEvolve
Tree
p1117
(dp1118
g7
I0
sg24
F-2.851816075485355
sg20
I01
sbsg7
I1
sg25
I01
sg26
g113
sbsg7
I2
sg25
I01
sg26
g34
sbsg21
(imyEvolve
Tree
p1119
(dp1120
g7
I2
sg8
(imyEvolve
Tree
p1121
(dp1122
g11
(imyEvolve
Tree
p1123
(dp1124
g7
I0
sg20
I00
sbsg7
I1
sg25
I01
sg26
g34
sbsg21
(imyEvolve
Tree
p1125
(dp1126
g7
I1
sg8
(imyEvolve
Tree
p1127
(dp1128
g7
I0
sg24
F0.8774315691128649
sg20
I01
sbsg21
(imyEvolve
Tree
p1129
(dp1130
g7
I0
sg20
I00
sbsg25
I00
sg26
g54
sbsg25
I00
sg26
g54
sbsg25
I00
sg26
g54
sbsg7
I4
sg25
I01
sg26
g34
sbsg25
I00
sg26
g54
sbaa(lp1131
(imyEvolve
Tree
p1132
(dp1133
g7
I5
sg8
(imyEvolve
Tree
p1134
(dp1135
g7
I4
sg8
(imyEvolve
Tree
p1136
(dp1137
g11
(imyEvolve
Tree
p1138
(dp1139
g11
(imyEvolve
Tree
p1140
(dp1141
g7
I1
sg8
(imyEvolve
Tree
p1142
(dp1143
g7
I0
sg20
I00
sbsg21
(imyEvolve
Tree
p1144
(dp1145
g7
I0
sg20
I00
sbsg25
I00
sg26
g33
sbsg7
I2
sg25
I01
sg26
g113
sbsg7
I3
sg25
I01
sg26
g34
sbsg21
(imyEvolve
Tree
p1146
(dp1147
g7
I3
sg8
(imyEvolve
Tree
p1148
(dp1149
g11
(imyEvolve
Tree
p1150
(dp1151
g11
(imyEvolve
Tree
p1152
(dp1153
g7
I0
sg24
F-2.1316640446797566
sg20
I01
sbsg7
I1
sg25
I01
sg26
g35
sbsg7
I2
sg25
I01
sg26
g32
sbsg21
(imyEvolve
Tree
p1154
(dp1155
g7
I2
sg8
(imyEvolve
Tree
p1156
(dp1157
g11
(imyEvolve
Tree
p1158
(dp1159
g7
I0
sg24
F-3.4493791886941185
sg20
I01
sbsg7
I1
sg25
I01
sg26
g34
sbsg21
(imyEvolve
Tree
p1160
(dp1161
g11
(imyEvolve
Tree
p1162
(dp1163
g7
I0
sg20
I00
sbsg7
I1
sg25
I01
sg26
g113
sbsg25
I00
sg26
g33
sbsg25
I00
sg26
g27
sbsg25
I00
sg26
g27
sbsg21
(imyEvolve
Tree
p1164
(dp1165
g11
(imyEvolve
Tree
p1166
(dp1167
g11
(imyEvolve
Tree
p1168
(dp1169
g11
(imyEvolve
Tree
p1170
(dp1171
g7
I1
sg8
(imyEvolve
Tree
p1172
(dp1173
g7
I0
sg20
I00
sbsg21
(imyEvolve
Tree
p1174
(dp1175
g7
I0
sg24
F-4.0691731857285065
sg20
I01
sbsg25
I00
sg26
g27
sbsg7
I2
sg25
I01
sg26
g35
sbsg7
I3
sg25
I01
sg26
g32
sbsg7
I4
sg25
I01
sg26
g32
sbsg25
I00
sg26
g54
sba(imyEvolve
Tree
p1176
(dp1177
g7
I5
sg8
(imyEvolve
Tree
p1178
(dp1179
g11
(imyEvolve
Tree
p1180
(dp1181
g7
I3
sg8
(imyEvolve
Tree
p1182
(dp1183
g7
I2
sg8
(imyEvolve
Tree
p1184
(dp1185
g11
(imyEvolve
Tree
p1186
(dp1187
g7
I0
sg20
I00
sbsg7
I1
sg25
I01
sg26
g113
sbsg21
(imyEvolve
Tree
p1188
(dp1189
g7
I1
sg8
(imyEvolve
Tree
p1190
(dp1191
g7
I0
sg24
F3.201680124847094
sg20
I01
sbsg21
(imyEvolve
Tree
p1192
(dp1193
g7
I0
sg24
F3.999090588482259
sg20
I01
sbsg25
I00
sg26
g27
sbsg25
I00
sg26
g33
sbsg21
(imyEvolve
Tree
p1194
(dp1195
g7
I2
sg8
(imyEvolve
Tree
p1196
(dp1197
g11
(imyEvolve
Tree
p1198
(dp1199
g7
I0
sg24
F-4.623763729427713
sg20
I01
sbsg7
I1
sg25
I01
sg26
g35
sbsg21
(imyEvolve
Tree
p1200
(dp1201
g11
(imyEvolve
Tree
p1202
(dp1203
g7
I0
sg24
F4.241901401602435
sg20
I01
sbsg7
I1
sg25
I01
sg26
g32
sbsg25
I00
sg26
g27
sbsg25
I00
sg26
g27
sbsg7
I4
sg25
I01
sg26
g34
sbsg21
(imyEvolve
Tree
p1204
(dp1205
g7
I4
sg8
(imyEvolve
Tree
p1206
(dp1207
g7
I3
sg8
(imyEvolve
Tree
p1208
(dp1209
g7
I2
sg8
(imyEvolve
Tree
p1210
(dp1211
g7
I1
sg8
(imyEvolve
Tree
p1212
(dp1213
g7
I0
sg24
F0.17862617079804988
sg20
I01
sbsg21
(imyEvolve
Tree
p1214
(dp1215
g7
I0
sg24
F3.7186880199393038
sg20
I01
sbsg25
I00
sg26
g54
sbsg21
(imyEvolve
Tree
p1216
(dp1217
g7
I1
sg8
(imyEvolve
Tree
p1218
(dp1219
g7
I0
sg20
I00
sbsg21
(imyEvolve
Tree
p1220
(dp1221
g7
I0
sg24
F0.5239854826053829
sg20
I01
sbsg25
I00
sg26
g54
sbsg25
I00
sg26
g54
sbsg21
(imyEvolve
Tree
p1222
(dp1223
g11
(imyEvolve
Tree
p1224
(dp1225
g7
I1
sg8
(imyEvolve
Tree
p1226
(dp1227
g7
I0
sg24
F3.2175631500206663
sg20
I01
sbsg21
(imyEvolve
Tree
p1228
(dp1229
g7
I0
sg24
F-3.2629967233463795
sg20
I01
sbsg25
I00
sg26
g54
sbsg7
I2
sg25
I01
sg26
g32
sbsg25
I00
sg26
g27
sbsg21
(imyEvolve
Tree
p1230
(dp1231
g7
I3
sg8
(imyEvolve
Tree
p1232
(dp1233
g11
(imyEvolve
Tree
p1234
(dp1235
g11
(imyEvolve
Tree
p1236
(dp1237
g7
I0
sg24
F-1.0171333283528714
sg20
I01
sbsg7
I1
sg25
I01
sg26
g113
sbsg7
I2
sg25
I01
sg26
g32
sbsg21
(imyEvolve
Tree
p1238
(dp1239
g7
I2
sg8
(imyEvolve
Tree
p1240
(dp1241
g7
I1
sg8
(imyEvolve
Tree
p1242
(dp1243
g7
I0
sg20
I00
sbsg21
(imyEvolve
Tree
p1244
(dp1245
g7
I0
sg20
I00
sbsg25
I00
sg26
g33
sbsg21
(imyEvolve
Tree
p1246
(dp1247
g11
(imyEvolve
Tree
p1248
(dp1249
g7
I0
sg20
I00
sbsg7
I1
sg25
I01
sg26
g113
sbsg25
I00
sg26
g27
sbsg25
I00
sg26
g54
sbsg25
I00
sg26
g27
sbsg25
I00
sg26
g54
sba(imyEvolve
Tree
p1250
(dp1251
g7
I2
sg8
(imyEvolve
Tree
p1252
(dp1253
g11
(imyEvolve
Tree
p1254
(dp1255
g7
I0
sg24
F-2.1796000097786505
sg20
I01
sbsg7
I1
sg25
I01
sg26
g32
sbsg21
(imyEvolve
Tree
p1256
(dp1257
g7
I1
sg8
(imyEvolve
Tree
p1258
(dp1259
g7
I0
sg20
I00
sbsg21
(imyEvolve
Tree
p1260
(dp1261
g7
I0
sg20
I00
sbsg25
I00
sg26
g54
sbsg25
I00
sg26
g27
sba(imyEvolve
Tree
p1262
(dp1263
g11
(imyEvolve
Tree
p1264
(dp1265
g7
I3
sg8
(imyEvolve
Tree
p1266
(dp1267
g7
I2
sg8
(imyEvolve
Tree
p1268
(dp1269
g7
I1
sg8
(imyEvolve
Tree
p1270
(dp1271
g7
I0
sg20
I00
sbsg21
(imyEvolve
Tree
p1272
(dp1273
g7
I0
sg20
I00
sbsg25
I00
sg26
g33
sbsg21
(imyEvolve
Tree
p1274
(dp1275
g11
(imyEvolve
Tree
p1276
(dp1277
g7
I0
sg24
F-3.264891026254224
sg20
I01
sbsg7
I1
sg25
I01
sg26
g34
sbsg25
I00
sg26
g27
sbsg21
(imyEvolve
Tree
p1278
(dp1279
g7
I2
sg8
(imyEvolve
Tree
p1280
(dp1281
g11
(imyEvolve
Tree
p1282
(dp1283
g7
I0
sg20
I00
sbsg7
I1
sg25
I01
sg26
g113
sbsg21
(imyEvolve
Tree
p1284
(dp1285
g7
I1
sg8
(imyEvolve
Tree
p1286
(dp1287
g7
I0
sg24
F-0.8282265875512707
sg20
I01
sbsg21
(imyEvolve
Tree
p1288
(dp1289
g7
I0
sg20
I00
sbsg25
I00
sg26
g27
sbsg25
I00
sg26
g27
sbsg25
I00
sg26
g54
sbsg7
I4
sg25
I01
sg26
g35
sba(imyEvolve
Tree
p1290
(dp1291
g11
(imyEvolve
Tree
p1292
(dp1293
g7
I3
sg8
(imyEvolve
Tree
p1294
(dp1295
g11
(imyEvolve
Tree
p1296
(dp1297
g11
(imyEvolve
Tree
p1298
(dp1299
g7
I0
sg20
I00
sbsg7
I1
sg25
I01
sg26
g35
sbsg7
I2
sg25
I01
sg26
g32
sbsg21
(imyEvolve
Tree
p1300
(dp1301
g7
I2
sg8
(imyEvolve
Tree
p1302
(dp1303
g11
(imyEvolve
Tree
p1304
(dp1305
g7
I0
sg24
F0.47454015780068914
sg20
I01
sbsg7
I1
sg25
I01
sg26
g35
sbsg21
(imyEvolve
Tree
p1306
(dp1307
g11
(imyEvolve
Tree
p1308
(dp1309
g7
I0
sg20
I00
sbsg7
I1
sg25
I01
sg26
g34
sbsg25
I00
sg26
g54
sbsg25
I00
sg26
g33
sbsg7
I4
sg25
I01
sg26
g113
sba(imyEvolve
Tree
p1310
(dp1311
g7
I3
sg8
(imyEvolve
Tree
p1312
(dp1313
g11
(imyEvolve
Tree
p1314
(dp1315
g7
I1
sg8
(imyEvolve
Tree
p1316
(dp1317
g7
I0
sg20
I00
sbsg21
(imyEvolve
Tree
p1318
(dp1319
g7
I0
sg24
F2.956527534034082
sg20
I01
sbsg25
I00
sg26
g54
sbsg7
I2
sg25
I01
sg26
g34
sbsg21
(imyEvolve
Tree
p1320
(dp1321
g11
(imyEvolve
Tree
p1322
(dp1323
g11
(imyEvolve
Tree
p1324
(dp1325
g7
I0
sg20
I00
sbsg7
I1
sg25
I01
sg26
g32
sbsg7
I2
sg25
I01
sg26
g35
sbsg25
I00
sg26
g33
sba(imyEvolve
Tree
p1326
(dp1327
g7
I3
sg8
(imyEvolve
Tree
p1328
(dp1329
g7
I2
sg8
(imyEvolve
Tree
p1330
(dp1331
g7
I1
sg8
(imyEvolve
Tree
p1332
(dp1333
g7
I0
sg24
F-4.940703783178572
sg20
I01
sbsg21
(imyEvolve
Tree
p1334
(dp1335
g7
I0
sg24
F-0.7592750718396797
sg20
I01
sbsg25
I00
sg26
g54
sbsg21
(imyEvolve
Tree
p1336
(dp1337
g7
I1
sg8
(imyEvolve
Tree
p1338
(dp1339
g7
I0
sg24
F-3.5929888784236343
sg20
I01
sbsg21
(imyEvolve
Tree
p1340
(dp1341
g7
I0
sg24
F4.980269360400374
sg20
I01
sbsg25
I00
sg26
g54
sbsg25
I00
sg26
g54
sbsg21
(imyEvolve
Tree
p1342
(dp1343
g7
I2
sg8
(imyEvolve
Tree
p1344
(dp1345
g7
I1
sg8
(imyEvolve
Tree
p1346
(dp1347
g7
I0
sg24
F-2.0455801237826163
sg20
I01
sbsg21
(imyEvolve
Tree
p1348
(dp1349
g7
I0
sg24
F4.9054401011280255
sg20
I01
sbsg25
I00
sg26
g33
sbsg21
(imyEvolve
Tree
p1350
(dp1351
g7
I1
sg8
(imyEvolve
Tree
p1352
(dp1353
g7
I0
sg20
I00
sbsg21
(imyEvolve
Tree
p1354
(dp1355
g7
I0
sg24
F-4.4601005954387505
sg20
I01
sbsg25
I00
sg26
g54
sbsg25
I00
sg26
g54
sbsg25
I00
sg26
g54
sba(imyEvolve
Tree
p1356
(dp1357
g7
I5
sg8
(imyEvolve
Tree
p1358
(dp1359
g7
I4
sg8
(imyEvolve
Tree
p1360
(dp1361
g11
(imyEvolve
Tree
p1362
(dp1363
g7
I2
sg8
(imyEvolve
Tree
p1364
(dp1365
g7
I1
sg8
(imyEvolve
Tree
p1366
(dp1367
g7
I0
sg24
F4.494752718585662
sg20
I01
sbsg21
(imyEvolve
Tree
p1368
(dp1369
g7
I0
sg20
I00
sbsg25
I00
sg26
g33
sbsg21
(imyEvolve
Tree
p1370
(dp1371
g7
I1
sg8
(imyEvolve
Tree
p1372
(dp1373
g7
I0
sg20
I00
sbsg21
(imyEvolve
Tree
p1374
(dp1375
g7
I0
sg24
F-2.7216103489485013
sg20
I01
sbsg25
I00
sg26
g33
sbsg25
I00
sg26
g54
sbsg7
I3
sg25
I01
sg26
g113
sbsg21
(imyEvolve
Tree
p1376
(dp1377
g7
I3
sg8
(imyEvolve
Tree
p1378
(dp1379
g11
(imyEvolve
Tree
p1380
(dp1381
g11
(imyEvolve
Tree
p1382
(dp1383
g7
I0
sg24
F2.899130916282738
sg20
I01
sbsg7
I1
sg25
I01
sg26
g113
sbsg7
I2
sg25
I01
sg26
g32
sbsg21
(imyEvolve
Tree
p1384
(dp1385
g11
(imyEvolve
Tree
p1386
(dp1387
g7
I1
sg8
(imyEvolve
Tree
p1388
(dp1389
g7
I0
sg20
I00
sbsg21
(imyEvolve
Tree
p1390
(dp1391
g7
I0
sg24
F-0.3324593285644353
sg20
I01
sbsg25
I00
sg26
g27
sbsg7
I2
sg25
I01
sg26
g35
sbsg25
I00
sg26
g27
sbsg25
I00
sg26
g33
sbsg21
(imyEvolve
Tree
p1392
(dp1393
g7
I4
sg8
(imyEvolve
Tree
p1394
(dp1395
g7
I3
sg8
(imyEvolve
Tree
p1396
(dp1397
g7
I2
sg8
(imyEvolve
Tree
p1398
(dp1399
g7
I1
sg8
(imyEvolve
Tree
p1400
(dp1401
g7
I0
sg24
F4.1400719290716275
sg20
I01
sbsg21
(imyEvolve
Tree
p1402
(dp1403
g7
I0
sg20
I00
sbsg25
I00
sg26
g33
sbsg21
(imyEvolve
Tree
p1404
(dp1405
g11
(imyEvolve
Tree
p1406
(dp1407
g7
I0
sg20
I00
sbsg7
I1
sg25
I01
sg26
g113
sbsg25
I00
sg26
g33
sbsg21
(imyEvolve
Tree
p1408
(dp1409
g11
(imyEvolve
Tree
p1410
(dp1411
g7
I1
sg8
(imyEvolve
Tree
p1412
(dp1413
g7
I0
sg24
F-3.665943446520835
sg20
I01
sbsg21
(imyEvolve
Tree
p1414
(dp1415
g7
I0
sg20
I00
sbsg25
I00
sg26
g33
sbsg7
I2
sg25
I01
sg26
g34
sbsg25
I00
sg26
g27
sbsg21
(imyEvolve
Tree
p1416
(dp1417
g11
(imyEvolve
Tree
p1418
(dp1419
g11
(imyEvolve
Tree
p1420
(dp1421
g11
(imyEvolve
Tree
p1422
(dp1423
g7
I0
sg24
F-4.0320685861762655
sg20
I01
sbsg7
I1
sg25
I01
sg26
g35
sbsg7
I2
sg25
I01
sg26
g35
sbsg7
I3
sg25
I01
sg26
g35
sbsg25
I00
sg26
g54
sbsg25
I00
sg26
g33
sba(imyEvolve
Tree
p1424
(dp1425
g7
I4
sg8
(imyEvolve
Tree
p1426
(dp1427
g11
(imyEvolve
Tree
p1428
(dp1429
g11
(imyEvolve
Tree
p1430
(dp1431
g11
(imyEvolve
Tree
p1432
(dp1433
g7
I0
sg24
F-1.831636788998272
sg20
I01
sbsg7
I1
sg25
I01
sg26
g113
sbsg7
I2
sg25
I01
sg26
g113
sbsg7
I3
sg25
I01
sg26
g34
sbsg21
(imyEvolve
Tree
p1434
(dp1435
g11
(imyEvolve
Tree
p1436
(dp1437
g7
I2
sg8
(imyEvolve
Tree
p1438
(dp1439
g7
I1
sg8
(imyEvolve
Tree
p1440
(dp1441
g7
I0
sg20
I00
sbsg21
(imyEvolve
Tree
p1442
(dp1443
g7
I0
sg20
I00
sbsg25
I00
sg26
g27
sbsg21
(imyEvolve
Tree
p1444
(dp1445
g7
I1
sg8
(imyEvolve
Tree
p1446
(dp1447
g7
I0
sg24
F0.6057105514367933
sg20
I01
sbsg21
(imyEvolve
Tree
p1448
(dp1449
g7
I0
sg24
F3.453126810410824
sg20
I01
sbsg25
I00
sg26
g54
sbsg25
I00
sg26
g27
sbsg7
I3
sg25
I01
sg26
g34
sbsg25
I00
sg26
g27
sba(imyEvolve
Tree
p1450
(dp1451
g7
I4
sg8
(imyEvolve
Tree
p1452
(dp1453
g11
(imyEvolve
Tree
p1454
(dp1455
g7
I2
sg8
(imyEvolve
Tree
p1456
(dp1457
g7
I1
sg8
(imyEvolve
Tree
p1458
(dp1459
g7
I0
sg24
F-2.768758099820791
sg20
I01
sbsg21
(imyEvolve
Tree
p1460
(dp1461
g7
I0
sg24
F2.9034392380848786
sg20
I01
sbsg25
I00
sg26
g54
sbsg21
(imyEvolve
Tree
p1462
(dp1463
g7
I1
sg8
(imyEvolve
Tree
p1464
(dp1465
g7
I0
sg20
I00
sbsg21
(imyEvolve
Tree
p1466
(dp1467
g7
I0
sg24
F1.1883818573310299
sg20
I01
sbsg25
I00
sg26
g54
sbsg25
I00
sg26
g54
sbsg7
I3
sg25
I01
sg26
g32
sbsg21
(imyEvolve
Tree
p1468
(dp1469
g7
I3
sg8
(imyEvolve
Tree
p1470
(dp1471
g7
I2
sg8
(imyEvolve
Tree
p1472
(dp1473
g11
(imyEvolve
Tree
p1474
(dp1475
g7
I0
sg24
F0.8358405398494533
sg20
I01
sbsg7
I1
sg25
I01
sg26
g34
sbsg21
(imyEvolve
Tree
p1476
(dp1477
g7
I1
sg8
(imyEvolve
Tree
p1478
(dp1479
g7
I0
sg24
F1.0889179261765385
sg20
I01
sbsg21
(imyEvolve
Tree
p1480
(dp1481
g7
I0
sg24
F3.0632051716712123
sg20
I01
sbsg25
I00
sg26
g33
sbsg25
I00
sg26
g27
sbsg21
(imyEvolve
Tree
p1482
(dp1483
g11
(imyEvolve
Tree
p1484
(dp1485
g7
I1
sg8
(imyEvolve
Tree
p1486
(dp1487
g7
I0
sg24
F-4.203589720323125
sg20
I01
sbsg21
(imyEvolve
Tree
p1488
(dp1489
g7
I0
sg24
F-4.969984178655772
sg20
I01
sbsg25
I00
sg26
g27
sbsg7
I2
sg25
I01
sg26
g113
sbsg25
I00
sg26
g54
sbsg25
I00
sg26
g27
sba(imyEvolve
Tree
p1490
(dp1491
g7
I3
sg8
(imyEvolve
Tree
p1492
(dp1493
g7
I2
sg8
(imyEvolve
Tree
p1494
(dp1495
g7
I1
sg8
(imyEvolve
Tree
p1496
(dp1497
g7
I0
sg24
F2.2161898004742833
sg20
I01
sbsg21
(imyEvolve
Tree
p1498
(dp1499
g7
I0
sg24
F-2.546006889297081
sg20
I01
sbsg25
I00
sg26
g54
sbsg21
(imyEvolve
Tree
p1500
(dp1501
g11
(imyEvolve
Tree
p1502
(dp1503
g7
I0
sg20
I00
sbsg7
I1
sg25
I01
sg26
g32
sbsg25
I00
sg26
g33
sbsg21
(imyEvolve
Tree
p1504
(dp1505
g7
I2
sg8
(imyEvolve
Tree
p1506
(dp1507
g11
(imyEvolve
Tree
p1508
(dp1509
g7
I0
sg20
I00
sbsg7
I1
sg25
I01
sg26
g113
sbsg21
(imyEvolve
Tree
p1510
(dp1511
g7
I1
sg8
(imyEvolve
Tree
p1512
(dp1513
g7
I0
sg20
I00
sbsg21
(imyEvolve
Tree
p1514
(dp1515
g7
I0
sg20
I00
sbsg25
I00
sg26
g27
sbsg25
I00
sg26
g33
sbsg25
I00
sg26
g33
sba(imyEvolve
Tree
p1516
(dp1517
g11
(imyEvolve
Tree
p1518
(dp1519
g7
I2
sg8
(imyEvolve
Tree
p1520
(dp1521
g11
(imyEvolve
Tree
p1522
(dp1523
g7
I0
sg24
F2.5235045853292526
sg20
I01
sbsg7
I1
sg25
I01
sg26
g34
sbsg21
(imyEvolve
Tree
p1524
(dp1525
g11
(imyEvolve
Tree
p1526
(dp1527
g7
I0
sg20
I00
sbsg7
I1
sg25
I01
sg26
g32
sbsg25
I00
sg26
g33
sbsg7
I3
sg25
I01
sg26
g32
sba(imyEvolve
Tree
p1528
(dp1529
g11
(imyEvolve
Tree
p1530
(dp1531
g11
(imyEvolve
Tree
p1532
(dp1533
g11
(imyEvolve
Tree
p1534
(dp1535
g7
I0
sg24
F-2.5658677445144207
sg20
I01
sbsg7
I1
sg25
I01
sg26
g113
sbsg7
I2
sg25
I01
sg26
g32
sbsg7
I3
sg25
I01
sg26
g35
sba(imyEvolve
Tree
p1536
(dp1537
g7
I3
sg8
(imyEvolve
Tree
p1538
(dp1539
g11
(imyEvolve
Tree
p1540
(dp1541
g11
(imyEvolve
Tree
p1542
(dp1543
g7
I0
sg24
F3.105850513405361
sg20
I01
sbsg7
I1
sg25
I01
sg26
g113
sbsg7
I2
sg25
I01
sg26
g32
sbsg21
(imyEvolve
Tree
p1544
(dp1545
g11
(imyEvolve
Tree
p1546
(dp1547
g7
I1
sg8
(imyEvolve
Tree
p1548
(dp1549
g7
I0
sg24
F0.8674045009445148
sg20
I01
sbsg21
(imyEvolve
Tree
p1550
(dp1551
g7
I0
sg20
I00
sbsg25
I00
sg26
g54
sbsg7
I2
sg25
I01
sg26
g32
sbsg25
I00
sg26
g33
sba(imyEvolve
Tree
p1552
(dp1553
g7
I3
sg8
(imyEvolve
Tree
p1554
(dp1555
g11
(imyEvolve
Tree
p1556
(dp1557
g7
I1
sg8
(imyEvolve
Tree
p1558
(dp1559
g7
I0
sg20
I00
sbsg21
(imyEvolve
Tree
p1560
(dp1561
g7
I0
sg24
F4.775735224485853
sg20
I01
sbsg25
I00
sg26
g54
sbsg7
I2
sg25
I01
sg26
g113
sbsg21
(imyEvolve
Tree
p1562
(dp1563
g7
I2
sg8
(imyEvolve
Tree
p1564
(dp1565
g11
(imyEvolve
Tree
p1566
(dp1567
g7
I0
sg20
I00
sbsg7
I1
sg25
I01
sg26
g32
sbsg21
(imyEvolve
Tree
p1568
(dp1569
g11
(imyEvolve
Tree
p1570
(dp1571
g7
I0
sg20
I00
sbsg7
I1
sg25
I01
sg26
g35
sbsg25
I00
sg26
g33
sbsg25
I00
sg26
g27
sbaasS'weightSharing'
p1572
(lp1573
I01
asS'fitnessValid'
p1574
I00
sS'fitness'
p1575
cnumpy.core.multiarray
scalar
p1576
(cnumpy
dtype
p1577
(S'f8'
p1578
I0
I1
tp1579
Rp1580
(I3
S'<'
p1581
NNNI-1
I-1
I0
tp1582
bS'\x00\x91~\xd9\x18!\xe6?'
p1583
tp1584
Rp1585
sS'alpha'
p1586
F0.008801333689309288
sS'resolution'
p1587
I33
sb.