(imyEvolve
Individual
p0
(dp1
S'funcs'
p2
(lp3
(lp4
(imyEvolve
Tree
p5
(dp6
S'depth'
p7
I3
sS'left'
p8
(imyEvolve
Tree
p9
(dp10
g7
I2
sg8
(imyEvolve
Tree
p11
(dp12
g7
I1
sg8
(imyEvolve
Tree
p13
(dp14
g7
I0
sS'isConstant'
p15
I00
sbsS'right'
p16
(imyEvolve
Tree
p17
(dp18
g7
I0
sg15
I00
sbsS'single'
p19
I00
sS'op'
p20
coperator
add
p21
sbsg16
(imyEvolve
Tree
p22
(dp23
S'below'
p24
(imyEvolve
Tree
p25
(dp26
g7
I0
sS'constant'
p27
F1.872470903942812
sg15
I01
sbsg7
I1
sg19
I01
sg20
cmath
sin
p28
sbsg19
I00
sg20
coperator
mul
p29
sbsg16
(imyEvolve
Tree
p30
(dp31
g7
I2
sg8
(imyEvolve
Tree
p32
(dp33
g24
(imyEvolve
Tree
p34
(dp35
g7
I0
sg27
F-2.4658985230347974
sg15
I01
sbsg7
I1
sg19
I01
sg20
cmyEvolve
absSqrt
p36
sbsg16
(imyEvolve
Tree
p37
(dp38
g24
(imyEvolve
Tree
p39
(dp40
g7
I0
sg27
F-4.490212339919458
sg15
I01
sbsg7
I1
sg19
I01
sg20
g36
sbsg19
I00
sg20
g21
sbsg19
I00
sg20
g21
sba(imyEvolve
Tree
p41
(dp42
g24
(imyEvolve
Tree
p43
(dp44
g24
(imyEvolve
Tree
p45
(dp46
g24
(imyEvolve
Tree
p47
(dp48
g7
I0
sg15
I00
sbsg7
I1
sg19
I01
sg20
cmyEvolve
square
p49
sbsg7
I2
sg19
I01
sg20
cmath
cos
p50
sbsg7
I3
sg19
I01
sg20
g49
sba(imyEvolve
Tree
p51
(dp52
g24
(imyEvolve
Tree
p53
(dp54
g7
I4
sg8
(imyEvolve
Tree
p55
(dp56
g24
(imyEvolve
Tree
p57
(dp58
g24
(imyEvolve
Tree
p59
(dp60
g24
(imyEvolve
Tree
p61
(dp62
g7
I0
sg15
I00
sbsg7
I1
sg19
I01
sg20
g28
sbsg7
I2
sg19
I01
sg20
g49
sbsg7
I3
sg19
I01
sg20
g49
sbsg16
(imyEvolve
Tree
p63
(dp64
g7
I3
sg8
(imyEvolve
Tree
p65
(dp66
g24
(imyEvolve
Tree
p67
(dp68
g7
I1
sg8
(imyEvolve
Tree
p69
(dp70
g7
I0
sg15
I00
sbsg16
(imyEvolve
Tree
p71
(dp72
g7
I0
sg15
I00
sbsg19
I00
sg20
g21
sbsg7
I2
sg19
I01
sg20
g50
sbsg16
(imyEvolve
Tree
p73
(dp74
g7
I2
sg8
(imyEvolve
Tree
p75
(dp76
g24
(imyEvolve
Tree
p77
(dp78
g7
I0
sg27
F-2.1690916436987107
sg15
I01
sbsg7
I1
sg19
I01
sg20
g49
sbsg16
(imyEvolve
Tree
p79
(dp80
g24
(imyEvolve
Tree
p81
(dp82
g7
I0
sg15
I00
sbsg7
I1
sg19
I01
sg20
g36
sbsg19
I00
sg20
coperator
sub
p83
sbsg19
I00
sg20
g21
sbsg19
I00
sg20
g29
sbsg7
I5
sg19
I01
sg20
g36
sba(imyEvolve
Tree
p84
(dp85
g7
I3
sg8
(imyEvolve
Tree
p86
(dp87
g24
(imyEvolve
Tree
p88
(dp89
g7
I1
sg8
(imyEvolve
Tree
p90
(dp91
g7
I0
sg27
F3.663739582107608
sg15
I01
sbsg16
(imyEvolve
Tree
p92
(dp93
g7
I0
sg15
I00
sbsg19
I00
sg20
g29
sbsg7
I2
sg19
I01
sg20
g28
sbsg16
(imyEvolve
Tree
p94
(dp95
g7
I2
sg8
(imyEvolve
Tree
p96
(dp97
g24
(imyEvolve
Tree
p98
(dp99
g7
I0
sg27
F-4.894666163603442
sg15
I01
sbsg7
I1
sg19
I01
sg20
g49
sbsg16
(imyEvolve
Tree
p100
(dp101
g24
(imyEvolve
Tree
p102
(dp103
g7
I0
sg27
F1.3569149628026045
sg15
I01
sbsg7
I1
sg19
I01
sg20
g49
sbsg19
I00
sg20
g21
sbsg19
I00
sg20
g21
sba(imyEvolve
Tree
p104
(dp105
g7
I5
sg8
(imyEvolve
Tree
p106
(dp107
g24
(imyEvolve
Tree
p108
(dp109
g7
I3
sg8
(imyEvolve
Tree
p110
(dp111
g7
I2
sg8
(imyEvolve
Tree
p112
(dp113
g24
(imyEvolve
Tree
p114
(dp115
g7
I0
sg27
F2.685452623310386
sg15
I01
sbsg7
I1
sg19
I01
sg20
g28
sbsg16
(imyEvolve
Tree
p116
(dp117
g7
I1
sg8
(imyEvolve
Tree
p118
(dp119
g7
I0
sg27
F1.1274760775114778
sg15
I01
sbsg16
(imyEvolve
Tree
p120
(dp121
g7
I0
sg15
I00
sbsg19
I00
sg20
g21
sbsg19
I00
sg20
g21
sbsg16
(imyEvolve
Tree
p122
(dp123
g24
(imyEvolve
Tree
p124
(dp125
g7
I1
sg8
(imyEvolve
Tree
p126
(dp127
g7
I0
sg15
I00
sbsg16
(imyEvolve
Tree
p128
(dp129
g7
I0
sg27
F0.8195621903494077
sg15
I01
sbsg19
I00
sg20
g83
sbsg7
I2
sg19
I01
sg20
g49
sbsg19
I00
sg20
g21
sbsg7
I4
sg19
I01
sg20
g36
sbsg16
(imyEvolve
Tree
p130
(dp131
g24
(imyEvolve
Tree
p132
(dp133
g7
I3
sg8
(imyEvolve
Tree
p134
(dp135
g24
(imyEvolve
Tree
p136
(dp137
g7
I1
sg8
(imyEvolve
Tree
p138
(dp139
g7
I0
sg27
F4.953852979007342
sg15
I01
sbsg16
(imyEvolve
Tree
p140
(dp141
g7
I0
sg27
F-0.3303732933226078
sg15
I01
sbsg19
I00
sg20
g83
sbsg7
I2
sg19
I01
sg20
g36
sbsg16
(imyEvolve
Tree
p142
(dp143
g7
I2
sg8
(imyEvolve
Tree
p144
(dp145
g7
I1
sg8
(imyEvolve
Tree
p146
(dp147
g7
I0
sg27
F2.0091256822319936
sg15
I01
sbsg16
(imyEvolve
Tree
p148
(dp149
g7
I0
sg27
F-4.132821022396307
sg15
I01
sbsg19
I00
sg20
g21
sbsg16
(imyEvolve
Tree
p150
(dp151
g7
I1
sg8
(imyEvolve
Tree
p152
(dp153
g7
I0
sg15
I00
sbsg16
(imyEvolve
Tree
p154
(dp155
g7
I0
sg27
F-3.2889525964942576
sg15
I01
sbsg19
I00
sg20
g29
sbsg19
I00
sg20
g83
sbsg19
I00
sg20
g21
sbsg7
I4
sg19
I01
sg20
g50
sbsg19
I00
sg20
g29
sba(imyEvolve
Tree
p156
(dp157
g7
I4
sg8
(imyEvolve
Tree
p158
(dp159
g7
I3
sg8
(imyEvolve
Tree
p160
(dp161
g24
(imyEvolve
Tree
p162
(dp163
g7
I1
sg8
(imyEvolve
Tree
p164
(dp165
g7
I0
sg27
F3.3035204827631475
sg15
I01
sbsg16
(imyEvolve
Tree
p166
(dp167
g7
I0
sg27
F-0.9336344369589327
sg15
I01
sbsg19
I00
sg20
g29
sbsg7
I2
sg19
I01
sg20
g50
sbsg16
(imyEvolve
Tree
p168
(dp169
g7
I2
sg8
(imyEvolve
Tree
p170
(dp171
g24
(imyEvolve
Tree
p172
(dp173
g7
I0
sg27
F-4.702557112999787
sg15
I01
sbsg7
I1
sg19
I01
sg20
g49
sbsg16
(imyEvolve
Tree
p174
(dp175
g7
I1
sg8
(imyEvolve
Tree
p176
(dp177
g7
I0
sg27
F-0.7981812968109478
sg15
I01
sbsg16
(imyEvolve
Tree
p178
(dp179
g7
I0
sg15
I00
sbsg19
I00
sg20
g29
sbsg19
I00
sg20
g29
sbsg19
I00
sg20
g29
sbsg16
(imyEvolve
Tree
p180
(dp181
g7
I3
sg8
(imyEvolve
Tree
p182
(dp183
g7
I2
sg8
(imyEvolve
Tree
p184
(dp185
g7
I1
sg8
(imyEvolve
Tree
p186
(dp187
g7
I0
sg27
F-4.397299463478541
sg15
I01
sbsg16
(imyEvolve
Tree
p188
(dp189
g7
I0
sg15
I00
sbsg19
I00
sg20
g29
sbsg16
(imyEvolve
Tree
p190
(dp191
g24
(imyEvolve
Tree
p192
(dp193
g7
I0
sg27
F-3.172391267014417
sg15
I01
sbsg7
I1
sg19
I01
sg20
g50
sbsg19
I00
sg20
g29
sbsg16
(imyEvolve
Tree
p194
(dp195
g24
(imyEvolve
Tree
p196
(dp197
g24
(imyEvolve
Tree
p198
(dp199
g7
I0
sg27
F-0.12954921164537403
sg15
I01
sbsg7
I1
sg19
I01
sg20
g50
sbsg7
I2
sg19
I01
sg20
g49
sbsg19
I00
sg20
g21
sbsg19
I00
sg20
g21
sba(imyEvolve
Tree
p200
(dp201
g24
(imyEvolve
Tree
p202
(dp203
g24
(imyEvolve
Tree
p204
(dp205
g24
(imyEvolve
Tree
p206
(dp207
g7
I0
sg15
I00
sbsg7
I1
sg19
I01
sg20
g28
sbsg7
I2
sg19
I01
sg20
g49
sbsg7
I3
sg19
I01
sg20
g36
sba(imyEvolve
Tree
p208
(dp209
g7
I2
sg8
(imyEvolve
Tree
p210
(dp211
g24
(imyEvolve
Tree
p212
(dp213
g7
I0
sg15
I00
sbsg7
I1
sg19
I01
sg20
g28
sbsg16
(imyEvolve
Tree
p214
(dp215
g7
I1
sg8
(imyEvolve
Tree
p216
(dp217
g7
I0
sg27
F-4.8817197310189355
sg15
I01
sbsg16
(imyEvolve
Tree
p218
(dp219
g7
I0
sg27
F-2.345955168409425
sg15
I01
sbsg19
I00
sg20
g83
sbsg19
I00
sg20
g83
sba(imyEvolve
Tree
p220
(dp221
g24
(imyEvolve
Tree
p222
(dp223
g7
I1
sg8
(imyEvolve
Tree
p224
(dp225
g7
I0
sg15
I00
sbsg16
(imyEvolve
Tree
p226
(dp227
g7
I0
sg27
F-1.4386768955080043
sg15
I01
sbsg19
I00
sg20
g83
sbsg7
I2
sg19
I01
sg20
g50
sba(imyEvolve
Tree
p228
(dp229
g7
I2
sg8
(imyEvolve
Tree
p230
(dp231
g7
I1
sg8
(imyEvolve
Tree
p232
(dp233
g7
I0
sg15
I00
sbsg16
(imyEvolve
Tree
p234
(dp235
g7
I0
sg15
I00
sbsg19
I00
sg20
g83
sbsg16
(imyEvolve
Tree
p236
(dp237
g24
(imyEvolve
Tree
p238
(dp239
g7
I0
sg27
F3.925517754389281
sg15
I01
sbsg7
I1
sg19
I01
sg20
g49
sbsg19
I00
sg20
g83
sba(imyEvolve
Tree
p240
(dp241
g24
(imyEvolve
Tree
p242
(dp243
g24
(imyEvolve
Tree
p244
(dp245
g24
(imyEvolve
Tree
p246
(dp247
g7
I2
sg8
(imyEvolve
Tree
p248
(dp249
g24
(imyEvolve
Tree
p250
(dp251
g7
I0
sg27
F-2.4019148513731494
sg15
I01
sbsg7
I1
sg19
I01
sg20
g28
sbsg16
(imyEvolve
Tree
p252
(dp253
g24
(imyEvolve
Tree
p254
(dp255
g7
I0
sg27
F0.8396682878462682
sg15
I01
sbsg7
I1
sg19
I01
sg20
g28
sbsg19
I00
sg20
g21
sbsg7
I3
sg19
I01
sg20
g49
sbsg7
I4
sg19
I01
sg20
g49
sbsg7
I5
sg19
I01
sg20
g28
sbaa(lp256
(imyEvolve
Tree
p257
(dp258
g24
(imyEvolve
Tree
p259
(dp260
g7
I3
sg8
(imyEvolve
Tree
p261
(dp262
g7
I2
sg8
(imyEvolve
Tree
p263
(dp264
g7
I1
sg8
(imyEvolve
Tree
p265
(dp266
g7
I0
sg27
F2.4355921683869415
sg15
I01
sbsg16
(imyEvolve
Tree
p267
(dp268
g7
I0
sg27
F-2.7005433376284516
sg15
I01
sbsg19
I00
sg20
g21
sbsg16
(imyEvolve
Tree
p269
(dp270
g24
(imyEvolve
Tree
p271
(dp272
g7
I0
sg27
F2.8002306979866622
sg15
I01
sbsg7
I1
sg19
I01
sg20
g36
sbsg19
I00
sg20
g29
sbsg16
(imyEvolve
Tree
p273
(dp274
g7
I2
sg8
(imyEvolve
Tree
p275
(dp276
g24
(imyEvolve
Tree
p277
(dp278
g7
I0
sg15
I00
sbsg7
I1
sg19
I01
sg20
g28
sbsg16
(imyEvolve
Tree
p279
(dp280
g7
I1
sg8
(imyEvolve
Tree
p281
(dp282
g7
I0
sg27
F-3.69410941283727
sg15
I01
sbsg16
(imyEvolve
Tree
p283
(dp284
g7
I0
sg15
I00
sbsg19
I00
sg20
g21
sbsg19
I00
sg20
g83
sbsg19
I00
sg20
g21
sbsg7
I4
sg19
I01
sg20
g49
sba(imyEvolve
Tree
p285
(dp286
g24
(imyEvolve
Tree
p287
(dp288
g24
(imyEvolve
Tree
p289
(dp290
g7
I0
sg27
F-2.688230781518558
sg15
I01
sbsg7
I1
sg19
I01
sg20
g50
sbsg7
I2
sg19
I01
sg20
g36
sba(imyEvolve
Tree
p291
(dp292
g24
(imyEvolve
Tree
p293
(dp294
g7
I2
sg8
(imyEvolve
Tree
p295
(dp296
g7
I1
sg8
(imyEvolve
Tree
p297
(dp298
g7
I0
sg15
I00
sbsg16
(imyEvolve
Tree
p299
(dp300
g7
I0
sg15
I00
sbsg19
I00
sg20
g29
sbsg16
(imyEvolve
Tree
p301
(dp302
g7
I1
sg8
(imyEvolve
Tree
p303
(dp304
g7
I0
sg27
F-1.2919189145821628
sg15
I01
sbsg16
(imyEvolve
Tree
p305
(dp306
g7
I0
sg15
I00
sbsg19
I00
sg20
g29
sbsg19
I00
sg20
g29
sbsg7
I3
sg19
I01
sg20
g28
sba(imyEvolve
Tree
p307
(dp308
g7
I5
sg8
(imyEvolve
Tree
p309
(dp310
g24
(imyEvolve
Tree
p311
(dp312
g7
I3
sg8
(imyEvolve
Tree
p313
(dp314
g24
(imyEvolve
Tree
p315
(dp316
g7
I1
sg8
(imyEvolve
Tree
p317
(dp318
g7
I0
sg15
I00
sbsg16
(imyEvolve
Tree
p319
(dp320
g7
I0
sg27
F-3.7958617383500326
sg15
I01
sbsg19
I00
sg20
g21
sbsg7
I2
sg19
I01
sg20
g50
sbsg16
(imyEvolve
Tree
p321
(dp322
g24
(imyEvolve
Tree
p323
(dp324
g24
(imyEvolve
Tree
p325
(dp326
g7
I0
sg15
I00
sbsg7
I1
sg19
I01
sg20
g36
sbsg7
I2
sg19
I01
sg20
g50
sbsg19
I00
sg20
g29
sbsg7
I4
sg19
I01
sg20
g36
sbsg16
(imyEvolve
Tree
p327
(dp328
g7
I4
sg8
(imyEvolve
Tree
p329
(dp330
g24
(imyEvolve
Tree
p331
(dp332
g24
(imyEvolve
Tree
p333
(dp334
g24
(imyEvolve
Tree
p335
(dp336
g7
I0
sg15
I00
sbsg7
I1
sg19
I01
sg20
g28
sbsg7
I2
sg19
I01
sg20
g49
sbsg7
I3
sg19
I01
sg20
g49
sbsg16
(imyEvolve
Tree
p337
(dp338
g24
(imyEvolve
Tree
p339
(dp340
g24
(imyEvolve
Tree
p341
(dp342
g7
I1
sg8
(imyEvolve
Tree
p343
(dp344
g7
I0
sg15
I00
sbsg16
(imyEvolve
Tree
p345
(dp346
g7
I0
sg15
I00
sbsg19
I00
sg20
g83
sbsg7
I2
sg19
I01
sg20
g36
sbsg7
I3
sg19
I01
sg20
g50
sbsg19
I00
sg20
g83
sbsg19
I00
sg20
g29
sba(imyEvolve
Tree
p347
(dp348
g7
I3
sg8
(imyEvolve
Tree
p349
(dp350
g24
(imyEvolve
Tree
p351
(dp352
g7
I1
sg8
(imyEvolve
Tree
p353
(dp354
g7
I0
sg27
F-4.058368411886354
sg15
I01
sbsg16
(imyEvolve
Tree
p355
(dp356
g7
I0
sg27
F2.2690776935309493
sg15
I01
sbsg19
I00
sg20
g29
sbsg7
I2
sg19
I01
sg20
g36
sbsg16
(imyEvolve
Tree
p357
(dp358
g24
(imyEvolve
Tree
p359
(dp360
g7
I1
sg8
(imyEvolve
Tree
p361
(dp362
g7
I0
sg15
I00
sbsg16
(imyEvolve
Tree
p363
(dp364
g7
I0
sg27
F-1.1302777472108252
sg15
I01
sbsg19
I00
sg20
g29
sbsg7
I2
sg19
I01
sg20
g50
sbsg19
I00
sg20
g29
sba(imyEvolve
Tree
p365
(dp366
g7
I4
sg8
(imyEvolve
Tree
p367
(dp368
g7
I3
sg8
(imyEvolve
Tree
p369
(dp370
g24
(imyEvolve
Tree
p371
(dp372
g24
(imyEvolve
Tree
p373
(dp374
g7
I0
sg27
F-4.106337851607922
sg15
I01
sbsg7
I1
sg19
I01
sg20
g28
sbsg7
I2
sg19
I01
sg20
g28
sbsg16
(imyEvolve
Tree
p375
(dp376
g7
I2
sg8
(imyEvolve
Tree
p377
(dp378
g24
(imyEvolve
Tree
p379
(dp380
g7
I0
sg15
I00
sbsg7
I1
sg19
I01
sg20
g49
sbsg16
(imyEvolve
Tree
p381
(dp382
g24
(imyEvolve
Tree
p383
(dp384
g7
I0
sg15
I00
sbsg7
I1
sg19
I01
sg20
g50
sbsg19
I00
sg20
g83
sbsg19
I00
sg20
g21
sbsg16
(imyEvolve
Tree
p385
(dp386
g7
I3
sg8
(imyEvolve
Tree
p387
(dp388
g7
I2
sg8
(imyEvolve
Tree
p389
(dp390
g7
I1
sg8
(imyEvolve
Tree
p391
(dp392
g7
I0
sg27
F4.683950909400082
sg15
I01
sbsg16
(imyEvolve
Tree
p393
(dp394
g7
I0
sg15
I00
sbsg19
I00
sg20
g21
sbsg16
(imyEvolve
Tree
p395
(dp396
g24
(imyEvolve
Tree
p397
(dp398
g7
I0
sg15
I00
sbsg7
I1
sg19
I01
sg20
g49
sbsg19
I00
sg20
g21
sbsg16
(imyEvolve
Tree
p399
(dp400
g24
(imyEvolve
Tree
p401
(dp402
g7
I1
sg8
(imyEvolve
Tree
p403
(dp404
g7
I0
sg15
I00
sbsg16
(imyEvolve
Tree
p405
(dp406
g7
I0
sg15
I00
sbsg19
I00
sg20
g29
sbsg7
I2
sg19
I01
sg20
g50
sbsg19
I00
sg20
g21
sbsg19
I00
sg20
g29
sba(imyEvolve
Tree
p407
(dp408
g7
I2
sg8
(imyEvolve
Tree
p409
(dp410
g24
(imyEvolve
Tree
p411
(dp412
g7
I0
sg27
F-0.46081451183456057
sg15
I01
sbsg7
I1
sg19
I01
sg20
g50
sbsg16
(imyEvolve
Tree
p413
(dp414
g7
I1
sg8
(imyEvolve
Tree
p415
(dp416
g7
I0
sg15
I00
sbsg16
(imyEvolve
Tree
p417
(dp418
g7
I0
sg15
I00
sbsg19
I00
sg20
g21
sbsg19
I00
sg20
g21
sba(imyEvolve
Tree
p419
(dp420
g24
(imyEvolve
Tree
p421
(dp422
g24
(imyEvolve
Tree
p423
(dp424
g7
I1
sg8
(imyEvolve
Tree
p425
(dp426
g7
I0
sg27
F1.8057826373931913
sg15
I01
sbsg16
(imyEvolve
Tree
p427
(dp428
g7
I0
sg15
I00
sbsg19
I00
sg20
g29
sbsg7
I2
sg19
I01
sg20
g36
sbsg7
I3
sg19
I01
sg20
g28
sba(imyEvolve
Tree
p429
(dp430
g7
I4
sg8
(imyEvolve
Tree
p431
(dp432
g7
I3
sg8
(imyEvolve
Tree
p433
(dp434
g7
I2
sg8
(imyEvolve
Tree
p435
(dp436
g7
I1
sg8
(imyEvolve
Tree
p437
(dp438
g7
I0
sg15
I00
sbsg16
(imyEvolve
Tree
p439
(dp440
g7
I0
sg15
I00
sbsg19
I00
sg20
g21
sbsg16
(imyEvolve
Tree
p441
(dp442
g24
(imyEvolve
Tree
p443
(dp444
g7
I0
sg27
F-0.38249758888427277
sg15
I01
sbsg7
I1
sg19
I01
sg20
g28
sbsg19
I00
sg20
g83
sbsg16
(imyEvolve
Tree
p445
(dp446
g24
(imyEvolve
Tree
p447
(dp448
g24
(imyEvolve
Tree
p449
(dp450
g7
I0
sg15
I00
sbsg7
I1
sg19
I01
sg20
g49
sbsg7
I2
sg19
I01
sg20
g49
sbsg19
I00
sg20
g29
sbsg16
(imyEvolve
Tree
p451
(dp452
g24
(imyEvolve
Tree
p453
(dp454
g7
I2
sg8
(imyEvolve
Tree
p455
(dp456
g24
(imyEvolve
Tree
p457
(dp458
g7
I0
sg27
F3.9542644311858126
sg15
I01
sbsg7
I1
sg19
I01
sg20
g49
sbsg16
(imyEvolve
Tree
p459
(dp460
g7
I1
sg8
(imyEvolve
Tree
p461
(dp462
g7
I0
sg27
F1.2415829068513515
sg15
I01
sbsg16
(imyEvolve
Tree
p463
(dp464
g7
I0
sg27
F4.635895618637063
sg15
I01
sbsg19
I00
sg20
g21
sbsg19
I00
sg20
g21
sbsg7
I3
sg19
I01
sg20
g36
sbsg19
I00
sg20
g21
sba(imyEvolve
Tree
p465
(dp466
g7
I4
sg8
(imyEvolve
Tree
p467
(dp468
g7
I3
sg8
(imyEvolve
Tree
p469
(dp470
g24
(imyEvolve
Tree
p471
(dp472
g24
(imyEvolve
Tree
p473
(dp474
g7
I0
sg15
I00
sbsg7
I1
sg19
I01
sg20
g49
sbsg7
I2
sg19
I01
sg20
g50
sbsg16
(imyEvolve
Tree
p475
(dp476
g24
(imyEvolve
Tree
p477
(dp478
g24
(imyEvolve
Tree
p479
(dp480
g7
I0
sg15
I00
sbsg7
I1
sg19
I01
sg20
g50
sbsg7
I2
sg19
I01
sg20
g36
sbsg19
I00
sg20
g29
sbsg16
(imyEvolve
Tree
p481
(dp482
g24
(imyEvolve
Tree
p483
(dp484
g7
I2
sg8
(imyEvolve
Tree
p485
(dp486
g7
I1
sg8
(imyEvolve
Tree
p487
(dp488
g7
I0
sg27
F-1.1422260453728352
sg15
I01
sbsg16
(imyEvolve
Tree
p489
(dp490
g7
I0
sg27
F0.7592229743295338
sg15
I01
sbsg19
I00
sg20
g21
sbsg16
(imyEvolve
Tree
p491
(dp492
g7
I1
sg8
(imyEvolve
Tree
p493
(dp494
g7
I0
sg27
F-1.1174707017096064
sg15
I01
sbsg16
(imyEvolve
Tree
p495
(dp496
g7
I0
sg27
F1.8321520430128766
sg15
I01
sbsg19
I00
sg20
g29
sbsg19
I00
sg20
g21
sbsg7
I3
sg19
I01
sg20
g49
sbsg19
I00
sg20
g29
sba(imyEvolve
Tree
p497
(dp498
g7
I4
sg8
(imyEvolve
Tree
p499
(dp500
g7
I3
sg8
(imyEvolve
Tree
p501
(dp502
g24
(imyEvolve
Tree
p503
(dp504
g7
I1
sg8
(imyEvolve
Tree
p505
(dp506
g7
I0
sg15
I00
sbsg16
(imyEvolve
Tree
p507
(dp508
g7
I0
sg15
I00
sbsg19
I00
sg20
g21
sbsg7
I2
sg19
I01
sg20
g36
sbsg16
(imyEvolve
Tree
p509
(dp510
g7
I2
sg8
(imyEvolve
Tree
p511
(dp512
g24
(imyEvolve
Tree
p513
(dp514
g7
I0
sg27
F-0.7528239654468969
sg15
I01
sbsg7
I1
sg19
I01
sg20
g36
sbsg16
(imyEvolve
Tree
p515
(dp516
g7
I1
sg8
(imyEvolve
Tree
p517
(dp518
g7
I0
sg27
F0.7043937034352643
sg15
I01
sbsg16
(imyEvolve
Tree
p519
(dp520
g7
I0
sg27
F-1.0561559953040933
sg15
I01
sbsg19
I00
sg20
g83
sbsg19
I00
sg20
g83
sbsg19
I00
sg20
g29
sbsg16
(imyEvolve
Tree
p521
(dp522
g24
(imyEvolve
Tree
p523
(dp524
g7
I2
sg8
(imyEvolve
Tree
p525
(dp526
g7
I1
sg8
(imyEvolve
Tree
p527
(dp528
g7
I0
sg15
I00
sbsg16
(imyEvolve
Tree
p529
(dp530
g7
I0
sg27
F-2.1497881484968784
sg15
I01
sbsg19
I00
sg20
g21
sbsg16
(imyEvolve
Tree
p531
(dp532
g7
I1
sg8
(imyEvolve
Tree
p533
(dp534
g7
I0
sg27
F-2.419184689894236
sg15
I01
sbsg16
(imyEvolve
Tree
p535
(dp536
g7
I0
sg15
I00
sbsg19
I00
sg20
g83
sbsg19
I00
sg20
g83
sbsg7
I3
sg19
I01
sg20
g49
sbsg19
I00
sg20
g83
sba(imyEvolve
Tree
p537
(dp538
g7
I5
sg8
(imyEvolve
Tree
p539
(dp540
g7
I4
sg8
(imyEvolve
Tree
p541
(dp542
g7
I3
sg8
(imyEvolve
Tree
p543
(dp544
g7
I2
sg8
(imyEvolve
Tree
p545
(dp546
g7
I1
sg8
(imyEvolve
Tree
p547
(dp548
g7
I0
sg15
I00
sbsg16
(imyEvolve
Tree
p549
(dp550
g7
I0
sg27
F-2.6037436379584067
sg15
I01
sbsg19
I00
sg20
g21
sbsg16
(imyEvolve
Tree
p551
(dp552
g24
(imyEvolve
Tree
p553
(dp554
g7
I0
sg15
I00
sbsg7
I1
sg19
I01
sg20
g50
sbsg19
I00
sg20
g83
sbsg16
(imyEvolve
Tree
p555
(dp556
g24
(imyEvolve
Tree
p557
(dp558
g24
(imyEvolve
Tree
p559
(dp560
g7
I0
sg27
F-2.4979675579913927
sg15
I01
sbsg7
I1
sg19
I01
sg20
g50
sbsg7
I2
sg19
I01
sg20
g28
sbsg19
I00
sg20
g29
sbsg16
(imyEvolve
Tree
p561
(dp562
g24
(imyEvolve
Tree
p563
(dp564
g24
(imyEvolve
Tree
p565
(dp566
g7
I1
sg8
(imyEvolve
Tree
p567
(dp568
g7
I0
sg27
F-2.3131104739167907
sg15
I01
sbsg16
(imyEvolve
Tree
p569
(dp570
g7
I0
sg27
F-2.6576097868240547
sg15
I01
sbsg19
I00
sg20
g83
sbsg7
I2
sg19
I01
sg20
g36
sbsg7
I3
sg19
I01
sg20
g49
sbsg19
I00
sg20
g83
sbsg16
(imyEvolve
Tree
p571
(dp572
g7
I4
sg8
(imyEvolve
Tree
p573
(dp574
g24
(imyEvolve
Tree
p575
(dp576
g24
(imyEvolve
Tree
p577
(dp578
g7
I1
sg8
(imyEvolve
Tree
p579
(dp580
g7
I0
sg15
I00
sbsg16
(imyEvolve
Tree
p581
(dp582
g7
I0
sg15
I00
sbsg19
I00
sg20
g83
sbsg7
I2
sg19
I01
sg20
g50
sbsg7
I3
sg19
I01
sg20
g28
sbsg16
(imyEvolve
Tree
p583
(dp584
g24
(imyEvolve
Tree
p585
(dp586
g24
(imyEvolve
Tree
p587
(dp588
g24
(imyEvolve
Tree
p589
(dp590
g7
I0
sg15
I00
sbsg7
I1
sg19
I01
sg20
g50
sbsg7
I2
sg19
I01
sg20
g49
sbsg7
I3
sg19
I01
sg20
g49
sbsg19
I00
sg20
g83
sbsg19
I00
sg20
g83
sba(imyEvolve
Tree
p591
(dp592
g24
(imyEvolve
Tree
p593
(dp594
g24
(imyEvolve
Tree
p595
(dp596
g7
I1
sg8
(imyEvolve
Tree
p597
(dp598
g7
I0
sg15
I00
sbsg16
(imyEvolve
Tree
p599
(dp600
g7
I0
sg27
F4.672612542322762
sg15
I01
sbsg19
I00
sg20
g21
sbsg7
I2
sg19
I01
sg20
g36
sbsg7
I3
sg19
I01
sg20
g50
sba(imyEvolve
Tree
p601
(dp602
g24
(imyEvolve
Tree
p603
(dp604
g24
(imyEvolve
Tree
p605
(dp606
g24
(imyEvolve
Tree
p607
(dp608
g7
I0
sg27
F-0.634206702399136
sg15
I01
sbsg7
I1
sg19
I01
sg20
g36
sbsg7
I2
sg19
I01
sg20
g28
sbsg7
I3
sg19
I01
sg20
g50
sbaasS'weightSharing'
p609
(lp610
I00
aI00
asS'fitnessValid'
p611
I00
sS'fitness'
p612
cnumpy.core.multiarray
scalar
p613
(cnumpy
dtype
p614
(S'f8'
p615
I0
I1
tp616
Rp617
(I3
S'<'
p618
NNNI-1
I-1
I0
tp619
bS'\x16\xfb\xcb\xde4\x1f\xe6?'
p620
tp621
Rp622
sS'alpha'
p623
F0.0021013056462873382
sS'resolution'
p624
I62
sb.