(imyEvolve
Individual
p0
(dp1
S'funcs'
p2
(lp3
(lp4
(imyEvolve
Tree
p5
(dp6
S'depth'
p7
I5
sS'left'
p8
(imyEvolve
Tree
p9
(dp10
g7
I4
sg8
(imyEvolve
Tree
p11
(dp12
g7
I3
sg8
(imyEvolve
Tree
p13
(dp14
g7
I2
sg8
(imyEvolve
Tree
p15
(dp16
S'below'
p17
(imyEvolve
Tree
p18
(dp19
g7
I0
sS'constant'
p20
F0.7750152329554414
sS'isConstant'
p21
I01
sbsg7
I1
sS'single'
p22
I01
sS'op'
p23
cmath
cos
p24
sbsS'right'
p25
(imyEvolve
Tree
p26
(dp27
g7
I1
sg8
(imyEvolve
Tree
p28
(dp29
g7
I0
sg21
I00
sbsg25
(imyEvolve
Tree
p30
(dp31
g7
I0
sg21
I00
sbsg22
I00
sg23
coperator
sub
p32
sbsg22
I00
sg23
coperator
mul
p33
sbsg25
(imyEvolve
Tree
p34
(dp35
g7
I2
sg8
(imyEvolve
Tree
p36
(dp37
g7
I1
sg8
(imyEvolve
Tree
p38
(dp39
g7
I0
sg21
I00
sbsg25
(imyEvolve
Tree
p40
(dp41
g7
I0
sg20
F-4.144731410976451
sg21
I01
sbsg22
I00
sg23
g33
sbsg25
(imyEvolve
Tree
p42
(dp43
g17
(imyEvolve
Tree
p44
(dp45
g7
I0
sg21
I00
sbsg7
I1
sg22
I01
sg23
g24
sbsg22
I00
sg23
coperator
add
p46
sbsg22
I00
sg23
g33
sbsg25
(imyEvolve
Tree
p47
(dp48
g7
I3
sg8
(imyEvolve
Tree
p49
(dp50
g7
I2
sg8
(imyEvolve
Tree
p51
(dp52
g17
(imyEvolve
Tree
p53
(dp54
g7
I0
sg21
I00
sbsg7
I1
sg22
I01
sg23
cmyEvolve
square
p55
sbsg25
(imyEvolve
Tree
p56
(dp57
g17
(imyEvolve
Tree
p58
(dp59
g7
I0
sg21
I00
sbsg7
I1
sg22
I01
sg23
cmath
sin
p60
sbsg22
I00
sg23
g33
sbsg25
(imyEvolve
Tree
p61
(dp62
g7
I2
sg8
(imyEvolve
Tree
p63
(dp64
g7
I1
sg8
(imyEvolve
Tree
p65
(dp66
g7
I0
sg20
F3.458572818982386
sg21
I01
sbsg25
(imyEvolve
Tree
p67
(dp68
g7
I0
sg20
F4.553561693664086
sg21
I01
sbsg22
I00
sg23
g32
sbsg25
(imyEvolve
Tree
p69
(dp70
g17
(imyEvolve
Tree
p71
(dp72
g7
I0
sg20
F1.5436714226565487
sg21
I01
sbsg7
I1
sg22
I01
sg23
g60
sbsg22
I00
sg23
g46
sbsg22
I00
sg23
g46
sbsg22
I00
sg23
g33
sbsg25
(imyEvolve
Tree
p73
(dp74
g7
I4
sg8
(imyEvolve
Tree
p75
(dp76
g17
(imyEvolve
Tree
p77
(dp78
g17
(imyEvolve
Tree
p79
(dp80
g7
I1
sg8
(imyEvolve
Tree
p81
(dp82
g7
I0
sg20
F-1.120436510183318
sg21
I01
sbsg25
(imyEvolve
Tree
p83
(dp84
g7
I0
sg20
F1.79569317756701
sg21
I01
sbsg22
I00
sg23
g32
sbsg7
I2
sg22
I01
sg23
g60
sbsg7
I3
sg22
I01
sg23
g60
sbsg25
(imyEvolve
Tree
p85
(dp86
g17
(imyEvolve
Tree
p87
(dp88
g7
I2
sg8
(imyEvolve
Tree
p89
(dp90
g7
I1
sg8
(imyEvolve
Tree
p91
(dp92
g7
I0
sg20
F-0.7246542947002208
sg21
I01
sbsg25
(imyEvolve
Tree
p93
(dp94
g7
I0
sg20
F-0.2749494475924896
sg21
I01
sbsg22
I00
sg23
g46
sbsg25
(imyEvolve
Tree
p95
(dp96
g17
(imyEvolve
Tree
p97
(dp98
g7
I0
sg20
F-2.1454527763136175
sg21
I01
sbsg7
I1
sg22
I01
sg23
g60
sbsg22
I00
sg23
g46
sbsg7
I3
sg22
I01
sg23
g60
sbsg22
I00
sg23
g33
sbsg22
I00
sg23
g32
sba(imyEvolve
Tree
p99
(dp100
g7
I2
sg8
(imyEvolve
Tree
p101
(dp102
g7
I1
sg8
(imyEvolve
Tree
p103
(dp104
g7
I0
sg20
F0.3696535800861547
sg21
I01
sbsg25
(imyEvolve
Tree
p105
(dp106
g7
I0
sg20
F-2.0410800157791096
sg21
I01
sbsg22
I00
sg23
g46
sbsg25
(imyEvolve
Tree
p107
(dp108
g17
(imyEvolve
Tree
p109
(dp110
g7
I0
sg20
F1.8483361861836913
sg21
I01
sbsg7
I1
sg22
I01
sg23
g60
sbsg22
I00
sg23
g33
sba(imyEvolve
Tree
p111
(dp112
g17
(imyEvolve
Tree
p113
(dp114
g17
(imyEvolve
Tree
p115
(dp116
g7
I3
sg8
(imyEvolve
Tree
p117
(dp118
g17
(imyEvolve
Tree
p119
(dp120
g7
I1
sg8
(imyEvolve
Tree
p121
(dp122
g7
I0
sg20
F-3.4010544788648387
sg21
I01
sbsg25
(imyEvolve
Tree
p123
(dp124
g7
I0
sg20
F-4.842253791540715
sg21
I01
sbsg22
I00
sg23
g32
sbsg7
I2
sg22
I01
sg23
g55
sbsg25
(imyEvolve
Tree
p125
(dp126
g7
I2
sg8
(imyEvolve
Tree
p127
(dp128
g17
(imyEvolve
Tree
p129
(dp130
g7
I0
sg21
I00
sbsg7
I1
sg22
I01
sg23
g60
sbsg25
(imyEvolve
Tree
p131
(dp132
g7
I1
sg8
(imyEvolve
Tree
p133
(dp134
g7
I0
sg20
F3.6875557916982
sg21
I01
sbsg25
(imyEvolve
Tree
p135
(dp136
g7
I0
sg21
I00
sbsg22
I00
sg23
g32
sbsg22
I00
sg23
g32
sbsg22
I00
sg23
g32
sbsg7
I4
sg22
I01
sg23
g24
sbsg7
I5
sg22
I01
sg23
g55
sba(imyEvolve
Tree
p137
(dp138
g17
(imyEvolve
Tree
p139
(dp140
g17
(imyEvolve
Tree
p141
(dp142
g7
I1
sg8
(imyEvolve
Tree
p143
(dp144
g7
I0
sg21
I00
sbsg25
(imyEvolve
Tree
p145
(dp146
g7
I0
sg20
F-1.035841487181445
sg21
I01
sbsg22
I00
sg23
g46
sbsg7
I2
sg22
I01
sg23
cmyEvolve
absSqrt
p147
sbsg7
I3
sg22
I01
sg23
g147
sba(imyEvolve
Tree
p148
(dp149
g17
(imyEvolve
Tree
p150
(dp151
g17
(imyEvolve
Tree
p152
(dp153
g7
I3
sg8
(imyEvolve
Tree
p154
(dp155
g7
I2
sg8
(imyEvolve
Tree
p156
(dp157
g17
(imyEvolve
Tree
p158
(dp159
g7
I0
sg21
I00
sbsg7
I1
sg22
I01
sg23
g24
sbsg25
(imyEvolve
Tree
p160
(dp161
g17
(imyEvolve
Tree
p162
(dp163
g7
I0
sg20
F4.753407628407636
sg21
I01
sbsg7
I1
sg22
I01
sg23
g147
sbsg22
I00
sg23
g46
sbsg25
(imyEvolve
Tree
p164
(dp165
g7
I2
sg8
(imyEvolve
Tree
p166
(dp167
g7
I1
sg8
(imyEvolve
Tree
p168
(dp169
g7
I0
sg20
F3.7113892946493277
sg21
I01
sbsg25
(imyEvolve
Tree
p170
(dp171
g7
I0
sg21
I00
sbsg22
I00
sg23
g46
sbsg25
(imyEvolve
Tree
p172
(dp173
g17
(imyEvolve
Tree
p174
(dp175
g7
I0
sg20
F3.0266324190800127
sg21
I01
sbsg7
I1
sg22
I01
sg23
g147
sbsg22
I00
sg23
g32
sbsg22
I00
sg23
g33
sbsg7
I4
sg22
I01
sg23
g55
sbsg7
I5
sg22
I01
sg23
g24
sba(imyEvolve
Tree
p176
(dp177
g7
I4
sg8
(imyEvolve
Tree
p178
(dp179
g7
I3
sg8
(imyEvolve
Tree
p180
(dp181
g7
I2
sg8
(imyEvolve
Tree
p182
(dp183
g17
(imyEvolve
Tree
p184
(dp185
g7
I0
sg20
F-2.6150996250817773
sg21
I01
sbsg7
I1
sg22
I01
sg23
g55
sbsg25
(imyEvolve
Tree
p186
(dp187
g17
(imyEvolve
Tree
p188
(dp189
g7
I0
sg20
F-4.3543154617921775
sg21
I01
sbsg7
I1
sg22
I01
sg23
g147
sbsg22
I00
sg23
g32
sbsg25
(imyEvolve
Tree
p190
(dp191
g7
I2
sg8
(imyEvolve
Tree
p192
(dp193
g17
(imyEvolve
Tree
p194
(dp195
g7
I0
sg20
F-3.0990556422390614
sg21
I01
sbsg7
I1
sg22
I01
sg23
g55
sbsg25
(imyEvolve
Tree
p196
(dp197
g17
(imyEvolve
Tree
p198
(dp199
g7
I0
sg21
I00
sbsg7
I1
sg22
I01
sg23
g60
sbsg22
I00
sg23
g46
sbsg22
I00
sg23
g46
sbsg25
(imyEvolve
Tree
p200
(dp201
g7
I3
sg8
(imyEvolve
Tree
p202
(dp203
g17
(imyEvolve
Tree
p204
(dp205
g7
I1
sg8
(imyEvolve
Tree
p206
(dp207
g7
I0
sg20
F-1.2623322964888373
sg21
I01
sbsg25
(imyEvolve
Tree
p208
(dp209
g7
I0
sg21
I00
sbsg22
I00
sg23
g33
sbsg7
I2
sg22
I01
sg23
g147
sbsg25
(imyEvolve
Tree
p210
(dp211
g17
(imyEvolve
Tree
p212
(dp213
g17
(imyEvolve
Tree
p214
(dp215
g7
I0
sg21
I00
sbsg7
I1
sg22
I01
sg23
g60
sbsg7
I2
sg22
I01
sg23
g24
sbsg22
I00
sg23
g32
sbsg22
I00
sg23
g32
sba(imyEvolve
Tree
p216
(dp217
g7
I4
sg8
(imyEvolve
Tree
p218
(dp219
g7
I3
sg8
(imyEvolve
Tree
p220
(dp221
g17
(imyEvolve
Tree
p222
(dp223
g7
I1
sg8
(imyEvolve
Tree
p224
(dp225
g7
I0
sg20
F-2.4524004087397353
sg21
I01
sbsg25
(imyEvolve
Tree
p226
(dp227
g7
I0
sg21
I00
sbsg22
I00
sg23
g32
sbsg7
I2
sg22
I01
sg23
g24
sbsg25
(imyEvolve
Tree
p228
(dp229
g7
I2
sg8
(imyEvolve
Tree
p230
(dp231
g17
(imyEvolve
Tree
p232
(dp233
g7
I0
sg20
F3.5330629625370698
sg21
I01
sbsg7
I1
sg22
I01
sg23
g147
sbsg25
(imyEvolve
Tree
p234
(dp235
g7
I1
sg8
(imyEvolve
Tree
p236
(dp237
g7
I0
sg21
I00
sbsg25
(imyEvolve
Tree
p238
(dp239
g7
I0
sg21
I00
sbsg22
I00
sg23
g33
sbsg22
I00
sg23
g33
sbsg22
I00
sg23
g46
sbsg25
(imyEvolve
Tree
p240
(dp241
g17
(imyEvolve
Tree
p242
(dp243
g17
(imyEvolve
Tree
p244
(dp245
g17
(imyEvolve
Tree
p246
(dp247
g7
I0
sg21
I00
sbsg7
I1
sg22
I01
sg23
g147
sbsg7
I2
sg22
I01
sg23
g60
sbsg7
I3
sg22
I01
sg23
g24
sbsg22
I00
sg23
g32
sba(imyEvolve
Tree
p248
(dp249
g17
(imyEvolve
Tree
p250
(dp251
g7
I2
sg8
(imyEvolve
Tree
p252
(dp253
g7
I1
sg8
(imyEvolve
Tree
p254
(dp255
g7
I0
sg21
I00
sbsg25
(imyEvolve
Tree
p256
(dp257
g7
I0
sg21
I00
sbsg22
I00
sg23
g46
sbsg25
(imyEvolve
Tree
p258
(dp259
g17
(imyEvolve
Tree
p260
(dp261
g7
I0
sg20
F2.161517264358448
sg21
I01
sbsg7
I1
sg22
I01
sg23
g24
sbsg22
I00
sg23
g32
sbsg7
I3
sg22
I01
sg23
g24
sba(imyEvolve
Tree
p262
(dp263
g17
(imyEvolve
Tree
p264
(dp265
g17
(imyEvolve
Tree
p266
(dp267
g7
I0
sg20
F-1.593642880939572
sg21
I01
sbsg7
I1
sg22
I01
sg23
g24
sbsg7
I2
sg22
I01
sg23
g60
sbaa(lp268
(imyEvolve
Tree
p269
(dp270
g17
(imyEvolve
Tree
p271
(dp272
g7
I4
sg8
(imyEvolve
Tree
p273
(dp274
g7
I3
sg8
(imyEvolve
Tree
p275
(dp276
g7
I2
sg8
(imyEvolve
Tree
p277
(dp278
g7
I1
sg8
(imyEvolve
Tree
p279
(dp280
g7
I0
sg21
I00
sbsg25
(imyEvolve
Tree
p281
(dp282
g7
I0
sg21
I00
sbsg22
I00
sg23
g33
sbsg25
(imyEvolve
Tree
p283
(dp284
g17
(imyEvolve
Tree
p285
(dp286
g7
I0
sg21
I00
sbsg7
I1
sg22
I01
sg23
g60
sbsg22
I00
sg23
g33
sbsg25
(imyEvolve
Tree
p287
(dp288
g7
I2
sg8
(imyEvolve
Tree
p289
(dp290
g17
(imyEvolve
Tree
p291
(dp292
g7
I0
sg21
I00
sbsg7
I1
sg22
I01
sg23
g147
sbsg25
(imyEvolve
Tree
p293
(dp294
g17
(imyEvolve
Tree
p295
(dp296
g7
I0
sg20
F2.0109808321235247
sg21
I01
sbsg7
I1
sg22
I01
sg23
g147
sbsg22
I00
sg23
g33
sbsg22
I00
sg23
g32
sbsg25
(imyEvolve
Tree
p297
(dp298
g17
(imyEvolve
Tree
p299
(dp300
g17
(imyEvolve
Tree
p301
(dp302
g7
I1
sg8
(imyEvolve
Tree
p303
(dp304
g7
I0
sg20
F3.6312138181721547
sg21
I01
sbsg25
(imyEvolve
Tree
p305
(dp306
g7
I0
sg21
I00
sbsg22
I00
sg23
g46
sbsg7
I2
sg22
I01
sg23
g24
sbsg7
I3
sg22
I01
sg23
g60
sbsg22
I00
sg23
g46
sbsg7
I5
sg22
I01
sg23
g60
sba(imyEvolve
Tree
p307
(dp308
g17
(imyEvolve
Tree
p309
(dp310
g7
I1
sg8
(imyEvolve
Tree
p311
(dp312
g7
I0
sg20
F1.6439452635216139
sg21
I01
sbsg25
(imyEvolve
Tree
p313
(dp314
g7
I0
sg21
I00
sbsg22
I00
sg23
g32
sbsg7
I2
sg22
I01
sg23
g60
sba(imyEvolve
Tree
p315
(dp316
g17
(imyEvolve
Tree
p317
(dp318
g7
I4
sg8
(imyEvolve
Tree
p319
(dp320
g17
(imyEvolve
Tree
p321
(dp322
g7
I2
sg8
(imyEvolve
Tree
p323
(dp324
g17
(imyEvolve
Tree
p325
(dp326
g7
I0
sg21
I00
sbsg7
I1
sg22
I01
sg23
g55
sbsg25
(imyEvolve
Tree
p327
(dp328
g17
(imyEvolve
Tree
p329
(dp330
g7
I0
sg20
F3.3414848416069916
sg21
I01
sbsg7
I1
sg22
I01
sg23
g147
sbsg22
I00
sg23
g33
sbsg7
I3
sg22
I01
sg23
g60
sbsg25
(imyEvolve
Tree
p331
(dp332
g17
(imyEvolve
Tree
p333
(dp334
g17
(imyEvolve
Tree
p335
(dp336
g7
I1
sg8
(imyEvolve
Tree
p337
(dp338
g7
I0
sg21
I00
sbsg25
(imyEvolve
Tree
p339
(dp340
g7
I0
sg20
F4.956584554776729
sg21
I01
sbsg22
I00
sg23
g33
sbsg7
I2
sg22
I01
sg23
g147
sbsg7
I3
sg22
I01
sg23
g55
sbsg22
I00
sg23
g33
sbsg7
I5
sg22
I01
sg23
g55
sba(imyEvolve
Tree
p341
(dp342
g17
(imyEvolve
Tree
p343
(dp344
g7
I1
sg8
(imyEvolve
Tree
p345
(dp346
g7
I0
sg20
F-3.4105996583501486
sg21
I01
sbsg25
(imyEvolve
Tree
p347
(dp348
g7
I0
sg21
I00
sbsg22
I00
sg23
g32
sbsg7
I2
sg22
I01
sg23
g60
sba(imyEvolve
Tree
p349
(dp350
g7
I4
sg8
(imyEvolve
Tree
p351
(dp352
g17
(imyEvolve
Tree
p353
(dp354
g17
(imyEvolve
Tree
p355
(dp356
g17
(imyEvolve
Tree
p357
(dp358
g7
I0
sg20
F1.9014708850690765
sg21
I01
sbsg7
I1
sg22
I01
sg23
g24
sbsg7
I2
sg22
I01
sg23
g147
sbsg7
I3
sg22
I01
sg23
g55
sbsg25
(imyEvolve
Tree
p359
(dp360
g17
(imyEvolve
Tree
p361
(dp362
g17
(imyEvolve
Tree
p363
(dp364
g17
(imyEvolve
Tree
p365
(dp366
g7
I0
sg21
I00
sbsg7
I1
sg22
I01
sg23
g147
sbsg7
I2
sg22
I01
sg23
g24
sbsg7
I3
sg22
I01
sg23
g147
sbsg22
I00
sg23
g46
sba(imyEvolve
Tree
p367
(dp368
g7
I4
sg8
(imyEvolve
Tree
p369
(dp370
g7
I3
sg8
(imyEvolve
Tree
p371
(dp372
g7
I2
sg8
(imyEvolve
Tree
p373
(dp374
g17
(imyEvolve
Tree
p375
(dp376
g7
I0
sg20
F-3.548045304657462
sg21
I01
sbsg7
I1
sg22
I01
sg23
g147
sbsg25
(imyEvolve
Tree
p377
(dp378
g17
(imyEvolve
Tree
p379
(dp380
g7
I0
sg21
I00
sbsg7
I1
sg22
I01
sg23
g147
sbsg22
I00
sg23
g33
sbsg25
(imyEvolve
Tree
p381
(dp382
g17
(imyEvolve
Tree
p383
(dp384
g7
I1
sg8
(imyEvolve
Tree
p385
(dp386
g7
I0
sg21
I00
sbsg25
(imyEvolve
Tree
p387
(dp388
g7
I0
sg21
I00
sbsg22
I00
sg23
g46
sbsg7
I2
sg22
I01
sg23
g55
sbsg22
I00
sg23
g33
sbsg25
(imyEvolve
Tree
p389
(dp390
g7
I3
sg8
(imyEvolve
Tree
p391
(dp392
g17
(imyEvolve
Tree
p393
(dp394
g7
I1
sg8
(imyEvolve
Tree
p395
(dp396
g7
I0
sg20
F1.6269845100815452
sg21
I01
sbsg25
(imyEvolve
Tree
p397
(dp398
g7
I0
sg21
I00
sbsg22
I00
sg23
g46
sbsg7
I2
sg22
I01
sg23
g55
sbsg25
(imyEvolve
Tree
p399
(dp400
g17
(imyEvolve
Tree
p401
(dp402
g7
I1
sg8
(imyEvolve
Tree
p403
(dp404
g7
I0
sg21
I00
sbsg25
(imyEvolve
Tree
p405
(dp406
g7
I0
sg20
F4.403496691966454
sg21
I01
sbsg22
I00
sg23
g32
sbsg7
I2
sg22
I01
sg23
g147
sbsg22
I00
sg23
g46
sbsg22
I00
sg23
g46
sba(imyEvolve
Tree
p407
(dp408
g7
I2
sg8
(imyEvolve
Tree
p409
(dp410
g17
(imyEvolve
Tree
p411
(dp412
g7
I0
sg20
F3.5129679969493672
sg21
I01
sbsg7
I1
sg22
I01
sg23
g147
sbsg25
(imyEvolve
Tree
p413
(dp414
g7
I1
sg8
(imyEvolve
Tree
p415
(dp416
g7
I0
sg20
F-1.4349846424359636
sg21
I01
sbsg25
(imyEvolve
Tree
p417
(dp418
g7
I0
sg21
I00
sbsg22
I00
sg23
g33
sbsg22
I00
sg23
g46
sba(imyEvolve
Tree
p419
(dp420
g17
(imyEvolve
Tree
p421
(dp422
g7
I1
sg8
(imyEvolve
Tree
p423
(dp424
g7
I0
sg20
F4.828846484966688
sg21
I01
sbsg25
(imyEvolve
Tree
p425
(dp426
g7
I0
sg20
F2.787568516076159
sg21
I01
sbsg22
I00
sg23
g46
sbsg7
I2
sg22
I01
sg23
g147
sbaa(lp427
(imyEvolve
Tree
p428
(dp429
g7
I4
sg8
(imyEvolve
Tree
p430
(dp431
g7
I3
sg8
(imyEvolve
Tree
p432
(dp433
g7
I2
sg8
(imyEvolve
Tree
p434
(dp435
g7
I1
sg8
(imyEvolve
Tree
p436
(dp437
g7
I0
sg20
F-2.3546972979174496
sg21
I01
sbsg25
(imyEvolve
Tree
p438
(dp439
g7
I0
sg21
I00
sbsg22
I00
sg23
g32
sbsg25
(imyEvolve
Tree
p440
(dp441
g7
I1
sg8
(imyEvolve
Tree
p442
(dp443
g7
I0
sg20
F-2.0940280853708826
sg21
I01
sbsg25
(imyEvolve
Tree
p444
(dp445
g7
I0
sg21
I00
sbsg22
I00
sg23
g46
sbsg22
I00
sg23
g46
sbsg25
(imyEvolve
Tree
p446
(dp447
g17
(imyEvolve
Tree
p448
(dp449
g17
(imyEvolve
Tree
p450
(dp451
g7
I0
sg21
I00
sbsg7
I1
sg22
I01
sg23
g24
sbsg7
I2
sg22
I01
sg23
g60
sbsg22
I00
sg23
g46
sbsg25
(imyEvolve
Tree
p452
(dp453
g7
I3
sg8
(imyEvolve
Tree
p454
(dp455
g17
(imyEvolve
Tree
p456
(dp457
g17
(imyEvolve
Tree
p458
(dp459
g7
I0
sg21
I00
sbsg7
I1
sg22
I01
sg23
g147
sbsg7
I2
sg22
I01
sg23
g60
sbsg25
(imyEvolve
Tree
p460
(dp461
g17
(imyEvolve
Tree
p462
(dp463
g7
I1
sg8
(imyEvolve
Tree
p464
(dp465
g7
I0
sg21
I00
sbsg25
(imyEvolve
Tree
p466
(dp467
g7
I0
sg20
F-4.176393832334711
sg21
I01
sbsg22
I00
sg23
g33
sbsg7
I2
sg22
I01
sg23
g55
sbsg22
I00
sg23
g33
sbsg22
I00
sg23
g46
sba(imyEvolve
Tree
p468
(dp469
g17
(imyEvolve
Tree
p470
(dp471
g17
(imyEvolve
Tree
p472
(dp473
g7
I1
sg8
(imyEvolve
Tree
p474
(dp475
g7
I0
sg20
F-3.973865988424884
sg21
I01
sbsg25
(imyEvolve
Tree
p476
(dp477
g7
I0
sg21
I00
sbsg22
I00
sg23
g32
sbsg7
I2
sg22
I01
sg23
g24
sbsg7
I3
sg22
I01
sg23
g60
sba(imyEvolve
Tree
p478
(dp479
g17
(imyEvolve
Tree
p480
(dp481
g7
I3
sg8
(imyEvolve
Tree
p482
(dp483
g7
I2
sg8
(imyEvolve
Tree
p484
(dp485
g17
(imyEvolve
Tree
p486
(dp487
g7
I0
sg21
I00
sbsg7
I1
sg22
I01
sg23
g55
sbsg25
(imyEvolve
Tree
p488
(dp489
g7
I1
sg8
(imyEvolve
Tree
p490
(dp491
g7
I0
sg21
I00
sbsg25
(imyEvolve
Tree
p492
(dp493
g7
I0
sg21
I00
sbsg22
I00
sg23
g33
sbsg22
I00
sg23
g46
sbsg25
(imyEvolve
Tree
p494
(dp495
g17
(imyEvolve
Tree
p496
(dp497
g17
(imyEvolve
Tree
p498
(dp499
g7
I0
sg21
I00
sbsg7
I1
sg22
I01
sg23
g55
sbsg7
I2
sg22
I01
sg23
g55
sbsg22
I00
sg23
g46
sbsg7
I4
sg22
I01
sg23
g60
sba(imyEvolve
Tree
p500
(dp501
g17
(imyEvolve
Tree
p502
(dp503
g17
(imyEvolve
Tree
p504
(dp505
g7
I1
sg8
(imyEvolve
Tree
p506
(dp507
g7
I0
sg21
I00
sbsg25
(imyEvolve
Tree
p508
(dp509
g7
I0
sg21
I00
sbsg22
I00
sg23
g32
sbsg7
I2
sg22
I01
sg23
g24
sbsg7
I3
sg22
I01
sg23
g55
sba(imyEvolve
Tree
p510
(dp511
g17
(imyEvolve
Tree
p512
(dp513
g7
I3
sg8
(imyEvolve
Tree
p514
(dp515
g17
(imyEvolve
Tree
p516
(dp517
g17
(imyEvolve
Tree
p518
(dp519
g7
I0
sg20
F-4.369286179079158
sg21
I01
sbsg7
I1
sg22
I01
sg23
g147
sbsg7
I2
sg22
I01
sg23
g60
sbsg25
(imyEvolve
Tree
p520
(dp521
g17
(imyEvolve
Tree
p522
(dp523
g7
I1
sg8
(imyEvolve
Tree
p524
(dp525
g7
I0
sg21
I00
sbsg25
(imyEvolve
Tree
p526
(dp527
g7
I0
sg21
I00
sbsg22
I00
sg23
g33
sbsg7
I2
sg22
I01
sg23
g55
sbsg22
I00
sg23
g33
sbsg7
I4
sg22
I01
sg23
g60
sba(imyEvolve
Tree
p528
(dp529
g17
(imyEvolve
Tree
p530
(dp531
g17
(imyEvolve
Tree
p532
(dp533
g17
(imyEvolve
Tree
p534
(dp535
g7
I1
sg8
(imyEvolve
Tree
p536
(dp537
g7
I0
sg21
I00
sbsg25
(imyEvolve
Tree
p538
(dp539
g7
I0
sg20
F1.5419176711145468
sg21
I01
sbsg22
I00
sg23
g46
sbsg7
I2
sg22
I01
sg23
g147
sbsg7
I3
sg22
I01
sg23
g55
sbsg7
I4
sg22
I01
sg23
g24
sba(imyEvolve
Tree
p540
(dp541
g17
(imyEvolve
Tree
p542
(dp543
g17
(imyEvolve
Tree
p544
(dp545
g17
(imyEvolve
Tree
p546
(dp547
g17
(imyEvolve
Tree
p548
(dp549
g7
I1
sg8
(imyEvolve
Tree
p550
(dp551
g7
I0
sg21
I00
sbsg25
(imyEvolve
Tree
p552
(dp553
g7
I0
sg21
I00
sbsg22
I00
sg23
g46
sbsg7
I2
sg22
I01
sg23
g60
sbsg7
I3
sg22
I01
sg23
g24
sbsg7
I4
sg22
I01
sg23
g24
sbsg7
I5
sg22
I01
sg23
g55
sba(imyEvolve
Tree
p554
(dp555
g17
(imyEvolve
Tree
p556
(dp557
g7
I2
sg8
(imyEvolve
Tree
p558
(dp559
g7
I1
sg8
(imyEvolve
Tree
p560
(dp561
g7
I0
sg21
I00
sbsg25
(imyEvolve
Tree
p562
(dp563
g7
I0
sg20
F-0.3496182227644997
sg21
I01
sbsg22
I00
sg23
g32
sbsg25
(imyEvolve
Tree
p564
(dp565
g17
(imyEvolve
Tree
p566
(dp567
g7
I0
sg20
F0.11205409035157743
sg21
I01
sbsg7
I1
sg22
I01
sg23
g55
sbsg22
I00
sg23
g46
sbsg7
I3
sg22
I01
sg23
g147
sba(imyEvolve
Tree
p568
(dp569
g17
(imyEvolve
Tree
p570
(dp571
g7
I3
sg8
(imyEvolve
Tree
p572
(dp573
g17
(imyEvolve
Tree
p574
(dp575
g7
I1
sg8
(imyEvolve
Tree
p576
(dp577
g7
I0
sg20
F4.827665711625173
sg21
I01
sbsg25
(imyEvolve
Tree
p578
(dp579
g7
I0
sg20
F3.7399908402592192
sg21
I01
sbsg22
I00
sg23
g33
sbsg7
I2
sg22
I01
sg23
g147
sbsg25
(imyEvolve
Tree
p580
(dp581
g17
(imyEvolve
Tree
p582
(dp583
g7
I1
sg8
(imyEvolve
Tree
p584
(dp585
g7
I0
sg20
F-3.9933520463469065
sg21
I01
sbsg25
(imyEvolve
Tree
p586
(dp587
g7
I0
sg21
I00
sbsg22
I00
sg23
g32
sbsg7
I2
sg22
I01
sg23
g60
sbsg22
I00
sg23
g33
sbsg7
I4
sg22
I01
sg23
g60
sba(imyEvolve
Tree
p588
(dp589
g17
(imyEvolve
Tree
p590
(dp591
g7
I4
sg8
(imyEvolve
Tree
p592
(dp593
g7
I3
sg8
(imyEvolve
Tree
p594
(dp595
g7
I2
sg8
(imyEvolve
Tree
p596
(dp597
g17
(imyEvolve
Tree
p598
(dp599
g7
I0
sg21
I00
sbsg7
I1
sg22
I01
sg23
g24
sbsg25
(imyEvolve
Tree
p600
(dp601
g17
(imyEvolve
Tree
p602
(dp603
g7
I0
sg20
F1.2819720284061296
sg21
I01
sbsg7
I1
sg22
I01
sg23
g55
sbsg22
I00
sg23
g32
sbsg25
(imyEvolve
Tree
p604
(dp605
g7
I2
sg8
(imyEvolve
Tree
p606
(dp607
g7
I1
sg8
(imyEvolve
Tree
p608
(dp609
g7
I0
sg20
F-4.27227088758789
sg21
I01
sbsg25
(imyEvolve
Tree
p610
(dp611
g7
I0
sg21
I00
sbsg22
I00
sg23
g46
sbsg25
(imyEvolve
Tree
p612
(dp613
g7
I1
sg8
(imyEvolve
Tree
p614
(dp615
g7
I0
sg21
I00
sbsg25
(imyEvolve
Tree
p616
(dp617
g7
I0
sg21
I00
sbsg22
I00
sg23
g32
sbsg22
I00
sg23
g46
sbsg22
I00
sg23
g33
sbsg25
(imyEvolve
Tree
p618
(dp619
g7
I3
sg8
(imyEvolve
Tree
p620
(dp621
g7
I2
sg8
(imyEvolve
Tree
p622
(dp623
g17
(imyEvolve
Tree
p624
(dp625
g7
I0
sg21
I00
sbsg7
I1
sg22
I01
sg23
g60
sbsg25
(imyEvolve
Tree
p626
(dp627
g7
I1
sg8
(imyEvolve
Tree
p628
(dp629
g7
I0
sg20
F-2.3729201590305116
sg21
I01
sbsg25
(imyEvolve
Tree
p630
(dp631
g7
I0
sg21
I00
sbsg22
I00
sg23
g46
sbsg22
I00
sg23
g32
sbsg25
(imyEvolve
Tree
p632
(dp633
g17
(imyEvolve
Tree
p634
(dp635
g17
(imyEvolve
Tree
p636
(dp637
g7
I0
sg20
F-3.2770717861247176
sg21
I01
sbsg7
I1
sg22
I01
sg23
g147
sbsg7
I2
sg22
I01
sg23
g55
sbsg22
I00
sg23
g32
sbsg22
I00
sg23
g33
sbsg7
I5
sg22
I01
sg23
g55
sba(imyEvolve
Tree
p638
(dp639
g7
I4
sg8
(imyEvolve
Tree
p640
(dp641
g17
(imyEvolve
Tree
p642
(dp643
g17
(imyEvolve
Tree
p644
(dp645
g7
I1
sg8
(imyEvolve
Tree
p646
(dp647
g7
I0
sg21
I00
sbsg25
(imyEvolve
Tree
p648
(dp649
g7
I0
sg20
F-1.6599690907126528
sg21
I01
sbsg22
I00
sg23
g33
sbsg7
I2
sg22
I01
sg23
g55
sbsg7
I3
sg22
I01
sg23
g55
sbsg25
(imyEvolve
Tree
p650
(dp651
g7
I3
sg8
(imyEvolve
Tree
p652
(dp653
g7
I2
sg8
(imyEvolve
Tree
p654
(dp655
g7
I1
sg8
(imyEvolve
Tree
p656
(dp657
g7
I0
sg21
I00
sbsg25
(imyEvolve
Tree
p658
(dp659
g7
I0
sg21
I00
sbsg22
I00
sg23
g33
sbsg25
(imyEvolve
Tree
p660
(dp661
g17
(imyEvolve
Tree
p662
(dp663
g7
I0
sg21
I00
sbsg7
I1
sg22
I01
sg23
g147
sbsg22
I00
sg23
g32
sbsg25
(imyEvolve
Tree
p664
(dp665
g7
I2
sg8
(imyEvolve
Tree
p666
(dp667
g17
(imyEvolve
Tree
p668
(dp669
g7
I0
sg21
I00
sbsg7
I1
sg22
I01
sg23
g147
sbsg25
(imyEvolve
Tree
p670
(dp671
g17
(imyEvolve
Tree
p672
(dp673
g7
I0
sg21
I00
sbsg7
I1
sg22
I01
sg23
g24
sbsg22
I00
sg23
g33
sbsg22
I00
sg23
g46
sbsg22
I00
sg23
g46
sba(imyEvolve
Tree
p674
(dp675
g7
I4
sg8
(imyEvolve
Tree
p676
(dp677
g17
(imyEvolve
Tree
p678
(dp679
g7
I2
sg8
(imyEvolve
Tree
p680
(dp681
g17
(imyEvolve
Tree
p682
(dp683
g7
I0
sg21
I00
sbsg7
I1
sg22
I01
sg23
g55
sbsg25
(imyEvolve
Tree
p684
(dp685
g17
(imyEvolve
Tree
p686
(dp687
g7
I0
sg20
F0.5223742784553584
sg21
I01
sbsg7
I1
sg22
I01
sg23
g60
sbsg22
I00
sg23
g33
sbsg7
I3
sg22
I01
sg23
g24
sbsg25
(imyEvolve
Tree
p688
(dp689
g17
(imyEvolve
Tree
p690
(dp691
g7
I2
sg8
(imyEvolve
Tree
p692
(dp693
g7
I1
sg8
(imyEvolve
Tree
p694
(dp695
g7
I0
sg20
F2.0781410075044846
sg21
I01
sbsg25
(imyEvolve
Tree
p696
(dp697
g7
I0
sg21
I00
sbsg22
I00
sg23
g32
sbsg25
(imyEvolve
Tree
p698
(dp699
g7
I1
sg8
(imyEvolve
Tree
p700
(dp701
g7
I0
sg21
I00
sbsg25
(imyEvolve
Tree
p702
(dp703
g7
I0
sg20
F-3.2249563989088825
sg21
I01
sbsg22
I00
sg23
g46
sbsg22
I00
sg23
g46
sbsg7
I3
sg22
I01
sg23
g24
sbsg22
I00
sg23
g32
sba(imyEvolve
Tree
p704
(dp705
g17
(imyEvolve
Tree
p706
(dp707
g7
I3
sg8
(imyEvolve
Tree
p708
(dp709
g7
I2
sg8
(imyEvolve
Tree
p710
(dp711
g7
I1
sg8
(imyEvolve
Tree
p712
(dp713
g7
I0
sg20
F2.4177108143079096
sg21
I01
sbsg25
(imyEvolve
Tree
p714
(dp715
g7
I0
sg20
F-2.6543819977725724
sg21
I01
sbsg22
I00
sg23
g33
sbsg25
(imyEvolve
Tree
p716
(dp717
g17
(imyEvolve
Tree
p718
(dp719
g7
I0
sg20
F-3.061194726801464
sg21
I01
sbsg7
I1
sg22
I01
sg23
g55
sbsg22
I00
sg23
g32
sbsg25
(imyEvolve
Tree
p720
(dp721
g17
(imyEvolve
Tree
p722
(dp723
g17
(imyEvolve
Tree
p724
(dp725
g7
I0
sg20
F-1.3465105058121374
sg21
I01
sbsg7
I1
sg22
I01
sg23
g55
sbsg7
I2
sg22
I01
sg23
g60
sbsg22
I00
sg23
g33
sbsg7
I4
sg22
I01
sg23
g24
sbaasS'weightSharing'
p726
(lp727
I00
aI00
asS'fitnessValid'
p728
I00
sS'fitness'
p729
cnumpy.core.multiarray
scalar
p730
(cnumpy
dtype
p731
(S'f8'
p732
I0
I1
tp733
Rp734
(I3
S'<'
p735
NNNI-1
I-1
I0
tp736
bS'\x00\xae\x8b\xdb\x94\x93^?'
p737
tp738
Rp739
sS'alpha'
p740
F0.008832058931308392
sS'resolution'
p741
I45
sb.