(imyEvolve
Individual
p0
(dp1
S'funcs'
p2
(lp3
(lp4
(imyEvolve
Tree
p5
(dp6
S'below'
p7
(imyEvolve
Tree
p8
(dp9
g7
(imyEvolve
Tree
p10
(dp11
g7
(imyEvolve
Tree
p12
(dp13
S'depth'
p14
I2
sS'left'
p15
(imyEvolve
Tree
p16
(dp17
g14
I1
sg15
(imyEvolve
Tree
p18
(dp19
g14
I0
sS'isConstant'
p20
I00
sbsS'right'
p21
(imyEvolve
Tree
p22
(dp23
g14
I0
sS'constant'
p24
F3.984427907563571
sg20
I01
sbsS'single'
p25
I00
sS'op'
p26
coperator
sub
p27
sbsg21
(imyEvolve
Tree
p28
(dp29
g14
I1
sg15
(imyEvolve
Tree
p30
(dp31
g14
I0
sg20
I00
sbsg21
(imyEvolve
Tree
p32
(dp33
g14
I0
sg20
I00
sbsg25
I00
sg26
coperator
mul
p34
sbsg25
I00
sg26
coperator
add
p35
sbsg14
I3
sg25
I01
sg26
cmyEvolve
absSqrt
p36
sbsg14
I4
sg25
I01
sg26
cmath
cos
p37
sbsg14
I5
sg25
I01
sg26
cmyEvolve
square
p38
sba(imyEvolve
Tree
p39
(dp40
g7
(imyEvolve
Tree
p41
(dp42
g14
I3
sg15
(imyEvolve
Tree
p43
(dp44
g14
I2
sg15
(imyEvolve
Tree
p45
(dp46
g14
I1
sg15
(imyEvolve
Tree
p47
(dp48
g14
I0
sg24
F-1.5787364402262218
sg20
I01
sbsg21
(imyEvolve
Tree
p49
(dp50
g14
I0
sg20
I00
sbsg25
I00
sg26
g35
sbsg21
(imyEvolve
Tree
p51
(dp52
g14
I1
sg15
(imyEvolve
Tree
p53
(dp54
g14
I0
sg20
I00
sbsg21
(imyEvolve
Tree
p55
(dp56
g14
I0
sg20
I00
sbsg25
I00
sg26
g35
sbsg25
I00
sg26
g35
sbsg21
(imyEvolve
Tree
p57
(dp58
g14
I2
sg15
(imyEvolve
Tree
p59
(dp60
g14
I1
sg15
(imyEvolve
Tree
p61
(dp62
g14
I0
sg20
I00
sbsg21
(imyEvolve
Tree
p63
(dp64
g14
I0
sg24
F-4.071317450982369
sg20
I01
sbsg25
I00
sg26
g35
sbsg21
(imyEvolve
Tree
p65
(dp66
g14
I1
sg15
(imyEvolve
Tree
p67
(dp68
g14
I0
sg24
F-3.595530767154006
sg20
I01
sbsg21
(imyEvolve
Tree
p69
(dp70
g14
I0
sg24
F1.584900337646033
sg20
I01
sbsg25
I00
sg26
g35
sbsg25
I00
sg26
g27
sbsg25
I00
sg26
g34
sbsg14
I4
sg25
I01
sg26
g38
sba(imyEvolve
Tree
p71
(dp72
g7
(imyEvolve
Tree
p73
(dp74
g7
(imyEvolve
Tree
p75
(dp76
g14
I1
sg15
(imyEvolve
Tree
p77
(dp78
g14
I0
sg24
F-4.125099713695647
sg20
I01
sbsg21
(imyEvolve
Tree
p79
(dp80
g14
I0
sg24
F-0.9152356311262988
sg20
I01
sbsg25
I00
sg26
g27
sbsg14
I2
sg25
I01
sg26
g38
sbsg14
I3
sg25
I01
sg26
g36
sba(imyEvolve
Tree
p81
(dp82
g14
I3
sg15
(imyEvolve
Tree
p83
(dp84
g14
I2
sg15
(imyEvolve
Tree
p85
(dp86
g7
(imyEvolve
Tree
p87
(dp88
g14
I0
sg24
F-1.5210010609949176
sg20
I01
sbsg14
I1
sg25
I01
sg26
g38
sbsg21
(imyEvolve
Tree
p89
(dp90
g7
(imyEvolve
Tree
p91
(dp92
g14
I0
sg24
F-1.4220263173903436
sg20
I01
sbsg14
I1
sg25
I01
sg26
g37
sbsg25
I00
sg26
g34
sbsg21
(imyEvolve
Tree
p93
(dp94
g7
(imyEvolve
Tree
p95
(dp96
g14
I1
sg15
(imyEvolve
Tree
p97
(dp98
g14
I0
sg20
I00
sbsg21
(imyEvolve
Tree
p99
(dp100
g14
I0
sg20
I00
sbsg25
I00
sg26
g34
sbsg14
I2
sg25
I01
sg26
g37
sbsg25
I00
sg26
g27
sba(imyEvolve
Tree
p101
(dp102
g14
I5
sg15
(imyEvolve
Tree
p103
(dp104
g7
(imyEvolve
Tree
p105
(dp106
g14
I3
sg15
(imyEvolve
Tree
p107
(dp108
g7
(imyEvolve
Tree
p109
(dp110
g14
I1
sg15
(imyEvolve
Tree
p111
(dp112
g14
I0
sg24
F4.0396433389151944
sg20
I01
sbsg21
(imyEvolve
Tree
p113
(dp114
g14
I0
sg20
I00
sbsg25
I00
sg26
g27
sbsg14
I2
sg25
I01
sg26
g36
sbsg21
(imyEvolve
Tree
p115
(dp116
g7
(imyEvolve
Tree
p117
(dp118
g7
(imyEvolve
Tree
p119
(dp120
g14
I0
sg20
I00
sbsg14
I1
sg25
I01
sg26
g36
sbsg14
I2
sg25
I01
sg26
g37
sbsg25
I00
sg26
g27
sbsg14
I4
sg25
I01
sg26
g38
sbsg21
(imyEvolve
Tree
p121
(dp122
g14
I4
sg15
(imyEvolve
Tree
p123
(dp124
g7
(imyEvolve
Tree
p125
(dp126
g14
I2
sg15
(imyEvolve
Tree
p127
(dp128
g7
(imyEvolve
Tree
p129
(dp130
g14
I0
sg20
I00
sbsg14
I1
sg25
I01
sg26
g37
sbsg21
(imyEvolve
Tree
p131
(dp132
g14
I1
sg15
(imyEvolve
Tree
p133
(dp134
g14
I0
sg24
F3.170171351217242
sg20
I01
sbsg21
(imyEvolve
Tree
p135
(dp136
g14
I0
sg24
F-4.363646497794421
sg20
I01
sbsg25
I00
sg26
g27
sbsg25
I00
sg26
g27
sbsg14
I3
sg25
I01
sg26
g38
sbsg21
(imyEvolve
Tree
p137
(dp138
g14
I3
sg15
(imyEvolve
Tree
p139
(dp140
g7
(imyEvolve
Tree
p141
(dp142
g7
(imyEvolve
Tree
p143
(dp144
g14
I0
sg24
F1.967929402358985
sg20
I01
sbsg14
I1
sg25
I01
sg26
cmath
sin
p145
sbsg14
I2
sg25
I01
sg26
g38
sbsg21
(imyEvolve
Tree
p146
(dp147
g7
(imyEvolve
Tree
p148
(dp149
g7
(imyEvolve
Tree
p150
(dp151
g14
I0
sg20
I00
sbsg14
I1
sg25
I01
sg26
g38
sbsg14
I2
sg25
I01
sg26
g145
sbsg25
I00
sg26
g34
sbsg25
I00
sg26
g27
sbsg25
I00
sg26
g35
sba(imyEvolve
Tree
p152
(dp153
g7
(imyEvolve
Tree
p154
(dp155
g7
(imyEvolve
Tree
p156
(dp157
g14
I3
sg15
(imyEvolve
Tree
p158
(dp159
g7
(imyEvolve
Tree
p160
(dp161
g7
(imyEvolve
Tree
p162
(dp163
g14
I0
sg20
I00
sbsg14
I1
sg25
I01
sg26
g145
sbsg14
I2
sg25
I01
sg26
g145
sbsg21
(imyEvolve
Tree
p164
(dp165
g7
(imyEvolve
Tree
p166
(dp167
g14
I1
sg15
(imyEvolve
Tree
p168
(dp169
g14
I0
sg24
F-1.1861224669500436
sg20
I01
sbsg21
(imyEvolve
Tree
p170
(dp171
g14
I0
sg20
I00
sbsg25
I00
sg26
g35
sbsg14
I2
sg25
I01
sg26
g145
sbsg25
I00
sg26
g34
sbsg14
I4
sg25
I01
sg26
g38
sbsg14
I5
sg25
I01
sg26
g38
sba(imyEvolve
Tree
p172
(dp173
g7
(imyEvolve
Tree
p174
(dp175
g7
(imyEvolve
Tree
p176
(dp177
g14
I0
sg20
I00
sbsg14
I1
sg25
I01
sg26
g36
sbsg14
I2
sg25
I01
sg26
g38
sba(imyEvolve
Tree
p178
(dp179
g14
I5
sg15
(imyEvolve
Tree
p180
(dp181
g7
(imyEvolve
Tree
p182
(dp183
g14
I3
sg15
(imyEvolve
Tree
p184
(dp185
g7
(imyEvolve
Tree
p186
(dp187
g14
I1
sg15
(imyEvolve
Tree
p188
(dp189
g14
I0
sg20
I00
sbsg21
(imyEvolve
Tree
p190
(dp191
g14
I0
sg20
I00
sbsg25
I00
sg26
g35
sbsg14
I2
sg25
I01
sg26
g37
sbsg21
(imyEvolve
Tree
p192
(dp193
g14
I2
sg15
(imyEvolve
Tree
p194
(dp195
g7
(imyEvolve
Tree
p196
(dp197
g14
I0
sg24
F0.46885582864117037
sg20
I01
sbsg14
I1
sg25
I01
sg26
g36
sbsg21
(imyEvolve
Tree
p198
(dp199
g14
I1
sg15
(imyEvolve
Tree
p200
(dp201
g14
I0
sg20
I00
sbsg21
(imyEvolve
Tree
p202
(dp203
g14
I0
sg20
I00
sbsg25
I00
sg26
g27
sbsg25
I00
sg26
g27
sbsg25
I00
sg26
g34
sbsg14
I4
sg25
I01
sg26
g145
sbsg21
(imyEvolve
Tree
p204
(dp205
g7
(imyEvolve
Tree
p206
(dp207
g14
I3
sg15
(imyEvolve
Tree
p208
(dp209
g7
(imyEvolve
Tree
p210
(dp211
g14
I1
sg15
(imyEvolve
Tree
p212
(dp213
g14
I0
sg24
F3.705529910164774
sg20
I01
sbsg21
(imyEvolve
Tree
p214
(dp215
g14
I0
sg24
F-4.5397349346008395
sg20
I01
sbsg25
I00
sg26
g35
sbsg14
I2
sg25
I01
sg26
g36
sbsg21
(imyEvolve
Tree
p216
(dp217
g7
(imyEvolve
Tree
p218
(dp219
g7
(imyEvolve
Tree
p220
(dp221
g14
I0
sg24
F-2.9443916459360175
sg20
I01
sbsg14
I1
sg25
I01
sg26
g38
sbsg14
I2
sg25
I01
sg26
g38
sbsg25
I00
sg26
g27
sbsg14
I4
sg25
I01
sg26
g37
sbsg25
I00
sg26
g27
sbaa(lp222
(imyEvolve
Tree
p223
(dp224
g14
I2
sg15
(imyEvolve
Tree
p225
(dp226
g7
(imyEvolve
Tree
p227
(dp228
g14
I0
sg24
F4.659652594258729
sg20
I01
sbsg14
I1
sg25
I01
sg26
g37
sbsg21
(imyEvolve
Tree
p229
(dp230
g7
(imyEvolve
Tree
p231
(dp232
g14
I0
sg20
I00
sbsg14
I1
sg25
I01
sg26
g145
sbsg25
I00
sg26
g34
sba(imyEvolve
Tree
p233
(dp234
g14
I2
sg15
(imyEvolve
Tree
p235
(dp236
g14
I1
sg15
(imyEvolve
Tree
p237
(dp238
g14
I0
sg20
I00
sbsg21
(imyEvolve
Tree
p239
(dp240
g14
I0
sg20
I00
sbsg25
I00
sg26
g35
sbsg21
(imyEvolve
Tree
p241
(dp242
g7
(imyEvolve
Tree
p243
(dp244
g14
I0
sg20
I00
sbsg14
I1
sg25
I01
sg26
g36
sbsg25
I00
sg26
g35
sba(imyEvolve
Tree
p245
(dp246
g14
I2
sg15
(imyEvolve
Tree
p247
(dp248
g14
I1
sg15
(imyEvolve
Tree
p249
(dp250
g14
I0
sg20
I00
sbsg21
(imyEvolve
Tree
p251
(dp252
g14
I0
sg20
I00
sbsg25
I00
sg26
g35
sbsg21
(imyEvolve
Tree
p253
(dp254
g7
(imyEvolve
Tree
p255
(dp256
g14
I0
sg20
I00
sbsg14
I1
sg25
I01
sg26
g38
sbsg25
I00
sg26
g34
sba(imyEvolve
Tree
p257
(dp258
g14
I2
sg15
(imyEvolve
Tree
p259
(dp260
g14
I1
sg15
(imyEvolve
Tree
p261
(dp262
g14
I0
sg20
I00
sbsg21
(imyEvolve
Tree
p263
(dp264
g14
I0
sg24
F-1.5050626985088877
sg20
I01
sbsg25
I00
sg26
g27
sbsg21
(imyEvolve
Tree
p265
(dp266
g7
(imyEvolve
Tree
p267
(dp268
g14
I0
sg20
I00
sbsg14
I1
sg25
I01
sg26
g37
sbsg25
I00
sg26
g35
sba(imyEvolve
Tree
p269
(dp270
g7
(imyEvolve
Tree
p271
(dp272
g14
I2
sg15
(imyEvolve
Tree
p273
(dp274
g14
I1
sg15
(imyEvolve
Tree
p275
(dp276
g14
I0
sg20
I00
sbsg21
(imyEvolve
Tree
p277
(dp278
g14
I0
sg24
F-4.526772651759041
sg20
I01
sbsg25
I00
sg26
g34
sbsg21
(imyEvolve
Tree
p279
(dp280
g7
(imyEvolve
Tree
p281
(dp282
g14
I0
sg20
I00
sbsg14
I1
sg25
I01
sg26
g38
sbsg25
I00
sg26
g27
sbsg14
I3
sg25
I01
sg26
g38
sba(imyEvolve
Tree
p283
(dp284
g7
(imyEvolve
Tree
p285
(dp286
g14
I2
sg15
(imyEvolve
Tree
p287
(dp288
g7
(imyEvolve
Tree
p289
(dp290
g14
I0
sg20
I00
sbsg14
I1
sg25
I01
sg26
g38
sbsg21
(imyEvolve
Tree
p291
(dp292
g7
(imyEvolve
Tree
p293
(dp294
g14
I0
sg24
F4.60060567636064
sg20
I01
sbsg14
I1
sg25
I01
sg26
g37
sbsg25
I00
sg26
g34
sbsg14
I3
sg25
I01
sg26
g145
sba(imyEvolve
Tree
p295
(dp296
g7
(imyEvolve
Tree
p297
(dp298
g7
(imyEvolve
Tree
p299
(dp300
g7
(imyEvolve
Tree
p301
(dp302
g7
(imyEvolve
Tree
p303
(dp304
g7
(imyEvolve
Tree
p305
(dp306
g14
I0
sg20
I00
sbsg14
I1
sg25
I01
sg26
g145
sbsg14
I2
sg25
I01
sg26
g36
sbsg14
I3
sg25
I01
sg26
g37
sbsg14
I4
sg25
I01
sg26
g38
sbsg14
I5
sg25
I01
sg26
g37
sba(imyEvolve
Tree
p307
(dp308
g14
I2
sg15
(imyEvolve
Tree
p309
(dp310
g7
(imyEvolve
Tree
p311
(dp312
g14
I0
sg24
F-3.513131743772857
sg20
I01
sbsg14
I1
sg25
I01
sg26
g145
sbsg21
(imyEvolve
Tree
p313
(dp314
g7
(imyEvolve
Tree
p315
(dp316
g14
I0
sg24
F2.581492048709433
sg20
I01
sbsg14
I1
sg25
I01
sg26
g36
sbsg25
I00
sg26
g34
sba(imyEvolve
Tree
p317
(dp318
g7
(imyEvolve
Tree
p319
(dp320
g7
(imyEvolve
Tree
p321
(dp322
g14
I0
sg24
F4.920875181572963
sg20
I01
sbsg14
I1
sg25
I01
sg26
g38
sbsg14
I2
sg25
I01
sg26
g36
sba(imyEvolve
Tree
p323
(dp324
g7
(imyEvolve
Tree
p325
(dp326
g14
I2
sg15
(imyEvolve
Tree
p327
(dp328
g14
I1
sg15
(imyEvolve
Tree
p329
(dp330
g14
I0
sg24
F1.7830900044286349
sg20
I01
sbsg21
(imyEvolve
Tree
p331
(dp332
g14
I0
sg24
F-1.1987786485235552
sg20
I01
sbsg25
I00
sg26
g35
sbsg21
(imyEvolve
Tree
p333
(dp334
g14
I1
sg15
(imyEvolve
Tree
p335
(dp336
g14
I0
sg24
F2.2103201594598527
sg20
I01
sbsg21
(imyEvolve
Tree
p337
(dp338
g14
I0
sg20
I00
sbsg25
I00
sg26
g35
sbsg25
I00
sg26
g35
sbsg14
I3
sg25
I01
sg26
g36
sba(imyEvolve
Tree
p339
(dp340
g14
I5
sg15
(imyEvolve
Tree
p341
(dp342
g7
(imyEvolve
Tree
p343
(dp344
g14
I3
sg15
(imyEvolve
Tree
p345
(dp346
g7
(imyEvolve
Tree
p347
(dp348
g14
I1
sg15
(imyEvolve
Tree
p349
(dp350
g14
I0
sg24
F-4.737511868862114
sg20
I01
sbsg21
(imyEvolve
Tree
p351
(dp352
g14
I0
sg24
F3.7521648800040026
sg20
I01
sbsg25
I00
sg26
g27
sbsg14
I2
sg25
I01
sg26
g38
sbsg21
(imyEvolve
Tree
p353
(dp354
g14
I2
sg15
(imyEvolve
Tree
p355
(dp356
g14
I1
sg15
(imyEvolve
Tree
p357
(dp358
g14
I0
sg20
I00
sbsg21
(imyEvolve
Tree
p359
(dp360
g14
I0
sg24
F-1.0816151023391307
sg20
I01
sbsg25
I00
sg26
g35
sbsg21
(imyEvolve
Tree
p361
(dp362
g7
(imyEvolve
Tree
p363
(dp364
g14
I0
sg24
F4.614271217284497
sg20
I01
sbsg14
I1
sg25
I01
sg26
g37
sbsg25
I00
sg26
g35
sbsg25
I00
sg26
g27
sbsg14
I4
sg25
I01
sg26
g37
sbsg21
(imyEvolve
Tree
p365
(dp366
g7
(imyEvolve
Tree
p367
(dp368
g7
(imyEvolve
Tree
p369
(dp370
g7
(imyEvolve
Tree
p371
(dp372
g7
(imyEvolve
Tree
p373
(dp374
g14
I0
sg20
I00
sbsg14
I1
sg25
I01
sg26
g38
sbsg14
I2
sg25
I01
sg26
g38
sbsg14
I3
sg25
I01
sg26
g37
sbsg14
I4
sg25
I01
sg26
g37
sbsg25
I00
sg26
g27
sba(imyEvolve
Tree
p375
(dp376
g14
I5
sg15
(imyEvolve
Tree
p377
(dp378
g14
I4
sg15
(imyEvolve
Tree
p379
(dp380
g7
(imyEvolve
Tree
p381
(dp382
g14
I2
sg15
(imyEvolve
Tree
p383
(dp384
g7
(imyEvolve
Tree
p385
(dp386
g14
I0
sg20
I00
sbsg14
I1
sg25
I01
sg26
g38
sbsg21
(imyEvolve
Tree
p387
(dp388
g7
(imyEvolve
Tree
p389
(dp390
g14
I0
sg24
F-3.3116970512313717
sg20
I01
sbsg14
I1
sg25
I01
sg26
g36
sbsg25
I00
sg26
g35
sbsg14
I3
sg25
I01
sg26
g36
sbsg21
(imyEvolve
Tree
p391
(dp392
g14
I3
sg15
(imyEvolve
Tree
p393
(dp394
g7
(imyEvolve
Tree
p395
(dp396
g7
(imyEvolve
Tree
p397
(dp398
g14
I0
sg20
I00
sbsg14
I1
sg25
I01
sg26
g38
sbsg14
I2
sg25
I01
sg26
g36
sbsg21
(imyEvolve
Tree
p399
(dp400
g7
(imyEvolve
Tree
p401
(dp402
g7
(imyEvolve
Tree
p403
(dp404
g14
I0
sg24
F2.4317245076071305
sg20
I01
sbsg14
I1
sg25
I01
sg26
g38
sbsg14
I2
sg25
I01
sg26
g37
sbsg25
I00
sg26
g27
sbsg25
I00
sg26
g34
sbsg21
(imyEvolve
Tree
p405
(dp406
g14
I4
sg15
(imyEvolve
Tree
p407
(dp408
g7
(imyEvolve
Tree
p409
(dp410
g7
(imyEvolve
Tree
p411
(dp412
g14
I1
sg15
(imyEvolve
Tree
p413
(dp414
g14
I0
sg20
I00
sbsg21
(imyEvolve
Tree
p415
(dp416
g14
I0
sg24
F4.640373551918032
sg20
I01
sbsg25
I00
sg26
g34
sbsg14
I2
sg25
I01
sg26
g38
sbsg14
I3
sg25
I01
sg26
g37
sbsg21
(imyEvolve
Tree
p417
(dp418
g7
(imyEvolve
Tree
p419
(dp420
g7
(imyEvolve
Tree
p421
(dp422
g7
(imyEvolve
Tree
p423
(dp424
g14
I0
sg20
I00
sbsg14
I1
sg25
I01
sg26
g145
sbsg14
I2
sg25
I01
sg26
g37
sbsg14
I3
sg25
I01
sg26
g38
sbsg25
I00
sg26
g27
sbsg25
I00
sg26
g27
sbaa(lp425
(imyEvolve
Tree
p426
(dp427
g7
(imyEvolve
Tree
p428
(dp429
g7
(imyEvolve
Tree
p430
(dp431
g7
(imyEvolve
Tree
p432
(dp433
g14
I0
sg24
F2.7799744554251893
sg20
I01
sbsg14
I1
sg25
I01
sg26
g37
sbsg14
I2
sg25
I01
sg26
g38
sbsg14
I3
sg25
I01
sg26
g38
sba(imyEvolve
Tree
p434
(dp435
g14
I5
sg15
(imyEvolve
Tree
p436
(dp437
g14
I4
sg15
(imyEvolve
Tree
p438
(dp439
g7
(imyEvolve
Tree
p440
(dp441
g14
I2
sg15
(imyEvolve
Tree
p442
(dp443
g7
(imyEvolve
Tree
p444
(dp445
g14
I0
sg24
F4.276482765628039
sg20
I01
sbsg14
I1
sg25
I01
sg26
g36
sbsg21
(imyEvolve
Tree
p446
(dp447
g7
(imyEvolve
Tree
p448
(dp449
g14
I0
sg24
F0.1902149452745121
sg20
I01
sbsg14
I1
sg25
I01
sg26
g36
sbsg25
I00
sg26
g35
sbsg14
I3
sg25
I01
sg26
g37
sbsg21
(imyEvolve
Tree
p450
(dp451
g14
I3
sg15
(imyEvolve
Tree
p452
(dp453
g7
(imyEvolve
Tree
p454
(dp455
g14
I1
sg15
(imyEvolve
Tree
p456
(dp457
g14
I0
sg20
I00
sbsg21
(imyEvolve
Tree
p458
(dp459
g14
I0
sg24
F-3.7382981899894894
sg20
I01
sbsg25
I00
sg26
g27
sbsg14
I2
sg25
I01
sg26
g36
sbsg21
(imyEvolve
Tree
p460
(dp461
g14
I2
sg15
(imyEvolve
Tree
p462
(dp463
g14
I1
sg15
(imyEvolve
Tree
p464
(dp465
g14
I0
sg20
I00
sbsg21
(imyEvolve
Tree
p466
(dp467
g14
I0
sg24
F-3.699354253628384
sg20
I01
sbsg25
I00
sg26
g34
sbsg21
(imyEvolve
Tree
p468
(dp469
g7
(imyEvolve
Tree
p470
(dp471
g14
I0
sg20
I00
sbsg14
I1
sg25
I01
sg26
g37
sbsg25
I00
sg26
g35
sbsg25
I00
sg26
g27
sbsg25
I00
sg26
g27
sbsg21
(imyEvolve
Tree
p472
(dp473
g7
(imyEvolve
Tree
p474
(dp475
g7
(imyEvolve
Tree
p476
(dp477
g14
I2
sg15
(imyEvolve
Tree
p478
(dp479
g7
(imyEvolve
Tree
p480
(dp481
g14
I0
sg20
I00
sbsg14
I1
sg25
I01
sg26
g145
sbsg21
(imyEvolve
Tree
p482
(dp483
g14
I1
sg15
(imyEvolve
Tree
p484
(dp485
g14
I0
sg24
F2.6501444584697555
sg20
I01
sbsg21
(imyEvolve
Tree
p486
(dp487
g14
I0
sg20
I00
sbsg25
I00
sg26
g35
sbsg25
I00
sg26
g35
sbsg14
I3
sg25
I01
sg26
g37
sbsg14
I4
sg25
I01
sg26
g145
sbsg25
I00
sg26
g34
sba(imyEvolve
Tree
p488
(dp489
g14
I3
sg15
(imyEvolve
Tree
p490
(dp491
g7
(imyEvolve
Tree
p492
(dp493
g7
(imyEvolve
Tree
p494
(dp495
g14
I0
sg24
F-2.3311905986264083
sg20
I01
sbsg14
I1
sg25
I01
sg26
g37
sbsg14
I2
sg25
I01
sg26
g145
sbsg21
(imyEvolve
Tree
p496
(dp497
g7
(imyEvolve
Tree
p498
(dp499
g7
(imyEvolve
Tree
p500
(dp501
g14
I0
sg20
I00
sbsg14
I1
sg25
I01
sg26
g145
sbsg14
I2
sg25
I01
sg26
g36
sbsg25
I00
sg26
g35
sba(imyEvolve
Tree
p502
(dp503
g14
I3
sg15
(imyEvolve
Tree
p504
(dp505
g14
I2
sg15
(imyEvolve
Tree
p506
(dp507
g7
(imyEvolve
Tree
p508
(dp509
g14
I0
sg20
I00
sbsg14
I1
sg25
I01
sg26
g38
sbsg21
(imyEvolve
Tree
p510
(dp511
g14
I1
sg15
(imyEvolve
Tree
p512
(dp513
g14
I0
sg20
I00
sbsg21
(imyEvolve
Tree
p514
(dp515
g14
I0
sg24
F-0.941585394241848
sg20
I01
sbsg25
I00
sg26
g34
sbsg25
I00
sg26
g35
sbsg21
(imyEvolve
Tree
p516
(dp517
g14
I2
sg15
(imyEvolve
Tree
p518
(dp519
g7
(imyEvolve
Tree
p520
(dp521
g14
I0
sg24
F2.6210174398404575
sg20
I01
sbsg14
I1
sg25
I01
sg26
g37
sbsg21
(imyEvolve
Tree
p522
(dp523
g7
(imyEvolve
Tree
p524
(dp525
g14
I0
sg24
F-4.045359181508706
sg20
I01
sbsg14
I1
sg25
I01
sg26
g145
sbsg25
I00
sg26
g34
sbsg25
I00
sg26
g35
sba(imyEvolve
Tree
p526
(dp527
g7
(imyEvolve
Tree
p528
(dp529
g14
I3
sg15
(imyEvolve
Tree
p530
(dp531
g14
I2
sg15
(imyEvolve
Tree
p532
(dp533
g14
I1
sg15
(imyEvolve
Tree
p534
(dp535
g14
I0
sg24
F-2.7578655337997384
sg20
I01
sbsg21
(imyEvolve
Tree
p536
(dp537
g14
I0
sg24
F-2.4645350105081167
sg20
I01
sbsg25
I00
sg26
g35
sbsg21
(imyEvolve
Tree
p538
(dp539
g7
(imyEvolve
Tree
p540
(dp541
g14
I0
sg24
F2.063864900141521
sg20
I01
sbsg14
I1
sg25
I01
sg26
g36
sbsg25
I00
sg26
g35
sbsg21
(imyEvolve
Tree
p542
(dp543
g14
I2
sg15
(imyEvolve
Tree
p544
(dp545
g7
(imyEvolve
Tree
p546
(dp547
g14
I0
sg20
I00
sbsg14
I1
sg25
I01
sg26
g36
sbsg21
(imyEvolve
Tree
p548
(dp549
g14
I1
sg15
(imyEvolve
Tree
p550
(dp551
g14
I0
sg20
I00
sbsg21
(imyEvolve
Tree
p552
(dp553
g14
I0
sg20
I00
sbsg25
I00
sg26
g34
sbsg25
I00
sg26
g27
sbsg25
I00
sg26
g27
sbsg14
I4
sg25
I01
sg26
g36
sba(imyEvolve
Tree
p554
(dp555
g7
(imyEvolve
Tree
p556
(dp557
g7
(imyEvolve
Tree
p558
(dp559
g14
I2
sg15
(imyEvolve
Tree
p560
(dp561
g7
(imyEvolve
Tree
p562
(dp563
g14
I0
sg24
F1.4092503662679263
sg20
I01
sbsg14
I1
sg25
I01
sg26
g38
sbsg21
(imyEvolve
Tree
p564
(dp565
g7
(imyEvolve
Tree
p566
(dp567
g14
I0
sg20
I00
sbsg14
I1
sg25
I01
sg26
g37
sbsg25
I00
sg26
g34
sbsg14
I3
sg25
I01
sg26
g145
sbsg14
I4
sg25
I01
sg26
g145
sba(imyEvolve
Tree
p568
(dp569
g7
(imyEvolve
Tree
p570
(dp571
g7
(imyEvolve
Tree
p572
(dp573
g14
I2
sg15
(imyEvolve
Tree
p574
(dp575
g14
I1
sg15
(imyEvolve
Tree
p576
(dp577
g14
I0
sg20
I00
sbsg21
(imyEvolve
Tree
p578
(dp579
g14
I0
sg20
I00
sbsg25
I00
sg26
g35
sbsg21
(imyEvolve
Tree
p580
(dp581
g14
I1
sg15
(imyEvolve
Tree
p582
(dp583
g14
I0
sg24
F-4.661466121407454
sg20
I01
sbsg21
(imyEvolve
Tree
p584
(dp585
g14
I0
sg20
I00
sbsg25
I00
sg26
g35
sbsg25
I00
sg26
g34
sbsg14
I3
sg25
I01
sg26
g145
sbsg14
I4
sg25
I01
sg26
g37
sba(imyEvolve
Tree
p586
(dp587
g7
(imyEvolve
Tree
p588
(dp589
g14
I2
sg15
(imyEvolve
Tree
p590
(dp591
g14
I1
sg15
(imyEvolve
Tree
p592
(dp593
g14
I0
sg24
F4.310691393680797
sg20
I01
sbsg21
(imyEvolve
Tree
p594
(dp595
g14
I0
sg24
F-1.9901444880081351
sg20
I01
sbsg25
I00
sg26
g35
sbsg21
(imyEvolve
Tree
p596
(dp597
g7
(imyEvolve
Tree
p598
(dp599
g14
I0
sg24
F2.2929575047705706
sg20
I01
sbsg14
I1
sg25
I01
sg26
g38
sbsg25
I00
sg26
g35
sbsg14
I3
sg25
I01
sg26
g36
sba(imyEvolve
Tree
p600
(dp601
g14
I5
sg15
(imyEvolve
Tree
p602
(dp603
g7
(imyEvolve
Tree
p604
(dp605
g14
I3
sg15
(imyEvolve
Tree
p606
(dp607
g7
(imyEvolve
Tree
p608
(dp609
g7
(imyEvolve
Tree
p610
(dp611
g14
I0
sg20
I00
sbsg14
I1
sg25
I01
sg26
g145
sbsg14
I2
sg25
I01
sg26
g37
sbsg21
(imyEvolve
Tree
p612
(dp613
g14
I2
sg15
(imyEvolve
Tree
p614
(dp615
g7
(imyEvolve
Tree
p616
(dp617
g14
I0
sg20
I00
sbsg14
I1
sg25
I01
sg26
g36
sbsg21
(imyEvolve
Tree
p618
(dp619
g7
(imyEvolve
Tree
p620
(dp621
g14
I0
sg20
I00
sbsg14
I1
sg25
I01
sg26
g36
sbsg25
I00
sg26
g35
sbsg25
I00
sg26
g27
sbsg14
I4
sg25
I01
sg26
g145
sbsg21
(imyEvolve
Tree
p622
(dp623
g14
I4
sg15
(imyEvolve
Tree
p624
(dp625
g7
(imyEvolve
Tree
p626
(dp627
g7
(imyEvolve
Tree
p628
(dp629
g7
(imyEvolve
Tree
p630
(dp631
g14
I0
sg20
I00
sbsg14
I1
sg25
I01
sg26
g38
sbsg14
I2
sg25
I01
sg26
g36
sbsg14
I3
sg25
I01
sg26
g36
sbsg21
(imyEvolve
Tree
p632
(dp633
g14
I3
sg15
(imyEvolve
Tree
p634
(dp635
g7
(imyEvolve
Tree
p636
(dp637
g14
I1
sg15
(imyEvolve
Tree
p638
(dp639
g14
I0
sg20
I00
sbsg21
(imyEvolve
Tree
p640
(dp641
g14
I0
sg20
I00
sbsg25
I00
sg26
g35
sbsg14
I2
sg25
I01
sg26
g145
sbsg21
(imyEvolve
Tree
p642
(dp643
g7
(imyEvolve
Tree
p644
(dp645
g7
(imyEvolve
Tree
p646
(dp647
g14
I0
sg24
F-3.2077212438364433
sg20
I01
sbsg14
I1
sg25
I01
sg26
g38
sbsg14
I2
sg25
I01
sg26
g145
sbsg25
I00
sg26
g34
sbsg25
I00
sg26
g34
sbsg25
I00
sg26
g35
sba(imyEvolve
Tree
p648
(dp649
g14
I5
sg15
(imyEvolve
Tree
p650
(dp651
g7
(imyEvolve
Tree
p652
(dp653
g7
(imyEvolve
Tree
p654
(dp655
g7
(imyEvolve
Tree
p656
(dp657
g14
I1
sg15
(imyEvolve
Tree
p658
(dp659
g14
I0
sg24
F4.3656886241889055
sg20
I01
sbsg21
(imyEvolve
Tree
p660
(dp661
g14
I0
sg20
I00
sbsg25
I00
sg26
g34
sbsg14
I2
sg25
I01
sg26
g37
sbsg14
I3
sg25
I01
sg26
g38
sbsg14
I4
sg25
I01
sg26
g37
sbsg21
(imyEvolve
Tree
p662
(dp663
g7
(imyEvolve
Tree
p664
(dp665
g7
(imyEvolve
Tree
p666
(dp667
g7
(imyEvolve
Tree
p668
(dp669
g14
I1
sg15
(imyEvolve
Tree
p670
(dp671
g14
I0
sg24
F-0.19306148715914961
sg20
I01
sbsg21
(imyEvolve
Tree
p672
(dp673
g14
I0
sg20
I00
sbsg25
I00
sg26
g27
sbsg14
I2
sg25
I01
sg26
g37
sbsg14
I3
sg25
I01
sg26
g37
sbsg14
I4
sg25
I01
sg26
g36
sbsg25
I00
sg26
g27
sba(imyEvolve
Tree
p674
(dp675
g14
I3
sg15
(imyEvolve
Tree
p676
(dp677
g14
I2
sg15
(imyEvolve
Tree
p678
(dp679
g7
(imyEvolve
Tree
p680
(dp681
g14
I0
sg20
I00
sbsg14
I1
sg25
I01
sg26
g38
sbsg21
(imyEvolve
Tree
p682
(dp683
g14
I1
sg15
(imyEvolve
Tree
p684
(dp685
g14
I0
sg20
I00
sbsg21
(imyEvolve
Tree
p686
(dp687
g14
I0
sg20
I00
sbsg25
I00
sg26
g27
sbsg25
I00
sg26
g27
sbsg21
(imyEvolve
Tree
p688
(dp689
g7
(imyEvolve
Tree
p690
(dp691
g7
(imyEvolve
Tree
p692
(dp693
g14
I0
sg24
F-4.700930982825623
sg20
I01
sbsg14
I1
sg25
I01
sg26
g145
sbsg14
I2
sg25
I01
sg26
g145
sbsg25
I00
sg26
g27
sba(imyEvolve
Tree
p694
(dp695
g7
(imyEvolve
Tree
p696
(dp697
g7
(imyEvolve
Tree
p698
(dp699
g14
I1
sg15
(imyEvolve
Tree
p700
(dp701
g14
I0
sg20
I00
sbsg21
(imyEvolve
Tree
p702
(dp703
g14
I0
sg20
I00
sbsg25
I00
sg26
g34
sbsg14
I2
sg25
I01
sg26
g37
sbsg14
I3
sg25
I01
sg26
g37
sba(imyEvolve
Tree
p704
(dp705
g14
I4
sg15
(imyEvolve
Tree
p706
(dp707
g14
I3
sg15
(imyEvolve
Tree
p708
(dp709
g14
I2
sg15
(imyEvolve
Tree
p710
(dp711
g14
I1
sg15
(imyEvolve
Tree
p712
(dp713
g14
I0
sg24
F-1.6936525170870476
sg20
I01
sbsg21
(imyEvolve
Tree
p714
(dp715
g14
I0
sg20
I00
sbsg25
I00
sg26
g35
sbsg21
(imyEvolve
Tree
p716
(dp717
g14
I1
sg15
(imyEvolve
Tree
p718
(dp719
g14
I0
sg20
I00
sbsg21
(imyEvolve
Tree
p720
(dp721
g14
I0
sg24
F-1.521540828356096
sg20
I01
sbsg25
I00
sg26
g35
sbsg25
I00
sg26
g35
sbsg21
(imyEvolve
Tree
p722
(dp723
g14
I2
sg15
(imyEvolve
Tree
p724
(dp725
g7
(imyEvolve
Tree
p726
(dp727
g14
I0
sg20
I00
sbsg14
I1
sg25
I01
sg26
g145
sbsg21
(imyEvolve
Tree
p728
(dp729
g7
(imyEvolve
Tree
p730
(dp731
g14
I0
sg20
I00
sbsg14
I1
sg25
I01
sg26
g145
sbsg25
I00
sg26
g27
sbsg25
I00
sg26
g34
sbsg21
(imyEvolve
Tree
p732
(dp733
g14
I3
sg15
(imyEvolve
Tree
p734
(dp735
g14
I2
sg15
(imyEvolve
Tree
p736
(dp737
g14
I1
sg15
(imyEvolve
Tree
p738
(dp739
g14
I0
sg20
I00
sbsg21
(imyEvolve
Tree
p740
(dp741
g14
I0
sg24
F-4.295276679830261
sg20
I01
sbsg25
I00
sg26
g34
sbsg21
(imyEvolve
Tree
p742
(dp743
g14
I1
sg15
(imyEvolve
Tree
p744
(dp745
g14
I0
sg20
I00
sbsg21
(imyEvolve
Tree
p746
(dp747
g14
I0
sg20
I00
sbsg25
I00
sg26
g27
sbsg25
I00
sg26
g34
sbsg21
(imyEvolve
Tree
p748
(dp749
g14
I2
sg15
(imyEvolve
Tree
p750
(dp751
g14
I1
sg15
(imyEvolve
Tree
p752
(dp753
g14
I0
sg24
F-1.4969336506450026
sg20
I01
sbsg21
(imyEvolve
Tree
p754
(dp755
g14
I0
sg20
I00
sbsg25
I00
sg26
g35
sbsg21
(imyEvolve
Tree
p756
(dp757
g7
(imyEvolve
Tree
p758
(dp759
g14
I0
sg20
I00
sbsg14
I1
sg25
I01
sg26
g145
sbsg25
I00
sg26
g35
sbsg25
I00
sg26
g34
sbsg25
I00
sg26
g34
sba(imyEvolve
Tree
p760
(dp761
g14
I3
sg15
(imyEvolve
Tree
p762
(dp763
g7
(imyEvolve
Tree
p764
(dp765
g7
(imyEvolve
Tree
p766
(dp767
g14
I0
sg20
I00
sbsg14
I1
sg25
I01
sg26
g37
sbsg14
I2
sg25
I01
sg26
g38
sbsg21
(imyEvolve
Tree
p768
(dp769
g7
(imyEvolve
Tree
p770
(dp771
g14
I1
sg15
(imyEvolve
Tree
p772
(dp773
g14
I0
sg20
I00
sbsg21
(imyEvolve
Tree
p774
(dp775
g14
I0
sg20
I00
sbsg25
I00
sg26
g34
sbsg14
I2
sg25
I01
sg26
g37
sbsg25
I00
sg26
g34
sba(imyEvolve
Tree
p776
(dp777
g14
I2
sg15
(imyEvolve
Tree
p778
(dp779
g14
I1
sg15
(imyEvolve
Tree
p780
(dp781
g14
I0
sg20
I00
sbsg21
(imyEvolve
Tree
p782
(dp783
g14
I0
sg20
I00
sbsg25
I00
sg26
g27
sbsg21
(imyEvolve
Tree
p784
(dp785
g7
(imyEvolve
Tree
p786
(dp787
g14
I0
sg24
F3.0426954461409608
sg20
I01
sbsg14
I1
sg25
I01
sg26
g38
sbsg25
I00
sg26
g34
sbaa(lp788
(imyEvolve
Tree
p789
(dp790
g7
(imyEvolve
Tree
p791
(dp792
g7
(imyEvolve
Tree
p793
(dp794
g7
(imyEvolve
Tree
p795
(dp796
g14
I0
sg24
F3.2148556041463525
sg20
I01
sbsg14
I1
sg25
I01
sg26
g36
sbsg14
I2
sg25
I01
sg26
g36
sbsg14
I3
sg25
I01
sg26
g38
sba(imyEvolve
Tree
p797
(dp798
g14
I2
sg15
(imyEvolve
Tree
p799
(dp800
g7
(imyEvolve
Tree
p801
(dp802
g14
I0
sg20
I00
sbsg14
I1
sg25
I01
sg26
g38
sbsg21
(imyEvolve
Tree
p803
(dp804
g14
I1
sg15
(imyEvolve
Tree
p805
(dp806
g14
I0
sg24
F-2.7625417990029746
sg20
I01
sbsg21
(imyEvolve
Tree
p807
(dp808
g14
I0
sg24
F-0.37170770325699465
sg20
I01
sbsg25
I00
sg26
g27
sbsg25
I00
sg26
g34
sba(imyEvolve
Tree
p809
(dp810
g14
I2
sg15
(imyEvolve
Tree
p811
(dp812
g14
I1
sg15
(imyEvolve
Tree
p813
(dp814
g14
I0
sg20
I00
sbsg21
(imyEvolve
Tree
p815
(dp816
g14
I0
sg20
I00
sbsg25
I00
sg26
g34
sbsg21
(imyEvolve
Tree
p817
(dp818
g14
I1
sg15
(imyEvolve
Tree
p819
(dp820
g14
I0
sg20
I00
sbsg21
(imyEvolve
Tree
p821
(dp822
g14
I0
sg24
F4.892517680927174
sg20
I01
sbsg25
I00
sg26
g34
sbsg25
I00
sg26
g27
sba(imyEvolve
Tree
p823
(dp824
g14
I4
sg15
(imyEvolve
Tree
p825
(dp826
g14
I3
sg15
(imyEvolve
Tree
p827
(dp828
g14
I2
sg15
(imyEvolve
Tree
p829
(dp830
g14
I1
sg15
(imyEvolve
Tree
p831
(dp832
g14
I0
sg20
I00
sbsg21
(imyEvolve
Tree
p833
(dp834
g14
I0
sg20
I00
sbsg25
I00
sg26
g27
sbsg21
(imyEvolve
Tree
p835
(dp836
g7
(imyEvolve
Tree
p837
(dp838
g14
I0
sg20
I00
sbsg14
I1
sg25
I01
sg26
g145
sbsg25
I00
sg26
g27
sbsg21
(imyEvolve
Tree
p839
(dp840
g14
I2
sg15
(imyEvolve
Tree
p841
(dp842
g14
I1
sg15
(imyEvolve
Tree
p843
(dp844
g14
I0
sg20
I00
sbsg21
(imyEvolve
Tree
p845
(dp846
g14
I0
sg24
F-0.6212005546131003
sg20
I01
sbsg25
I00
sg26
g35
sbsg21
(imyEvolve
Tree
p847
(dp848
g14
I1
sg15
(imyEvolve
Tree
p849
(dp850
g14
I0
sg20
I00
sbsg21
(imyEvolve
Tree
p851
(dp852
g14
I0
sg24
F4.7304303209193534
sg20
I01
sbsg25
I00
sg26
g34
sbsg25
I00
sg26
g27
sbsg25
I00
sg26
g34
sbsg21
(imyEvolve
Tree
p853
(dp854
g14
I3
sg15
(imyEvolve
Tree
p855
(dp856
g7
(imyEvolve
Tree
p857
(dp858
g14
I1
sg15
(imyEvolve
Tree
p859
(dp860
g14
I0
sg24
F2.819326682676082
sg20
I01
sbsg21
(imyEvolve
Tree
p861
(dp862
g14
I0
sg24
F-4.893844115724075
sg20
I01
sbsg25
I00
sg26
g35
sbsg14
I2
sg25
I01
sg26
g37
sbsg21
(imyEvolve
Tree
p863
(dp864
g7
(imyEvolve
Tree
p865
(dp866
g14
I1
sg15
(imyEvolve
Tree
p867
(dp868
g14
I0
sg24
F4.827115676323343
sg20
I01
sbsg21
(imyEvolve
Tree
p869
(dp870
g14
I0
sg20
I00
sbsg25
I00
sg26
g35
sbsg14
I2
sg25
I01
sg26
g38
sbsg25
I00
sg26
g34
sbsg25
I00
sg26
g27
sba(imyEvolve
Tree
p871
(dp872
g14
I3
sg15
(imyEvolve
Tree
p873
(dp874
g14
I2
sg15
(imyEvolve
Tree
p875
(dp876
g7
(imyEvolve
Tree
p877
(dp878
g14
I0
sg20
I00
sbsg14
I1
sg25
I01
sg26
g37
sbsg21
(imyEvolve
Tree
p879
(dp880
g7
(imyEvolve
Tree
p881
(dp882
g14
I0
sg24
F-4.206078338921419
sg20
I01
sbsg14
I1
sg25
I01
sg26
g36
sbsg25
I00
sg26
g34
sbsg21
(imyEvolve
Tree
p883
(dp884
g14
I2
sg15
(imyEvolve
Tree
p885
(dp886
g14
I1
sg15
(imyEvolve
Tree
p887
(dp888
g14
I0
sg20
I00
sbsg21
(imyEvolve
Tree
p889
(dp890
g14
I0
sg24
F-0.9061291728451142
sg20
I01
sbsg25
I00
sg26
g27
sbsg21
(imyEvolve
Tree
p891
(dp892
g14
I1
sg15
(imyEvolve
Tree
p893
(dp894
g14
I0
sg24
F-0.2640213271555769
sg20
I01
sbsg21
(imyEvolve
Tree
p895
(dp896
g14
I0
sg24
F4.605225570565505
sg20
I01
sbsg25
I00
sg26
g34
sbsg25
I00
sg26
g27
sbsg25
I00
sg26
g27
sba(imyEvolve
Tree
p897
(dp898
g14
I3
sg15
(imyEvolve
Tree
p899
(dp900
g14
I2
sg15
(imyEvolve
Tree
p901
(dp902
g14
I1
sg15
(imyEvolve
Tree
p903
(dp904
g14
I0
sg20
I00
sbsg21
(imyEvolve
Tree
p905
(dp906
g14
I0
sg24
F-3.203216267243789
sg20
I01
sbsg25
I00
sg26
g35
sbsg21
(imyEvolve
Tree
p907
(dp908
g7
(imyEvolve
Tree
p909
(dp910
g14
I0
sg24
F-4.367237179098278
sg20
I01
sbsg14
I1
sg25
I01
sg26
g38
sbsg25
I00
sg26
g35
sbsg21
(imyEvolve
Tree
p911
(dp912
g14
I2
sg15
(imyEvolve
Tree
p913
(dp914
g14
I1
sg15
(imyEvolve
Tree
p915
(dp916
g14
I0
sg24
F-0.008990119561007148
sg20
I01
sbsg21
(imyEvolve
Tree
p917
(dp918
g14
I0
sg24
F-4.036875560580073
sg20
I01
sbsg25
I00
sg26
g27
sbsg21
(imyEvolve
Tree
p919
(dp920
g7
(imyEvolve
Tree
p921
(dp922
g14
I0
sg20
I00
sbsg14
I1
sg25
I01
sg26
g145
sbsg25
I00
sg26
g27
sbsg25
I00
sg26
g27
sba(imyEvolve
Tree
p923
(dp924
g14
I4
sg15
(imyEvolve
Tree
p925
(dp926
g7
(imyEvolve
Tree
p927
(dp928
g7
(imyEvolve
Tree
p929
(dp930
g14
I1
sg15
(imyEvolve
Tree
p931
(dp932
g14
I0
sg20
I00
sbsg21
(imyEvolve
Tree
p933
(dp934
g14
I0
sg20
I00
sbsg25
I00
sg26
g27
sbsg14
I2
sg25
I01
sg26
g38
sbsg14
I3
sg25
I01
sg26
g38
sbsg21
(imyEvolve
Tree
p935
(dp936
g14
I3
sg15
(imyEvolve
Tree
p937
(dp938
g14
I2
sg15
(imyEvolve
Tree
p939
(dp940
g14
I1
sg15
(imyEvolve
Tree
p941
(dp942
g14
I0
sg20
I00
sbsg21
(imyEvolve
Tree
p943
(dp944
g14
I0
sg24
F-0.14158704149658874
sg20
I01
sbsg25
I00
sg26
g27
sbsg21
(imyEvolve
Tree
p945
(dp946
g7
(imyEvolve
Tree
p947
(dp948
g14
I0
sg24
F0.1111288196329765
sg20
I01
sbsg14
I1
sg25
I01
sg26
g38
sbsg25
I00
sg26
g27
sbsg21
(imyEvolve
Tree
p949
(dp950
g14
I2
sg15
(imyEvolve
Tree
p951
(dp952
g14
I1
sg15
(imyEvolve
Tree
p953
(dp954
g14
I0
sg20
I00
sbsg21
(imyEvolve
Tree
p955
(dp956
g14
I0
sg20
I00
sbsg25
I00
sg26
g35
sbsg21
(imyEvolve
Tree
p957
(dp958
g7
(imyEvolve
Tree
p959
(dp960
g14
I0
sg20
I00
sbsg14
I1
sg25
I01
sg26
g145
sbsg25
I00
sg26
g35
sbsg25
I00
sg26
g27
sbsg25
I00
sg26
g34
sba(imyEvolve
Tree
p961
(dp962
g7
(imyEvolve
Tree
p963
(dp964
g7
(imyEvolve
Tree
p965
(dp966
g14
I2
sg15
(imyEvolve
Tree
p967
(dp968
g14
I1
sg15
(imyEvolve
Tree
p969
(dp970
g14
I0
sg20
I00
sbsg21
(imyEvolve
Tree
p971
(dp972
g14
I0
sg24
F2.6312471590262723
sg20
I01
sbsg25
I00
sg26
g35
sbsg21
(imyEvolve
Tree
p973
(dp974
g7
(imyEvolve
Tree
p975
(dp976
g14
I0
sg24
F-0.9703541138704193
sg20
I01
sbsg14
I1
sg25
I01
sg26
g36
sbsg25
I00
sg26
g27
sbsg14
I3
sg25
I01
sg26
g38
sbsg14
I4
sg25
I01
sg26
g36
sba(imyEvolve
Tree
p977
(dp978
g14
I4
sg15
(imyEvolve
Tree
p979
(dp980
g14
I3
sg15
(imyEvolve
Tree
p981
(dp982
g7
(imyEvolve
Tree
p983
(dp984
g14
I1
sg15
(imyEvolve
Tree
p985
(dp986
g14
I0
sg24
F1.4396042513113718
sg20
I01
sbsg21
(imyEvolve
Tree
p987
(dp988
g14
I0
sg24
F2.207175636606186
sg20
I01
sbsg25
I00
sg26
g35
sbsg14
I2
sg25
I01
sg26
g37
sbsg21
(imyEvolve
Tree
p989
(dp990
g7
(imyEvolve
Tree
p991
(dp992
g14
I1
sg15
(imyEvolve
Tree
p993
(dp994
g14
I0
sg20
I00
sbsg21
(imyEvolve
Tree
p995
(dp996
g14
I0
sg24
F3.861996641265476
sg20
I01
sbsg25
I00
sg26
g27
sbsg14
I2
sg25
I01
sg26
g38
sbsg25
I00
sg26
g35
sbsg21
(imyEvolve
Tree
p997
(dp998
g14
I3
sg15
(imyEvolve
Tree
p999
(dp1000
g7
(imyEvolve
Tree
p1001
(dp1002
g7
(imyEvolve
Tree
p1003
(dp1004
g14
I0
sg24
F-4.414610067947651
sg20
I01
sbsg14
I1
sg25
I01
sg26
g37
sbsg14
I2
sg25
I01
sg26
g36
sbsg21
(imyEvolve
Tree
p1005
(dp1006
g14
I2
sg15
(imyEvolve
Tree
p1007
(dp1008
g7
(imyEvolve
Tree
p1009
(dp1010
g14
I0
sg24
F-3.2306758995993823
sg20
I01
sbsg14
I1
sg25
I01
sg26
g145
sbsg21
(imyEvolve
Tree
p1011
(dp1012
g14
I1
sg15
(imyEvolve
Tree
p1013
(dp1014
g14
I0
sg24
F-1.4674133880890716
sg20
I01
sbsg21
(imyEvolve
Tree
p1015
(dp1016
g14
I0
sg20
I00
sbsg25
I00
sg26
g35
sbsg25
I00
sg26
g34
sbsg25
I00
sg26
g34
sbsg25
I00
sg26
g27
sba(imyEvolve
Tree
p1017
(dp1018
g7
(imyEvolve
Tree
p1019
(dp1020
g14
I2
sg15
(imyEvolve
Tree
p1021
(dp1022
g14
I1
sg15
(imyEvolve
Tree
p1023
(dp1024
g14
I0
sg20
I00
sbsg21
(imyEvolve
Tree
p1025
(dp1026
g14
I0
sg24
F-3.975322356800314
sg20
I01
sbsg25
I00
sg26
g35
sbsg21
(imyEvolve
Tree
p1027
(dp1028
g14
I1
sg15
(imyEvolve
Tree
p1029
(dp1030
g14
I0
sg24
F-0.5660603997116382
sg20
I01
sbsg21
(imyEvolve
Tree
p1031
(dp1032
g14
I0
sg20
I00
sbsg25
I00
sg26
g35
sbsg25
I00
sg26
g27
sbsg14
I3
sg25
I01
sg26
g36
sba(imyEvolve
Tree
p1033
(dp1034
g7
(imyEvolve
Tree
p1035
(dp1036
g7
(imyEvolve
Tree
p1037
(dp1038
g7
(imyEvolve
Tree
p1039
(dp1040
g7
(imyEvolve
Tree
p1041
(dp1042
g14
I1
sg15
(imyEvolve
Tree
p1043
(dp1044
g14
I0
sg24
F-2.1320685991224497
sg20
I01
sbsg21
(imyEvolve
Tree
p1045
(dp1046
g14
I0
sg20
I00
sbsg25
I00
sg26
g34
sbsg14
I2
sg25
I01
sg26
g145
sbsg14
I3
sg25
I01
sg26
g36
sbsg14
I4
sg25
I01
sg26
g38
sbsg14
I5
sg25
I01
sg26
g145
sba(imyEvolve
Tree
p1047
(dp1048
g14
I3
sg15
(imyEvolve
Tree
p1049
(dp1050
g14
I2
sg15
(imyEvolve
Tree
p1051
(dp1052
g7
(imyEvolve
Tree
p1053
(dp1054
g14
I0
sg24
F0.16696327778837983
sg20
I01
sbsg14
I1
sg25
I01
sg26
g37
sbsg21
(imyEvolve
Tree
p1055
(dp1056
g7
(imyEvolve
Tree
p1057
(dp1058
g14
I0
sg20
I00
sbsg14
I1
sg25
I01
sg26
g37
sbsg25
I00
sg26
g27
sbsg21
(imyEvolve
Tree
p1059
(dp1060
g14
I2
sg15
(imyEvolve
Tree
p1061
(dp1062
g7
(imyEvolve
Tree
p1063
(dp1064
g14
I0
sg20
I00
sbsg14
I1
sg25
I01
sg26
g38
sbsg21
(imyEvolve
Tree
p1065
(dp1066
g14
I1
sg15
(imyEvolve
Tree
p1067
(dp1068
g14
I0
sg24
F-4.20976511828198
sg20
I01
sbsg21
(imyEvolve
Tree
p1069
(dp1070
g14
I0
sg20
I00
sbsg25
I00
sg26
g35
sbsg25
I00
sg26
g35
sbsg25
I00
sg26
g34
sba(imyEvolve
Tree
p1071
(dp1072
g14
I5
sg15
(imyEvolve
Tree
p1073
(dp1074
g14
I4
sg15
(imyEvolve
Tree
p1075
(dp1076
g14
I3
sg15
(imyEvolve
Tree
p1077
(dp1078
g7
(imyEvolve
Tree
p1079
(dp1080
g7
(imyEvolve
Tree
p1081
(dp1082
g14
I0
sg20
I00
sbsg14
I1
sg25
I01
sg26
g37
sbsg14
I2
sg25
I01
sg26
g38
sbsg21
(imyEvolve
Tree
p1083
(dp1084
g7
(imyEvolve
Tree
p1085
(dp1086
g7
(imyEvolve
Tree
p1087
(dp1088
g14
I0
sg20
I00
sbsg14
I1
sg25
I01
sg26
g38
sbsg14
I2
sg25
I01
sg26
g37
sbsg25
I00
sg26
g27
sbsg21
(imyEvolve
Tree
p1089
(dp1090
g7
(imyEvolve
Tree
p1091
(dp1092
g7
(imyEvolve
Tree
p1093
(dp1094
g7
(imyEvolve
Tree
p1095
(dp1096
g14
I0
sg24
F-0.7067730057053261
sg20
I01
sbsg14
I1
sg25
I01
sg26
g36
sbsg14
I2
sg25
I01
sg26
g145
sbsg14
I3
sg25
I01
sg26
g38
sbsg25
I00
sg26
g35
sbsg21
(imyEvolve
Tree
p1097
(dp1098
g14
I4
sg15
(imyEvolve
Tree
p1099
(dp1100
g14
I3
sg15
(imyEvolve
Tree
p1101
(dp1102
g14
I2
sg15
(imyEvolve
Tree
p1103
(dp1104
g7
(imyEvolve
Tree
p1105
(dp1106
g14
I0
sg24
F3.390418310861703
sg20
I01
sbsg14
I1
sg25
I01
sg26
g145
sbsg21
(imyEvolve
Tree
p1107
(dp1108
g14
I1
sg15
(imyEvolve
Tree
p1109
(dp1110
g14
I0
sg24
F-1.7668289997202127
sg20
I01
sbsg21
(imyEvolve
Tree
p1111
(dp1112
g14
I0
sg20
I00
sbsg25
I00
sg26
g34
sbsg25
I00
sg26
g35
sbsg21
(imyEvolve
Tree
p1113
(dp1114
g7
(imyEvolve
Tree
p1115
(dp1116
g7
(imyEvolve
Tree
p1117
(dp1118
g14
I0
sg20
I00
sbsg14
I1
sg25
I01
sg26
g37
sbsg14
I2
sg25
I01
sg26
g37
sbsg25
I00
sg26
g35
sbsg21
(imyEvolve
Tree
p1119
(dp1120
g14
I3
sg15
(imyEvolve
Tree
p1121
(dp1122
g7
(imyEvolve
Tree
p1123
(dp1124
g14
I1
sg15
(imyEvolve
Tree
p1125
(dp1126
g14
I0
sg24
F2.2573027418637412
sg20
I01
sbsg21
(imyEvolve
Tree
p1127
(dp1128
g14
I0
sg20
I00
sbsg25
I00
sg26
g35
sbsg14
I2
sg25
I01
sg26
g37
sbsg21
(imyEvolve
Tree
p1129
(dp1130
g14
I2
sg15
(imyEvolve
Tree
p1131
(dp1132
g7
(imyEvolve
Tree
p1133
(dp1134
g14
I0
sg24
F-2.085902855297843
sg20
I01
sbsg14
I1
sg25
I01
sg26
g36
sbsg21
(imyEvolve
Tree
p1135
(dp1136
g14
I1
sg15
(imyEvolve
Tree
p1137
(dp1138
g14
I0
sg24
F0.5514822973872917
sg20
I01
sbsg21
(imyEvolve
Tree
p1139
(dp1140
g14
I0
sg20
I00
sbsg25
I00
sg26
g35
sbsg25
I00
sg26
g35
sbsg25
I00
sg26
g27
sbsg25
I00
sg26
g35
sbsg25
I00
sg26
g35
sbaasS'weightSharing'
p1141
(lp1142
I00
asS'fitnessValid'
p1143
I00
sS'fitness'
p1144
cnumpy.core.multiarray
scalar
p1145
(cnumpy
dtype
p1146
(S'f8'
p1147
I0
I1
tp1148
Rp1149
(I3
S'<'
p1150
NNNI-1
I-1
I0
tp1151
bS'\x00\x85|\xd0\x1d\x0f`?'
p1152
tp1153
Rp1154
sS'alpha'
p1155
F0.007471123144049652
sS'resolution'
p1156
I70
sb.