(imyEvolve
Individual
p0
(dp1
S'funcs'
p2
(lp3
(lp4
(imyEvolve
Tree
p5
(dp6
S'depth'
p7
I4
sS'left'
p8
(imyEvolve
Tree
p9
(dp10
S'below'
p11
(imyEvolve
Tree
p12
(dp13
g7
I2
sg8
(imyEvolve
Tree
p14
(dp15
g7
I1
sg8
(imyEvolve
Tree
p16
(dp17
g7
I0
sS'isConstant'
p18
I00
sbsS'right'
p19
(imyEvolve
Tree
p20
(dp21
g7
I0
sg18
I00
sbsS'single'
p22
I00
sS'op'
p23
coperator
sub
p24
sbsg19
(imyEvolve
Tree
p25
(dp26
g11
(imyEvolve
Tree
p27
(dp28
g7
I0
sS'constant'
p29
F-0.23334092469904721
sg18
I01
sbsg7
I1
sg22
I01
sg23
cmath
sin
p30
sbsg22
I00
sg23
coperator
mul
p31
sbsg7
I3
sg22
I01
sg23
cmath
cos
p32
sbsg19
(imyEvolve
Tree
p33
(dp34
g11
(imyEvolve
Tree
p35
(dp36
g11
(imyEvolve
Tree
p37
(dp38
g11
(imyEvolve
Tree
p39
(dp40
g7
I0
sg18
I00
sbsg7
I1
sg22
I01
sg23
g30
sbsg7
I2
sg22
I01
sg23
g30
sbsg7
I3
sg22
I01
sg23
g30
sbsg22
I00
sg23
g24
sba(imyEvolve
Tree
p41
(dp42
g7
I5
sg8
(imyEvolve
Tree
p43
(dp44
g7
I4
sg8
(imyEvolve
Tree
p45
(dp46
g11
(imyEvolve
Tree
p47
(dp48
g7
I2
sg8
(imyEvolve
Tree
p49
(dp50
g7
I1
sg8
(imyEvolve
Tree
p51
(dp52
g7
I0
sg18
I00
sbsg19
(imyEvolve
Tree
p53
(dp54
g7
I0
sg29
F2.2852574479103964
sg18
I01
sbsg22
I00
sg23
coperator
add
p55
sbsg19
(imyEvolve
Tree
p56
(dp57
g11
(imyEvolve
Tree
p58
(dp59
g7
I0
sg29
F-3.1837046761588264
sg18
I01
sbsg7
I1
sg22
I01
sg23
g32
sbsg22
I00
sg23
g55
sbsg7
I3
sg22
I01
sg23
cmyEvolve
absSqrt
p60
sbsg19
(imyEvolve
Tree
p61
(dp62
g7
I3
sg8
(imyEvolve
Tree
p63
(dp64
g11
(imyEvolve
Tree
p65
(dp66
g7
I1
sg8
(imyEvolve
Tree
p67
(dp68
g7
I0
sg18
I00
sbsg19
(imyEvolve
Tree
p69
(dp70
g7
I0
sg18
I00
sbsg22
I00
sg23
g24
sbsg7
I2
sg22
I01
sg23
g60
sbsg19
(imyEvolve
Tree
p71
(dp72
g7
I2
sg8
(imyEvolve
Tree
p73
(dp74
g7
I1
sg8
(imyEvolve
Tree
p75
(dp76
g7
I0
sg18
I00
sbsg19
(imyEvolve
Tree
p77
(dp78
g7
I0
sg29
F0.605932517801488
sg18
I01
sbsg22
I00
sg23
g31
sbsg19
(imyEvolve
Tree
p79
(dp80
g11
(imyEvolve
Tree
p81
(dp82
g7
I0
sg29
F4.7851336079599065
sg18
I01
sbsg7
I1
sg22
I01
sg23
g32
sbsg22
I00
sg23
g24
sbsg22
I00
sg23
g24
sbsg22
I00
sg23
g24
sbsg19
(imyEvolve
Tree
p83
(dp84
g11
(imyEvolve
Tree
p85
(dp86
g7
I3
sg8
(imyEvolve
Tree
p87
(dp88
g7
I2
sg8
(imyEvolve
Tree
p89
(dp90
g7
I1
sg8
(imyEvolve
Tree
p91
(dp92
g7
I0
sg29
F-1.225702292814109
sg18
I01
sbsg19
(imyEvolve
Tree
p93
(dp94
g7
I0
sg18
I00
sbsg22
I00
sg23
g31
sbsg19
(imyEvolve
Tree
p95
(dp96
g7
I1
sg8
(imyEvolve
Tree
p97
(dp98
g7
I0
sg29
F1.5211415479659216
sg18
I01
sbsg19
(imyEvolve
Tree
p99
(dp100
g7
I0
sg29
F4.067460558238045
sg18
I01
sbsg22
I00
sg23
g31
sbsg22
I00
sg23
g31
sbsg19
(imyEvolve
Tree
p101
(dp102
g11
(imyEvolve
Tree
p103
(dp104
g11
(imyEvolve
Tree
p105
(dp106
g7
I0
sg29
F-2.696754020263553
sg18
I01
sbsg7
I1
sg22
I01
sg23
g30
sbsg7
I2
sg22
I01
sg23
g60
sbsg22
I00
sg23
g55
sbsg7
I4
sg22
I01
sg23
g30
sbsg22
I00
sg23
g31
sba(imyEvolve
Tree
p107
(dp108
g7
I2
sg8
(imyEvolve
Tree
p109
(dp110
g11
(imyEvolve
Tree
p111
(dp112
g7
I0
sg29
F3.8983311202196465
sg18
I01
sbsg7
I1
sg22
I01
sg23
g60
sbsg19
(imyEvolve
Tree
p113
(dp114
g7
I1
sg8
(imyEvolve
Tree
p115
(dp116
g7
I0
sg18
I00
sbsg19
(imyEvolve
Tree
p117
(dp118
g7
I0
sg18
I00
sbsg22
I00
sg23
g31
sbsg22
I00
sg23
g31
sba(imyEvolve
Tree
p119
(dp120
g7
I2
sg8
(imyEvolve
Tree
p121
(dp122
g7
I1
sg8
(imyEvolve
Tree
p123
(dp124
g7
I0
sg18
I00
sbsg19
(imyEvolve
Tree
p125
(dp126
g7
I0
sg29
F0.7463103390610559
sg18
I01
sbsg22
I00
sg23
g31
sbsg19
(imyEvolve
Tree
p127
(dp128
g11
(imyEvolve
Tree
p129
(dp130
g7
I0
sg29
F2.211702273200209
sg18
I01
sbsg7
I1
sg22
I01
sg23
cmyEvolve
square
p131
sbsg22
I00
sg23
g24
sba(imyEvolve
Tree
p132
(dp133
g11
(imyEvolve
Tree
p134
(dp135
g7
I1
sg8
(imyEvolve
Tree
p136
(dp137
g7
I0
sg29
F-2.775320850783778
sg18
I01
sbsg19
(imyEvolve
Tree
p138
(dp139
g7
I0
sg18
I00
sbsg22
I00
sg23
g31
sbsg7
I2
sg22
I01
sg23
g60
sba(imyEvolve
Tree
p140
(dp141
g11
(imyEvolve
Tree
p142
(dp143
g11
(imyEvolve
Tree
p144
(dp145
g7
I1
sg8
(imyEvolve
Tree
p146
(dp147
g7
I0
sg29
F-3.5062843729773374
sg18
I01
sbsg19
(imyEvolve
Tree
p148
(dp149
g7
I0
sg29
F2.2431524869973174
sg18
I01
sbsg22
I00
sg23
g31
sbsg7
I2
sg22
I01
sg23
g60
sbsg7
I3
sg22
I01
sg23
g131
sba(imyEvolve
Tree
p150
(dp151
g7
I5
sg8
(imyEvolve
Tree
p152
(dp153
g11
(imyEvolve
Tree
p154
(dp155
g11
(imyEvolve
Tree
p156
(dp157
g7
I2
sg8
(imyEvolve
Tree
p158
(dp159
g7
I1
sg8
(imyEvolve
Tree
p160
(dp161
g7
I0
sg29
F1.418518192147582
sg18
I01
sbsg19
(imyEvolve
Tree
p162
(dp163
g7
I0
sg18
I00
sbsg22
I00
sg23
g55
sbsg19
(imyEvolve
Tree
p164
(dp165
g7
I1
sg8
(imyEvolve
Tree
p166
(dp167
g7
I0
sg18
I00
sbsg19
(imyEvolve
Tree
p168
(dp169
g7
I0
sg29
F-4.94516060774518
sg18
I01
sbsg22
I00
sg23
g31
sbsg22
I00
sg23
g31
sbsg7
I3
sg22
I01
sg23
g32
sbsg7
I4
sg22
I01
sg23
g60
sbsg19
(imyEvolve
Tree
p170
(dp171
g7
I4
sg8
(imyEvolve
Tree
p172
(dp173
g11
(imyEvolve
Tree
p174
(dp175
g11
(imyEvolve
Tree
p176
(dp177
g11
(imyEvolve
Tree
p178
(dp179
g7
I0
sg29
F3.8413025576327016
sg18
I01
sbsg7
I1
sg22
I01
sg23
g131
sbsg7
I2
sg22
I01
sg23
g32
sbsg7
I3
sg22
I01
sg23
g30
sbsg19
(imyEvolve
Tree
p180
(dp181
g11
(imyEvolve
Tree
p182
(dp183
g11
(imyEvolve
Tree
p184
(dp185
g11
(imyEvolve
Tree
p186
(dp187
g7
I0
sg29
F4.776286562039079
sg18
I01
sbsg7
I1
sg22
I01
sg23
g30
sbsg7
I2
sg22
I01
sg23
g32
sbsg7
I3
sg22
I01
sg23
g60
sbsg22
I00
sg23
g31
sbsg22
I00
sg23
g24
sba(imyEvolve
Tree
p188
(dp189
g7
I2
sg8
(imyEvolve
Tree
p190
(dp191
g11
(imyEvolve
Tree
p192
(dp193
g7
I0
sg18
I00
sbsg7
I1
sg22
I01
sg23
g60
sbsg19
(imyEvolve
Tree
p194
(dp195
g7
I1
sg8
(imyEvolve
Tree
p196
(dp197
g7
I0
sg29
F-3.778822459399346
sg18
I01
sbsg19
(imyEvolve
Tree
p198
(dp199
g7
I0
sg29
F-4.435608630595013
sg18
I01
sbsg22
I00
sg23
g31
sbsg22
I00
sg23
g55
sba(imyEvolve
Tree
p200
(dp201
g11
(imyEvolve
Tree
p202
(dp203
g7
I3
sg8
(imyEvolve
Tree
p204
(dp205
g7
I2
sg8
(imyEvolve
Tree
p206
(dp207
g7
I1
sg8
(imyEvolve
Tree
p208
(dp209
g7
I0
sg29
F3.203080928502164
sg18
I01
sbsg19
(imyEvolve
Tree
p210
(dp211
g7
I0
sg18
I00
sbsg22
I00
sg23
g55
sbsg19
(imyEvolve
Tree
p212
(dp213
g7
I1
sg8
(imyEvolve
Tree
p214
(dp215
g7
I0
sg18
I00
sbsg19
(imyEvolve
Tree
p216
(dp217
g7
I0
sg29
F0.7955599257388544
sg18
I01
sbsg22
I00
sg23
g31
sbsg22
I00
sg23
g31
sbsg19
(imyEvolve
Tree
p218
(dp219
g11
(imyEvolve
Tree
p220
(dp221
g11
(imyEvolve
Tree
p222
(dp223
g7
I0
sg29
F0.4529949632430865
sg18
I01
sbsg7
I1
sg22
I01
sg23
g32
sbsg7
I2
sg22
I01
sg23
g32
sbsg22
I00
sg23
g24
sbsg7
I4
sg22
I01
sg23
g32
sba(imyEvolve
Tree
p224
(dp225
g7
I3
sg8
(imyEvolve
Tree
p226
(dp227
g11
(imyEvolve
Tree
p228
(dp229
g7
I1
sg8
(imyEvolve
Tree
p230
(dp231
g7
I0
sg29
F1.965064443626595
sg18
I01
sbsg19
(imyEvolve
Tree
p232
(dp233
g7
I0
sg29
F1.8098476930306298
sg18
I01
sbsg22
I00
sg23
g24
sbsg7
I2
sg22
I01
sg23
g30
sbsg19
(imyEvolve
Tree
p234
(dp235
g11
(imyEvolve
Tree
p236
(dp237
g7
I1
sg8
(imyEvolve
Tree
p238
(dp239
g7
I0
sg29
F-2.82302135633286
sg18
I01
sbsg19
(imyEvolve
Tree
p240
(dp241
g7
I0
sg18
I00
sbsg22
I00
sg23
g24
sbsg7
I2
sg22
I01
sg23
g32
sbsg22
I00
sg23
g24
sba(imyEvolve
Tree
p242
(dp243
g7
I5
sg8
(imyEvolve
Tree
p244
(dp245
g11
(imyEvolve
Tree
p246
(dp247
g7
I3
sg8
(imyEvolve
Tree
p248
(dp249
g7
I2
sg8
(imyEvolve
Tree
p250
(dp251
g7
I1
sg8
(imyEvolve
Tree
p252
(dp253
g7
I0
sg29
F-1.8969619011775363
sg18
I01
sbsg19
(imyEvolve
Tree
p254
(dp255
g7
I0
sg29
F-2.9593695276738243
sg18
I01
sbsg22
I00
sg23
g24
sbsg19
(imyEvolve
Tree
p256
(dp257
g11
(imyEvolve
Tree
p258
(dp259
g7
I0
sg18
I00
sbsg7
I1
sg22
I01
sg23
g32
sbsg22
I00
sg23
g24
sbsg19
(imyEvolve
Tree
p260
(dp261
g11
(imyEvolve
Tree
p262
(dp263
g11
(imyEvolve
Tree
p264
(dp265
g7
I0
sg18
I00
sbsg7
I1
sg22
I01
sg23
g30
sbsg7
I2
sg22
I01
sg23
g32
sbsg22
I00
sg23
g31
sbsg7
I4
sg22
I01
sg23
g30
sbsg19
(imyEvolve
Tree
p266
(dp267
g7
I4
sg8
(imyEvolve
Tree
p268
(dp269
g7
I3
sg8
(imyEvolve
Tree
p270
(dp271
g7
I2
sg8
(imyEvolve
Tree
p272
(dp273
g7
I1
sg8
(imyEvolve
Tree
p274
(dp275
g7
I0
sg18
I00
sbsg19
(imyEvolve
Tree
p276
(dp277
g7
I0
sg29
F1.0119602393908345
sg18
I01
sbsg22
I00
sg23
g55
sbsg19
(imyEvolve
Tree
p278
(dp279
g7
I1
sg8
(imyEvolve
Tree
p280
(dp281
g7
I0
sg18
I00
sbsg19
(imyEvolve
Tree
p282
(dp283
g7
I0
sg18
I00
sbsg22
I00
sg23
g24
sbsg22
I00
sg23
g55
sbsg19
(imyEvolve
Tree
p284
(dp285
g7
I2
sg8
(imyEvolve
Tree
p286
(dp287
g7
I1
sg8
(imyEvolve
Tree
p288
(dp289
g7
I0
sg18
I00
sbsg19
(imyEvolve
Tree
p290
(dp291
g7
I0
sg18
I00
sbsg22
I00
sg23
g31
sbsg19
(imyEvolve
Tree
p292
(dp293
g7
I1
sg8
(imyEvolve
Tree
p294
(dp295
g7
I0
sg18
I00
sbsg19
(imyEvolve
Tree
p296
(dp297
g7
I0
sg29
F-1.4115846423063658
sg18
I01
sbsg22
I00
sg23
g55
sbsg22
I00
sg23
g24
sbsg22
I00
sg23
g24
sbsg19
(imyEvolve
Tree
p298
(dp299
g11
(imyEvolve
Tree
p300
(dp301
g11
(imyEvolve
Tree
p302
(dp303
g7
I1
sg8
(imyEvolve
Tree
p304
(dp305
g7
I0
sg29
F1.1895778930089174
sg18
I01
sbsg19
(imyEvolve
Tree
p306
(dp307
g7
I0
sg18
I00
sbsg22
I00
sg23
g24
sbsg7
I2
sg22
I01
sg23
g131
sbsg7
I3
sg22
I01
sg23
g32
sbsg22
I00
sg23
g55
sbsg22
I00
sg23
g55
sba(imyEvolve
Tree
p308
(dp309
g7
I2
sg8
(imyEvolve
Tree
p310
(dp311
g11
(imyEvolve
Tree
p312
(dp313
g7
I0
sg18
I00
sbsg7
I1
sg22
I01
sg23
g30
sbsg19
(imyEvolve
Tree
p314
(dp315
g11
(imyEvolve
Tree
p316
(dp317
g7
I0
sg29
F1.344754764298508
sg18
I01
sbsg7
I1
sg22
I01
sg23
g32
sbsg22
I00
sg23
g31
sba(imyEvolve
Tree
p318
(dp319
g7
I4
sg8
(imyEvolve
Tree
p320
(dp321
g11
(imyEvolve
Tree
p322
(dp323
g7
I2
sg8
(imyEvolve
Tree
p324
(dp325
g11
(imyEvolve
Tree
p326
(dp327
g7
I0
sg29
F-1.2511479180938134
sg18
I01
sbsg7
I1
sg22
I01
sg23
g32
sbsg19
(imyEvolve
Tree
p328
(dp329
g11
(imyEvolve
Tree
p330
(dp331
g7
I0
sg18
I00
sbsg7
I1
sg22
I01
sg23
g32
sbsg22
I00
sg23
g55
sbsg7
I3
sg22
I01
sg23
g131
sbsg19
(imyEvolve
Tree
p332
(dp333
g7
I3
sg8
(imyEvolve
Tree
p334
(dp335
g7
I2
sg8
(imyEvolve
Tree
p336
(dp337
g7
I1
sg8
(imyEvolve
Tree
p338
(dp339
g7
I0
sg29
F4.844020040573195
sg18
I01
sbsg19
(imyEvolve
Tree
p340
(dp341
g7
I0
sg29
F-3.4695312916425394
sg18
I01
sbsg22
I00
sg23
g31
sbsg19
(imyEvolve
Tree
p342
(dp343
g7
I1
sg8
(imyEvolve
Tree
p344
(dp345
g7
I0
sg29
F-2.7054550342409343
sg18
I01
sbsg19
(imyEvolve
Tree
p346
(dp347
g7
I0
sg18
I00
sbsg22
I00
sg23
g24
sbsg22
I00
sg23
g31
sbsg19
(imyEvolve
Tree
p348
(dp349
g7
I2
sg8
(imyEvolve
Tree
p350
(dp351
g7
I1
sg8
(imyEvolve
Tree
p352
(dp353
g7
I0
sg29
F-0.5486005577238959
sg18
I01
sbsg19
(imyEvolve
Tree
p354
(dp355
g7
I0
sg29
F1.9825519168955177
sg18
I01
sbsg22
I00
sg23
g55
sbsg19
(imyEvolve
Tree
p356
(dp357
g11
(imyEvolve
Tree
p358
(dp359
g7
I0
sg29
F2.924189743534029
sg18
I01
sbsg7
I1
sg22
I01
sg23
g30
sbsg22
I00
sg23
g24
sbsg22
I00
sg23
g31
sbsg22
I00
sg23
g31
sba(imyEvolve
Tree
p360
(dp361
g11
(imyEvolve
Tree
p362
(dp363
g7
I4
sg8
(imyEvolve
Tree
p364
(dp365
g7
I3
sg8
(imyEvolve
Tree
p366
(dp367
g11
(imyEvolve
Tree
p368
(dp369
g7
I1
sg8
(imyEvolve
Tree
p370
(dp371
g7
I0
sg29
F-4.822648121502356
sg18
I01
sbsg19
(imyEvolve
Tree
p372
(dp373
g7
I0
sg29
F4.64849596880126
sg18
I01
sbsg22
I00
sg23
g31
sbsg7
I2
sg22
I01
sg23
g60
sbsg19
(imyEvolve
Tree
p374
(dp375
g11
(imyEvolve
Tree
p376
(dp377
g11
(imyEvolve
Tree
p378
(dp379
g7
I0
sg29
F3.4827558968465375
sg18
I01
sbsg7
I1
sg22
I01
sg23
g32
sbsg7
I2
sg22
I01
sg23
g60
sbsg22
I00
sg23
g31
sbsg19
(imyEvolve
Tree
p380
(dp381
g7
I3
sg8
(imyEvolve
Tree
p382
(dp383
g7
I2
sg8
(imyEvolve
Tree
p384
(dp385
g7
I1
sg8
(imyEvolve
Tree
p386
(dp387
g7
I0
sg29
F1.1132636619416125
sg18
I01
sbsg19
(imyEvolve
Tree
p388
(dp389
g7
I0
sg29
F3.427859249134219
sg18
I01
sbsg22
I00
sg23
g31
sbsg19
(imyEvolve
Tree
p390
(dp391
g11
(imyEvolve
Tree
p392
(dp393
g7
I0
sg29
F-1.8901862818637727
sg18
I01
sbsg7
I1
sg22
I01
sg23
g60
sbsg22
I00
sg23
g24
sbsg19
(imyEvolve
Tree
p394
(dp395
g11
(imyEvolve
Tree
p396
(dp397
g11
(imyEvolve
Tree
p398
(dp399
g7
I0
sg29
F-0.14060192686176087
sg18
I01
sbsg7
I1
sg22
I01
sg23
g30
sbsg7
I2
sg22
I01
sg23
g30
sbsg22
I00
sg23
g55
sbsg22
I00
sg23
g24
sbsg7
I5
sg22
I01
sg23
g32
sba(imyEvolve
Tree
p400
(dp401
g11
(imyEvolve
Tree
p402
(dp403
g11
(imyEvolve
Tree
p404
(dp405
g7
I3
sg8
(imyEvolve
Tree
p406
(dp407
g11
(imyEvolve
Tree
p408
(dp409
g11
(imyEvolve
Tree
p410
(dp411
g7
I0
sg18
I00
sbsg7
I1
sg22
I01
sg23
g131
sbsg7
I2
sg22
I01
sg23
g30
sbsg19
(imyEvolve
Tree
p412
(dp413
g11
(imyEvolve
Tree
p414
(dp415
g7
I1
sg8
(imyEvolve
Tree
p416
(dp417
g7
I0
sg18
I00
sbsg19
(imyEvolve
Tree
p418
(dp419
g7
I0
sg18
I00
sbsg22
I00
sg23
g24
sbsg7
I2
sg22
I01
sg23
g30
sbsg22
I00
sg23
g24
sbsg7
I4
sg22
I01
sg23
g131
sbsg7
I5
sg22
I01
sg23
g60
sba(imyEvolve
Tree
p420
(dp421
g11
(imyEvolve
Tree
p422
(dp423
g7
I1
sg8
(imyEvolve
Tree
p424
(dp425
g7
I0
sg18
I00
sbsg19
(imyEvolve
Tree
p426
(dp427
g7
I0
sg29
F-2.2342951761687257
sg18
I01
sbsg22
I00
sg23
g55
sbsg7
I2
sg22
I01
sg23
g60
sba(imyEvolve
Tree
p428
(dp429
g7
I3
sg8
(imyEvolve
Tree
p430
(dp431
g11
(imyEvolve
Tree
p432
(dp433
g11
(imyEvolve
Tree
p434
(dp435
g7
I0
sg29
F3.065374989268003
sg18
I01
sbsg7
I1
sg22
I01
sg23
g60
sbsg7
I2
sg22
I01
sg23
g32
sbsg19
(imyEvolve
Tree
p436
(dp437
g7
I2
sg8
(imyEvolve
Tree
p438
(dp439
g7
I1
sg8
(imyEvolve
Tree
p440
(dp441
g7
I0
sg18
I00
sbsg19
(imyEvolve
Tree
p442
(dp443
g7
I0
sg29
F-1.5540755984578736
sg18
I01
sbsg22
I00
sg23
g31
sbsg19
(imyEvolve
Tree
p444
(dp445
g11
(imyEvolve
Tree
p446
(dp447
g7
I0
sg18
I00
sbsg7
I1
sg22
I01
sg23
g60
sbsg22
I00
sg23
g24
sbsg22
I00
sg23
g55
sba(imyEvolve
Tree
p448
(dp449
g7
I3
sg8
(imyEvolve
Tree
p450
(dp451
g7
I2
sg8
(imyEvolve
Tree
p452
(dp453
g11
(imyEvolve
Tree
p454
(dp455
g7
I0
sg18
I00
sbsg7
I1
sg22
I01
sg23
g32
sbsg19
(imyEvolve
Tree
p456
(dp457
g7
I1
sg8
(imyEvolve
Tree
p458
(dp459
g7
I0
sg18
I00
sbsg19
(imyEvolve
Tree
p460
(dp461
g7
I0
sg18
I00
sbsg22
I00
sg23
g31
sbsg22
I00
sg23
g55
sbsg19
(imyEvolve
Tree
p462
(dp463
g7
I2
sg8
(imyEvolve
Tree
p464
(dp465
g7
I1
sg8
(imyEvolve
Tree
p466
(dp467
g7
I0
sg29
F-0.5232322589444394
sg18
I01
sbsg19
(imyEvolve
Tree
p468
(dp469
g7
I0
sg18
I00
sbsg22
I00
sg23
g24
sbsg19
(imyEvolve
Tree
p470
(dp471
g7
I1
sg8
(imyEvolve
Tree
p472
(dp473
g7
I0
sg18
I00
sbsg19
(imyEvolve
Tree
p474
(dp475
g7
I0
sg29
F1.337035581237239
sg18
I01
sbsg22
I00
sg23
g55
sbsg22
I00
sg23
g24
sbsg22
I00
sg23
g24
sba(imyEvolve
Tree
p476
(dp477
g7
I3
sg8
(imyEvolve
Tree
p478
(dp479
g11
(imyEvolve
Tree
p480
(dp481
g11
(imyEvolve
Tree
p482
(dp483
g7
I0
sg29
F0.11675828441449276
sg18
I01
sbsg7
I1
sg22
I01
sg23
g60
sbsg7
I2
sg22
I01
sg23
g60
sbsg19
(imyEvolve
Tree
p484
(dp485
g11
(imyEvolve
Tree
p486
(dp487
g11
(imyEvolve
Tree
p488
(dp489
g7
I0
sg29
F-0.07787014466676823
sg18
I01
sbsg7
I1
sg22
I01
sg23
g60
sbsg7
I2
sg22
I01
sg23
g60
sbsg22
I00
sg23
g31
sba(imyEvolve
Tree
p490
(dp491
g7
I4
sg8
(imyEvolve
Tree
p492
(dp493
g11
(imyEvolve
Tree
p494
(dp495
g7
I2
sg8
(imyEvolve
Tree
p496
(dp497
g11
(imyEvolve
Tree
p498
(dp499
g7
I0
sg18
I00
sbsg7
I1
sg22
I01
sg23
g30
sbsg19
(imyEvolve
Tree
p500
(dp501
g7
I1
sg8
(imyEvolve
Tree
p502
(dp503
g7
I0
sg29
F-2.5434645713477986
sg18
I01
sbsg19
(imyEvolve
Tree
p504
(dp505
g7
I0
sg29
F-1.1735775886589894
sg18
I01
sbsg22
I00
sg23
g24
sbsg22
I00
sg23
g31
sbsg7
I3
sg22
I01
sg23
g32
sbsg19
(imyEvolve
Tree
p506
(dp507
g7
I3
sg8
(imyEvolve
Tree
p508
(dp509
g7
I2
sg8
(imyEvolve
Tree
p510
(dp511
g7
I1
sg8
(imyEvolve
Tree
p512
(dp513
g7
I0
sg29
F2.5191284988844265
sg18
I01
sbsg19
(imyEvolve
Tree
p514
(dp515
g7
I0
sg18
I00
sbsg22
I00
sg23
g31
sbsg19
(imyEvolve
Tree
p516
(dp517
g11
(imyEvolve
Tree
p518
(dp519
g7
I0
sg18
I00
sbsg7
I1
sg22
I01
sg23
g60
sbsg22
I00
sg23
g31
sbsg19
(imyEvolve
Tree
p520
(dp521
g7
I2
sg8
(imyEvolve
Tree
p522
(dp523
g7
I1
sg8
(imyEvolve
Tree
p524
(dp525
g7
I0
sg18
I00
sbsg19
(imyEvolve
Tree
p526
(dp527
g7
I0
sg18
I00
sbsg22
I00
sg23
g24
sbsg19
(imyEvolve
Tree
p528
(dp529
g11
(imyEvolve
Tree
p530
(dp531
g7
I0
sg29
F0.5111072403256909
sg18
I01
sbsg7
I1
sg22
I01
sg23
g131
sbsg22
I00
sg23
g55
sbsg22
I00
sg23
g55
sbsg22
I00
sg23
g24
sbaa(lp532
(imyEvolve
Tree
p533
(dp534
g7
I5
sg8
(imyEvolve
Tree
p535
(dp536
g11
(imyEvolve
Tree
p537
(dp538
g11
(imyEvolve
Tree
p539
(dp540
g7
I2
sg8
(imyEvolve
Tree
p541
(dp542
g11
(imyEvolve
Tree
p543
(dp544
g7
I0
sg29
F-3.3560946557382776
sg18
I01
sbsg7
I1
sg22
I01
sg23
g131
sbsg19
(imyEvolve
Tree
p545
(dp546
g7
I1
sg8
(imyEvolve
Tree
p547
(dp548
g7
I0
sg29
F-1.0961188540290134
sg18
I01
sbsg19
(imyEvolve
Tree
p549
(dp550
g7
I0
sg18
I00
sbsg22
I00
sg23
g24
sbsg22
I00
sg23
g31
sbsg7
I3
sg22
I01
sg23
g60
sbsg7
I4
sg22
I01
sg23
g32
sbsg19
(imyEvolve
Tree
p551
(dp552
g11
(imyEvolve
Tree
p553
(dp554
g7
I3
sg8
(imyEvolve
Tree
p555
(dp556
g7
I2
sg8
(imyEvolve
Tree
p557
(dp558
g7
I1
sg8
(imyEvolve
Tree
p559
(dp560
g7
I0
sg18
I00
sbsg19
(imyEvolve
Tree
p561
(dp562
g7
I0
sg18
I00
sbsg22
I00
sg23
g55
sbsg19
(imyEvolve
Tree
p563
(dp564
g7
I1
sg8
(imyEvolve
Tree
p565
(dp566
g7
I0
sg18
I00
sbsg19
(imyEvolve
Tree
p567
(dp568
g7
I0
sg18
I00
sbsg22
I00
sg23
g24
sbsg22
I00
sg23
g24
sbsg19
(imyEvolve
Tree
p569
(dp570
g11
(imyEvolve
Tree
p571
(dp572
g11
(imyEvolve
Tree
p573
(dp574
g7
I0
sg29
F-2.5911458057875967
sg18
I01
sbsg7
I1
sg22
I01
sg23
g131
sbsg7
I2
sg22
I01
sg23
g60
sbsg22
I00
sg23
g24
sbsg7
I4
sg22
I01
sg23
g32
sbsg22
I00
sg23
g31
sba(imyEvolve
Tree
p575
(dp576
g7
I5
sg8
(imyEvolve
Tree
p577
(dp578
g11
(imyEvolve
Tree
p579
(dp580
g7
I3
sg8
(imyEvolve
Tree
p581
(dp582
g11
(imyEvolve
Tree
p583
(dp584
g11
(imyEvolve
Tree
p585
(dp586
g7
I0
sg29
F-4.229440679788824
sg18
I01
sbsg7
I1
sg22
I01
sg23
g30
sbsg7
I2
sg22
I01
sg23
g60
sbsg19
(imyEvolve
Tree
p587
(dp588
g7
I2
sg8
(imyEvolve
Tree
p589
(dp590
g7
I1
sg8
(imyEvolve
Tree
p591
(dp592
g7
I0
sg29
F1.3738820081128775
sg18
I01
sbsg19
(imyEvolve
Tree
p593
(dp594
g7
I0
sg29
F-0.0764568484979522
sg18
I01
sbsg22
I00
sg23
g31
sbsg19
(imyEvolve
Tree
p595
(dp596
g11
(imyEvolve
Tree
p597
(dp598
g7
I0
sg18
I00
sbsg7
I1
sg22
I01
sg23
g60
sbsg22
I00
sg23
g24
sbsg22
I00
sg23
g24
sbsg7
I4
sg22
I01
sg23
g32
sbsg19
(imyEvolve
Tree
p599
(dp600
g7
I4
sg8
(imyEvolve
Tree
p601
(dp602
g7
I3
sg8
(imyEvolve
Tree
p603
(dp604
g11
(imyEvolve
Tree
p605
(dp606
g11
(imyEvolve
Tree
p607
(dp608
g7
I0
sg29
F3.764281989462786
sg18
I01
sbsg7
I1
sg22
I01
sg23
g32
sbsg7
I2
sg22
I01
sg23
g60
sbsg19
(imyEvolve
Tree
p609
(dp610
g11
(imyEvolve
Tree
p611
(dp612
g7
I1
sg8
(imyEvolve
Tree
p613
(dp614
g7
I0
sg18
I00
sbsg19
(imyEvolve
Tree
p615
(dp616
g7
I0
sg18
I00
sbsg22
I00
sg23
g55
sbsg7
I2
sg22
I01
sg23
g30
sbsg22
I00
sg23
g31
sbsg19
(imyEvolve
Tree
p617
(dp618
g7
I3
sg8
(imyEvolve
Tree
p619
(dp620
g11
(imyEvolve
Tree
p621
(dp622
g11
(imyEvolve
Tree
p623
(dp624
g7
I0
sg18
I00
sbsg7
I1
sg22
I01
sg23
g60
sbsg7
I2
sg22
I01
sg23
g131
sbsg19
(imyEvolve
Tree
p625
(dp626
g11
(imyEvolve
Tree
p627
(dp628
g11
(imyEvolve
Tree
p629
(dp630
g7
I0
sg18
I00
sbsg7
I1
sg22
I01
sg23
g32
sbsg7
I2
sg22
I01
sg23
g131
sbsg22
I00
sg23
g55
sbsg22
I00
sg23
g24
sbsg22
I00
sg23
g24
sba(imyEvolve
Tree
p631
(dp632
g7
I3
sg8
(imyEvolve
Tree
p633
(dp634
g11
(imyEvolve
Tree
p635
(dp636
g7
I1
sg8
(imyEvolve
Tree
p637
(dp638
g7
I0
sg29
F1.0581534929933305
sg18
I01
sbsg19
(imyEvolve
Tree
p639
(dp640
g7
I0
sg18
I00
sbsg22
I00
sg23
g31
sbsg7
I2
sg22
I01
sg23
g60
sbsg19
(imyEvolve
Tree
p641
(dp642
g11
(imyEvolve
Tree
p643
(dp644
g11
(imyEvolve
Tree
p645
(dp646
g7
I0
sg29
F4.355896327670951
sg18
I01
sbsg7
I1
sg22
I01
sg23
g32
sbsg7
I2
sg22
I01
sg23
g32
sbsg22
I00
sg23
g55
sba(imyEvolve
Tree
p647
(dp648
g11
(imyEvolve
Tree
p649
(dp650
g7
I1
sg8
(imyEvolve
Tree
p651
(dp652
g7
I0
sg18
I00
sbsg19
(imyEvolve
Tree
p653
(dp654
g7
I0
sg29
F-3.8680584468050894
sg18
I01
sbsg22
I00
sg23
g55
sbsg7
I2
sg22
I01
sg23
g60
sba(imyEvolve
Tree
p655
(dp656
g11
(imyEvolve
Tree
p657
(dp658
g7
I2
sg8
(imyEvolve
Tree
p659
(dp660
g7
I1
sg8
(imyEvolve
Tree
p661
(dp662
g7
I0
sg29
F3.626970037325979
sg18
I01
sbsg19
(imyEvolve
Tree
p663
(dp664
g7
I0
sg18
I00
sbsg22
I00
sg23
g31
sbsg19
(imyEvolve
Tree
p665
(dp666
g7
I1
sg8
(imyEvolve
Tree
p667
(dp668
g7
I0
sg18
I00
sbsg19
(imyEvolve
Tree
p669
(dp670
g7
I0
sg29
F-1.236082610062923
sg18
I01
sbsg22
I00
sg23
g31
sbsg22
I00
sg23
g55
sbsg7
I3
sg22
I01
sg23
g131
sba(imyEvolve
Tree
p671
(dp672
g7
I3
sg8
(imyEvolve
Tree
p673
(dp674
g7
I2
sg8
(imyEvolve
Tree
p675
(dp676
g7
I1
sg8
(imyEvolve
Tree
p677
(dp678
g7
I0
sg29
F-0.7410928517348081
sg18
I01
sbsg19
(imyEvolve
Tree
p679
(dp680
g7
I0
sg29
F1.6858730801510768
sg18
I01
sbsg22
I00
sg23
g24
sbsg19
(imyEvolve
Tree
p681
(dp682
g11
(imyEvolve
Tree
p683
(dp684
g7
I0
sg18
I00
sbsg7
I1
sg22
I01
sg23
g30
sbsg22
I00
sg23
g55
sbsg19
(imyEvolve
Tree
p685
(dp686
g11
(imyEvolve
Tree
p687
(dp688
g7
I1
sg8
(imyEvolve
Tree
p689
(dp690
g7
I0
sg29
F3.9121462208637983
sg18
I01
sbsg19
(imyEvolve
Tree
p691
(dp692
g7
I0
sg29
F-4.068178294309287
sg18
I01
sbsg22
I00
sg23
g24
sbsg7
I2
sg22
I01
sg23
g60
sbsg22
I00
sg23
g31
sba(imyEvolve
Tree
p693
(dp694
g7
I4
sg8
(imyEvolve
Tree
p695
(dp696
g11
(imyEvolve
Tree
p697
(dp698
g7
I2
sg8
(imyEvolve
Tree
p699
(dp700
g11
(imyEvolve
Tree
p701
(dp702
g7
I0
sg29
F1.7648500663162316
sg18
I01
sbsg7
I1
sg22
I01
sg23
g32
sbsg19
(imyEvolve
Tree
p703
(dp704
g11
(imyEvolve
Tree
p705
(dp706
g7
I0
sg18
I00
sbsg7
I1
sg22
I01
sg23
g60
sbsg22
I00
sg23
g24
sbsg7
I3
sg22
I01
sg23
g30
sbsg19
(imyEvolve
Tree
p707
(dp708
g7
I3
sg8
(imyEvolve
Tree
p709
(dp710
g11
(imyEvolve
Tree
p711
(dp712
g11
(imyEvolve
Tree
p713
(dp714
g7
I0
sg18
I00
sbsg7
I1
sg22
I01
sg23
g32
sbsg7
I2
sg22
I01
sg23
g30
sbsg19
(imyEvolve
Tree
p715
(dp716
g11
(imyEvolve
Tree
p717
(dp718
g11
(imyEvolve
Tree
p719
(dp720
g7
I0
sg29
F0.07940011542192771
sg18
I01
sbsg7
I1
sg22
I01
sg23
g32
sbsg7
I2
sg22
I01
sg23
g30
sbsg22
I00
sg23
g24
sbsg22
I00
sg23
g24
sba(imyEvolve
Tree
p721
(dp722
g11
(imyEvolve
Tree
p723
(dp724
g7
I2
sg8
(imyEvolve
Tree
p725
(dp726
g11
(imyEvolve
Tree
p727
(dp728
g7
I0
sg18
I00
sbsg7
I1
sg22
I01
sg23
g131
sbsg19
(imyEvolve
Tree
p729
(dp730
g7
I1
sg8
(imyEvolve
Tree
p731
(dp732
g7
I0
sg29
F0.10363873065191509
sg18
I01
sbsg19
(imyEvolve
Tree
p733
(dp734
g7
I0
sg18
I00
sbsg22
I00
sg23
g24
sbsg22
I00
sg23
g24
sbsg7
I3
sg22
I01
sg23
g131
sba(imyEvolve
Tree
p735
(dp736
g11
(imyEvolve
Tree
p737
(dp738
g11
(imyEvolve
Tree
p739
(dp740
g11
(imyEvolve
Tree
p741
(dp742
g7
I1
sg8
(imyEvolve
Tree
p743
(dp744
g7
I0
sg29
F-0.3048052847127982
sg18
I01
sbsg19
(imyEvolve
Tree
p745
(dp746
g7
I0
sg18
I00
sbsg22
I00
sg23
g55
sbsg7
I2
sg22
I01
sg23
g60
sbsg7
I3
sg22
I01
sg23
g32
sbsg7
I4
sg22
I01
sg23
g131
sba(imyEvolve
Tree
p747
(dp748
g11
(imyEvolve
Tree
p749
(dp750
g11
(imyEvolve
Tree
p751
(dp752
g7
I2
sg8
(imyEvolve
Tree
p753
(dp754
g11
(imyEvolve
Tree
p755
(dp756
g7
I0
sg18
I00
sbsg7
I1
sg22
I01
sg23
g32
sbsg19
(imyEvolve
Tree
p757
(dp758
g7
I1
sg8
(imyEvolve
Tree
p759
(dp760
g7
I0
sg29
F-3.7843468800856006
sg18
I01
sbsg19
(imyEvolve
Tree
p761
(dp762
g7
I0
sg29
F-3.903938248583213
sg18
I01
sbsg22
I00
sg23
g55
sbsg22
I00
sg23
g24
sbsg7
I3
sg22
I01
sg23
g60
sbsg7
I4
sg22
I01
sg23
g30
sba(imyEvolve
Tree
p763
(dp764
g11
(imyEvolve
Tree
p765
(dp766
g11
(imyEvolve
Tree
p767
(dp768
g7
I2
sg8
(imyEvolve
Tree
p769
(dp770
g7
I1
sg8
(imyEvolve
Tree
p771
(dp772
g7
I0
sg29
F2.3668485036624043
sg18
I01
sbsg19
(imyEvolve
Tree
p773
(dp774
g7
I0
sg29
F0.22339158019860061
sg18
I01
sbsg22
I00
sg23
g24
sbsg19
(imyEvolve
Tree
p775
(dp776
g11
(imyEvolve
Tree
p777
(dp778
g7
I0
sg18
I00
sbsg7
I1
sg22
I01
sg23
g30
sbsg22
I00
sg23
g24
sbsg7
I3
sg22
I01
sg23
g131
sbsg7
I4
sg22
I01
sg23
g60
sbaa(lp779
(imyEvolve
Tree
p780
(dp781
g11
(imyEvolve
Tree
p782
(dp783
g11
(imyEvolve
Tree
p784
(dp785
g7
I1
sg8
(imyEvolve
Tree
p786
(dp787
g7
I0
sg18
I00
sbsg19
(imyEvolve
Tree
p788
(dp789
g7
I0
sg29
F-1.6305284561799716
sg18
I01
sbsg22
I00
sg23
g24
sbsg7
I2
sg22
I01
sg23
g32
sbsg7
I3
sg22
I01
sg23
g32
sba(imyEvolve
Tree
p790
(dp791
g7
I2
sg8
(imyEvolve
Tree
p792
(dp793
g7
I1
sg8
(imyEvolve
Tree
p794
(dp795
g7
I0
sg29
F1.5277624671932006
sg18
I01
sbsg19
(imyEvolve
Tree
p796
(dp797
g7
I0
sg18
I00
sbsg22
I00
sg23
g24
sbsg19
(imyEvolve
Tree
p798
(dp799
g11
(imyEvolve
Tree
p800
(dp801
g7
I0
sg18
I00
sbsg7
I1
sg22
I01
sg23
g30
sbsg22
I00
sg23
g31
sba(imyEvolve
Tree
p802
(dp803
g7
I3
sg8
(imyEvolve
Tree
p804
(dp805
g11
(imyEvolve
Tree
p806
(dp807
g11
(imyEvolve
Tree
p808
(dp809
g7
I0
sg18
I00
sbsg7
I1
sg22
I01
sg23
g60
sbsg7
I2
sg22
I01
sg23
g30
sbsg19
(imyEvolve
Tree
p810
(dp811
g7
I2
sg8
(imyEvolve
Tree
p812
(dp813
g11
(imyEvolve
Tree
p814
(dp815
g7
I0
sg18
I00
sbsg7
I1
sg22
I01
sg23
g30
sbsg19
(imyEvolve
Tree
p816
(dp817
g11
(imyEvolve
Tree
p818
(dp819
g7
I0
sg29
F0.29160464777672335
sg18
I01
sbsg7
I1
sg22
I01
sg23
g30
sbsg22
I00
sg23
g55
sbsg22
I00
sg23
g31
sba(imyEvolve
Tree
p820
(dp821
g11
(imyEvolve
Tree
p822
(dp823
g11
(imyEvolve
Tree
p824
(dp825
g7
I0
sg29
F0.8030020550995598
sg18
I01
sbsg7
I1
sg22
I01
sg23
g60
sbsg7
I2
sg22
I01
sg23
g60
sba(imyEvolve
Tree
p826
(dp827
g7
I2
sg8
(imyEvolve
Tree
p828
(dp829
g11
(imyEvolve
Tree
p830
(dp831
g7
I0
sg18
I00
sbsg7
I1
sg22
I01
sg23
g60
sbsg19
(imyEvolve
Tree
p832
(dp833
g11
(imyEvolve
Tree
p834
(dp835
g7
I0
sg18
I00
sbsg7
I1
sg22
I01
sg23
g60
sbsg22
I00
sg23
g55
sba(imyEvolve
Tree
p836
(dp837
g7
I2
sg8
(imyEvolve
Tree
p838
(dp839
g7
I1
sg8
(imyEvolve
Tree
p840
(dp841
g7
I0
sg18
I00
sbsg19
(imyEvolve
Tree
p842
(dp843
g7
I0
sg18
I00
sbsg22
I00
sg23
g31
sbsg19
(imyEvolve
Tree
p844
(dp845
g11
(imyEvolve
Tree
p846
(dp847
g7
I0
sg29
F2.6275169673679724
sg18
I01
sbsg7
I1
sg22
I01
sg23
g32
sbsg22
I00
sg23
g31
sba(imyEvolve
Tree
p848
(dp849
g11
(imyEvolve
Tree
p850
(dp851
g7
I2
sg8
(imyEvolve
Tree
p852
(dp853
g7
I1
sg8
(imyEvolve
Tree
p854
(dp855
g7
I0
sg18
I00
sbsg19
(imyEvolve
Tree
p856
(dp857
g7
I0
sg18
I00
sbsg22
I00
sg23
g24
sbsg19
(imyEvolve
Tree
p858
(dp859
g7
I1
sg8
(imyEvolve
Tree
p860
(dp861
g7
I0
sg18
I00
sbsg19
(imyEvolve
Tree
p862
(dp863
g7
I0
sg29
F-4.225958732392183
sg18
I01
sbsg22
I00
sg23
g55
sbsg22
I00
sg23
g31
sbsg7
I3
sg22
I01
sg23
g32
sba(imyEvolve
Tree
p864
(dp865
g11
(imyEvolve
Tree
p866
(dp867
g7
I3
sg8
(imyEvolve
Tree
p868
(dp869
g7
I2
sg8
(imyEvolve
Tree
p870
(dp871
g7
I1
sg8
(imyEvolve
Tree
p872
(dp873
g7
I0
sg18
I00
sbsg19
(imyEvolve
Tree
p874
(dp875
g7
I0
sg29
F-1.3405537123628108
sg18
I01
sbsg22
I00
sg23
g24
sbsg19
(imyEvolve
Tree
p876
(dp877
g7
I1
sg8
(imyEvolve
Tree
p878
(dp879
g7
I0
sg29
F-0.2000049459883062
sg18
I01
sbsg19
(imyEvolve
Tree
p880
(dp881
g7
I0
sg18
I00
sbsg22
I00
sg23
g55
sbsg22
I00
sg23
g24
sbsg19
(imyEvolve
Tree
p882
(dp883
g11
(imyEvolve
Tree
p884
(dp885
g7
I1
sg8
(imyEvolve
Tree
p886
(dp887
g7
I0
sg29
F4.6850869090658485
sg18
I01
sbsg19
(imyEvolve
Tree
p888
(dp889
g7
I0
sg18
I00
sbsg22
I00
sg23
g24
sbsg7
I2
sg22
I01
sg23
g32
sbsg22
I00
sg23
g24
sbsg7
I4
sg22
I01
sg23
g60
sba(imyEvolve
Tree
p890
(dp891
g7
I4
sg8
(imyEvolve
Tree
p892
(dp893
g11
(imyEvolve
Tree
p894
(dp895
g7
I2
sg8
(imyEvolve
Tree
p896
(dp897
g7
I1
sg8
(imyEvolve
Tree
p898
(dp899
g7
I0
sg29
F-3.741230303774236
sg18
I01
sbsg19
(imyEvolve
Tree
p900
(dp901
g7
I0
sg18
I00
sbsg22
I00
sg23
g24
sbsg19
(imyEvolve
Tree
p902
(dp903
g7
I1
sg8
(imyEvolve
Tree
p904
(dp905
g7
I0
sg29
F0.5217854475244641
sg18
I01
sbsg19
(imyEvolve
Tree
p906
(dp907
g7
I0
sg18
I00
sbsg22
I00
sg23
g31
sbsg22
I00
sg23
g24
sbsg7
I3
sg22
I01
sg23
g30
sbsg19
(imyEvolve
Tree
p908
(dp909
g11
(imyEvolve
Tree
p910
(dp911
g11
(imyEvolve
Tree
p912
(dp913
g11
(imyEvolve
Tree
p914
(dp915
g7
I0
sg18
I00
sbsg7
I1
sg22
I01
sg23
g30
sbsg7
I2
sg22
I01
sg23
g131
sbsg7
I3
sg22
I01
sg23
g30
sbsg22
I00
sg23
g24
sba(imyEvolve
Tree
p916
(dp917
g7
I5
sg8
(imyEvolve
Tree
p918
(dp919
g7
I4
sg8
(imyEvolve
Tree
p920
(dp921
g11
(imyEvolve
Tree
p922
(dp923
g7
I2
sg8
(imyEvolve
Tree
p924
(dp925
g11
(imyEvolve
Tree
p926
(dp927
g7
I0
sg18
I00
sbsg7
I1
sg22
I01
sg23
g131
sbsg19
(imyEvolve
Tree
p928
(dp929
g11
(imyEvolve
Tree
p930
(dp931
g7
I0
sg29
F4.983996583336049
sg18
I01
sbsg7
I1
sg22
I01
sg23
g30
sbsg22
I00
sg23
g31
sbsg7
I3
sg22
I01
sg23
g32
sbsg19
(imyEvolve
Tree
p932
(dp933
g7
I3
sg8
(imyEvolve
Tree
p934
(dp935
g7
I2
sg8
(imyEvolve
Tree
p936
(dp937
g7
I1
sg8
(imyEvolve
Tree
p938
(dp939
g7
I0
sg29
F2.6980699766138976
sg18
I01
sbsg19
(imyEvolve
Tree
p940
(dp941
g7
I0
sg18
I00
sbsg22
I00
sg23
g55
sbsg19
(imyEvolve
Tree
p942
(dp943
g11
(imyEvolve
Tree
p944
(dp945
g7
I0
sg29
F1.2874892656535248
sg18
I01
sbsg7
I1
sg22
I01
sg23
g131
sbsg22
I00
sg23
g31
sbsg19
(imyEvolve
Tree
p946
(dp947
g7
I2
sg8
(imyEvolve
Tree
p948
(dp949
g11
(imyEvolve
Tree
p950
(dp951
g7
I0
sg29
F3.868586197408911
sg18
I01
sbsg7
I1
sg22
I01
sg23
g60
sbsg19
(imyEvolve
Tree
p952
(dp953
g11
(imyEvolve
Tree
p954
(dp955
g7
I0
sg18
I00
sbsg7
I1
sg22
I01
sg23
g32
sbsg22
I00
sg23
g31
sbsg22
I00
sg23
g31
sbsg22
I00
sg23
g24
sbsg19
(imyEvolve
Tree
p956
(dp957
g11
(imyEvolve
Tree
p958
(dp959
g11
(imyEvolve
Tree
p960
(dp961
g11
(imyEvolve
Tree
p962
(dp963
g7
I1
sg8
(imyEvolve
Tree
p964
(dp965
g7
I0
sg18
I00
sbsg19
(imyEvolve
Tree
p966
(dp967
g7
I0
sg29
F-0.38092813435005723
sg18
I01
sbsg22
I00
sg23
g24
sbsg7
I2
sg22
I01
sg23
g32
sbsg7
I3
sg22
I01
sg23
g30
sbsg7
I4
sg22
I01
sg23
g60
sbsg22
I00
sg23
g55
sba(imyEvolve
Tree
p968
(dp969
g11
(imyEvolve
Tree
p970
(dp971
g11
(imyEvolve
Tree
p972
(dp973
g11
(imyEvolve
Tree
p974
(dp975
g11
(imyEvolve
Tree
p976
(dp977
g7
I0
sg29
F-3.8200175779030863
sg18
I01
sbsg7
I1
sg22
I01
sg23
g60
sbsg7
I2
sg22
I01
sg23
g60
sbsg7
I3
sg22
I01
sg23
g30
sbsg7
I4
sg22
I01
sg23
g30
sba(imyEvolve
Tree
p978
(dp979
g11
(imyEvolve
Tree
p980
(dp981
g11
(imyEvolve
Tree
p982
(dp983
g11
(imyEvolve
Tree
p984
(dp985
g7
I1
sg8
(imyEvolve
Tree
p986
(dp987
g7
I0
sg18
I00
sbsg19
(imyEvolve
Tree
p988
(dp989
g7
I0
sg18
I00
sbsg22
I00
sg23
g24
sbsg7
I2
sg22
I01
sg23
g30
sbsg7
I3
sg22
I01
sg23
g32
sbsg7
I4
sg22
I01
sg23
g60
sba(imyEvolve
Tree
p990
(dp991
g11
(imyEvolve
Tree
p992
(dp993
g11
(imyEvolve
Tree
p994
(dp995
g11
(imyEvolve
Tree
p996
(dp997
g7
I2
sg8
(imyEvolve
Tree
p998
(dp999
g7
I1
sg8
(imyEvolve
Tree
p1000
(dp1001
g7
I0
sg18
I00
sbsg19
(imyEvolve
Tree
p1002
(dp1003
g7
I0
sg29
F-3.366086034403363
sg18
I01
sbsg22
I00
sg23
g24
sbsg19
(imyEvolve
Tree
p1004
(dp1005
g7
I1
sg8
(imyEvolve
Tree
p1006
(dp1007
g7
I0
sg29
F-1.468320055042962
sg18
I01
sbsg19
(imyEvolve
Tree
p1008
(dp1009
g7
I0
sg18
I00
sbsg22
I00
sg23
g31
sbsg22
I00
sg23
g55
sbsg7
I3
sg22
I01
sg23
g131
sbsg7
I4
sg22
I01
sg23
g32
sbsg7
I5
sg22
I01
sg23
g131
sbaa(lp1010
(imyEvolve
Tree
p1011
(dp1012
g7
I3
sg8
(imyEvolve
Tree
p1013
(dp1014
g7
I2
sg8
(imyEvolve
Tree
p1015
(dp1016
g7
I1
sg8
(imyEvolve
Tree
p1017
(dp1018
g7
I0
sg18
I00
sbsg19
(imyEvolve
Tree
p1019
(dp1020
g7
I0
sg29
F-4.997501072973485
sg18
I01
sbsg22
I00
sg23
g55
sbsg19
(imyEvolve
Tree
p1021
(dp1022
g11
(imyEvolve
Tree
p1023
(dp1024
g7
I0
sg29
F-3.3270870859472614
sg18
I01
sbsg7
I1
sg22
I01
sg23
g131
sbsg22
I00
sg23
g31
sbsg19
(imyEvolve
Tree
p1025
(dp1026
g7
I2
sg8
(imyEvolve
Tree
p1027
(dp1028
g7
I1
sg8
(imyEvolve
Tree
p1029
(dp1030
g7
I0
sg18
I00
sbsg19
(imyEvolve
Tree
p1031
(dp1032
g7
I0
sg18
I00
sbsg22
I00
sg23
g24
sbsg19
(imyEvolve
Tree
p1033
(dp1034
g7
I1
sg8
(imyEvolve
Tree
p1035
(dp1036
g7
I0
sg29
F-0.7221054635911495
sg18
I01
sbsg19
(imyEvolve
Tree
p1037
(dp1038
g7
I0
sg18
I00
sbsg22
I00
sg23
g55
sbsg22
I00
sg23
g55
sbsg22
I00
sg23
g55
sba(imyEvolve
Tree
p1039
(dp1040
g7
I4
sg8
(imyEvolve
Tree
p1041
(dp1042
g11
(imyEvolve
Tree
p1043
(dp1044
g11
(imyEvolve
Tree
p1045
(dp1046
g11
(imyEvolve
Tree
p1047
(dp1048
g7
I0
sg29
F-4.043608084983563
sg18
I01
sbsg7
I1
sg22
I01
sg23
g32
sbsg7
I2
sg22
I01
sg23
g131
sbsg7
I3
sg22
I01
sg23
g131
sbsg19
(imyEvolve
Tree
p1049
(dp1050
g11
(imyEvolve
Tree
p1051
(dp1052
g7
I2
sg8
(imyEvolve
Tree
p1053
(dp1054
g7
I1
sg8
(imyEvolve
Tree
p1055
(dp1056
g7
I0
sg18
I00
sbsg19
(imyEvolve
Tree
p1057
(dp1058
g7
I0
sg18
I00
sbsg22
I00
sg23
g55
sbsg19
(imyEvolve
Tree
p1059
(dp1060
g7
I1
sg8
(imyEvolve
Tree
p1061
(dp1062
g7
I0
sg29
F-0.927427951066969
sg18
I01
sbsg19
(imyEvolve
Tree
p1063
(dp1064
g7
I0
sg18
I00
sbsg22
I00
sg23
g31
sbsg22
I00
sg23
g55
sbsg7
I3
sg22
I01
sg23
g32
sbsg22
I00
sg23
g55
sba(imyEvolve
Tree
p1065
(dp1066
g7
I3
sg8
(imyEvolve
Tree
p1067
(dp1068
g11
(imyEvolve
Tree
p1069
(dp1070
g11
(imyEvolve
Tree
p1071
(dp1072
g7
I0
sg18
I00
sbsg7
I1
sg22
I01
sg23
g60
sbsg7
I2
sg22
I01
sg23
g60
sbsg19
(imyEvolve
Tree
p1073
(dp1074
g7
I2
sg8
(imyEvolve
Tree
p1075
(dp1076
g7
I1
sg8
(imyEvolve
Tree
p1077
(dp1078
g7
I0
sg29
F-2.42746896376684
sg18
I01
sbsg19
(imyEvolve
Tree
p1079
(dp1080
g7
I0
sg29
F-0.6873562886374227
sg18
I01
sbsg22
I00
sg23
g24
sbsg19
(imyEvolve
Tree
p1081
(dp1082
g7
I1
sg8
(imyEvolve
Tree
p1083
(dp1084
g7
I0
sg29
F-3.9119340914902034
sg18
I01
sbsg19
(imyEvolve
Tree
p1085
(dp1086
g7
I0
sg18
I00
sbsg22
I00
sg23
g24
sbsg22
I00
sg23
g31
sbsg22
I00
sg23
g24
sba(imyEvolve
Tree
p1087
(dp1088
g7
I2
sg8
(imyEvolve
Tree
p1089
(dp1090
g7
I1
sg8
(imyEvolve
Tree
p1091
(dp1092
g7
I0
sg29
F0.8425290952838873
sg18
I01
sbsg19
(imyEvolve
Tree
p1093
(dp1094
g7
I0
sg18
I00
sbsg22
I00
sg23
g55
sbsg19
(imyEvolve
Tree
p1095
(dp1096
g11
(imyEvolve
Tree
p1097
(dp1098
g7
I0
sg29
F3.795850769938287
sg18
I01
sbsg7
I1
sg22
I01
sg23
g32
sbsg22
I00
sg23
g55
sba(imyEvolve
Tree
p1099
(dp1100
g7
I5
sg8
(imyEvolve
Tree
p1101
(dp1102
g7
I4
sg8
(imyEvolve
Tree
p1103
(dp1104
g11
(imyEvolve
Tree
p1105
(dp1106
g11
(imyEvolve
Tree
p1107
(dp1108
g11
(imyEvolve
Tree
p1109
(dp1110
g7
I0
sg18
I00
sbsg7
I1
sg22
I01
sg23
g60
sbsg7
I2
sg22
I01
sg23
g131
sbsg7
I3
sg22
I01
sg23
g131
sbsg19
(imyEvolve
Tree
p1111
(dp1112
g11
(imyEvolve
Tree
p1113
(dp1114
g7
I2
sg8
(imyEvolve
Tree
p1115
(dp1116
g11
(imyEvolve
Tree
p1117
(dp1118
g7
I0
sg29
F3.294118229560766
sg18
I01
sbsg7
I1
sg22
I01
sg23
g131
sbsg19
(imyEvolve
Tree
p1119
(dp1120
g11
(imyEvolve
Tree
p1121
(dp1122
g7
I0
sg18
I00
sbsg7
I1
sg22
I01
sg23
g32
sbsg22
I00
sg23
g31
sbsg7
I3
sg22
I01
sg23
g131
sbsg22
I00
sg23
g55
sbsg19
(imyEvolve
Tree
p1123
(dp1124
g11
(imyEvolve
Tree
p1125
(dp1126
g7
I3
sg8
(imyEvolve
Tree
p1127
(dp1128
g11
(imyEvolve
Tree
p1129
(dp1130
g11
(imyEvolve
Tree
p1131
(dp1132
g7
I0
sg29
F-1.7937132317018833
sg18
I01
sbsg7
I1
sg22
I01
sg23
g60
sbsg7
I2
sg22
I01
sg23
g60
sbsg19
(imyEvolve
Tree
p1133
(dp1134
g7
I2
sg8
(imyEvolve
Tree
p1135
(dp1136
g11
(imyEvolve
Tree
p1137
(dp1138
g7
I0
sg18
I00
sbsg7
I1
sg22
I01
sg23
g30
sbsg19
(imyEvolve
Tree
p1139
(dp1140
g7
I1
sg8
(imyEvolve
Tree
p1141
(dp1142
g7
I0
sg29
F-2.7184988192424706
sg18
I01
sbsg19
(imyEvolve
Tree
p1143
(dp1144
g7
I0
sg18
I00
sbsg22
I00
sg23
g24
sbsg22
I00
sg23
g24
sbsg22
I00
sg23
g24
sbsg7
I4
sg22
I01
sg23
g30
sbsg22
I00
sg23
g24
sba(imyEvolve
Tree
p1145
(dp1146
g11
(imyEvolve
Tree
p1147
(dp1148
g11
(imyEvolve
Tree
p1149
(dp1150
g7
I0
sg29
F1.3848781379503379
sg18
I01
sbsg7
I1
sg22
I01
sg23
g131
sbsg7
I2
sg22
I01
sg23
g32
sba(imyEvolve
Tree
p1151
(dp1152
g11
(imyEvolve
Tree
p1153
(dp1154
g7
I3
sg8
(imyEvolve
Tree
p1155
(dp1156
g7
I2
sg8
(imyEvolve
Tree
p1157
(dp1158
g7
I1
sg8
(imyEvolve
Tree
p1159
(dp1160
g7
I0
sg18
I00
sbsg19
(imyEvolve
Tree
p1161
(dp1162
g7
I0
sg29
F-1.619662413567374
sg18
I01
sbsg22
I00
sg23
g55
sbsg19
(imyEvolve
Tree
p1163
(dp1164
g11
(imyEvolve
Tree
p1165
(dp1166
g7
I0
sg18
I00
sbsg7
I1
sg22
I01
sg23
g30
sbsg22
I00
sg23
g24
sbsg19
(imyEvolve
Tree
p1167
(dp1168
g7
I2
sg8
(imyEvolve
Tree
p1169
(dp1170
g11
(imyEvolve
Tree
p1171
(dp1172
g7
I0
sg18
I00
sbsg7
I1
sg22
I01
sg23
g60
sbsg19
(imyEvolve
Tree
p1173
(dp1174
g11
(imyEvolve
Tree
p1175
(dp1176
g7
I0
sg29
F-3.3548820398322166
sg18
I01
sbsg7
I1
sg22
I01
sg23
g30
sbsg22
I00
sg23
g31
sbsg22
I00
sg23
g31
sbsg7
I4
sg22
I01
sg23
g30
sba(imyEvolve
Tree
p1177
(dp1178
g7
I3
sg8
(imyEvolve
Tree
p1179
(dp1180
g7
I2
sg8
(imyEvolve
Tree
p1181
(dp1182
g7
I1
sg8
(imyEvolve
Tree
p1183
(dp1184
g7
I0
sg29
F-2.1886297106184625
sg18
I01
sbsg19
(imyEvolve
Tree
p1185
(dp1186
g7
I0
sg29
F4.000094695511166
sg18
I01
sbsg22
I00
sg23
g24
sbsg19
(imyEvolve
Tree
p1187
(dp1188
g11
(imyEvolve
Tree
p1189
(dp1190
g7
I0
sg29
F-0.25468045863726374
sg18
I01
sbsg7
I1
sg22
I01
sg23
g60
sbsg22
I00
sg23
g24
sbsg19
(imyEvolve
Tree
p1191
(dp1192
g11
(imyEvolve
Tree
p1193
(dp1194
g11
(imyEvolve
Tree
p1195
(dp1196
g7
I0
sg18
I00
sbsg7
I1
sg22
I01
sg23
g131
sbsg7
I2
sg22
I01
sg23
g131
sbsg22
I00
sg23
g31
sba(imyEvolve
Tree
p1197
(dp1198
g7
I3
sg8
(imyEvolve
Tree
p1199
(dp1200
g7
I2
sg8
(imyEvolve
Tree
p1201
(dp1202
g11
(imyEvolve
Tree
p1203
(dp1204
g7
I0
sg29
F0.8060968254655521
sg18
I01
sbsg7
I1
sg22
I01
sg23
g60
sbsg19
(imyEvolve
Tree
p1205
(dp1206
g7
I1
sg8
(imyEvolve
Tree
p1207
(dp1208
g7
I0
sg18
I00
sbsg19
(imyEvolve
Tree
p1209
(dp1210
g7
I0
sg29
F2.305229893461749
sg18
I01
sbsg22
I00
sg23
g55
sbsg22
I00
sg23
g55
sbsg19
(imyEvolve
Tree
p1211
(dp1212
g7
I2
sg8
(imyEvolve
Tree
p1213
(dp1214
g11
(imyEvolve
Tree
p1215
(dp1216
g7
I0
sg18
I00
sbsg7
I1
sg22
I01
sg23
g60
sbsg19
(imyEvolve
Tree
p1217
(dp1218
g7
I1
sg8
(imyEvolve
Tree
p1219
(dp1220
g7
I0
sg18
I00
sbsg19
(imyEvolve
Tree
p1221
(dp1222
g7
I0
sg18
I00
sbsg22
I00
sg23
g55
sbsg22
I00
sg23
g24
sbsg22
I00
sg23
g55
sba(imyEvolve
Tree
p1223
(dp1224
g7
I2
sg8
(imyEvolve
Tree
p1225
(dp1226
g7
I1
sg8
(imyEvolve
Tree
p1227
(dp1228
g7
I0
sg18
I00
sbsg19
(imyEvolve
Tree
p1229
(dp1230
g7
I0
sg18
I00
sbsg22
I00
sg23
g31
sbsg19
(imyEvolve
Tree
p1231
(dp1232
g11
(imyEvolve
Tree
p1233
(dp1234
g7
I0
sg18
I00
sbsg7
I1
sg22
I01
sg23
g32
sbsg22
I00
sg23
g24
sba(imyEvolve
Tree
p1235
(dp1236
g11
(imyEvolve
Tree
p1237
(dp1238
g7
I1
sg8
(imyEvolve
Tree
p1239
(dp1240
g7
I0
sg18
I00
sbsg19
(imyEvolve
Tree
p1241
(dp1242
g7
I0
sg29
F1.1084178970931848
sg18
I01
sbsg22
I00
sg23
g55
sbsg7
I2
sg22
I01
sg23
g30
sba(imyEvolve
Tree
p1243
(dp1244
g11
(imyEvolve
Tree
p1245
(dp1246
g11
(imyEvolve
Tree
p1247
(dp1248
g7
I0
sg18
I00
sbsg7
I1
sg22
I01
sg23
g32
sbsg7
I2
sg22
I01
sg23
g60
sba(imyEvolve
Tree
p1249
(dp1250
g11
(imyEvolve
Tree
p1251
(dp1252
g7
I2
sg8
(imyEvolve
Tree
p1253
(dp1254
g7
I1
sg8
(imyEvolve
Tree
p1255
(dp1256
g7
I0
sg18
I00
sbsg19
(imyEvolve
Tree
p1257
(dp1258
g7
I0
sg29
F2.7481789610963405
sg18
I01
sbsg22
I00
sg23
g55
sbsg19
(imyEvolve
Tree
p1259
(dp1260
g7
I1
sg8
(imyEvolve
Tree
p1261
(dp1262
g7
I0
sg18
I00
sbsg19
(imyEvolve
Tree
p1263
(dp1264
g7
I0
sg18
I00
sbsg22
I00
sg23
g31
sbsg22
I00
sg23
g24
sbsg7
I3
sg22
I01
sg23
g30
sba(imyEvolve
Tree
p1265
(dp1266
g7
I5
sg8
(imyEvolve
Tree
p1267
(dp1268
g7
I4
sg8
(imyEvolve
Tree
p1269
(dp1270
g11
(imyEvolve
Tree
p1271
(dp1272
g11
(imyEvolve
Tree
p1273
(dp1274
g7
I1
sg8
(imyEvolve
Tree
p1275
(dp1276
g7
I0
sg29
F-4.791931429728649
sg18
I01
sbsg19
(imyEvolve
Tree
p1277
(dp1278
g7
I0
sg29
F-0.26218643555842114
sg18
I01
sbsg22
I00
sg23
g55
sbsg7
I2
sg22
I01
sg23
g131
sbsg7
I3
sg22
I01
sg23
g131
sbsg19
(imyEvolve
Tree
p1279
(dp1280
g11
(imyEvolve
Tree
p1281
(dp1282
g11
(imyEvolve
Tree
p1283
(dp1284
g7
I1
sg8
(imyEvolve
Tree
p1285
(dp1286
g7
I0
sg18
I00
sbsg19
(imyEvolve
Tree
p1287
(dp1288
g7
I0
sg29
F-4.987281399745908
sg18
I01
sbsg22
I00
sg23
g24
sbsg7
I2
sg22
I01
sg23
g32
sbsg7
I3
sg22
I01
sg23
g60
sbsg22
I00
sg23
g31
sbsg19
(imyEvolve
Tree
p1289
(dp1290
g11
(imyEvolve
Tree
p1291
(dp1292
g7
I3
sg8
(imyEvolve
Tree
p1293
(dp1294
g11
(imyEvolve
Tree
p1295
(dp1296
g11
(imyEvolve
Tree
p1297
(dp1298
g7
I0
sg29
F-4.237154613942407
sg18
I01
sbsg7
I1
sg22
I01
sg23
g131
sbsg7
I2
sg22
I01
sg23
g30
sbsg19
(imyEvolve
Tree
p1299
(dp1300
g11
(imyEvolve
Tree
p1301
(dp1302
g7
I1
sg8
(imyEvolve
Tree
p1303
(dp1304
g7
I0
sg18
I00
sbsg19
(imyEvolve
Tree
p1305
(dp1306
g7
I0
sg18
I00
sbsg22
I00
sg23
g55
sbsg7
I2
sg22
I01
sg23
g131
sbsg22
I00
sg23
g31
sbsg7
I4
sg22
I01
sg23
g131
sbsg22
I00
sg23
g31
sba(imyEvolve
Tree
p1307
(dp1308
g7
I3
sg8
(imyEvolve
Tree
p1309
(dp1310
g7
I2
sg8
(imyEvolve
Tree
p1311
(dp1312
g11
(imyEvolve
Tree
p1313
(dp1314
g7
I0
sg18
I00
sbsg7
I1
sg22
I01
sg23
g60
sbsg19
(imyEvolve
Tree
p1315
(dp1316
g11
(imyEvolve
Tree
p1317
(dp1318
g7
I0
sg18
I00
sbsg7
I1
sg22
I01
sg23
g32
sbsg22
I00
sg23
g55
sbsg19
(imyEvolve
Tree
p1319
(dp1320
g7
I2
sg8
(imyEvolve
Tree
p1321
(dp1322
g11
(imyEvolve
Tree
p1323
(dp1324
g7
I0
sg29
F-2.8852778041581484
sg18
I01
sbsg7
I1
sg22
I01
sg23
g32
sbsg19
(imyEvolve
Tree
p1325
(dp1326
g11
(imyEvolve
Tree
p1327
(dp1328
g7
I0
sg29
F1.3386126655828363
sg18
I01
sbsg7
I1
sg22
I01
sg23
g131
sbsg22
I00
sg23
g31
sbsg22
I00
sg23
g24
sba(imyEvolve
Tree
p1329
(dp1330
g11
(imyEvolve
Tree
p1331
(dp1332
g11
(imyEvolve
Tree
p1333
(dp1334
g7
I3
sg8
(imyEvolve
Tree
p1335
(dp1336
g7
I2
sg8
(imyEvolve
Tree
p1337
(dp1338
g7
I1
sg8
(imyEvolve
Tree
p1339
(dp1340
g7
I0
sg29
F3.2660797727337005
sg18
I01
sbsg19
(imyEvolve
Tree
p1341
(dp1342
g7
I0
sg18
I00
sbsg22
I00
sg23
g55
sbsg19
(imyEvolve
Tree
p1343
(dp1344
g11
(imyEvolve
Tree
p1345
(dp1346
g7
I0
sg18
I00
sbsg7
I1
sg22
I01
sg23
g131
sbsg22
I00
sg23
g31
sbsg19
(imyEvolve
Tree
p1347
(dp1348
g11
(imyEvolve
Tree
p1349
(dp1350
g11
(imyEvolve
Tree
p1351
(dp1352
g7
I0
sg18
I00
sbsg7
I1
sg22
I01
sg23
g32
sbsg7
I2
sg22
I01
sg23
g30
sbsg22
I00
sg23
g55
sbsg7
I4
sg22
I01
sg23
g131
sbsg7
I5
sg22
I01
sg23
g131
sbaasS'weightSharing'
p1353
(lp1354
I00
aI00
asS'fitnessValid'
p1355
I00
sS'fitness'
p1356
cnumpy.core.multiarray
scalar
p1357
(cnumpy
dtype
p1358
(S'f8'
p1359
I0
I1
tp1360
Rp1361
(I3
S'<'
p1362
NNNI-1
I-1
I0
tp1363
bS'\x00X\xd3\xbc\xbb\xb4>?'
p1364
tp1365
Rp1366
sS'alpha'
p1367
F0.005952846748837611
sS'resolution'
p1368
I46
sb.