(imyEvolve
Individual
p0
(dp1
S'funcs'
p2
(lp3
(lp4
(imyEvolve
Tree
p5
(dp6
S'left'
p7
(imyEvolve
Tree
p8
(dp9
g7
(imyEvolve
Tree
p10
(dp11
S'depth'
p12
I0
sS'isConstant'
p13
I00
sbsg12
I1
sS'right'
p14
(imyEvolve
Tree
p15
(dp16
g12
I0
sS'constant'
p17
F-0.6423909509239181
sg13
I01
sbsS'single'
p18
I00
sS'op'
p19
coperator
add
p20
sbsg12
I2
sg14
(imyEvolve
Tree
p21
(dp22
S'below'
p23
(imyEvolve
Tree
p24
(dp25
g12
I0
sg17
F2.5151644275100367
sg13
I01
sbsg12
I1
sg18
I01
sg19
cmath
sin
p26
sbsg18
I00
sg19
coperator
mul
p27
sba(imyEvolve
Tree
p28
(dp29
g23
(imyEvolve
Tree
p30
(dp31
g7
(imyEvolve
Tree
p32
(dp33
g23
(imyEvolve
Tree
p34
(dp35
g12
I0
sg17
F-0.7573524128027485
sg13
I01
sbsg12
I1
sg18
I01
sg19
g26
sbsg12
I2
sg14
(imyEvolve
Tree
p36
(dp37
g7
(imyEvolve
Tree
p38
(dp39
g12
I0
sg17
F-0.4033370162106902
sg13
I01
sbsg12
I1
sg14
(imyEvolve
Tree
p40
(dp41
g12
I0
sg17
F0.9046919294210376
sg13
I01
sbsg18
I00
sg19
g27
sbsg18
I00
sg19
g20
sbsg12
I3
sg18
I01
sg19
g26
sba(imyEvolve
Tree
p42
(dp43
g7
(imyEvolve
Tree
p44
(dp45
g7
(imyEvolve
Tree
p46
(dp47
g12
I0
sg13
I00
sbsg12
I1
sg14
(imyEvolve
Tree
p48
(dp49
g12
I0
sg13
I00
sbsg18
I00
sg19
g27
sbsg12
I2
sg14
(imyEvolve
Tree
p50
(dp51
g7
(imyEvolve
Tree
p52
(dp53
g12
I0
sg13
I00
sbsg12
I1
sg14
(imyEvolve
Tree
p54
(dp55
g12
I0
sg17
F-4.8141481444790815
sg13
I01
sbsg18
I00
sg19
g20
sbsg18
I00
sg19
coperator
sub
p56
sba(imyEvolve
Tree
p57
(dp58
g7
(imyEvolve
Tree
p59
(dp60
g7
(imyEvolve
Tree
p61
(dp62
g23
(imyEvolve
Tree
p63
(dp64
g7
(imyEvolve
Tree
p65
(dp66
g23
(imyEvolve
Tree
p67
(dp68
g12
I0
sg17
F-1.4627284152354947
sg13
I01
sbsg12
I1
sg18
I01
sg19
cmyEvolve
absSqrt
p69
sbsg12
I2
sg14
(imyEvolve
Tree
p70
(dp71
g7
(imyEvolve
Tree
p72
(dp73
g12
I0
sg13
I00
sbsg12
I1
sg14
(imyEvolve
Tree
p74
(dp75
g12
I0
sg13
I00
sbsg18
I00
sg19
g27
sbsg18
I00
sg19
g27
sbsg12
I3
sg18
I01
sg19
g69
sbsg12
I4
sg14
(imyEvolve
Tree
p76
(dp77
g23
(imyEvolve
Tree
p78
(dp79
g7
(imyEvolve
Tree
p80
(dp81
g23
(imyEvolve
Tree
p82
(dp83
g12
I0
sg17
F-4.178526413143969
sg13
I01
sbsg12
I1
sg18
I01
sg19
g69
sbsg12
I2
sg14
(imyEvolve
Tree
p84
(dp85
g7
(imyEvolve
Tree
p86
(dp87
g12
I0
sg17
F-0.3947798601193728
sg13
I01
sbsg12
I1
sg14
(imyEvolve
Tree
p88
(dp89
g12
I0
sg17
F-3.688284187974149
sg13
I01
sbsg18
I00
sg19
g27
sbsg18
I00
sg19
g27
sbsg12
I3
sg18
I01
sg19
g26
sbsg18
I00
sg19
g56
sbsg12
I5
sg14
(imyEvolve
Tree
p90
(dp91
g7
(imyEvolve
Tree
p92
(dp93
g23
(imyEvolve
Tree
p94
(dp95
g7
(imyEvolve
Tree
p96
(dp97
g23
(imyEvolve
Tree
p98
(dp99
g12
I0
sg13
I00
sbsg12
I1
sg18
I01
sg19
cmyEvolve
square
p100
sbsg12
I2
sg14
(imyEvolve
Tree
p101
(dp102
g7
(imyEvolve
Tree
p103
(dp104
g12
I0
sg13
I00
sbsg12
I1
sg14
(imyEvolve
Tree
p105
(dp106
g12
I0
sg13
I00
sbsg18
I00
sg19
g27
sbsg18
I00
sg19
g20
sbsg12
I3
sg18
I01
sg19
g100
sbsg12
I4
sg14
(imyEvolve
Tree
p107
(dp108
g7
(imyEvolve
Tree
p109
(dp110
g23
(imyEvolve
Tree
p111
(dp112
g7
(imyEvolve
Tree
p113
(dp114
g12
I0
sg17
F3.435970457466368
sg13
I01
sbsg12
I1
sg14
(imyEvolve
Tree
p115
(dp116
g12
I0
sg17
F-1.8967526745248176
sg13
I01
sbsg18
I00
sg19
g56
sbsg12
I2
sg18
I01
sg19
cmath
cos
p117
sbsg12
I3
sg14
(imyEvolve
Tree
p118
(dp119
g7
(imyEvolve
Tree
p120
(dp121
g7
(imyEvolve
Tree
p122
(dp123
g12
I0
sg13
I00
sbsg12
I1
sg14
(imyEvolve
Tree
p124
(dp125
g12
I0
sg13
I00
sbsg18
I00
sg19
g20
sbsg12
I2
sg14
(imyEvolve
Tree
p126
(dp127
g7
(imyEvolve
Tree
p128
(dp129
g12
I0
sg17
F-4.261280436482378
sg13
I01
sbsg12
I1
sg14
(imyEvolve
Tree
p130
(dp131
g12
I0
sg13
I00
sbsg18
I00
sg19
g20
sbsg18
I00
sg19
g27
sbsg18
I00
sg19
g56
sbsg18
I00
sg19
g20
sbsg18
I00
sg19
g56
sba(imyEvolve
Tree
p132
(dp133
g23
(imyEvolve
Tree
p134
(dp135
g7
(imyEvolve
Tree
p136
(dp137
g7
(imyEvolve
Tree
p138
(dp139
g23
(imyEvolve
Tree
p140
(dp141
g23
(imyEvolve
Tree
p142
(dp143
g12
I0
sg13
I00
sbsg12
I1
sg18
I01
sg19
g26
sbsg12
I2
sg18
I01
sg19
g69
sbsg12
I3
sg14
(imyEvolve
Tree
p144
(dp145
g7
(imyEvolve
Tree
p146
(dp147
g23
(imyEvolve
Tree
p148
(dp149
g12
I0
sg17
F1.6332381595393155
sg13
I01
sbsg12
I1
sg18
I01
sg19
g69
sbsg12
I2
sg14
(imyEvolve
Tree
p150
(dp151
g23
(imyEvolve
Tree
p152
(dp153
g12
I0
sg13
I00
sbsg12
I1
sg18
I01
sg19
g100
sbsg18
I00
sg19
g20
sbsg18
I00
sg19
g20
sbsg12
I4
sg14
(imyEvolve
Tree
p154
(dp155
g23
(imyEvolve
Tree
p156
(dp157
g7
(imyEvolve
Tree
p158
(dp159
g7
(imyEvolve
Tree
p160
(dp161
g12
I0
sg17
F4.8524345854550965
sg13
I01
sbsg12
I1
sg14
(imyEvolve
Tree
p162
(dp163
g12
I0
sg17
F0.8169634613320884
sg13
I01
sbsg18
I00
sg19
g27
sbsg12
I2
sg14
(imyEvolve
Tree
p164
(dp165
g23
(imyEvolve
Tree
p166
(dp167
g12
I0
sg13
I00
sbsg12
I1
sg18
I01
sg19
g100
sbsg18
I00
sg19
g56
sbsg12
I3
sg18
I01
sg19
g26
sbsg18
I00
sg19
g27
sbsg12
I5
sg18
I01
sg19
g100
sba(imyEvolve
Tree
p168
(dp169
g23
(imyEvolve
Tree
p170
(dp171
g7
(imyEvolve
Tree
p172
(dp173
g12
I0
sg13
I00
sbsg12
I1
sg14
(imyEvolve
Tree
p174
(dp175
g12
I0
sg13
I00
sbsg18
I00
sg19
g56
sbsg12
I2
sg18
I01
sg19
g26
sba(imyEvolve
Tree
p176
(dp177
g7
(imyEvolve
Tree
p178
(dp179
g23
(imyEvolve
Tree
p180
(dp181
g7
(imyEvolve
Tree
p182
(dp183
g23
(imyEvolve
Tree
p184
(dp185
g7
(imyEvolve
Tree
p186
(dp187
g12
I0
sg13
I00
sbsg12
I1
sg14
(imyEvolve
Tree
p188
(dp189
g12
I0
sg17
F-3.280107237908949
sg13
I01
sbsg18
I00
sg19
g20
sbsg12
I2
sg18
I01
sg19
g100
sbsg12
I3
sg14
(imyEvolve
Tree
p190
(dp191
g7
(imyEvolve
Tree
p192
(dp193
g23
(imyEvolve
Tree
p194
(dp195
g12
I0
sg13
I00
sbsg12
I1
sg18
I01
sg19
g69
sbsg12
I2
sg14
(imyEvolve
Tree
p196
(dp197
g23
(imyEvolve
Tree
p198
(dp199
g12
I0
sg13
I00
sbsg12
I1
sg18
I01
sg19
g100
sbsg18
I00
sg19
g20
sbsg18
I00
sg19
g20
sbsg12
I4
sg18
I01
sg19
g100
sbsg12
I5
sg14
(imyEvolve
Tree
p200
(dp201
g7
(imyEvolve
Tree
p202
(dp203
g7
(imyEvolve
Tree
p204
(dp205
g23
(imyEvolve
Tree
p206
(dp207
g23
(imyEvolve
Tree
p208
(dp209
g12
I0
sg17
F0.21132415384433134
sg13
I01
sbsg12
I1
sg18
I01
sg19
g69
sbsg12
I2
sg18
I01
sg19
g117
sbsg12
I3
sg14
(imyEvolve
Tree
p210
(dp211
g7
(imyEvolve
Tree
p212
(dp213
g7
(imyEvolve
Tree
p214
(dp215
g12
I0
sg13
I00
sbsg12
I1
sg14
(imyEvolve
Tree
p216
(dp217
g12
I0
sg13
I00
sbsg18
I00
sg19
g27
sbsg12
I2
sg14
(imyEvolve
Tree
p218
(dp219
g7
(imyEvolve
Tree
p220
(dp221
g12
I0
sg13
I00
sbsg12
I1
sg14
(imyEvolve
Tree
p222
(dp223
g12
I0
sg13
I00
sbsg18
I00
sg19
g27
sbsg18
I00
sg19
g20
sbsg18
I00
sg19
g20
sbsg12
I4
sg14
(imyEvolve
Tree
p224
(dp225
g23
(imyEvolve
Tree
p226
(dp227
g23
(imyEvolve
Tree
p228
(dp229
g7
(imyEvolve
Tree
p230
(dp231
g12
I0
sg13
I00
sbsg12
I1
sg14
(imyEvolve
Tree
p232
(dp233
g12
I0
sg13
I00
sbsg18
I00
sg19
g56
sbsg12
I2
sg18
I01
sg19
g117
sbsg12
I3
sg18
I01
sg19
g117
sbsg18
I00
sg19
g56
sbsg18
I00
sg19
g27
sba(imyEvolve
Tree
p234
(dp235
g23
(imyEvolve
Tree
p236
(dp237
g23
(imyEvolve
Tree
p238
(dp239
g12
I0
sg17
F0.2913606689884407
sg13
I01
sbsg12
I1
sg18
I01
sg19
g69
sbsg12
I2
sg18
I01
sg19
g117
sba(imyEvolve
Tree
p240
(dp241
g23
(imyEvolve
Tree
p242
(dp243
g23
(imyEvolve
Tree
p244
(dp245
g7
(imyEvolve
Tree
p246
(dp247
g7
(imyEvolve
Tree
p248
(dp249
g12
I0
sg17
F-2.029690646546981
sg13
I01
sbsg12
I1
sg14
(imyEvolve
Tree
p250
(dp251
g12
I0
sg17
F3.739655075523169
sg13
I01
sbsg18
I00
sg19
g20
sbsg12
I2
sg14
(imyEvolve
Tree
p252
(dp253
g7
(imyEvolve
Tree
p254
(dp255
g12
I0
sg13
I00
sbsg12
I1
sg14
(imyEvolve
Tree
p256
(dp257
g12
I0
sg13
I00
sbsg18
I00
sg19
g27
sbsg18
I00
sg19
g20
sbsg12
I3
sg18
I01
sg19
g117
sbsg12
I4
sg18
I01
sg19
g26
sba(imyEvolve
Tree
p258
(dp259
g23
(imyEvolve
Tree
p260
(dp261
g12
I3
sg7
(imyEvolve
Tree
p262
(dp263
g23
(imyEvolve
Tree
p264
(dp265
g23
(imyEvolve
Tree
p266
(dp267
g12
I0
sg13
I00
sbsg12
I1
sg18
I01
sg19
g100
sbsg12
I2
sg18
I01
sg19
g117
sbsg14
(imyEvolve
Tree
p268
(dp269
g23
(imyEvolve
Tree
p270
(dp271
g12
I1
sg7
(imyEvolve
Tree
p272
(dp273
g12
I0
sg13
I00
sbsg14
(imyEvolve
Tree
p274
(dp275
g12
I0
sg17
F3.304219263842379
sg13
I01
sbsg18
I00
sg19
g56
sbsg12
I2
sg18
I01
sg19
g26
sbsg18
I00
sg19
g27
sbsg12
I4
sg18
I01
sg19
g69
sba(imyEvolve
Tree
p276
(dp277
g23
(imyEvolve
Tree
p278
(dp279
g7
(imyEvolve
Tree
p280
(dp281
g7
(imyEvolve
Tree
p282
(dp283
g12
I0
sg13
I00
sbsg12
I1
sg14
(imyEvolve
Tree
p284
(dp285
g12
I0
sg17
F3.2905625051441287
sg13
I01
sbsg18
I00
sg19
g27
sbsg12
I2
sg14
(imyEvolve
Tree
p286
(dp287
g23
(imyEvolve
Tree
p288
(dp289
g12
I0
sg17
F-0.10411643742277832
sg13
I01
sbsg12
I1
sg18
I01
sg19
g26
sbsg18
I00
sg19
g20
sbsg12
I3
sg18
I01
sg19
g69
sba(imyEvolve
Tree
p290
(dp291
g7
(imyEvolve
Tree
p292
(dp293
g7
(imyEvolve
Tree
p294
(dp295
g12
I0
sg13
I00
sbsg12
I1
sg14
(imyEvolve
Tree
p296
(dp297
g12
I0
sg17
F3.550381872075338
sg13
I01
sbsg18
I00
sg19
g56
sbsg12
I2
sg14
(imyEvolve
Tree
p298
(dp299
g7
(imyEvolve
Tree
p300
(dp301
g12
I0
sg13
I00
sbsg12
I1
sg14
(imyEvolve
Tree
p302
(dp303
g12
I0
sg17
F3.361405058196036
sg13
I01
sbsg18
I00
sg19
g20
sbsg18
I00
sg19
g27
sba(imyEvolve
Tree
p304
(dp305
g23
(imyEvolve
Tree
p306
(dp307
g23
(imyEvolve
Tree
p308
(dp309
g7
(imyEvolve
Tree
p310
(dp311
g12
I0
sg17
F0.9814768532098928
sg13
I01
sbsg12
I1
sg14
(imyEvolve
Tree
p312
(dp313
g12
I0
sg13
I00
sbsg18
I00
sg19
g56
sbsg12
I2
sg18
I01
sg19
g100
sbsg12
I3
sg18
I01
sg19
g117
sba(imyEvolve
Tree
p314
(dp315
g23
(imyEvolve
Tree
p316
(dp317
g23
(imyEvolve
Tree
p318
(dp319
g23
(imyEvolve
Tree
p320
(dp321
g23
(imyEvolve
Tree
p322
(dp323
g12
I0
sg13
I00
sbsg12
I1
sg18
I01
sg19
g26
sbsg12
I2
sg18
I01
sg19
g117
sbsg12
I3
sg18
I01
sg19
g117
sbsg12
I4
sg18
I01
sg19
g69
sba(imyEvolve
Tree
p324
(dp325
g12
I4
sg7
(imyEvolve
Tree
p326
(dp327
g12
I3
sg7
(imyEvolve
Tree
p328
(dp329
g12
I2
sg7
(imyEvolve
Tree
p330
(dp331
g23
(imyEvolve
Tree
p332
(dp333
g12
I0
sg17
F3.9550312061343558
sg13
I01
sbsg12
I1
sg18
I01
sg19
g69
sbsg14
(imyEvolve
Tree
p334
(dp335
g12
I1
sg7
(imyEvolve
Tree
p336
(dp337
g12
I0
sg17
F-4.838943574971685
sg13
I01
sbsg14
(imyEvolve
Tree
p338
(dp339
g12
I0
sg13
I00
sbsg18
I00
sg19
g20
sbsg18
I00
sg19
g27
sbsg14
(imyEvolve
Tree
p340
(dp341
g12
I2
sg7
(imyEvolve
Tree
p342
(dp343
g12
I1
sg7
(imyEvolve
Tree
p344
(dp345
g12
I0
sg13
I00
sbsg14
(imyEvolve
Tree
p346
(dp347
g12
I0
sg13
I00
sbsg18
I00
sg19
g27
sbsg14
(imyEvolve
Tree
p348
(dp349
g23
(imyEvolve
Tree
p350
(dp351
g12
I0
sg17
F4.75513445802614
sg13
I01
sbsg12
I1
sg18
I01
sg19
g69
sbsg18
I00
sg19
g56
sbsg18
I00
sg19
g56
sbsg14
(imyEvolve
Tree
p352
(dp353
g12
I3
sg7
(imyEvolve
Tree
p354
(dp355
g12
I2
sg7
(imyEvolve
Tree
p356
(dp357
g12
I1
sg7
(imyEvolve
Tree
p358
(dp359
g12
I0
sg17
F-0.44187903985984
sg13
I01
sbsg14
(imyEvolve
Tree
p360
(dp361
g12
I0
sg17
F1.5927430669223526
sg13
I01
sbsg18
I00
sg19
g27
sbsg14
(imyEvolve
Tree
p362
(dp363
g23
(imyEvolve
Tree
p364
(dp365
g12
I0
sg13
I00
sbsg12
I1
sg18
I01
sg19
g26
sbsg18
I00
sg19
g56
sbsg14
(imyEvolve
Tree
p366
(dp367
g23
(imyEvolve
Tree
p368
(dp369
g23
(imyEvolve
Tree
p370
(dp371
g12
I0
sg17
F-4.032459363054962
sg13
I01
sbsg12
I1
sg18
I01
sg19
g100
sbsg12
I2
sg18
I01
sg19
g26
sbsg18
I00
sg19
g27
sbsg18
I00
sg19
g27
sba(imyEvolve
Tree
p372
(dp373
g7
(imyEvolve
Tree
p374
(dp375
g7
(imyEvolve
Tree
p376
(dp377
g12
I0
sg17
F-2.6035793568859567
sg13
I01
sbsg12
I1
sg14
(imyEvolve
Tree
p378
(dp379
g12
I0
sg13
I00
sbsg18
I00
sg19
g20
sbsg12
I2
sg14
(imyEvolve
Tree
p380
(dp381
g7
(imyEvolve
Tree
p382
(dp383
g12
I0
sg13
I00
sbsg12
I1
sg14
(imyEvolve
Tree
p384
(dp385
g12
I0
sg13
I00
sbsg18
I00
sg19
g56
sbsg18
I00
sg19
g56
sba(imyEvolve
Tree
p386
(dp387
g7
(imyEvolve
Tree
p388
(dp389
g23
(imyEvolve
Tree
p390
(dp391
g7
(imyEvolve
Tree
p392
(dp393
g7
(imyEvolve
Tree
p394
(dp395
g23
(imyEvolve
Tree
p396
(dp397
g12
I0
sg17
F1.2263748027334191
sg13
I01
sbsg12
I1
sg18
I01
sg19
g69
sbsg12
I2
sg14
(imyEvolve
Tree
p398
(dp399
g7
(imyEvolve
Tree
p400
(dp401
g12
I0
sg17
F0.4952192976819383
sg13
I01
sbsg12
I1
sg14
(imyEvolve
Tree
p402
(dp403
g12
I0
sg17
F-0.375871237490891
sg13
I01
sbsg18
I00
sg19
g27
sbsg18
I00
sg19
g27
sbsg12
I3
sg14
(imyEvolve
Tree
p404
(dp405
g7
(imyEvolve
Tree
p406
(dp407
g23
(imyEvolve
Tree
p408
(dp409
g12
I0
sg13
I00
sbsg12
I1
sg18
I01
sg19
g26
sbsg12
I2
sg14
(imyEvolve
Tree
p410
(dp411
g23
(imyEvolve
Tree
p412
(dp413
g12
I0
sg17
F-1.7771470953053248
sg13
I01
sbsg12
I1
sg18
I01
sg19
g26
sbsg18
I00
sg19
g27
sbsg18
I00
sg19
g27
sbsg12
I4
sg18
I01
sg19
g69
sbsg12
I5
sg14
(imyEvolve
Tree
p414
(dp415
g7
(imyEvolve
Tree
p416
(dp417
g7
(imyEvolve
Tree
p418
(dp419
g7
(imyEvolve
Tree
p420
(dp421
g23
(imyEvolve
Tree
p422
(dp423
g12
I0
sg17
F1.865593362649486
sg13
I01
sbsg12
I1
sg18
I01
sg19
g117
sbsg12
I2
sg14
(imyEvolve
Tree
p424
(dp425
g7
(imyEvolve
Tree
p426
(dp427
g12
I0
sg13
I00
sbsg12
I1
sg14
(imyEvolve
Tree
p428
(dp429
g12
I0
sg17
F2.0497308977276276
sg13
I01
sbsg18
I00
sg19
g56
sbsg18
I00
sg19
g27
sbsg12
I3
sg14
(imyEvolve
Tree
p430
(dp431
g7
(imyEvolve
Tree
p432
(dp433
g7
(imyEvolve
Tree
p434
(dp435
g12
I0
sg13
I00
sbsg12
I1
sg14
(imyEvolve
Tree
p436
(dp437
g12
I0
sg17
F1.281334016226011
sg13
I01
sbsg18
I00
sg19
g56
sbsg12
I2
sg14
(imyEvolve
Tree
p438
(dp439
g7
(imyEvolve
Tree
p440
(dp441
g12
I0
sg17
F4.552770850103499
sg13
I01
sbsg12
I1
sg14
(imyEvolve
Tree
p442
(dp443
g12
I0
sg17
F-4.421119269394213
sg13
I01
sbsg18
I00
sg19
g20
sbsg18
I00
sg19
g20
sbsg18
I00
sg19
g20
sbsg12
I4
sg14
(imyEvolve
Tree
p444
(dp445
g23
(imyEvolve
Tree
p446
(dp447
g23
(imyEvolve
Tree
p448
(dp449
g7
(imyEvolve
Tree
p450
(dp451
g12
I0
sg17
F0.6831982000491372
sg13
I01
sbsg12
I1
sg14
(imyEvolve
Tree
p452
(dp453
g12
I0
sg13
I00
sbsg18
I00
sg19
g27
sbsg12
I2
sg18
I01
sg19
g117
sbsg12
I3
sg18
I01
sg19
g100
sbsg18
I00
sg19
g56
sbsg18
I00
sg19
g27
sba(imyEvolve
Tree
p454
(dp455
g7
(imyEvolve
Tree
p456
(dp457
g7
(imyEvolve
Tree
p458
(dp459
g23
(imyEvolve
Tree
p460
(dp461
g12
I0
sg17
F0.5779422017041131
sg13
I01
sbsg12
I1
sg18
I01
sg19
g26
sbsg12
I2
sg14
(imyEvolve
Tree
p462
(dp463
g23
(imyEvolve
Tree
p464
(dp465
g12
I0
sg17
F2.678372429347151
sg13
I01
sbsg12
I1
sg18
I01
sg19
g117
sbsg18
I00
sg19
g27
sbsg12
I3
sg14
(imyEvolve
Tree
p466
(dp467
g23
(imyEvolve
Tree
p468
(dp469
g7
(imyEvolve
Tree
p470
(dp471
g12
I0
sg17
F-3.7874997457824042
sg13
I01
sbsg12
I1
sg14
(imyEvolve
Tree
p472
(dp473
g12
I0
sg13
I00
sbsg18
I00
sg19
g20
sbsg12
I2
sg18
I01
sg19
g69
sbsg18
I00
sg19
g27
sba(imyEvolve
Tree
p474
(dp475
g23
(imyEvolve
Tree
p476
(dp477
g12
I1
sg7
(imyEvolve
Tree
p478
(dp479
g12
I0
sg13
I00
sbsg14
(imyEvolve
Tree
p480
(dp481
g12
I0
sg17
F-3.8559242848233968
sg13
I01
sbsg18
I00
sg19
g56
sbsg12
I2
sg18
I01
sg19
g100
sbaa(lp482
(imyEvolve
Tree
p483
(dp484
g23
(imyEvolve
Tree
p485
(dp486
g7
(imyEvolve
Tree
p487
(dp488
g7
(imyEvolve
Tree
p489
(dp490
g12
I0
sg13
I00
sbsg12
I1
sg14
(imyEvolve
Tree
p491
(dp492
g12
I0
sg13
I00
sbsg18
I00
sg19
g20
sbsg12
I2
sg14
(imyEvolve
Tree
p493
(dp494
g23
(imyEvolve
Tree
p495
(dp496
g12
I0
sg13
I00
sbsg12
I1
sg18
I01
sg19
g69
sbsg18
I00
sg19
g56
sbsg12
I3
sg18
I01
sg19
g100
sba(imyEvolve
Tree
p497
(dp498
g23
(imyEvolve
Tree
p499
(dp500
g7
(imyEvolve
Tree
p501
(dp502
g7
(imyEvolve
Tree
p503
(dp504
g23
(imyEvolve
Tree
p505
(dp506
g12
I0
sg13
I00
sbsg12
I1
sg18
I01
sg19
g100
sbsg12
I2
sg14
(imyEvolve
Tree
p507
(dp508
g23
(imyEvolve
Tree
p509
(dp510
g12
I0
sg13
I00
sbsg12
I1
sg18
I01
sg19
g69
sbsg18
I00
sg19
g20
sbsg12
I3
sg14
(imyEvolve
Tree
p511
(dp512
g7
(imyEvolve
Tree
p513
(dp514
g23
(imyEvolve
Tree
p515
(dp516
g12
I0
sg13
I00
sbsg12
I1
sg18
I01
sg19
g69
sbsg12
I2
sg14
(imyEvolve
Tree
p517
(dp518
g7
(imyEvolve
Tree
p519
(dp520
g12
I0
sg17
F-0.49695795130495135
sg13
I01
sbsg12
I1
sg14
(imyEvolve
Tree
p521
(dp522
g12
I0
sg13
I00
sbsg18
I00
sg19
g27
sbsg18
I00
sg19
g27
sbsg18
I00
sg19
g27
sbsg12
I4
sg18
I01
sg19
g69
sba(imyEvolve
Tree
p523
(dp524
g7
(imyEvolve
Tree
p525
(dp526
g23
(imyEvolve
Tree
p527
(dp528
g23
(imyEvolve
Tree
p529
(dp530
g23
(imyEvolve
Tree
p531
(dp532
g23
(imyEvolve
Tree
p533
(dp534
g12
I0
sg13
I00
sbsg12
I1
sg18
I01
sg19
g100
sbsg12
I2
sg18
I01
sg19
g26
sbsg12
I3
sg18
I01
sg19
g69
sbsg12
I4
sg18
I01
sg19
g69
sbsg12
I5
sg14
(imyEvolve
Tree
p535
(dp536
g23
(imyEvolve
Tree
p537
(dp538
g7
(imyEvolve
Tree
p539
(dp540
g23
(imyEvolve
Tree
p541
(dp542
g23
(imyEvolve
Tree
p543
(dp544
g12
I0
sg13
I00
sbsg12
I1
sg18
I01
sg19
g100
sbsg12
I2
sg18
I01
sg19
g117
sbsg12
I3
sg14
(imyEvolve
Tree
p545
(dp546
g23
(imyEvolve
Tree
p547
(dp548
g7
(imyEvolve
Tree
p549
(dp550
g12
I0
sg17
F0.7053577025429858
sg13
I01
sbsg12
I1
sg14
(imyEvolve
Tree
p551
(dp552
g12
I0
sg13
I00
sbsg18
I00
sg19
g56
sbsg12
I2
sg18
I01
sg19
g26
sbsg18
I00
sg19
g20
sbsg12
I4
sg18
I01
sg19
g117
sbsg18
I00
sg19
g20
sba(imyEvolve
Tree
p553
(dp554
g7
(imyEvolve
Tree
p555
(dp556
g7
(imyEvolve
Tree
p557
(dp558
g12
I0
sg17
F-3.0558260228894008
sg13
I01
sbsg12
I1
sg14
(imyEvolve
Tree
p559
(dp560
g12
I0
sg13
I00
sbsg18
I00
sg19
g20
sbsg12
I2
sg14
(imyEvolve
Tree
p561
(dp562
g7
(imyEvolve
Tree
p563
(dp564
g12
I0
sg17
F-1.4200020506221467
sg13
I01
sbsg12
I1
sg14
(imyEvolve
Tree
p565
(dp566
g12
I0
sg13
I00
sbsg18
I00
sg19
g27
sbsg18
I00
sg19
g20
sba(imyEvolve
Tree
p567
(dp568
g7
(imyEvolve
Tree
p569
(dp570
g7
(imyEvolve
Tree
p571
(dp572
g23
(imyEvolve
Tree
p573
(dp574
g23
(imyEvolve
Tree
p575
(dp576
g12
I0
sg13
I00
sbsg12
I1
sg18
I01
sg19
g26
sbsg12
I2
sg18
I01
sg19
g100
sbsg12
I3
sg14
(imyEvolve
Tree
p577
(dp578
g23
(imyEvolve
Tree
p579
(dp580
g23
(imyEvolve
Tree
p581
(dp582
g12
I0
sg17
F1.0001772943947085
sg13
I01
sbsg12
I1
sg18
I01
sg19
g26
sbsg12
I2
sg18
I01
sg19
g117
sbsg18
I00
sg19
g20
sbsg12
I4
sg14
(imyEvolve
Tree
p583
(dp584
g7
(imyEvolve
Tree
p585
(dp586
g7
(imyEvolve
Tree
p587
(dp588
g7
(imyEvolve
Tree
p589
(dp590
g12
I0
sg13
I00
sbsg12
I1
sg14
(imyEvolve
Tree
p591
(dp592
g12
I0
sg17
F-4.020805249285849
sg13
I01
sbsg18
I00
sg19
g56
sbsg12
I2
sg14
(imyEvolve
Tree
p593
(dp594
g23
(imyEvolve
Tree
p595
(dp596
g12
I0
sg17
F1.3094354558865309
sg13
I01
sbsg12
I1
sg18
I01
sg19
g69
sbsg18
I00
sg19
g56
sbsg12
I3
sg14
(imyEvolve
Tree
p597
(dp598
g23
(imyEvolve
Tree
p599
(dp600
g7
(imyEvolve
Tree
p601
(dp602
g12
I0
sg17
F-3.0168504602466117
sg13
I01
sbsg12
I1
sg14
(imyEvolve
Tree
p603
(dp604
g12
I0
sg17
F0.044594014025860496
sg13
I01
sbsg18
I00
sg19
g27
sbsg12
I2
sg18
I01
sg19
g100
sbsg18
I00
sg19
g27
sbsg18
I00
sg19
g27
sba(imyEvolve
Tree
p605
(dp606
g23
(imyEvolve
Tree
p607
(dp608
g23
(imyEvolve
Tree
p609
(dp610
g7
(imyEvolve
Tree
p611
(dp612
g7
(imyEvolve
Tree
p613
(dp614
g23
(imyEvolve
Tree
p615
(dp616
g12
I0
sg13
I00
sbsg12
I1
sg18
I01
sg19
g117
sbsg12
I2
sg14
(imyEvolve
Tree
p617
(dp618
g23
(imyEvolve
Tree
p619
(dp620
g12
I0
sg17
F-3.333037857947426
sg13
I01
sbsg12
I1
sg18
I01
sg19
g26
sbsg18
I00
sg19
g27
sbsg12
I3
sg14
(imyEvolve
Tree
p621
(dp622
g7
(imyEvolve
Tree
p623
(dp624
g23
(imyEvolve
Tree
p625
(dp626
g12
I0
sg13
I00
sbsg12
I1
sg18
I01
sg19
g26
sbsg12
I2
sg14
(imyEvolve
Tree
p627
(dp628
g23
(imyEvolve
Tree
p629
(dp630
g12
I0
sg17
F3.1802072878592327
sg13
I01
sbsg12
I1
sg18
I01
sg19
g100
sbsg18
I00
sg19
g20
sbsg18
I00
sg19
g56
sbsg12
I4
sg18
I01
sg19
g100
sbsg12
I5
sg18
I01
sg19
g69
sba(imyEvolve
Tree
p631
(dp632
g7
(imyEvolve
Tree
p633
(dp634
g23
(imyEvolve
Tree
p635
(dp636
g12
I0
sg17
F-1.8765376310571802
sg13
I01
sbsg12
I1
sg18
I01
sg19
g117
sbsg12
I2
sg14
(imyEvolve
Tree
p637
(dp638
g7
(imyEvolve
Tree
p639
(dp640
g12
I0
sg17
F-4.3464385475649445
sg13
I01
sbsg12
I1
sg14
(imyEvolve
Tree
p641
(dp642
g12
I0
sg17
F-2.5143004447572515
sg13
I01
sbsg18
I00
sg19
g20
sbsg18
I00
sg19
g27
sba(imyEvolve
Tree
p643
(dp644
g23
(imyEvolve
Tree
p645
(dp646
g23
(imyEvolve
Tree
p647
(dp648
g12
I2
sg7
(imyEvolve
Tree
p649
(dp650
g23
(imyEvolve
Tree
p651
(dp652
g12
I0
sg13
I00
sbsg12
I1
sg18
I01
sg19
g26
sbsg14
(imyEvolve
Tree
p653
(dp654
g12
I1
sg7
(imyEvolve
Tree
p655
(dp656
g12
I0
sg17
F-4.982204722751492
sg13
I01
sbsg14
(imyEvolve
Tree
p657
(dp658
g12
I0
sg17
F4.347877158650633
sg13
I01
sbsg18
I00
sg19
g20
sbsg18
I00
sg19
g27
sbsg12
I3
sg18
I01
sg19
g117
sbsg12
I4
sg18
I01
sg19
g117
sba(imyEvolve
Tree
p659
(dp660
g12
I4
sg7
(imyEvolve
Tree
p661
(dp662
g12
I3
sg7
(imyEvolve
Tree
p663
(dp664
g12
I2
sg7
(imyEvolve
Tree
p665
(dp666
g12
I1
sg7
(imyEvolve
Tree
p667
(dp668
g12
I0
sg17
F-1.0444731336120325
sg13
I01
sbsg14
(imyEvolve
Tree
p669
(dp670
g12
I0
sg13
I00
sbsg18
I00
sg19
g27
sbsg14
(imyEvolve
Tree
p671
(dp672
g23
(imyEvolve
Tree
p673
(dp674
g12
I0
sg17
F-4.798009175550444
sg13
I01
sbsg12
I1
sg18
I01
sg19
g69
sbsg18
I00
sg19
g20
sbsg14
(imyEvolve
Tree
p675
(dp676
g12
I2
sg7
(imyEvolve
Tree
p677
(dp678
g12
I1
sg7
(imyEvolve
Tree
p679
(dp680
g12
I0
sg17
F4.569098433654407
sg13
I01
sbsg14
(imyEvolve
Tree
p681
(dp682
g12
I0
sg13
I00
sbsg18
I00
sg19
g20
sbsg14
(imyEvolve
Tree
p683
(dp684
g23
(imyEvolve
Tree
p685
(dp686
g12
I0
sg13
I00
sbsg12
I1
sg18
I01
sg19
g100
sbsg18
I00
sg19
g20
sbsg18
I00
sg19
g20
sbsg14
(imyEvolve
Tree
p687
(dp688
g23
(imyEvolve
Tree
p689
(dp690
g23
(imyEvolve
Tree
p691
(dp692
g23
(imyEvolve
Tree
p693
(dp694
g12
I0
sg13
I00
sbsg12
I1
sg18
I01
sg19
g26
sbsg12
I2
sg18
I01
sg19
g117
sbsg12
I3
sg18
I01
sg19
g117
sbsg18
I00
sg19
g56
sba(imyEvolve
Tree
p695
(dp696
g7
(imyEvolve
Tree
p697
(dp698
g7
(imyEvolve
Tree
p699
(dp700
g23
(imyEvolve
Tree
p701
(dp702
g23
(imyEvolve
Tree
p703
(dp704
g12
I0
sg17
F2.493071552530779
sg13
I01
sbsg12
I1
sg18
I01
sg19
g100
sbsg12
I2
sg18
I01
sg19
g69
sbsg12
I3
sg14
(imyEvolve
Tree
p705
(dp706
g23
(imyEvolve
Tree
p707
(dp708
g7
(imyEvolve
Tree
p709
(dp710
g12
I0
sg17
F-1.9688625640355184
sg13
I01
sbsg12
I1
sg14
(imyEvolve
Tree
p711
(dp712
g12
I0
sg17
F0.8183637529579553
sg13
I01
sbsg18
I00
sg19
g56
sbsg12
I2
sg18
I01
sg19
g69
sbsg18
I00
sg19
g20
sbsg12
I4
sg14
(imyEvolve
Tree
p713
(dp714
g7
(imyEvolve
Tree
p715
(dp716
g23
(imyEvolve
Tree
p717
(dp718
g7
(imyEvolve
Tree
p719
(dp720
g12
I0
sg17
F-2.2051375433970644
sg13
I01
sbsg12
I1
sg14
(imyEvolve
Tree
p721
(dp722
g12
I0
sg13
I00
sbsg18
I00
sg19
g20
sbsg12
I2
sg18
I01
sg19
g117
sbsg12
I3
sg14
(imyEvolve
Tree
p723
(dp724
g7
(imyEvolve
Tree
p725
(dp726
g7
(imyEvolve
Tree
p727
(dp728
g12
I0
sg17
F2.904198862706444
sg13
I01
sbsg12
I1
sg14
(imyEvolve
Tree
p729
(dp730
g12
I0
sg13
I00
sbsg18
I00
sg19
g20
sbsg12
I2
sg14
(imyEvolve
Tree
p731
(dp732
g7
(imyEvolve
Tree
p733
(dp734
g12
I0
sg13
I00
sbsg12
I1
sg14
(imyEvolve
Tree
p735
(dp736
g12
I0
sg13
I00
sbsg18
I00
sg19
g20
sbsg18
I00
sg19
g27
sbsg18
I00
sg19
g27
sbsg18
I00
sg19
g56
sba(imyEvolve
Tree
p737
(dp738
g12
I3
sg7
(imyEvolve
Tree
p739
(dp740
g12
I2
sg7
(imyEvolve
Tree
p741
(dp742
g23
(imyEvolve
Tree
p743
(dp744
g12
I0
sg17
F-2.2801772981467017
sg13
I01
sbsg12
I1
sg18
I01
sg19
g117
sbsg14
(imyEvolve
Tree
p745
(dp746
g23
(imyEvolve
Tree
p747
(dp748
g12
I0
sg13
I00
sbsg12
I1
sg18
I01
sg19
g26
sbsg18
I00
sg19
g27
sbsg14
(imyEvolve
Tree
p749
(dp750
g12
I2
sg7
(imyEvolve
Tree
p751
(dp752
g23
(imyEvolve
Tree
p753
(dp754
g12
I0
sg13
I00
sbsg12
I1
sg18
I01
sg19
g26
sbsg14
(imyEvolve
Tree
p755
(dp756
g23
(imyEvolve
Tree
p757
(dp758
g12
I0
sg13
I00
sbsg12
I1
sg18
I01
sg19
g117
sbsg18
I00
sg19
g56
sbsg18
I00
sg19
g56
sba(imyEvolve
Tree
p759
(dp760
g23
(imyEvolve
Tree
p761
(dp762
g7
(imyEvolve
Tree
p763
(dp764
g7
(imyEvolve
Tree
p765
(dp766
g23
(imyEvolve
Tree
p767
(dp768
g7
(imyEvolve
Tree
p769
(dp770
g12
I0
sg13
I00
sbsg12
I1
sg14
(imyEvolve
Tree
p771
(dp772
g12
I0
sg13
I00
sbsg18
I00
sg19
g27
sbsg12
I2
sg18
I01
sg19
g26
sbsg12
I3
sg14
(imyEvolve
Tree
p773
(dp774
g7
(imyEvolve
Tree
p775
(dp776
g23
(imyEvolve
Tree
p777
(dp778
g12
I0
sg13
I00
sbsg12
I1
sg18
I01
sg19
g26
sbsg12
I2
sg14
(imyEvolve
Tree
p779
(dp780
g23
(imyEvolve
Tree
p781
(dp782
g12
I0
sg17
F1.7189211694107298
sg13
I01
sbsg12
I1
sg18
I01
sg19
g26
sbsg18
I00
sg19
g27
sbsg18
I00
sg19
g27
sbsg12
I4
sg14
(imyEvolve
Tree
p783
(dp784
g23
(imyEvolve
Tree
p785
(dp786
g7
(imyEvolve
Tree
p787
(dp788
g7
(imyEvolve
Tree
p789
(dp790
g12
I0
sg17
F0.5234558908432794
sg13
I01
sbsg12
I1
sg14
(imyEvolve
Tree
p791
(dp792
g12
I0
sg17
F4.988681736927038
sg13
I01
sbsg18
I00
sg19
g27
sbsg12
I2
sg14
(imyEvolve
Tree
p793
(dp794
g7
(imyEvolve
Tree
p795
(dp796
g12
I0
sg13
I00
sbsg12
I1
sg14
(imyEvolve
Tree
p797
(dp798
g12
I0
sg17
F-0.18519736474860515
sg13
I01
sbsg18
I00
sg19
g20
sbsg18
I00
sg19
g27
sbsg12
I3
sg18
I01
sg19
g26
sbsg18
I00
sg19
g56
sbsg12
I5
sg18
I01
sg19
g26
sba(imyEvolve
Tree
p799
(dp800
g23
(imyEvolve
Tree
p801
(dp802
g23
(imyEvolve
Tree
p803
(dp804
g12
I0
sg17
F4.467544528962547
sg13
I01
sbsg12
I1
sg18
I01
sg19
g69
sbsg12
I2
sg18
I01
sg19
g69
sba(imyEvolve
Tree
p805
(dp806
g7
(imyEvolve
Tree
p807
(dp808
g23
(imyEvolve
Tree
p809
(dp810
g23
(imyEvolve
Tree
p811
(dp812
g7
(imyEvolve
Tree
p813
(dp814
g23
(imyEvolve
Tree
p815
(dp816
g12
I0
sg13
I00
sbsg12
I1
sg18
I01
sg19
g100
sbsg12
I2
sg14
(imyEvolve
Tree
p817
(dp818
g23
(imyEvolve
Tree
p819
(dp820
g12
I0
sg17
F-0.03294635525347367
sg13
I01
sbsg12
I1
sg18
I01
sg19
g26
sbsg18
I00
sg19
g56
sbsg12
I3
sg18
I01
sg19
g69
sbsg12
I4
sg18
I01
sg19
g26
sbsg12
I5
sg14
(imyEvolve
Tree
p821
(dp822
g7
(imyEvolve
Tree
p823
(dp824
g7
(imyEvolve
Tree
p825
(dp826
g7
(imyEvolve
Tree
p827
(dp828
g7
(imyEvolve
Tree
p829
(dp830
g12
I0
sg17
F3.5746065104116163
sg13
I01
sbsg12
I1
sg14
(imyEvolve
Tree
p831
(dp832
g12
I0
sg13
I00
sbsg18
I00
sg19
g20
sbsg12
I2
sg14
(imyEvolve
Tree
p833
(dp834
g23
(imyEvolve
Tree
p835
(dp836
g12
I0
sg17
F1.8914341788979359
sg13
I01
sbsg12
I1
sg18
I01
sg19
g69
sbsg18
I00
sg19
g56
sbsg12
I3
sg14
(imyEvolve
Tree
p837
(dp838
g23
(imyEvolve
Tree
p839
(dp840
g23
(imyEvolve
Tree
p841
(dp842
g12
I0
sg13
I00
sbsg12
I1
sg18
I01
sg19
g117
sbsg12
I2
sg18
I01
sg19
g117
sbsg18
I00
sg19
g20
sbsg12
I4
sg14
(imyEvolve
Tree
p843
(dp844
g7
(imyEvolve
Tree
p845
(dp846
g23
(imyEvolve
Tree
p847
(dp848
g7
(imyEvolve
Tree
p849
(dp850
g12
I0
sg17
F4.407086264078725
sg13
I01
sbsg12
I1
sg14
(imyEvolve
Tree
p851
(dp852
g12
I0
sg13
I00
sbsg18
I00
sg19
g20
sbsg12
I2
sg18
I01
sg19
g26
sbsg12
I3
sg14
(imyEvolve
Tree
p853
(dp854
g23
(imyEvolve
Tree
p855
(dp856
g7
(imyEvolve
Tree
p857
(dp858
g12
I0
sg13
I00
sbsg12
I1
sg14
(imyEvolve
Tree
p859
(dp860
g12
I0
sg13
I00
sbsg18
I00
sg19
g20
sbsg12
I2
sg18
I01
sg19
g117
sbsg18
I00
sg19
g20
sbsg18
I00
sg19
g27
sbsg18
I00
sg19
g27
sba(imyEvolve
Tree
p861
(dp862
g23
(imyEvolve
Tree
p863
(dp864
g23
(imyEvolve
Tree
p865
(dp866
g12
I0
sg17
F3.3998140563506
sg13
I01
sbsg12
I1
sg18
I01
sg19
g117
sbsg12
I2
sg18
I01
sg19
g117
sba(imyEvolve
Tree
p867
(dp868
g12
I4
sg7
(imyEvolve
Tree
p869
(dp870
g12
I3
sg7
(imyEvolve
Tree
p871
(dp872
g23
(imyEvolve
Tree
p873
(dp874
g23
(imyEvolve
Tree
p875
(dp876
g12
I0
sg17
F0.9256379810213335
sg13
I01
sbsg12
I1
sg18
I01
sg19
g69
sbsg12
I2
sg18
I01
sg19
g69
sbsg14
(imyEvolve
Tree
p877
(dp878
g23
(imyEvolve
Tree
p879
(dp880
g12
I1
sg7
(imyEvolve
Tree
p881
(dp882
g12
I0
sg17
F3.6145240497929514
sg13
I01
sbsg14
(imyEvolve
Tree
p883
(dp884
g12
I0
sg13
I00
sbsg18
I00
sg19
g27
sbsg12
I2
sg18
I01
sg19
g26
sbsg18
I00
sg19
g20
sbsg14
(imyEvolve
Tree
p885
(dp886
g23
(imyEvolve
Tree
p887
(dp888
g23
(imyEvolve
Tree
p889
(dp890
g12
I1
sg7
(imyEvolve
Tree
p891
(dp892
g12
I0
sg17
F-0.6388370128526297
sg13
I01
sbsg14
(imyEvolve
Tree
p893
(dp894
g12
I0
sg13
I00
sbsg18
I00
sg19
g56
sbsg12
I2
sg18
I01
sg19
g26
sbsg12
I3
sg18
I01
sg19
g26
sbsg18
I00
sg19
g27
sba(imyEvolve
Tree
p895
(dp896
g23
(imyEvolve
Tree
p897
(dp898
g12
I1
sg7
(imyEvolve
Tree
p899
(dp900
g12
I0
sg13
I00
sbsg14
(imyEvolve
Tree
p901
(dp902
g12
I0
sg13
I00
sbsg18
I00
sg19
g20
sbsg12
I2
sg18
I01
sg19
g117
sba(imyEvolve
Tree
p903
(dp904
g7
(imyEvolve
Tree
p905
(dp906
g23
(imyEvolve
Tree
p907
(dp908
g7
(imyEvolve
Tree
p909
(dp910
g7
(imyEvolve
Tree
p911
(dp912
g23
(imyEvolve
Tree
p913
(dp914
g12
I0
sg13
I00
sbsg12
I1
sg18
I01
sg19
g100
sbsg12
I2
sg14
(imyEvolve
Tree
p915
(dp916
g23
(imyEvolve
Tree
p917
(dp918
g12
I0
sg13
I00
sbsg12
I1
sg18
I01
sg19
g26
sbsg18
I00
sg19
g27
sbsg12
I3
sg14
(imyEvolve
Tree
p919
(dp920
g7
(imyEvolve
Tree
p921
(dp922
g23
(imyEvolve
Tree
p923
(dp924
g12
I0
sg13
I00
sbsg12
I1
sg18
I01
sg19
g26
sbsg12
I2
sg14
(imyEvolve
Tree
p925
(dp926
g7
(imyEvolve
Tree
p927
(dp928
g12
I0
sg17
F-4.378350185480336
sg13
I01
sbsg12
I1
sg14
(imyEvolve
Tree
p929
(dp930
g12
I0
sg13
I00
sbsg18
I00
sg19
g56
sbsg18
I00
sg19
g27
sbsg18
I00
sg19
g20
sbsg12
I4
sg18
I01
sg19
g26
sbsg12
I5
sg14
(imyEvolve
Tree
p931
(dp932
g23
(imyEvolve
Tree
p933
(dp934
g23
(imyEvolve
Tree
p935
(dp936
g23
(imyEvolve
Tree
p937
(dp938
g7
(imyEvolve
Tree
p939
(dp940
g12
I0
sg17
F-4.466750014225425
sg13
I01
sbsg12
I1
sg14
(imyEvolve
Tree
p941
(dp942
g12
I0
sg17
F0.9530944139931474
sg13
I01
sbsg18
I00
sg19
g27
sbsg12
I2
sg18
I01
sg19
g69
sbsg12
I3
sg18
I01
sg19
g69
sbsg12
I4
sg18
I01
sg19
g69
sbsg18
I00
sg19
g56
sba(imyEvolve
Tree
p943
(dp944
g7
(imyEvolve
Tree
p945
(dp946
g23
(imyEvolve
Tree
p947
(dp948
g23
(imyEvolve
Tree
p949
(dp950
g23
(imyEvolve
Tree
p951
(dp952
g23
(imyEvolve
Tree
p953
(dp954
g12
I0
sg17
F1.4540690969218737
sg13
I01
sbsg12
I1
sg18
I01
sg19
g100
sbsg12
I2
sg18
I01
sg19
g100
sbsg12
I3
sg18
I01
sg19
g100
sbsg12
I4
sg18
I01
sg19
g117
sbsg12
I5
sg14
(imyEvolve
Tree
p955
(dp956
g7
(imyEvolve
Tree
p957
(dp958
g23
(imyEvolve
Tree
p959
(dp960
g23
(imyEvolve
Tree
p961
(dp962
g7
(imyEvolve
Tree
p963
(dp964
g12
I0
sg13
I00
sbsg12
I1
sg14
(imyEvolve
Tree
p965
(dp966
g12
I0
sg17
F1.3619213335024494
sg13
I01
sbsg18
I00
sg19
g20
sbsg12
I2
sg18
I01
sg19
g69
sbsg12
I3
sg18
I01
sg19
g26
sbsg12
I4
sg14
(imyEvolve
Tree
p967
(dp968
g7
(imyEvolve
Tree
p969
(dp970
g7
(imyEvolve
Tree
p971
(dp972
g23
(imyEvolve
Tree
p973
(dp974
g12
I0
sg13
I00
sbsg12
I1
sg18
I01
sg19
g26
sbsg12
I2
sg14
(imyEvolve
Tree
p975
(dp976
g7
(imyEvolve
Tree
p977
(dp978
g12
I0
sg13
I00
sbsg12
I1
sg14
(imyEvolve
Tree
p979
(dp980
g12
I0
sg13
I00
sbsg18
I00
sg19
g27
sbsg18
I00
sg19
g56
sbsg12
I3
sg14
(imyEvolve
Tree
p981
(dp982
g7
(imyEvolve
Tree
p983
(dp984
g7
(imyEvolve
Tree
p985
(dp986
g12
I0
sg13
I00
sbsg12
I1
sg14
(imyEvolve
Tree
p987
(dp988
g12
I0
sg13
I00
sbsg18
I00
sg19
g27
sbsg12
I2
sg14
(imyEvolve
Tree
p989
(dp990
g23
(imyEvolve
Tree
p991
(dp992
g12
I0
sg13
I00
sbsg12
I1
sg18
I01
sg19
g117
sbsg18
I00
sg19
g20
sbsg18
I00
sg19
g27
sbsg18
I00
sg19
g20
sbsg18
I00
sg19
g20
sba(imyEvolve
Tree
p993
(dp994
g23
(imyEvolve
Tree
p995
(dp996
g12
I4
sg7
(imyEvolve
Tree
p997
(dp998
g12
I3
sg7
(imyEvolve
Tree
p999
(dp1000
g12
I2
sg7
(imyEvolve
Tree
p1001
(dp1002
g12
I1
sg7
(imyEvolve
Tree
p1003
(dp1004
g12
I0
sg13
I00
sbsg14
(imyEvolve
Tree
p1005
(dp1006
g12
I0
sg13
I00
sbsg18
I00
sg19
g56
sbsg14
(imyEvolve
Tree
p1007
(dp1008
g23
(imyEvolve
Tree
p1009
(dp1010
g12
I0
sg17
F-4.536984777686307
sg13
I01
sbsg12
I1
sg18
I01
sg19
g100
sbsg18
I00
sg19
g56
sbsg14
(imyEvolve
Tree
p1011
(dp1012
g12
I2
sg7
(imyEvolve
Tree
p1013
(dp1014
g12
I1
sg7
(imyEvolve
Tree
p1015
(dp1016
g12
I0
sg13
I00
sbsg14
(imyEvolve
Tree
p1017
(dp1018
g12
I0
sg17
F-2.64334105750639
sg13
I01
sbsg18
I00
sg19
g20
sbsg14
(imyEvolve
Tree
p1019
(dp1020
g12
I1
sg7
(imyEvolve
Tree
p1021
(dp1022
g12
I0
sg13
I00
sbsg14
(imyEvolve
Tree
p1023
(dp1024
g12
I0
sg17
F-4.245855030783248
sg13
I01
sbsg18
I00
sg19
g27
sbsg18
I00
sg19
g27
sbsg18
I00
sg19
g27
sbsg14
(imyEvolve
Tree
p1025
(dp1026
g12
I3
sg7
(imyEvolve
Tree
p1027
(dp1028
g12
I2
sg7
(imyEvolve
Tree
p1029
(dp1030
g23
(imyEvolve
Tree
p1031
(dp1032
g12
I0
sg13
I00
sbsg12
I1
sg18
I01
sg19
g100
sbsg14
(imyEvolve
Tree
p1033
(dp1034
g23
(imyEvolve
Tree
p1035
(dp1036
g12
I0
sg13
I00
sbsg12
I1
sg18
I01
sg19
g69
sbsg18
I00
sg19
g56
sbsg14
(imyEvolve
Tree
p1037
(dp1038
g12
I2
sg7
(imyEvolve
Tree
p1039
(dp1040
g12
I1
sg7
(imyEvolve
Tree
p1041
(dp1042
g12
I0
sg13
I00
sbsg14
(imyEvolve
Tree
p1043
(dp1044
g12
I0
sg17
F4.0385051195079384
sg13
I01
sbsg18
I00
sg19
g20
sbsg14
(imyEvolve
Tree
p1045
(dp1046
g12
I1
sg7
(imyEvolve
Tree
p1047
(dp1048
g12
I0
sg13
I00
sbsg14
(imyEvolve
Tree
p1049
(dp1050
g12
I0
sg17
F-3.227539522705052
sg13
I01
sbsg18
I00
sg19
g20
sbsg18
I00
sg19
g20
sbsg18
I00
sg19
g27
sbsg18
I00
sg19
g27
sbsg12
I5
sg18
I01
sg19
g69
sbaasS'alpha'
p1051
F0.0025506773862888268
sS'fitness'
p1052
cnumpy.core.multiarray
scalar
p1053
(cnumpy
dtype
p1054
(S'f8'
p1055
I0
I1
tp1056
Rp1057
(I3
S'<'
p1058
NNNI-1
I-1
I0
tp1059
bS'\x1b\x9e^\x9b\x90\x1e\xe6?'
p1060
tp1061
Rp1062
sS'weightSharing'
p1063
(lp1064
I01
asS'fitnessValid'
p1065
I00
sS'resolution'
p1066
I74
sb.