(imyEvolve
Individual
p0
(dp1
S'funcs'
p2
(lp3
(lp4
(imyEvolve
Tree
p5
(dp6
S'below'
p7
(imyEvolve
Tree
p8
(dp9
S'depth'
p10
I2
sS'left'
p11
(imyEvolve
Tree
p12
(dp13
g10
I1
sg11
(imyEvolve
Tree
p14
(dp15
g10
I0
sS'isConstant'
p16
I00
sbsS'right'
p17
(imyEvolve
Tree
p18
(dp19
g10
I0
sS'constant'
p20
F2.9730562787757817
sg16
I01
sbsS'single'
p21
I00
sS'op'
p22
coperator
sub
p23
sbsg17
(imyEvolve
Tree
p24
(dp25
g7
(imyEvolve
Tree
p26
(dp27
g10
I0
sg20
F1.3126936581758422
sg16
I01
sbsg10
I1
sg21
I01
sg22
cmath
sin
p28
sbsg21
I00
sg22
g23
sbsg10
I3
sg21
I01
sg22
g28
sba(imyEvolve
Tree
p29
(dp30
g7
(imyEvolve
Tree
p31
(dp32
g11
(imyEvolve
Tree
p33
(dp34
g10
I0
sg16
I00
sbsg10
I1
sg17
(imyEvolve
Tree
p35
(dp36
g10
I0
sg20
F-3.409914833904625
sg16
I01
sbsg21
I00
sg22
g23
sbsg10
I2
sg21
I01
sg22
cmyEvolve
absSqrt
p37
sba(imyEvolve
Tree
p38
(dp39
g7
(imyEvolve
Tree
p40
(dp41
g11
(imyEvolve
Tree
p42
(dp43
g10
I0
sg20
F4.764672405869785
sg16
I01
sbsg10
I1
sg17
(imyEvolve
Tree
p44
(dp45
g10
I0
sg20
F-3.5168759294289687
sg16
I01
sbsg21
I00
sg22
g23
sbsg10
I2
sg21
I01
sg22
cmath
cos
p46
sba(imyEvolve
Tree
p47
(dp48
g7
(imyEvolve
Tree
p49
(dp50
g7
(imyEvolve
Tree
p51
(dp52
g11
(imyEvolve
Tree
p53
(dp54
g11
(imyEvolve
Tree
p55
(dp56
g10
I0
sg20
F1.392652264813334
sg16
I01
sbsg10
I1
sg17
(imyEvolve
Tree
p57
(dp58
g10
I0
sg20
F1.5535062434871474
sg16
I01
sbsg21
I00
sg22
coperator
mul
p59
sbsg10
I2
sg17
(imyEvolve
Tree
p60
(dp61
g11
(imyEvolve
Tree
p62
(dp63
g10
I0
sg20
F-4.964372989441853
sg16
I01
sbsg10
I1
sg17
(imyEvolve
Tree
p64
(dp65
g10
I0
sg20
F1.1627477291601718
sg16
I01
sbsg21
I00
sg22
coperator
add
p66
sbsg21
I00
sg22
g23
sbsg10
I3
sg21
I01
sg22
g37
sbsg10
I4
sg21
I01
sg22
g37
sba(imyEvolve
Tree
p67
(dp68
g7
(imyEvolve
Tree
p69
(dp70
g7
(imyEvolve
Tree
p71
(dp72
g7
(imyEvolve
Tree
p73
(dp74
g11
(imyEvolve
Tree
p75
(dp76
g10
I0
sg20
F1.6383924541497743
sg16
I01
sbsg10
I1
sg17
(imyEvolve
Tree
p77
(dp78
g10
I0
sg16
I00
sbsg21
I00
sg22
g23
sbsg10
I2
sg21
I01
sg22
g37
sbsg10
I3
sg21
I01
sg22
g46
sbsg10
I4
sg21
I01
sg22
g37
sba(imyEvolve
Tree
p79
(dp80
g10
I4
sg11
(imyEvolve
Tree
p81
(dp82
g10
I3
sg11
(imyEvolve
Tree
p83
(dp84
g10
I2
sg11
(imyEvolve
Tree
p85
(dp86
g7
(imyEvolve
Tree
p87
(dp88
g10
I0
sg20
F1.1564413907248863
sg16
I01
sbsg10
I1
sg21
I01
sg22
g28
sbsg17
(imyEvolve
Tree
p89
(dp90
g10
I1
sg11
(imyEvolve
Tree
p91
(dp92
g10
I0
sg20
F-3.522230595688207
sg16
I01
sbsg17
(imyEvolve
Tree
p93
(dp94
g10
I0
sg20
F-4.717844694764231
sg16
I01
sbsg21
I00
sg22
g23
sbsg21
I00
sg22
g66
sbsg17
(imyEvolve
Tree
p95
(dp96
g10
I2
sg11
(imyEvolve
Tree
p97
(dp98
g10
I1
sg11
(imyEvolve
Tree
p99
(dp100
g10
I0
sg16
I00
sbsg17
(imyEvolve
Tree
p101
(dp102
g10
I0
sg20
F-1.792462111887576
sg16
I01
sbsg21
I00
sg22
g59
sbsg17
(imyEvolve
Tree
p103
(dp104
g7
(imyEvolve
Tree
p105
(dp106
g10
I0
sg20
F-2.6249390967826036
sg16
I01
sbsg10
I1
sg21
I01
sg22
cmyEvolve
square
p107
sbsg21
I00
sg22
g59
sbsg21
I00
sg22
g23
sbsg17
(imyEvolve
Tree
p108
(dp109
g7
(imyEvolve
Tree
p110
(dp111
g10
I2
sg11
(imyEvolve
Tree
p112
(dp113
g10
I1
sg11
(imyEvolve
Tree
p114
(dp115
g10
I0
sg16
I00
sbsg17
(imyEvolve
Tree
p116
(dp117
g10
I0
sg20
F-1.5403210071582798
sg16
I01
sbsg21
I00
sg22
g66
sbsg17
(imyEvolve
Tree
p118
(dp119
g10
I1
sg11
(imyEvolve
Tree
p120
(dp121
g10
I0
sg20
F0.8715397777496205
sg16
I01
sbsg17
(imyEvolve
Tree
p122
(dp123
g10
I0
sg16
I00
sbsg21
I00
sg22
g66
sbsg21
I00
sg22
g23
sbsg10
I3
sg21
I01
sg22
g37
sbsg21
I00
sg22
g66
sba(imyEvolve
Tree
p124
(dp125
g11
(imyEvolve
Tree
p126
(dp127
g11
(imyEvolve
Tree
p128
(dp129
g11
(imyEvolve
Tree
p130
(dp131
g11
(imyEvolve
Tree
p132
(dp133
g11
(imyEvolve
Tree
p134
(dp135
g10
I0
sg20
F-3.9893152752397287
sg16
I01
sbsg10
I1
sg17
(imyEvolve
Tree
p136
(dp137
g10
I0
sg20
F-0.005054495002320358
sg16
I01
sbsg21
I00
sg22
g59
sbsg10
I2
sg17
(imyEvolve
Tree
p138
(dp139
g11
(imyEvolve
Tree
p140
(dp141
g10
I0
sg20
F-1.619981673340356
sg16
I01
sbsg10
I1
sg17
(imyEvolve
Tree
p142
(dp143
g10
I0
sg16
I00
sbsg21
I00
sg22
g59
sbsg21
I00
sg22
g66
sbsg10
I3
sg17
(imyEvolve
Tree
p144
(dp145
g7
(imyEvolve
Tree
p146
(dp147
g11
(imyEvolve
Tree
p148
(dp149
g10
I0
sg20
F-1.5599879253267188
sg16
I01
sbsg10
I1
sg17
(imyEvolve
Tree
p150
(dp151
g10
I0
sg20
F-4.756662376073987
sg16
I01
sbsg21
I00
sg22
g23
sbsg10
I2
sg21
I01
sg22
g46
sbsg21
I00
sg22
g66
sbsg10
I4
sg17
(imyEvolve
Tree
p152
(dp153
g7
(imyEvolve
Tree
p154
(dp155
g7
(imyEvolve
Tree
p156
(dp157
g11
(imyEvolve
Tree
p158
(dp159
g10
I0
sg20
F-2.4395228982442285
sg16
I01
sbsg10
I1
sg17
(imyEvolve
Tree
p160
(dp161
g10
I0
sg20
F-2.374612502965406
sg16
I01
sbsg21
I00
sg22
g66
sbsg10
I2
sg21
I01
sg22
g37
sbsg10
I3
sg21
I01
sg22
g37
sbsg21
I00
sg22
g59
sbsg10
I5
sg17
(imyEvolve
Tree
p162
(dp163
g7
(imyEvolve
Tree
p164
(dp165
g7
(imyEvolve
Tree
p166
(dp167
g11
(imyEvolve
Tree
p168
(dp169
g7
(imyEvolve
Tree
p170
(dp171
g10
I0
sg16
I00
sbsg10
I1
sg21
I01
sg22
g28
sbsg10
I2
sg17
(imyEvolve
Tree
p172
(dp173
g7
(imyEvolve
Tree
p174
(dp175
g10
I0
sg20
F-0.4243676624167181
sg16
I01
sbsg10
I1
sg21
I01
sg22
g46
sbsg21
I00
sg22
g66
sbsg10
I3
sg21
I01
sg22
g46
sbsg10
I4
sg21
I01
sg22
g46
sbsg21
I00
sg22
g23
sba(imyEvolve
Tree
p176
(dp177
g7
(imyEvolve
Tree
p178
(dp179
g7
(imyEvolve
Tree
p180
(dp181
g11
(imyEvolve
Tree
p182
(dp183
g7
(imyEvolve
Tree
p184
(dp185
g10
I0
sg16
I00
sbsg10
I1
sg21
I01
sg22
g37
sbsg10
I2
sg17
(imyEvolve
Tree
p186
(dp187
g11
(imyEvolve
Tree
p188
(dp189
g10
I0
sg20
F-3.51957749794796
sg16
I01
sbsg10
I1
sg17
(imyEvolve
Tree
p190
(dp191
g10
I0
sg16
I00
sbsg21
I00
sg22
g66
sbsg21
I00
sg22
g66
sbsg10
I3
sg21
I01
sg22
g28
sbsg10
I4
sg21
I01
sg22
g46
sba(imyEvolve
Tree
p192
(dp193
g10
I3
sg11
(imyEvolve
Tree
p194
(dp195
g10
I2
sg11
(imyEvolve
Tree
p196
(dp197
g10
I1
sg11
(imyEvolve
Tree
p198
(dp199
g10
I0
sg16
I00
sbsg17
(imyEvolve
Tree
p200
(dp201
g10
I0
sg16
I00
sbsg21
I00
sg22
g59
sbsg17
(imyEvolve
Tree
p202
(dp203
g7
(imyEvolve
Tree
p204
(dp205
g10
I0
sg16
I00
sbsg10
I1
sg21
I01
sg22
g37
sbsg21
I00
sg22
g23
sbsg17
(imyEvolve
Tree
p206
(dp207
g7
(imyEvolve
Tree
p208
(dp209
g10
I1
sg11
(imyEvolve
Tree
p210
(dp211
g10
I0
sg16
I00
sbsg17
(imyEvolve
Tree
p212
(dp213
g10
I0
sg16
I00
sbsg21
I00
sg22
g23
sbsg10
I2
sg21
I01
sg22
g37
sbsg21
I00
sg22
g23
sba(imyEvolve
Tree
p214
(dp215
g7
(imyEvolve
Tree
p216
(dp217
g10
I2
sg11
(imyEvolve
Tree
p218
(dp219
g10
I1
sg11
(imyEvolve
Tree
p220
(dp221
g10
I0
sg20
F-4.93464166563514
sg16
I01
sbsg17
(imyEvolve
Tree
p222
(dp223
g10
I0
sg20
F-3.668626612869945
sg16
I01
sbsg21
I00
sg22
g23
sbsg17
(imyEvolve
Tree
p224
(dp225
g7
(imyEvolve
Tree
p226
(dp227
g10
I0
sg16
I00
sbsg10
I1
sg21
I01
sg22
g28
sbsg21
I00
sg22
g23
sbsg10
I3
sg21
I01
sg22
g37
sba(imyEvolve
Tree
p228
(dp229
g11
(imyEvolve
Tree
p230
(dp231
g7
(imyEvolve
Tree
p232
(dp233
g10
I0
sg20
F-0.07861527841217075
sg16
I01
sbsg10
I1
sg21
I01
sg22
g107
sbsg10
I2
sg17
(imyEvolve
Tree
p234
(dp235
g11
(imyEvolve
Tree
p236
(dp237
g10
I0
sg16
I00
sbsg10
I1
sg17
(imyEvolve
Tree
p238
(dp239
g10
I0
sg16
I00
sbsg21
I00
sg22
g59
sbsg21
I00
sg22
g66
sba(imyEvolve
Tree
p240
(dp241
g11
(imyEvolve
Tree
p242
(dp243
g7
(imyEvolve
Tree
p244
(dp245
g11
(imyEvolve
Tree
p246
(dp247
g10
I0
sg20
F4.397481183124398
sg16
I01
sbsg10
I1
sg17
(imyEvolve
Tree
p248
(dp249
g10
I0
sg16
I00
sbsg21
I00
sg22
g59
sbsg10
I2
sg21
I01
sg22
g107
sbsg10
I3
sg17
(imyEvolve
Tree
p250
(dp251
g11
(imyEvolve
Tree
p252
(dp253
g7
(imyEvolve
Tree
p254
(dp255
g10
I0
sg16
I00
sbsg10
I1
sg21
I01
sg22
g46
sbsg10
I2
sg17
(imyEvolve
Tree
p256
(dp257
g7
(imyEvolve
Tree
p258
(dp259
g10
I0
sg16
I00
sbsg10
I1
sg21
I01
sg22
g28
sbsg21
I00
sg22
g23
sbsg21
I00
sg22
g23
sba(imyEvolve
Tree
p260
(dp261
g11
(imyEvolve
Tree
p262
(dp263
g7
(imyEvolve
Tree
p264
(dp265
g10
I0
sg20
F-0.981529428838888
sg16
I01
sbsg10
I1
sg21
I01
sg22
g28
sbsg10
I2
sg17
(imyEvolve
Tree
p266
(dp267
g11
(imyEvolve
Tree
p268
(dp269
g10
I0
sg20
F4.3974316338048105
sg16
I01
sbsg10
I1
sg17
(imyEvolve
Tree
p270
(dp271
g10
I0
sg16
I00
sbsg21
I00
sg22
g23
sbsg21
I00
sg22
g59
sba(imyEvolve
Tree
p272
(dp273
g11
(imyEvolve
Tree
p274
(dp275
g7
(imyEvolve
Tree
p276
(dp277
g7
(imyEvolve
Tree
p278
(dp279
g11
(imyEvolve
Tree
p280
(dp281
g11
(imyEvolve
Tree
p282
(dp283
g10
I0
sg20
F-3.6153173135333505
sg16
I01
sbsg10
I1
sg17
(imyEvolve
Tree
p284
(dp285
g10
I0
sg16
I00
sbsg21
I00
sg22
g23
sbsg10
I2
sg17
(imyEvolve
Tree
p286
(dp287
g11
(imyEvolve
Tree
p288
(dp289
g10
I0
sg16
I00
sbsg10
I1
sg17
(imyEvolve
Tree
p290
(dp291
g10
I0
sg16
I00
sbsg21
I00
sg22
g66
sbsg21
I00
sg22
g23
sbsg10
I3
sg21
I01
sg22
g107
sbsg10
I4
sg21
I01
sg22
g107
sbsg10
I5
sg17
(imyEvolve
Tree
p292
(dp293
g7
(imyEvolve
Tree
p294
(dp295
g11
(imyEvolve
Tree
p296
(dp297
g7
(imyEvolve
Tree
p298
(dp299
g11
(imyEvolve
Tree
p300
(dp301
g10
I0
sg20
F-4.25702979218082
sg16
I01
sbsg10
I1
sg17
(imyEvolve
Tree
p302
(dp303
g10
I0
sg16
I00
sbsg21
I00
sg22
g23
sbsg10
I2
sg21
I01
sg22
g107
sbsg10
I3
sg17
(imyEvolve
Tree
p304
(dp305
g7
(imyEvolve
Tree
p306
(dp307
g11
(imyEvolve
Tree
p308
(dp309
g10
I0
sg20
F-1.6951370527912237
sg16
I01
sbsg10
I1
sg17
(imyEvolve
Tree
p310
(dp311
g10
I0
sg16
I00
sbsg21
I00
sg22
g66
sbsg10
I2
sg21
I01
sg22
g37
sbsg21
I00
sg22
g59
sbsg10
I4
sg21
I01
sg22
g107
sbsg21
I00
sg22
g66
sba(imyEvolve
Tree
p312
(dp313
g7
(imyEvolve
Tree
p314
(dp315
g11
(imyEvolve
Tree
p316
(dp317
g11
(imyEvolve
Tree
p318
(dp319
g7
(imyEvolve
Tree
p320
(dp321
g10
I0
sg20
F0.6848978692934846
sg16
I01
sbsg10
I1
sg21
I01
sg22
g28
sbsg10
I2
sg17
(imyEvolve
Tree
p322
(dp323
g11
(imyEvolve
Tree
p324
(dp325
g10
I0
sg20
F1.8180514134719559
sg16
I01
sbsg10
I1
sg17
(imyEvolve
Tree
p326
(dp327
g10
I0
sg20
F-0.3344366670521559
sg16
I01
sbsg21
I00
sg22
g59
sbsg21
I00
sg22
g23
sbsg10
I3
sg17
(imyEvolve
Tree
p328
(dp329
g11
(imyEvolve
Tree
p330
(dp331
g7
(imyEvolve
Tree
p332
(dp333
g10
I0
sg16
I00
sbsg10
I1
sg21
I01
sg22
g37
sbsg10
I2
sg17
(imyEvolve
Tree
p334
(dp335
g11
(imyEvolve
Tree
p336
(dp337
g10
I0
sg20
F-2.170409921499564
sg16
I01
sbsg10
I1
sg17
(imyEvolve
Tree
p338
(dp339
g10
I0
sg16
I00
sbsg21
I00
sg22
g66
sbsg21
I00
sg22
g23
sbsg21
I00
sg22
g59
sbsg10
I4
sg21
I01
sg22
g46
sbaa(lp340
(imyEvolve
Tree
p341
(dp342
g11
(imyEvolve
Tree
p343
(dp344
g11
(imyEvolve
Tree
p345
(dp346
g11
(imyEvolve
Tree
p347
(dp348
g11
(imyEvolve
Tree
p349
(dp350
g11
(imyEvolve
Tree
p351
(dp352
g10
I0
sg20
F1.5025147443688542
sg16
I01
sbsg10
I1
sg17
(imyEvolve
Tree
p353
(dp354
g10
I0
sg20
F-1.1799024962434568
sg16
I01
sbsg21
I00
sg22
g23
sbsg10
I2
sg17
(imyEvolve
Tree
p355
(dp356
g11
(imyEvolve
Tree
p357
(dp358
g10
I0
sg16
I00
sbsg10
I1
sg17
(imyEvolve
Tree
p359
(dp360
g10
I0
sg20
F-2.2961004814177324
sg16
I01
sbsg21
I00
sg22
g59
sbsg21
I00
sg22
g59
sbsg10
I3
sg17
(imyEvolve
Tree
p361
(dp362
g7
(imyEvolve
Tree
p363
(dp364
g11
(imyEvolve
Tree
p365
(dp366
g10
I0
sg16
I00
sbsg10
I1
sg17
(imyEvolve
Tree
p367
(dp368
g10
I0
sg16
I00
sbsg21
I00
sg22
g59
sbsg10
I2
sg21
I01
sg22
g46
sbsg21
I00
sg22
g66
sbsg10
I4
sg17
(imyEvolve
Tree
p369
(dp370
g11
(imyEvolve
Tree
p371
(dp372
g11
(imyEvolve
Tree
p373
(dp374
g11
(imyEvolve
Tree
p375
(dp376
g10
I0
sg16
I00
sbsg10
I1
sg17
(imyEvolve
Tree
p377
(dp378
g10
I0
sg20
F-3.2207137355874247
sg16
I01
sbsg21
I00
sg22
g66
sbsg10
I2
sg17
(imyEvolve
Tree
p379
(dp380
g11
(imyEvolve
Tree
p381
(dp382
g10
I0
sg16
I00
sbsg10
I1
sg17
(imyEvolve
Tree
p383
(dp384
g10
I0
sg16
I00
sbsg21
I00
sg22
g59
sbsg21
I00
sg22
g23
sbsg10
I3
sg17
(imyEvolve
Tree
p385
(dp386
g7
(imyEvolve
Tree
p387
(dp388
g11
(imyEvolve
Tree
p389
(dp390
g10
I0
sg16
I00
sbsg10
I1
sg17
(imyEvolve
Tree
p391
(dp392
g10
I0
sg16
I00
sbsg21
I00
sg22
g59
sbsg10
I2
sg21
I01
sg22
g37
sbsg21
I00
sg22
g59
sbsg21
I00
sg22
g59
sbsg10
I5
sg17
(imyEvolve
Tree
p393
(dp394
g11
(imyEvolve
Tree
p395
(dp396
g7
(imyEvolve
Tree
p397
(dp398
g11
(imyEvolve
Tree
p399
(dp400
g11
(imyEvolve
Tree
p401
(dp402
g10
I0
sg16
I00
sbsg10
I1
sg17
(imyEvolve
Tree
p403
(dp404
g10
I0
sg20
F-4.056528169508695
sg16
I01
sbsg21
I00
sg22
g59
sbsg10
I2
sg17
(imyEvolve
Tree
p405
(dp406
g7
(imyEvolve
Tree
p407
(dp408
g10
I0
sg20
F1.8388388080576075
sg16
I01
sbsg10
I1
sg21
I01
sg22
g46
sbsg21
I00
sg22
g66
sbsg10
I3
sg21
I01
sg22
g46
sbsg10
I4
sg17
(imyEvolve
Tree
p409
(dp410
g11
(imyEvolve
Tree
p411
(dp412
g7
(imyEvolve
Tree
p413
(dp414
g7
(imyEvolve
Tree
p415
(dp416
g10
I0
sg20
F-4.841764742794315
sg16
I01
sbsg10
I1
sg21
I01
sg22
g46
sbsg10
I2
sg21
I01
sg22
g37
sbsg10
I3
sg17
(imyEvolve
Tree
p417
(dp418
g7
(imyEvolve
Tree
p419
(dp420
g11
(imyEvolve
Tree
p421
(dp422
g10
I0
sg20
F2.659664211481201
sg16
I01
sbsg10
I1
sg17
(imyEvolve
Tree
p423
(dp424
g10
I0
sg20
F2.3643649705953154
sg16
I01
sbsg21
I00
sg22
g59
sbsg10
I2
sg21
I01
sg22
g107
sbsg21
I00
sg22
g23
sbsg21
I00
sg22
g23
sbsg21
I00
sg22
g23
sba(imyEvolve
Tree
p425
(dp426
g7
(imyEvolve
Tree
p427
(dp428
g7
(imyEvolve
Tree
p429
(dp430
g10
I1
sg11
(imyEvolve
Tree
p431
(dp432
g10
I0
sg16
I00
sbsg17
(imyEvolve
Tree
p433
(dp434
g10
I0
sg20
F2.1881247998457614
sg16
I01
sbsg21
I00
sg22
g23
sbsg10
I2
sg21
I01
sg22
g28
sbsg10
I3
sg21
I01
sg22
g37
sba(imyEvolve
Tree
p435
(dp436
g11
(imyEvolve
Tree
p437
(dp438
g7
(imyEvolve
Tree
p439
(dp440
g7
(imyEvolve
Tree
p441
(dp442
g7
(imyEvolve
Tree
p443
(dp444
g11
(imyEvolve
Tree
p445
(dp446
g10
I0
sg20
F0.402690952841505
sg16
I01
sbsg10
I1
sg17
(imyEvolve
Tree
p447
(dp448
g10
I0
sg16
I00
sbsg21
I00
sg22
g66
sbsg10
I2
sg21
I01
sg22
g28
sbsg10
I3
sg21
I01
sg22
g37
sbsg10
I4
sg21
I01
sg22
g28
sbsg10
I5
sg17
(imyEvolve
Tree
p449
(dp450
g11
(imyEvolve
Tree
p451
(dp452
g7
(imyEvolve
Tree
p453
(dp454
g7
(imyEvolve
Tree
p455
(dp456
g7
(imyEvolve
Tree
p457
(dp458
g10
I0
sg16
I00
sbsg10
I1
sg21
I01
sg22
g37
sbsg10
I2
sg21
I01
sg22
g28
sbsg10
I3
sg21
I01
sg22
g37
sbsg10
I4
sg17
(imyEvolve
Tree
p459
(dp460
g7
(imyEvolve
Tree
p461
(dp462
g7
(imyEvolve
Tree
p463
(dp464
g11
(imyEvolve
Tree
p465
(dp466
g10
I0
sg20
F-3.1719431768775563
sg16
I01
sbsg10
I1
sg17
(imyEvolve
Tree
p467
(dp468
g10
I0
sg16
I00
sbsg21
I00
sg22
g66
sbsg10
I2
sg21
I01
sg22
g37
sbsg10
I3
sg21
I01
sg22
g107
sbsg21
I00
sg22
g59
sbsg21
I00
sg22
g59
sba(imyEvolve
Tree
p469
(dp470
g7
(imyEvolve
Tree
p471
(dp472
g7
(imyEvolve
Tree
p473
(dp474
g10
I0
sg16
I00
sbsg10
I1
sg21
I01
sg22
g28
sbsg10
I2
sg21
I01
sg22
g107
sba(imyEvolve
Tree
p475
(dp476
g11
(imyEvolve
Tree
p477
(dp478
g11
(imyEvolve
Tree
p479
(dp480
g11
(imyEvolve
Tree
p481
(dp482
g10
I0
sg16
I00
sbsg10
I1
sg17
(imyEvolve
Tree
p483
(dp484
g10
I0
sg16
I00
sbsg21
I00
sg22
g23
sbsg10
I2
sg17
(imyEvolve
Tree
p485
(dp486
g7
(imyEvolve
Tree
p487
(dp488
g10
I0
sg16
I00
sbsg10
I1
sg21
I01
sg22
g37
sbsg21
I00
sg22
g23
sbsg10
I3
sg17
(imyEvolve
Tree
p489
(dp490
g11
(imyEvolve
Tree
p491
(dp492
g11
(imyEvolve
Tree
p493
(dp494
g10
I0
sg20
F-3.8634191639434157
sg16
I01
sbsg10
I1
sg17
(imyEvolve
Tree
p495
(dp496
g10
I0
sg20
F2.5471135305229433
sg16
I01
sbsg21
I00
sg22
g66
sbsg10
I2
sg17
(imyEvolve
Tree
p497
(dp498
g11
(imyEvolve
Tree
p499
(dp500
g10
I0
sg20
F2.213059001227534
sg16
I01
sbsg10
I1
sg17
(imyEvolve
Tree
p501
(dp502
g10
I0
sg20
F4.417274499983643
sg16
I01
sbsg21
I00
sg22
g59
sbsg21
I00
sg22
g59
sbsg21
I00
sg22
g66
sba(imyEvolve
Tree
p503
(dp504
g7
(imyEvolve
Tree
p505
(dp506
g7
(imyEvolve
Tree
p507
(dp508
g7
(imyEvolve
Tree
p509
(dp510
g10
I0
sg16
I00
sbsg10
I1
sg21
I01
sg22
g46
sbsg10
I2
sg21
I01
sg22
g46
sbsg10
I3
sg21
I01
sg22
g28
sba(imyEvolve
Tree
p511
(dp512
g7
(imyEvolve
Tree
p513
(dp514
g7
(imyEvolve
Tree
p515
(dp516
g7
(imyEvolve
Tree
p517
(dp518
g7
(imyEvolve
Tree
p519
(dp520
g11
(imyEvolve
Tree
p521
(dp522
g10
I0
sg20
F4.3996417626257625
sg16
I01
sbsg10
I1
sg17
(imyEvolve
Tree
p523
(dp524
g10
I0
sg16
I00
sbsg21
I00
sg22
g66
sbsg10
I2
sg21
I01
sg22
g28
sbsg10
I3
sg21
I01
sg22
g37
sbsg10
I4
sg21
I01
sg22
g37
sbsg10
I5
sg21
I01
sg22
g46
sba(imyEvolve
Tree
p525
(dp526
g11
(imyEvolve
Tree
p527
(dp528
g7
(imyEvolve
Tree
p529
(dp530
g7
(imyEvolve
Tree
p531
(dp532
g11
(imyEvolve
Tree
p533
(dp534
g11
(imyEvolve
Tree
p535
(dp536
g10
I0
sg16
I00
sbsg10
I1
sg17
(imyEvolve
Tree
p537
(dp538
g10
I0
sg20
F0.27132688598240406
sg16
I01
sbsg21
I00
sg22
g66
sbsg10
I2
sg17
(imyEvolve
Tree
p539
(dp540
g11
(imyEvolve
Tree
p541
(dp542
g10
I0
sg16
I00
sbsg10
I1
sg17
(imyEvolve
Tree
p543
(dp544
g10
I0
sg20
F1.8390925315511888
sg16
I01
sbsg21
I00
sg22
g59
sbsg21
I00
sg22
g23
sbsg10
I3
sg21
I01
sg22
g107
sbsg10
I4
sg21
I01
sg22
g46
sbsg10
I5
sg17
(imyEvolve
Tree
p545
(dp546
g7
(imyEvolve
Tree
p547
(dp548
g11
(imyEvolve
Tree
p549
(dp550
g7
(imyEvolve
Tree
p551
(dp552
g7
(imyEvolve
Tree
p553
(dp554
g10
I0
sg20
F-1.4607846964852103
sg16
I01
sbsg10
I1
sg21
I01
sg22
g46
sbsg10
I2
sg21
I01
sg22
g28
sbsg10
I3
sg17
(imyEvolve
Tree
p555
(dp556
g11
(imyEvolve
Tree
p557
(dp558
g7
(imyEvolve
Tree
p559
(dp560
g10
I0
sg20
F2.906261193624422
sg16
I01
sbsg10
I1
sg21
I01
sg22
g37
sbsg10
I2
sg17
(imyEvolve
Tree
p561
(dp562
g7
(imyEvolve
Tree
p563
(dp564
g10
I0
sg20
F3.476329545635469
sg16
I01
sbsg10
I1
sg21
I01
sg22
g37
sbsg21
I00
sg22
g66
sbsg21
I00
sg22
g59
sbsg10
I4
sg21
I01
sg22
g107
sbsg21
I00
sg22
g66
sba(imyEvolve
Tree
p565
(dp566
g10
I3
sg11
(imyEvolve
Tree
p567
(dp568
g10
I2
sg11
(imyEvolve
Tree
p569
(dp570
g7
(imyEvolve
Tree
p571
(dp572
g10
I0
sg20
F-1.0082862430235262
sg16
I01
sbsg10
I1
sg21
I01
sg22
g28
sbsg17
(imyEvolve
Tree
p573
(dp574
g7
(imyEvolve
Tree
p575
(dp576
g10
I0
sg16
I00
sbsg10
I1
sg21
I01
sg22
g37
sbsg21
I00
sg22
g59
sbsg17
(imyEvolve
Tree
p577
(dp578
g10
I2
sg11
(imyEvolve
Tree
p579
(dp580
g10
I1
sg11
(imyEvolve
Tree
p581
(dp582
g10
I0
sg16
I00
sbsg17
(imyEvolve
Tree
p583
(dp584
g10
I0
sg20
F-1.150556713231381
sg16
I01
sbsg21
I00
sg22
g59
sbsg17
(imyEvolve
Tree
p585
(dp586
g7
(imyEvolve
Tree
p587
(dp588
g10
I0
sg20
F4.9487809488845365
sg16
I01
sbsg10
I1
sg21
I01
sg22
g37
sbsg21
I00
sg22
g59
sbsg21
I00
sg22
g23
sba(imyEvolve
Tree
p589
(dp590
g10
I3
sg11
(imyEvolve
Tree
p591
(dp592
g7
(imyEvolve
Tree
p593
(dp594
g7
(imyEvolve
Tree
p595
(dp596
g10
I0
sg16
I00
sbsg10
I1
sg21
I01
sg22
g46
sbsg10
I2
sg21
I01
sg22
g46
sbsg17
(imyEvolve
Tree
p597
(dp598
g7
(imyEvolve
Tree
p599
(dp600
g7
(imyEvolve
Tree
p601
(dp602
g10
I0
sg16
I00
sbsg10
I1
sg21
I01
sg22
g46
sbsg10
I2
sg21
I01
sg22
g107
sbsg21
I00
sg22
g59
sba(imyEvolve
Tree
p603
(dp604
g7
(imyEvolve
Tree
p605
(dp606
g7
(imyEvolve
Tree
p607
(dp608
g7
(imyEvolve
Tree
p609
(dp610
g7
(imyEvolve
Tree
p611
(dp612
g7
(imyEvolve
Tree
p613
(dp614
g10
I0
sg16
I00
sbsg10
I1
sg21
I01
sg22
g46
sbsg10
I2
sg21
I01
sg22
g37
sbsg10
I3
sg21
I01
sg22
g37
sbsg10
I4
sg21
I01
sg22
g107
sbsg10
I5
sg21
I01
sg22
g37
sba(imyEvolve
Tree
p615
(dp616
g11
(imyEvolve
Tree
p617
(dp618
g7
(imyEvolve
Tree
p619
(dp620
g11
(imyEvolve
Tree
p621
(dp622
g10
I0
sg20
F-3.6961284385811846
sg16
I01
sbsg10
I1
sg17
(imyEvolve
Tree
p623
(dp624
g10
I0
sg20
F4.4417816912196635
sg16
I01
sbsg21
I00
sg22
g66
sbsg10
I2
sg21
I01
sg22
g37
sbsg10
I3
sg17
(imyEvolve
Tree
p625
(dp626
g7
(imyEvolve
Tree
p627
(dp628
g7
(imyEvolve
Tree
p629
(dp630
g10
I0
sg20
F-3.824085086105393
sg16
I01
sbsg10
I1
sg21
I01
sg22
g28
sbsg10
I2
sg21
I01
sg22
g28
sbsg21
I00
sg22
g59
sba(imyEvolve
Tree
p631
(dp632
g7
(imyEvolve
Tree
p633
(dp634
g7
(imyEvolve
Tree
p635
(dp636
g11
(imyEvolve
Tree
p637
(dp638
g10
I0
sg16
I00
sbsg10
I1
sg17
(imyEvolve
Tree
p639
(dp640
g10
I0
sg16
I00
sbsg21
I00
sg22
g66
sbsg10
I2
sg21
I01
sg22
g46
sbsg10
I3
sg21
I01
sg22
g46
sba(imyEvolve
Tree
p641
(dp642
g10
I2
sg11
(imyEvolve
Tree
p643
(dp644
g10
I1
sg11
(imyEvolve
Tree
p645
(dp646
g10
I0
sg16
I00
sbsg17
(imyEvolve
Tree
p647
(dp648
g10
I0
sg16
I00
sbsg21
I00
sg22
g23
sbsg17
(imyEvolve
Tree
p649
(dp650
g7
(imyEvolve
Tree
p651
(dp652
g10
I0
sg20
F-2.465492564988294
sg16
I01
sbsg10
I1
sg21
I01
sg22
g107
sbsg21
I00
sg22
g59
sba(imyEvolve
Tree
p653
(dp654
g7
(imyEvolve
Tree
p655
(dp656
g11
(imyEvolve
Tree
p657
(dp658
g10
I0
sg16
I00
sbsg10
I1
sg17
(imyEvolve
Tree
p659
(dp660
g10
I0
sg20
F1.526462909807563
sg16
I01
sbsg21
I00
sg22
g59
sbsg10
I2
sg21
I01
sg22
g107
sba(imyEvolve
Tree
p661
(dp662
g11
(imyEvolve
Tree
p663
(dp664
g11
(imyEvolve
Tree
p665
(dp666
g7
(imyEvolve
Tree
p667
(dp668
g7
(imyEvolve
Tree
p669
(dp670
g11
(imyEvolve
Tree
p671
(dp672
g10
I0
sg20
F-2.3417417966908785
sg16
I01
sbsg10
I1
sg17
(imyEvolve
Tree
p673
(dp674
g10
I0
sg20
F4.993183008361836
sg16
I01
sbsg21
I00
sg22
g23
sbsg10
I2
sg21
I01
sg22
g107
sbsg10
I3
sg21
I01
sg22
g46
sbsg10
I4
sg17
(imyEvolve
Tree
p675
(dp676
g7
(imyEvolve
Tree
p677
(dp678
g11
(imyEvolve
Tree
p679
(dp680
g7
(imyEvolve
Tree
p681
(dp682
g10
I0
sg20
F0.09189963319503303
sg16
I01
sbsg10
I1
sg21
I01
sg22
g107
sbsg10
I2
sg17
(imyEvolve
Tree
p683
(dp684
g11
(imyEvolve
Tree
p685
(dp686
g10
I0
sg16
I00
sbsg10
I1
sg17
(imyEvolve
Tree
p687
(dp688
g10
I0
sg16
I00
sbsg21
I00
sg22
g66
sbsg21
I00
sg22
g66
sbsg10
I3
sg21
I01
sg22
g107
sbsg21
I00
sg22
g23
sbsg10
I5
sg17
(imyEvolve
Tree
p689
(dp690
g7
(imyEvolve
Tree
p691
(dp692
g11
(imyEvolve
Tree
p693
(dp694
g7
(imyEvolve
Tree
p695
(dp696
g7
(imyEvolve
Tree
p697
(dp698
g10
I0
sg16
I00
sbsg10
I1
sg21
I01
sg22
g37
sbsg10
I2
sg21
I01
sg22
g37
sbsg10
I3
sg17
(imyEvolve
Tree
p699
(dp700
g7
(imyEvolve
Tree
p701
(dp702
g11
(imyEvolve
Tree
p703
(dp704
g10
I0
sg16
I00
sbsg10
I1
sg17
(imyEvolve
Tree
p705
(dp706
g10
I0
sg20
F1.1783125154447447
sg16
I01
sbsg21
I00
sg22
g66
sbsg10
I2
sg21
I01
sg22
g46
sbsg21
I00
sg22
g66
sbsg10
I4
sg21
I01
sg22
g28
sbsg21
I00
sg22
g66
sba(imyEvolve
Tree
p707
(dp708
g7
(imyEvolve
Tree
p709
(dp710
g7
(imyEvolve
Tree
p711
(dp712
g10
I3
sg11
(imyEvolve
Tree
p713
(dp714
g7
(imyEvolve
Tree
p715
(dp716
g7
(imyEvolve
Tree
p717
(dp718
g10
I0
sg20
F-4.667338832200131
sg16
I01
sbsg10
I1
sg21
I01
sg22
g37
sbsg10
I2
sg21
I01
sg22
g37
sbsg17
(imyEvolve
Tree
p719
(dp720
g10
I2
sg11
(imyEvolve
Tree
p721
(dp722
g10
I1
sg11
(imyEvolve
Tree
p723
(dp724
g10
I0
sg20
F4.938156423462143
sg16
I01
sbsg17
(imyEvolve
Tree
p725
(dp726
g10
I0
sg20
F2.714693574450643
sg16
I01
sbsg21
I00
sg22
g59
sbsg17
(imyEvolve
Tree
p727
(dp728
g10
I1
sg11
(imyEvolve
Tree
p729
(dp730
g10
I0
sg20
F-0.5418241960273633
sg16
I01
sbsg17
(imyEvolve
Tree
p731
(dp732
g10
I0
sg16
I00
sbsg21
I00
sg22
g59
sbsg21
I00
sg22
g66
sbsg21
I00
sg22
g23
sbsg10
I4
sg21
I01
sg22
g46
sbsg10
I5
sg21
I01
sg22
g107
sba(imyEvolve
Tree
p733
(dp734
g7
(imyEvolve
Tree
p735
(dp736
g7
(imyEvolve
Tree
p737
(dp738
g10
I0
sg16
I00
sbsg10
I1
sg21
I01
sg22
g37
sbsg10
I2
sg21
I01
sg22
g46
sbaasS'alpha'
p739
F0.004930391508339523
sS'fitness'
p740
cnumpy.core.multiarray
scalar
p741
(cnumpy
dtype
p742
(S'f8'
p743
I0
I1
tp744
Rp745
(I3
S'<'
p746
NNNI-1
I-1
I0
tp747
bS'\xf7u\xe0|\xc6$\xe6?'
p748
tp749
Rp750
sS'weightSharing'
p751
(lp752
I00
aI00
asS'fitnessValid'
p753
I00
sS'resolution'
p754
I73
sb.