(imyEvolve
Individual
p0
(dp1
S'funcs'
p2
(lp3
(lp4
(imyEvolve
Tree
p5
(dp6
S'depth'
p7
I3
sS'left'
p8
(imyEvolve
Tree
p9
(dp10
S'below'
p11
(imyEvolve
Tree
p12
(dp13
g11
(imyEvolve
Tree
p14
(dp15
g7
I0
sS'constant'
p16
F0.9628514602546847
sS'isConstant'
p17
I01
sbsg7
I1
sS'single'
p18
I01
sS'op'
p19
cmath
cos
p20
sbsg7
I2
sg18
I01
sg19
cmath
sin
p21
sbsS'right'
p22
(imyEvolve
Tree
p23
(dp24
g7
I2
sg8
(imyEvolve
Tree
p25
(dp26
g7
I1
sg8
(imyEvolve
Tree
p27
(dp28
g7
I0
sg16
F-4.419135027160496
sg17
I01
sbsg22
(imyEvolve
Tree
p29
(dp30
g7
I0
sg16
F-1.4758724299935269
sg17
I01
sbsg18
I00
sg19
coperator
sub
p31
sbsg22
(imyEvolve
Tree
p32
(dp33
g11
(imyEvolve
Tree
p34
(dp35
g7
I0
sg16
F1.1758350981248622
sg17
I01
sbsg7
I1
sg18
I01
sg19
g21
sbsg18
I00
sg19
coperator
add
p36
sbsg18
I00
sg19
g31
sba(imyEvolve
Tree
p37
(dp38
g11
(imyEvolve
Tree
p39
(dp40
g7
I2
sg8
(imyEvolve
Tree
p41
(dp42
g7
I1
sg8
(imyEvolve
Tree
p43
(dp44
g7
I0
sg17
I00
sbsg22
(imyEvolve
Tree
p45
(dp46
g7
I0
sg16
F-2.4175400051012153
sg17
I01
sbsg18
I00
sg19
g31
sbsg22
(imyEvolve
Tree
p47
(dp48
g7
I1
sg8
(imyEvolve
Tree
p49
(dp50
g7
I0
sg16
F1.840699007158988
sg17
I01
sbsg22
(imyEvolve
Tree
p51
(dp52
g7
I0
sg17
I00
sbsg18
I00
sg19
g31
sbsg18
I00
sg19
g36
sbsg7
I3
sg18
I01
sg19
cmyEvolve
square
p53
sba(imyEvolve
Tree
p54
(dp55
g11
(imyEvolve
Tree
p56
(dp57
g11
(imyEvolve
Tree
p58
(dp59
g7
I0
sg16
F0.7122555903685139
sg17
I01
sbsg7
I1
sg18
I01
sg19
g53
sbsg7
I2
sg18
I01
sg19
g53
sba(imyEvolve
Tree
p60
(dp61
g7
I2
sg8
(imyEvolve
Tree
p62
(dp63
g7
I1
sg8
(imyEvolve
Tree
p64
(dp65
g7
I0
sg17
I00
sbsg22
(imyEvolve
Tree
p66
(dp67
g7
I0
sg17
I00
sbsg18
I00
sg19
g36
sbsg22
(imyEvolve
Tree
p68
(dp69
g7
I1
sg8
(imyEvolve
Tree
p70
(dp71
g7
I0
sg17
I00
sbsg22
(imyEvolve
Tree
p72
(dp73
g7
I0
sg17
I00
sbsg18
I00
sg19
g36
sbsg18
I00
sg19
coperator
mul
p74
sba(imyEvolve
Tree
p75
(dp76
g11
(imyEvolve
Tree
p77
(dp78
g7
I1
sg8
(imyEvolve
Tree
p79
(dp80
g7
I0
sg16
F-2.2318841587081497
sg17
I01
sbsg22
(imyEvolve
Tree
p81
(dp82
g7
I0
sg16
F2.865141462375778
sg17
I01
sbsg18
I00
sg19
g31
sbsg7
I2
sg18
I01
sg19
g53
sba(imyEvolve
Tree
p83
(dp84
g11
(imyEvolve
Tree
p85
(dp86
g7
I3
sg8
(imyEvolve
Tree
p87
(dp88
g11
(imyEvolve
Tree
p89
(dp90
g7
I1
sg8
(imyEvolve
Tree
p91
(dp92
g7
I0
sg17
I00
sbsg22
(imyEvolve
Tree
p93
(dp94
g7
I0
sg17
I00
sbsg18
I00
sg19
g31
sbsg7
I2
sg18
I01
sg19
cmyEvolve
absSqrt
p95
sbsg22
(imyEvolve
Tree
p96
(dp97
g11
(imyEvolve
Tree
p98
(dp99
g7
I1
sg8
(imyEvolve
Tree
p100
(dp101
g7
I0
sg16
F4.583299716860093
sg17
I01
sbsg22
(imyEvolve
Tree
p102
(dp103
g7
I0
sg17
I00
sbsg18
I00
sg19
g36
sbsg7
I2
sg18
I01
sg19
g21
sbsg18
I00
sg19
g74
sbsg7
I4
sg18
I01
sg19
g53
sba(imyEvolve
Tree
p104
(dp105
g11
(imyEvolve
Tree
p106
(dp107
g7
I1
sg8
(imyEvolve
Tree
p108
(dp109
g7
I0
sg16
F4.5550834531885425
sg17
I01
sbsg22
(imyEvolve
Tree
p110
(dp111
g7
I0
sg16
F4.334663538306694
sg17
I01
sbsg18
I00
sg19
g74
sbsg7
I2
sg18
I01
sg19
g21
sba(imyEvolve
Tree
p112
(dp113
g7
I3
sg8
(imyEvolve
Tree
p114
(dp115
g11
(imyEvolve
Tree
p116
(dp117
g7
I1
sg8
(imyEvolve
Tree
p118
(dp119
g7
I0
sg17
I00
sbsg22
(imyEvolve
Tree
p120
(dp121
g7
I0
sg16
F1.5394531800864382
sg17
I01
sbsg18
I00
sg19
g74
sbsg7
I2
sg18
I01
sg19
g53
sbsg22
(imyEvolve
Tree
p122
(dp123
g11
(imyEvolve
Tree
p124
(dp125
g7
I1
sg8
(imyEvolve
Tree
p126
(dp127
g7
I0
sg17
I00
sbsg22
(imyEvolve
Tree
p128
(dp129
g7
I0
sg17
I00
sbsg18
I00
sg19
g74
sbsg7
I2
sg18
I01
sg19
g95
sbsg18
I00
sg19
g31
sba(imyEvolve
Tree
p130
(dp131
g11
(imyEvolve
Tree
p132
(dp133
g7
I2
sg8
(imyEvolve
Tree
p134
(dp135
g11
(imyEvolve
Tree
p136
(dp137
g7
I0
sg17
I00
sbsg7
I1
sg18
I01
sg19
g53
sbsg22
(imyEvolve
Tree
p138
(dp139
g7
I1
sg8
(imyEvolve
Tree
p140
(dp141
g7
I0
sg17
I00
sbsg22
(imyEvolve
Tree
p142
(dp143
g7
I0
sg16
F-2.0464589160442426
sg17
I01
sbsg18
I00
sg19
g31
sbsg18
I00
sg19
g74
sbsg7
I3
sg18
I01
sg19
g95
sba(imyEvolve
Tree
p144
(dp145
g11
(imyEvolve
Tree
p146
(dp147
g7
I2
sg8
(imyEvolve
Tree
p148
(dp149
g11
(imyEvolve
Tree
p150
(dp151
g7
I0
sg16
F-4.4061548987663315
sg17
I01
sbsg7
I1
sg18
I01
sg19
g20
sbsg22
(imyEvolve
Tree
p152
(dp153
g7
I1
sg8
(imyEvolve
Tree
p154
(dp155
g7
I0
sg16
F2.2043034294892987
sg17
I01
sbsg22
(imyEvolve
Tree
p156
(dp157
g7
I0
sg17
I00
sbsg18
I00
sg19
g74
sbsg18
I00
sg19
g31
sbsg7
I3
sg18
I01
sg19
g21
sba(imyEvolve
Tree
p158
(dp159
g7
I3
sg8
(imyEvolve
Tree
p160
(dp161
g7
I2
sg8
(imyEvolve
Tree
p162
(dp163
g11
(imyEvolve
Tree
p164
(dp165
g7
I0
sg16
F1.0587025357895516
sg17
I01
sbsg7
I1
sg18
I01
sg19
g53
sbsg22
(imyEvolve
Tree
p166
(dp167
g11
(imyEvolve
Tree
p168
(dp169
g7
I0
sg17
I00
sbsg7
I1
sg18
I01
sg19
g20
sbsg18
I00
sg19
g36
sbsg22
(imyEvolve
Tree
p170
(dp171
g11
(imyEvolve
Tree
p172
(dp173
g7
I1
sg8
(imyEvolve
Tree
p174
(dp175
g7
I0
sg16
F3.1736482823496672
sg17
I01
sbsg22
(imyEvolve
Tree
p176
(dp177
g7
I0
sg16
F-2.951239130295974
sg17
I01
sbsg18
I00
sg19
g36
sbsg7
I2
sg18
I01
sg19
g21
sbsg18
I00
sg19
g31
sba(imyEvolve
Tree
p178
(dp179
g11
(imyEvolve
Tree
p180
(dp181
g7
I4
sg8
(imyEvolve
Tree
p182
(dp183
g7
I3
sg8
(imyEvolve
Tree
p184
(dp185
g11
(imyEvolve
Tree
p186
(dp187
g7
I1
sg8
(imyEvolve
Tree
p188
(dp189
g7
I0
sg17
I00
sbsg22
(imyEvolve
Tree
p190
(dp191
g7
I0
sg16
F0.11889217451869438
sg17
I01
sbsg18
I00
sg19
g36
sbsg7
I2
sg18
I01
sg19
g21
sbsg22
(imyEvolve
Tree
p192
(dp193
g7
I2
sg8
(imyEvolve
Tree
p194
(dp195
g11
(imyEvolve
Tree
p196
(dp197
g7
I0
sg17
I00
sbsg7
I1
sg18
I01
sg19
g53
sbsg22
(imyEvolve
Tree
p198
(dp199
g11
(imyEvolve
Tree
p200
(dp201
g7
I0
sg16
F4.313097190043742
sg17
I01
sbsg7
I1
sg18
I01
sg19
g53
sbsg18
I00
sg19
g31
sbsg18
I00
sg19
g36
sbsg22
(imyEvolve
Tree
p202
(dp203
g7
I3
sg8
(imyEvolve
Tree
p204
(dp205
g11
(imyEvolve
Tree
p206
(dp207
g11
(imyEvolve
Tree
p208
(dp209
g7
I0
sg16
F0.21182809095903643
sg17
I01
sbsg7
I1
sg18
I01
sg19
g53
sbsg7
I2
sg18
I01
sg19
g95
sbsg22
(imyEvolve
Tree
p210
(dp211
g7
I2
sg8
(imyEvolve
Tree
p212
(dp213
g11
(imyEvolve
Tree
p214
(dp215
g7
I0
sg16
F3.84629652660778
sg17
I01
sbsg7
I1
sg18
I01
sg19
g53
sbsg22
(imyEvolve
Tree
p216
(dp217
g11
(imyEvolve
Tree
p218
(dp219
g7
I0
sg16
F-3.026439921398204
sg17
I01
sbsg7
I1
sg18
I01
sg19
g20
sbsg18
I00
sg19
g74
sbsg18
I00
sg19
g31
sbsg18
I00
sg19
g36
sbsg7
I5
sg18
I01
sg19
g20
sba(imyEvolve
Tree
p220
(dp221
g7
I5
sg8
(imyEvolve
Tree
p222
(dp223
g7
I4
sg8
(imyEvolve
Tree
p224
(dp225
g7
I3
sg8
(imyEvolve
Tree
p226
(dp227
g11
(imyEvolve
Tree
p228
(dp229
g7
I1
sg8
(imyEvolve
Tree
p230
(dp231
g7
I0
sg17
I00
sbsg22
(imyEvolve
Tree
p232
(dp233
g7
I0
sg16
F-2.4014872342723304
sg17
I01
sbsg18
I00
sg19
g31
sbsg7
I2
sg18
I01
sg19
g95
sbsg22
(imyEvolve
Tree
p234
(dp235
g7
I2
sg8
(imyEvolve
Tree
p236
(dp237
g11
(imyEvolve
Tree
p238
(dp239
g7
I0
sg16
F-2.6269323379267573
sg17
I01
sbsg7
I1
sg18
I01
sg19
g95
sbsg22
(imyEvolve
Tree
p240
(dp241
g7
I1
sg8
(imyEvolve
Tree
p242
(dp243
g7
I0
sg16
F4.719340821979195
sg17
I01
sbsg22
(imyEvolve
Tree
p244
(dp245
g7
I0
sg16
F2.46421128537051
sg17
I01
sbsg18
I00
sg19
g36
sbsg18
I00
sg19
g31
sbsg18
I00
sg19
g36
sbsg22
(imyEvolve
Tree
p246
(dp247
g11
(imyEvolve
Tree
p248
(dp249
g11
(imyEvolve
Tree
p250
(dp251
g11
(imyEvolve
Tree
p252
(dp253
g7
I0
sg17
I00
sbsg7
I1
sg18
I01
sg19
g20
sbsg7
I2
sg18
I01
sg19
g21
sbsg7
I3
sg18
I01
sg19
g21
sbsg18
I00
sg19
g36
sbsg22
(imyEvolve
Tree
p254
(dp255
g11
(imyEvolve
Tree
p256
(dp257
g7
I3
sg8
(imyEvolve
Tree
p258
(dp259
g7
I2
sg8
(imyEvolve
Tree
p260
(dp261
g7
I1
sg8
(imyEvolve
Tree
p262
(dp263
g7
I0
sg17
I00
sbsg22
(imyEvolve
Tree
p264
(dp265
g7
I0
sg16
F-3.829674328380439
sg17
I01
sbsg18
I00
sg19
g36
sbsg22
(imyEvolve
Tree
p266
(dp267
g7
I1
sg8
(imyEvolve
Tree
p268
(dp269
g7
I0
sg17
I00
sbsg22
(imyEvolve
Tree
p270
(dp271
g7
I0
sg17
I00
sbsg18
I00
sg19
g74
sbsg18
I00
sg19
g36
sbsg22
(imyEvolve
Tree
p272
(dp273
g11
(imyEvolve
Tree
p274
(dp275
g11
(imyEvolve
Tree
p276
(dp277
g7
I0
sg17
I00
sbsg7
I1
sg18
I01
sg19
g53
sbsg7
I2
sg18
I01
sg19
g20
sbsg18
I00
sg19
g31
sbsg7
I4
sg18
I01
sg19
g53
sbsg18
I00
sg19
g74
sba(imyEvolve
Tree
p278
(dp279
g7
I2
sg8
(imyEvolve
Tree
p280
(dp281
g7
I1
sg8
(imyEvolve
Tree
p282
(dp283
g7
I0
sg17
I00
sbsg22
(imyEvolve
Tree
p284
(dp285
g7
I0
sg17
I00
sbsg18
I00
sg19
g31
sbsg22
(imyEvolve
Tree
p286
(dp287
g11
(imyEvolve
Tree
p288
(dp289
g7
I0
sg17
I00
sbsg7
I1
sg18
I01
sg19
g53
sbsg18
I00
sg19
g36
sba(imyEvolve
Tree
p290
(dp291
g7
I5
sg8
(imyEvolve
Tree
p292
(dp293
g7
I4
sg8
(imyEvolve
Tree
p294
(dp295
g11
(imyEvolve
Tree
p296
(dp297
g7
I2
sg8
(imyEvolve
Tree
p298
(dp299
g11
(imyEvolve
Tree
p300
(dp301
g7
I0
sg17
I00
sbsg7
I1
sg18
I01
sg19
g95
sbsg22
(imyEvolve
Tree
p302
(dp303
g7
I1
sg8
(imyEvolve
Tree
p304
(dp305
g7
I0
sg16
F3.477972650359627
sg17
I01
sbsg22
(imyEvolve
Tree
p306
(dp307
g7
I0
sg16
F-0.10870261362209632
sg17
I01
sbsg18
I00
sg19
g74
sbsg18
I00
sg19
g31
sbsg7
I3
sg18
I01
sg19
g95
sbsg22
(imyEvolve
Tree
p308
(dp309
g7
I3
sg8
(imyEvolve
Tree
p310
(dp311
g7
I2
sg8
(imyEvolve
Tree
p312
(dp313
g7
I1
sg8
(imyEvolve
Tree
p314
(dp315
g7
I0
sg16
F1.2663590599277539
sg17
I01
sbsg22
(imyEvolve
Tree
p316
(dp317
g7
I0
sg17
I00
sbsg18
I00
sg19
g31
sbsg22
(imyEvolve
Tree
p318
(dp319
g11
(imyEvolve
Tree
p320
(dp321
g7
I0
sg17
I00
sbsg7
I1
sg18
I01
sg19
g21
sbsg18
I00
sg19
g36
sbsg22
(imyEvolve
Tree
p322
(dp323
g7
I2
sg8
(imyEvolve
Tree
p324
(dp325
g7
I1
sg8
(imyEvolve
Tree
p326
(dp327
g7
I0
sg17
I00
sbsg22
(imyEvolve
Tree
p328
(dp329
g7
I0
sg17
I00
sbsg18
I00
sg19
g36
sbsg22
(imyEvolve
Tree
p330
(dp331
g7
I1
sg8
(imyEvolve
Tree
p332
(dp333
g7
I0
sg16
F-2.4399781684829804
sg17
I01
sbsg22
(imyEvolve
Tree
p334
(dp335
g7
I0
sg16
F-1.7299700846770882
sg17
I01
sbsg18
I00
sg19
g74
sbsg18
I00
sg19
g36
sbsg18
I00
sg19
g31
sbsg18
I00
sg19
g74
sbsg22
(imyEvolve
Tree
p336
(dp337
g7
I4
sg8
(imyEvolve
Tree
p338
(dp339
g11
(imyEvolve
Tree
p340
(dp341
g11
(imyEvolve
Tree
p342
(dp343
g7
I1
sg8
(imyEvolve
Tree
p344
(dp345
g7
I0
sg16
F3.7452005878313575
sg17
I01
sbsg22
(imyEvolve
Tree
p346
(dp347
g7
I0
sg16
F-0.2619945543200952
sg17
I01
sbsg18
I00
sg19
g31
sbsg7
I2
sg18
I01
sg19
g21
sbsg7
I3
sg18
I01
sg19
g21
sbsg22
(imyEvolve
Tree
p348
(dp349
g11
(imyEvolve
Tree
p350
(dp351
g11
(imyEvolve
Tree
p352
(dp353
g7
I1
sg8
(imyEvolve
Tree
p354
(dp355
g7
I0
sg17
I00
sbsg22
(imyEvolve
Tree
p356
(dp357
g7
I0
sg16
F4.309645049474883
sg17
I01
sbsg18
I00
sg19
g74
sbsg7
I2
sg18
I01
sg19
g20
sbsg7
I3
sg18
I01
sg19
g21
sbsg18
I00
sg19
g74
sbsg18
I00
sg19
g74
sbaasS'weightSharing'
p358
(lp359
I00
aI00
asS'fitnessValid'
p360
I00
sS'fitness'
p361
cnumpy.core.multiarray
scalar
p362
(cnumpy
dtype
p363
(S'f8'
p364
I0
I1
tp365
Rp366
(I3
S'<'
p367
NNNI-1
I-1
I0
tp368
bS'\xe36\x1a\x08\xdb%\xe6?'
p369
tp370
Rp371
sS'alpha'
p372
F0.0015062469000591233
sS'resolution'
p373
I61
sb.