(imyEvolve
Individual
p0
(dp1
S'funcs'
p2
(lp3
(lp4
(imyEvolve
Tree
p5
(dp6
S'below'
p7
(imyEvolve
Tree
p8
(dp9
S'depth'
p10
I1
sS'left'
p11
(imyEvolve
Tree
p12
(dp13
g10
I0
sS'constant'
p14
F1.0841428133053546
sS'isConstant'
p15
I01
sbsS'right'
p16
(imyEvolve
Tree
p17
(dp18
g10
I0
sg15
I00
sbsS'single'
p19
I00
sS'op'
p20
coperator
sub
p21
sbsg10
I2
sg19
I01
sg20
cmath
cos
p22
sba(imyEvolve
Tree
p23
(dp24
g10
I4
sg11
(imyEvolve
Tree
p25
(dp26
g7
(imyEvolve
Tree
p27
(dp28
g7
(imyEvolve
Tree
p29
(dp30
g7
(imyEvolve
Tree
p31
(dp32
g10
I0
sg15
I00
sbsg10
I1
sg19
I01
sg20
cmath
sin
p33
sbsg10
I2
sg19
I01
sg20
g22
sbsg10
I3
sg19
I01
sg20
g22
sbsg16
(imyEvolve
Tree
p34
(dp35
g10
I3
sg11
(imyEvolve
Tree
p36
(dp37
g10
I2
sg11
(imyEvolve
Tree
p38
(dp39
g10
I1
sg11
(imyEvolve
Tree
p40
(dp41
g10
I0
sg14
F3.1054654818261476
sg15
I01
sbsg16
(imyEvolve
Tree
p42
(dp43
g10
I0
sg14
F1.9102056506736975
sg15
I01
sbsg19
I00
sg20
g21
sbsg16
(imyEvolve
Tree
p44
(dp45
g10
I1
sg11
(imyEvolve
Tree
p46
(dp47
g10
I0
sg15
I00
sbsg16
(imyEvolve
Tree
p48
(dp49
g10
I0
sg14
F4.007756309317996
sg15
I01
sbsg19
I00
sg20
g21
sbsg19
I00
sg20
coperator
add
p50
sbsg16
(imyEvolve
Tree
p51
(dp52
g7
(imyEvolve
Tree
p53
(dp54
g7
(imyEvolve
Tree
p55
(dp56
g10
I0
sg15
I00
sbsg10
I1
sg19
I01
sg20
cmyEvolve
absSqrt
p57
sbsg10
I2
sg19
I01
sg20
cmyEvolve
square
p58
sbsg19
I00
sg20
g21
sbsg19
I00
sg20
g21
sba(imyEvolve
Tree
p59
(dp60
g10
I4
sg11
(imyEvolve
Tree
p61
(dp62
g10
I3
sg11
(imyEvolve
Tree
p63
(dp64
g7
(imyEvolve
Tree
p65
(dp66
g10
I1
sg11
(imyEvolve
Tree
p67
(dp68
g10
I0
sg15
I00
sbsg16
(imyEvolve
Tree
p69
(dp70
g10
I0
sg15
I00
sbsg19
I00
sg20
g50
sbsg10
I2
sg19
I01
sg20
g22
sbsg16
(imyEvolve
Tree
p71
(dp72
g10
I2
sg11
(imyEvolve
Tree
p73
(dp74
g10
I1
sg11
(imyEvolve
Tree
p75
(dp76
g10
I0
sg15
I00
sbsg16
(imyEvolve
Tree
p77
(dp78
g10
I0
sg14
F2.639013734420395
sg15
I01
sbsg19
I00
sg20
g50
sbsg16
(imyEvolve
Tree
p79
(dp80
g10
I1
sg11
(imyEvolve
Tree
p81
(dp82
g10
I0
sg14
F-0.890360319619222
sg15
I01
sbsg16
(imyEvolve
Tree
p83
(dp84
g10
I0
sg15
I00
sbsg19
I00
sg20
coperator
mul
p85
sbsg19
I00
sg20
g21
sbsg19
I00
sg20
g85
sbsg16
(imyEvolve
Tree
p86
(dp87
g10
I3
sg11
(imyEvolve
Tree
p88
(dp89
g10
I2
sg11
(imyEvolve
Tree
p90
(dp91
g7
(imyEvolve
Tree
p92
(dp93
g10
I0
sg15
I00
sbsg10
I1
sg19
I01
sg20
g22
sbsg16
(imyEvolve
Tree
p94
(dp95
g7
(imyEvolve
Tree
p96
(dp97
g10
I0
sg15
I00
sbsg10
I1
sg19
I01
sg20
g57
sbsg19
I00
sg20
g50
sbsg16
(imyEvolve
Tree
p98
(dp99
g10
I2
sg11
(imyEvolve
Tree
p100
(dp101
g7
(imyEvolve
Tree
p102
(dp103
g10
I0
sg14
F-3.4481545809498537
sg15
I01
sbsg10
I1
sg19
I01
sg20
g22
sbsg16
(imyEvolve
Tree
p104
(dp105
g10
I1
sg11
(imyEvolve
Tree
p106
(dp107
g10
I0
sg14
F3.3915909045192354
sg15
I01
sbsg16
(imyEvolve
Tree
p108
(dp109
g10
I0
sg14
F4.359264712502547
sg15
I01
sbsg19
I00
sg20
g21
sbsg19
I00
sg20
g50
sbsg19
I00
sg20
g50
sbsg19
I00
sg20
g85
sba(imyEvolve
Tree
p110
(dp111
g7
(imyEvolve
Tree
p112
(dp113
g10
I2
sg11
(imyEvolve
Tree
p114
(dp115
g7
(imyEvolve
Tree
p116
(dp117
g10
I0
sg15
I00
sbsg10
I1
sg19
I01
sg20
g58
sbsg16
(imyEvolve
Tree
p118
(dp119
g7
(imyEvolve
Tree
p120
(dp121
g10
I0
sg14
F3.16909931319233
sg15
I01
sbsg10
I1
sg19
I01
sg20
g58
sbsg19
I00
sg20
g21
sbsg10
I3
sg19
I01
sg20
g58
sba(imyEvolve
Tree
p122
(dp123
g10
I5
sg11
(imyEvolve
Tree
p124
(dp125
g10
I4
sg11
(imyEvolve
Tree
p126
(dp127
g7
(imyEvolve
Tree
p128
(dp129
g10
I2
sg11
(imyEvolve
Tree
p130
(dp131
g10
I1
sg11
(imyEvolve
Tree
p132
(dp133
g10
I0
sg14
F-1.1162389277348428
sg15
I01
sbsg16
(imyEvolve
Tree
p134
(dp135
g10
I0
sg15
I00
sbsg19
I00
sg20
g50
sbsg16
(imyEvolve
Tree
p136
(dp137
g10
I1
sg11
(imyEvolve
Tree
p138
(dp139
g10
I0
sg14
F-3.788573903464828
sg15
I01
sbsg16
(imyEvolve
Tree
p140
(dp141
g10
I0
sg14
F1.9260812464867723
sg15
I01
sbsg19
I00
sg20
g85
sbsg19
I00
sg20
g21
sbsg10
I3
sg19
I01
sg20
g57
sbsg16
(imyEvolve
Tree
p142
(dp143
g10
I3
sg11
(imyEvolve
Tree
p144
(dp145
g7
(imyEvolve
Tree
p146
(dp147
g7
(imyEvolve
Tree
p148
(dp149
g10
I0
sg15
I00
sbsg10
I1
sg19
I01
sg20
g57
sbsg10
I2
sg19
I01
sg20
g33
sbsg16
(imyEvolve
Tree
p150
(dp151
g10
I2
sg11
(imyEvolve
Tree
p152
(dp153
g7
(imyEvolve
Tree
p154
(dp155
g10
I0
sg15
I00
sbsg10
I1
sg19
I01
sg20
g58
sbsg16
(imyEvolve
Tree
p156
(dp157
g10
I1
sg11
(imyEvolve
Tree
p158
(dp159
g10
I0
sg14
F3.5639849502605507
sg15
I01
sbsg16
(imyEvolve
Tree
p160
(dp161
g10
I0
sg15
I00
sbsg19
I00
sg20
g21
sbsg19
I00
sg20
g21
sbsg19
I00
sg20
g21
sbsg19
I00
sg20
g50
sbsg16
(imyEvolve
Tree
p162
(dp163
g7
(imyEvolve
Tree
p164
(dp165
g10
I3
sg11
(imyEvolve
Tree
p166
(dp167
g7
(imyEvolve
Tree
p168
(dp169
g7
(imyEvolve
Tree
p170
(dp171
g10
I0
sg14
F-1.115710141447642
sg15
I01
sbsg10
I1
sg19
I01
sg20
g57
sbsg10
I2
sg19
I01
sg20
g57
sbsg16
(imyEvolve
Tree
p172
(dp173
g10
I2
sg11
(imyEvolve
Tree
p174
(dp175
g7
(imyEvolve
Tree
p176
(dp177
g10
I0
sg14
F-0.012915033269237597
sg15
I01
sbsg10
I1
sg19
I01
sg20
g33
sbsg16
(imyEvolve
Tree
p178
(dp179
g7
(imyEvolve
Tree
p180
(dp181
g10
I0
sg15
I00
sbsg10
I1
sg19
I01
sg20
g33
sbsg19
I00
sg20
g85
sbsg19
I00
sg20
g21
sbsg10
I4
sg19
I01
sg20
g57
sbsg19
I00
sg20
g50
sba(imyEvolve
Tree
p182
(dp183
g10
I5
sg11
(imyEvolve
Tree
p184
(dp185
g10
I4
sg11
(imyEvolve
Tree
p186
(dp187
g10
I3
sg11
(imyEvolve
Tree
p188
(dp189
g7
(imyEvolve
Tree
p190
(dp191
g10
I1
sg11
(imyEvolve
Tree
p192
(dp193
g10
I0
sg15
I00
sbsg16
(imyEvolve
Tree
p194
(dp195
g10
I0
sg15
I00
sbsg19
I00
sg20
g85
sbsg10
I2
sg19
I01
sg20
g33
sbsg16
(imyEvolve
Tree
p196
(dp197
g7
(imyEvolve
Tree
p198
(dp199
g10
I1
sg11
(imyEvolve
Tree
p200
(dp201
g10
I0
sg15
I00
sbsg16
(imyEvolve
Tree
p202
(dp203
g10
I0
sg14
F-0.12197474359502802
sg15
I01
sbsg19
I00
sg20
g21
sbsg10
I2
sg19
I01
sg20
g22
sbsg19
I00
sg20
g21
sbsg16
(imyEvolve
Tree
p204
(dp205
g10
I3
sg11
(imyEvolve
Tree
p206
(dp207
g7
(imyEvolve
Tree
p208
(dp209
g7
(imyEvolve
Tree
p210
(dp211
g10
I0
sg14
F-0.19268509680498536
sg15
I01
sbsg10
I1
sg19
I01
sg20
g57
sbsg10
I2
sg19
I01
sg20
g22
sbsg16
(imyEvolve
Tree
p212
(dp213
g10
I2
sg11
(imyEvolve
Tree
p214
(dp215
g7
(imyEvolve
Tree
p216
(dp217
g10
I0
sg15
I00
sbsg10
I1
sg19
I01
sg20
g33
sbsg16
(imyEvolve
Tree
p218
(dp219
g10
I1
sg11
(imyEvolve
Tree
p220
(dp221
g10
I0
sg14
F1.565493064180262
sg15
I01
sbsg16
(imyEvolve
Tree
p222
(dp223
g10
I0
sg15
I00
sbsg19
I00
sg20
g21
sbsg19
I00
sg20
g21
sbsg19
I00
sg20
g21
sbsg19
I00
sg20
g21
sbsg16
(imyEvolve
Tree
p224
(dp225
g7
(imyEvolve
Tree
p226
(dp227
g10
I3
sg11
(imyEvolve
Tree
p228
(dp229
g7
(imyEvolve
Tree
p230
(dp231
g7
(imyEvolve
Tree
p232
(dp233
g10
I0
sg15
I00
sbsg10
I1
sg19
I01
sg20
g33
sbsg10
I2
sg19
I01
sg20
g57
sbsg16
(imyEvolve
Tree
p234
(dp235
g7
(imyEvolve
Tree
p236
(dp237
g10
I1
sg11
(imyEvolve
Tree
p238
(dp239
g10
I0
sg15
I00
sbsg16
(imyEvolve
Tree
p240
(dp241
g10
I0
sg14
F-1.458543931576719
sg15
I01
sbsg19
I00
sg20
g85
sbsg10
I2
sg19
I01
sg20
g22
sbsg19
I00
sg20
g85
sbsg10
I4
sg19
I01
sg20
g33
sbsg19
I00
sg20
g85
sba(imyEvolve
Tree
p242
(dp243
g7
(imyEvolve
Tree
p244
(dp245
g7
(imyEvolve
Tree
p246
(dp247
g10
I0
sg15
I00
sbsg10
I1
sg19
I01
sg20
g58
sbsg10
I2
sg19
I01
sg20
g33
sba(imyEvolve
Tree
p248
(dp249
g10
I5
sg11
(imyEvolve
Tree
p250
(dp251
g7
(imyEvolve
Tree
p252
(dp253
g7
(imyEvolve
Tree
p254
(dp255
g7
(imyEvolve
Tree
p256
(dp257
g7
(imyEvolve
Tree
p258
(dp259
g10
I0
sg14
F1.7933601702864337
sg15
I01
sbsg10
I1
sg19
I01
sg20
g22
sbsg10
I2
sg19
I01
sg20
g22
sbsg10
I3
sg19
I01
sg20
g58
sbsg10
I4
sg19
I01
sg20
g58
sbsg16
(imyEvolve
Tree
p260
(dp261
g10
I4
sg11
(imyEvolve
Tree
p262
(dp263
g7
(imyEvolve
Tree
p264
(dp265
g10
I2
sg11
(imyEvolve
Tree
p266
(dp267
g10
I1
sg11
(imyEvolve
Tree
p268
(dp269
g10
I0
sg14
F0.8304620937137255
sg15
I01
sbsg16
(imyEvolve
Tree
p270
(dp271
g10
I0
sg14
F-1.746731011769377
sg15
I01
sbsg19
I00
sg20
g50
sbsg16
(imyEvolve
Tree
p272
(dp273
g10
I1
sg11
(imyEvolve
Tree
p274
(dp275
g10
I0
sg14
F-1.5656714944365238
sg15
I01
sbsg16
(imyEvolve
Tree
p276
(dp277
g10
I0
sg14
F-2.8304610541940534
sg15
I01
sbsg19
I00
sg20
g50
sbsg19
I00
sg20
g21
sbsg10
I3
sg19
I01
sg20
g57
sbsg16
(imyEvolve
Tree
p278
(dp279
g10
I3
sg11
(imyEvolve
Tree
p280
(dp281
g10
I2
sg11
(imyEvolve
Tree
p282
(dp283
g7
(imyEvolve
Tree
p284
(dp285
g10
I0
sg15
I00
sbsg10
I1
sg19
I01
sg20
g57
sbsg16
(imyEvolve
Tree
p286
(dp287
g7
(imyEvolve
Tree
p288
(dp289
g10
I0
sg15
I00
sbsg10
I1
sg19
I01
sg20
g22
sbsg19
I00
sg20
g85
sbsg16
(imyEvolve
Tree
p290
(dp291
g10
I2
sg11
(imyEvolve
Tree
p292
(dp293
g10
I1
sg11
(imyEvolve
Tree
p294
(dp295
g10
I0
sg15
I00
sbsg16
(imyEvolve
Tree
p296
(dp297
g10
I0
sg15
I00
sbsg19
I00
sg20
g85
sbsg16
(imyEvolve
Tree
p298
(dp299
g10
I1
sg11
(imyEvolve
Tree
p300
(dp301
g10
I0
sg14
F0.20520368534778566
sg15
I01
sbsg16
(imyEvolve
Tree
p302
(dp303
g10
I0
sg15
I00
sbsg19
I00
sg20
g85
sbsg19
I00
sg20
g21
sbsg19
I00
sg20
g50
sbsg19
I00
sg20
g85
sbsg19
I00
sg20
g21
sba(imyEvolve
Tree
p304
(dp305
g7
(imyEvolve
Tree
p306
(dp307
g7
(imyEvolve
Tree
p308
(dp309
g7
(imyEvolve
Tree
p310
(dp311
g10
I0
sg15
I00
sbsg10
I1
sg19
I01
sg20
g22
sbsg10
I2
sg19
I01
sg20
g58
sbsg10
I3
sg19
I01
sg20
g22
sba(imyEvolve
Tree
p312
(dp313
g10
I5
sg11
(imyEvolve
Tree
p314
(dp315
g7
(imyEvolve
Tree
p316
(dp317
g7
(imyEvolve
Tree
p318
(dp319
g10
I2
sg11
(imyEvolve
Tree
p320
(dp321
g7
(imyEvolve
Tree
p322
(dp323
g10
I0
sg14
F4.09551314400232
sg15
I01
sbsg10
I1
sg19
I01
sg20
g22
sbsg16
(imyEvolve
Tree
p324
(dp325
g10
I1
sg11
(imyEvolve
Tree
p326
(dp327
g10
I0
sg15
I00
sbsg16
(imyEvolve
Tree
p328
(dp329
g10
I0
sg14
F3.4203121883657612
sg15
I01
sbsg19
I00
sg20
g21
sbsg19
I00
sg20
g50
sbsg10
I3
sg19
I01
sg20
g58
sbsg10
I4
sg19
I01
sg20
g33
sbsg16
(imyEvolve
Tree
p330
(dp331
g10
I4
sg11
(imyEvolve
Tree
p332
(dp333
g7
(imyEvolve
Tree
p334
(dp335
g10
I2
sg11
(imyEvolve
Tree
p336
(dp337
g10
I1
sg11
(imyEvolve
Tree
p338
(dp339
g10
I0
sg14
F0.3510381438111878
sg15
I01
sbsg16
(imyEvolve
Tree
p340
(dp341
g10
I0
sg14
F-1.9217778525503402
sg15
I01
sbsg19
I00
sg20
g50
sbsg16
(imyEvolve
Tree
p342
(dp343
g7
(imyEvolve
Tree
p344
(dp345
g10
I0
sg14
F3.861290523149613
sg15
I01
sbsg10
I1
sg19
I01
sg20
g22
sbsg19
I00
sg20
g50
sbsg10
I3
sg19
I01
sg20
g57
sbsg16
(imyEvolve
Tree
p346
(dp347
g10
I3
sg11
(imyEvolve
Tree
p348
(dp349
g7
(imyEvolve
Tree
p350
(dp351
g10
I1
sg11
(imyEvolve
Tree
p352
(dp353
g10
I0
sg14
F4.704938507870777
sg15
I01
sbsg16
(imyEvolve
Tree
p354
(dp355
g10
I0
sg15
I00
sbsg19
I00
sg20
g85
sbsg10
I2
sg19
I01
sg20
g22
sbsg16
(imyEvolve
Tree
p356
(dp357
g7
(imyEvolve
Tree
p358
(dp359
g7
(imyEvolve
Tree
p360
(dp361
g10
I0
sg15
I00
sbsg10
I1
sg19
I01
sg20
g58
sbsg10
I2
sg19
I01
sg20
g57
sbsg19
I00
sg20
g50
sbsg19
I00
sg20
g50
sbsg19
I00
sg20
g85
sba(imyEvolve
Tree
p362
(dp363
g7
(imyEvolve
Tree
p364
(dp365
g10
I4
sg11
(imyEvolve
Tree
p366
(dp367
g10
I3
sg11
(imyEvolve
Tree
p368
(dp369
g7
(imyEvolve
Tree
p370
(dp371
g7
(imyEvolve
Tree
p372
(dp373
g10
I0
sg15
I00
sbsg10
I1
sg19
I01
sg20
g57
sbsg10
I2
sg19
I01
sg20
g58
sbsg16
(imyEvolve
Tree
p374
(dp375
g10
I2
sg11
(imyEvolve
Tree
p376
(dp377
g10
I1
sg11
(imyEvolve
Tree
p378
(dp379
g10
I0
sg15
I00
sbsg16
(imyEvolve
Tree
p380
(dp381
g10
I0
sg14
F-3.6545016266831154
sg15
I01
sbsg19
I00
sg20
g50
sbsg16
(imyEvolve
Tree
p382
(dp383
g10
I1
sg11
(imyEvolve
Tree
p384
(dp385
g10
I0
sg14
F-3.136091049337905
sg15
I01
sbsg16
(imyEvolve
Tree
p386
(dp387
g10
I0
sg15
I00
sbsg19
I00
sg20
g50
sbsg19
I00
sg20
g85
sbsg19
I00
sg20
g85
sbsg16
(imyEvolve
Tree
p388
(dp389
g7
(imyEvolve
Tree
p390
(dp391
g10
I2
sg11
(imyEvolve
Tree
p392
(dp393
g10
I1
sg11
(imyEvolve
Tree
p394
(dp395
g10
I0
sg14
F2.4274148604539967
sg15
I01
sbsg16
(imyEvolve
Tree
p396
(dp397
g10
I0
sg14
F-0.22373169999052323
sg15
I01
sbsg19
I00
sg20
g85
sbsg16
(imyEvolve
Tree
p398
(dp399
g7
(imyEvolve
Tree
p400
(dp401
g10
I0
sg15
I00
sbsg10
I1
sg19
I01
sg20
g58
sbsg19
I00
sg20
g85
sbsg10
I3
sg19
I01
sg20
g22
sbsg19
I00
sg20
g21
sbsg10
I5
sg19
I01
sg20
g33
sba(imyEvolve
Tree
p402
(dp403
g7
(imyEvolve
Tree
p404
(dp405
g7
(imyEvolve
Tree
p406
(dp407
g7
(imyEvolve
Tree
p408
(dp409
g10
I0
sg14
F4.130415595854394
sg15
I01
sbsg10
I1
sg19
I01
sg20
g33
sbsg10
I2
sg19
I01
sg20
g22
sbsg10
I3
sg19
I01
sg20
g58
sba(imyEvolve
Tree
p410
(dp411
g10
I2
sg11
(imyEvolve
Tree
p412
(dp413
g7
(imyEvolve
Tree
p414
(dp415
g10
I0
sg14
F-3.35153968399999
sg15
I01
sbsg10
I1
sg19
I01
sg20
g58
sbsg16
(imyEvolve
Tree
p416
(dp417
g7
(imyEvolve
Tree
p418
(dp419
g10
I0
sg14
F2.791573819821135
sg15
I01
sbsg10
I1
sg19
I01
sg20
g33
sbsg19
I00
sg20
g21
sba(imyEvolve
Tree
p420
(dp421
g10
I4
sg11
(imyEvolve
Tree
p422
(dp423
g7
(imyEvolve
Tree
p424
(dp425
g7
(imyEvolve
Tree
p426
(dp427
g10
I1
sg11
(imyEvolve
Tree
p428
(dp429
g10
I0
sg15
I00
sbsg16
(imyEvolve
Tree
p430
(dp431
g10
I0
sg15
I00
sbsg19
I00
sg20
g21
sbsg10
I2
sg19
I01
sg20
g22
sbsg10
I3
sg19
I01
sg20
g58
sbsg16
(imyEvolve
Tree
p432
(dp433
g7
(imyEvolve
Tree
p434
(dp435
g10
I2
sg11
(imyEvolve
Tree
p436
(dp437
g10
I1
sg11
(imyEvolve
Tree
p438
(dp439
g10
I0
sg14
F-1.8154136903632354
sg15
I01
sbsg16
(imyEvolve
Tree
p440
(dp441
g10
I0
sg15
I00
sbsg19
I00
sg20
g50
sbsg16
(imyEvolve
Tree
p442
(dp443
g10
I1
sg11
(imyEvolve
Tree
p444
(dp445
g10
I0
sg14
F-1.6216911915381793
sg15
I01
sbsg16
(imyEvolve
Tree
p446
(dp447
g10
I0
sg15
I00
sbsg19
I00
sg20
g50
sbsg19
I00
sg20
g50
sbsg10
I3
sg19
I01
sg20
g58
sbsg19
I00
sg20
g21
sba(imyEvolve
Tree
p448
(dp449
g7
(imyEvolve
Tree
p450
(dp451
g7
(imyEvolve
Tree
p452
(dp453
g10
I3
sg11
(imyEvolve
Tree
p454
(dp455
g10
I2
sg11
(imyEvolve
Tree
p456
(dp457
g10
I1
sg11
(imyEvolve
Tree
p458
(dp459
g10
I0
sg15
I00
sbsg16
(imyEvolve
Tree
p460
(dp461
g10
I0
sg15
I00
sbsg19
I00
sg20
g21
sbsg16
(imyEvolve
Tree
p462
(dp463
g10
I1
sg11
(imyEvolve
Tree
p464
(dp465
g10
I0
sg14
F1.5366722837574898
sg15
I01
sbsg16
(imyEvolve
Tree
p466
(dp467
g10
I0
sg15
I00
sbsg19
I00
sg20
g21
sbsg19
I00
sg20
g85
sbsg16
(imyEvolve
Tree
p468
(dp469
g7
(imyEvolve
Tree
p470
(dp471
g10
I1
sg11
(imyEvolve
Tree
p472
(dp473
g10
I0
sg15
I00
sbsg16
(imyEvolve
Tree
p474
(dp475
g10
I0
sg14
F-1.8449670055149303
sg15
I01
sbsg19
I00
sg20
g21
sbsg10
I2
sg19
I01
sg20
g58
sbsg19
I00
sg20
g85
sbsg10
I4
sg19
I01
sg20
g58
sbsg10
I5
sg19
I01
sg20
g22
sba(imyEvolve
Tree
p476
(dp477
g7
(imyEvolve
Tree
p478
(dp479
g7
(imyEvolve
Tree
p480
(dp481
g10
I3
sg11
(imyEvolve
Tree
p482
(dp483
g7
(imyEvolve
Tree
p484
(dp485
g7
(imyEvolve
Tree
p486
(dp487
g10
I0
sg15
I00
sbsg10
I1
sg19
I01
sg20
g22
sbsg10
I2
sg19
I01
sg20
g33
sbsg16
(imyEvolve
Tree
p488
(dp489
g10
I2
sg11
(imyEvolve
Tree
p490
(dp491
g10
I1
sg11
(imyEvolve
Tree
p492
(dp493
g10
I0
sg15
I00
sbsg16
(imyEvolve
Tree
p494
(dp495
g10
I0
sg15
I00
sbsg19
I00
sg20
g50
sbsg16
(imyEvolve
Tree
p496
(dp497
g10
I1
sg11
(imyEvolve
Tree
p498
(dp499
g10
I0
sg15
I00
sbsg16
(imyEvolve
Tree
p500
(dp501
g10
I0
sg15
I00
sbsg19
I00
sg20
g50
sbsg19
I00
sg20
g85
sbsg19
I00
sg20
g50
sbsg10
I4
sg19
I01
sg20
g57
sbsg10
I5
sg19
I01
sg20
g57
sba(imyEvolve
Tree
p502
(dp503
g7
(imyEvolve
Tree
p504
(dp505
g7
(imyEvolve
Tree
p506
(dp507
g7
(imyEvolve
Tree
p508
(dp509
g10
I0
sg14
F0.3555395769152021
sg15
I01
sbsg10
I1
sg19
I01
sg20
g33
sbsg10
I2
sg19
I01
sg20
g57
sbsg10
I3
sg19
I01
sg20
g58
sba(imyEvolve
Tree
p510
(dp511
g10
I2
sg11
(imyEvolve
Tree
p512
(dp513
g7
(imyEvolve
Tree
p514
(dp515
g10
I0
sg14
F4.304029643007258
sg15
I01
sbsg10
I1
sg19
I01
sg20
g33
sbsg16
(imyEvolve
Tree
p516
(dp517
g7
(imyEvolve
Tree
p518
(dp519
g10
I0
sg15
I00
sbsg10
I1
sg19
I01
sg20
g58
sbsg19
I00
sg20
g85
sbaa(lp520
(imyEvolve
Tree
p521
(dp522
g7
(imyEvolve
Tree
p523
(dp524
g10
I4
sg11
(imyEvolve
Tree
p525
(dp526
g10
I3
sg11
(imyEvolve
Tree
p527
(dp528
g7
(imyEvolve
Tree
p529
(dp530
g7
(imyEvolve
Tree
p531
(dp532
g10
I0
sg14
F0.9629230298448652
sg15
I01
sbsg10
I1
sg19
I01
sg20
g58
sbsg10
I2
sg19
I01
sg20
g57
sbsg16
(imyEvolve
Tree
p533
(dp534
g7
(imyEvolve
Tree
p535
(dp536
g7
(imyEvolve
Tree
p537
(dp538
g10
I0
sg14
F-1.6575691685881146
sg15
I01
sbsg10
I1
sg19
I01
sg20
g22
sbsg10
I2
sg19
I01
sg20
g33
sbsg19
I00
sg20
g85
sbsg16
(imyEvolve
Tree
p539
(dp540
g10
I3
sg11
(imyEvolve
Tree
p541
(dp542
g7
(imyEvolve
Tree
p543
(dp544
g7
(imyEvolve
Tree
p545
(dp546
g10
I0
sg15
I00
sbsg10
I1
sg19
I01
sg20
g58
sbsg10
I2
sg19
I01
sg20
g33
sbsg16
(imyEvolve
Tree
p547
(dp548
g7
(imyEvolve
Tree
p549
(dp550
g7
(imyEvolve
Tree
p551
(dp552
g10
I0
sg15
I00
sbsg10
I1
sg19
I01
sg20
g57
sbsg10
I2
sg19
I01
sg20
g57
sbsg19
I00
sg20
g50
sbsg19
I00
sg20
g21
sbsg10
I5
sg19
I01
sg20
g22
sba(imyEvolve
Tree
p553
(dp554
g10
I4
sg11
(imyEvolve
Tree
p555
(dp556
g10
I3
sg11
(imyEvolve
Tree
p557
(dp558
g10
I2
sg11
(imyEvolve
Tree
p559
(dp560
g7
(imyEvolve
Tree
p561
(dp562
g10
I0
sg15
I00
sbsg10
I1
sg19
I01
sg20
g33
sbsg16
(imyEvolve
Tree
p563
(dp564
g10
I1
sg11
(imyEvolve
Tree
p565
(dp566
g10
I0
sg15
I00
sbsg16
(imyEvolve
Tree
p567
(dp568
g10
I0
sg14
F-1.9065422535758216
sg15
I01
sbsg19
I00
sg20
g50
sbsg19
I00
sg20
g21
sbsg16
(imyEvolve
Tree
p569
(dp570
g7
(imyEvolve
Tree
p571
(dp572
g10
I1
sg11
(imyEvolve
Tree
p573
(dp574
g10
I0
sg15
I00
sbsg16
(imyEvolve
Tree
p575
(dp576
g10
I0
sg15
I00
sbsg19
I00
sg20
g21
sbsg10
I2
sg19
I01
sg20
g57
sbsg19
I00
sg20
g50
sbsg16
(imyEvolve
Tree
p577
(dp578
g10
I3
sg11
(imyEvolve
Tree
p579
(dp580
g10
I2
sg11
(imyEvolve
Tree
p581
(dp582
g10
I1
sg11
(imyEvolve
Tree
p583
(dp584
g10
I0
sg14
F-2.0045435542134205
sg15
I01
sbsg16
(imyEvolve
Tree
p585
(dp586
g10
I0
sg14
F4.579262587771215
sg15
I01
sbsg19
I00
sg20
g50
sbsg16
(imyEvolve
Tree
p587
(dp588
g7
(imyEvolve
Tree
p589
(dp590
g10
I0
sg14
F-4.272242533308198
sg15
I01
sbsg10
I1
sg19
I01
sg20
g57
sbsg19
I00
sg20
g85
sbsg16
(imyEvolve
Tree
p591
(dp592
g7
(imyEvolve
Tree
p593
(dp594
g10
I1
sg11
(imyEvolve
Tree
p595
(dp596
g10
I0
sg14
F-3.68449473387778
sg15
I01
sbsg16
(imyEvolve
Tree
p597
(dp598
g10
I0
sg15
I00
sbsg19
I00
sg20
g21
sbsg10
I2
sg19
I01
sg20
g22
sbsg19
I00
sg20
g50
sbsg19
I00
sg20
g85
sba(imyEvolve
Tree
p599
(dp600
g7
(imyEvolve
Tree
p601
(dp602
g7
(imyEvolve
Tree
p603
(dp604
g7
(imyEvolve
Tree
p605
(dp606
g10
I1
sg11
(imyEvolve
Tree
p607
(dp608
g10
I0
sg14
F-0.1740518671019764
sg15
I01
sbsg16
(imyEvolve
Tree
p609
(dp610
g10
I0
sg14
F-1.7835526795174417
sg15
I01
sbsg19
I00
sg20
g21
sbsg10
I2
sg19
I01
sg20
g57
sbsg10
I3
sg19
I01
sg20
g57
sbsg10
I4
sg19
I01
sg20
g33
sba(imyEvolve
Tree
p611
(dp612
g10
I3
sg11
(imyEvolve
Tree
p613
(dp614
g10
I2
sg11
(imyEvolve
Tree
p615
(dp616
g7
(imyEvolve
Tree
p617
(dp618
g10
I0
sg14
F-4.25789095905915
sg15
I01
sbsg10
I1
sg19
I01
sg20
g58
sbsg16
(imyEvolve
Tree
p619
(dp620
g7
(imyEvolve
Tree
p621
(dp622
g10
I0
sg14
F-2.6860894392182755
sg15
I01
sbsg10
I1
sg19
I01
sg20
g33
sbsg19
I00
sg20
g85
sbsg16
(imyEvolve
Tree
p623
(dp624
g10
I2
sg11
(imyEvolve
Tree
p625
(dp626
g7
(imyEvolve
Tree
p627
(dp628
g10
I0
sg14
F4.256716183084206
sg15
I01
sbsg10
I1
sg19
I01
sg20
g33
sbsg16
(imyEvolve
Tree
p629
(dp630
g10
I1
sg11
(imyEvolve
Tree
p631
(dp632
g10
I0
sg14
F1.8933337149574232
sg15
I01
sbsg16
(imyEvolve
Tree
p633
(dp634
g10
I0
sg14
F-2.575137248228417
sg15
I01
sbsg19
I00
sg20
g85
sbsg19
I00
sg20
g21
sbsg19
I00
sg20
g85
sba(imyEvolve
Tree
p635
(dp636
g10
I5
sg11
(imyEvolve
Tree
p637
(dp638
g7
(imyEvolve
Tree
p639
(dp640
g10
I3
sg11
(imyEvolve
Tree
p641
(dp642
g10
I2
sg11
(imyEvolve
Tree
p643
(dp644
g7
(imyEvolve
Tree
p645
(dp646
g10
I0
sg14
F-4.724357110125083
sg15
I01
sbsg10
I1
sg19
I01
sg20
g33
sbsg16
(imyEvolve
Tree
p647
(dp648
g7
(imyEvolve
Tree
p649
(dp650
g10
I0
sg14
F-1.0096624522256095
sg15
I01
sbsg10
I1
sg19
I01
sg20
g22
sbsg19
I00
sg20
g50
sbsg16
(imyEvolve
Tree
p651
(dp652
g10
I2
sg11
(imyEvolve
Tree
p653
(dp654
g10
I1
sg11
(imyEvolve
Tree
p655
(dp656
g10
I0
sg14
F4.6942417767445725
sg15
I01
sbsg16
(imyEvolve
Tree
p657
(dp658
g10
I0
sg15
I00
sbsg19
I00
sg20
g85
sbsg16
(imyEvolve
Tree
p659
(dp660
g7
(imyEvolve
Tree
p661
(dp662
g10
I0
sg15
I00
sbsg10
I1
sg19
I01
sg20
g57
sbsg19
I00
sg20
g50
sbsg19
I00
sg20
g21
sbsg10
I4
sg19
I01
sg20
g22
sbsg16
(imyEvolve
Tree
p663
(dp664
g10
I4
sg11
(imyEvolve
Tree
p665
(dp666
g7
(imyEvolve
Tree
p667
(dp668
g7
(imyEvolve
Tree
p669
(dp670
g10
I1
sg11
(imyEvolve
Tree
p671
(dp672
g10
I0
sg14
F-4.2443342991302115
sg15
I01
sbsg16
(imyEvolve
Tree
p673
(dp674
g10
I0
sg14
F3.6298292940662584
sg15
I01
sbsg19
I00
sg20
g50
sbsg10
I2
sg19
I01
sg20
g33
sbsg10
I3
sg19
I01
sg20
g22
sbsg16
(imyEvolve
Tree
p675
(dp676
g10
I3
sg11
(imyEvolve
Tree
p677
(dp678
g7
(imyEvolve
Tree
p679
(dp680
g10
I1
sg11
(imyEvolve
Tree
p681
(dp682
g10
I0
sg15
I00
sbsg16
(imyEvolve
Tree
p683
(dp684
g10
I0
sg15
I00
sbsg19
I00
sg20
g85
sbsg10
I2
sg19
I01
sg20
g22
sbsg16
(imyEvolve
Tree
p685
(dp686
g10
I2
sg11
(imyEvolve
Tree
p687
(dp688
g7
(imyEvolve
Tree
p689
(dp690
g10
I0
sg14
F-1.8749409294621557
sg15
I01
sbsg10
I1
sg19
I01
sg20
g33
sbsg16
(imyEvolve
Tree
p691
(dp692
g10
I1
sg11
(imyEvolve
Tree
p693
(dp694
g10
I0
sg15
I00
sbsg16
(imyEvolve
Tree
p695
(dp696
g10
I0
sg15
I00
sbsg19
I00
sg20
g21
sbsg19
I00
sg20
g21
sbsg19
I00
sg20
g21
sbsg19
I00
sg20
g21
sbsg19
I00
sg20
g21
sba(imyEvolve
Tree
p697
(dp698
g7
(imyEvolve
Tree
p699
(dp700
g7
(imyEvolve
Tree
p701
(dp702
g7
(imyEvolve
Tree
p703
(dp704
g10
I0
sg14
F-3.033435363898902
sg15
I01
sbsg10
I1
sg19
I01
sg20
g22
sbsg10
I2
sg19
I01
sg20
g22
sbsg10
I3
sg19
I01
sg20
g33
sba(imyEvolve
Tree
p705
(dp706
g7
(imyEvolve
Tree
p707
(dp708
g10
I4
sg11
(imyEvolve
Tree
p709
(dp710
g7
(imyEvolve
Tree
p711
(dp712
g7
(imyEvolve
Tree
p713
(dp714
g7
(imyEvolve
Tree
p715
(dp716
g10
I0
sg14
F1.599214386299563
sg15
I01
sbsg10
I1
sg19
I01
sg20
g58
sbsg10
I2
sg19
I01
sg20
g33
sbsg10
I3
sg19
I01
sg20
g57
sbsg16
(imyEvolve
Tree
p717
(dp718
g10
I3
sg11
(imyEvolve
Tree
p719
(dp720
g10
I2
sg11
(imyEvolve
Tree
p721
(dp722
g7
(imyEvolve
Tree
p723
(dp724
g10
I0
sg14
F1.8808432268619724
sg15
I01
sbsg10
I1
sg19
I01
sg20
g58
sbsg16
(imyEvolve
Tree
p725
(dp726
g7
(imyEvolve
Tree
p727
(dp728
g10
I0
sg14
F4.291506392905658
sg15
I01
sbsg10
I1
sg19
I01
sg20
g58
sbsg19
I00
sg20
g50
sbsg16
(imyEvolve
Tree
p729
(dp730
g7
(imyEvolve
Tree
p731
(dp732
g7
(imyEvolve
Tree
p733
(dp734
g10
I0
sg15
I00
sbsg10
I1
sg19
I01
sg20
g33
sbsg10
I2
sg19
I01
sg20
g58
sbsg19
I00
sg20
g50
sbsg19
I00
sg20
g50
sbsg10
I5
sg19
I01
sg20
g58
sba(imyEvolve
Tree
p735
(dp736
g10
I5
sg11
(imyEvolve
Tree
p737
(dp738
g7
(imyEvolve
Tree
p739
(dp740
g7
(imyEvolve
Tree
p741
(dp742
g7
(imyEvolve
Tree
p743
(dp744
g7
(imyEvolve
Tree
p745
(dp746
g10
I0
sg15
I00
sbsg10
I1
sg19
I01
sg20
g57
sbsg10
I2
sg19
I01
sg20
g22
sbsg10
I3
sg19
I01
sg20
g58
sbsg10
I4
sg19
I01
sg20
g57
sbsg16
(imyEvolve
Tree
p747
(dp748
g10
I4
sg11
(imyEvolve
Tree
p749
(dp750
g10
I3
sg11
(imyEvolve
Tree
p751
(dp752
g10
I2
sg11
(imyEvolve
Tree
p753
(dp754
g10
I1
sg11
(imyEvolve
Tree
p755
(dp756
g10
I0
sg14
F4.637393127771622
sg15
I01
sbsg16
(imyEvolve
Tree
p757
(dp758
g10
I0
sg14
F3.916023270643951
sg15
I01
sbsg19
I00
sg20
g21
sbsg16
(imyEvolve
Tree
p759
(dp760
g10
I1
sg11
(imyEvolve
Tree
p761
(dp762
g10
I0
sg14
F3.4161724278310466
sg15
I01
sbsg16
(imyEvolve
Tree
p763
(dp764
g10
I0
sg14
F-1.6080856669508234
sg15
I01
sbsg19
I00
sg20
g21
sbsg19
I00
sg20
g50
sbsg16
(imyEvolve
Tree
p765
(dp766
g10
I2
sg11
(imyEvolve
Tree
p767
(dp768
g7
(imyEvolve
Tree
p769
(dp770
g10
I0
sg15
I00
sbsg10
I1
sg19
I01
sg20
g57
sbsg16
(imyEvolve
Tree
p771
(dp772
g10
I1
sg11
(imyEvolve
Tree
p773
(dp774
g10
I0
sg14
F2.80342071174461
sg15
I01
sbsg16
(imyEvolve
Tree
p775
(dp776
g10
I0
sg15
I00
sbsg19
I00
sg20
g50
sbsg19
I00
sg20
g21
sbsg19
I00
sg20
g21
sbsg16
(imyEvolve
Tree
p777
(dp778
g10
I3
sg11
(imyEvolve
Tree
p779
(dp780
g7
(imyEvolve
Tree
p781
(dp782
g7
(imyEvolve
Tree
p783
(dp784
g10
I0
sg14
F4.804807304745728
sg15
I01
sbsg10
I1
sg19
I01
sg20
g58
sbsg10
I2
sg19
I01
sg20
g33
sbsg16
(imyEvolve
Tree
p785
(dp786
g10
I2
sg11
(imyEvolve
Tree
p787
(dp788
g10
I1
sg11
(imyEvolve
Tree
p789
(dp790
g10
I0
sg14
F3.311562326211847
sg15
I01
sbsg16
(imyEvolve
Tree
p791
(dp792
g10
I0
sg15
I00
sbsg19
I00
sg20
g85
sbsg16
(imyEvolve
Tree
p793
(dp794
g7
(imyEvolve
Tree
p795
(dp796
g10
I0
sg15
I00
sbsg10
I1
sg19
I01
sg20
g58
sbsg19
I00
sg20
g50
sbsg19
I00
sg20
g21
sbsg19
I00
sg20
g21
sbsg19
I00
sg20
g85
sba(imyEvolve
Tree
p797
(dp798
g10
I2
sg11
(imyEvolve
Tree
p799
(dp800
g7
(imyEvolve
Tree
p801
(dp802
g10
I0
sg14
F2.718685142039167
sg15
I01
sbsg10
I1
sg19
I01
sg20
g33
sbsg16
(imyEvolve
Tree
p803
(dp804
g7
(imyEvolve
Tree
p805
(dp806
g10
I0
sg14
F3.548578826160796
sg15
I01
sbsg10
I1
sg19
I01
sg20
g33
sbsg19
I00
sg20
g85
sba(imyEvolve
Tree
p807
(dp808
g10
I5
sg11
(imyEvolve
Tree
p809
(dp810
g7
(imyEvolve
Tree
p811
(dp812
g10
I3
sg11
(imyEvolve
Tree
p813
(dp814
g10
I2
sg11
(imyEvolve
Tree
p815
(dp816
g10
I1
sg11
(imyEvolve
Tree
p817
(dp818
g10
I0
sg14
F-0.2029138392065022
sg15
I01
sbsg16
(imyEvolve
Tree
p819
(dp820
g10
I0
sg15
I00
sbsg19
I00
sg20
g85
sbsg16
(imyEvolve
Tree
p821
(dp822
g10
I1
sg11
(imyEvolve
Tree
p823
(dp824
g10
I0
sg15
I00
sbsg16
(imyEvolve
Tree
p825
(dp826
g10
I0
sg15
I00
sbsg19
I00
sg20
g21
sbsg19
I00
sg20
g85
sbsg16
(imyEvolve
Tree
p827
(dp828
g10
I2
sg11
(imyEvolve
Tree
p829
(dp830
g7
(imyEvolve
Tree
p831
(dp832
g10
I0
sg15
I00
sbsg10
I1
sg19
I01
sg20
g22
sbsg16
(imyEvolve
Tree
p833
(dp834
g7
(imyEvolve
Tree
p835
(dp836
g10
I0
sg14
F2.035353541926172
sg15
I01
sbsg10
I1
sg19
I01
sg20
g58
sbsg19
I00
sg20
g85
sbsg19
I00
sg20
g85
sbsg10
I4
sg19
I01
sg20
g57
sbsg16
(imyEvolve
Tree
p837
(dp838
g10
I4
sg11
(imyEvolve
Tree
p839
(dp840
g10
I3
sg11
(imyEvolve
Tree
p841
(dp842
g10
I2
sg11
(imyEvolve
Tree
p843
(dp844
g10
I1
sg11
(imyEvolve
Tree
p845
(dp846
g10
I0
sg15
I00
sbsg16
(imyEvolve
Tree
p847
(dp848
g10
I0
sg15
I00
sbsg19
I00
sg20
g85
sbsg16
(imyEvolve
Tree
p849
(dp850
g10
I1
sg11
(imyEvolve
Tree
p851
(dp852
g10
I0
sg15
I00
sbsg16
(imyEvolve
Tree
p853
(dp854
g10
I0
sg15
I00
sbsg19
I00
sg20
g50
sbsg19
I00
sg20
g21
sbsg16
(imyEvolve
Tree
p855
(dp856
g7
(imyEvolve
Tree
p857
(dp858
g7
(imyEvolve
Tree
p859
(dp860
g10
I0
sg14
F0.8165528825839354
sg15
I01
sbsg10
I1
sg19
I01
sg20
g57
sbsg10
I2
sg19
I01
sg20
g57
sbsg19
I00
sg20
g21
sbsg16
(imyEvolve
Tree
p861
(dp862
g10
I3
sg11
(imyEvolve
Tree
p863
(dp864
g7
(imyEvolve
Tree
p865
(dp866
g10
I1
sg11
(imyEvolve
Tree
p867
(dp868
g10
I0
sg15
I00
sbsg16
(imyEvolve
Tree
p869
(dp870
g10
I0
sg15
I00
sbsg19
I00
sg20
g85
sbsg10
I2
sg19
I01
sg20
g58
sbsg16
(imyEvolve
Tree
p871
(dp872
g7
(imyEvolve
Tree
p873
(dp874
g7
(imyEvolve
Tree
p875
(dp876
g10
I0
sg14
F-1.1252176649774217
sg15
I01
sbsg10
I1
sg19
I01
sg20
g57
sbsg10
I2
sg19
I01
sg20
g58
sbsg19
I00
sg20
g21
sbsg19
I00
sg20
g85
sbsg19
I00
sg20
g85
sbaa(lp877
(imyEvolve
Tree
p878
(dp879
g7
(imyEvolve
Tree
p880
(dp881
g10
I1
sg11
(imyEvolve
Tree
p882
(dp883
g10
I0
sg15
I00
sbsg16
(imyEvolve
Tree
p884
(dp885
g10
I0
sg15
I00
sbsg19
I00
sg20
g50
sbsg10
I2
sg19
I01
sg20
g22
sba(imyEvolve
Tree
p886
(dp887
g7
(imyEvolve
Tree
p888
(dp889
g10
I2
sg11
(imyEvolve
Tree
p890
(dp891
g7
(imyEvolve
Tree
p892
(dp893
g10
I0
sg14
F-2.646589704056966
sg15
I01
sbsg10
I1
sg19
I01
sg20
g58
sbsg16
(imyEvolve
Tree
p894
(dp895
g7
(imyEvolve
Tree
p896
(dp897
g10
I0
sg15
I00
sbsg10
I1
sg19
I01
sg20
g57
sbsg19
I00
sg20
g85
sbsg10
I3
sg19
I01
sg20
g58
sba(imyEvolve
Tree
p898
(dp899
g10
I2
sg11
(imyEvolve
Tree
p900
(dp901
g10
I1
sg11
(imyEvolve
Tree
p902
(dp903
g10
I0
sg14
F4.1297935980041665
sg15
I01
sbsg16
(imyEvolve
Tree
p904
(dp905
g10
I0
sg14
F-3.634646426124716
sg15
I01
sbsg19
I00
sg20
g85
sbsg16
(imyEvolve
Tree
p906
(dp907
g7
(imyEvolve
Tree
p908
(dp909
g10
I0
sg15
I00
sbsg10
I1
sg19
I01
sg20
g57
sbsg19
I00
sg20
g21
sba(imyEvolve
Tree
p910
(dp911
g10
I4
sg11
(imyEvolve
Tree
p912
(dp913
g10
I3
sg11
(imyEvolve
Tree
p914
(dp915
g7
(imyEvolve
Tree
p916
(dp917
g7
(imyEvolve
Tree
p918
(dp919
g10
I0
sg15
I00
sbsg10
I1
sg19
I01
sg20
g22
sbsg10
I2
sg19
I01
sg20
g58
sbsg16
(imyEvolve
Tree
p920
(dp921
g7
(imyEvolve
Tree
p922
(dp923
g10
I1
sg11
(imyEvolve
Tree
p924
(dp925
g10
I0
sg14
F4.011903043301745
sg15
I01
sbsg16
(imyEvolve
Tree
p926
(dp927
g10
I0
sg14
F-0.9603576492912849
sg15
I01
sbsg19
I00
sg20
g85
sbsg10
I2
sg19
I01
sg20
g57
sbsg19
I00
sg20
g50
sbsg16
(imyEvolve
Tree
p928
(dp929
g10
I3
sg11
(imyEvolve
Tree
p930
(dp931
g10
I2
sg11
(imyEvolve
Tree
p932
(dp933
g10
I1
sg11
(imyEvolve
Tree
p934
(dp935
g10
I0
sg15
I00
sbsg16
(imyEvolve
Tree
p936
(dp937
g10
I0
sg15
I00
sbsg19
I00
sg20
g50
sbsg16
(imyEvolve
Tree
p938
(dp939
g10
I1
sg11
(imyEvolve
Tree
p940
(dp941
g10
I0
sg14
F-0.17566008699190938
sg15
I01
sbsg16
(imyEvolve
Tree
p942
(dp943
g10
I0
sg14
F-4.8238973225569435
sg15
I01
sbsg19
I00
sg20
g50
sbsg19
I00
sg20
g50
sbsg16
(imyEvolve
Tree
p944
(dp945
g7
(imyEvolve
Tree
p946
(dp947
g7
(imyEvolve
Tree
p948
(dp949
g10
I0
sg15
I00
sbsg10
I1
sg19
I01
sg20
g33
sbsg10
I2
sg19
I01
sg20
g33
sbsg19
I00
sg20
g50
sbsg19
I00
sg20
g21
sba(imyEvolve
Tree
p950
(dp951
g7
(imyEvolve
Tree
p952
(dp953
g7
(imyEvolve
Tree
p954
(dp955
g10
I0
sg14
F-0.20145995433266872
sg15
I01
sbsg10
I1
sg19
I01
sg20
g22
sbsg10
I2
sg19
I01
sg20
g22
sba(imyEvolve
Tree
p956
(dp957
g10
I4
sg11
(imyEvolve
Tree
p958
(dp959
g10
I3
sg11
(imyEvolve
Tree
p960
(dp961
g10
I2
sg11
(imyEvolve
Tree
p962
(dp963
g10
I1
sg11
(imyEvolve
Tree
p964
(dp965
g10
I0
sg14
F-2.5771035017406385
sg15
I01
sbsg16
(imyEvolve
Tree
p966
(dp967
g10
I0
sg15
I00
sbsg19
I00
sg20
g21
sbsg16
(imyEvolve
Tree
p968
(dp969
g7
(imyEvolve
Tree
p970
(dp971
g10
I0
sg14
F-2.264885532468759
sg15
I01
sbsg10
I1
sg19
I01
sg20
g33
sbsg19
I00
sg20
g85
sbsg16
(imyEvolve
Tree
p972
(dp973
g7
(imyEvolve
Tree
p974
(dp975
g10
I1
sg11
(imyEvolve
Tree
p976
(dp977
g10
I0
sg14
F3.4968800919148606
sg15
I01
sbsg16
(imyEvolve
Tree
p978
(dp979
g10
I0
sg14
F2.9496842271385484
sg15
I01
sbsg19
I00
sg20
g50
sbsg10
I2
sg19
I01
sg20
g22
sbsg19
I00
sg20
g85
sbsg16
(imyEvolve
Tree
p980
(dp981
g7
(imyEvolve
Tree
p982
(dp983
g7
(imyEvolve
Tree
p984
(dp985
g7
(imyEvolve
Tree
p986
(dp987
g10
I0
sg14
F-3.271600400722021
sg15
I01
sbsg10
I1
sg19
I01
sg20
g33
sbsg10
I2
sg19
I01
sg20
g33
sbsg10
I3
sg19
I01
sg20
g33
sbsg19
I00
sg20
g50
sba(imyEvolve
Tree
p988
(dp989
g7
(imyEvolve
Tree
p990
(dp991
g10
I3
sg11
(imyEvolve
Tree
p992
(dp993
g7
(imyEvolve
Tree
p994
(dp995
g10
I1
sg11
(imyEvolve
Tree
p996
(dp997
g10
I0
sg15
I00
sbsg16
(imyEvolve
Tree
p998
(dp999
g10
I0
sg15
I00
sbsg19
I00
sg20
g21
sbsg10
I2
sg19
I01
sg20
g22
sbsg16
(imyEvolve
Tree
p1000
(dp1001
g7
(imyEvolve
Tree
p1002
(dp1003
g7
(imyEvolve
Tree
p1004
(dp1005
g10
I0
sg14
F4.159345479718336
sg15
I01
sbsg10
I1
sg19
I01
sg20
g22
sbsg10
I2
sg19
I01
sg20
g58
sbsg19
I00
sg20
g50
sbsg10
I4
sg19
I01
sg20
g57
sba(imyEvolve
Tree
p1006
(dp1007
g7
(imyEvolve
Tree
p1008
(dp1009
g10
I4
sg11
(imyEvolve
Tree
p1010
(dp1011
g7
(imyEvolve
Tree
p1012
(dp1013
g10
I2
sg11
(imyEvolve
Tree
p1014
(dp1015
g7
(imyEvolve
Tree
p1016
(dp1017
g10
I0
sg15
I00
sbsg10
I1
sg19
I01
sg20
g33
sbsg16
(imyEvolve
Tree
p1018
(dp1019
g7
(imyEvolve
Tree
p1020
(dp1021
g10
I0
sg14
F-2.436336735855169
sg15
I01
sbsg10
I1
sg19
I01
sg20
g22
sbsg19
I00
sg20
g50
sbsg10
I3
sg19
I01
sg20
g57
sbsg16
(imyEvolve
Tree
p1022
(dp1023
g10
I3
sg11
(imyEvolve
Tree
p1024
(dp1025
g10
I2
sg11
(imyEvolve
Tree
p1026
(dp1027
g7
(imyEvolve
Tree
p1028
(dp1029
g10
I0
sg14
F4.646755181187034
sg15
I01
sbsg10
I1
sg19
I01
sg20
g58
sbsg16
(imyEvolve
Tree
p1030
(dp1031
g10
I1
sg11
(imyEvolve
Tree
p1032
(dp1033
g10
I0
sg14
F1.8853054059600671
sg15
I01
sbsg16
(imyEvolve
Tree
p1034
(dp1035
g10
I0
sg15
I00
sbsg19
I00
sg20
g85
sbsg19
I00
sg20
g21
sbsg16
(imyEvolve
Tree
p1036
(dp1037
g7
(imyEvolve
Tree
p1038
(dp1039
g7
(imyEvolve
Tree
p1040
(dp1041
g10
I0
sg14
F1.975091033240525
sg15
I01
sbsg10
I1
sg19
I01
sg20
g33
sbsg10
I2
sg19
I01
sg20
g58
sbsg19
I00
sg20
g50
sbsg19
I00
sg20
g21
sbsg10
I5
sg19
I01
sg20
g22
sba(imyEvolve
Tree
p1042
(dp1043
g10
I4
sg11
(imyEvolve
Tree
p1044
(dp1045
g10
I3
sg11
(imyEvolve
Tree
p1046
(dp1047
g7
(imyEvolve
Tree
p1048
(dp1049
g7
(imyEvolve
Tree
p1050
(dp1051
g10
I0
sg15
I00
sbsg10
I1
sg19
I01
sg20
g58
sbsg10
I2
sg19
I01
sg20
g33
sbsg16
(imyEvolve
Tree
p1052
(dp1053
g7
(imyEvolve
Tree
p1054
(dp1055
g10
I1
sg11
(imyEvolve
Tree
p1056
(dp1057
g10
I0
sg15
I00
sbsg16
(imyEvolve
Tree
p1058
(dp1059
g10
I0
sg15
I00
sbsg19
I00
sg20
g21
sbsg10
I2
sg19
I01
sg20
g22
sbsg19
I00
sg20
g50
sbsg16
(imyEvolve
Tree
p1060
(dp1061
g10
I3
sg11
(imyEvolve
Tree
p1062
(dp1063
g7
(imyEvolve
Tree
p1064
(dp1065
g7
(imyEvolve
Tree
p1066
(dp1067
g10
I0
sg15
I00
sbsg10
I1
sg19
I01
sg20
g57
sbsg10
I2
sg19
I01
sg20
g22
sbsg16
(imyEvolve
Tree
p1068
(dp1069
g7
(imyEvolve
Tree
p1070
(dp1071
g7
(imyEvolve
Tree
p1072
(dp1073
g10
I0
sg14
F4.170761109911966
sg15
I01
sbsg10
I1
sg19
I01
sg20
g58
sbsg10
I2
sg19
I01
sg20
g57
sbsg19
I00
sg20
g21
sbsg19
I00
sg20
g85
sba(imyEvolve
Tree
p1074
(dp1075
g10
I3
sg11
(imyEvolve
Tree
p1076
(dp1077
g10
I2
sg11
(imyEvolve
Tree
p1078
(dp1079
g10
I1
sg11
(imyEvolve
Tree
p1080
(dp1081
g10
I0
sg15
I00
sbsg16
(imyEvolve
Tree
p1082
(dp1083
g10
I0
sg14
F1.3360751129003754
sg15
I01
sbsg19
I00
sg20
g50
sbsg16
(imyEvolve
Tree
p1084
(dp1085
g7
(imyEvolve
Tree
p1086
(dp1087
g10
I0
sg14
F2.407201414860932
sg15
I01
sbsg10
I1
sg19
I01
sg20
g58
sbsg19
I00
sg20
g21
sbsg16
(imyEvolve
Tree
p1088
(dp1089
g10
I2
sg11
(imyEvolve
Tree
p1090
(dp1091
g7
(imyEvolve
Tree
p1092
(dp1093
g10
I0
sg15
I00
sbsg10
I1
sg19
I01
sg20
g33
sbsg16
(imyEvolve
Tree
p1094
(dp1095
g10
I1
sg11
(imyEvolve
Tree
p1096
(dp1097
g10
I0
sg14
F4.579574637135783
sg15
I01
sbsg16
(imyEvolve
Tree
p1098
(dp1099
g10
I0
sg15
I00
sbsg19
I00
sg20
g85
sbsg19
I00
sg20
g85
sbsg19
I00
sg20
g21
sba(imyEvolve
Tree
p1100
(dp1101
g10
I3
sg11
(imyEvolve
Tree
p1102
(dp1103
g10
I2
sg11
(imyEvolve
Tree
p1104
(dp1105
g10
I1
sg11
(imyEvolve
Tree
p1106
(dp1107
g10
I0
sg15
I00
sbsg16
(imyEvolve
Tree
p1108
(dp1109
g10
I0
sg14
F-3.3211054213009525
sg15
I01
sbsg19
I00
sg20
g85
sbsg16
(imyEvolve
Tree
p1110
(dp1111
g7
(imyEvolve
Tree
p1112
(dp1113
g10
I0
sg15
I00
sbsg10
I1
sg19
I01
sg20
g57
sbsg19
I00
sg20
g50
sbsg16
(imyEvolve
Tree
p1114
(dp1115
g7
(imyEvolve
Tree
p1116
(dp1117
g7
(imyEvolve
Tree
p1118
(dp1119
g10
I0
sg14
F-2.2651026965860153
sg15
I01
sbsg10
I1
sg19
I01
sg20
g22
sbsg10
I2
sg19
I01
sg20
g33
sbsg19
I00
sg20
g85
sba(imyEvolve
Tree
p1120
(dp1121
g10
I5
sg11
(imyEvolve
Tree
p1122
(dp1123
g7
(imyEvolve
Tree
p1124
(dp1125
g10
I3
sg11
(imyEvolve
Tree
p1126
(dp1127
g7
(imyEvolve
Tree
p1128
(dp1129
g7
(imyEvolve
Tree
p1130
(dp1131
g10
I0
sg15
I00
sbsg10
I1
sg19
I01
sg20
g57
sbsg10
I2
sg19
I01
sg20
g58
sbsg16
(imyEvolve
Tree
p1132
(dp1133
g7
(imyEvolve
Tree
p1134
(dp1135
g7
(imyEvolve
Tree
p1136
(dp1137
g10
I0
sg14
F2.0555509727984598
sg15
I01
sbsg10
I1
sg19
I01
sg20
g33
sbsg10
I2
sg19
I01
sg20
g22
sbsg19
I00
sg20
g50
sbsg10
I4
sg19
I01
sg20
g33
sbsg16
(imyEvolve
Tree
p1138
(dp1139
g10
I4
sg11
(imyEvolve
Tree
p1140
(dp1141
g7
(imyEvolve
Tree
p1142
(dp1143
g7
(imyEvolve
Tree
p1144
(dp1145
g7
(imyEvolve
Tree
p1146
(dp1147
g10
I0
sg14
F-3.6901360220768153
sg15
I01
sbsg10
I1
sg19
I01
sg20
g57
sbsg10
I2
sg19
I01
sg20
g22
sbsg10
I3
sg19
I01
sg20
g58
sbsg16
(imyEvolve
Tree
p1148
(dp1149
g10
I3
sg11
(imyEvolve
Tree
p1150
(dp1151
g10
I2
sg11
(imyEvolve
Tree
p1152
(dp1153
g7
(imyEvolve
Tree
p1154
(dp1155
g10
I0
sg15
I00
sbsg10
I1
sg19
I01
sg20
g33
sbsg16
(imyEvolve
Tree
p1156
(dp1157
g10
I1
sg11
(imyEvolve
Tree
p1158
(dp1159
g10
I0
sg15
I00
sbsg16
(imyEvolve
Tree
p1160
(dp1161
g10
I0
sg14
F4.821132533385326
sg15
I01
sbsg19
I00
sg20
g50
sbsg19
I00
sg20
g50
sbsg16
(imyEvolve
Tree
p1162
(dp1163
g7
(imyEvolve
Tree
p1164
(dp1165
g7
(imyEvolve
Tree
p1166
(dp1167
g10
I0
sg15
I00
sbsg10
I1
sg19
I01
sg20
g33
sbsg10
I2
sg19
I01
sg20
g22
sbsg19
I00
sg20
g21
sbsg19
I00
sg20
g50
sbsg19
I00
sg20
g21
sba(imyEvolve
Tree
p1168
(dp1169
g10
I4
sg11
(imyEvolve
Tree
p1170
(dp1171
g7
(imyEvolve
Tree
p1172
(dp1173
g7
(imyEvolve
Tree
p1174
(dp1175
g10
I1
sg11
(imyEvolve
Tree
p1176
(dp1177
g10
I0
sg15
I00
sbsg16
(imyEvolve
Tree
p1178
(dp1179
g10
I0
sg14
F-4.95082310235936
sg15
I01
sbsg19
I00
sg20
g50
sbsg10
I2
sg19
I01
sg20
g58
sbsg10
I3
sg19
I01
sg20
g58
sbsg16
(imyEvolve
Tree
p1180
(dp1181
g7
(imyEvolve
Tree
p1182
(dp1183
g7
(imyEvolve
Tree
p1184
(dp1185
g7
(imyEvolve
Tree
p1186
(dp1187
g10
I0
sg15
I00
sbsg10
I1
sg19
I01
sg20
g33
sbsg10
I2
sg19
I01
sg20
g58
sbsg10
I3
sg19
I01
sg20
g33
sbsg19
I00
sg20
g85
sba(imyEvolve
Tree
p1188
(dp1189
g10
I3
sg11
(imyEvolve
Tree
p1190
(dp1191
g10
I2
sg11
(imyEvolve
Tree
p1192
(dp1193
g10
I1
sg11
(imyEvolve
Tree
p1194
(dp1195
g10
I0
sg14
F4.944106580819884
sg15
I01
sbsg16
(imyEvolve
Tree
p1196
(dp1197
g10
I0
sg15
I00
sbsg19
I00
sg20
g85
sbsg16
(imyEvolve
Tree
p1198
(dp1199
g7
(imyEvolve
Tree
p1200
(dp1201
g10
I0
sg15
I00
sbsg10
I1
sg19
I01
sg20
g33
sbsg19
I00
sg20
g85
sbsg16
(imyEvolve
Tree
p1202
(dp1203
g10
I2
sg11
(imyEvolve
Tree
p1204
(dp1205
g10
I1
sg11
(imyEvolve
Tree
p1206
(dp1207
g10
I0
sg14
F-2.691177323439491
sg15
I01
sbsg16
(imyEvolve
Tree
p1208
(dp1209
g10
I0
sg14
F-0.35700666485656374
sg15
I01
sbsg19
I00
sg20
g85
sbsg16
(imyEvolve
Tree
p1210
(dp1211
g10
I1
sg11
(imyEvolve
Tree
p1212
(dp1213
g10
I0
sg15
I00
sbsg16
(imyEvolve
Tree
p1214
(dp1215
g10
I0
sg15
I00
sbsg19
I00
sg20
g85
sbsg19
I00
sg20
g21
sbsg19
I00
sg20
g50
sba(imyEvolve
Tree
p1216
(dp1217
g10
I4
sg11
(imyEvolve
Tree
p1218
(dp1219
g10
I3
sg11
(imyEvolve
Tree
p1220
(dp1221
g7
(imyEvolve
Tree
p1222
(dp1223
g10
I1
sg11
(imyEvolve
Tree
p1224
(dp1225
g10
I0
sg14
F-3.0606014946184334
sg15
I01
sbsg16
(imyEvolve
Tree
p1226
(dp1227
g10
I0
sg14
F-1.742362314916087
sg15
I01
sbsg19
I00
sg20
g21
sbsg10
I2
sg19
I01
sg20
g58
sbsg16
(imyEvolve
Tree
p1228
(dp1229
g7
(imyEvolve
Tree
p1230
(dp1231
g10
I1
sg11
(imyEvolve
Tree
p1232
(dp1233
g10
I0
sg14
F-3.182104201766134
sg15
I01
sbsg16
(imyEvolve
Tree
p1234
(dp1235
g10
I0
sg15
I00
sbsg19
I00
sg20
g85
sbsg10
I2
sg19
I01
sg20
g57
sbsg19
I00
sg20
g50
sbsg16
(imyEvolve
Tree
p1236
(dp1237
g10
I3
sg11
(imyEvolve
Tree
p1238
(dp1239
g10
I2
sg11
(imyEvolve
Tree
p1240
(dp1241
g7
(imyEvolve
Tree
p1242
(dp1243
g10
I0
sg14
F1.0796853839844358
sg15
I01
sbsg10
I1
sg19
I01
sg20
g58
sbsg16
(imyEvolve
Tree
p1244
(dp1245
g10
I1
sg11
(imyEvolve
Tree
p1246
(dp1247
g10
I0
sg14
F4.395261752926631
sg15
I01
sbsg16
(imyEvolve
Tree
p1248
(dp1249
g10
I0
sg15
I00
sbsg19
I00
sg20
g21
sbsg19
I00
sg20
g21
sbsg16
(imyEvolve
Tree
p1250
(dp1251
g10
I2
sg11
(imyEvolve
Tree
p1252
(dp1253
g7
(imyEvolve
Tree
p1254
(dp1255
g10
I0
sg14
F-4.579575328271677
sg15
I01
sbsg10
I1
sg19
I01
sg20
g33
sbsg16
(imyEvolve
Tree
p1256
(dp1257
g7
(imyEvolve
Tree
p1258
(dp1259
g10
I0
sg14
F0.6220535574209887
sg15
I01
sbsg10
I1
sg19
I01
sg20
g33
sbsg19
I00
sg20
g85
sbsg19
I00
sg20
g50
sbsg19
I00
sg20
g85
sba(imyEvolve
Tree
p1260
(dp1261
g10
I2
sg11
(imyEvolve
Tree
p1262
(dp1263
g7
(imyEvolve
Tree
p1264
(dp1265
g10
I0
sg15
I00
sbsg10
I1
sg19
I01
sg20
g58
sbsg16
(imyEvolve
Tree
p1266
(dp1267
g7
(imyEvolve
Tree
p1268
(dp1269
g10
I0
sg15
I00
sbsg10
I1
sg19
I01
sg20
g58
sbsg19
I00
sg20
g85
sba(imyEvolve
Tree
p1270
(dp1271
g10
I3
sg11
(imyEvolve
Tree
p1272
(dp1273
g10
I2
sg11
(imyEvolve
Tree
p1274
(dp1275
g7
(imyEvolve
Tree
p1276
(dp1277
g10
I0
sg14
F2.323740396602277
sg15
I01
sbsg10
I1
sg19
I01
sg20
g58
sbsg16
(imyEvolve
Tree
p1278
(dp1279
g7
(imyEvolve
Tree
p1280
(dp1281
g10
I0
sg14
F0.09860132268972244
sg15
I01
sbsg10
I1
sg19
I01
sg20
g57
sbsg19
I00
sg20
g85
sbsg16
(imyEvolve
Tree
p1282
(dp1283
g7
(imyEvolve
Tree
p1284
(dp1285
g7
(imyEvolve
Tree
p1286
(dp1287
g10
I0
sg15
I00
sbsg10
I1
sg19
I01
sg20
g33
sbsg10
I2
sg19
I01
sg20
g33
sbsg19
I00
sg20
g50
sba(imyEvolve
Tree
p1288
(dp1289
g7
(imyEvolve
Tree
p1290
(dp1291
g10
I4
sg11
(imyEvolve
Tree
p1292
(dp1293
g10
I3
sg11
(imyEvolve
Tree
p1294
(dp1295
g7
(imyEvolve
Tree
p1296
(dp1297
g7
(imyEvolve
Tree
p1298
(dp1299
g10
I0
sg15
I00
sbsg10
I1
sg19
I01
sg20
g22
sbsg10
I2
sg19
I01
sg20
g33
sbsg16
(imyEvolve
Tree
p1300
(dp1301
g10
I2
sg11
(imyEvolve
Tree
p1302
(dp1303
g10
I1
sg11
(imyEvolve
Tree
p1304
(dp1305
g10
I0
sg15
I00
sbsg16
(imyEvolve
Tree
p1306
(dp1307
g10
I0
sg15
I00
sbsg19
I00
sg20
g50
sbsg16
(imyEvolve
Tree
p1308
(dp1309
g7
(imyEvolve
Tree
p1310
(dp1311
g10
I0
sg15
I00
sbsg10
I1
sg19
I01
sg20
g58
sbsg19
I00
sg20
g85
sbsg19
I00
sg20
g50
sbsg16
(imyEvolve
Tree
p1312
(dp1313
g7
(imyEvolve
Tree
p1314
(dp1315
g10
I2
sg11
(imyEvolve
Tree
p1316
(dp1317
g10
I1
sg11
(imyEvolve
Tree
p1318
(dp1319
g10
I0
sg14
F1.1432212778863562
sg15
I01
sbsg16
(imyEvolve
Tree
p1320
(dp1321
g10
I0
sg15
I00
sbsg19
I00
sg20
g50
sbsg16
(imyEvolve
Tree
p1322
(dp1323
g10
I1
sg11
(imyEvolve
Tree
p1324
(dp1325
g10
I0
sg14
F0.8856712915765064
sg15
I01
sbsg16
(imyEvolve
Tree
p1326
(dp1327
g10
I0
sg14
F-3.3461524276602725
sg15
I01
sbsg19
I00
sg20
g85
sbsg19
I00
sg20
g85
sbsg10
I3
sg19
I01
sg20
g22
sbsg19
I00
sg20
g85
sbsg10
I5
sg19
I01
sg20
g58
sba(imyEvolve
Tree
p1328
(dp1329
g7
(imyEvolve
Tree
p1330
(dp1331
g10
I1
sg11
(imyEvolve
Tree
p1332
(dp1333
g10
I0
sg14
F1.0896134905661405
sg15
I01
sbsg16
(imyEvolve
Tree
p1334
(dp1335
g10
I0
sg14
F-2.971500192624971
sg15
I01
sbsg19
I00
sg20
g85
sbsg10
I2
sg19
I01
sg20
g22
sbaa(lp1336
(imyEvolve
Tree
p1337
(dp1338
g7
(imyEvolve
Tree
p1339
(dp1340
g7
(imyEvolve
Tree
p1341
(dp1342
g10
I2
sg11
(imyEvolve
Tree
p1343
(dp1344
g10
I1
sg11
(imyEvolve
Tree
p1345
(dp1346
g10
I0
sg15
I00
sbsg16
(imyEvolve
Tree
p1347
(dp1348
g10
I0
sg15
I00
sbsg19
I00
sg20
g85
sbsg16
(imyEvolve
Tree
p1349
(dp1350
g7
(imyEvolve
Tree
p1351
(dp1352
g10
I0
sg14
F-4.890438296075742
sg15
I01
sbsg10
I1
sg19
I01
sg20
g33
sbsg19
I00
sg20
g85
sbsg10
I3
sg19
I01
sg20
g58
sbsg10
I4
sg19
I01
sg20
g33
sba(imyEvolve
Tree
p1353
(dp1354
g7
(imyEvolve
Tree
p1355
(dp1356
g10
I3
sg11
(imyEvolve
Tree
p1357
(dp1358
g7
(imyEvolve
Tree
p1359
(dp1360
g7
(imyEvolve
Tree
p1361
(dp1362
g10
I0
sg14
F-2.4868851178517923
sg15
I01
sbsg10
I1
sg19
I01
sg20
g22
sbsg10
I2
sg19
I01
sg20
g57
sbsg16
(imyEvolve
Tree
p1363
(dp1364
g10
I2
sg11
(imyEvolve
Tree
p1365
(dp1366
g7
(imyEvolve
Tree
p1367
(dp1368
g10
I0
sg14
F-0.19071126816389317
sg15
I01
sbsg10
I1
sg19
I01
sg20
g57
sbsg16
(imyEvolve
Tree
p1369
(dp1370
g10
I1
sg11
(imyEvolve
Tree
p1371
(dp1372
g10
I0
sg15
I00
sbsg16
(imyEvolve
Tree
p1373
(dp1374
g10
I0
sg15
I00
sbsg19
I00
sg20
g21
sbsg19
I00
sg20
g50
sbsg19
I00
sg20
g85
sbsg10
I4
sg19
I01
sg20
g57
sba(imyEvolve
Tree
p1375
(dp1376
g7
(imyEvolve
Tree
p1377
(dp1378
g10
I2
sg11
(imyEvolve
Tree
p1379
(dp1380
g10
I1
sg11
(imyEvolve
Tree
p1381
(dp1382
g10
I0
sg15
I00
sbsg16
(imyEvolve
Tree
p1383
(dp1384
g10
I0
sg14
F-4.705050765013024
sg15
I01
sbsg19
I00
sg20
g85
sbsg16
(imyEvolve
Tree
p1385
(dp1386
g10
I1
sg11
(imyEvolve
Tree
p1387
(dp1388
g10
I0
sg15
I00
sbsg16
(imyEvolve
Tree
p1389
(dp1390
g10
I0
sg14
F-0.90756493771244
sg15
I01
sbsg19
I00
sg20
g21
sbsg19
I00
sg20
g85
sbsg10
I3
sg19
I01
sg20
g57
sba(imyEvolve
Tree
p1391
(dp1392
g10
I5
sg11
(imyEvolve
Tree
p1393
(dp1394
g7
(imyEvolve
Tree
p1395
(dp1396
g7
(imyEvolve
Tree
p1397
(dp1398
g10
I2
sg11
(imyEvolve
Tree
p1399
(dp1400
g7
(imyEvolve
Tree
p1401
(dp1402
g10
I0
sg14
F-4.225830256965165
sg15
I01
sbsg10
I1
sg19
I01
sg20
g57
sbsg16
(imyEvolve
Tree
p1403
(dp1404
g7
(imyEvolve
Tree
p1405
(dp1406
g10
I0
sg14
F-1.2954913814536315
sg15
I01
sbsg10
I1
sg19
I01
sg20
g33
sbsg19
I00
sg20
g85
sbsg10
I3
sg19
I01
sg20
g22
sbsg10
I4
sg19
I01
sg20
g57
sbsg16
(imyEvolve
Tree
p1407
(dp1408
g10
I4
sg11
(imyEvolve
Tree
p1409
(dp1410
g10
I3
sg11
(imyEvolve
Tree
p1411
(dp1412
g7
(imyEvolve
Tree
p1413
(dp1414
g10
I1
sg11
(imyEvolve
Tree
p1415
(dp1416
g10
I0
sg15
I00
sbsg16
(imyEvolve
Tree
p1417
(dp1418
g10
I0
sg15
I00
sbsg19
I00
sg20
g50
sbsg10
I2
sg19
I01
sg20
g57
sbsg16
(imyEvolve
Tree
p1419
(dp1420
g7
(imyEvolve
Tree
p1421
(dp1422
g7
(imyEvolve
Tree
p1423
(dp1424
g10
I0
sg15
I00
sbsg10
I1
sg19
I01
sg20
g33
sbsg10
I2
sg19
I01
sg20
g57
sbsg19
I00
sg20
g50
sbsg16
(imyEvolve
Tree
p1425
(dp1426
g7
(imyEvolve
Tree
p1427
(dp1428
g10
I2
sg11
(imyEvolve
Tree
p1429
(dp1430
g7
(imyEvolve
Tree
p1431
(dp1432
g10
I0
sg14
F1.1018278426018622
sg15
I01
sbsg10
I1
sg19
I01
sg20
g58
sbsg16
(imyEvolve
Tree
p1433
(dp1434
g7
(imyEvolve
Tree
p1435
(dp1436
g10
I0
sg14
F4.749481849188724
sg15
I01
sbsg10
I1
sg19
I01
sg20
g33
sbsg19
I00
sg20
g50
sbsg10
I3
sg19
I01
sg20
g22
sbsg19
I00
sg20
g21
sbsg19
I00
sg20
g50
sba(imyEvolve
Tree
p1437
(dp1438
g7
(imyEvolve
Tree
p1439
(dp1440
g10
I1
sg11
(imyEvolve
Tree
p1441
(dp1442
g10
I0
sg15
I00
sbsg16
(imyEvolve
Tree
p1443
(dp1444
g10
I0
sg14
F-2.334641337248815
sg15
I01
sbsg19
I00
sg20
g50
sbsg10
I2
sg19
I01
sg20
g58
sba(imyEvolve
Tree
p1445
(dp1446
g7
(imyEvolve
Tree
p1447
(dp1448
g7
(imyEvolve
Tree
p1449
(dp1450
g10
I0
sg14
F-0.36762906577627597
sg15
I01
sbsg10
I1
sg19
I01
sg20
g57
sbsg10
I2
sg19
I01
sg20
g22
sba(imyEvolve
Tree
p1451
(dp1452
g7
(imyEvolve
Tree
p1453
(dp1454
g7
(imyEvolve
Tree
p1455
(dp1456
g10
I3
sg11
(imyEvolve
Tree
p1457
(dp1458
g7
(imyEvolve
Tree
p1459
(dp1460
g7
(imyEvolve
Tree
p1461
(dp1462
g10
I0
sg15
I00
sbsg10
I1
sg19
I01
sg20
g33
sbsg10
I2
sg19
I01
sg20
g22
sbsg16
(imyEvolve
Tree
p1463
(dp1464
g10
I2
sg11
(imyEvolve
Tree
p1465
(dp1466
g10
I1
sg11
(imyEvolve
Tree
p1467
(dp1468
g10
I0
sg15
I00
sbsg16
(imyEvolve
Tree
p1469
(dp1470
g10
I0
sg14
F-0.700049187027858
sg15
I01
sbsg19
I00
sg20
g50
sbsg16
(imyEvolve
Tree
p1471
(dp1472
g7
(imyEvolve
Tree
p1473
(dp1474
g10
I0
sg14
F4.624860750629585
sg15
I01
sbsg10
I1
sg19
I01
sg20
g57
sbsg19
I00
sg20
g50
sbsg19
I00
sg20
g50
sbsg10
I4
sg19
I01
sg20
g57
sbsg10
I5
sg19
I01
sg20
g58
sba(imyEvolve
Tree
p1475
(dp1476
g7
(imyEvolve
Tree
p1477
(dp1478
g7
(imyEvolve
Tree
p1479
(dp1480
g10
I0
sg14
F1.0969957913477844
sg15
I01
sbsg10
I1
sg19
I01
sg20
g58
sbsg10
I2
sg19
I01
sg20
g33
sba(imyEvolve
Tree
p1481
(dp1482
g10
I2
sg11
(imyEvolve
Tree
p1483
(dp1484
g10
I1
sg11
(imyEvolve
Tree
p1485
(dp1486
g10
I0
sg15
I00
sbsg16
(imyEvolve
Tree
p1487
(dp1488
g10
I0
sg14
F-0.7893001592532025
sg15
I01
sbsg19
I00
sg20
g50
sbsg16
(imyEvolve
Tree
p1489
(dp1490
g10
I1
sg11
(imyEvolve
Tree
p1491
(dp1492
g10
I0
sg14
F2.0151451853648714
sg15
I01
sbsg16
(imyEvolve
Tree
p1493
(dp1494
g10
I0
sg14
F-0.8800809073669145
sg15
I01
sbsg19
I00
sg20
g50
sbsg19
I00
sg20
g50
sba(imyEvolve
Tree
p1495
(dp1496
g10
I2
sg11
(imyEvolve
Tree
p1497
(dp1498
g10
I1
sg11
(imyEvolve
Tree
p1499
(dp1500
g10
I0
sg14
F-0.3627152502571329
sg15
I01
sbsg16
(imyEvolve
Tree
p1501
(dp1502
g10
I0
sg15
I00
sbsg19
I00
sg20
g50
sbsg16
(imyEvolve
Tree
p1503
(dp1504
g10
I1
sg11
(imyEvolve
Tree
p1505
(dp1506
g10
I0
sg15
I00
sbsg16
(imyEvolve
Tree
p1507
(dp1508
g10
I0
sg14
F-3.538746357831725
sg15
I01
sbsg19
I00
sg20
g21
sbsg19
I00
sg20
g21
sba(imyEvolve
Tree
p1509
(dp1510
g7
(imyEvolve
Tree
p1511
(dp1512
g7
(imyEvolve
Tree
p1513
(dp1514
g10
I3
sg11
(imyEvolve
Tree
p1515
(dp1516
g7
(imyEvolve
Tree
p1517
(dp1518
g7
(imyEvolve
Tree
p1519
(dp1520
g10
I0
sg15
I00
sbsg10
I1
sg19
I01
sg20
g22
sbsg10
I2
sg19
I01
sg20
g58
sbsg16
(imyEvolve
Tree
p1521
(dp1522
g7
(imyEvolve
Tree
p1523
(dp1524
g7
(imyEvolve
Tree
p1525
(dp1526
g10
I0
sg14
F-4.772742069852216
sg15
I01
sbsg10
I1
sg19
I01
sg20
g57
sbsg10
I2
sg19
I01
sg20
g22
sbsg19
I00
sg20
g85
sbsg10
I4
sg19
I01
sg20
g57
sbsg10
I5
sg19
I01
sg20
g57
sba(imyEvolve
Tree
p1527
(dp1528
g7
(imyEvolve
Tree
p1529
(dp1530
g7
(imyEvolve
Tree
p1531
(dp1532
g10
I2
sg11
(imyEvolve
Tree
p1533
(dp1534
g10
I1
sg11
(imyEvolve
Tree
p1535
(dp1536
g10
I0
sg15
I00
sbsg16
(imyEvolve
Tree
p1537
(dp1538
g10
I0
sg14
F-4.408743179021269
sg15
I01
sbsg19
I00
sg20
g21
sbsg16
(imyEvolve
Tree
p1539
(dp1540
g10
I1
sg11
(imyEvolve
Tree
p1541
(dp1542
g10
I0
sg15
I00
sbsg16
(imyEvolve
Tree
p1543
(dp1544
g10
I0
sg14
F-3.8772966116111975
sg15
I01
sbsg19
I00
sg20
g50
sbsg19
I00
sg20
g85
sbsg10
I3
sg19
I01
sg20
g22
sbsg10
I4
sg19
I01
sg20
g22
sba(imyEvolve
Tree
p1545
(dp1546
g10
I4
sg11
(imyEvolve
Tree
p1547
(dp1548
g10
I3
sg11
(imyEvolve
Tree
p1549
(dp1550
g7
(imyEvolve
Tree
p1551
(dp1552
g10
I1
sg11
(imyEvolve
Tree
p1553
(dp1554
g10
I0
sg15
I00
sbsg16
(imyEvolve
Tree
p1555
(dp1556
g10
I0
sg14
F-0.9642605825384853
sg15
I01
sbsg19
I00
sg20
g85
sbsg10
I2
sg19
I01
sg20
g33
sbsg16
(imyEvolve
Tree
p1557
(dp1558
g10
I2
sg11
(imyEvolve
Tree
p1559
(dp1560
g7
(imyEvolve
Tree
p1561
(dp1562
g10
I0
sg15
I00
sbsg10
I1
sg19
I01
sg20
g57
sbsg16
(imyEvolve
Tree
p1563
(dp1564
g10
I1
sg11
(imyEvolve
Tree
p1565
(dp1566
g10
I0
sg15
I00
sbsg16
(imyEvolve
Tree
p1567
(dp1568
g10
I0
sg15
I00
sbsg19
I00
sg20
g85
sbsg19
I00
sg20
g21
sbsg19
I00
sg20
g85
sbsg16
(imyEvolve
Tree
p1569
(dp1570
g10
I3
sg11
(imyEvolve
Tree
p1571
(dp1572
g7
(imyEvolve
Tree
p1573
(dp1574
g7
(imyEvolve
Tree
p1575
(dp1576
g10
I0
sg14
F3.2787473564589966
sg15
I01
sbsg10
I1
sg19
I01
sg20
g33
sbsg10
I2
sg19
I01
sg20
g57
sbsg16
(imyEvolve
Tree
p1577
(dp1578
g7
(imyEvolve
Tree
p1579
(dp1580
g7
(imyEvolve
Tree
p1581
(dp1582
g10
I0
sg14
F-0.06460982950070182
sg15
I01
sbsg10
I1
sg19
I01
sg20
g33
sbsg10
I2
sg19
I01
sg20
g33
sbsg19
I00
sg20
g50
sbsg19
I00
sg20
g50
sba(imyEvolve
Tree
p1583
(dp1584
g10
I4
sg11
(imyEvolve
Tree
p1585
(dp1586
g7
(imyEvolve
Tree
p1587
(dp1588
g10
I2
sg11
(imyEvolve
Tree
p1589
(dp1590
g7
(imyEvolve
Tree
p1591
(dp1592
g10
I0
sg15
I00
sbsg10
I1
sg19
I01
sg20
g33
sbsg16
(imyEvolve
Tree
p1593
(dp1594
g10
I1
sg11
(imyEvolve
Tree
p1595
(dp1596
g10
I0
sg15
I00
sbsg16
(imyEvolve
Tree
p1597
(dp1598
g10
I0
sg14
F-2.146550989088839
sg15
I01
sbsg19
I00
sg20
g85
sbsg19
I00
sg20
g85
sbsg10
I3
sg19
I01
sg20
g22
sbsg16
(imyEvolve
Tree
p1599
(dp1600
g7
(imyEvolve
Tree
p1601
(dp1602
g7
(imyEvolve
Tree
p1603
(dp1604
g10
I1
sg11
(imyEvolve
Tree
p1605
(dp1606
g10
I0
sg15
I00
sbsg16
(imyEvolve
Tree
p1607
(dp1608
g10
I0
sg14
F1.6246797010725667
sg15
I01
sbsg19
I00
sg20
g85
sbsg10
I2
sg19
I01
sg20
g57
sbsg10
I3
sg19
I01
sg20
g33
sbsg19
I00
sg20
g85
sba(imyEvolve
Tree
p1609
(dp1610
g7
(imyEvolve
Tree
p1611
(dp1612
g7
(imyEvolve
Tree
p1613
(dp1614
g10
I1
sg11
(imyEvolve
Tree
p1615
(dp1616
g10
I0
sg15
I00
sbsg16
(imyEvolve
Tree
p1617
(dp1618
g10
I0
sg15
I00
sbsg19
I00
sg20
g50
sbsg10
I2
sg19
I01
sg20
g58
sbsg10
I3
sg19
I01
sg20
g22
sba(imyEvolve
Tree
p1619
(dp1620
g7
(imyEvolve
Tree
p1621
(dp1622
g7
(imyEvolve
Tree
p1623
(dp1624
g7
(imyEvolve
Tree
p1625
(dp1626
g7
(imyEvolve
Tree
p1627
(dp1628
g10
I0
sg15
I00
sbsg10
I1
sg19
I01
sg20
g22
sbsg10
I2
sg19
I01
sg20
g22
sbsg10
I3
sg19
I01
sg20
g57
sbsg10
I4
sg19
I01
sg20
g57
sba(imyEvolve
Tree
p1629
(dp1630
g10
I5
sg11
(imyEvolve
Tree
p1631
(dp1632
g7
(imyEvolve
Tree
p1633
(dp1634
g10
I3
sg11
(imyEvolve
Tree
p1635
(dp1636
g10
I2
sg11
(imyEvolve
Tree
p1637
(dp1638
g7
(imyEvolve
Tree
p1639
(dp1640
g10
I0
sg15
I00
sbsg10
I1
sg19
I01
sg20
g33
sbsg16
(imyEvolve
Tree
p1641
(dp1642
g7
(imyEvolve
Tree
p1643
(dp1644
g10
I0
sg15
I00
sbsg10
I1
sg19
I01
sg20
g22
sbsg19
I00
sg20
g21
sbsg16
(imyEvolve
Tree
p1645
(dp1646
g7
(imyEvolve
Tree
p1647
(dp1648
g10
I1
sg11
(imyEvolve
Tree
p1649
(dp1650
g10
I0
sg15
I00
sbsg16
(imyEvolve
Tree
p1651
(dp1652
g10
I0
sg14
F-0.5485828690017938
sg15
I01
sbsg19
I00
sg20
g21
sbsg10
I2
sg19
I01
sg20
g58
sbsg19
I00
sg20
g50
sbsg10
I4
sg19
I01
sg20
g58
sbsg16
(imyEvolve
Tree
p1653
(dp1654
g10
I4
sg11
(imyEvolve
Tree
p1655
(dp1656
g10
I3
sg11
(imyEvolve
Tree
p1657
(dp1658
g10
I2
sg11
(imyEvolve
Tree
p1659
(dp1660
g7
(imyEvolve
Tree
p1661
(dp1662
g10
I0
sg15
I00
sbsg10
I1
sg19
I01
sg20
g57
sbsg16
(imyEvolve
Tree
p1663
(dp1664
g10
I1
sg11
(imyEvolve
Tree
p1665
(dp1666
g10
I0
sg14
F-1.3539107049527441
sg15
I01
sbsg16
(imyEvolve
Tree
p1667
(dp1668
g10
I0
sg14
F1.7957580225114462
sg15
I01
sbsg19
I00
sg20
g50
sbsg19
I00
sg20
g85
sbsg16
(imyEvolve
Tree
p1669
(dp1670
g7
(imyEvolve
Tree
p1671
(dp1672
g7
(imyEvolve
Tree
p1673
(dp1674
g10
I0
sg15
I00
sbsg10
I1
sg19
I01
sg20
g33
sbsg10
I2
sg19
I01
sg20
g58
sbsg19
I00
sg20
g85
sbsg16
(imyEvolve
Tree
p1675
(dp1676
g7
(imyEvolve
Tree
p1677
(dp1678
g7
(imyEvolve
Tree
p1679
(dp1680
g7
(imyEvolve
Tree
p1681
(dp1682
g10
I0
sg15
I00
sbsg10
I1
sg19
I01
sg20
g58
sbsg10
I2
sg19
I01
sg20
g22
sbsg10
I3
sg19
I01
sg20
g33
sbsg19
I00
sg20
g50
sbsg19
I00
sg20
g50
sba(imyEvolve
Tree
p1683
(dp1684
g7
(imyEvolve
Tree
p1685
(dp1686
g7
(imyEvolve
Tree
p1687
(dp1688
g10
I1
sg11
(imyEvolve
Tree
p1689
(dp1690
g10
I0
sg15
I00
sbsg16
(imyEvolve
Tree
p1691
(dp1692
g10
I0
sg15
I00
sbsg19
I00
sg20
g21
sbsg10
I2
sg19
I01
sg20
g58
sbsg10
I3
sg19
I01
sg20
g22
sbaa(lp1693
(imyEvolve
Tree
p1694
(dp1695
g7
(imyEvolve
Tree
p1696
(dp1697
g10
I2
sg11
(imyEvolve
Tree
p1698
(dp1699
g7
(imyEvolve
Tree
p1700
(dp1701
g10
I0
sg14
F-0.3615817772328631
sg15
I01
sbsg10
I1
sg19
I01
sg20
g58
sbsg16
(imyEvolve
Tree
p1702
(dp1703
g10
I1
sg11
(imyEvolve
Tree
p1704
(dp1705
g10
I0
sg14
F-4.330715159492372
sg15
I01
sbsg16
(imyEvolve
Tree
p1706
(dp1707
g10
I0
sg15
I00
sbsg19
I00
sg20
g50
sbsg19
I00
sg20
g85
sbsg10
I3
sg19
I01
sg20
g57
sba(imyEvolve
Tree
p1708
(dp1709
g7
(imyEvolve
Tree
p1710
(dp1711
g10
I2
sg11
(imyEvolve
Tree
p1712
(dp1713
g7
(imyEvolve
Tree
p1714
(dp1715
g10
I0
sg15
I00
sbsg10
I1
sg19
I01
sg20
g58
sbsg16
(imyEvolve
Tree
p1716
(dp1717
g10
I1
sg11
(imyEvolve
Tree
p1718
(dp1719
g10
I0
sg14
F0.2894245124870851
sg15
I01
sbsg16
(imyEvolve
Tree
p1720
(dp1721
g10
I0
sg14
F-1.5092998218975193
sg15
I01
sbsg19
I00
sg20
g50
sbsg19
I00
sg20
g21
sbsg10
I3
sg19
I01
sg20
g33
sba(imyEvolve
Tree
p1722
(dp1723
g7
(imyEvolve
Tree
p1724
(dp1725
g10
I1
sg11
(imyEvolve
Tree
p1726
(dp1727
g10
I0
sg15
I00
sbsg16
(imyEvolve
Tree
p1728
(dp1729
g10
I0
sg15
I00
sbsg19
I00
sg20
g85
sbsg10
I2
sg19
I01
sg20
g58
sba(imyEvolve
Tree
p1730
(dp1731
g10
I3
sg11
(imyEvolve
Tree
p1732
(dp1733
g10
I2
sg11
(imyEvolve
Tree
p1734
(dp1735
g10
I1
sg11
(imyEvolve
Tree
p1736
(dp1737
g10
I0
sg14
F-2.71484893781707
sg15
I01
sbsg16
(imyEvolve
Tree
p1738
(dp1739
g10
I0
sg14
F-4.4474642908549225
sg15
I01
sbsg19
I00
sg20
g21
sbsg16
(imyEvolve
Tree
p1740
(dp1741
g10
I1
sg11
(imyEvolve
Tree
p1742
(dp1743
g10
I0
sg15
I00
sbsg16
(imyEvolve
Tree
p1744
(dp1745
g10
I0
sg15
I00
sbsg19
I00
sg20
g85
sbsg19
I00
sg20
g21
sbsg16
(imyEvolve
Tree
p1746
(dp1747
g7
(imyEvolve
Tree
p1748
(dp1749
g7
(imyEvolve
Tree
p1750
(dp1751
g10
I0
sg15
I00
sbsg10
I1
sg19
I01
sg20
g58
sbsg10
I2
sg19
I01
sg20
g33
sbsg19
I00
sg20
g21
sba(imyEvolve
Tree
p1752
(dp1753
g7
(imyEvolve
Tree
p1754
(dp1755
g7
(imyEvolve
Tree
p1756
(dp1757
g10
I2
sg11
(imyEvolve
Tree
p1758
(dp1759
g7
(imyEvolve
Tree
p1760
(dp1761
g10
I0
sg15
I00
sbsg10
I1
sg19
I01
sg20
g58
sbsg16
(imyEvolve
Tree
p1762
(dp1763
g7
(imyEvolve
Tree
p1764
(dp1765
g10
I0
sg15
I00
sbsg10
I1
sg19
I01
sg20
g58
sbsg19
I00
sg20
g21
sbsg10
I3
sg19
I01
sg20
g57
sbsg10
I4
sg19
I01
sg20
g58
sba(imyEvolve
Tree
p1766
(dp1767
g7
(imyEvolve
Tree
p1768
(dp1769
g10
I4
sg11
(imyEvolve
Tree
p1770
(dp1771
g10
I3
sg11
(imyEvolve
Tree
p1772
(dp1773
g10
I2
sg11
(imyEvolve
Tree
p1774
(dp1775
g7
(imyEvolve
Tree
p1776
(dp1777
g10
I0
sg15
I00
sbsg10
I1
sg19
I01
sg20
g33
sbsg16
(imyEvolve
Tree
p1778
(dp1779
g10
I1
sg11
(imyEvolve
Tree
p1780
(dp1781
g10
I0
sg15
I00
sbsg16
(imyEvolve
Tree
p1782
(dp1783
g10
I0
sg14
F-0.37033019431446323
sg15
I01
sbsg19
I00
sg20
g50
sbsg19
I00
sg20
g85
sbsg16
(imyEvolve
Tree
p1784
(dp1785
g10
I2
sg11
(imyEvolve
Tree
p1786
(dp1787
g10
I1
sg11
(imyEvolve
Tree
p1788
(dp1789
g10
I0
sg15
I00
sbsg16
(imyEvolve
Tree
p1790
(dp1791
g10
I0
sg15
I00
sbsg19
I00
sg20
g85
sbsg16
(imyEvolve
Tree
p1792
(dp1793
g10
I1
sg11
(imyEvolve
Tree
p1794
(dp1795
g10
I0
sg14
F1.2196508745467716
sg15
I01
sbsg16
(imyEvolve
Tree
p1796
(dp1797
g10
I0
sg15
I00
sbsg19
I00
sg20
g85
sbsg19
I00
sg20
g85
sbsg19
I00
sg20
g85
sbsg16
(imyEvolve
Tree
p1798
(dp1799
g7
(imyEvolve
Tree
p1800
(dp1801
g10
I2
sg11
(imyEvolve
Tree
p1802
(dp1803
g10
I1
sg11
(imyEvolve
Tree
p1804
(dp1805
g10
I0
sg14
F2.8048460765467187
sg15
I01
sbsg16
(imyEvolve
Tree
p1806
(dp1807
g10
I0
sg15
I00
sbsg19
I00
sg20
g85
sbsg16
(imyEvolve
Tree
p1808
(dp1809
g10
I1
sg11
(imyEvolve
Tree
p1810
(dp1811
g10
I0
sg15
I00
sbsg16
(imyEvolve
Tree
p1812
(dp1813
g10
I0
sg14
F-4.77987347760063
sg15
I01
sbsg19
I00
sg20
g50
sbsg19
I00
sg20
g85
sbsg10
I3
sg19
I01
sg20
g58
sbsg19
I00
sg20
g50
sbsg10
I5
sg19
I01
sg20
g33
sba(imyEvolve
Tree
p1814
(dp1815
g7
(imyEvolve
Tree
p1816
(dp1817
g10
I4
sg11
(imyEvolve
Tree
p1818
(dp1819
g7
(imyEvolve
Tree
p1820
(dp1821
g7
(imyEvolve
Tree
p1822
(dp1823
g7
(imyEvolve
Tree
p1824
(dp1825
g10
I0
sg15
I00
sbsg10
I1
sg19
I01
sg20
g57
sbsg10
I2
sg19
I01
sg20
g58
sbsg10
I3
sg19
I01
sg20
g33
sbsg16
(imyEvolve
Tree
p1826
(dp1827
g10
I3
sg11
(imyEvolve
Tree
p1828
(dp1829
g10
I2
sg11
(imyEvolve
Tree
p1830
(dp1831
g7
(imyEvolve
Tree
p1832
(dp1833
g10
I0
sg14
F-4.886990221795377
sg15
I01
sbsg10
I1
sg19
I01
sg20
g33
sbsg16
(imyEvolve
Tree
p1834
(dp1835
g10
I1
sg11
(imyEvolve
Tree
p1836
(dp1837
g10
I0
sg15
I00
sbsg16
(imyEvolve
Tree
p1838
(dp1839
g10
I0
sg14
F1.4719045414077385
sg15
I01
sbsg19
I00
sg20
g21
sbsg19
I00
sg20
g85
sbsg16
(imyEvolve
Tree
p1840
(dp1841
g7
(imyEvolve
Tree
p1842
(dp1843
g10
I1
sg11
(imyEvolve
Tree
p1844
(dp1845
g10
I0
sg14
F2.676068373655437
sg15
I01
sbsg16
(imyEvolve
Tree
p1846
(dp1847
g10
I0
sg14
F-4.29482809079584
sg15
I01
sbsg19
I00
sg20
g85
sbsg10
I2
sg19
I01
sg20
g33
sbsg19
I00
sg20
g50
sbsg19
I00
sg20
g50
sbsg10
I5
sg19
I01
sg20
g33
sba(imyEvolve
Tree
p1848
(dp1849
g10
I2
sg11
(imyEvolve
Tree
p1850
(dp1851
g7
(imyEvolve
Tree
p1852
(dp1853
g10
I0
sg15
I00
sbsg10
I1
sg19
I01
sg20
g22
sbsg16
(imyEvolve
Tree
p1854
(dp1855
g7
(imyEvolve
Tree
p1856
(dp1857
g10
I0
sg15
I00
sbsg10
I1
sg19
I01
sg20
g22
sbsg19
I00
sg20
g85
sba(imyEvolve
Tree
p1858
(dp1859
g10
I4
sg11
(imyEvolve
Tree
p1860
(dp1861
g7
(imyEvolve
Tree
p1862
(dp1863
g10
I2
sg11
(imyEvolve
Tree
p1864
(dp1865
g7
(imyEvolve
Tree
p1866
(dp1867
g10
I0
sg14
F2.972811994327068
sg15
I01
sbsg10
I1
sg19
I01
sg20
g33
sbsg16
(imyEvolve
Tree
p1868
(dp1869
g7
(imyEvolve
Tree
p1870
(dp1871
g10
I0
sg15
I00
sbsg10
I1
sg19
I01
sg20
g33
sbsg19
I00
sg20
g21
sbsg10
I3
sg19
I01
sg20
g57
sbsg16
(imyEvolve
Tree
p1872
(dp1873
g7
(imyEvolve
Tree
p1874
(dp1875
g10
I2
sg11
(imyEvolve
Tree
p1876
(dp1877
g10
I1
sg11
(imyEvolve
Tree
p1878
(dp1879
g10
I0
sg15
I00
sbsg16
(imyEvolve
Tree
p1880
(dp1881
g10
I0
sg14
F1.3389002765910103
sg15
I01
sbsg19
I00
sg20
g85
sbsg16
(imyEvolve
Tree
p1882
(dp1883
g10
I1
sg11
(imyEvolve
Tree
p1884
(dp1885
g10
I0
sg14
F-3.3371046778430835
sg15
I01
sbsg16
(imyEvolve
Tree
p1886
(dp1887
g10
I0
sg15
I00
sbsg19
I00
sg20
g85
sbsg19
I00
sg20
g50
sbsg10
I3
sg19
I01
sg20
g58
sbsg19
I00
sg20
g50
sba(imyEvolve
Tree
p1888
(dp1889
g7
(imyEvolve
Tree
p1890
(dp1891
g7
(imyEvolve
Tree
p1892
(dp1893
g10
I0
sg15
I00
sbsg10
I1
sg19
I01
sg20
g58
sbsg10
I2
sg19
I01
sg20
g57
sbaasS'weightSharing'
p1894
(lp1895
I00
asS'fitnessValid'
p1896
I00
sS'fitness'
p1897
cnumpy.core.multiarray
scalar
p1898
(cnumpy
dtype
p1899
(S'f8'
p1900
I0
I1
tp1901
Rp1902
(I3
S'<'
p1903
NNNI-1
I-1
I0
tp1904
bS'w-!\xf9\x97$\xe6?'
p1905
tp1906
Rp1907
sS'alpha'
p1908
F0.005764235129601512
sS'resolution'
p1909
I54
sb.