(imyEvolve
Individual
p0
(dp1
S'funcs'
p2
(lp3
(lp4
(imyEvolve
Tree
p5
(dp6
S'below'
p7
(imyEvolve
Tree
p8
(dp9
g7
(imyEvolve
Tree
p10
(dp11
S'depth'
p12
I1
sS'left'
p13
(imyEvolve
Tree
p14
(dp15
g12
I0
sS'constant'
p16
F-3.6799578816483525
sS'isConstant'
p17
I01
sbsS'right'
p18
(imyEvolve
Tree
p19
(dp20
g12
I0
sg17
I00
sbsS'single'
p21
I00
sS'op'
p22
coperator
mul
p23
sbsg12
I2
sg21
I01
sg22
cmyEvolve
square
p24
sbsg12
I3
sg21
I01
sg22
cmath
sin
p25
sba(imyEvolve
Tree
p26
(dp27
g7
(imyEvolve
Tree
p28
(dp29
g7
(imyEvolve
Tree
p30
(dp31
g12
I0
sg16
F4.859687497782758
sg17
I01
sbsg12
I1
sg21
I01
sg22
g24
sbsg12
I2
sg21
I01
sg22
g25
sba(imyEvolve
Tree
p32
(dp33
g12
I5
sg13
(imyEvolve
Tree
p34
(dp35
g7
(imyEvolve
Tree
p36
(dp37
g12
I3
sg13
(imyEvolve
Tree
p38
(dp39
g7
(imyEvolve
Tree
p40
(dp41
g12
I1
sg13
(imyEvolve
Tree
p42
(dp43
g12
I0
sg16
F-1.131375541990851
sg17
I01
sbsg18
(imyEvolve
Tree
p44
(dp45
g12
I0
sg17
I00
sbsg21
I00
sg22
coperator
add
p46
sbsg12
I2
sg21
I01
sg22
cmath
cos
p47
sbsg18
(imyEvolve
Tree
p48
(dp49
g7
(imyEvolve
Tree
p50
(dp51
g12
I1
sg13
(imyEvolve
Tree
p52
(dp53
g12
I0
sg16
F-2.4879748860147455
sg17
I01
sbsg18
(imyEvolve
Tree
p54
(dp55
g12
I0
sg16
F3.987290062653164
sg17
I01
sbsg21
I00
sg22
g46
sbsg12
I2
sg21
I01
sg22
g25
sbsg21
I00
sg22
coperator
sub
p56
sbsg12
I4
sg21
I01
sg22
g25
sbsg18
(imyEvolve
Tree
p57
(dp58
g7
(imyEvolve
Tree
p59
(dp60
g7
(imyEvolve
Tree
p61
(dp62
g12
I2
sg13
(imyEvolve
Tree
p63
(dp64
g7
(imyEvolve
Tree
p65
(dp66
g12
I0
sg16
F2.9772918225585867
sg17
I01
sbsg12
I1
sg21
I01
sg22
g47
sbsg18
(imyEvolve
Tree
p67
(dp68
g12
I1
sg13
(imyEvolve
Tree
p69
(dp70
g12
I0
sg16
F-2.9103983715030326
sg17
I01
sbsg18
(imyEvolve
Tree
p71
(dp72
g12
I0
sg16
F1.9718833119207515
sg17
I01
sbsg21
I00
sg22
g56
sbsg21
I00
sg22
g46
sbsg12
I3
sg21
I01
sg22
g47
sbsg12
I4
sg21
I01
sg22
g24
sbsg21
I00
sg22
g46
sba(imyEvolve
Tree
p73
(dp74
g12
I2
sg13
(imyEvolve
Tree
p75
(dp76
g7
(imyEvolve
Tree
p77
(dp78
g12
I0
sg17
I00
sbsg12
I1
sg21
I01
sg22
cmyEvolve
absSqrt
p79
sbsg18
(imyEvolve
Tree
p80
(dp81
g12
I1
sg13
(imyEvolve
Tree
p82
(dp83
g12
I0
sg16
F-0.6486394829066207
sg17
I01
sbsg18
(imyEvolve
Tree
p84
(dp85
g12
I0
sg16
F-3.12827878359184
sg17
I01
sbsg21
I00
sg22
g23
sbsg21
I00
sg22
g56
sba(imyEvolve
Tree
p86
(dp87
g12
I2
sg13
(imyEvolve
Tree
p88
(dp89
g12
I1
sg13
(imyEvolve
Tree
p90
(dp91
g12
I0
sg17
I00
sbsg18
(imyEvolve
Tree
p92
(dp93
g12
I0
sg16
F3.3764397808910633
sg17
I01
sbsg21
I00
sg22
g23
sbsg18
(imyEvolve
Tree
p94
(dp95
g7
(imyEvolve
Tree
p96
(dp97
g12
I0
sg16
F1.17356293661543
sg17
I01
sbsg12
I1
sg21
I01
sg22
g24
sbsg21
I00
sg22
g23
sba(imyEvolve
Tree
p98
(dp99
g12
I3
sg13
(imyEvolve
Tree
p100
(dp101
g7
(imyEvolve
Tree
p102
(dp103
g12
I1
sg13
(imyEvolve
Tree
p104
(dp105
g12
I0
sg17
I00
sbsg18
(imyEvolve
Tree
p106
(dp107
g12
I0
sg17
I00
sbsg21
I00
sg22
g23
sbsg12
I2
sg21
I01
sg22
g25
sbsg18
(imyEvolve
Tree
p108
(dp109
g7
(imyEvolve
Tree
p110
(dp111
g12
I1
sg13
(imyEvolve
Tree
p112
(dp113
g12
I0
sg16
F0.08998964162570644
sg17
I01
sbsg18
(imyEvolve
Tree
p114
(dp115
g12
I0
sg17
I00
sbsg21
I00
sg22
g56
sbsg12
I2
sg21
I01
sg22
g47
sbsg21
I00
sg22
g56
sba(imyEvolve
Tree
p116
(dp117
g12
I3
sg13
(imyEvolve
Tree
p118
(dp119
g7
(imyEvolve
Tree
p120
(dp121
g12
I1
sg13
(imyEvolve
Tree
p122
(dp123
g12
I0
sg17
I00
sbsg18
(imyEvolve
Tree
p124
(dp125
g12
I0
sg16
F0.48929563587500446
sg17
I01
sbsg21
I00
sg22
g46
sbsg12
I2
sg21
I01
sg22
g25
sbsg18
(imyEvolve
Tree
p126
(dp127
g12
I2
sg13
(imyEvolve
Tree
p128
(dp129
g12
I1
sg13
(imyEvolve
Tree
p130
(dp131
g12
I0
sg16
F-3.533967185944272
sg17
I01
sbsg18
(imyEvolve
Tree
p132
(dp133
g12
I0
sg16
F4.473388827467717
sg17
I01
sbsg21
I00
sg22
g23
sbsg18
(imyEvolve
Tree
p134
(dp135
g12
I1
sg13
(imyEvolve
Tree
p136
(dp137
g12
I0
sg16
F-1.4009896929570207
sg17
I01
sbsg18
(imyEvolve
Tree
p138
(dp139
g12
I0
sg16
F2.5109745037700906
sg17
I01
sbsg21
I00
sg22
g46
sbsg21
I00
sg22
g56
sbsg21
I00
sg22
g46
sba(imyEvolve
Tree
p140
(dp141
g12
I3
sg13
(imyEvolve
Tree
p142
(dp143
g12
I2
sg13
(imyEvolve
Tree
p144
(dp145
g12
I1
sg13
(imyEvolve
Tree
p146
(dp147
g12
I0
sg16
F-4.750084008289815
sg17
I01
sbsg18
(imyEvolve
Tree
p148
(dp149
g12
I0
sg17
I00
sbsg21
I00
sg22
g23
sbsg18
(imyEvolve
Tree
p150
(dp151
g7
(imyEvolve
Tree
p152
(dp153
g12
I0
sg16
F1.0766747640681977
sg17
I01
sbsg12
I1
sg21
I01
sg22
g25
sbsg21
I00
sg22
g56
sbsg18
(imyEvolve
Tree
p154
(dp155
g12
I2
sg13
(imyEvolve
Tree
p156
(dp157
g7
(imyEvolve
Tree
p158
(dp159
g12
I0
sg16
F4.551842112552109
sg17
I01
sbsg12
I1
sg21
I01
sg22
g47
sbsg18
(imyEvolve
Tree
p160
(dp161
g7
(imyEvolve
Tree
p162
(dp163
g12
I0
sg17
I00
sbsg12
I1
sg21
I01
sg22
g24
sbsg21
I00
sg22
g23
sbsg21
I00
sg22
g46
sba(imyEvolve
Tree
p164
(dp165
g7
(imyEvolve
Tree
p166
(dp167
g7
(imyEvolve
Tree
p168
(dp169
g12
I3
sg13
(imyEvolve
Tree
p170
(dp171
g7
(imyEvolve
Tree
p172
(dp173
g7
(imyEvolve
Tree
p174
(dp175
g12
I0
sg16
F-0.3560801838431811
sg17
I01
sbsg12
I1
sg21
I01
sg22
g24
sbsg12
I2
sg21
I01
sg22
g25
sbsg18
(imyEvolve
Tree
p176
(dp177
g7
(imyEvolve
Tree
p178
(dp179
g7
(imyEvolve
Tree
p180
(dp181
g12
I0
sg17
I00
sbsg12
I1
sg21
I01
sg22
g25
sbsg12
I2
sg21
I01
sg22
g79
sbsg21
I00
sg22
g46
sbsg12
I4
sg21
I01
sg22
g24
sbsg12
I5
sg21
I01
sg22
g47
sba(imyEvolve
Tree
p182
(dp183
g12
I2
sg13
(imyEvolve
Tree
p184
(dp185
g7
(imyEvolve
Tree
p186
(dp187
g12
I0
sg16
F-3.436012833390001
sg17
I01
sbsg12
I1
sg21
I01
sg22
g25
sbsg18
(imyEvolve
Tree
p188
(dp189
g12
I1
sg13
(imyEvolve
Tree
p190
(dp191
g12
I0
sg16
F-1.5261395302044556
sg17
I01
sbsg18
(imyEvolve
Tree
p192
(dp193
g12
I0
sg16
F4.187503723896075
sg17
I01
sbsg21
I00
sg22
g46
sbsg21
I00
sg22
g56
sba(imyEvolve
Tree
p194
(dp195
g7
(imyEvolve
Tree
p196
(dp197
g7
(imyEvolve
Tree
p198
(dp199
g12
I2
sg13
(imyEvolve
Tree
p200
(dp201
g12
I1
sg13
(imyEvolve
Tree
p202
(dp203
g12
I0
sg16
F3.3997637659949795
sg17
I01
sbsg18
(imyEvolve
Tree
p204
(dp205
g12
I0
sg16
F2.5493574187383663
sg17
I01
sbsg21
I00
sg22
g46
sbsg18
(imyEvolve
Tree
p206
(dp207
g7
(imyEvolve
Tree
p208
(dp209
g12
I0
sg17
I00
sbsg12
I1
sg21
I01
sg22
g79
sbsg21
I00
sg22
g46
sbsg12
I3
sg21
I01
sg22
g79
sbsg12
I4
sg21
I01
sg22
g25
sba(imyEvolve
Tree
p210
(dp211
g7
(imyEvolve
Tree
p212
(dp213
g12
I2
sg13
(imyEvolve
Tree
p214
(dp215
g12
I1
sg13
(imyEvolve
Tree
p216
(dp217
g12
I0
sg17
I00
sbsg18
(imyEvolve
Tree
p218
(dp219
g12
I0
sg16
F-3.8975337668397882
sg17
I01
sbsg21
I00
sg22
g23
sbsg18
(imyEvolve
Tree
p220
(dp221
g12
I1
sg13
(imyEvolve
Tree
p222
(dp223
g12
I0
sg16
F4.988307664620692
sg17
I01
sbsg18
(imyEvolve
Tree
p224
(dp225
g12
I0
sg17
I00
sbsg21
I00
sg22
g56
sbsg21
I00
sg22
g46
sbsg12
I3
sg21
I01
sg22
g25
sba(imyEvolve
Tree
p226
(dp227
g12
I4
sg13
(imyEvolve
Tree
p228
(dp229
g12
I3
sg13
(imyEvolve
Tree
p230
(dp231
g12
I2
sg13
(imyEvolve
Tree
p232
(dp233
g7
(imyEvolve
Tree
p234
(dp235
g12
I0
sg17
I00
sbsg12
I1
sg21
I01
sg22
g24
sbsg18
(imyEvolve
Tree
p236
(dp237
g12
I1
sg13
(imyEvolve
Tree
p238
(dp239
g12
I0
sg17
I00
sbsg18
(imyEvolve
Tree
p240
(dp241
g12
I0
sg17
I00
sbsg21
I00
sg22
g56
sbsg21
I00
sg22
g23
sbsg18
(imyEvolve
Tree
p242
(dp243
g12
I2
sg13
(imyEvolve
Tree
p244
(dp245
g7
(imyEvolve
Tree
p246
(dp247
g12
I0
sg17
I00
sbsg12
I1
sg21
I01
sg22
g79
sbsg18
(imyEvolve
Tree
p248
(dp249
g7
(imyEvolve
Tree
p250
(dp251
g12
I0
sg16
F3.158063759531508
sg17
I01
sbsg12
I1
sg21
I01
sg22
g24
sbsg21
I00
sg22
g23
sbsg21
I00
sg22
g23
sbsg18
(imyEvolve
Tree
p252
(dp253
g12
I3
sg13
(imyEvolve
Tree
p254
(dp255
g12
I2
sg13
(imyEvolve
Tree
p256
(dp257
g7
(imyEvolve
Tree
p258
(dp259
g12
I0
sg17
I00
sbsg12
I1
sg21
I01
sg22
g79
sbsg18
(imyEvolve
Tree
p260
(dp261
g12
I1
sg13
(imyEvolve
Tree
p262
(dp263
g12
I0
sg16
F-1.897831969199859
sg17
I01
sbsg18
(imyEvolve
Tree
p264
(dp265
g12
I0
sg17
I00
sbsg21
I00
sg22
g23
sbsg21
I00
sg22
g56
sbsg18
(imyEvolve
Tree
p266
(dp267
g7
(imyEvolve
Tree
p268
(dp269
g12
I1
sg13
(imyEvolve
Tree
p270
(dp271
g12
I0
sg16
F-0.23838520470461066
sg17
I01
sbsg18
(imyEvolve
Tree
p272
(dp273
g12
I0
sg16
F-3.713498022330164
sg17
I01
sbsg21
I00
sg22
g23
sbsg12
I2
sg21
I01
sg22
g24
sbsg21
I00
sg22
g46
sbsg21
I00
sg22
g46
sba(imyEvolve
Tree
p274
(dp275
g12
I3
sg13
(imyEvolve
Tree
p276
(dp277
g7
(imyEvolve
Tree
p278
(dp279
g7
(imyEvolve
Tree
p280
(dp281
g12
I0
sg16
F1.4403340220243095
sg17
I01
sbsg12
I1
sg21
I01
sg22
g79
sbsg12
I2
sg21
I01
sg22
g25
sbsg18
(imyEvolve
Tree
p282
(dp283
g12
I2
sg13
(imyEvolve
Tree
p284
(dp285
g12
I1
sg13
(imyEvolve
Tree
p286
(dp287
g12
I0
sg16
F0.7355005020398453
sg17
I01
sbsg18
(imyEvolve
Tree
p288
(dp289
g12
I0
sg17
I00
sbsg21
I00
sg22
g46
sbsg18
(imyEvolve
Tree
p290
(dp291
g12
I1
sg13
(imyEvolve
Tree
p292
(dp293
g12
I0
sg16
F-2.898735589142981
sg17
I01
sbsg18
(imyEvolve
Tree
p294
(dp295
g12
I0
sg17
I00
sbsg21
I00
sg22
g23
sbsg21
I00
sg22
g46
sbsg21
I00
sg22
g46
sba(imyEvolve
Tree
p296
(dp297
g7
(imyEvolve
Tree
p298
(dp299
g7
(imyEvolve
Tree
p300
(dp301
g12
I0
sg16
F-3.533639074155696
sg17
I01
sbsg12
I1
sg21
I01
sg22
g25
sbsg12
I2
sg21
I01
sg22
g47
sbaa(lp302
(imyEvolve
Tree
p303
(dp304
g7
(imyEvolve
Tree
p305
(dp306
g7
(imyEvolve
Tree
p307
(dp308
g12
I3
sg13
(imyEvolve
Tree
p309
(dp310
g12
I2
sg13
(imyEvolve
Tree
p311
(dp312
g12
I1
sg13
(imyEvolve
Tree
p313
(dp314
g12
I0
sg17
I00
sbsg18
(imyEvolve
Tree
p315
(dp316
g12
I0
sg17
I00
sbsg21
I00
sg22
g46
sbsg18
(imyEvolve
Tree
p317
(dp318
g7
(imyEvolve
Tree
p319
(dp320
g12
I0
sg16
F-1.9122228269511687
sg17
I01
sbsg12
I1
sg21
I01
sg22
g79
sbsg21
I00
sg22
g56
sbsg18
(imyEvolve
Tree
p321
(dp322
g7
(imyEvolve
Tree
p323
(dp324
g7
(imyEvolve
Tree
p325
(dp326
g12
I0
sg16
F1.8062653365840866
sg17
I01
sbsg12
I1
sg21
I01
sg22
g47
sbsg12
I2
sg21
I01
sg22
g24
sbsg21
I00
sg22
g23
sbsg12
I4
sg21
I01
sg22
g24
sbsg12
I5
sg21
I01
sg22
g24
sba(imyEvolve
Tree
p327
(dp328
g12
I3
sg13
(imyEvolve
Tree
p329
(dp330
g7
(imyEvolve
Tree
p331
(dp332
g7
(imyEvolve
Tree
p333
(dp334
g12
I0
sg17
I00
sbsg12
I1
sg21
I01
sg22
g79
sbsg12
I2
sg21
I01
sg22
g24
sbsg18
(imyEvolve
Tree
p335
(dp336
g12
I2
sg13
(imyEvolve
Tree
p337
(dp338
g7
(imyEvolve
Tree
p339
(dp340
g12
I0
sg16
F0.6476319131824262
sg17
I01
sbsg12
I1
sg21
I01
sg22
g25
sbsg18
(imyEvolve
Tree
p341
(dp342
g12
I1
sg13
(imyEvolve
Tree
p343
(dp344
g12
I0
sg16
F1.2946630450303527
sg17
I01
sbsg18
(imyEvolve
Tree
p345
(dp346
g12
I0
sg16
F-4.277495819811488
sg17
I01
sbsg21
I00
sg22
g46
sbsg21
I00
sg22
g56
sbsg21
I00
sg22
g46
sba(imyEvolve
Tree
p347
(dp348
g12
I4
sg13
(imyEvolve
Tree
p349
(dp350
g7
(imyEvolve
Tree
p351
(dp352
g12
I2
sg13
(imyEvolve
Tree
p353
(dp354
g12
I1
sg13
(imyEvolve
Tree
p355
(dp356
g12
I0
sg16
F1.229988267601243
sg17
I01
sbsg18
(imyEvolve
Tree
p357
(dp358
g12
I0
sg16
F4.269072494453551
sg17
I01
sbsg21
I00
sg22
g46
sbsg18
(imyEvolve
Tree
p359
(dp360
g12
I1
sg13
(imyEvolve
Tree
p361
(dp362
g12
I0
sg17
I00
sbsg18
(imyEvolve
Tree
p363
(dp364
g12
I0
sg16
F-4.043809535156085
sg17
I01
sbsg21
I00
sg22
g56
sbsg21
I00
sg22
g23
sbsg12
I3
sg21
I01
sg22
g47
sbsg18
(imyEvolve
Tree
p365
(dp366
g12
I3
sg13
(imyEvolve
Tree
p367
(dp368
g12
I2
sg13
(imyEvolve
Tree
p369
(dp370
g7
(imyEvolve
Tree
p371
(dp372
g12
I0
sg17
I00
sbsg12
I1
sg21
I01
sg22
g47
sbsg18
(imyEvolve
Tree
p373
(dp374
g7
(imyEvolve
Tree
p375
(dp376
g12
I0
sg16
F-0.2850410679731139
sg17
I01
sbsg12
I1
sg21
I01
sg22
g47
sbsg21
I00
sg22
g23
sbsg18
(imyEvolve
Tree
p377
(dp378
g7
(imyEvolve
Tree
p379
(dp380
g12
I1
sg13
(imyEvolve
Tree
p381
(dp382
g12
I0
sg17
I00
sbsg18
(imyEvolve
Tree
p383
(dp384
g12
I0
sg17
I00
sbsg21
I00
sg22
g23
sbsg12
I2
sg21
I01
sg22
g47
sbsg21
I00
sg22
g23
sbsg21
I00
sg22
g56
sba(imyEvolve
Tree
p385
(dp386
g7
(imyEvolve
Tree
p387
(dp388
g7
(imyEvolve
Tree
p389
(dp390
g7
(imyEvolve
Tree
p391
(dp392
g12
I0
sg17
I00
sbsg12
I1
sg21
I01
sg22
g79
sbsg12
I2
sg21
I01
sg22
g79
sbsg12
I3
sg21
I01
sg22
g25
sba(imyEvolve
Tree
p393
(dp394
g12
I5
sg13
(imyEvolve
Tree
p395
(dp396
g7
(imyEvolve
Tree
p397
(dp398
g12
I3
sg13
(imyEvolve
Tree
p399
(dp400
g12
I2
sg13
(imyEvolve
Tree
p401
(dp402
g7
(imyEvolve
Tree
p403
(dp404
g12
I0
sg16
F-1.6541295219725027
sg17
I01
sbsg12
I1
sg21
I01
sg22
g79
sbsg18
(imyEvolve
Tree
p405
(dp406
g12
I1
sg13
(imyEvolve
Tree
p407
(dp408
g12
I0
sg17
I00
sbsg18
(imyEvolve
Tree
p409
(dp410
g12
I0
sg16
F-0.07754710177702773
sg17
I01
sbsg21
I00
sg22
g23
sbsg21
I00
sg22
g56
sbsg18
(imyEvolve
Tree
p411
(dp412
g12
I2
sg13
(imyEvolve
Tree
p413
(dp414
g12
I1
sg13
(imyEvolve
Tree
p415
(dp416
g12
I0
sg17
I00
sbsg18
(imyEvolve
Tree
p417
(dp418
g12
I0
sg16
F2.831240198842604
sg17
I01
sbsg21
I00
sg22
g56
sbsg18
(imyEvolve
Tree
p419
(dp420
g12
I1
sg13
(imyEvolve
Tree
p421
(dp422
g12
I0
sg16
F3.5260624669661382
sg17
I01
sbsg18
(imyEvolve
Tree
p423
(dp424
g12
I0
sg16
F-0.21098175287046672
sg17
I01
sbsg21
I00
sg22
g56
sbsg21
I00
sg22
g46
sbsg21
I00
sg22
g56
sbsg12
I4
sg21
I01
sg22
g79
sbsg18
(imyEvolve
Tree
p425
(dp426
g7
(imyEvolve
Tree
p427
(dp428
g12
I3
sg13
(imyEvolve
Tree
p429
(dp430
g12
I2
sg13
(imyEvolve
Tree
p431
(dp432
g12
I1
sg13
(imyEvolve
Tree
p433
(dp434
g12
I0
sg17
I00
sbsg18
(imyEvolve
Tree
p435
(dp436
g12
I0
sg16
F3.5416071112869503
sg17
I01
sbsg21
I00
sg22
g56
sbsg18
(imyEvolve
Tree
p437
(dp438
g12
I1
sg13
(imyEvolve
Tree
p439
(dp440
g12
I0
sg17
I00
sbsg18
(imyEvolve
Tree
p441
(dp442
g12
I0
sg16
F-2.399015537271719
sg17
I01
sbsg21
I00
sg22
g46
sbsg21
I00
sg22
g46
sbsg18
(imyEvolve
Tree
p443
(dp444
g7
(imyEvolve
Tree
p445
(dp446
g12
I1
sg13
(imyEvolve
Tree
p447
(dp448
g12
I0
sg16
F-4.271935232613516
sg17
I01
sbsg18
(imyEvolve
Tree
p449
(dp450
g12
I0
sg17
I00
sbsg21
I00
sg22
g23
sbsg12
I2
sg21
I01
sg22
g79
sbsg21
I00
sg22
g56
sbsg12
I4
sg21
I01
sg22
g25
sbsg21
I00
sg22
g46
sba(imyEvolve
Tree
p451
(dp452
g7
(imyEvolve
Tree
p453
(dp454
g7
(imyEvolve
Tree
p455
(dp456
g12
I3
sg13
(imyEvolve
Tree
p457
(dp458
g12
I2
sg13
(imyEvolve
Tree
p459
(dp460
g7
(imyEvolve
Tree
p461
(dp462
g12
I0
sg17
I00
sbsg12
I1
sg21
I01
sg22
g79
sbsg18
(imyEvolve
Tree
p463
(dp464
g12
I1
sg13
(imyEvolve
Tree
p465
(dp466
g12
I0
sg16
F-0.11897915920372171
sg17
I01
sbsg18
(imyEvolve
Tree
p467
(dp468
g12
I0
sg16
F-4.355949559053558
sg17
I01
sbsg21
I00
sg22
g46
sbsg21
I00
sg22
g46
sbsg18
(imyEvolve
Tree
p469
(dp470
g7
(imyEvolve
Tree
p471
(dp472
g7
(imyEvolve
Tree
p473
(dp474
g12
I0
sg16
F-4.196884986892587
sg17
I01
sbsg12
I1
sg21
I01
sg22
g79
sbsg12
I2
sg21
I01
sg22
g24
sbsg21
I00
sg22
g23
sbsg12
I4
sg21
I01
sg22
g79
sbsg12
I5
sg21
I01
sg22
g24
sba(imyEvolve
Tree
p475
(dp476
g12
I5
sg13
(imyEvolve
Tree
p477
(dp478
g7
(imyEvolve
Tree
p479
(dp480
g7
(imyEvolve
Tree
p481
(dp482
g12
I2
sg13
(imyEvolve
Tree
p483
(dp484
g7
(imyEvolve
Tree
p485
(dp486
g12
I0
sg17
I00
sbsg12
I1
sg21
I01
sg22
g79
sbsg18
(imyEvolve
Tree
p487
(dp488
g12
I1
sg13
(imyEvolve
Tree
p489
(dp490
g12
I0
sg17
I00
sbsg18
(imyEvolve
Tree
p491
(dp492
g12
I0
sg17
I00
sbsg21
I00
sg22
g23
sbsg21
I00
sg22
g56
sbsg12
I3
sg21
I01
sg22
g79
sbsg12
I4
sg21
I01
sg22
g25
sbsg18
(imyEvolve
Tree
p493
(dp494
g7
(imyEvolve
Tree
p495
(dp496
g7
(imyEvolve
Tree
p497
(dp498
g7
(imyEvolve
Tree
p499
(dp500
g12
I1
sg13
(imyEvolve
Tree
p501
(dp502
g12
I0
sg17
I00
sbsg18
(imyEvolve
Tree
p503
(dp504
g12
I0
sg16
F2.11908591060312
sg17
I01
sbsg21
I00
sg22
g23
sbsg12
I2
sg21
I01
sg22
g47
sbsg12
I3
sg21
I01
sg22
g47
sbsg12
I4
sg21
I01
sg22
g79
sbsg21
I00
sg22
g23
sba(imyEvolve
Tree
p505
(dp506
g12
I3
sg13
(imyEvolve
Tree
p507
(dp508
g12
I2
sg13
(imyEvolve
Tree
p509
(dp510
g12
I1
sg13
(imyEvolve
Tree
p511
(dp512
g12
I0
sg17
I00
sbsg18
(imyEvolve
Tree
p513
(dp514
g12
I0
sg16
F1.5862687052864057
sg17
I01
sbsg21
I00
sg22
g46
sbsg18
(imyEvolve
Tree
p515
(dp516
g7
(imyEvolve
Tree
p517
(dp518
g12
I0
sg17
I00
sbsg12
I1
sg21
I01
sg22
g47
sbsg21
I00
sg22
g56
sbsg18
(imyEvolve
Tree
p519
(dp520
g7
(imyEvolve
Tree
p521
(dp522
g12
I1
sg13
(imyEvolve
Tree
p523
(dp524
g12
I0
sg17
I00
sbsg18
(imyEvolve
Tree
p525
(dp526
g12
I0
sg17
I00
sbsg21
I00
sg22
g23
sbsg12
I2
sg21
I01
sg22
g79
sbsg21
I00
sg22
g46
sba(imyEvolve
Tree
p527
(dp528
g7
(imyEvolve
Tree
p529
(dp530
g12
I3
sg13
(imyEvolve
Tree
p531
(dp532
g7
(imyEvolve
Tree
p533
(dp534
g12
I1
sg13
(imyEvolve
Tree
p535
(dp536
g12
I0
sg16
F-2.940691134343596
sg17
I01
sbsg18
(imyEvolve
Tree
p537
(dp538
g12
I0
sg16
F-4.010964642941184
sg17
I01
sbsg21
I00
sg22
g56
sbsg12
I2
sg21
I01
sg22
g24
sbsg18
(imyEvolve
Tree
p539
(dp540
g12
I2
sg13
(imyEvolve
Tree
p541
(dp542
g12
I1
sg13
(imyEvolve
Tree
p543
(dp544
g12
I0
sg17
I00
sbsg18
(imyEvolve
Tree
p545
(dp546
g12
I0
sg17
I00
sbsg21
I00
sg22
g56
sbsg18
(imyEvolve
Tree
p547
(dp548
g12
I1
sg13
(imyEvolve
Tree
p549
(dp550
g12
I0
sg16
F-3.217382284616579
sg17
I01
sbsg18
(imyEvolve
Tree
p551
(dp552
g12
I0
sg16
F-3.741999131129732
sg17
I01
sbsg21
I00
sg22
g46
sbsg21
I00
sg22
g23
sbsg21
I00
sg22
g23
sbsg12
I4
sg21
I01
sg22
g79
sba(imyEvolve
Tree
p553
(dp554
g7
(imyEvolve
Tree
p555
(dp556
g12
I1
sg13
(imyEvolve
Tree
p557
(dp558
g12
I0
sg17
I00
sbsg18
(imyEvolve
Tree
p559
(dp560
g12
I0
sg17
I00
sbsg21
I00
sg22
g23
sbsg12
I2
sg21
I01
sg22
g47
sba(imyEvolve
Tree
p561
(dp562
g12
I4
sg13
(imyEvolve
Tree
p563
(dp564
g12
I3
sg13
(imyEvolve
Tree
p565
(dp566
g12
I2
sg13
(imyEvolve
Tree
p567
(dp568
g7
(imyEvolve
Tree
p569
(dp570
g12
I0
sg17
I00
sbsg12
I1
sg21
I01
sg22
g24
sbsg18
(imyEvolve
Tree
p571
(dp572
g12
I1
sg13
(imyEvolve
Tree
p573
(dp574
g12
I0
sg17
I00
sbsg18
(imyEvolve
Tree
p575
(dp576
g12
I0
sg17
I00
sbsg21
I00
sg22
g46
sbsg21
I00
sg22
g56
sbsg18
(imyEvolve
Tree
p577
(dp578
g12
I2
sg13
(imyEvolve
Tree
p579
(dp580
g12
I1
sg13
(imyEvolve
Tree
p581
(dp582
g12
I0
sg17
I00
sbsg18
(imyEvolve
Tree
p583
(dp584
g12
I0
sg17
I00
sbsg21
I00
sg22
g46
sbsg18
(imyEvolve
Tree
p585
(dp586
g12
I1
sg13
(imyEvolve
Tree
p587
(dp588
g12
I0
sg17
I00
sbsg18
(imyEvolve
Tree
p589
(dp590
g12
I0
sg17
I00
sbsg21
I00
sg22
g23
sbsg21
I00
sg22
g23
sbsg21
I00
sg22
g46
sbsg18
(imyEvolve
Tree
p591
(dp592
g12
I3
sg13
(imyEvolve
Tree
p593
(dp594
g12
I2
sg13
(imyEvolve
Tree
p595
(dp596
g12
I1
sg13
(imyEvolve
Tree
p597
(dp598
g12
I0
sg16
F1.2185106754906192
sg17
I01
sbsg18
(imyEvolve
Tree
p599
(dp600
g12
I0
sg16
F0.49731483126048115
sg17
I01
sbsg21
I00
sg22
g23
sbsg18
(imyEvolve
Tree
p601
(dp602
g12
I1
sg13
(imyEvolve
Tree
p603
(dp604
g12
I0
sg16
F-0.3369477697426868
sg17
I01
sbsg18
(imyEvolve
Tree
p605
(dp606
g12
I0
sg17
I00
sbsg21
I00
sg22
g23
sbsg21
I00
sg22
g56
sbsg18
(imyEvolve
Tree
p607
(dp608
g7
(imyEvolve
Tree
p609
(dp610
g12
I1
sg13
(imyEvolve
Tree
p611
(dp612
g12
I0
sg16
F2.531135079344457
sg17
I01
sbsg18
(imyEvolve
Tree
p613
(dp614
g12
I0
sg17
I00
sbsg21
I00
sg22
g23
sbsg12
I2
sg21
I01
sg22
g47
sbsg21
I00
sg22
g23
sbsg21
I00
sg22
g56
sba(imyEvolve
Tree
p615
(dp616
g7
(imyEvolve
Tree
p617
(dp618
g12
I4
sg13
(imyEvolve
Tree
p619
(dp620
g12
I3
sg13
(imyEvolve
Tree
p621
(dp622
g12
I2
sg13
(imyEvolve
Tree
p623
(dp624
g7
(imyEvolve
Tree
p625
(dp626
g12
I0
sg17
I00
sbsg12
I1
sg21
I01
sg22
g79
sbsg18
(imyEvolve
Tree
p627
(dp628
g12
I1
sg13
(imyEvolve
Tree
p629
(dp630
g12
I0
sg16
F-2.9720417756739947
sg17
I01
sbsg18
(imyEvolve
Tree
p631
(dp632
g12
I0
sg17
I00
sbsg21
I00
sg22
g56
sbsg21
I00
sg22
g23
sbsg18
(imyEvolve
Tree
p633
(dp634
g12
I2
sg13
(imyEvolve
Tree
p635
(dp636
g7
(imyEvolve
Tree
p637
(dp638
g12
I0
sg16
F1.4738059027410042
sg17
I01
sbsg12
I1
sg21
I01
sg22
g24
sbsg18
(imyEvolve
Tree
p639
(dp640
g7
(imyEvolve
Tree
p641
(dp642
g12
I0
sg17
I00
sbsg12
I1
sg21
I01
sg22
g79
sbsg21
I00
sg22
g23
sbsg21
I00
sg22
g56
sbsg18
(imyEvolve
Tree
p643
(dp644
g7
(imyEvolve
Tree
p645
(dp646
g7
(imyEvolve
Tree
p647
(dp648
g7
(imyEvolve
Tree
p649
(dp650
g12
I0
sg16
F-4.4032050009109
sg17
I01
sbsg12
I1
sg21
I01
sg22
g24
sbsg12
I2
sg21
I01
sg22
g79
sbsg12
I3
sg21
I01
sg22
g79
sbsg21
I00
sg22
g23
sbsg12
I5
sg21
I01
sg22
g47
sba(imyEvolve
Tree
p651
(dp652
g7
(imyEvolve
Tree
p653
(dp654
g12
I1
sg13
(imyEvolve
Tree
p655
(dp656
g12
I0
sg17
I00
sbsg18
(imyEvolve
Tree
p657
(dp658
g12
I0
sg17
I00
sbsg21
I00
sg22
g56
sbsg12
I2
sg21
I01
sg22
g47
sba(imyEvolve
Tree
p659
(dp660
g12
I2
sg13
(imyEvolve
Tree
p661
(dp662
g12
I1
sg13
(imyEvolve
Tree
p663
(dp664
g12
I0
sg16
F-2.3097988239359015
sg17
I01
sbsg18
(imyEvolve
Tree
p665
(dp666
g12
I0
sg17
I00
sbsg21
I00
sg22
g23
sbsg18
(imyEvolve
Tree
p667
(dp668
g7
(imyEvolve
Tree
p669
(dp670
g12
I0
sg16
F-2.521187237250593
sg17
I01
sbsg12
I1
sg21
I01
sg22
g79
sbsg21
I00
sg22
g23
sba(imyEvolve
Tree
p671
(dp672
g12
I3
sg13
(imyEvolve
Tree
p673
(dp674
g7
(imyEvolve
Tree
p675
(dp676
g7
(imyEvolve
Tree
p677
(dp678
g12
I0
sg16
F-0.945451012908384
sg17
I01
sbsg12
I1
sg21
I01
sg22
g47
sbsg12
I2
sg21
I01
sg22
g47
sbsg18
(imyEvolve
Tree
p679
(dp680
g12
I2
sg13
(imyEvolve
Tree
p681
(dp682
g7
(imyEvolve
Tree
p683
(dp684
g12
I0
sg16
F-1.8636677754274755
sg17
I01
sbsg12
I1
sg21
I01
sg22
g47
sbsg18
(imyEvolve
Tree
p685
(dp686
g12
I1
sg13
(imyEvolve
Tree
p687
(dp688
g12
I0
sg17
I00
sbsg18
(imyEvolve
Tree
p689
(dp690
g12
I0
sg16
F0.2564052819130964
sg17
I01
sbsg21
I00
sg22
g56
sbsg21
I00
sg22
g23
sbsg21
I00
sg22
g23
sbaasS'weightSharing'
p691
(lp692
I00
aI00
asS'fitnessValid'
p693
I00
sS'fitness'
p694
cnumpy.core.multiarray
scalar
p695
(cnumpy
dtype
p696
(S'f8'
p697
I0
I1
tp698
Rp699
(I3
S'<'
p700
NNNI-1
I-1
I0
tp701
bS'\x00\xcc\xee\xc9]\x8ca?'
p702
tp703
Rp704
sS'alpha'
p705
F0.005084564787165077
sS'resolution'
p706
I68
sb.