(imyEvolve
Individual
p0
(dp1
S'funcs'
p2
(lp3
(lp4
(imyEvolve
Tree
p5
(dp6
S'below'
p7
(imyEvolve
Tree
p8
(dp9
g7
(imyEvolve
Tree
p10
(dp11
g7
(imyEvolve
Tree
p12
(dp13
S'depth'
p14
I0
sS'isConstant'
p15
I00
sbsg14
I1
sS'single'
p16
I01
sS'op'
p17
cmath
cos
p18
sbsg14
I2
sg16
I01
sg17
g18
sbsg14
I3
sg16
I01
sg17
cmyEvolve
absSqrt
p19
sba(imyEvolve
Tree
p20
(dp21
g7
(imyEvolve
Tree
p22
(dp23
S'left'
p24
(imyEvolve
Tree
p25
(dp26
g7
(imyEvolve
Tree
p27
(dp28
g14
I0
sS'constant'
p29
F-0.7573524128027485
sg15
I01
sbsg14
I1
sg16
I01
sg17
cmath
sin
p30
sbsg14
I2
sS'right'
p31
(imyEvolve
Tree
p32
(dp33
g24
(imyEvolve
Tree
p34
(dp35
g14
I0
sg29
F-0.4033370162106902
sg15
I01
sbsg14
I1
sg31
(imyEvolve
Tree
p36
(dp37
g14
I0
sg29
F0.9046919294210376
sg15
I01
sbsg16
I00
sg17
coperator
mul
p38
sbsg16
I00
sg17
coperator
add
p39
sbsg14
I3
sg16
I01
sg17
g30
sba(imyEvolve
Tree
p40
(dp41
g7
(imyEvolve
Tree
p42
(dp43
g24
(imyEvolve
Tree
p44
(dp45
g14
I0
sg15
I00
sbsg14
I1
sg31
(imyEvolve
Tree
p46
(dp47
g14
I0
sg29
F-1.5297780222098778
sg15
I01
sbsg16
I00
sg17
g39
sbsg14
I2
sg16
I01
sg17
cmyEvolve
square
p48
sba(imyEvolve
Tree
p49
(dp50
g24
(imyEvolve
Tree
p51
(dp52
g24
(imyEvolve
Tree
p53
(dp54
g7
(imyEvolve
Tree
p55
(dp56
g24
(imyEvolve
Tree
p57
(dp58
g7
(imyEvolve
Tree
p59
(dp60
g14
I0
sg29
F-1.4627284152354947
sg15
I01
sbsg14
I1
sg16
I01
sg17
g19
sbsg14
I2
sg31
(imyEvolve
Tree
p61
(dp62
g24
(imyEvolve
Tree
p63
(dp64
g14
I0
sg15
I00
sbsg14
I1
sg31
(imyEvolve
Tree
p65
(dp66
g14
I0
sg15
I00
sbsg16
I00
sg17
g38
sbsg16
I00
sg17
g38
sbsg14
I3
sg16
I01
sg17
g19
sbsg14
I4
sg31
(imyEvolve
Tree
p67
(dp68
g7
(imyEvolve
Tree
p69
(dp70
g24
(imyEvolve
Tree
p71
(dp72
g7
(imyEvolve
Tree
p73
(dp74
g14
I0
sg29
F-4.178526413143969
sg15
I01
sbsg14
I1
sg16
I01
sg17
g19
sbsg14
I2
sg31
(imyEvolve
Tree
p75
(dp76
g24
(imyEvolve
Tree
p77
(dp78
g14
I0
sg29
F-0.3947798601193728
sg15
I01
sbsg14
I1
sg31
(imyEvolve
Tree
p79
(dp80
g14
I0
sg29
F-3.688284187974149
sg15
I01
sbsg16
I00
sg17
g38
sbsg16
I00
sg17
g38
sbsg14
I3
sg16
I01
sg17
g30
sbsg16
I00
sg17
coperator
sub
p81
sbsg14
I5
sg31
(imyEvolve
Tree
p82
(dp83
g24
(imyEvolve
Tree
p84
(dp85
g7
(imyEvolve
Tree
p86
(dp87
g24
(imyEvolve
Tree
p88
(dp89
g7
(imyEvolve
Tree
p90
(dp91
g14
I0
sg15
I00
sbsg14
I1
sg16
I01
sg17
g48
sbsg14
I2
sg31
(imyEvolve
Tree
p92
(dp93
g24
(imyEvolve
Tree
p94
(dp95
g14
I0
sg15
I00
sbsg14
I1
sg31
(imyEvolve
Tree
p96
(dp97
g14
I0
sg15
I00
sbsg16
I00
sg17
g38
sbsg16
I00
sg17
g39
sbsg14
I3
sg16
I01
sg17
g48
sbsg14
I4
sg31
(imyEvolve
Tree
p98
(dp99
g24
(imyEvolve
Tree
p100
(dp101
g7
(imyEvolve
Tree
p102
(dp103
g24
(imyEvolve
Tree
p104
(dp105
g14
I0
sg29
F3.435970457466368
sg15
I01
sbsg14
I1
sg31
(imyEvolve
Tree
p106
(dp107
g14
I0
sg29
F-1.8967526745248176
sg15
I01
sbsg16
I00
sg17
g81
sbsg14
I2
sg16
I01
sg17
g18
sbsg14
I3
sg31
(imyEvolve
Tree
p108
(dp109
g24
(imyEvolve
Tree
p110
(dp111
g24
(imyEvolve
Tree
p112
(dp113
g14
I0
sg15
I00
sbsg14
I1
sg31
(imyEvolve
Tree
p114
(dp115
g14
I0
sg15
I00
sbsg16
I00
sg17
g39
sbsg14
I2
sg31
(imyEvolve
Tree
p116
(dp117
g24
(imyEvolve
Tree
p118
(dp119
g14
I0
sg29
F-4.261280436482378
sg15
I01
sbsg14
I1
sg31
(imyEvolve
Tree
p120
(dp121
g14
I0
sg15
I00
sbsg16
I00
sg17
g39
sbsg16
I00
sg17
g38
sbsg16
I00
sg17
g81
sbsg16
I00
sg17
g39
sbsg16
I00
sg17
g81
sba(imyEvolve
Tree
p122
(dp123
g7
(imyEvolve
Tree
p124
(dp125
g7
(imyEvolve
Tree
p126
(dp127
g7
(imyEvolve
Tree
p128
(dp129
g14
I0
sg29
F4.618297575695253
sg15
I01
sbsg14
I1
sg16
I01
sg17
g18
sbsg14
I2
sg16
I01
sg17
g19
sbsg14
I3
sg16
I01
sg17
g30
sba(imyEvolve
Tree
p130
(dp131
g14
I4
sg24
(imyEvolve
Tree
p132
(dp133
g7
(imyEvolve
Tree
p134
(dp135
g7
(imyEvolve
Tree
p136
(dp137
g7
(imyEvolve
Tree
p138
(dp139
g14
I0
sg29
F-3.8291548136211286
sg15
I01
sbsg14
I1
sg16
I01
sg17
g18
sbsg14
I2
sg16
I01
sg17
g30
sbsg14
I3
sg16
I01
sg17
g30
sbsg31
(imyEvolve
Tree
p140
(dp141
g14
I3
sg24
(imyEvolve
Tree
p142
(dp143
g14
I2
sg24
(imyEvolve
Tree
p144
(dp145
g7
(imyEvolve
Tree
p146
(dp147
g14
I0
sg29
F-0.7843271694700391
sg15
I01
sbsg14
I1
sg16
I01
sg17
g30
sbsg31
(imyEvolve
Tree
p148
(dp149
g7
(imyEvolve
Tree
p150
(dp151
g14
I0
sg15
I00
sbsg14
I1
sg16
I01
sg17
g30
sbsg16
I00
sg17
g39
sbsg31
(imyEvolve
Tree
p152
(dp153
g7
(imyEvolve
Tree
p154
(dp155
g7
(imyEvolve
Tree
p156
(dp157
g14
I0
sg15
I00
sbsg14
I1
sg16
I01
sg17
g48
sbsg14
I2
sg16
I01
sg17
g48
sbsg16
I00
sg17
g81
sbsg16
I00
sg17
g38
sba(imyEvolve
Tree
p158
(dp159
g24
(imyEvolve
Tree
p160
(dp161
g7
(imyEvolve
Tree
p162
(dp163
g24
(imyEvolve
Tree
p164
(dp165
g7
(imyEvolve
Tree
p166
(dp167
g24
(imyEvolve
Tree
p168
(dp169
g14
I0
sg15
I00
sbsg14
I1
sg31
(imyEvolve
Tree
p170
(dp171
g14
I0
sg29
F-3.280107237908949
sg15
I01
sbsg16
I00
sg17
g39
sbsg14
I2
sg16
I01
sg17
g48
sbsg14
I3
sg31
(imyEvolve
Tree
p172
(dp173
g24
(imyEvolve
Tree
p174
(dp175
g7
(imyEvolve
Tree
p176
(dp177
g14
I0
sg15
I00
sbsg14
I1
sg16
I01
sg17
g19
sbsg14
I2
sg31
(imyEvolve
Tree
p178
(dp179
g7
(imyEvolve
Tree
p180
(dp181
g14
I0
sg15
I00
sbsg14
I1
sg16
I01
sg17
g48
sbsg16
I00
sg17
g39
sbsg16
I00
sg17
g39
sbsg14
I4
sg16
I01
sg17
g48
sbsg14
I5
sg31
(imyEvolve
Tree
p182
(dp183
g24
(imyEvolve
Tree
p184
(dp185
g24
(imyEvolve
Tree
p186
(dp187
g7
(imyEvolve
Tree
p188
(dp189
g7
(imyEvolve
Tree
p190
(dp191
g14
I0
sg29
F0.21132415384433134
sg15
I01
sbsg14
I1
sg16
I01
sg17
g19
sbsg14
I2
sg16
I01
sg17
g18
sbsg14
I3
sg31
(imyEvolve
Tree
p192
(dp193
g24
(imyEvolve
Tree
p194
(dp195
g24
(imyEvolve
Tree
p196
(dp197
g14
I0
sg15
I00
sbsg14
I1
sg31
(imyEvolve
Tree
p198
(dp199
g14
I0
sg15
I00
sbsg16
I00
sg17
g38
sbsg14
I2
sg31
(imyEvolve
Tree
p200
(dp201
g24
(imyEvolve
Tree
p202
(dp203
g14
I0
sg15
I00
sbsg14
I1
sg31
(imyEvolve
Tree
p204
(dp205
g14
I0
sg15
I00
sbsg16
I00
sg17
g38
sbsg16
I00
sg17
g39
sbsg16
I00
sg17
g39
sbsg14
I4
sg31
(imyEvolve
Tree
p206
(dp207
g7
(imyEvolve
Tree
p208
(dp209
g7
(imyEvolve
Tree
p210
(dp211
g24
(imyEvolve
Tree
p212
(dp213
g14
I0
sg15
I00
sbsg14
I1
sg31
(imyEvolve
Tree
p214
(dp215
g14
I0
sg15
I00
sbsg16
I00
sg17
g81
sbsg14
I2
sg16
I01
sg17
g18
sbsg14
I3
sg16
I01
sg17
g18
sbsg16
I00
sg17
g81
sbsg16
I00
sg17
g38
sba(imyEvolve
Tree
p216
(dp217
g7
(imyEvolve
Tree
p218
(dp219
g7
(imyEvolve
Tree
p220
(dp221
g14
I3
sg24
(imyEvolve
Tree
p222
(dp223
g14
I2
sg24
(imyEvolve
Tree
p224
(dp225
g14
I1
sg24
(imyEvolve
Tree
p226
(dp227
g14
I0
sg29
F-3.5981061957709604
sg15
I01
sbsg31
(imyEvolve
Tree
p228
(dp229
g14
I0
sg29
F0.6982288219079393
sg15
I01
sbsg16
I00
sg17
g38
sbsg31
(imyEvolve
Tree
p230
(dp231
g7
(imyEvolve
Tree
p232
(dp233
g14
I0
sg15
I00
sbsg14
I1
sg16
I01
sg17
g18
sbsg16
I00
sg17
g38
sbsg31
(imyEvolve
Tree
p234
(dp235
g7
(imyEvolve
Tree
p236
(dp237
g7
(imyEvolve
Tree
p238
(dp239
g14
I0
sg15
I00
sbsg14
I1
sg16
I01
sg17
g48
sbsg14
I2
sg16
I01
sg17
g18
sbsg16
I00
sg17
g81
sbsg14
I4
sg16
I01
sg17
g18
sbsg14
I5
sg16
I01
sg17
g48
sba(imyEvolve
Tree
p240
(dp241
g14
I4
sg24
(imyEvolve
Tree
p242
(dp243
g7
(imyEvolve
Tree
p244
(dp245
g14
I2
sg24
(imyEvolve
Tree
p246
(dp247
g7
(imyEvolve
Tree
p248
(dp249
g14
I0
sg15
I00
sbsg14
I1
sg16
I01
sg17
g19
sbsg31
(imyEvolve
Tree
p250
(dp251
g14
I1
sg24
(imyEvolve
Tree
p252
(dp253
g14
I0
sg29
F2.319450020048359
sg15
I01
sbsg31
(imyEvolve
Tree
p254
(dp255
g14
I0
sg15
I00
sbsg16
I00
sg17
g81
sbsg16
I00
sg17
g39
sbsg14
I3
sg16
I01
sg17
g18
sbsg31
(imyEvolve
Tree
p256
(dp257
g14
I3
sg24
(imyEvolve
Tree
p258
(dp259
g7
(imyEvolve
Tree
p260
(dp261
g14
I1
sg24
(imyEvolve
Tree
p262
(dp263
g14
I0
sg15
I00
sbsg31
(imyEvolve
Tree
p264
(dp265
g14
I0
sg15
I00
sbsg16
I00
sg17
g39
sbsg14
I2
sg16
I01
sg17
g30
sbsg31
(imyEvolve
Tree
p266
(dp267
g7
(imyEvolve
Tree
p268
(dp269
g7
(imyEvolve
Tree
p270
(dp271
g14
I0
sg15
I00
sbsg14
I1
sg16
I01
sg17
g18
sbsg14
I2
sg16
I01
sg17
g30
sbsg16
I00
sg17
g38
sbsg16
I00
sg17
g39
sba(imyEvolve
Tree
p272
(dp273
g14
I5
sg24
(imyEvolve
Tree
p274
(dp275
g7
(imyEvolve
Tree
p276
(dp277
g14
I3
sg24
(imyEvolve
Tree
p278
(dp279
g7
(imyEvolve
Tree
p280
(dp281
g14
I1
sg24
(imyEvolve
Tree
p282
(dp283
g14
I0
sg29
F-4.775062225172764
sg15
I01
sbsg31
(imyEvolve
Tree
p284
(dp285
g14
I0
sg29
F3.9439032553573146
sg15
I01
sbsg16
I00
sg17
g38
sbsg14
I2
sg16
I01
sg17
g48
sbsg31
(imyEvolve
Tree
p286
(dp287
g7
(imyEvolve
Tree
p288
(dp289
g7
(imyEvolve
Tree
p290
(dp291
g14
I0
sg15
I00
sbsg14
I1
sg16
I01
sg17
g18
sbsg14
I2
sg16
I01
sg17
g19
sbsg16
I00
sg17
g39
sbsg14
I4
sg16
I01
sg17
g48
sbsg31
(imyEvolve
Tree
p292
(dp293
g7
(imyEvolve
Tree
p294
(dp295
g7
(imyEvolve
Tree
p296
(dp297
g7
(imyEvolve
Tree
p298
(dp299
g7
(imyEvolve
Tree
p300
(dp301
g14
I0
sg29
F0.08464527529952193
sg15
I01
sbsg14
I1
sg16
I01
sg17
g30
sbsg14
I2
sg16
I01
sg17
g30
sbsg14
I3
sg16
I01
sg17
g19
sbsg14
I4
sg16
I01
sg17
g48
sbsg16
I00
sg17
g38
sba(imyEvolve
Tree
p302
(dp303
g24
(imyEvolve
Tree
p304
(dp305
g24
(imyEvolve
Tree
p306
(dp307
g14
I0
sg15
I00
sbsg14
I1
sg31
(imyEvolve
Tree
p308
(dp309
g14
I0
sg15
I00
sbsg16
I00
sg17
g38
sbsg14
I2
sg31
(imyEvolve
Tree
p310
(dp311
g7
(imyEvolve
Tree
p312
(dp313
g14
I0
sg15
I00
sbsg14
I1
sg16
I01
sg17
g18
sbsg16
I00
sg17
g38
sba(imyEvolve
Tree
p314
(dp315
g24
(imyEvolve
Tree
p316
(dp317
g24
(imyEvolve
Tree
p318
(dp319
g14
I0
sg15
I00
sbsg14
I1
sg31
(imyEvolve
Tree
p320
(dp321
g14
I0
sg29
F3.550381872075338
sg15
I01
sbsg16
I00
sg17
g81
sbsg14
I2
sg31
(imyEvolve
Tree
p322
(dp323
g24
(imyEvolve
Tree
p324
(dp325
g14
I0
sg15
I00
sbsg14
I1
sg31
(imyEvolve
Tree
p326
(dp327
g14
I0
sg29
F3.361405058196036
sg15
I01
sbsg16
I00
sg17
g39
sbsg16
I00
sg17
g38
sba(imyEvolve
Tree
p328
(dp329
g7
(imyEvolve
Tree
p330
(dp331
g7
(imyEvolve
Tree
p332
(dp333
g24
(imyEvolve
Tree
p334
(dp335
g14
I0
sg29
F0.9814768532098928
sg15
I01
sbsg14
I1
sg31
(imyEvolve
Tree
p336
(dp337
g14
I0
sg15
I00
sbsg16
I00
sg17
g81
sbsg14
I2
sg16
I01
sg17
g48
sbsg14
I3
sg16
I01
sg17
g18
sba(imyEvolve
Tree
p338
(dp339
g24
(imyEvolve
Tree
p340
(dp341
g7
(imyEvolve
Tree
p342
(dp343
g7
(imyEvolve
Tree
p344
(dp345
g24
(imyEvolve
Tree
p346
(dp347
g14
I0
sg15
I00
sbsg14
I1
sg31
(imyEvolve
Tree
p348
(dp349
g14
I0
sg29
F-4.2658845076695435
sg15
I01
sbsg16
I00
sg17
g39
sbsg14
I2
sg16
I01
sg17
g19
sbsg14
I3
sg16
I01
sg17
g18
sbsg14
I4
sg31
(imyEvolve
Tree
p350
(dp351
g24
(imyEvolve
Tree
p352
(dp353
g24
(imyEvolve
Tree
p354
(dp355
g7
(imyEvolve
Tree
p356
(dp357
g14
I0
sg29
F-0.7151891930270349
sg15
I01
sbsg14
I1
sg16
I01
sg17
g30
sbsg14
I2
sg31
(imyEvolve
Tree
p358
(dp359
g24
(imyEvolve
Tree
p360
(dp361
g14
I0
sg15
I00
sbsg14
I1
sg31
(imyEvolve
Tree
p362
(dp363
g14
I0
sg15
I00
sbsg16
I00
sg17
g81
sbsg16
I00
sg17
g39
sbsg14
I3
sg31
(imyEvolve
Tree
p364
(dp365
g24
(imyEvolve
Tree
p366
(dp367
g24
(imyEvolve
Tree
p368
(dp369
g14
I0
sg15
I00
sbsg14
I1
sg31
(imyEvolve
Tree
p370
(dp371
g14
I0
sg15
I00
sbsg16
I00
sg17
g81
sbsg14
I2
sg31
(imyEvolve
Tree
p372
(dp373
g7
(imyEvolve
Tree
p374
(dp375
g14
I0
sg15
I00
sbsg14
I1
sg16
I01
sg17
g19
sbsg16
I00
sg17
g38
sbsg16
I00
sg17
g39
sbsg16
I00
sg17
g81
sba(imyEvolve
Tree
p376
(dp377
g7
(imyEvolve
Tree
p378
(dp379
g7
(imyEvolve
Tree
p380
(dp381
g14
I0
sg15
I00
sbsg14
I1
sg16
I01
sg17
g19
sbsg14
I2
sg16
I01
sg17
g30
sba(imyEvolve
Tree
p382
(dp383
g24
(imyEvolve
Tree
p384
(dp385
g24
(imyEvolve
Tree
p386
(dp387
g14
I0
sg29
F-2.6035793568859567
sg15
I01
sbsg14
I1
sg31
(imyEvolve
Tree
p388
(dp389
g14
I0
sg15
I00
sbsg16
I00
sg17
g39
sbsg14
I2
sg31
(imyEvolve
Tree
p390
(dp391
g24
(imyEvolve
Tree
p392
(dp393
g14
I0
sg15
I00
sbsg14
I1
sg31
(imyEvolve
Tree
p394
(dp395
g14
I0
sg15
I00
sbsg16
I00
sg17
g81
sbsg16
I00
sg17
g81
sba(imyEvolve
Tree
p396
(dp397
g7
(imyEvolve
Tree
p398
(dp399
g7
(imyEvolve
Tree
p400
(dp401
g14
I0
sg29
F3.384586112183481
sg15
I01
sbsg14
I1
sg16
I01
sg17
g30
sbsg14
I2
sg16
I01
sg17
g19
sba(imyEvolve
Tree
p402
(dp403
g24
(imyEvolve
Tree
p404
(dp405
g24
(imyEvolve
Tree
p406
(dp407
g14
I0
sg29
F3.178338160170977
sg15
I01
sbsg14
I1
sg31
(imyEvolve
Tree
p408
(dp409
g14
I0
sg15
I00
sbsg16
I00
sg17
g81
sbsg14
I2
sg31
(imyEvolve
Tree
p410
(dp411
g24
(imyEvolve
Tree
p412
(dp413
g14
I0
sg29
F4.65916394773997
sg15
I01
sbsg14
I1
sg31
(imyEvolve
Tree
p414
(dp415
g14
I0
sg15
I00
sbsg16
I00
sg17
g39
sbsg16
I00
sg17
g38
sbaa(lp416
(imyEvolve
Tree
p417
(dp418
g7
(imyEvolve
Tree
p419
(dp420
g24
(imyEvolve
Tree
p421
(dp422
g24
(imyEvolve
Tree
p423
(dp424
g14
I0
sg15
I00
sbsg14
I1
sg31
(imyEvolve
Tree
p425
(dp426
g14
I0
sg15
I00
sbsg16
I00
sg17
g39
sbsg14
I2
sg31
(imyEvolve
Tree
p427
(dp428
g7
(imyEvolve
Tree
p429
(dp430
g14
I0
sg15
I00
sbsg14
I1
sg16
I01
sg17
g19
sbsg16
I00
sg17
g81
sbsg14
I3
sg16
I01
sg17
g48
sba(imyEvolve
Tree
p431
(dp432
g7
(imyEvolve
Tree
p433
(dp434
g24
(imyEvolve
Tree
p435
(dp436
g24
(imyEvolve
Tree
p437
(dp438
g7
(imyEvolve
Tree
p439
(dp440
g14
I0
sg15
I00
sbsg14
I1
sg16
I01
sg17
g48
sbsg14
I2
sg31
(imyEvolve
Tree
p441
(dp442
g7
(imyEvolve
Tree
p443
(dp444
g14
I0
sg15
I00
sbsg14
I1
sg16
I01
sg17
g19
sbsg16
I00
sg17
g39
sbsg14
I3
sg31
(imyEvolve
Tree
p445
(dp446
g24
(imyEvolve
Tree
p447
(dp448
g7
(imyEvolve
Tree
p449
(dp450
g14
I0
sg15
I00
sbsg14
I1
sg16
I01
sg17
g19
sbsg14
I2
sg31
(imyEvolve
Tree
p451
(dp452
g24
(imyEvolve
Tree
p453
(dp454
g14
I0
sg29
F-0.49695795130495135
sg15
I01
sbsg14
I1
sg31
(imyEvolve
Tree
p455
(dp456
g14
I0
sg15
I00
sbsg16
I00
sg17
g38
sbsg16
I00
sg17
g38
sbsg16
I00
sg17
g38
sbsg14
I4
sg16
I01
sg17
g19
sba(imyEvolve
Tree
p457
(dp458
g24
(imyEvolve
Tree
p459
(dp460
g7
(imyEvolve
Tree
p461
(dp462
g7
(imyEvolve
Tree
p463
(dp464
g7
(imyEvolve
Tree
p465
(dp466
g7
(imyEvolve
Tree
p467
(dp468
g14
I0
sg15
I00
sbsg14
I1
sg16
I01
sg17
g48
sbsg14
I2
sg16
I01
sg17
g30
sbsg14
I3
sg16
I01
sg17
g19
sbsg14
I4
sg16
I01
sg17
g19
sbsg14
I5
sg31
(imyEvolve
Tree
p469
(dp470
g7
(imyEvolve
Tree
p471
(dp472
g24
(imyEvolve
Tree
p473
(dp474
g7
(imyEvolve
Tree
p475
(dp476
g7
(imyEvolve
Tree
p477
(dp478
g14
I0
sg15
I00
sbsg14
I1
sg16
I01
sg17
g48
sbsg14
I2
sg16
I01
sg17
g18
sbsg14
I3
sg31
(imyEvolve
Tree
p479
(dp480
g7
(imyEvolve
Tree
p481
(dp482
g24
(imyEvolve
Tree
p483
(dp484
g14
I0
sg29
F0.7053577025429858
sg15
I01
sbsg14
I1
sg31
(imyEvolve
Tree
p485
(dp486
g14
I0
sg15
I00
sbsg16
I00
sg17
g81
sbsg14
I2
sg16
I01
sg17
g30
sbsg16
I00
sg17
g39
sbsg14
I4
sg16
I01
sg17
g18
sbsg16
I00
sg17
g39
sba(imyEvolve
Tree
p487
(dp488
g14
I5
sg24
(imyEvolve
Tree
p489
(dp490
g14
I4
sg24
(imyEvolve
Tree
p491
(dp492
g14
I3
sg24
(imyEvolve
Tree
p493
(dp494
g14
I2
sg24
(imyEvolve
Tree
p495
(dp496
g7
(imyEvolve
Tree
p497
(dp498
g14
I0
sg15
I00
sbsg14
I1
sg16
I01
sg17
g18
sbsg31
(imyEvolve
Tree
p499
(dp500
g7
(imyEvolve
Tree
p501
(dp502
g14
I0
sg29
F4.597033691072083
sg15
I01
sbsg14
I1
sg16
I01
sg17
g18
sbsg16
I00
sg17
g39
sbsg31
(imyEvolve
Tree
p503
(dp504
g7
(imyEvolve
Tree
p505
(dp506
g14
I1
sg24
(imyEvolve
Tree
p507
(dp508
g14
I0
sg15
I00
sbsg31
(imyEvolve
Tree
p509
(dp510
g14
I0
sg15
I00
sbsg16
I00
sg17
g81
sbsg14
I2
sg16
I01
sg17
g48
sbsg16
I00
sg17
g39
sbsg31
(imyEvolve
Tree
p511
(dp512
g7
(imyEvolve
Tree
p513
(dp514
g7
(imyEvolve
Tree
p515
(dp516
g14
I1
sg24
(imyEvolve
Tree
p517
(dp518
g14
I0
sg29
F-2.264303818226888
sg15
I01
sbsg31
(imyEvolve
Tree
p519
(dp520
g14
I0
sg29
F1.6127416573472688
sg15
I01
sbsg16
I00
sg17
g81
sbsg14
I2
sg16
I01
sg17
g18
sbsg14
I3
sg16
I01
sg17
g19
sbsg16
I00
sg17
g39
sbsg31
(imyEvolve
Tree
p521
(dp522
g7
(imyEvolve
Tree
p523
(dp524
g14
I3
sg24
(imyEvolve
Tree
p525
(dp526
g7
(imyEvolve
Tree
p527
(dp528
g7
(imyEvolve
Tree
p529
(dp530
g14
I0
sg15
I00
sbsg14
I1
sg16
I01
sg17
g19
sbsg14
I2
sg16
I01
sg17
g18
sbsg31
(imyEvolve
Tree
p531
(dp532
g14
I2
sg24
(imyEvolve
Tree
p533
(dp534
g14
I1
sg24
(imyEvolve
Tree
p535
(dp536
g14
I0
sg15
I00
sbsg31
(imyEvolve
Tree
p537
(dp538
g14
I0
sg29
F4.085388580436478
sg15
I01
sbsg16
I00
sg17
g38
sbsg31
(imyEvolve
Tree
p539
(dp540
g7
(imyEvolve
Tree
p541
(dp542
g14
I0
sg29
F1.599627561505753
sg15
I01
sbsg14
I1
sg16
I01
sg17
g30
sbsg16
I00
sg17
g81
sbsg16
I00
sg17
g39
sbsg14
I4
sg16
I01
sg17
g48
sbsg16
I00
sg17
g38
sba(imyEvolve
Tree
p543
(dp544
g24
(imyEvolve
Tree
p545
(dp546
g24
(imyEvolve
Tree
p547
(dp548
g7
(imyEvolve
Tree
p549
(dp550
g7
(imyEvolve
Tree
p551
(dp552
g14
I0
sg15
I00
sbsg14
I1
sg16
I01
sg17
g30
sbsg14
I2
sg16
I01
sg17
g48
sbsg14
I3
sg31
(imyEvolve
Tree
p553
(dp554
g7
(imyEvolve
Tree
p555
(dp556
g7
(imyEvolve
Tree
p557
(dp558
g14
I0
sg29
F1.0001772943947085
sg15
I01
sbsg14
I1
sg16
I01
sg17
g30
sbsg14
I2
sg16
I01
sg17
g18
sbsg16
I00
sg17
g39
sbsg14
I4
sg31
(imyEvolve
Tree
p559
(dp560
g24
(imyEvolve
Tree
p561
(dp562
g24
(imyEvolve
Tree
p563
(dp564
g24
(imyEvolve
Tree
p565
(dp566
g14
I0
sg15
I00
sbsg14
I1
sg31
(imyEvolve
Tree
p567
(dp568
g14
I0
sg29
F-4.020805249285849
sg15
I01
sbsg16
I00
sg17
g81
sbsg14
I2
sg31
(imyEvolve
Tree
p569
(dp570
g7
(imyEvolve
Tree
p571
(dp572
g14
I0
sg29
F1.3094354558865309
sg15
I01
sbsg14
I1
sg16
I01
sg17
g19
sbsg16
I00
sg17
g81
sbsg14
I3
sg31
(imyEvolve
Tree
p573
(dp574
g7
(imyEvolve
Tree
p575
(dp576
g24
(imyEvolve
Tree
p577
(dp578
g14
I0
sg29
F-3.0168504602466117
sg15
I01
sbsg14
I1
sg31
(imyEvolve
Tree
p579
(dp580
g14
I0
sg29
F0.044594014025860496
sg15
I01
sbsg16
I00
sg17
g38
sbsg14
I2
sg16
I01
sg17
g48
sbsg16
I00
sg17
g38
sbsg16
I00
sg17
g38
sba(imyEvolve
Tree
p581
(dp582
g7
(imyEvolve
Tree
p583
(dp584
g7
(imyEvolve
Tree
p585
(dp586
g14
I1
sg24
(imyEvolve
Tree
p587
(dp588
g14
I0
sg29
F-1.8439503907198507
sg15
I01
sbsg31
(imyEvolve
Tree
p589
(dp590
g14
I0
sg29
F1.3826408388943365
sg15
I01
sbsg16
I00
sg17
g38
sbsg14
I2
sg16
I01
sg17
g30
sbsg14
I3
sg16
I01
sg17
g30
sba(imyEvolve
Tree
p591
(dp592
g7
(imyEvolve
Tree
p593
(dp594
g14
I2
sg24
(imyEvolve
Tree
p595
(dp596
g14
I1
sg24
(imyEvolve
Tree
p597
(dp598
g14
I0
sg15
I00
sbsg31
(imyEvolve
Tree
p599
(dp600
g14
I0
sg15
I00
sbsg16
I00
sg17
g38
sbsg31
(imyEvolve
Tree
p601
(dp602
g14
I1
sg24
(imyEvolve
Tree
p603
(dp604
g14
I0
sg29
F-1.4867478086204633
sg15
I01
sbsg31
(imyEvolve
Tree
p605
(dp606
g14
I0
sg29
F-0.27857766251765526
sg15
I01
sbsg16
I00
sg17
g38
sbsg16
I00
sg17
g38
sbsg14
I3
sg16
I01
sg17
g19
sba(imyEvolve
Tree
p607
(dp608
g7
(imyEvolve
Tree
p609
(dp610
g7
(imyEvolve
Tree
p611
(dp612
g24
(imyEvolve
Tree
p613
(dp614
g7
(imyEvolve
Tree
p615
(dp616
g24
(imyEvolve
Tree
p617
(dp618
g14
I0
sg29
F4.724329071510255
sg15
I01
sbsg14
I1
sg31
(imyEvolve
Tree
p619
(dp620
g14
I0
sg15
I00
sbsg16
I00
sg17
g38
sbsg14
I2
sg16
I01
sg17
g48
sbsg14
I3
sg31
(imyEvolve
Tree
p621
(dp622
g24
(imyEvolve
Tree
p623
(dp624
g7
(imyEvolve
Tree
p625
(dp626
g14
I0
sg29
F3.1712726919715237
sg15
I01
sbsg14
I1
sg16
I01
sg17
g48
sbsg14
I2
sg31
(imyEvolve
Tree
p627
(dp628
g7
(imyEvolve
Tree
p629
(dp630
g14
I0
sg29
F-2.4378044028652592
sg15
I01
sbsg14
I1
sg16
I01
sg17
g48
sbsg16
I00
sg17
g81
sbsg16
I00
sg17
g81
sbsg14
I4
sg16
I01
sg17
g30
sbsg14
I5
sg16
I01
sg17
g19
sba(imyEvolve
Tree
p631
(dp632
g7
(imyEvolve
Tree
p633
(dp634
g7
(imyEvolve
Tree
p635
(dp636
g24
(imyEvolve
Tree
p637
(dp638
g24
(imyEvolve
Tree
p639
(dp640
g14
I0
sg29
F-0.9638951237623434
sg15
I01
sbsg14
I1
sg31
(imyEvolve
Tree
p641
(dp642
g14
I0
sg15
I00
sbsg16
I00
sg17
g38
sbsg14
I2
sg31
(imyEvolve
Tree
p643
(dp644
g24
(imyEvolve
Tree
p645
(dp646
g14
I0
sg29
F0.9251340411452533
sg15
I01
sbsg14
I1
sg31
(imyEvolve
Tree
p647
(dp648
g14
I0
sg29
F4.627826208692214
sg15
I01
sbsg16
I00
sg17
g81
sbsg16
I00
sg17
g81
sbsg14
I3
sg16
I01
sg17
g18
sbsg14
I4
sg16
I01
sg17
g48
sba(imyEvolve
Tree
p649
(dp650
g24
(imyEvolve
Tree
p651
(dp652
g24
(imyEvolve
Tree
p653
(dp654
g7
(imyEvolve
Tree
p655
(dp656
g7
(imyEvolve
Tree
p657
(dp658
g14
I0
sg29
F2.493071552530779
sg15
I01
sbsg14
I1
sg16
I01
sg17
g48
sbsg14
I2
sg16
I01
sg17
g19
sbsg14
I3
sg31
(imyEvolve
Tree
p659
(dp660
g7
(imyEvolve
Tree
p661
(dp662
g24
(imyEvolve
Tree
p663
(dp664
g14
I0
sg29
F-1.9688625640355184
sg15
I01
sbsg14
I1
sg31
(imyEvolve
Tree
p665
(dp666
g14
I0
sg29
F0.8183637529579553
sg15
I01
sbsg16
I00
sg17
g81
sbsg14
I2
sg16
I01
sg17
g19
sbsg16
I00
sg17
g39
sbsg14
I4
sg31
(imyEvolve
Tree
p667
(dp668
g24
(imyEvolve
Tree
p669
(dp670
g7
(imyEvolve
Tree
p671
(dp672
g24
(imyEvolve
Tree
p673
(dp674
g14
I0
sg29
F-2.2051375433970644
sg15
I01
sbsg14
I1
sg31
(imyEvolve
Tree
p675
(dp676
g14
I0
sg15
I00
sbsg16
I00
sg17
g39
sbsg14
I2
sg16
I01
sg17
g18
sbsg14
I3
sg31
(imyEvolve
Tree
p677
(dp678
g24
(imyEvolve
Tree
p679
(dp680
g24
(imyEvolve
Tree
p681
(dp682
g14
I0
sg29
F2.904198862706444
sg15
I01
sbsg14
I1
sg31
(imyEvolve
Tree
p683
(dp684
g14
I0
sg15
I00
sbsg16
I00
sg17
g39
sbsg14
I2
sg31
(imyEvolve
Tree
p685
(dp686
g24
(imyEvolve
Tree
p687
(dp688
g14
I0
sg15
I00
sbsg14
I1
sg31
(imyEvolve
Tree
p689
(dp690
g14
I0
sg15
I00
sbsg16
I00
sg17
g39
sbsg16
I00
sg17
g38
sbsg16
I00
sg17
g38
sbsg16
I00
sg17
g81
sba(imyEvolve
Tree
p691
(dp692
g7
(imyEvolve
Tree
p693
(dp694
g7
(imyEvolve
Tree
p695
(dp696
g24
(imyEvolve
Tree
p697
(dp698
g24
(imyEvolve
Tree
p699
(dp700
g14
I0
sg29
F1.6054879235135502
sg15
I01
sbsg14
I1
sg31
(imyEvolve
Tree
p701
(dp702
g14
I0
sg15
I00
sbsg16
I00
sg17
g39
sbsg14
I2
sg31
(imyEvolve
Tree
p703
(dp704
g7
(imyEvolve
Tree
p705
(dp706
g14
I0
sg29
F-0.1047063834828057
sg15
I01
sbsg14
I1
sg16
I01
sg17
g30
sbsg16
I00
sg17
g81
sbsg14
I3
sg16
I01
sg17
g18
sbsg14
I4
sg16
I01
sg17
g19
sba(imyEvolve
Tree
p707
(dp708
g24
(imyEvolve
Tree
p709
(dp710
g24
(imyEvolve
Tree
p711
(dp712
g7
(imyEvolve
Tree
p713
(dp714
g14
I0
sg29
F-4.214676492199663
sg15
I01
sbsg14
I1
sg16
I01
sg17
g19
sbsg14
I2
sg31
(imyEvolve
Tree
p715
(dp716
g7
(imyEvolve
Tree
p717
(dp718
g14
I0
sg15
I00
sbsg14
I1
sg16
I01
sg17
g48
sbsg16
I00
sg17
g81
sbsg14
I3
sg31
(imyEvolve
Tree
p719
(dp720
g24
(imyEvolve
Tree
p721
(dp722
g7
(imyEvolve
Tree
p723
(dp724
g14
I0
sg29
F-1.3479012570209257
sg15
I01
sbsg14
I1
sg16
I01
sg17
g48
sbsg14
I2
sg31
(imyEvolve
Tree
p725
(dp726
g24
(imyEvolve
Tree
p727
(dp728
g14
I0
sg29
F-0.5293546841931214
sg15
I01
sbsg14
I1
sg31
(imyEvolve
Tree
p729
(dp730
g14
I0
sg15
I00
sbsg16
I00
sg17
g39
sbsg16
I00
sg17
g39
sbsg16
I00
sg17
g39
sba(imyEvolve
Tree
p731
(dp732
g7
(imyEvolve
Tree
p733
(dp734
g7
(imyEvolve
Tree
p735
(dp736
g14
I0
sg29
F4.467544528962547
sg15
I01
sbsg14
I1
sg16
I01
sg17
g19
sbsg14
I2
sg16
I01
sg17
g19
sba(imyEvolve
Tree
p737
(dp738
g24
(imyEvolve
Tree
p739
(dp740
g7
(imyEvolve
Tree
p741
(dp742
g7
(imyEvolve
Tree
p743
(dp744
g24
(imyEvolve
Tree
p745
(dp746
g7
(imyEvolve
Tree
p747
(dp748
g14
I0
sg15
I00
sbsg14
I1
sg16
I01
sg17
g48
sbsg14
I2
sg31
(imyEvolve
Tree
p749
(dp750
g7
(imyEvolve
Tree
p751
(dp752
g14
I0
sg29
F-0.03294635525347367
sg15
I01
sbsg14
I1
sg16
I01
sg17
g30
sbsg16
I00
sg17
g81
sbsg14
I3
sg16
I01
sg17
g19
sbsg14
I4
sg16
I01
sg17
g30
sbsg14
I5
sg31
(imyEvolve
Tree
p753
(dp754
g24
(imyEvolve
Tree
p755
(dp756
g24
(imyEvolve
Tree
p757
(dp758
g24
(imyEvolve
Tree
p759
(dp760
g24
(imyEvolve
Tree
p761
(dp762
g14
I0
sg29
F3.5746065104116163
sg15
I01
sbsg14
I1
sg31
(imyEvolve
Tree
p763
(dp764
g14
I0
sg15
I00
sbsg16
I00
sg17
g39
sbsg14
I2
sg31
(imyEvolve
Tree
p765
(dp766
g7
(imyEvolve
Tree
p767
(dp768
g14
I0
sg29
F1.8914341788979359
sg15
I01
sbsg14
I1
sg16
I01
sg17
g19
sbsg16
I00
sg17
g81
sbsg14
I3
sg31
(imyEvolve
Tree
p769
(dp770
g7
(imyEvolve
Tree
p771
(dp772
g7
(imyEvolve
Tree
p773
(dp774
g14
I0
sg15
I00
sbsg14
I1
sg16
I01
sg17
g18
sbsg14
I2
sg16
I01
sg17
g18
sbsg16
I00
sg17
g39
sbsg14
I4
sg31
(imyEvolve
Tree
p775
(dp776
g24
(imyEvolve
Tree
p777
(dp778
g7
(imyEvolve
Tree
p779
(dp780
g24
(imyEvolve
Tree
p781
(dp782
g14
I0
sg29
F4.407086264078725
sg15
I01
sbsg14
I1
sg31
(imyEvolve
Tree
p783
(dp784
g14
I0
sg15
I00
sbsg16
I00
sg17
g39
sbsg14
I2
sg16
I01
sg17
g30
sbsg14
I3
sg31
(imyEvolve
Tree
p785
(dp786
g7
(imyEvolve
Tree
p787
(dp788
g24
(imyEvolve
Tree
p789
(dp790
g14
I0
sg15
I00
sbsg14
I1
sg31
(imyEvolve
Tree
p791
(dp792
g14
I0
sg15
I00
sbsg16
I00
sg17
g39
sbsg14
I2
sg16
I01
sg17
g18
sbsg16
I00
sg17
g39
sbsg16
I00
sg17
g38
sbsg16
I00
sg17
g38
sba(imyEvolve
Tree
p793
(dp794
g24
(imyEvolve
Tree
p795
(dp796
g24
(imyEvolve
Tree
p797
(dp798
g24
(imyEvolve
Tree
p799
(dp800
g14
I0
sg15
I00
sbsg14
I1
sg31
(imyEvolve
Tree
p801
(dp802
g14
I0
sg15
I00
sbsg16
I00
sg17
g81
sbsg14
I2
sg31
(imyEvolve
Tree
p803
(dp804
g7
(imyEvolve
Tree
p805
(dp806
g14
I0
sg29
F-4.895568681079007
sg15
I01
sbsg14
I1
sg16
I01
sg17
g30
sbsg16
I00
sg17
g81
sbsg14
I3
sg31
(imyEvolve
Tree
p807
(dp808
g24
(imyEvolve
Tree
p809
(dp810
g7
(imyEvolve
Tree
p811
(dp812
g14
I0
sg15
I00
sbsg14
I1
sg16
I01
sg17
g19
sbsg14
I2
sg31
(imyEvolve
Tree
p813
(dp814
g7
(imyEvolve
Tree
p815
(dp816
g14
I0
sg15
I00
sbsg14
I1
sg16
I01
sg17
g48
sbsg16
I00
sg17
g38
sbsg16
I00
sg17
g81
sba(imyEvolve
Tree
p817
(dp818
g24
(imyEvolve
Tree
p819
(dp820
g7
(imyEvolve
Tree
p821
(dp822
g14
I0
sg15
I00
sbsg14
I1
sg16
I01
sg17
g48
sbsg14
I2
sg31
(imyEvolve
Tree
p823
(dp824
g7
(imyEvolve
Tree
p825
(dp826
g14
I0
sg29
F4.337476903860351
sg15
I01
sbsg14
I1
sg16
I01
sg17
g30
sbsg16
I00
sg17
g38
sba(imyEvolve
Tree
p827
(dp828
g7
(imyEvolve
Tree
p829
(dp830
g24
(imyEvolve
Tree
p831
(dp832
g24
(imyEvolve
Tree
p833
(dp834
g14
I0
sg15
I00
sbsg14
I1
sg31
(imyEvolve
Tree
p835
(dp836
g14
I0
sg15
I00
sbsg16
I00
sg17
g81
sbsg14
I2
sg31
(imyEvolve
Tree
p837
(dp838
g7
(imyEvolve
Tree
p839
(dp840
g14
I0
sg29
F-4.706496241494607
sg15
I01
sbsg14
I1
sg16
I01
sg17
g48
sbsg16
I00
sg17
g39
sbsg14
I3
sg16
I01
sg17
g48
sba(imyEvolve
Tree
p841
(dp842
g7
(imyEvolve
Tree
p843
(dp844
g14
I4
sg24
(imyEvolve
Tree
p845
(dp846
g7
(imyEvolve
Tree
p847
(dp848
g7
(imyEvolve
Tree
p849
(dp850
g14
I1
sg24
(imyEvolve
Tree
p851
(dp852
g14
I0
sg15
I00
sbsg31
(imyEvolve
Tree
p853
(dp854
g14
I0
sg15
I00
sbsg16
I00
sg17
g81
sbsg14
I2
sg16
I01
sg17
g19
sbsg14
I3
sg16
I01
sg17
g19
sbsg31
(imyEvolve
Tree
p855
(dp856
g14
I3
sg24
(imyEvolve
Tree
p857
(dp858
g14
I2
sg24
(imyEvolve
Tree
p859
(dp860
g14
I1
sg24
(imyEvolve
Tree
p861
(dp862
g14
I0
sg15
I00
sbsg31
(imyEvolve
Tree
p863
(dp864
g14
I0
sg29
F1.8727428971662663
sg15
I01
sbsg16
I00
sg17
g81
sbsg31
(imyEvolve
Tree
p865
(dp866
g7
(imyEvolve
Tree
p867
(dp868
g14
I0
sg15
I00
sbsg14
I1
sg16
I01
sg17
g48
sbsg16
I00
sg17
g81
sbsg31
(imyEvolve
Tree
p869
(dp870
g7
(imyEvolve
Tree
p871
(dp872
g7
(imyEvolve
Tree
p873
(dp874
g14
I0
sg29
F1.3587761588283866
sg15
I01
sbsg14
I1
sg16
I01
sg17
g30
sbsg14
I2
sg16
I01
sg17
g30
sbsg16
I00
sg17
g38
sbsg16
I00
sg17
g39
sbsg14
I5
sg16
I01
sg17
g30
sba(imyEvolve
Tree
p875
(dp876
g7
(imyEvolve
Tree
p877
(dp878
g14
I1
sg24
(imyEvolve
Tree
p879
(dp880
g14
I0
sg15
I00
sbsg31
(imyEvolve
Tree
p881
(dp882
g14
I0
sg29
F-0.2335331856755083
sg15
I01
sbsg16
I00
sg17
g38
sbsg14
I2
sg16
I01
sg17
g30
sbaasS'alpha'
p883
F0.0025506773862888268
sS'fitness'
p884
cnumpy.core.multiarray
scalar
p885
(cnumpy
dtype
p886
(S'f8'
p887
I0
I1
tp888
Rp889
(I3
S'<'
p890
NNNI-1
I-1
I0
tp891
bS'\x80H\xbfp\x13\x1d\xe6?'
p892
tp893
Rp894
sS'weightSharing'
p895
(lp896
I00
asS'fitnessValid'
p897
I00
sS'resolution'
p898
I78
sb.