(imyEvolve
Individual
p0
(dp1
S'funcs'
p2
(lp3
(lp4
(imyEvolve
Tree
p5
(dp6
S'depth'
p7
I2
sS'left'
p8
(imyEvolve
Tree
p9
(dp10
g7
I1
sg8
(imyEvolve
Tree
p11
(dp12
g7
I0
sS'isConstant'
p13
I00
sbsS'right'
p14
(imyEvolve
Tree
p15
(dp16
g7
I0
sS'constant'
p17
F1.5767377529545978
sg13
I01
sbsS'single'
p18
I00
sS'op'
p19
coperator
add
p20
sbsg14
(imyEvolve
Tree
p21
(dp22
S'below'
p23
(imyEvolve
Tree
p24
(dp25
g7
I0
sg17
F-0.24569571202550566
sg13
I01
sbsg7
I1
sg18
I01
sg19
cmyEvolve
absSqrt
p26
sbsg18
I00
sg19
coperator
mul
p27
sba(imyEvolve
Tree
p28
(dp29
g7
I5
sg8
(imyEvolve
Tree
p30
(dp31
g23
(imyEvolve
Tree
p32
(dp33
g23
(imyEvolve
Tree
p34
(dp35
g23
(imyEvolve
Tree
p36
(dp37
g7
I1
sg8
(imyEvolve
Tree
p38
(dp39
g7
I0
sg13
I00
sbsg14
(imyEvolve
Tree
p40
(dp41
g7
I0
sg17
F1.3188605726686742
sg13
I01
sbsg18
I00
sg19
coperator
sub
p42
sbsg7
I2
sg18
I01
sg19
g26
sbsg7
I3
sg18
I01
sg19
cmyEvolve
square
p43
sbsg7
I4
sg18
I01
sg19
g26
sbsg14
(imyEvolve
Tree
p44
(dp45
g7
I4
sg8
(imyEvolve
Tree
p46
(dp47
g7
I3
sg8
(imyEvolve
Tree
p48
(dp49
g23
(imyEvolve
Tree
p50
(dp51
g7
I1
sg8
(imyEvolve
Tree
p52
(dp53
g7
I0
sg13
I00
sbsg14
(imyEvolve
Tree
p54
(dp55
g7
I0
sg17
F0.05972098642522905
sg13
I01
sbsg18
I00
sg19
g42
sbsg7
I2
sg18
I01
sg19
g43
sbsg14
(imyEvolve
Tree
p56
(dp57
g23
(imyEvolve
Tree
p58
(dp59
g23
(imyEvolve
Tree
p60
(dp61
g7
I0
sg17
F-3.446115990211258
sg13
I01
sbsg7
I1
sg18
I01
sg19
cmath
sin
p62
sbsg7
I2
sg18
I01
sg19
g43
sbsg18
I00
sg19
g27
sbsg14
(imyEvolve
Tree
p63
(dp64
g7
I3
sg8
(imyEvolve
Tree
p65
(dp66
g7
I2
sg8
(imyEvolve
Tree
p67
(dp68
g23
(imyEvolve
Tree
p69
(dp70
g7
I0
sg13
I00
sbsg7
I1
sg18
I01
sg19
g62
sbsg14
(imyEvolve
Tree
p71
(dp72
g23
(imyEvolve
Tree
p73
(dp74
g7
I0
sg17
F0.014215872841415234
sg13
I01
sbsg7
I1
sg18
I01
sg19
g26
sbsg18
I00
sg19
g20
sbsg14
(imyEvolve
Tree
p75
(dp76
g23
(imyEvolve
Tree
p77
(dp78
g7
I1
sg8
(imyEvolve
Tree
p79
(dp80
g7
I0
sg17
F-0.319166932935099
sg13
I01
sbsg14
(imyEvolve
Tree
p81
(dp82
g7
I0
sg17
F3.399060485780815
sg13
I01
sbsg18
I00
sg19
g42
sbsg7
I2
sg18
I01
sg19
g43
sbsg18
I00
sg19
g20
sbsg18
I00
sg19
g20
sbsg18
I00
sg19
g20
sba(imyEvolve
Tree
p83
(dp84
g7
I4
sg8
(imyEvolve
Tree
p85
(dp86
g23
(imyEvolve
Tree
p87
(dp88
g23
(imyEvolve
Tree
p89
(dp90
g23
(imyEvolve
Tree
p91
(dp92
g7
I0
sg17
F1.448858479052328
sg13
I01
sbsg7
I1
sg18
I01
sg19
g62
sbsg7
I2
sg18
I01
sg19
g43
sbsg7
I3
sg18
I01
sg19
cmath
cos
p93
sbsg14
(imyEvolve
Tree
p94
(dp95
g7
I3
sg8
(imyEvolve
Tree
p96
(dp97
g23
(imyEvolve
Tree
p98
(dp99
g7
I1
sg8
(imyEvolve
Tree
p100
(dp101
g7
I0
sg13
I00
sbsg14
(imyEvolve
Tree
p102
(dp103
g7
I0
sg13
I00
sbsg18
I00
sg19
g42
sbsg7
I2
sg18
I01
sg19
g26
sbsg14
(imyEvolve
Tree
p104
(dp105
g23
(imyEvolve
Tree
p106
(dp107
g23
(imyEvolve
Tree
p108
(dp109
g7
I0
sg17
F-2.4888656182997093
sg13
I01
sbsg7
I1
sg18
I01
sg19
g43
sbsg7
I2
sg18
I01
sg19
g93
sbsg18
I00
sg19
g20
sbsg18
I00
sg19
g20
sba(imyEvolve
Tree
p110
(dp111
g23
(imyEvolve
Tree
p112
(dp113
g23
(imyEvolve
Tree
p114
(dp115
g7
I0
sg13
I00
sbsg7
I1
sg18
I01
sg19
g43
sbsg7
I2
sg18
I01
sg19
g43
sba(imyEvolve
Tree
p116
(dp117
g23
(imyEvolve
Tree
p118
(dp119
g23
(imyEvolve
Tree
p120
(dp121
g7
I2
sg8
(imyEvolve
Tree
p122
(dp123
g23
(imyEvolve
Tree
p124
(dp125
g7
I0
sg13
I00
sbsg7
I1
sg18
I01
sg19
g26
sbsg14
(imyEvolve
Tree
p126
(dp127
g7
I1
sg8
(imyEvolve
Tree
p128
(dp129
g7
I0
sg17
F4.94851293195288
sg13
I01
sbsg14
(imyEvolve
Tree
p130
(dp131
g7
I0
sg17
F-3.707588663306407
sg13
I01
sbsg18
I00
sg19
g42
sbsg18
I00
sg19
g20
sbsg7
I3
sg18
I01
sg19
g62
sbsg7
I4
sg18
I01
sg19
g62
sba(imyEvolve
Tree
p132
(dp133
g23
(imyEvolve
Tree
p134
(dp135
g23
(imyEvolve
Tree
p136
(dp137
g23
(imyEvolve
Tree
p138
(dp139
g23
(imyEvolve
Tree
p140
(dp141
g7
I0
sg17
F0.8761006918907608
sg13
I01
sbsg7
I1
sg18
I01
sg19
g93
sbsg7
I2
sg18
I01
sg19
g93
sbsg7
I3
sg18
I01
sg19
g43
sbsg7
I4
sg18
I01
sg19
g26
sba(imyEvolve
Tree
p142
(dp143
g7
I3
sg8
(imyEvolve
Tree
p144
(dp145
g23
(imyEvolve
Tree
p146
(dp147
g7
I1
sg8
(imyEvolve
Tree
p148
(dp149
g7
I0
sg17
F1.9515068417947132
sg13
I01
sbsg14
(imyEvolve
Tree
p150
(dp151
g7
I0
sg13
I00
sbsg18
I00
sg19
g20
sbsg7
I2
sg18
I01
sg19
g93
sbsg14
(imyEvolve
Tree
p152
(dp153
g23
(imyEvolve
Tree
p154
(dp155
g23
(imyEvolve
Tree
p156
(dp157
g7
I0
sg17
F-3.542921561731227
sg13
I01
sbsg7
I1
sg18
I01
sg19
g43
sbsg7
I2
sg18
I01
sg19
g62
sbsg18
I00
sg19
g20
sba(imyEvolve
Tree
p158
(dp159
g23
(imyEvolve
Tree
p160
(dp161
g23
(imyEvolve
Tree
p162
(dp163
g7
I0
sg17
F-3.2018840570035687
sg13
I01
sbsg7
I1
sg18
I01
sg19
g43
sbsg7
I2
sg18
I01
sg19
g93
sba(imyEvolve
Tree
p164
(dp165
g23
(imyEvolve
Tree
p166
(dp167
g7
I3
sg8
(imyEvolve
Tree
p168
(dp169
g23
(imyEvolve
Tree
p170
(dp171
g7
I1
sg8
(imyEvolve
Tree
p172
(dp173
g7
I0
sg17
F-4.233737501583864
sg13
I01
sbsg14
(imyEvolve
Tree
p174
(dp175
g7
I0
sg17
F-2.095491695393795
sg13
I01
sbsg18
I00
sg19
g20
sbsg7
I2
sg18
I01
sg19
g93
sbsg14
(imyEvolve
Tree
p176
(dp177
g7
I2
sg8
(imyEvolve
Tree
p178
(dp179
g7
I1
sg8
(imyEvolve
Tree
p180
(dp181
g7
I0
sg17
F0.8496036292945117
sg13
I01
sbsg14
(imyEvolve
Tree
p182
(dp183
g7
I0
sg17
F4.193824867332969
sg13
I01
sbsg18
I00
sg19
g42
sbsg14
(imyEvolve
Tree
p184
(dp185
g23
(imyEvolve
Tree
p186
(dp187
g7
I0
sg17
F-4.625734025415591
sg13
I01
sbsg7
I1
sg18
I01
sg19
g26
sbsg18
I00
sg19
g27
sbsg18
I00
sg19
g20
sbsg7
I4
sg18
I01
sg19
g43
sba(imyEvolve
Tree
p188
(dp189
g23
(imyEvolve
Tree
p190
(dp191
g23
(imyEvolve
Tree
p192
(dp193
g7
I0
sg13
I00
sbsg7
I1
sg18
I01
sg19
g93
sbsg7
I2
sg18
I01
sg19
g43
sba(imyEvolve
Tree
p194
(dp195
g23
(imyEvolve
Tree
p196
(dp197
g7
I4
sg8
(imyEvolve
Tree
p198
(dp199
g7
I3
sg8
(imyEvolve
Tree
p200
(dp201
g7
I2
sg8
(imyEvolve
Tree
p202
(dp203
g23
(imyEvolve
Tree
p204
(dp205
g7
I0
sg13
I00
sbsg7
I1
sg18
I01
sg19
g43
sbsg14
(imyEvolve
Tree
p206
(dp207
g7
I1
sg8
(imyEvolve
Tree
p208
(dp209
g7
I0
sg17
F3.0788241391055404
sg13
I01
sbsg14
(imyEvolve
Tree
p210
(dp211
g7
I0
sg13
I00
sbsg18
I00
sg19
g20
sbsg18
I00
sg19
g42
sbsg14
(imyEvolve
Tree
p212
(dp213
g23
(imyEvolve
Tree
p214
(dp215
g23
(imyEvolve
Tree
p216
(dp217
g7
I0
sg17
F-0.6919401381600867
sg13
I01
sbsg7
I1
sg18
I01
sg19
g26
sbsg7
I2
sg18
I01
sg19
g43
sbsg18
I00
sg19
g27
sbsg14
(imyEvolve
Tree
p218
(dp219
g23
(imyEvolve
Tree
p220
(dp221
g7
I2
sg8
(imyEvolve
Tree
p222
(dp223
g23
(imyEvolve
Tree
p224
(dp225
g7
I0
sg17
F-0.5483912822634025
sg13
I01
sbsg7
I1
sg18
I01
sg19
g62
sbsg14
(imyEvolve
Tree
p226
(dp227
g23
(imyEvolve
Tree
p228
(dp229
g7
I0
sg17
F-1.0156436659076484
sg13
I01
sbsg7
I1
sg18
I01
sg19
g93
sbsg18
I00
sg19
g20
sbsg7
I3
sg18
I01
sg19
g93
sbsg18
I00
sg19
g42
sbsg7
I5
sg18
I01
sg19
g43
sba(imyEvolve
Tree
p230
(dp231
g7
I2
sg8
(imyEvolve
Tree
p232
(dp233
g23
(imyEvolve
Tree
p234
(dp235
g7
I0
sg17
F0.2178126223365231
sg13
I01
sbsg7
I1
sg18
I01
sg19
g93
sbsg14
(imyEvolve
Tree
p236
(dp237
g7
I1
sg8
(imyEvolve
Tree
p238
(dp239
g7
I0
sg17
F3.9410270784191948
sg13
I01
sbsg14
(imyEvolve
Tree
p240
(dp241
g7
I0
sg13
I00
sbsg18
I00
sg19
g20
sbsg18
I00
sg19
g42
sba(imyEvolve
Tree
p242
(dp243
g23
(imyEvolve
Tree
p244
(dp245
g23
(imyEvolve
Tree
p246
(dp247
g7
I1
sg8
(imyEvolve
Tree
p248
(dp249
g7
I0
sg17
F-1.7012498435236179
sg13
I01
sbsg14
(imyEvolve
Tree
p250
(dp251
g7
I0
sg13
I00
sbsg18
I00
sg19
g20
sbsg7
I2
sg18
I01
sg19
g43
sbsg7
I3
sg18
I01
sg19
g62
sba(imyEvolve
Tree
p252
(dp253
g23
(imyEvolve
Tree
p254
(dp255
g23
(imyEvolve
Tree
p256
(dp257
g7
I2
sg8
(imyEvolve
Tree
p258
(dp259
g7
I1
sg8
(imyEvolve
Tree
p260
(dp261
g7
I0
sg17
F1.4711259257345368
sg13
I01
sbsg14
(imyEvolve
Tree
p262
(dp263
g7
I0
sg13
I00
sbsg18
I00
sg19
g42
sbsg14
(imyEvolve
Tree
p264
(dp265
g7
I1
sg8
(imyEvolve
Tree
p266
(dp267
g7
I0
sg17
F-4.803323895270742
sg13
I01
sbsg14
(imyEvolve
Tree
p268
(dp269
g7
I0
sg17
F-1.9389240024340437
sg13
I01
sbsg18
I00
sg19
g20
sbsg18
I00
sg19
g20
sbsg7
I3
sg18
I01
sg19
g93
sbsg7
I4
sg18
I01
sg19
g43
sba(imyEvolve
Tree
p270
(dp271
g23
(imyEvolve
Tree
p272
(dp273
g7
I4
sg8
(imyEvolve
Tree
p274
(dp275
g7
I3
sg8
(imyEvolve
Tree
p276
(dp277
g23
(imyEvolve
Tree
p278
(dp279
g7
I1
sg8
(imyEvolve
Tree
p280
(dp281
g7
I0
sg13
I00
sbsg14
(imyEvolve
Tree
p282
(dp283
g7
I0
sg17
F3.573670324205011
sg13
I01
sbsg18
I00
sg19
g42
sbsg7
I2
sg18
I01
sg19
g93
sbsg14
(imyEvolve
Tree
p284
(dp285
g23
(imyEvolve
Tree
p286
(dp287
g7
I1
sg8
(imyEvolve
Tree
p288
(dp289
g7
I0
sg17
F-4.031564007811518
sg13
I01
sbsg14
(imyEvolve
Tree
p290
(dp291
g7
I0
sg13
I00
sbsg18
I00
sg19
g42
sbsg7
I2
sg18
I01
sg19
g93
sbsg18
I00
sg19
g20
sbsg14
(imyEvolve
Tree
p292
(dp293
g23
(imyEvolve
Tree
p294
(dp295
g7
I2
sg8
(imyEvolve
Tree
p296
(dp297
g23
(imyEvolve
Tree
p298
(dp299
g7
I0
sg13
I00
sbsg7
I1
sg18
I01
sg19
g43
sbsg14
(imyEvolve
Tree
p300
(dp301
g23
(imyEvolve
Tree
p302
(dp303
g7
I0
sg17
F4.526383214899141
sg13
I01
sbsg7
I1
sg18
I01
sg19
g43
sbsg18
I00
sg19
g42
sbsg7
I3
sg18
I01
sg19
g93
sbsg18
I00
sg19
g20
sbsg7
I5
sg18
I01
sg19
g43
sba(imyEvolve
Tree
p304
(dp305
g23
(imyEvolve
Tree
p306
(dp307
g23
(imyEvolve
Tree
p308
(dp309
g7
I0
sg13
I00
sbsg7
I1
sg18
I01
sg19
g93
sbsg7
I2
sg18
I01
sg19
g43
sba(imyEvolve
Tree
p310
(dp311
g23
(imyEvolve
Tree
p312
(dp313
g23
(imyEvolve
Tree
p314
(dp315
g23
(imyEvolve
Tree
p316
(dp317
g7
I0
sg13
I00
sbsg7
I1
sg18
I01
sg19
g43
sbsg7
I2
sg18
I01
sg19
g62
sbsg7
I3
sg18
I01
sg19
g26
sba(imyEvolve
Tree
p318
(dp319
g23
(imyEvolve
Tree
p320
(dp321
g23
(imyEvolve
Tree
p322
(dp323
g7
I0
sg17
F-4.686148484495455
sg13
I01
sbsg7
I1
sg18
I01
sg19
g26
sbsg7
I2
sg18
I01
sg19
g62
sba(imyEvolve
Tree
p324
(dp325
g7
I2
sg8
(imyEvolve
Tree
p326
(dp327
g23
(imyEvolve
Tree
p328
(dp329
g7
I0
sg13
I00
sbsg7
I1
sg18
I01
sg19
g62
sbsg14
(imyEvolve
Tree
p330
(dp331
g7
I1
sg8
(imyEvolve
Tree
p332
(dp333
g7
I0
sg13
I00
sbsg14
(imyEvolve
Tree
p334
(dp335
g7
I0
sg13
I00
sbsg18
I00
sg19
g42
sbsg18
I00
sg19
g20
sba(imyEvolve
Tree
p336
(dp337
g23
(imyEvolve
Tree
p338
(dp339
g7
I4
sg8
(imyEvolve
Tree
p340
(dp341
g7
I3
sg8
(imyEvolve
Tree
p342
(dp343
g23
(imyEvolve
Tree
p344
(dp345
g7
I1
sg8
(imyEvolve
Tree
p346
(dp347
g7
I0
sg17
F3.4694571584194396
sg13
I01
sbsg14
(imyEvolve
Tree
p348
(dp349
g7
I0
sg17
F-4.932126234570317
sg13
I01
sbsg18
I00
sg19
g42
sbsg7
I2
sg18
I01
sg19
g26
sbsg14
(imyEvolve
Tree
p350
(dp351
g23
(imyEvolve
Tree
p352
(dp353
g23
(imyEvolve
Tree
p354
(dp355
g7
I0
sg13
I00
sbsg7
I1
sg18
I01
sg19
g43
sbsg7
I2
sg18
I01
sg19
g26
sbsg18
I00
sg19
g27
sbsg14
(imyEvolve
Tree
p356
(dp357
g23
(imyEvolve
Tree
p358
(dp359
g23
(imyEvolve
Tree
p360
(dp361
g7
I1
sg8
(imyEvolve
Tree
p362
(dp363
g7
I0
sg17
F2.3256927376028314
sg13
I01
sbsg14
(imyEvolve
Tree
p364
(dp365
g7
I0
sg17
F4.666604130171377
sg13
I01
sbsg18
I00
sg19
g27
sbsg7
I2
sg18
I01
sg19
g26
sbsg7
I3
sg18
I01
sg19
g26
sbsg18
I00
sg19
g27
sbsg7
I5
sg18
I01
sg19
g26
sbaa(lp366
(imyEvolve
Tree
p367
(dp368
g7
I2
sg8
(imyEvolve
Tree
p369
(dp370
g7
I1
sg8
(imyEvolve
Tree
p371
(dp372
g7
I0
sg17
F2.6765943859042496
sg13
I01
sbsg14
(imyEvolve
Tree
p373
(dp374
g7
I0
sg13
I00
sbsg18
I00
sg19
g27
sbsg14
(imyEvolve
Tree
p375
(dp376
g23
(imyEvolve
Tree
p377
(dp378
g7
I0
sg17
F2.769809389580847
sg13
I01
sbsg7
I1
sg18
I01
sg19
g43
sbsg18
I00
sg19
g20
sba(imyEvolve
Tree
p379
(dp380
g7
I2
sg8
(imyEvolve
Tree
p381
(dp382
g23
(imyEvolve
Tree
p383
(dp384
g7
I0
sg17
F3.7868919385321718
sg13
I01
sbsg7
I1
sg18
I01
sg19
g93
sbsg14
(imyEvolve
Tree
p385
(dp386
g7
I1
sg8
(imyEvolve
Tree
p387
(dp388
g7
I0
sg13
I00
sbsg14
(imyEvolve
Tree
p389
(dp390
g7
I0
sg17
F-2.8641001331622684
sg13
I01
sbsg18
I00
sg19
g20
sbsg18
I00
sg19
g27
sba(imyEvolve
Tree
p391
(dp392
g23
(imyEvolve
Tree
p393
(dp394
g23
(imyEvolve
Tree
p395
(dp396
g7
I0
sg17
F0.5240180011022488
sg13
I01
sbsg7
I1
sg18
I01
sg19
g62
sbsg7
I2
sg18
I01
sg19
g26
sba(imyEvolve
Tree
p397
(dp398
g7
I4
sg8
(imyEvolve
Tree
p399
(dp400
g23
(imyEvolve
Tree
p401
(dp402
g7
I2
sg8
(imyEvolve
Tree
p403
(dp404
g7
I1
sg8
(imyEvolve
Tree
p405
(dp406
g7
I0
sg13
I00
sbsg14
(imyEvolve
Tree
p407
(dp408
g7
I0
sg13
I00
sbsg18
I00
sg19
g27
sbsg14
(imyEvolve
Tree
p409
(dp410
g23
(imyEvolve
Tree
p411
(dp412
g7
I0
sg13
I00
sbsg7
I1
sg18
I01
sg19
g93
sbsg18
I00
sg19
g20
sbsg7
I3
sg18
I01
sg19
g43
sbsg14
(imyEvolve
Tree
p413
(dp414
g7
I3
sg8
(imyEvolve
Tree
p415
(dp416
g23
(imyEvolve
Tree
p417
(dp418
g7
I1
sg8
(imyEvolve
Tree
p419
(dp420
g7
I0
sg17
F-4.404657491617016
sg13
I01
sbsg14
(imyEvolve
Tree
p421
(dp422
g7
I0
sg13
I00
sbsg18
I00
sg19
g42
sbsg7
I2
sg18
I01
sg19
g93
sbsg14
(imyEvolve
Tree
p423
(dp424
g7
I2
sg8
(imyEvolve
Tree
p425
(dp426
g7
I1
sg8
(imyEvolve
Tree
p427
(dp428
g7
I0
sg17
F-2.895232585172316
sg13
I01
sbsg14
(imyEvolve
Tree
p429
(dp430
g7
I0
sg13
I00
sbsg18
I00
sg19
g20
sbsg14
(imyEvolve
Tree
p431
(dp432
g7
I1
sg8
(imyEvolve
Tree
p433
(dp434
g7
I0
sg13
I00
sbsg14
(imyEvolve
Tree
p435
(dp436
g7
I0
sg17
F0.9089158210880877
sg13
I01
sbsg18
I00
sg19
g20
sbsg18
I00
sg19
g42
sbsg18
I00
sg19
g27
sbsg18
I00
sg19
g27
sba(imyEvolve
Tree
p437
(dp438
g23
(imyEvolve
Tree
p439
(dp440
g7
I3
sg8
(imyEvolve
Tree
p441
(dp442
g7
I2
sg8
(imyEvolve
Tree
p443
(dp444
g23
(imyEvolve
Tree
p445
(dp446
g7
I0
sg13
I00
sbsg7
I1
sg18
I01
sg19
g43
sbsg14
(imyEvolve
Tree
p447
(dp448
g23
(imyEvolve
Tree
p449
(dp450
g7
I0
sg13
I00
sbsg7
I1
sg18
I01
sg19
g26
sbsg18
I00
sg19
g42
sbsg14
(imyEvolve
Tree
p451
(dp452
g23
(imyEvolve
Tree
p453
(dp454
g7
I1
sg8
(imyEvolve
Tree
p455
(dp456
g7
I0
sg17
F-1.3035100512409303
sg13
I01
sbsg14
(imyEvolve
Tree
p457
(dp458
g7
I0
sg13
I00
sbsg18
I00
sg19
g27
sbsg7
I2
sg18
I01
sg19
g93
sbsg18
I00
sg19
g20
sbsg7
I4
sg18
I01
sg19
g93
sba(imyEvolve
Tree
p459
(dp460
g23
(imyEvolve
Tree
p461
(dp462
g23
(imyEvolve
Tree
p463
(dp464
g23
(imyEvolve
Tree
p465
(dp466
g23
(imyEvolve
Tree
p467
(dp468
g23
(imyEvolve
Tree
p469
(dp470
g7
I0
sg17
F1.9869986225411083
sg13
I01
sbsg7
I1
sg18
I01
sg19
g93
sbsg7
I2
sg18
I01
sg19
g26
sbsg7
I3
sg18
I01
sg19
g93
sbsg7
I4
sg18
I01
sg19
g43
sbsg7
I5
sg18
I01
sg19
g43
sba(imyEvolve
Tree
p471
(dp472
g23
(imyEvolve
Tree
p473
(dp474
g7
I3
sg8
(imyEvolve
Tree
p475
(dp476
g7
I2
sg8
(imyEvolve
Tree
p477
(dp478
g23
(imyEvolve
Tree
p479
(dp480
g7
I0
sg17
F-3.813166671894984
sg13
I01
sbsg7
I1
sg18
I01
sg19
g62
sbsg14
(imyEvolve
Tree
p481
(dp482
g23
(imyEvolve
Tree
p483
(dp484
g7
I0
sg17
F-1.1662138593251612
sg13
I01
sbsg7
I1
sg18
I01
sg19
g26
sbsg18
I00
sg19
g20
sbsg14
(imyEvolve
Tree
p485
(dp486
g23
(imyEvolve
Tree
p487
(dp488
g23
(imyEvolve
Tree
p489
(dp490
g7
I0
sg13
I00
sbsg7
I1
sg18
I01
sg19
g62
sbsg7
I2
sg18
I01
sg19
g43
sbsg18
I00
sg19
g20
sbsg7
I4
sg18
I01
sg19
g62
sba(imyEvolve
Tree
p491
(dp492
g7
I3
sg8
(imyEvolve
Tree
p493
(dp494
g7
I2
sg8
(imyEvolve
Tree
p495
(dp496
g7
I1
sg8
(imyEvolve
Tree
p497
(dp498
g7
I0
sg17
F4.489740472501767
sg13
I01
sbsg14
(imyEvolve
Tree
p499
(dp500
g7
I0
sg13
I00
sbsg18
I00
sg19
g27
sbsg14
(imyEvolve
Tree
p501
(dp502
g7
I1
sg8
(imyEvolve
Tree
p503
(dp504
g7
I0
sg17
F4.690325881347118
sg13
I01
sbsg14
(imyEvolve
Tree
p505
(dp506
g7
I0
sg17
F-2.024686500732308
sg13
I01
sbsg18
I00
sg19
g42
sbsg18
I00
sg19
g27
sbsg14
(imyEvolve
Tree
p507
(dp508
g23
(imyEvolve
Tree
p509
(dp510
g7
I1
sg8
(imyEvolve
Tree
p511
(dp512
g7
I0
sg13
I00
sbsg14
(imyEvolve
Tree
p513
(dp514
g7
I0
sg13
I00
sbsg18
I00
sg19
g20
sbsg7
I2
sg18
I01
sg19
g93
sbsg18
I00
sg19
g27
sba(imyEvolve
Tree
p515
(dp516
g23
(imyEvolve
Tree
p517
(dp518
g7
I3
sg8
(imyEvolve
Tree
p519
(dp520
g7
I2
sg8
(imyEvolve
Tree
p521
(dp522
g7
I1
sg8
(imyEvolve
Tree
p523
(dp524
g7
I0
sg17
F-1.7771290953791699
sg13
I01
sbsg14
(imyEvolve
Tree
p525
(dp526
g7
I0
sg17
F3.000441502690135
sg13
I01
sbsg18
I00
sg19
g27
sbsg14
(imyEvolve
Tree
p527
(dp528
g23
(imyEvolve
Tree
p529
(dp530
g7
I0
sg17
F3.879463666012768
sg13
I01
sbsg7
I1
sg18
I01
sg19
g43
sbsg18
I00
sg19
g20
sbsg14
(imyEvolve
Tree
p531
(dp532
g23
(imyEvolve
Tree
p533
(dp534
g23
(imyEvolve
Tree
p535
(dp536
g7
I0
sg17
F-4.437158819752309
sg13
I01
sbsg7
I1
sg18
I01
sg19
g62
sbsg7
I2
sg18
I01
sg19
g43
sbsg18
I00
sg19
g20
sbsg7
I4
sg18
I01
sg19
g62
sbaasS'weightSharing'
p537
(lp538
I01
aI00
asS'fitnessValid'
p539
I00
sS'fitness'
p540
cnumpy.core.multiarray
scalar
p541
(cnumpy
dtype
p542
(S'f8'
p543
I0
I1
tp544
Rp545
(I3
S'<'
p546
NNNI-1
I-1
I0
tp547
bS'\x00\x08\x1b\x9e\x16\xe8]?'
p548
tp549
Rp550
sS'alpha'
p551
F0.0056118175994695416
sS'resolution'
p552
I56
sb.