(imyEvolve
Individual
p0
(dp1
S'funcs'
p2
(lp3
(lp4
(imyEvolve
Tree
p5
(dp6
S'below'
p7
(imyEvolve
Tree
p8
(dp9
S'depth'
p10
I4
sS'left'
p11
(imyEvolve
Tree
p12
(dp13
g7
(imyEvolve
Tree
p14
(dp15
g7
(imyEvolve
Tree
p16
(dp17
g7
(imyEvolve
Tree
p18
(dp19
g10
I0
sS'isConstant'
p20
I00
sbsg10
I1
sS'single'
p21
I01
sS'op'
p22
cmath
sin
p23
sbsg10
I2
sg21
I01
sg22
cmyEvolve
absSqrt
p24
sbsg10
I3
sg21
I01
sg22
cmyEvolve
square
p25
sbsS'right'
p26
(imyEvolve
Tree
p27
(dp28
g7
(imyEvolve
Tree
p29
(dp30
g7
(imyEvolve
Tree
p31
(dp32
g7
(imyEvolve
Tree
p33
(dp34
g10
I0
sS'constant'
p35
F-4.922478804343385
sg20
I01
sbsg10
I1
sg21
I01
sg22
g24
sbsg10
I2
sg21
I01
sg22
g25
sbsg10
I3
sg21
I01
sg22
g25
sbsg21
I00
sg22
coperator
add
p36
sbsg10
I5
sg21
I01
sg22
g25
sba(imyEvolve
Tree
p37
(dp38
g10
I5
sg11
(imyEvolve
Tree
p39
(dp40
g7
(imyEvolve
Tree
p41
(dp42
g10
I3
sg11
(imyEvolve
Tree
p43
(dp44
g7
(imyEvolve
Tree
p45
(dp46
g7
(imyEvolve
Tree
p47
(dp48
g10
I0
sg35
F-1.4199678095512769
sg20
I01
sbsg10
I1
sg21
I01
sg22
g25
sbsg10
I2
sg21
I01
sg22
g24
sbsg26
(imyEvolve
Tree
p49
(dp50
g7
(imyEvolve
Tree
p51
(dp52
g10
I1
sg11
(imyEvolve
Tree
p53
(dp54
g10
I0
sg20
I00
sbsg26
(imyEvolve
Tree
p55
(dp56
g10
I0
sg35
F4.5801092372265835
sg20
I01
sbsg21
I00
sg22
coperator
sub
p57
sbsg10
I2
sg21
I01
sg22
g23
sbsg21
I00
sg22
g36
sbsg10
I4
sg21
I01
sg22
g23
sbsg26
(imyEvolve
Tree
p58
(dp59
g10
I4
sg11
(imyEvolve
Tree
p60
(dp61
g10
I3
sg11
(imyEvolve
Tree
p62
(dp63
g7
(imyEvolve
Tree
p64
(dp65
g7
(imyEvolve
Tree
p66
(dp67
g10
I0
sg20
I00
sbsg10
I1
sg21
I01
sg22
g24
sbsg10
I2
sg21
I01
sg22
cmath
cos
p68
sbsg26
(imyEvolve
Tree
p69
(dp70
g7
(imyEvolve
Tree
p71
(dp72
g7
(imyEvolve
Tree
p73
(dp74
g10
I0
sg20
I00
sbsg10
I1
sg21
I01
sg22
g23
sbsg10
I2
sg21
I01
sg22
g23
sbsg21
I00
sg22
g57
sbsg26
(imyEvolve
Tree
p75
(dp76
g10
I3
sg11
(imyEvolve
Tree
p77
(dp78
g10
I2
sg11
(imyEvolve
Tree
p79
(dp80
g10
I1
sg11
(imyEvolve
Tree
p81
(dp82
g10
I0
sg35
F1.0436769629924036
sg20
I01
sbsg26
(imyEvolve
Tree
p83
(dp84
g10
I0
sg20
I00
sbsg21
I00
sg22
g57
sbsg26
(imyEvolve
Tree
p85
(dp86
g7
(imyEvolve
Tree
p87
(dp88
g10
I0
sg20
I00
sbsg10
I1
sg21
I01
sg22
g23
sbsg21
I00
sg22
g57
sbsg26
(imyEvolve
Tree
p89
(dp90
g10
I2
sg11
(imyEvolve
Tree
p91
(dp92
g10
I1
sg11
(imyEvolve
Tree
p93
(dp94
g10
I0
sg20
I00
sbsg26
(imyEvolve
Tree
p95
(dp96
g10
I0
sg20
I00
sbsg21
I00
sg22
g57
sbsg26
(imyEvolve
Tree
p97
(dp98
g10
I1
sg11
(imyEvolve
Tree
p99
(dp100
g10
I0
sg35
F3.3697895131102786
sg20
I01
sbsg26
(imyEvolve
Tree
p101
(dp102
g10
I0
sg20
I00
sbsg21
I00
sg22
g57
sbsg21
I00
sg22
coperator
mul
p103
sbsg21
I00
sg22
g103
sbsg21
I00
sg22
g103
sbsg21
I00
sg22
g36
sba(imyEvolve
Tree
p104
(dp105
g10
I4
sg11
(imyEvolve
Tree
p106
(dp107
g7
(imyEvolve
Tree
p108
(dp109
g7
(imyEvolve
Tree
p110
(dp111
g10
I1
sg11
(imyEvolve
Tree
p112
(dp113
g10
I0
sg35
F-0.5555631915338619
sg20
I01
sbsg26
(imyEvolve
Tree
p114
(dp115
g10
I0
sg35
F2.6670050667058813
sg20
I01
sbsg21
I00
sg22
g57
sbsg10
I2
sg21
I01
sg22
g68
sbsg10
I3
sg21
I01
sg22
g25
sbsg26
(imyEvolve
Tree
p116
(dp117
g10
I3
sg11
(imyEvolve
Tree
p118
(dp119
g7
(imyEvolve
Tree
p120
(dp121
g10
I1
sg11
(imyEvolve
Tree
p122
(dp123
g10
I0
sg35
F1.0290489329674521
sg20
I01
sbsg26
(imyEvolve
Tree
p124
(dp125
g10
I0
sg20
I00
sbsg21
I00
sg22
g36
sbsg10
I2
sg21
I01
sg22
g24
sbsg26
(imyEvolve
Tree
p126
(dp127
g7
(imyEvolve
Tree
p128
(dp129
g7
(imyEvolve
Tree
p130
(dp131
g10
I0
sg20
I00
sbsg10
I1
sg21
I01
sg22
g68
sbsg10
I2
sg21
I01
sg22
g24
sbsg21
I00
sg22
g36
sbsg21
I00
sg22
g103
sba(imyEvolve
Tree
p132
(dp133
g10
I3
sg11
(imyEvolve
Tree
p134
(dp135
g10
I2
sg11
(imyEvolve
Tree
p136
(dp137
g7
(imyEvolve
Tree
p138
(dp139
g10
I0
sg35
F2.4091901791699897
sg20
I01
sbsg10
I1
sg21
I01
sg22
g25
sbsg26
(imyEvolve
Tree
p140
(dp141
g7
(imyEvolve
Tree
p142
(dp143
g10
I0
sg20
I00
sbsg10
I1
sg21
I01
sg22
g25
sbsg21
I00
sg22
g57
sbsg26
(imyEvolve
Tree
p144
(dp145
g10
I2
sg11
(imyEvolve
Tree
p146
(dp147
g7
(imyEvolve
Tree
p148
(dp149
g10
I0
sg20
I00
sbsg10
I1
sg21
I01
sg22
g25
sbsg26
(imyEvolve
Tree
p150
(dp151
g10
I1
sg11
(imyEvolve
Tree
p152
(dp153
g10
I0
sg35
F-0.7207549078655981
sg20
I01
sbsg26
(imyEvolve
Tree
p154
(dp155
g10
I0
sg35
F-4.852296123703118
sg20
I01
sbsg21
I00
sg22
g57
sbsg21
I00
sg22
g36
sbsg21
I00
sg22
g103
sba(imyEvolve
Tree
p156
(dp157
g7
(imyEvolve
Tree
p158
(dp159
g7
(imyEvolve
Tree
p160
(dp161
g10
I3
sg11
(imyEvolve
Tree
p162
(dp163
g10
I2
sg11
(imyEvolve
Tree
p164
(dp165
g10
I1
sg11
(imyEvolve
Tree
p166
(dp167
g10
I0
sg35
F3.754047926170065
sg20
I01
sbsg26
(imyEvolve
Tree
p168
(dp169
g10
I0
sg20
I00
sbsg21
I00
sg22
g36
sbsg26
(imyEvolve
Tree
p170
(dp171
g10
I1
sg11
(imyEvolve
Tree
p172
(dp173
g10
I0
sg35
F1.6663296481891336
sg20
I01
sbsg26
(imyEvolve
Tree
p174
(dp175
g10
I0
sg20
I00
sbsg21
I00
sg22
g57
sbsg21
I00
sg22
g103
sbsg26
(imyEvolve
Tree
p176
(dp177
g10
I2
sg11
(imyEvolve
Tree
p178
(dp179
g10
I1
sg11
(imyEvolve
Tree
p180
(dp181
g10
I0
sg35
F-4.570330338349012
sg20
I01
sbsg26
(imyEvolve
Tree
p182
(dp183
g10
I0
sg35
F4.738772767121732
sg20
I01
sbsg21
I00
sg22
g57
sbsg26
(imyEvolve
Tree
p184
(dp185
g10
I1
sg11
(imyEvolve
Tree
p186
(dp187
g10
I0
sg20
I00
sbsg26
(imyEvolve
Tree
p188
(dp189
g10
I0
sg35
F-1.1297780642706092
sg20
I01
sbsg21
I00
sg22
g57
sbsg21
I00
sg22
g57
sbsg21
I00
sg22
g57
sbsg10
I4
sg21
I01
sg22
g25
sbsg10
I5
sg21
I01
sg22
g23
sba(imyEvolve
Tree
p190
(dp191
g7
(imyEvolve
Tree
p192
(dp193
g7
(imyEvolve
Tree
p194
(dp195
g10
I1
sg11
(imyEvolve
Tree
p196
(dp197
g10
I0
sg35
F2.774814142202797
sg20
I01
sbsg26
(imyEvolve
Tree
p198
(dp199
g10
I0
sg20
I00
sbsg21
I00
sg22
g36
sbsg10
I2
sg21
I01
sg22
g23
sbsg10
I3
sg21
I01
sg22
g25
sba(imyEvolve
Tree
p200
(dp201
g7
(imyEvolve
Tree
p202
(dp203
g7
(imyEvolve
Tree
p204
(dp205
g10
I2
sg11
(imyEvolve
Tree
p206
(dp207
g10
I1
sg11
(imyEvolve
Tree
p208
(dp209
g10
I0
sg35
F-1.5222221327092464
sg20
I01
sbsg26
(imyEvolve
Tree
p210
(dp211
g10
I0
sg35
F1.0008376907675753
sg20
I01
sbsg21
I00
sg22
g57
sbsg26
(imyEvolve
Tree
p212
(dp213
g10
I1
sg11
(imyEvolve
Tree
p214
(dp215
g10
I0
sg20
I00
sbsg26
(imyEvolve
Tree
p216
(dp217
g10
I0
sg35
F3.3190176476747855
sg20
I01
sbsg21
I00
sg22
g36
sbsg21
I00
sg22
g57
sbsg10
I3
sg21
I01
sg22
g24
sbsg10
I4
sg21
I01
sg22
g25
sba(imyEvolve
Tree
p218
(dp219
g10
I2
sg11
(imyEvolve
Tree
p220
(dp221
g7
(imyEvolve
Tree
p222
(dp223
g10
I0
sg35
F4.832357941154395
sg20
I01
sbsg10
I1
sg21
I01
sg22
g25
sbsg26
(imyEvolve
Tree
p224
(dp225
g7
(imyEvolve
Tree
p226
(dp227
g10
I0
sg20
I00
sbsg10
I1
sg21
I01
sg22
g23
sbsg21
I00
sg22
g103
sba(imyEvolve
Tree
p228
(dp229
g7
(imyEvolve
Tree
p230
(dp231
g7
(imyEvolve
Tree
p232
(dp233
g10
I0
sg35
F-3.134433254847896
sg20
I01
sbsg10
I1
sg21
I01
sg22
g25
sbsg10
I2
sg21
I01
sg22
g25
sba(imyEvolve
Tree
p234
(dp235
g7
(imyEvolve
Tree
p236
(dp237
g10
I3
sg11
(imyEvolve
Tree
p238
(dp239
g10
I2
sg11
(imyEvolve
Tree
p240
(dp241
g7
(imyEvolve
Tree
p242
(dp243
g10
I0
sg20
I00
sbsg10
I1
sg21
I01
sg22
g23
sbsg26
(imyEvolve
Tree
p244
(dp245
g10
I1
sg11
(imyEvolve
Tree
p246
(dp247
g10
I0
sg20
I00
sbsg26
(imyEvolve
Tree
p248
(dp249
g10
I0
sg35
F2.331860020916282
sg20
I01
sbsg21
I00
sg22
g103
sbsg21
I00
sg22
g103
sbsg26
(imyEvolve
Tree
p250
(dp251
g7
(imyEvolve
Tree
p252
(dp253
g7
(imyEvolve
Tree
p254
(dp255
g10
I0
sg35
F2.38235377186432
sg20
I01
sbsg10
I1
sg21
I01
sg22
g23
sbsg10
I2
sg21
I01
sg22
g24
sbsg21
I00
sg22
g57
sbsg10
I4
sg21
I01
sg22
g24
sba(imyEvolve
Tree
p256
(dp257
g7
(imyEvolve
Tree
p258
(dp259
g10
I2
sg11
(imyEvolve
Tree
p260
(dp261
g10
I1
sg11
(imyEvolve
Tree
p262
(dp263
g10
I0
sg20
I00
sbsg26
(imyEvolve
Tree
p264
(dp265
g10
I0
sg35
F-2.347009652226931
sg20
I01
sbsg21
I00
sg22
g57
sbsg26
(imyEvolve
Tree
p266
(dp267
g10
I1
sg11
(imyEvolve
Tree
p268
(dp269
g10
I0
sg35
F0.18179779090020176
sg20
I01
sbsg26
(imyEvolve
Tree
p270
(dp271
g10
I0
sg20
I00
sbsg21
I00
sg22
g57
sbsg21
I00
sg22
g36
sbsg10
I3
sg21
I01
sg22
g24
sba(imyEvolve
Tree
p272
(dp273
g10
I5
sg11
(imyEvolve
Tree
p274
(dp275
g10
I4
sg11
(imyEvolve
Tree
p276
(dp277
g7
(imyEvolve
Tree
p278
(dp279
g7
(imyEvolve
Tree
p280
(dp281
g10
I1
sg11
(imyEvolve
Tree
p282
(dp283
g10
I0
sg20
I00
sbsg26
(imyEvolve
Tree
p284
(dp285
g10
I0
sg20
I00
sbsg21
I00
sg22
g36
sbsg10
I2
sg21
I01
sg22
g25
sbsg10
I3
sg21
I01
sg22
g25
sbsg26
(imyEvolve
Tree
p286
(dp287
g7
(imyEvolve
Tree
p288
(dp289
g7
(imyEvolve
Tree
p290
(dp291
g10
I1
sg11
(imyEvolve
Tree
p292
(dp293
g10
I0
sg35
F-3.1391247879042083
sg20
I01
sbsg26
(imyEvolve
Tree
p294
(dp295
g10
I0
sg35
F-0.4193441373766573
sg20
I01
sbsg21
I00
sg22
g103
sbsg10
I2
sg21
I01
sg22
g24
sbsg10
I3
sg21
I01
sg22
g68
sbsg21
I00
sg22
g57
sbsg26
(imyEvolve
Tree
p296
(dp297
g10
I4
sg11
(imyEvolve
Tree
p298
(dp299
g7
(imyEvolve
Tree
p300
(dp301
g10
I2
sg11
(imyEvolve
Tree
p302
(dp303
g7
(imyEvolve
Tree
p304
(dp305
g10
I0
sg35
F1.4649952026753486
sg20
I01
sbsg10
I1
sg21
I01
sg22
g24
sbsg26
(imyEvolve
Tree
p306
(dp307
g10
I1
sg11
(imyEvolve
Tree
p308
(dp309
g10
I0
sg35
F1.8985720710493386
sg20
I01
sbsg26
(imyEvolve
Tree
p310
(dp311
g10
I0
sg35
F4.192507733429311
sg20
I01
sbsg21
I00
sg22
g57
sbsg21
I00
sg22
g103
sbsg10
I3
sg21
I01
sg22
g24
sbsg26
(imyEvolve
Tree
p312
(dp313
g10
I3
sg11
(imyEvolve
Tree
p314
(dp315
g7
(imyEvolve
Tree
p316
(dp317
g10
I1
sg11
(imyEvolve
Tree
p318
(dp319
g10
I0
sg35
F-4.760744660549832
sg20
I01
sbsg26
(imyEvolve
Tree
p320
(dp321
g10
I0
sg35
F-3.0925788681584256
sg20
I01
sbsg21
I00
sg22
g103
sbsg10
I2
sg21
I01
sg22
g23
sbsg26
(imyEvolve
Tree
p322
(dp323
g7
(imyEvolve
Tree
p324
(dp325
g7
(imyEvolve
Tree
p326
(dp327
g10
I0
sg35
F-1.7662833242448936
sg20
I01
sbsg10
I1
sg21
I01
sg22
g23
sbsg10
I2
sg21
I01
sg22
g24
sbsg21
I00
sg22
g36
sbsg21
I00
sg22
g103
sbsg21
I00
sg22
g36
sba(imyEvolve
Tree
p328
(dp329
g10
I3
sg11
(imyEvolve
Tree
p330
(dp331
g7
(imyEvolve
Tree
p332
(dp333
g7
(imyEvolve
Tree
p334
(dp335
g10
I0
sg20
I00
sbsg10
I1
sg21
I01
sg22
g24
sbsg10
I2
sg21
I01
sg22
g25
sbsg26
(imyEvolve
Tree
p336
(dp337
g7
(imyEvolve
Tree
p338
(dp339
g7
(imyEvolve
Tree
p340
(dp341
g10
I0
sg35
F-4.260920765339007
sg20
I01
sbsg10
I1
sg21
I01
sg22
g68
sbsg10
I2
sg21
I01
sg22
g23
sbsg21
I00
sg22
g57
sba(imyEvolve
Tree
p342
(dp343
g10
I2
sg11
(imyEvolve
Tree
p344
(dp345
g10
I1
sg11
(imyEvolve
Tree
p346
(dp347
g10
I0
sg20
I00
sbsg26
(imyEvolve
Tree
p348
(dp349
g10
I0
sg20
I00
sbsg21
I00
sg22
g36
sbsg26
(imyEvolve
Tree
p350
(dp351
g10
I1
sg11
(imyEvolve
Tree
p352
(dp353
g10
I0
sg20
I00
sbsg26
(imyEvolve
Tree
p354
(dp355
g10
I0
sg35
F-0.23217485248950265
sg20
I01
sbsg21
I00
sg22
g103
sbsg21
I00
sg22
g36
sba(imyEvolve
Tree
p356
(dp357
g7
(imyEvolve
Tree
p358
(dp359
g10
I2
sg11
(imyEvolve
Tree
p360
(dp361
g10
I1
sg11
(imyEvolve
Tree
p362
(dp363
g10
I0
sg20
I00
sbsg26
(imyEvolve
Tree
p364
(dp365
g10
I0
sg35
F2.2772006255907273
sg20
I01
sbsg21
I00
sg22
g36
sbsg26
(imyEvolve
Tree
p366
(dp367
g7
(imyEvolve
Tree
p368
(dp369
g10
I0
sg20
I00
sbsg10
I1
sg21
I01
sg22
g25
sbsg21
I00
sg22
g103
sbsg10
I3
sg21
I01
sg22
g25
sba(imyEvolve
Tree
p370
(dp371
g7
(imyEvolve
Tree
p372
(dp373
g7
(imyEvolve
Tree
p374
(dp375
g10
I1
sg11
(imyEvolve
Tree
p376
(dp377
g10
I0
sg35
F1.2384970208746529
sg20
I01
sbsg26
(imyEvolve
Tree
p378
(dp379
g10
I0
sg35
F-4.526535790188566
sg20
I01
sbsg21
I00
sg22
g36
sbsg10
I2
sg21
I01
sg22
g68
sbsg10
I3
sg21
I01
sg22
g24
sbaasS'weightSharing'
p380
(lp381
I00
aI00
aI00
aI00
aI00
aI00
aI00
aI00
asS'fitnessValid'
p382
I00
sS'fitness'
p383
cnumpy.core.multiarray
scalar
p384
(cnumpy
dtype
p385
(S'f8'
p386
I0
I1
tp387
Rp388
(I3
S'<'
p389
NNNI-1
I-1
I0
tp390
bS'\x00\x9c\x99\x99\x11|C\xbf'
p391
tp392
Rp393
sS'alpha'
p394
F0.0026830989771513434
sS'resolution'
p395
I99
sb.