(imyEvolve
Individual
p0
(dp1
S'funcs'
p2
(lp3
(lp4
(imyEvolve
Tree
p5
(dp6
S'left'
p7
(imyEvolve
Tree
p8
(dp9
g7
(imyEvolve
Tree
p10
(dp11
S'depth'
p12
I0
sS'isConstant'
p13
I00
sbsg12
I1
sS'right'
p14
(imyEvolve
Tree
p15
(dp16
g12
I0
sS'constant'
p17
F-0.6423909509239181
sg13
I01
sbsS'single'
p18
I00
sS'op'
p19
coperator
add
p20
sbsg12
I2
sg14
(imyEvolve
Tree
p21
(dp22
S'below'
p23
(imyEvolve
Tree
p24
(dp25
g12
I0
sg17
F2.5151644275100367
sg13
I01
sbsg12
I1
sg18
I01
sg19
cmath
sin
p26
sbsg18
I00
sg19
coperator
mul
p27
sba(imyEvolve
Tree
p28
(dp29
g23
(imyEvolve
Tree
p30
(dp31
g7
(imyEvolve
Tree
p32
(dp33
g23
(imyEvolve
Tree
p34
(dp35
g12
I0
sg17
F-0.7573524128027485
sg13
I01
sbsg12
I1
sg18
I01
sg19
g26
sbsg12
I2
sg14
(imyEvolve
Tree
p36
(dp37
g7
(imyEvolve
Tree
p38
(dp39
g12
I0
sg17
F-0.4033370162106902
sg13
I01
sbsg12
I1
sg14
(imyEvolve
Tree
p40
(dp41
g12
I0
sg17
F0.9046919294210376
sg13
I01
sbsg18
I00
sg19
g27
sbsg18
I00
sg19
g20
sbsg12
I3
sg18
I01
sg19
g26
sba(imyEvolve
Tree
p42
(dp43
g23
(imyEvolve
Tree
p44
(dp45
g12
I3
sg7
(imyEvolve
Tree
p46
(dp47
g12
I2
sg7
(imyEvolve
Tree
p48
(dp49
g23
(imyEvolve
Tree
p50
(dp51
g12
I0
sg13
I00
sbsg12
I1
sg18
I01
sg19
g26
sbsg14
(imyEvolve
Tree
p52
(dp53
g12
I1
sg7
(imyEvolve
Tree
p54
(dp55
g12
I0
sg13
I00
sbsg14
(imyEvolve
Tree
p56
(dp57
g12
I0
sg13
I00
sbsg18
I00
sg19
g27
sbsg18
I00
sg19
g27
sbsg14
(imyEvolve
Tree
p58
(dp59
g23
(imyEvolve
Tree
p60
(dp61
g23
(imyEvolve
Tree
p62
(dp63
g12
I0
sg17
F1.9045385395920302
sg13
I01
sbsg12
I1
sg18
I01
sg19
cmath
cos
p64
sbsg12
I2
sg18
I01
sg19
cmyEvolve
absSqrt
p65
sbsg18
I00
sg19
g20
sbsg12
I4
sg18
I01
sg19
g64
sba(imyEvolve
Tree
p66
(dp67
g7
(imyEvolve
Tree
p68
(dp69
g7
(imyEvolve
Tree
p70
(dp71
g23
(imyEvolve
Tree
p72
(dp73
g7
(imyEvolve
Tree
p74
(dp75
g23
(imyEvolve
Tree
p76
(dp77
g12
I0
sg17
F-1.4627284152354947
sg13
I01
sbsg12
I1
sg18
I01
sg19
g65
sbsg12
I2
sg14
(imyEvolve
Tree
p78
(dp79
g7
(imyEvolve
Tree
p80
(dp81
g12
I0
sg13
I00
sbsg12
I1
sg14
(imyEvolve
Tree
p82
(dp83
g12
I0
sg13
I00
sbsg18
I00
sg19
g27
sbsg18
I00
sg19
g27
sbsg12
I3
sg18
I01
sg19
g65
sbsg12
I4
sg14
(imyEvolve
Tree
p84
(dp85
g23
(imyEvolve
Tree
p86
(dp87
g7
(imyEvolve
Tree
p88
(dp89
g23
(imyEvolve
Tree
p90
(dp91
g12
I0
sg17
F-4.178526413143969
sg13
I01
sbsg12
I1
sg18
I01
sg19
g65
sbsg12
I2
sg14
(imyEvolve
Tree
p92
(dp93
g7
(imyEvolve
Tree
p94
(dp95
g12
I0
sg17
F-0.3947798601193728
sg13
I01
sbsg12
I1
sg14
(imyEvolve
Tree
p96
(dp97
g12
I0
sg17
F-3.688284187974149
sg13
I01
sbsg18
I00
sg19
g27
sbsg18
I00
sg19
g27
sbsg12
I3
sg18
I01
sg19
g26
sbsg18
I00
sg19
coperator
sub
p98
sbsg12
I5
sg14
(imyEvolve
Tree
p99
(dp100
g7
(imyEvolve
Tree
p101
(dp102
g23
(imyEvolve
Tree
p103
(dp104
g7
(imyEvolve
Tree
p105
(dp106
g23
(imyEvolve
Tree
p107
(dp108
g12
I0
sg13
I00
sbsg12
I1
sg18
I01
sg19
cmyEvolve
square
p109
sbsg12
I2
sg14
(imyEvolve
Tree
p110
(dp111
g7
(imyEvolve
Tree
p112
(dp113
g12
I0
sg13
I00
sbsg12
I1
sg14
(imyEvolve
Tree
p114
(dp115
g12
I0
sg13
I00
sbsg18
I00
sg19
g27
sbsg18
I00
sg19
g20
sbsg12
I3
sg18
I01
sg19
g109
sbsg12
I4
sg14
(imyEvolve
Tree
p116
(dp117
g7
(imyEvolve
Tree
p118
(dp119
g23
(imyEvolve
Tree
p120
(dp121
g7
(imyEvolve
Tree
p122
(dp123
g12
I0
sg17
F3.435970457466368
sg13
I01
sbsg12
I1
sg14
(imyEvolve
Tree
p124
(dp125
g12
I0
sg17
F-1.8967526745248176
sg13
I01
sbsg18
I00
sg19
g98
sbsg12
I2
sg18
I01
sg19
g64
sbsg12
I3
sg14
(imyEvolve
Tree
p126
(dp127
g7
(imyEvolve
Tree
p128
(dp129
g7
(imyEvolve
Tree
p130
(dp131
g12
I0
sg13
I00
sbsg12
I1
sg14
(imyEvolve
Tree
p132
(dp133
g12
I0
sg13
I00
sbsg18
I00
sg19
g20
sbsg12
I2
sg14
(imyEvolve
Tree
p134
(dp135
g7
(imyEvolve
Tree
p136
(dp137
g12
I0
sg17
F-4.261280436482378
sg13
I01
sbsg12
I1
sg14
(imyEvolve
Tree
p138
(dp139
g12
I0
sg13
I00
sbsg18
I00
sg19
g20
sbsg18
I00
sg19
g27
sbsg18
I00
sg19
g98
sbsg18
I00
sg19
g20
sbsg18
I00
sg19
g98
sba(imyEvolve
Tree
p140
(dp141
g12
I3
sg7
(imyEvolve
Tree
p142
(dp143
g12
I2
sg7
(imyEvolve
Tree
p144
(dp145
g12
I1
sg7
(imyEvolve
Tree
p146
(dp147
g12
I0
sg17
F-0.7812503978878604
sg13
I01
sbsg14
(imyEvolve
Tree
p148
(dp149
g12
I0
sg17
F-1.6737462097983191
sg13
I01
sbsg18
I00
sg19
g98
sbsg14
(imyEvolve
Tree
p150
(dp151
g12
I1
sg7
(imyEvolve
Tree
p152
(dp153
g12
I0
sg17
F0.8672770892469419
sg13
I01
sbsg14
(imyEvolve
Tree
p154
(dp155
g12
I0
sg17
F-3.619186739489728
sg13
I01
sbsg18
I00
sg19
g98
sbsg18
I00
sg19
g27
sbsg14
(imyEvolve
Tree
p156
(dp157
g12
I2
sg7
(imyEvolve
Tree
p158
(dp159
g12
I1
sg7
(imyEvolve
Tree
p160
(dp161
g12
I0
sg13
I00
sbsg14
(imyEvolve
Tree
p162
(dp163
g12
I0
sg17
F-0.6426046496548752
sg13
I01
sbsg18
I00
sg19
g27
sbsg14
(imyEvolve
Tree
p164
(dp165
g23
(imyEvolve
Tree
p166
(dp167
g12
I0
sg17
F-2.6322428805539166
sg13
I01
sbsg12
I1
sg18
I01
sg19
g26
sbsg18
I00
sg19
g27
sbsg18
I00
sg19
g27
sba(imyEvolve
Tree
p168
(dp169
g23
(imyEvolve
Tree
p170
(dp171
g7
(imyEvolve
Tree
p172
(dp173
g12
I0
sg13
I00
sbsg12
I1
sg14
(imyEvolve
Tree
p174
(dp175
g12
I0
sg13
I00
sbsg18
I00
sg19
g98
sbsg12
I2
sg18
I01
sg19
g26
sba(imyEvolve
Tree
p176
(dp177
g12
I5
sg7
(imyEvolve
Tree
p178
(dp179
g12
I4
sg7
(imyEvolve
Tree
p180
(dp181
g12
I3
sg7
(imyEvolve
Tree
p182
(dp183
g12
I2
sg7
(imyEvolve
Tree
p184
(dp185
g23
(imyEvolve
Tree
p186
(dp187
g12
I0
sg13
I00
sbsg12
I1
sg18
I01
sg19
g109
sbsg14
(imyEvolve
Tree
p188
(dp189
g23
(imyEvolve
Tree
p190
(dp191
g12
I0
sg13
I00
sbsg12
I1
sg18
I01
sg19
g26
sbsg18
I00
sg19
g20
sbsg14
(imyEvolve
Tree
p192
(dp193
g23
(imyEvolve
Tree
p194
(dp195
g12
I1
sg7
(imyEvolve
Tree
p196
(dp197
g12
I0
sg13
I00
sbsg14
(imyEvolve
Tree
p198
(dp199
g12
I0
sg13
I00
sbsg18
I00
sg19
g27
sbsg12
I2
sg18
I01
sg19
g65
sbsg18
I00
sg19
g27
sbsg14
(imyEvolve
Tree
p200
(dp201
g23
(imyEvolve
Tree
p202
(dp203
g12
I2
sg7
(imyEvolve
Tree
p204
(dp205
g23
(imyEvolve
Tree
p206
(dp207
g12
I0
sg13
I00
sbsg12
I1
sg18
I01
sg19
g64
sbsg14
(imyEvolve
Tree
p208
(dp209
g23
(imyEvolve
Tree
p210
(dp211
g12
I0
sg13
I00
sbsg12
I1
sg18
I01
sg19
g26
sbsg18
I00
sg19
g98
sbsg12
I3
sg18
I01
sg19
g64
sbsg18
I00
sg19
g20
sbsg14
(imyEvolve
Tree
p212
(dp213
g23
(imyEvolve
Tree
p214
(dp215
g23
(imyEvolve
Tree
p216
(dp217
g12
I2
sg7
(imyEvolve
Tree
p218
(dp219
g23
(imyEvolve
Tree
p220
(dp221
g12
I0
sg17
F-3.16053126375167
sg13
I01
sbsg12
I1
sg18
I01
sg19
g109
sbsg14
(imyEvolve
Tree
p222
(dp223
g12
I1
sg7
(imyEvolve
Tree
p224
(dp225
g12
I0
sg13
I00
sbsg14
(imyEvolve
Tree
p226
(dp227
g12
I0
sg13
I00
sbsg18
I00
sg19
g98
sbsg18
I00
sg19
g20
sbsg12
I3
sg18
I01
sg19
g26
sbsg12
I4
sg18
I01
sg19
g64
sbsg18
I00
sg19
g20
sba(imyEvolve
Tree
p228
(dp229
g23
(imyEvolve
Tree
p230
(dp231
g7
(imyEvolve
Tree
p232
(dp233
g7
(imyEvolve
Tree
p234
(dp235
g7
(imyEvolve
Tree
p236
(dp237
g23
(imyEvolve
Tree
p238
(dp239
g12
I0
sg13
I00
sbsg12
I1
sg18
I01
sg19
g65
sbsg12
I2
sg14
(imyEvolve
Tree
p240
(dp241
g7
(imyEvolve
Tree
p242
(dp243
g12
I0
sg13
I00
sbsg12
I1
sg14
(imyEvolve
Tree
p244
(dp245
g12
I0
sg13
I00
sbsg18
I00
sg19
g20
sbsg18
I00
sg19
g98
sbsg12
I3
sg14
(imyEvolve
Tree
p246
(dp247
g23
(imyEvolve
Tree
p248
(dp249
g7
(imyEvolve
Tree
p250
(dp251
g12
I0
sg13
I00
sbsg12
I1
sg14
(imyEvolve
Tree
p252
(dp253
g12
I0
sg13
I00
sbsg18
I00
sg19
g20
sbsg12
I2
sg18
I01
sg19
g26
sbsg18
I00
sg19
g20
sbsg12
I4
sg14
(imyEvolve
Tree
p254
(dp255
g7
(imyEvolve
Tree
p256
(dp257
g7
(imyEvolve
Tree
p258
(dp259
g23
(imyEvolve
Tree
p260
(dp261
g12
I0
sg13
I00
sbsg12
I1
sg18
I01
sg19
g65
sbsg12
I2
sg14
(imyEvolve
Tree
p262
(dp263
g7
(imyEvolve
Tree
p264
(dp265
g12
I0
sg17
F4.123377740579109
sg13
I01
sbsg12
I1
sg14
(imyEvolve
Tree
p266
(dp267
g12
I0
sg13
I00
sbsg18
I00
sg19
g20
sbsg18
I00
sg19
g98
sbsg12
I3
sg14
(imyEvolve
Tree
p268
(dp269
g23
(imyEvolve
Tree
p270
(dp271
g23
(imyEvolve
Tree
p272
(dp273
g12
I0
sg13
I00
sbsg12
I1
sg18
I01
sg19
g109
sbsg12
I2
sg18
I01
sg19
g65
sbsg18
I00
sg19
g27
sbsg18
I00
sg19
g98
sbsg12
I5
sg18
I01
sg19
g109
sba(imyEvolve
Tree
p274
(dp275
g23
(imyEvolve
Tree
p276
(dp277
g7
(imyEvolve
Tree
p278
(dp279
g12
I0
sg13
I00
sbsg12
I1
sg14
(imyEvolve
Tree
p280
(dp281
g12
I0
sg17
F0.9239452318374255
sg13
I01
sbsg18
I00
sg19
g98
sbsg12
I2
sg18
I01
sg19
g65
sba(imyEvolve
Tree
p282
(dp283
g12
I2
sg7
(imyEvolve
Tree
p284
(dp285
g23
(imyEvolve
Tree
p286
(dp287
g12
I0
sg13
I00
sbsg12
I1
sg18
I01
sg19
g109
sbsg14
(imyEvolve
Tree
p288
(dp289
g23
(imyEvolve
Tree
p290
(dp291
g12
I0
sg13
I00
sbsg12
I1
sg18
I01
sg19
g109
sbsg18
I00
sg19
g27
sba(imyEvolve
Tree
p292
(dp293
g23
(imyEvolve
Tree
p294
(dp295
g12
I4
sg7
(imyEvolve
Tree
p296
(dp297
g12
I3
sg7
(imyEvolve
Tree
p298
(dp299
g23
(imyEvolve
Tree
p300
(dp301
g23
(imyEvolve
Tree
p302
(dp303
g12
I0
sg17
F-4.310273514760306
sg13
I01
sbsg12
I1
sg18
I01
sg19
g109
sbsg12
I2
sg18
I01
sg19
g65
sbsg14
(imyEvolve
Tree
p304
(dp305
g23
(imyEvolve
Tree
p306
(dp307
g23
(imyEvolve
Tree
p308
(dp309
g12
I0
sg17
F-0.09883505997048037
sg13
I01
sbsg12
I1
sg18
I01
sg19
g64
sbsg12
I2
sg18
I01
sg19
g65
sbsg18
I00
sg19
g27
sbsg14
(imyEvolve
Tree
p310
(dp311
g12
I3
sg7
(imyEvolve
Tree
p312
(dp313
g23
(imyEvolve
Tree
p314
(dp315
g12
I1
sg7
(imyEvolve
Tree
p316
(dp317
g12
I0
sg13
I00
sbsg14
(imyEvolve
Tree
p318
(dp319
g12
I0
sg13
I00
sbsg18
I00
sg19
g20
sbsg12
I2
sg18
I01
sg19
g65
sbsg14
(imyEvolve
Tree
p320
(dp321
g12
I2
sg7
(imyEvolve
Tree
p322
(dp323
g23
(imyEvolve
Tree
p324
(dp325
g12
I0
sg13
I00
sbsg12
I1
sg18
I01
sg19
g64
sbsg14
(imyEvolve
Tree
p326
(dp327
g12
I1
sg7
(imyEvolve
Tree
p328
(dp329
g12
I0
sg13
I00
sbsg14
(imyEvolve
Tree
p330
(dp331
g12
I0
sg13
I00
sbsg18
I00
sg19
g27
sbsg18
I00
sg19
g20
sbsg18
I00
sg19
g20
sbsg18
I00
sg19
g27
sbsg12
I5
sg18
I01
sg19
g26
sba(imyEvolve
Tree
p332
(dp333
g12
I5
sg7
(imyEvolve
Tree
p334
(dp335
g23
(imyEvolve
Tree
p336
(dp337
g23
(imyEvolve
Tree
p338
(dp339
g23
(imyEvolve
Tree
p340
(dp341
g12
I1
sg7
(imyEvolve
Tree
p342
(dp343
g12
I0
sg13
I00
sbsg14
(imyEvolve
Tree
p344
(dp345
g12
I0
sg17
F-0.17338421775239787
sg13
I01
sbsg18
I00
sg19
g20
sbsg12
I2
sg18
I01
sg19
g65
sbsg12
I3
sg18
I01
sg19
g26
sbsg12
I4
sg18
I01
sg19
g109
sbsg14
(imyEvolve
Tree
p346
(dp347
g23
(imyEvolve
Tree
p348
(dp349
g12
I3
sg7
(imyEvolve
Tree
p350
(dp351
g23
(imyEvolve
Tree
p352
(dp353
g23
(imyEvolve
Tree
p354
(dp355
g12
I0
sg17
F-1.669646605929037
sg13
I01
sbsg12
I1
sg18
I01
sg19
g26
sbsg12
I2
sg18
I01
sg19
g64
sbsg14
(imyEvolve
Tree
p356
(dp357
g12
I2
sg7
(imyEvolve
Tree
p358
(dp359
g12
I1
sg7
(imyEvolve
Tree
p360
(dp361
g12
I0
sg17
F-1.640519616624677
sg13
I01
sbsg14
(imyEvolve
Tree
p362
(dp363
g12
I0
sg13
I00
sbsg18
I00
sg19
g98
sbsg14
(imyEvolve
Tree
p364
(dp365
g23
(imyEvolve
Tree
p366
(dp367
g12
I0
sg17
F-3.825143039110719
sg13
I01
sbsg12
I1
sg18
I01
sg19
g26
sbsg18
I00
sg19
g98
sbsg18
I00
sg19
g98
sbsg12
I4
sg18
I01
sg19
g64
sbsg18
I00
sg19
g20
sba(imyEvolve
Tree
p368
(dp369
g23
(imyEvolve
Tree
p370
(dp371
g23
(imyEvolve
Tree
p372
(dp373
g7
(imyEvolve
Tree
p374
(dp375
g12
I0
sg17
F0.9814768532098928
sg13
I01
sbsg12
I1
sg14
(imyEvolve
Tree
p376
(dp377
g12
I0
sg13
I00
sbsg18
I00
sg19
g98
sbsg12
I2
sg18
I01
sg19
g109
sbsg12
I3
sg18
I01
sg19
g64
sba(imyEvolve
Tree
p378
(dp379
g23
(imyEvolve
Tree
p380
(dp381
g23
(imyEvolve
Tree
p382
(dp383
g23
(imyEvolve
Tree
p384
(dp385
g23
(imyEvolve
Tree
p386
(dp387
g12
I0
sg13
I00
sbsg12
I1
sg18
I01
sg19
g26
sbsg12
I2
sg18
I01
sg19
g64
sbsg12
I3
sg18
I01
sg19
g64
sbsg12
I4
sg18
I01
sg19
g65
sba(imyEvolve
Tree
p388
(dp389
g23
(imyEvolve
Tree
p390
(dp391
g7
(imyEvolve
Tree
p392
(dp393
g23
(imyEvolve
Tree
p394
(dp395
g12
I0
sg13
I00
sbsg12
I1
sg18
I01
sg19
g26
sbsg12
I2
sg14
(imyEvolve
Tree
p396
(dp397
g7
(imyEvolve
Tree
p398
(dp399
g12
I0
sg13
I00
sbsg12
I1
sg14
(imyEvolve
Tree
p400
(dp401
g12
I0
sg13
I00
sbsg18
I00
sg19
g98
sbsg18
I00
sg19
g98
sbsg12
I3
sg18
I01
sg19
g65
sba(imyEvolve
Tree
p402
(dp403
g7
(imyEvolve
Tree
p404
(dp405
g7
(imyEvolve
Tree
p406
(dp407
g12
I0
sg17
F-2.6035793568859567
sg13
I01
sbsg12
I1
sg14
(imyEvolve
Tree
p408
(dp409
g12
I0
sg13
I00
sbsg18
I00
sg19
g20
sbsg12
I2
sg14
(imyEvolve
Tree
p410
(dp411
g7
(imyEvolve
Tree
p412
(dp413
g12
I0
sg13
I00
sbsg12
I1
sg14
(imyEvolve
Tree
p414
(dp415
g12
I0
sg13
I00
sbsg18
I00
sg19
g98
sbsg18
I00
sg19
g98
sba(imyEvolve
Tree
p416
(dp417
g23
(imyEvolve
Tree
p418
(dp419
g7
(imyEvolve
Tree
p420
(dp421
g7
(imyEvolve
Tree
p422
(dp423
g12
I0
sg17
F2.8211929298365117
sg13
I01
sbsg12
I1
sg14
(imyEvolve
Tree
p424
(dp425
g12
I0
sg17
F1.7468896184750413
sg13
I01
sbsg18
I00
sg19
g20
sbsg12
I2
sg14
(imyEvolve
Tree
p426
(dp427
g23
(imyEvolve
Tree
p428
(dp429
g12
I0
sg13
I00
sbsg12
I1
sg18
I01
sg19
g65
sbsg18
I00
sg19
g20
sbsg12
I3
sg18
I01
sg19
g65
sba(imyEvolve
Tree
p430
(dp431
g7
(imyEvolve
Tree
p432
(dp433
g7
(imyEvolve
Tree
p434
(dp435
g23
(imyEvolve
Tree
p436
(dp437
g12
I0
sg17
F0.5779422017041131
sg13
I01
sbsg12
I1
sg18
I01
sg19
g26
sbsg12
I2
sg14
(imyEvolve
Tree
p438
(dp439
g23
(imyEvolve
Tree
p440
(dp441
g12
I0
sg17
F2.678372429347151
sg13
I01
sbsg12
I1
sg18
I01
sg19
g64
sbsg18
I00
sg19
g27
sbsg12
I3
sg14
(imyEvolve
Tree
p442
(dp443
g23
(imyEvolve
Tree
p444
(dp445
g7
(imyEvolve
Tree
p446
(dp447
g12
I0
sg17
F-3.7874997457824042
sg13
I01
sbsg12
I1
sg14
(imyEvolve
Tree
p448
(dp449
g12
I0
sg13
I00
sbsg18
I00
sg19
g20
sbsg12
I2
sg18
I01
sg19
g65
sbsg18
I00
sg19
g27
sba(imyEvolve
Tree
p450
(dp451
g7
(imyEvolve
Tree
p452
(dp453
g23
(imyEvolve
Tree
p454
(dp455
g12
I0
sg17
F1.553035782154545
sg13
I01
sbsg12
I1
sg18
I01
sg19
g26
sbsg12
I2
sg14
(imyEvolve
Tree
p456
(dp457
g23
(imyEvolve
Tree
p458
(dp459
g12
I0
sg13
I00
sbsg12
I1
sg18
I01
sg19
g109
sbsg18
I00
sg19
g20
sbaa(lp460
(imyEvolve
Tree
p461
(dp462
g23
(imyEvolve
Tree
p463
(dp464
g7
(imyEvolve
Tree
p465
(dp466
g7
(imyEvolve
Tree
p467
(dp468
g12
I0
sg13
I00
sbsg12
I1
sg14
(imyEvolve
Tree
p469
(dp470
g12
I0
sg13
I00
sbsg18
I00
sg19
g20
sbsg12
I2
sg14
(imyEvolve
Tree
p471
(dp472
g23
(imyEvolve
Tree
p473
(dp474
g12
I0
sg13
I00
sbsg12
I1
sg18
I01
sg19
g65
sbsg18
I00
sg19
g98
sbsg12
I3
sg18
I01
sg19
g109
sba(imyEvolve
Tree
p475
(dp476
g23
(imyEvolve
Tree
p477
(dp478
g7
(imyEvolve
Tree
p479
(dp480
g7
(imyEvolve
Tree
p481
(dp482
g23
(imyEvolve
Tree
p483
(dp484
g12
I0
sg13
I00
sbsg12
I1
sg18
I01
sg19
g109
sbsg12
I2
sg14
(imyEvolve
Tree
p485
(dp486
g23
(imyEvolve
Tree
p487
(dp488
g12
I0
sg13
I00
sbsg12
I1
sg18
I01
sg19
g65
sbsg18
I00
sg19
g20
sbsg12
I3
sg14
(imyEvolve
Tree
p489
(dp490
g7
(imyEvolve
Tree
p491
(dp492
g23
(imyEvolve
Tree
p493
(dp494
g12
I0
sg13
I00
sbsg12
I1
sg18
I01
sg19
g65
sbsg12
I2
sg14
(imyEvolve
Tree
p495
(dp496
g7
(imyEvolve
Tree
p497
(dp498
g12
I0
sg17
F-0.49695795130495135
sg13
I01
sbsg12
I1
sg14
(imyEvolve
Tree
p499
(dp500
g12
I0
sg13
I00
sbsg18
I00
sg19
g27
sbsg18
I00
sg19
g27
sbsg18
I00
sg19
g27
sbsg12
I4
sg18
I01
sg19
g65
sba(imyEvolve
Tree
p501
(dp502
g23
(imyEvolve
Tree
p503
(dp504
g23
(imyEvolve
Tree
p505
(dp506
g12
I0
sg13
I00
sbsg12
I1
sg18
I01
sg19
g26
sbsg12
I2
sg18
I01
sg19
g65
sba(imyEvolve
Tree
p507
(dp508
g23
(imyEvolve
Tree
p509
(dp510
g7
(imyEvolve
Tree
p511
(dp512
g7
(imyEvolve
Tree
p513
(dp514
g23
(imyEvolve
Tree
p515
(dp516
g12
I0
sg13
I00
sbsg12
I1
sg18
I01
sg19
g109
sbsg12
I2
sg14
(imyEvolve
Tree
p517
(dp518
g7
(imyEvolve
Tree
p519
(dp520
g12
I0
sg13
I00
sbsg12
I1
sg14
(imyEvolve
Tree
p521
(dp522
g12
I0
sg13
I00
sbsg18
I00
sg19
g20
sbsg18
I00
sg19
g98
sbsg12
I3
sg14
(imyEvolve
Tree
p523
(dp524
g7
(imyEvolve
Tree
p525
(dp526
g7
(imyEvolve
Tree
p527
(dp528
g12
I0
sg17
F3.356777415854598
sg13
I01
sbsg12
I1
sg14
(imyEvolve
Tree
p529
(dp530
g12
I0
sg17
F1.0200944809712151
sg13
I01
sbsg18
I00
sg19
g27
sbsg12
I2
sg14
(imyEvolve
Tree
p531
(dp532
g7
(imyEvolve
Tree
p533
(dp534
g12
I0
sg13
I00
sbsg12
I1
sg14
(imyEvolve
Tree
p535
(dp536
g12
I0
sg13
I00
sbsg18
I00
sg19
g27
sbsg18
I00
sg19
g27
sbsg18
I00
sg19
g98
sbsg12
I4
sg18
I01
sg19
g64
sba(imyEvolve
Tree
p537
(dp538
g12
I3
sg7
(imyEvolve
Tree
p539
(dp540
g23
(imyEvolve
Tree
p541
(dp542
g23
(imyEvolve
Tree
p543
(dp544
g12
I0
sg13
I00
sbsg12
I1
sg18
I01
sg19
g109
sbsg12
I2
sg18
I01
sg19
g65
sbsg14
(imyEvolve
Tree
p545
(dp546
g23
(imyEvolve
Tree
p547
(dp548
g23
(imyEvolve
Tree
p549
(dp550
g12
I0
sg17
F3.1717762723044505
sg13
I01
sbsg12
I1
sg18
I01
sg19
g26
sbsg12
I2
sg18
I01
sg19
g65
sbsg18
I00
sg19
g98
sba(imyEvolve
Tree
p551
(dp552
g7
(imyEvolve
Tree
p553
(dp554
g23
(imyEvolve
Tree
p555
(dp556
g7
(imyEvolve
Tree
p557
(dp558
g7
(imyEvolve
Tree
p559
(dp560
g23
(imyEvolve
Tree
p561
(dp562
g12
I0
sg17
F0.38583131141444227
sg13
I01
sbsg12
I1
sg18
I01
sg19
g26
sbsg12
I2
sg14
(imyEvolve
Tree
p563
(dp564
g23
(imyEvolve
Tree
p565
(dp566
g12
I0
sg13
I00
sbsg12
I1
sg18
I01
sg19
g26
sbsg18
I00
sg19
g27
sbsg12
I3
sg14
(imyEvolve
Tree
p567
(dp568
g23
(imyEvolve
Tree
p569
(dp570
g7
(imyEvolve
Tree
p571
(dp572
g12
I0
sg17
F-0.8731862397721022
sg13
I01
sbsg12
I1
sg14
(imyEvolve
Tree
p573
(dp574
g12
I0
sg17
F-4.286514828431801
sg13
I01
sbsg18
I00
sg19
g98
sbsg12
I2
sg18
I01
sg19
g109
sbsg18
I00
sg19
g27
sbsg12
I4
sg18
I01
sg19
g64
sbsg12
I5
sg14
(imyEvolve
Tree
p575
(dp576
g7
(imyEvolve
Tree
p577
(dp578
g23
(imyEvolve
Tree
p579
(dp580
g23
(imyEvolve
Tree
p581
(dp582
g7
(imyEvolve
Tree
p583
(dp584
g12
I0
sg13
I00
sbsg12
I1
sg14
(imyEvolve
Tree
p585
(dp586
g12
I0
sg13
I00
sbsg18
I00
sg19
g20
sbsg12
I2
sg18
I01
sg19
g65
sbsg12
I3
sg18
I01
sg19
g109
sbsg12
I4
sg14
(imyEvolve
Tree
p587
(dp588
g23
(imyEvolve
Tree
p589
(dp590
g23
(imyEvolve
Tree
p591
(dp592
g23
(imyEvolve
Tree
p593
(dp594
g12
I0
sg17
F-1.5287312355805058
sg13
I01
sbsg12
I1
sg18
I01
sg19
g65
sbsg12
I2
sg18
I01
sg19
g109
sbsg12
I3
sg18
I01
sg19
g26
sbsg18
I00
sg19
g20
sbsg18
I00
sg19
g20
sba(imyEvolve
Tree
p595
(dp596
g23
(imyEvolve
Tree
p597
(dp598
g23
(imyEvolve
Tree
p599
(dp600
g7
(imyEvolve
Tree
p601
(dp602
g23
(imyEvolve
Tree
p603
(dp604
g12
I0
sg13
I00
sbsg12
I1
sg18
I01
sg19
g65
sbsg12
I2
sg14
(imyEvolve
Tree
p605
(dp606
g7
(imyEvolve
Tree
p607
(dp608
g12
I0
sg17
F0.21891749674514482
sg13
I01
sbsg12
I1
sg14
(imyEvolve
Tree
p609
(dp610
g12
I0
sg13
I00
sbsg18
I00
sg19
g20
sbsg18
I00
sg19
g20
sbsg12
I3
sg18
I01
sg19
g109
sbsg12
I4
sg18
I01
sg19
g64
sba(imyEvolve
Tree
p611
(dp612
g12
I5
sg7
(imyEvolve
Tree
p613
(dp614
g12
I4
sg7
(imyEvolve
Tree
p615
(dp616
g12
I3
sg7
(imyEvolve
Tree
p617
(dp618
g23
(imyEvolve
Tree
p619
(dp620
g12
I1
sg7
(imyEvolve
Tree
p621
(dp622
g12
I0
sg17
F3.465037865810338
sg13
I01
sbsg14
(imyEvolve
Tree
p623
(dp624
g12
I0
sg17
F2.2890675381005856
sg13
I01
sbsg18
I00
sg19
g98
sbsg12
I2
sg18
I01
sg19
g26
sbsg14
(imyEvolve
Tree
p625
(dp626
g23
(imyEvolve
Tree
p627
(dp628
g12
I1
sg7
(imyEvolve
Tree
p629
(dp630
g12
I0
sg17
F-1.567327723068055
sg13
I01
sbsg14
(imyEvolve
Tree
p631
(dp632
g12
I0
sg17
F-3.0820110840351544
sg13
I01
sbsg18
I00
sg19
g27
sbsg12
I2
sg18
I01
sg19
g65
sbsg18
I00
sg19
g27
sbsg14
(imyEvolve
Tree
p633
(dp634
g23
(imyEvolve
Tree
p635
(dp636
g23
(imyEvolve
Tree
p637
(dp638
g23
(imyEvolve
Tree
p639
(dp640
g12
I0
sg13
I00
sbsg12
I1
sg18
I01
sg19
g64
sbsg12
I2
sg18
I01
sg19
g65
sbsg12
I3
sg18
I01
sg19
g64
sbsg18
I00
sg19
g98
sbsg14
(imyEvolve
Tree
p641
(dp642
g12
I4
sg7
(imyEvolve
Tree
p643
(dp644
g23
(imyEvolve
Tree
p645
(dp646
g23
(imyEvolve
Tree
p647
(dp648
g23
(imyEvolve
Tree
p649
(dp650
g12
I0
sg17
F0.15658815423272632
sg13
I01
sbsg12
I1
sg18
I01
sg19
g65
sbsg12
I2
sg18
I01
sg19
g26
sbsg12
I3
sg18
I01
sg19
g26
sbsg14
(imyEvolve
Tree
p651
(dp652
g12
I3
sg7
(imyEvolve
Tree
p653
(dp654
g12
I2
sg7
(imyEvolve
Tree
p655
(dp656
g12
I1
sg7
(imyEvolve
Tree
p657
(dp658
g12
I0
sg13
I00
sbsg14
(imyEvolve
Tree
p659
(dp660
g12
I0
sg17
F0.8343016969591401
sg13
I01
sbsg18
I00
sg19
g20
sbsg14
(imyEvolve
Tree
p661
(dp662
g23
(imyEvolve
Tree
p663
(dp664
g12
I0
sg17
F-2.2824117584222847
sg13
I01
sbsg12
I1
sg18
I01
sg19
g65
sbsg18
I00
sg19
g20
sbsg14
(imyEvolve
Tree
p665
(dp666
g12
I2
sg7
(imyEvolve
Tree
p667
(dp668
g12
I1
sg7
(imyEvolve
Tree
p669
(dp670
g12
I0
sg17
F-1.4177979761526083
sg13
I01
sbsg14
(imyEvolve
Tree
p671
(dp672
g12
I0
sg13
I00
sbsg18
I00
sg19
g20
sbsg14
(imyEvolve
Tree
p673
(dp674
g23
(imyEvolve
Tree
p675
(dp676
g12
I0
sg13
I00
sbsg12
I1
sg18
I01
sg19
g26
sbsg18
I00
sg19
g27
sbsg18
I00
sg19
g27
sbsg18
I00
sg19
g98
sbsg18
I00
sg19
g20
sba(imyEvolve
Tree
p677
(dp678
g23
(imyEvolve
Tree
p679
(dp680
g12
I1
sg7
(imyEvolve
Tree
p681
(dp682
g12
I0
sg13
I00
sbsg14
(imyEvolve
Tree
p683
(dp684
g12
I0
sg13
I00
sbsg18
I00
sg19
g98
sbsg12
I2
sg18
I01
sg19
g109
sba(imyEvolve
Tree
p685
(dp686
g23
(imyEvolve
Tree
p687
(dp688
g23
(imyEvolve
Tree
p689
(dp690
g7
(imyEvolve
Tree
p691
(dp692
g7
(imyEvolve
Tree
p693
(dp694
g12
I0
sg17
F1.6054879235135502
sg13
I01
sbsg12
I1
sg14
(imyEvolve
Tree
p695
(dp696
g12
I0
sg13
I00
sbsg18
I00
sg19
g20
sbsg12
I2
sg14
(imyEvolve
Tree
p697
(dp698
g23
(imyEvolve
Tree
p699
(dp700
g12
I0
sg17
F-0.1047063834828057
sg13
I01
sbsg12
I1
sg18
I01
sg19
g26
sbsg18
I00
sg19
g98
sbsg12
I3
sg18
I01
sg19
g64
sbsg12
I4
sg18
I01
sg19
g65
sba(imyEvolve
Tree
p701
(dp702
g12
I3
sg7
(imyEvolve
Tree
p703
(dp704
g23
(imyEvolve
Tree
p705
(dp706
g12
I1
sg7
(imyEvolve
Tree
p707
(dp708
g12
I0
sg17
F-4.910745693866723
sg13
I01
sbsg14
(imyEvolve
Tree
p709
(dp710
g12
I0
sg17
F-3.5911515128678495
sg13
I01
sbsg18
I00
sg19
g98
sbsg12
I2
sg18
I01
sg19
g65
sbsg14
(imyEvolve
Tree
p711
(dp712
g23
(imyEvolve
Tree
p713
(dp714
g23
(imyEvolve
Tree
p715
(dp716
g12
I0
sg17
F-4.570879381481286
sg13
I01
sbsg12
I1
sg18
I01
sg19
g64
sbsg12
I2
sg18
I01
sg19
g109
sbsg18
I00
sg19
g27
sba(imyEvolve
Tree
p717
(dp718
g12
I4
sg7
(imyEvolve
Tree
p719
(dp720
g23
(imyEvolve
Tree
p721
(dp722
g23
(imyEvolve
Tree
p723
(dp724
g12
I1
sg7
(imyEvolve
Tree
p725
(dp726
g12
I0
sg17
F-4.3866155744904844
sg13
I01
sbsg14
(imyEvolve
Tree
p727
(dp728
g12
I0
sg13
I00
sbsg18
I00
sg19
g98
sbsg12
I2
sg18
I01
sg19
g65
sbsg12
I3
sg18
I01
sg19
g26
sbsg14
(imyEvolve
Tree
p729
(dp730
g12
I3
sg7
(imyEvolve
Tree
p731
(dp732
g12
I2
sg7
(imyEvolve
Tree
p733
(dp734
g23
(imyEvolve
Tree
p735
(dp736
g12
I0
sg13
I00
sbsg12
I1
sg18
I01
sg19
g26
sbsg14
(imyEvolve
Tree
p737
(dp738
g12
I1
sg7
(imyEvolve
Tree
p739
(dp740
g12
I0
sg17
F3.765141155012696
sg13
I01
sbsg14
(imyEvolve
Tree
p741
(dp742
g12
I0
sg17
F0.7298129931731712
sg13
I01
sbsg18
I00
sg19
g27
sbsg18
I00
sg19
g20
sbsg14
(imyEvolve
Tree
p743
(dp744
g12
I2
sg7
(imyEvolve
Tree
p745
(dp746
g23
(imyEvolve
Tree
p747
(dp748
g12
I0
sg17
F-1.1329372504439372
sg13
I01
sbsg12
I1
sg18
I01
sg19
g64
sbsg14
(imyEvolve
Tree
p749
(dp750
g23
(imyEvolve
Tree
p751
(dp752
g12
I0
sg13
I00
sbsg12
I1
sg18
I01
sg19
g26
sbsg18
I00
sg19
g98
sbsg18
I00
sg19
g20
sbsg18
I00
sg19
g98
sba(imyEvolve
Tree
p753
(dp754
g23
(imyEvolve
Tree
p755
(dp756
g23
(imyEvolve
Tree
p757
(dp758
g23
(imyEvolve
Tree
p759
(dp760
g12
I2
sg7
(imyEvolve
Tree
p761
(dp762
g23
(imyEvolve
Tree
p763
(dp764
g12
I0
sg13
I00
sbsg12
I1
sg18
I01
sg19
g64
sbsg14
(imyEvolve
Tree
p765
(dp766
g12
I1
sg7
(imyEvolve
Tree
p767
(dp768
g12
I0
sg17
F3.4403071911067755
sg13
I01
sbsg14
(imyEvolve
Tree
p769
(dp770
g12
I0
sg17
F3.6788454399119033
sg13
I01
sbsg18
I00
sg19
g20
sbsg18
I00
sg19
g98
sbsg12
I3
sg18
I01
sg19
g64
sbsg12
I4
sg18
I01
sg19
g26
sbsg12
I5
sg18
I01
sg19
g109
sba(imyEvolve
Tree
p771
(dp772
g23
(imyEvolve
Tree
p773
(dp774
g23
(imyEvolve
Tree
p775
(dp776
g12
I0
sg17
F3.3998140563506
sg13
I01
sbsg12
I1
sg18
I01
sg19
g64
sbsg12
I2
sg18
I01
sg19
g64
sba(imyEvolve
Tree
p777
(dp778
g7
(imyEvolve
Tree
p779
(dp780
g23
(imyEvolve
Tree
p781
(dp782
g23
(imyEvolve
Tree
p783
(dp784
g23
(imyEvolve
Tree
p785
(dp786
g7
(imyEvolve
Tree
p787
(dp788
g12
I0
sg17
F0.5514266366786149
sg13
I01
sbsg12
I1
sg14
(imyEvolve
Tree
p789
(dp790
g12
I0
sg13
I00
sbsg18
I00
sg19
g98
sbsg12
I2
sg18
I01
sg19
g26
sbsg12
I3
sg18
I01
sg19
g64
sbsg12
I4
sg18
I01
sg19
g64
sbsg12
I5
sg14
(imyEvolve
Tree
p791
(dp792
g7
(imyEvolve
Tree
p793
(dp794
g23
(imyEvolve
Tree
p795
(dp796
g23
(imyEvolve
Tree
p797
(dp798
g7
(imyEvolve
Tree
p799
(dp800
g12
I0
sg13
I00
sbsg12
I1
sg14
(imyEvolve
Tree
p801
(dp802
g12
I0
sg13
I00
sbsg18
I00
sg19
g27
sbsg12
I2
sg18
I01
sg19
g26
sbsg12
I3
sg18
I01
sg19
g109
sbsg12
I4
sg14
(imyEvolve
Tree
p803
(dp804
g23
(imyEvolve
Tree
p805
(dp806
g23
(imyEvolve
Tree
p807
(dp808
g7
(imyEvolve
Tree
p809
(dp810
g12
I0
sg13
I00
sbsg12
I1
sg14
(imyEvolve
Tree
p811
(dp812
g12
I0
sg13
I00
sbsg18
I00
sg19
g20
sbsg12
I2
sg18
I01
sg19
g65
sbsg12
I3
sg18
I01
sg19
g65
sbsg18
I00
sg19
g27
sbsg18
I00
sg19
g27
sba(imyEvolve
Tree
p813
(dp814
g23
(imyEvolve
Tree
p815
(dp816
g23
(imyEvolve
Tree
p817
(dp818
g23
(imyEvolve
Tree
p819
(dp820
g23
(imyEvolve
Tree
p821
(dp822
g23
(imyEvolve
Tree
p823
(dp824
g12
I0
sg17
F-2.1313570834525697
sg13
I01
sbsg12
I1
sg18
I01
sg19
g109
sbsg12
I2
sg18
I01
sg19
g64
sbsg12
I3
sg18
I01
sg19
g65
sbsg12
I4
sg18
I01
sg19
g26
sbsg12
I5
sg18
I01
sg19
g64
sba(imyEvolve
Tree
p825
(dp826
g7
(imyEvolve
Tree
p827
(dp828
g23
(imyEvolve
Tree
p829
(dp830
g7
(imyEvolve
Tree
p831
(dp832
g7
(imyEvolve
Tree
p833
(dp834
g23
(imyEvolve
Tree
p835
(dp836
g12
I0
sg13
I00
sbsg12
I1
sg18
I01
sg19
g109
sbsg12
I2
sg14
(imyEvolve
Tree
p837
(dp838
g23
(imyEvolve
Tree
p839
(dp840
g12
I0
sg13
I00
sbsg12
I1
sg18
I01
sg19
g26
sbsg18
I00
sg19
g27
sbsg12
I3
sg14
(imyEvolve
Tree
p841
(dp842
g7
(imyEvolve
Tree
p843
(dp844
g23
(imyEvolve
Tree
p845
(dp846
g12
I0
sg13
I00
sbsg12
I1
sg18
I01
sg19
g26
sbsg12
I2
sg14
(imyEvolve
Tree
p847
(dp848
g7
(imyEvolve
Tree
p849
(dp850
g12
I0
sg17
F-4.378350185480336
sg13
I01
sbsg12
I1
sg14
(imyEvolve
Tree
p851
(dp852
g12
I0
sg13
I00
sbsg18
I00
sg19
g98
sbsg18
I00
sg19
g27
sbsg18
I00
sg19
g20
sbsg12
I4
sg18
I01
sg19
g26
sbsg12
I5
sg14
(imyEvolve
Tree
p853
(dp854
g23
(imyEvolve
Tree
p855
(dp856
g23
(imyEvolve
Tree
p857
(dp858
g23
(imyEvolve
Tree
p859
(dp860
g7
(imyEvolve
Tree
p861
(dp862
g12
I0
sg17
F-4.466750014225425
sg13
I01
sbsg12
I1
sg14
(imyEvolve
Tree
p863
(dp864
g12
I0
sg17
F0.9530944139931474
sg13
I01
sbsg18
I00
sg19
g27
sbsg12
I2
sg18
I01
sg19
g65
sbsg12
I3
sg18
I01
sg19
g65
sbsg12
I4
sg18
I01
sg19
g65
sbsg18
I00
sg19
g98
sba(imyEvolve
Tree
p865
(dp866
g23
(imyEvolve
Tree
p867
(dp868
g7
(imyEvolve
Tree
p869
(dp870
g7
(imyEvolve
Tree
p871
(dp872
g23
(imyEvolve
Tree
p873
(dp874
g7
(imyEvolve
Tree
p875
(dp876
g12
I0
sg17
F2.312835412101906
sg13
I01
sbsg12
I1
sg14
(imyEvolve
Tree
p877
(dp878
g12
I0
sg17
F2.7410247395858303
sg13
I01
sbsg18
I00
sg19
g98
sbsg12
I2
sg18
I01
sg19
g65
sbsg12
I3
sg14
(imyEvolve
Tree
p879
(dp880
g7
(imyEvolve
Tree
p881
(dp882
g23
(imyEvolve
Tree
p883
(dp884
g12
I0
sg13
I00
sbsg12
I1
sg18
I01
sg19
g64
sbsg12
I2
sg14
(imyEvolve
Tree
p885
(dp886
g23
(imyEvolve
Tree
p887
(dp888
g12
I0
sg17
F2.206424930372018
sg13
I01
sbsg12
I1
sg18
I01
sg19
g65
sbsg18
I00
sg19
g98
sbsg18
I00
sg19
g20
sbsg12
I4
sg14
(imyEvolve
Tree
p889
(dp890
g7
(imyEvolve
Tree
p891
(dp892
g7
(imyEvolve
Tree
p893
(dp894
g23
(imyEvolve
Tree
p895
(dp896
g12
I0
sg17
F-3.6738833669830373
sg13
I01
sbsg12
I1
sg18
I01
sg19
g65
sbsg12
I2
sg14
(imyEvolve
Tree
p897
(dp898
g23
(imyEvolve
Tree
p899
(dp900
g12
I0
sg13
I00
sbsg12
I1
sg18
I01
sg19
g65
sbsg18
I00
sg19
g27
sbsg12
I3
sg14
(imyEvolve
Tree
p901
(dp902
g7
(imyEvolve
Tree
p903
(dp904
g7
(imyEvolve
Tree
p905
(dp906
g12
I0
sg13
I00
sbsg12
I1
sg14
(imyEvolve
Tree
p907
(dp908
g12
I0
sg13
I00
sbsg18
I00
sg19
g98
sbsg12
I2
sg14
(imyEvolve
Tree
p909
(dp910
g23
(imyEvolve
Tree
p911
(dp912
g12
I0
sg13
I00
sbsg12
I1
sg18
I01
sg19
g65
sbsg18
I00
sg19
g27
sbsg18
I00
sg19
g27
sbsg18
I00
sg19
g27
sbsg12
I5
sg18
I01
sg19
g65
sbaa(lp913
(imyEvolve
Tree
p914
(dp915
g12
I4
sg7
(imyEvolve
Tree
p916
(dp917
g12
I3
sg7
(imyEvolve
Tree
p918
(dp919
g12
I2
sg7
(imyEvolve
Tree
p920
(dp921
g23
(imyEvolve
Tree
p922
(dp923
g12
I0
sg13
I00
sbsg12
I1
sg18
I01
sg19
g26
sbsg14
(imyEvolve
Tree
p924
(dp925
g12
I1
sg7
(imyEvolve
Tree
p926
(dp927
g12
I0
sg13
I00
sbsg14
(imyEvolve
Tree
p928
(dp929
g12
I0
sg13
I00
sbsg18
I00
sg19
g27
sbsg18
I00
sg19
g98
sbsg14
(imyEvolve
Tree
p930
(dp931
g12
I2
sg7
(imyEvolve
Tree
p932
(dp933
g12
I1
sg7
(imyEvolve
Tree
p934
(dp935
g12
I0
sg13
I00
sbsg14
(imyEvolve
Tree
p936
(dp937
g12
I0
sg13
I00
sbsg18
I00
sg19
g20
sbsg14
(imyEvolve
Tree
p938
(dp939
g12
I1
sg7
(imyEvolve
Tree
p940
(dp941
g12
I0
sg13
I00
sbsg14
(imyEvolve
Tree
p942
(dp943
g12
I0
sg17
F-4.768707342251107
sg13
I01
sbsg18
I00
sg19
g98
sbsg18
I00
sg19
g20
sbsg18
I00
sg19
g27
sbsg14
(imyEvolve
Tree
p944
(dp945
g23
(imyEvolve
Tree
p946
(dp947
g23
(imyEvolve
Tree
p948
(dp949
g12
I1
sg7
(imyEvolve
Tree
p950
(dp951
g12
I0
sg17
F3.653922629916039
sg13
I01
sbsg14
(imyEvolve
Tree
p952
(dp953
g12
I0
sg13
I00
sbsg18
I00
sg19
g98
sbsg12
I2
sg18
I01
sg19
g26
sbsg12
I3
sg18
I01
sg19
g26
sbsg18
I00
sg19
g98
sba(imyEvolve
Tree
p954
(dp955
g12
I5
sg7
(imyEvolve
Tree
p956
(dp957
g12
I4
sg7
(imyEvolve
Tree
p958
(dp959
g23
(imyEvolve
Tree
p960
(dp961
g12
I2
sg7
(imyEvolve
Tree
p962
(dp963
g23
(imyEvolve
Tree
p964
(dp965
g12
I0
sg17
F-0.09161781448051354
sg13
I01
sbsg12
I1
sg18
I01
sg19
g109
sbsg14
(imyEvolve
Tree
p966
(dp967
g23
(imyEvolve
Tree
p968
(dp969
g12
I0
sg13
I00
sbsg12
I1
sg18
I01
sg19
g109
sbsg18
I00
sg19
g98
sbsg12
I3
sg18
I01
sg19
g64
sbsg14
(imyEvolve
Tree
p970
(dp971
g23
(imyEvolve
Tree
p972
(dp973
g23
(imyEvolve
Tree
p974
(dp975
g23
(imyEvolve
Tree
p976
(dp977
g12
I0
sg17
F1.2224536764412015
sg13
I01
sbsg12
I1
sg18
I01
sg19
g65
sbsg12
I2
sg18
I01
sg19
g64
sbsg12
I3
sg18
I01
sg19
g64
sbsg18
I00
sg19
g20
sbsg14
(imyEvolve
Tree
p978
(dp979
g12
I4
sg7
(imyEvolve
Tree
p980
(dp981
g12
I3
sg7
(imyEvolve
Tree
p982
(dp983
g23
(imyEvolve
Tree
p984
(dp985
g23
(imyEvolve
Tree
p986
(dp987
g12
I0
sg17
F-1.1981115190627136
sg13
I01
sbsg12
I1
sg18
I01
sg19
g109
sbsg12
I2
sg18
I01
sg19
g64
sbsg14
(imyEvolve
Tree
p988
(dp989
g12
I2
sg7
(imyEvolve
Tree
p990
(dp991
g23
(imyEvolve
Tree
p992
(dp993
g12
I0
sg13
I00
sbsg12
I1
sg18
I01
sg19
g109
sbsg14
(imyEvolve
Tree
p994
(dp995
g12
I1
sg7
(imyEvolve
Tree
p996
(dp997
g12
I0
sg13
I00
sbsg14
(imyEvolve
Tree
p998
(dp999
g12
I0
sg17
F2.829038400510866
sg13
I01
sbsg18
I00
sg19
g98
sbsg18
I00
sg19
g27
sbsg18
I00
sg19
g98
sbsg14
(imyEvolve
Tree
p1000
(dp1001
g12
I3
sg7
(imyEvolve
Tree
p1002
(dp1003
g12
I2
sg7
(imyEvolve
Tree
p1004
(dp1005
g12
I1
sg7
(imyEvolve
Tree
p1006
(dp1007
g12
I0
sg17
F3.0829684765416694
sg13
I01
sbsg14
(imyEvolve
Tree
p1008
(dp1009
g12
I0
sg13
I00
sbsg18
I00
sg19
g20
sbsg14
(imyEvolve
Tree
p1010
(dp1011
g23
(imyEvolve
Tree
p1012
(dp1013
g12
I0
sg17
F-2.9276181975085827
sg13
I01
sbsg12
I1
sg18
I01
sg19
g26
sbsg18
I00
sg19
g98
sbsg14
(imyEvolve
Tree
p1014
(dp1015
g23
(imyEvolve
Tree
p1016
(dp1017
g23
(imyEvolve
Tree
p1018
(dp1019
g12
I0
sg17
F-0.6576813085660067
sg13
I01
sbsg12
I1
sg18
I01
sg19
g65
sbsg12
I2
sg18
I01
sg19
g109
sbsg18
I00
sg19
g98
sbsg18
I00
sg19
g27
sbsg18
I00
sg19
g20
sba(imyEvolve
Tree
p1020
(dp1021
g12
I4
sg7
(imyEvolve
Tree
p1022
(dp1023
g12
I3
sg7
(imyEvolve
Tree
p1024
(dp1025
g12
I2
sg7
(imyEvolve
Tree
p1026
(dp1027
g23
(imyEvolve
Tree
p1028
(dp1029
g12
I0
sg13
I00
sbsg12
I1
sg18
I01
sg19
g109
sbsg14
(imyEvolve
Tree
p1030
(dp1031
g23
(imyEvolve
Tree
p1032
(dp1033
g12
I0
sg13
I00
sbsg12
I1
sg18
I01
sg19
g26
sbsg18
I00
sg19
g27
sbsg14
(imyEvolve
Tree
p1034
(dp1035
g12
I2
sg7
(imyEvolve
Tree
p1036
(dp1037
g23
(imyEvolve
Tree
p1038
(dp1039
g12
I0
sg17
F-2.4497001423221256
sg13
I01
sbsg12
I1
sg18
I01
sg19
g65
sbsg14
(imyEvolve
Tree
p1040
(dp1041
g23
(imyEvolve
Tree
p1042
(dp1043
g12
I0
sg13
I00
sbsg12
I1
sg18
I01
sg19
g64
sbsg18
I00
sg19
g98
sbsg18
I00
sg19
g20
sbsg14
(imyEvolve
Tree
p1044
(dp1045
g12
I3
sg7
(imyEvolve
Tree
p1046
(dp1047
g12
I2
sg7
(imyEvolve
Tree
p1048
(dp1049
g23
(imyEvolve
Tree
p1050
(dp1051
g12
I0
sg13
I00
sbsg12
I1
sg18
I01
sg19
g64
sbsg14
(imyEvolve
Tree
p1052
(dp1053
g12
I1
sg7
(imyEvolve
Tree
p1054
(dp1055
g12
I0
sg17
F4.152912674334029
sg13
I01
sbsg14
(imyEvolve
Tree
p1056
(dp1057
g12
I0
sg17
F-4.560563814301503
sg13
I01
sbsg18
I00
sg19
g27
sbsg18
I00
sg19
g27
sbsg14
(imyEvolve
Tree
p1058
(dp1059
g12
I2
sg7
(imyEvolve
Tree
p1060
(dp1061
g23
(imyEvolve
Tree
p1062
(dp1063
g12
I0
sg17
F1.242364841889719
sg13
I01
sbsg12
I1
sg18
I01
sg19
g109
sbsg14
(imyEvolve
Tree
p1064
(dp1065
g23
(imyEvolve
Tree
p1066
(dp1067
g12
I0
sg17
F4.402585801714135
sg13
I01
sbsg12
I1
sg18
I01
sg19
g109
sbsg18
I00
sg19
g27
sbsg18
I00
sg19
g27
sbsg18
I00
sg19
g20
sba(imyEvolve
Tree
p1068
(dp1069
g23
(imyEvolve
Tree
p1070
(dp1071
g23
(imyEvolve
Tree
p1072
(dp1073
g12
I1
sg7
(imyEvolve
Tree
p1074
(dp1075
g12
I0
sg17
F-0.6979679310646594
sg13
I01
sbsg14
(imyEvolve
Tree
p1076
(dp1077
g12
I0
sg17
F-0.38516670601489444
sg13
I01
sbsg18
I00
sg19
g98
sbsg12
I2
sg18
I01
sg19
g64
sbsg12
I3
sg18
I01
sg19
g109
sba(imyEvolve
Tree
p1078
(dp1079
g12
I2
sg7
(imyEvolve
Tree
p1080
(dp1081
g23
(imyEvolve
Tree
p1082
(dp1083
g12
I0
sg17
F3.5483009537676917
sg13
I01
sbsg12
I1
sg18
I01
sg19
g65
sbsg14
(imyEvolve
Tree
p1084
(dp1085
g23
(imyEvolve
Tree
p1086
(dp1087
g12
I0
sg17
F-0.00947640099234004
sg13
I01
sbsg12
I1
sg18
I01
sg19
g26
sbsg18
I00
sg19
g20
sba(imyEvolve
Tree
p1088
(dp1089
g23
(imyEvolve
Tree
p1090
(dp1091
g12
I3
sg7
(imyEvolve
Tree
p1092
(dp1093
g12
I2
sg7
(imyEvolve
Tree
p1094
(dp1095
g23
(imyEvolve
Tree
p1096
(dp1097
g12
I0
sg13
I00
sbsg12
I1
sg18
I01
sg19
g65
sbsg14
(imyEvolve
Tree
p1098
(dp1099
g23
(imyEvolve
Tree
p1100
(dp1101
g12
I0
sg13
I00
sbsg12
I1
sg18
I01
sg19
g65
sbsg18
I00
sg19
g98
sbsg14
(imyEvolve
Tree
p1102
(dp1103
g12
I2
sg7
(imyEvolve
Tree
p1104
(dp1105
g12
I1
sg7
(imyEvolve
Tree
p1106
(dp1107
g12
I0
sg13
I00
sbsg14
(imyEvolve
Tree
p1108
(dp1109
g12
I0
sg13
I00
sbsg18
I00
sg19
g27
sbsg14
(imyEvolve
Tree
p1110
(dp1111
g23
(imyEvolve
Tree
p1112
(dp1113
g12
I0
sg13
I00
sbsg12
I1
sg18
I01
sg19
g26
sbsg18
I00
sg19
g20
sbsg18
I00
sg19
g98
sbsg12
I4
sg18
I01
sg19
g65
sba(imyEvolve
Tree
p1114
(dp1115
g12
I5
sg7
(imyEvolve
Tree
p1116
(dp1117
g23
(imyEvolve
Tree
p1118
(dp1119
g23
(imyEvolve
Tree
p1120
(dp1121
g23
(imyEvolve
Tree
p1122
(dp1123
g12
I1
sg7
(imyEvolve
Tree
p1124
(dp1125
g12
I0
sg17
F4.921564660111681
sg13
I01
sbsg14
(imyEvolve
Tree
p1126
(dp1127
g12
I0
sg17
F-0.5128816397736911
sg13
I01
sbsg18
I00
sg19
g27
sbsg12
I2
sg18
I01
sg19
g109
sbsg12
I3
sg18
I01
sg19
g65
sbsg12
I4
sg18
I01
sg19
g65
sbsg14
(imyEvolve
Tree
p1128
(dp1129
g23
(imyEvolve
Tree
p1130
(dp1131
g12
I3
sg7
(imyEvolve
Tree
p1132
(dp1133
g12
I2
sg7
(imyEvolve
Tree
p1134
(dp1135
g12
I1
sg7
(imyEvolve
Tree
p1136
(dp1137
g12
I0
sg17
F2.194217940868274
sg13
I01
sbsg14
(imyEvolve
Tree
p1138
(dp1139
g12
I0
sg13
I00
sbsg18
I00
sg19
g98
sbsg14
(imyEvolve
Tree
p1140
(dp1141
g12
I1
sg7
(imyEvolve
Tree
p1142
(dp1143
g12
I0
sg13
I00
sbsg14
(imyEvolve
Tree
p1144
(dp1145
g12
I0
sg13
I00
sbsg18
I00
sg19
g98
sbsg18
I00
sg19
g20
sbsg14
(imyEvolve
Tree
p1146
(dp1147
g12
I2
sg7
(imyEvolve
Tree
p1148
(dp1149
g12
I1
sg7
(imyEvolve
Tree
p1150
(dp1151
g12
I0
sg17
F1.765344105258758
sg13
I01
sbsg14
(imyEvolve
Tree
p1152
(dp1153
g12
I0
sg13
I00
sbsg18
I00
sg19
g98
sbsg14
(imyEvolve
Tree
p1154
(dp1155
g12
I1
sg7
(imyEvolve
Tree
p1156
(dp1157
g12
I0
sg13
I00
sbsg14
(imyEvolve
Tree
p1158
(dp1159
g12
I0
sg17
F-2.546116788268662
sg13
I01
sbsg18
I00
sg19
g27
sbsg18
I00
sg19
g20
sbsg18
I00
sg19
g20
sbsg12
I4
sg18
I01
sg19
g26
sbsg18
I00
sg19
g98
sba(imyEvolve
Tree
p1160
(dp1161
g23
(imyEvolve
Tree
p1162
(dp1163
g23
(imyEvolve
Tree
p1164
(dp1165
g23
(imyEvolve
Tree
p1166
(dp1167
g12
I1
sg7
(imyEvolve
Tree
p1168
(dp1169
g12
I0
sg17
F4.1994537271836165
sg13
I01
sbsg14
(imyEvolve
Tree
p1170
(dp1171
g12
I0
sg17
F-3.215745957358107
sg13
I01
sbsg18
I00
sg19
g27
sbsg12
I2
sg18
I01
sg19
g64
sbsg12
I3
sg18
I01
sg19
g65
sbsg12
I4
sg18
I01
sg19
g65
sba(imyEvolve
Tree
p1172
(dp1173
g23
(imyEvolve
Tree
p1174
(dp1175
g12
I4
sg7
(imyEvolve
Tree
p1176
(dp1177
g23
(imyEvolve
Tree
p1178
(dp1179
g12
I2
sg7
(imyEvolve
Tree
p1180
(dp1181
g12
I1
sg7
(imyEvolve
Tree
p1182
(dp1183
g12
I0
sg13
I00
sbsg14
(imyEvolve
Tree
p1184
(dp1185
g12
I0
sg17
F-1.3537019012712417
sg13
I01
sbsg18
I00
sg19
g98
sbsg14
(imyEvolve
Tree
p1186
(dp1187
g23
(imyEvolve
Tree
p1188
(dp1189
g12
I0
sg13
I00
sbsg12
I1
sg18
I01
sg19
g64
sbsg18
I00
sg19
g27
sbsg12
I3
sg18
I01
sg19
g64
sbsg14
(imyEvolve
Tree
p1190
(dp1191
g12
I3
sg7
(imyEvolve
Tree
p1192
(dp1193
g12
I2
sg7
(imyEvolve
Tree
p1194
(dp1195
g12
I1
sg7
(imyEvolve
Tree
p1196
(dp1197
g12
I0
sg17
F-1.6365616382392831
sg13
I01
sbsg14
(imyEvolve
Tree
p1198
(dp1199
g12
I0
sg13
I00
sbsg18
I00
sg19
g27
sbsg14
(imyEvolve
Tree
p1200
(dp1201
g23
(imyEvolve
Tree
p1202
(dp1203
g12
I0
sg17
F-0.7518847597679743
sg13
I01
sbsg12
I1
sg18
I01
sg19
g109
sbsg18
I00
sg19
g98
sbsg14
(imyEvolve
Tree
p1204
(dp1205
g12
I2
sg7
(imyEvolve
Tree
p1206
(dp1207
g12
I1
sg7
(imyEvolve
Tree
p1208
(dp1209
g12
I0
sg17
F0.36132348084383015
sg13
I01
sbsg14
(imyEvolve
Tree
p1210
(dp1211
g12
I0
sg17
F4.10437932585576
sg13
I01
sbsg18
I00
sg19
g98
sbsg14
(imyEvolve
Tree
p1212
(dp1213
g23
(imyEvolve
Tree
p1214
(dp1215
g12
I0
sg13
I00
sbsg12
I1
sg18
I01
sg19
g109
sbsg18
I00
sg19
g27
sbsg18
I00
sg19
g27
sbsg18
I00
sg19
g27
sbsg12
I5
sg18
I01
sg19
g64
sba(imyEvolve
Tree
p1216
(dp1217
g12
I4
sg7
(imyEvolve
Tree
p1218
(dp1219
g12
I3
sg7
(imyEvolve
Tree
p1220
(dp1221
g12
I2
sg7
(imyEvolve
Tree
p1222
(dp1223
g12
I1
sg7
(imyEvolve
Tree
p1224
(dp1225
g12
I0
sg17
F1.6632523377555586
sg13
I01
sbsg14
(imyEvolve
Tree
p1226
(dp1227
g12
I0
sg17
F4.622803526133692
sg13
I01
sbsg18
I00
sg19
g98
sbsg14
(imyEvolve
Tree
p1228
(dp1229
g12
I1
sg7
(imyEvolve
Tree
p1230
(dp1231
g12
I0
sg17
F-0.5714628646672617
sg13
I01
sbsg14
(imyEvolve
Tree
p1232
(dp1233
g12
I0
sg17
F2.1152061390169665
sg13
I01
sbsg18
I00
sg19
g27
sbsg18
I00
sg19
g27
sbsg14
(imyEvolve
Tree
p1234
(dp1235
g23
(imyEvolve
Tree
p1236
(dp1237
g12
I1
sg7
(imyEvolve
Tree
p1238
(dp1239
g12
I0
sg13
I00
sbsg14
(imyEvolve
Tree
p1240
(dp1241
g12
I0
sg17
F-3.095102960175967
sg13
I01
sbsg18
I00
sg19
g27
sbsg12
I2
sg18
I01
sg19
g65
sbsg18
I00
sg19
g27
sbsg14
(imyEvolve
Tree
p1242
(dp1243
g12
I3
sg7
(imyEvolve
Tree
p1244
(dp1245
g23
(imyEvolve
Tree
p1246
(dp1247
g12
I1
sg7
(imyEvolve
Tree
p1248
(dp1249
g12
I0
sg13
I00
sbsg14
(imyEvolve
Tree
p1250
(dp1251
g12
I0
sg13
I00
sbsg18
I00
sg19
g20
sbsg12
I2
sg18
I01
sg19
g26
sbsg14
(imyEvolve
Tree
p1252
(dp1253
g23
(imyEvolve
Tree
p1254
(dp1255
g12
I1
sg7
(imyEvolve
Tree
p1256
(dp1257
g12
I0
sg13
I00
sbsg14
(imyEvolve
Tree
p1258
(dp1259
g12
I0
sg13
I00
sbsg18
I00
sg19
g27
sbsg12
I2
sg18
I01
sg19
g109
sbsg18
I00
sg19
g27
sbsg18
I00
sg19
g27
sba(imyEvolve
Tree
p1260
(dp1261
g12
I2
sg7
(imyEvolve
Tree
p1262
(dp1263
g23
(imyEvolve
Tree
p1264
(dp1265
g12
I0
sg17
F0.09412896646523983
sg13
I01
sbsg12
I1
sg18
I01
sg19
g65
sbsg14
(imyEvolve
Tree
p1266
(dp1267
g23
(imyEvolve
Tree
p1268
(dp1269
g12
I0
sg17
F0.4144823746110893
sg13
I01
sbsg12
I1
sg18
I01
sg19
g65
sbsg18
I00
sg19
g20
sba(imyEvolve
Tree
p1270
(dp1271
g23
(imyEvolve
Tree
p1272
(dp1273
g23
(imyEvolve
Tree
p1274
(dp1275
g12
I0
sg17
F-2.808058040960776
sg13
I01
sbsg12
I1
sg18
I01
sg19
g64
sbsg12
I2
sg18
I01
sg19
g65
sba(imyEvolve
Tree
p1276
(dp1277
g23
(imyEvolve
Tree
p1278
(dp1279
g23
(imyEvolve
Tree
p1280
(dp1281
g12
I0
sg13
I00
sbsg12
I1
sg18
I01
sg19
g65
sbsg12
I2
sg18
I01
sg19
g65
sba(imyEvolve
Tree
p1282
(dp1283
g12
I3
sg7
(imyEvolve
Tree
p1284
(dp1285
g12
I2
sg7
(imyEvolve
Tree
p1286
(dp1287
g12
I1
sg7
(imyEvolve
Tree
p1288
(dp1289
g12
I0
sg17
F1.2392760584746103
sg13
I01
sbsg14
(imyEvolve
Tree
p1290
(dp1291
g12
I0
sg17
F2.7417306032529805
sg13
I01
sbsg18
I00
sg19
g98
sbsg14
(imyEvolve
Tree
p1292
(dp1293
g23
(imyEvolve
Tree
p1294
(dp1295
g12
I0
sg17
F2.45637018048516
sg13
I01
sbsg12
I1
sg18
I01
sg19
g65
sbsg18
I00
sg19
g20
sbsg14
(imyEvolve
Tree
p1296
(dp1297
g12
I2
sg7
(imyEvolve
Tree
p1298
(dp1299
g23
(imyEvolve
Tree
p1300
(dp1301
g12
I0
sg13
I00
sbsg12
I1
sg18
I01
sg19
g64
sbsg14
(imyEvolve
Tree
p1302
(dp1303
g23
(imyEvolve
Tree
p1304
(dp1305
g12
I0
sg13
I00
sbsg12
I1
sg18
I01
sg19
g26
sbsg18
I00
sg19
g27
sbsg18
I00
sg19
g27
sba(imyEvolve
Tree
p1306
(dp1307
g23
(imyEvolve
Tree
p1308
(dp1309
g12
I2
sg7
(imyEvolve
Tree
p1310
(dp1311
g12
I1
sg7
(imyEvolve
Tree
p1312
(dp1313
g12
I0
sg17
F2.6671609428376843
sg13
I01
sbsg14
(imyEvolve
Tree
p1314
(dp1315
g12
I0
sg17
F-2.359660332007576
sg13
I01
sbsg18
I00
sg19
g98
sbsg14
(imyEvolve
Tree
p1316
(dp1317
g12
I1
sg7
(imyEvolve
Tree
p1318
(dp1319
g12
I0
sg17
F4.950212126300942
sg13
I01
sbsg14
(imyEvolve
Tree
p1320
(dp1321
g12
I0
sg17
F1.1788011935385834
sg13
I01
sbsg18
I00
sg19
g98
sbsg18
I00
sg19
g27
sbsg12
I3
sg18
I01
sg19
g65
sbaasS'alpha'
p1322
F0.0031988053818901444
sS'fitness'
p1323
cnumpy.core.multiarray
scalar
p1324
(cnumpy
dtype
p1325
(S'f8'
p1326
I0
I1
tp1327
Rp1328
(I3
S'<'
p1329
NNNI-1
I-1
I0
tp1330
bS'D\x8bl\xc8\x85\x1b\xe6?'
p1331
tp1332
Rp1333
sS'weightSharing'
p1334
(lp1335
I00
asS'fitnessValid'
p1336
I00
sS'resolution'
p1337
I74
sb.