(imyEvolve
Individual
p0
(dp1
S'funcs'
p2
(lp3
(lp4
(imyEvolve
Tree
p5
(dp6
S'below'
p7
(imyEvolve
Tree
p8
(dp9
g7
(imyEvolve
Tree
p10
(dp11
g7
(imyEvolve
Tree
p12
(dp13
S'depth'
p14
I0
sS'isConstant'
p15
I00
sbsg14
I1
sS'single'
p16
I01
sS'op'
p17
cmath
sin
p18
sbsg14
I2
sg16
I01
sg17
cmyEvolve
square
p19
sbsg14
I3
sg16
I01
sg17
g18
sba(imyEvolve
Tree
p20
(dp21
g14
I3
sS'left'
p22
(imyEvolve
Tree
p23
(dp24
g7
(imyEvolve
Tree
p25
(dp26
g14
I1
sg22
(imyEvolve
Tree
p27
(dp28
g14
I0
sg15
I00
sbsS'right'
p29
(imyEvolve
Tree
p30
(dp31
g14
I0
sg15
I00
sbsg16
I00
sg17
coperator
add
p32
sbsg14
I2
sg16
I01
sg17
g19
sbsg29
(imyEvolve
Tree
p33
(dp34
g14
I2
sg22
(imyEvolve
Tree
p35
(dp36
g7
(imyEvolve
Tree
p37
(dp38
g14
I0
sg15
I00
sbsg14
I1
sg16
I01
sg17
g18
sbsg29
(imyEvolve
Tree
p39
(dp40
g7
(imyEvolve
Tree
p41
(dp42
g14
I0
sg15
I00
sbsg14
I1
sg16
I01
sg17
cmyEvolve
absSqrt
p43
sbsg16
I00
sg17
coperator
mul
p44
sbsg16
I00
sg17
g44
sba(imyEvolve
Tree
p45
(dp46
g14
I4
sg22
(imyEvolve
Tree
p47
(dp48
g14
I3
sg22
(imyEvolve
Tree
p49
(dp50
g7
(imyEvolve
Tree
p51
(dp52
g7
(imyEvolve
Tree
p53
(dp54
g14
I0
sg15
I00
sbsg14
I1
sg16
I01
sg17
g19
sbsg14
I2
sg16
I01
sg17
g19
sbsg29
(imyEvolve
Tree
p55
(dp56
g14
I2
sg22
(imyEvolve
Tree
p57
(dp58
g7
(imyEvolve
Tree
p59
(dp60
g14
I0
sg15
I00
sbsg14
I1
sg16
I01
sg17
g43
sbsg29
(imyEvolve
Tree
p61
(dp62
g7
(imyEvolve
Tree
p63
(dp64
g14
I0
sg15
I00
sbsg14
I1
sg16
I01
sg17
g19
sbsg16
I00
sg17
g32
sbsg16
I00
sg17
coperator
sub
p65
sbsg29
(imyEvolve
Tree
p66
(dp67
g14
I3
sg22
(imyEvolve
Tree
p68
(dp69
g7
(imyEvolve
Tree
p70
(dp71
g14
I1
sg22
(imyEvolve
Tree
p72
(dp73
g14
I0
sg15
I00
sbsg29
(imyEvolve
Tree
p74
(dp75
g14
I0
sg15
I00
sbsg16
I00
sg17
g44
sbsg14
I2
sg16
I01
sg17
g18
sbsg29
(imyEvolve
Tree
p76
(dp77
g14
I2
sg22
(imyEvolve
Tree
p78
(dp79
g14
I1
sg22
(imyEvolve
Tree
p80
(dp81
g14
I0
sS'constant'
p82
F4.836650000908053
sg15
I01
sbsg29
(imyEvolve
Tree
p83
(dp84
g14
I0
sg15
I00
sbsg16
I00
sg17
g32
sbsg29
(imyEvolve
Tree
p85
(dp86
g7
(imyEvolve
Tree
p87
(dp88
g14
I0
sg82
F-4.227641662066696
sg15
I01
sbsg14
I1
sg16
I01
sg17
g19
sbsg16
I00
sg17
g44
sbsg16
I00
sg17
g44
sbsg16
I00
sg17
g44
sba(imyEvolve
Tree
p89
(dp90
g14
I5
sg22
(imyEvolve
Tree
p91
(dp92
g14
I4
sg22
(imyEvolve
Tree
p93
(dp94
g7
(imyEvolve
Tree
p95
(dp96
g14
I2
sg22
(imyEvolve
Tree
p97
(dp98
g7
(imyEvolve
Tree
p99
(dp100
g14
I0
sg82
F-0.801186704018062
sg15
I01
sbsg14
I1
sg16
I01
sg17
g19
sbsg29
(imyEvolve
Tree
p101
(dp102
g14
I1
sg22
(imyEvolve
Tree
p103
(dp104
g14
I0
sg82
F4.514074322094205
sg15
I01
sbsg29
(imyEvolve
Tree
p105
(dp106
g14
I0
sg82
F-3.0964876811063338
sg15
I01
sbsg16
I00
sg17
g65
sbsg16
I00
sg17
g65
sbsg14
I3
sg16
I01
sg17
g19
sbsg29
(imyEvolve
Tree
p107
(dp108
g7
(imyEvolve
Tree
p109
(dp110
g7
(imyEvolve
Tree
p111
(dp112
g14
I1
sg22
(imyEvolve
Tree
p113
(dp114
g14
I0
sg15
I00
sbsg29
(imyEvolve
Tree
p115
(dp116
g14
I0
sg82
F2.210055783591579
sg15
I01
sbsg16
I00
sg17
g65
sbsg14
I2
sg16
I01
sg17
g18
sbsg14
I3
sg16
I01
sg17
g19
sbsg16
I00
sg17
g44
sbsg29
(imyEvolve
Tree
p117
(dp118
g14
I4
sg22
(imyEvolve
Tree
p119
(dp120
g7
(imyEvolve
Tree
p121
(dp122
g14
I2
sg22
(imyEvolve
Tree
p123
(dp124
g14
I1
sg22
(imyEvolve
Tree
p125
(dp126
g14
I0
sg82
F4.909772585886493
sg15
I01
sbsg29
(imyEvolve
Tree
p127
(dp128
g14
I0
sg82
F0.08507859098495629
sg15
I01
sbsg16
I00
sg17
g32
sbsg29
(imyEvolve
Tree
p129
(dp130
g7
(imyEvolve
Tree
p131
(dp132
g14
I0
sg15
I00
sbsg14
I1
sg16
I01
sg17
cmath
cos
p133
sbsg16
I00
sg17
g44
sbsg14
I3
sg16
I01
sg17
g133
sbsg29
(imyEvolve
Tree
p134
(dp135
g7
(imyEvolve
Tree
p136
(dp137
g7
(imyEvolve
Tree
p138
(dp139
g14
I1
sg22
(imyEvolve
Tree
p140
(dp141
g14
I0
sg82
F2.156269256172026
sg15
I01
sbsg29
(imyEvolve
Tree
p142
(dp143
g14
I0
sg15
I00
sbsg16
I00
sg17
g44
sbsg14
I2
sg16
I01
sg17
g18
sbsg14
I3
sg16
I01
sg17
g43
sbsg16
I00
sg17
g44
sbsg16
I00
sg17
g32
sba(imyEvolve
Tree
p144
(dp145
g7
(imyEvolve
Tree
p146
(dp147
g14
I4
sg22
(imyEvolve
Tree
p148
(dp149
g14
I3
sg22
(imyEvolve
Tree
p150
(dp151
g14
I2
sg22
(imyEvolve
Tree
p152
(dp153
g7
(imyEvolve
Tree
p154
(dp155
g14
I0
sg15
I00
sbsg14
I1
sg16
I01
sg17
g133
sbsg29
(imyEvolve
Tree
p156
(dp157
g14
I1
sg22
(imyEvolve
Tree
p158
(dp159
g14
I0
sg15
I00
sbsg29
(imyEvolve
Tree
p160
(dp161
g14
I0
sg82
F1.9777228677365075
sg15
I01
sbsg16
I00
sg17
g44
sbsg16
I00
sg17
g44
sbsg29
(imyEvolve
Tree
p162
(dp163
g7
(imyEvolve
Tree
p164
(dp165
g14
I1
sg22
(imyEvolve
Tree
p166
(dp167
g14
I0
sg82
F-2.352881112688925
sg15
I01
sbsg29
(imyEvolve
Tree
p168
(dp169
g14
I0
sg15
I00
sbsg16
I00
sg17
g44
sbsg14
I2
sg16
I01
sg17
g19
sbsg16
I00
sg17
g32
sbsg29
(imyEvolve
Tree
p170
(dp171
g7
(imyEvolve
Tree
p172
(dp173
g7
(imyEvolve
Tree
p174
(dp175
g14
I1
sg22
(imyEvolve
Tree
p176
(dp177
g14
I0
sg82
F-1.0516561636447719
sg15
I01
sbsg29
(imyEvolve
Tree
p178
(dp179
g14
I0
sg82
F-4.2428009569683045
sg15
I01
sbsg16
I00
sg17
g44
sbsg14
I2
sg16
I01
sg17
g19
sbsg14
I3
sg16
I01
sg17
g19
sbsg16
I00
sg17
g32
sbsg14
I5
sg16
I01
sg17
g133
sba(imyEvolve
Tree
p180
(dp181
g7
(imyEvolve
Tree
p182
(dp183
g14
I2
sg22
(imyEvolve
Tree
p184
(dp185
g7
(imyEvolve
Tree
p186
(dp187
g14
I0
sg15
I00
sbsg14
I1
sg16
I01
sg17
g133
sbsg29
(imyEvolve
Tree
p188
(dp189
g7
(imyEvolve
Tree
p190
(dp191
g14
I0
sg15
I00
sbsg14
I1
sg16
I01
sg17
g133
sbsg16
I00
sg17
g32
sbsg14
I3
sg16
I01
sg17
g43
sba(imyEvolve
Tree
p192
(dp193
g14
I3
sg22
(imyEvolve
Tree
p194
(dp195
g7
(imyEvolve
Tree
p196
(dp197
g14
I1
sg22
(imyEvolve
Tree
p198
(dp199
g14
I0
sg15
I00
sbsg29
(imyEvolve
Tree
p200
(dp201
g14
I0
sg15
I00
sbsg16
I00
sg17
g32
sbsg14
I2
sg16
I01
sg17
g19
sbsg29
(imyEvolve
Tree
p202
(dp203
g14
I2
sg22
(imyEvolve
Tree
p204
(dp205
g7
(imyEvolve
Tree
p206
(dp207
g14
I0
sg82
F3.6912467194514402
sg15
I01
sbsg14
I1
sg16
I01
sg17
g133
sbsg29
(imyEvolve
Tree
p208
(dp209
g7
(imyEvolve
Tree
p210
(dp211
g14
I0
sg15
I00
sbsg14
I1
sg16
I01
sg17
g43
sbsg16
I00
sg17
g44
sbsg16
I00
sg17
g32
sba(imyEvolve
Tree
p212
(dp213
g14
I5
sg22
(imyEvolve
Tree
p214
(dp215
g7
(imyEvolve
Tree
p216
(dp217
g7
(imyEvolve
Tree
p218
(dp219
g7
(imyEvolve
Tree
p220
(dp221
g7
(imyEvolve
Tree
p222
(dp223
g14
I0
sg15
I00
sbsg14
I1
sg16
I01
sg17
g18
sbsg14
I2
sg16
I01
sg17
g43
sbsg14
I3
sg16
I01
sg17
g19
sbsg14
I4
sg16
I01
sg17
g43
sbsg29
(imyEvolve
Tree
p224
(dp225
g7
(imyEvolve
Tree
p226
(dp227
g7
(imyEvolve
Tree
p228
(dp229
g14
I2
sg22
(imyEvolve
Tree
p230
(dp231
g7
(imyEvolve
Tree
p232
(dp233
g14
I0
sg15
I00
sbsg14
I1
sg16
I01
sg17
g43
sbsg29
(imyEvolve
Tree
p234
(dp235
g7
(imyEvolve
Tree
p236
(dp237
g14
I0
sg82
F-1.064342451919158
sg15
I01
sbsg14
I1
sg16
I01
sg17
g19
sbsg16
I00
sg17
g44
sbsg14
I3
sg16
I01
sg17
g43
sbsg14
I4
sg16
I01
sg17
g18
sbsg16
I00
sg17
g65
sba(imyEvolve
Tree
p238
(dp239
g7
(imyEvolve
Tree
p240
(dp241
g7
(imyEvolve
Tree
p242
(dp243
g14
I0
sg82
F3.143936989013053
sg15
I01
sbsg14
I1
sg16
I01
sg17
g43
sbsg14
I2
sg16
I01
sg17
g19
sba(imyEvolve
Tree
p244
(dp245
g14
I4
sg22
(imyEvolve
Tree
p246
(dp247
g7
(imyEvolve
Tree
p248
(dp249
g7
(imyEvolve
Tree
p250
(dp251
g7
(imyEvolve
Tree
p252
(dp253
g14
I0
sg82
F-3.5224027978072083
sg15
I01
sbsg14
I1
sg16
I01
sg17
g19
sbsg14
I2
sg16
I01
sg17
g133
sbsg14
I3
sg16
I01
sg17
g18
sbsg29
(imyEvolve
Tree
p254
(dp255
g14
I3
sg22
(imyEvolve
Tree
p256
(dp257
g7
(imyEvolve
Tree
p258
(dp259
g7
(imyEvolve
Tree
p260
(dp261
g14
I0
sg15
I00
sbsg14
I1
sg16
I01
sg17
g18
sbsg14
I2
sg16
I01
sg17
g19
sbsg29
(imyEvolve
Tree
p262
(dp263
g14
I2
sg22
(imyEvolve
Tree
p264
(dp265
g7
(imyEvolve
Tree
p266
(dp267
g14
I0
sg82
F2.4677404833974093
sg15
I01
sbsg14
I1
sg16
I01
sg17
g43
sbsg29
(imyEvolve
Tree
p268
(dp269
g7
(imyEvolve
Tree
p270
(dp271
g14
I0
sg82
F-4.183750744748234
sg15
I01
sbsg14
I1
sg16
I01
sg17
g133
sbsg16
I00
sg17
g65
sbsg16
I00
sg17
g44
sbsg16
I00
sg17
g65
sba(imyEvolve
Tree
p272
(dp273
g7
(imyEvolve
Tree
p274
(dp275
g14
I1
sg22
(imyEvolve
Tree
p276
(dp277
g14
I0
sg82
F4.206539643178722
sg15
I01
sbsg29
(imyEvolve
Tree
p278
(dp279
g14
I0
sg82
F-3.339284757972456
sg15
I01
sbsg16
I00
sg17
g32
sbsg14
I2
sg16
I01
sg17
g133
sba(imyEvolve
Tree
p280
(dp281
g7
(imyEvolve
Tree
p282
(dp283
g14
I2
sg22
(imyEvolve
Tree
p284
(dp285
g14
I1
sg22
(imyEvolve
Tree
p286
(dp287
g14
I0
sg82
F-0.5098901650567953
sg15
I01
sbsg29
(imyEvolve
Tree
p288
(dp289
g14
I0
sg82
F-4.182919599723229
sg15
I01
sbsg16
I00
sg17
g65
sbsg29
(imyEvolve
Tree
p290
(dp291
g7
(imyEvolve
Tree
p292
(dp293
g14
I0
sg82
F4.815875545271144
sg15
I01
sbsg14
I1
sg16
I01
sg17
g19
sbsg16
I00
sg17
g65
sbsg14
I3
sg16
I01
sg17
g18
sba(imyEvolve
Tree
p294
(dp295
g7
(imyEvolve
Tree
p296
(dp297
g7
(imyEvolve
Tree
p298
(dp299
g7
(imyEvolve
Tree
p300
(dp301
g14
I0
sg82
F-0.7181841680475181
sg15
I01
sbsg14
I1
sg16
I01
sg17
g19
sbsg14
I2
sg16
I01
sg17
g133
sbsg14
I3
sg16
I01
sg17
g133
sbaa(lp302
(imyEvolve
Tree
p303
(dp304
g7
(imyEvolve
Tree
p305
(dp306
g7
(imyEvolve
Tree
p307
(dp308
g14
I3
sg22
(imyEvolve
Tree
p309
(dp310
g14
I2
sg22
(imyEvolve
Tree
p311
(dp312
g7
(imyEvolve
Tree
p313
(dp314
g14
I0
sg82
F-2.0508656594835095
sg15
I01
sbsg14
I1
sg16
I01
sg17
g133
sbsg29
(imyEvolve
Tree
p315
(dp316
g7
(imyEvolve
Tree
p317
(dp318
g14
I0
sg15
I00
sbsg14
I1
sg16
I01
sg17
g19
sbsg16
I00
sg17
g32
sbsg29
(imyEvolve
Tree
p319
(dp320
g7
(imyEvolve
Tree
p321
(dp322
g14
I1
sg22
(imyEvolve
Tree
p323
(dp324
g14
I0
sg15
I00
sbsg29
(imyEvolve
Tree
p325
(dp326
g14
I0
sg15
I00
sbsg16
I00
sg17
g65
sbsg14
I2
sg16
I01
sg17
g43
sbsg16
I00
sg17
g44
sbsg14
I4
sg16
I01
sg17
g133
sbsg14
I5
sg16
I01
sg17
g18
sba(imyEvolve
Tree
p327
(dp328
g7
(imyEvolve
Tree
p329
(dp330
g7
(imyEvolve
Tree
p331
(dp332
g14
I0
sg15
I00
sbsg14
I1
sg16
I01
sg17
g43
sbsg14
I2
sg16
I01
sg17
g43
sba(imyEvolve
Tree
p333
(dp334
g14
I5
sg22
(imyEvolve
Tree
p335
(dp336
g7
(imyEvolve
Tree
p337
(dp338
g14
I3
sg22
(imyEvolve
Tree
p339
(dp340
g14
I2
sg22
(imyEvolve
Tree
p341
(dp342
g14
I1
sg22
(imyEvolve
Tree
p343
(dp344
g14
I0
sg82
F-0.6396465485179128
sg15
I01
sbsg29
(imyEvolve
Tree
p345
(dp346
g14
I0
sg15
I00
sbsg16
I00
sg17
g65
sbsg29
(imyEvolve
Tree
p347
(dp348
g7
(imyEvolve
Tree
p349
(dp350
g14
I0
sg15
I00
sbsg14
I1
sg16
I01
sg17
g18
sbsg16
I00
sg17
g65
sbsg29
(imyEvolve
Tree
p351
(dp352
g7
(imyEvolve
Tree
p353
(dp354
g7
(imyEvolve
Tree
p355
(dp356
g14
I0
sg15
I00
sbsg14
I1
sg16
I01
sg17
g133
sbsg14
I2
sg16
I01
sg17
g43
sbsg16
I00
sg17
g32
sbsg14
I4
sg16
I01
sg17
g18
sbsg29
(imyEvolve
Tree
p357
(dp358
g14
I4
sg22
(imyEvolve
Tree
p359
(dp360
g7
(imyEvolve
Tree
p361
(dp362
g14
I2
sg22
(imyEvolve
Tree
p363
(dp364
g14
I1
sg22
(imyEvolve
Tree
p365
(dp366
g14
I0
sg82
F-0.3624191267348973
sg15
I01
sbsg29
(imyEvolve
Tree
p367
(dp368
g14
I0
sg82
F3.760110378151184
sg15
I01
sbsg16
I00
sg17
g32
sbsg29
(imyEvolve
Tree
p369
(dp370
g7
(imyEvolve
Tree
p371
(dp372
g14
I0
sg82
F-4.137900253337035
sg15
I01
sbsg14
I1
sg16
I01
sg17
g18
sbsg16
I00
sg17
g32
sbsg14
I3
sg16
I01
sg17
g19
sbsg29
(imyEvolve
Tree
p373
(dp374
g7
(imyEvolve
Tree
p375
(dp376
g7
(imyEvolve
Tree
p377
(dp378
g14
I1
sg22
(imyEvolve
Tree
p379
(dp380
g14
I0
sg82
F-2.858004966682123
sg15
I01
sbsg29
(imyEvolve
Tree
p381
(dp382
g14
I0
sg15
I00
sbsg16
I00
sg17
g32
sbsg14
I2
sg16
I01
sg17
g133
sbsg14
I3
sg16
I01
sg17
g18
sbsg16
I00
sg17
g65
sbsg16
I00
sg17
g65
sba(imyEvolve
Tree
p383
(dp384
g7
(imyEvolve
Tree
p385
(dp386
g14
I4
sg22
(imyEvolve
Tree
p387
(dp388
g14
I3
sg22
(imyEvolve
Tree
p389
(dp390
g7
(imyEvolve
Tree
p391
(dp392
g14
I1
sg22
(imyEvolve
Tree
p393
(dp394
g14
I0
sg82
F3.2060115206390662
sg15
I01
sbsg29
(imyEvolve
Tree
p395
(dp396
g14
I0
sg15
I00
sbsg16
I00
sg17
g44
sbsg14
I2
sg16
I01
sg17
g18
sbsg29
(imyEvolve
Tree
p397
(dp398
g7
(imyEvolve
Tree
p399
(dp400
g7
(imyEvolve
Tree
p401
(dp402
g14
I0
sg82
F4.112136261953896
sg15
I01
sbsg14
I1
sg16
I01
sg17
g43
sbsg14
I2
sg16
I01
sg17
g43
sbsg16
I00
sg17
g44
sbsg29
(imyEvolve
Tree
p403
(dp404
g7
(imyEvolve
Tree
p405
(dp406
g14
I2
sg22
(imyEvolve
Tree
p407
(dp408
g14
I1
sg22
(imyEvolve
Tree
p409
(dp410
g14
I0
sg82
F-1.63867515434832
sg15
I01
sbsg29
(imyEvolve
Tree
p411
(dp412
g14
I0
sg15
I00
sbsg16
I00
sg17
g32
sbsg29
(imyEvolve
Tree
p413
(dp414
g7
(imyEvolve
Tree
p415
(dp416
g14
I0
sg82
F3.1619124624076953
sg15
I01
sbsg14
I1
sg16
I01
sg17
g43
sbsg16
I00
sg17
g32
sbsg14
I3
sg16
I01
sg17
g18
sbsg16
I00
sg17
g32
sbsg14
I5
sg16
I01
sg17
g19
sba(imyEvolve
Tree
p417
(dp418
g14
I4
sg22
(imyEvolve
Tree
p419
(dp420
g7
(imyEvolve
Tree
p421
(dp422
g7
(imyEvolve
Tree
p423
(dp424
g7
(imyEvolve
Tree
p425
(dp426
g14
I0
sg15
I00
sbsg14
I1
sg16
I01
sg17
g43
sbsg14
I2
sg16
I01
sg17
g19
sbsg14
I3
sg16
I01
sg17
g18
sbsg29
(imyEvolve
Tree
p427
(dp428
g14
I3
sg22
(imyEvolve
Tree
p429
(dp430
g7
(imyEvolve
Tree
p431
(dp432
g14
I1
sg22
(imyEvolve
Tree
p433
(dp434
g14
I0
sg15
I00
sbsg29
(imyEvolve
Tree
p435
(dp436
g14
I0
sg82
F0.08724219572645797
sg15
I01
sbsg16
I00
sg17
g32
sbsg14
I2
sg16
I01
sg17
g19
sbsg29
(imyEvolve
Tree
p437
(dp438
g7
(imyEvolve
Tree
p439
(dp440
g7
(imyEvolve
Tree
p441
(dp442
g14
I0
sg15
I00
sbsg14
I1
sg16
I01
sg17
g18
sbsg14
I2
sg16
I01
sg17
g19
sbsg16
I00
sg17
g32
sbsg16
I00
sg17
g32
sba(imyEvolve
Tree
p443
(dp444
g14
I5
sg22
(imyEvolve
Tree
p445
(dp446
g7
(imyEvolve
Tree
p447
(dp448
g14
I3
sg22
(imyEvolve
Tree
p449
(dp450
g7
(imyEvolve
Tree
p451
(dp452
g14
I1
sg22
(imyEvolve
Tree
p453
(dp454
g14
I0
sg82
F-3.3742350414950373
sg15
I01
sbsg29
(imyEvolve
Tree
p455
(dp456
g14
I0
sg82
F0.5971938498519913
sg15
I01
sbsg16
I00
sg17
g32
sbsg14
I2
sg16
I01
sg17
g43
sbsg29
(imyEvolve
Tree
p457
(dp458
g14
I2
sg22
(imyEvolve
Tree
p459
(dp460
g14
I1
sg22
(imyEvolve
Tree
p461
(dp462
g14
I0
sg15
I00
sbsg29
(imyEvolve
Tree
p463
(dp464
g14
I0
sg82
F4.023775417015036
sg15
I01
sbsg16
I00
sg17
g32
sbsg29
(imyEvolve
Tree
p465
(dp466
g7
(imyEvolve
Tree
p467
(dp468
g14
I0
sg15
I00
sbsg14
I1
sg16
I01
sg17
g18
sbsg16
I00
sg17
g32
sbsg16
I00
sg17
g65
sbsg14
I4
sg16
I01
sg17
g19
sbsg29
(imyEvolve
Tree
p469
(dp470
g14
I4
sg22
(imyEvolve
Tree
p471
(dp472
g14
I3
sg22
(imyEvolve
Tree
p473
(dp474
g7
(imyEvolve
Tree
p475
(dp476
g7
(imyEvolve
Tree
p477
(dp478
g14
I0
sg15
I00
sbsg14
I1
sg16
I01
sg17
g18
sbsg14
I2
sg16
I01
sg17
g43
sbsg29
(imyEvolve
Tree
p479
(dp480
g14
I2
sg22
(imyEvolve
Tree
p481
(dp482
g14
I1
sg22
(imyEvolve
Tree
p483
(dp484
g14
I0
sg82
F-0.5941769245782158
sg15
I01
sbsg29
(imyEvolve
Tree
p485
(dp486
g14
I0
sg15
I00
sbsg16
I00
sg17
g65
sbsg29
(imyEvolve
Tree
p487
(dp488
g7
(imyEvolve
Tree
p489
(dp490
g14
I0
sg15
I00
sbsg14
I1
sg16
I01
sg17
g133
sbsg16
I00
sg17
g44
sbsg16
I00
sg17
g44
sbsg29
(imyEvolve
Tree
p491
(dp492
g7
(imyEvolve
Tree
p493
(dp494
g7
(imyEvolve
Tree
p495
(dp496
g7
(imyEvolve
Tree
p497
(dp498
g14
I0
sg82
F1.1101113666408722
sg15
I01
sbsg14
I1
sg16
I01
sg17
g43
sbsg14
I2
sg16
I01
sg17
g133
sbsg14
I3
sg16
I01
sg17
g133
sbsg16
I00
sg17
g65
sbsg16
I00
sg17
g65
sba(imyEvolve
Tree
p499
(dp500
g7
(imyEvolve
Tree
p501
(dp502
g7
(imyEvolve
Tree
p503
(dp504
g14
I0
sg82
F0.5473889617880197
sg15
I01
sbsg14
I1
sg16
I01
sg17
g18
sbsg14
I2
sg16
I01
sg17
g19
sba(imyEvolve
Tree
p505
(dp506
g7
(imyEvolve
Tree
p507
(dp508
g14
I2
sg22
(imyEvolve
Tree
p509
(dp510
g7
(imyEvolve
Tree
p511
(dp512
g14
I0
sg15
I00
sbsg14
I1
sg16
I01
sg17
g43
sbsg29
(imyEvolve
Tree
p513
(dp514
g14
I1
sg22
(imyEvolve
Tree
p515
(dp516
g14
I0
sg15
I00
sbsg29
(imyEvolve
Tree
p517
(dp518
g14
I0
sg15
I00
sbsg16
I00
sg17
g65
sbsg16
I00
sg17
g44
sbsg14
I3
sg16
I01
sg17
g43
sba(imyEvolve
Tree
p519
(dp520
g14
I5
sg22
(imyEvolve
Tree
p521
(dp522
g14
I4
sg22
(imyEvolve
Tree
p523
(dp524
g14
I3
sg22
(imyEvolve
Tree
p525
(dp526
g7
(imyEvolve
Tree
p527
(dp528
g7
(imyEvolve
Tree
p529
(dp530
g14
I0
sg82
F-2.695524490642447
sg15
I01
sbsg14
I1
sg16
I01
sg17
g43
sbsg14
I2
sg16
I01
sg17
g18
sbsg29
(imyEvolve
Tree
p531
(dp532
g7
(imyEvolve
Tree
p533
(dp534
g7
(imyEvolve
Tree
p535
(dp536
g14
I0
sg82
F2.176710262601458
sg15
I01
sbsg14
I1
sg16
I01
sg17
g18
sbsg14
I2
sg16
I01
sg17
g133
sbsg16
I00
sg17
g65
sbsg29
(imyEvolve
Tree
p537
(dp538
g7
(imyEvolve
Tree
p539
(dp540
g7
(imyEvolve
Tree
p541
(dp542
g7
(imyEvolve
Tree
p543
(dp544
g14
I0
sg15
I00
sbsg14
I1
sg16
I01
sg17
g19
sbsg14
I2
sg16
I01
sg17
g133
sbsg14
I3
sg16
I01
sg17
g18
sbsg16
I00
sg17
g32
sbsg29
(imyEvolve
Tree
p545
(dp546
g7
(imyEvolve
Tree
p547
(dp548
g7
(imyEvolve
Tree
p549
(dp550
g7
(imyEvolve
Tree
p551
(dp552
g7
(imyEvolve
Tree
p553
(dp554
g14
I0
sg82
F0.7037284898154459
sg15
I01
sbsg14
I1
sg16
I01
sg17
g18
sbsg14
I2
sg16
I01
sg17
g19
sbsg14
I3
sg16
I01
sg17
g43
sbsg14
I4
sg16
I01
sg17
g18
sbsg16
I00
sg17
g65
sba(imyEvolve
Tree
p555
(dp556
g7
(imyEvolve
Tree
p557
(dp558
g14
I1
sg22
(imyEvolve
Tree
p559
(dp560
g14
I0
sg15
I00
sbsg29
(imyEvolve
Tree
p561
(dp562
g14
I0
sg82
F-2.176475080427891
sg15
I01
sbsg16
I00
sg17
g44
sbsg14
I2
sg16
I01
sg17
g18
sba(imyEvolve
Tree
p563
(dp564
g14
I5
sg22
(imyEvolve
Tree
p565
(dp566
g7
(imyEvolve
Tree
p567
(dp568
g7
(imyEvolve
Tree
p569
(dp570
g7
(imyEvolve
Tree
p571
(dp572
g14
I1
sg22
(imyEvolve
Tree
p573
(dp574
g14
I0
sg15
I00
sbsg29
(imyEvolve
Tree
p575
(dp576
g14
I0
sg15
I00
sbsg16
I00
sg17
g32
sbsg14
I2
sg16
I01
sg17
g18
sbsg14
I3
sg16
I01
sg17
g18
sbsg14
I4
sg16
I01
sg17
g19
sbsg29
(imyEvolve
Tree
p577
(dp578
g7
(imyEvolve
Tree
p579
(dp580
g14
I3
sg22
(imyEvolve
Tree
p581
(dp582
g14
I2
sg22
(imyEvolve
Tree
p583
(dp584
g14
I1
sg22
(imyEvolve
Tree
p585
(dp586
g14
I0
sg82
F3.811374396274461
sg15
I01
sbsg29
(imyEvolve
Tree
p587
(dp588
g14
I0
sg15
I00
sbsg16
I00
sg17
g65
sbsg29
(imyEvolve
Tree
p589
(dp590
g7
(imyEvolve
Tree
p591
(dp592
g14
I0
sg82
F-1.2476616255189787
sg15
I01
sbsg14
I1
sg16
I01
sg17
g133
sbsg16
I00
sg17
g65
sbsg29
(imyEvolve
Tree
p593
(dp594
g7
(imyEvolve
Tree
p595
(dp596
g7
(imyEvolve
Tree
p597
(dp598
g14
I0
sg82
F2.859505101711985
sg15
I01
sbsg14
I1
sg16
I01
sg17
g18
sbsg14
I2
sg16
I01
sg17
g18
sbsg16
I00
sg17
g32
sbsg14
I4
sg16
I01
sg17
g18
sbsg16
I00
sg17
g65
sba(imyEvolve
Tree
p599
(dp600
g14
I2
sg22
(imyEvolve
Tree
p601
(dp602
g14
I1
sg22
(imyEvolve
Tree
p603
(dp604
g14
I0
sg15
I00
sbsg29
(imyEvolve
Tree
p605
(dp606
g14
I0
sg15
I00
sbsg16
I00
sg17
g65
sbsg29
(imyEvolve
Tree
p607
(dp608
g7
(imyEvolve
Tree
p609
(dp610
g14
I0
sg82
F2.254578936685534
sg15
I01
sbsg14
I1
sg16
I01
sg17
g133
sbsg16
I00
sg17
g44
sbaa(lp611
(imyEvolve
Tree
p612
(dp613
g7
(imyEvolve
Tree
p614
(dp615
g14
I4
sg22
(imyEvolve
Tree
p616
(dp617
g14
I3
sg22
(imyEvolve
Tree
p618
(dp619
g7
(imyEvolve
Tree
p620
(dp621
g7
(imyEvolve
Tree
p622
(dp623
g14
I0
sg15
I00
sbsg14
I1
sg16
I01
sg17
g133
sbsg14
I2
sg16
I01
sg17
g18
sbsg29
(imyEvolve
Tree
p624
(dp625
g7
(imyEvolve
Tree
p626
(dp627
g14
I1
sg22
(imyEvolve
Tree
p628
(dp629
g14
I0
sg82
F-4.870645563051319
sg15
I01
sbsg29
(imyEvolve
Tree
p630
(dp631
g14
I0
sg82
F4.748230371113362
sg15
I01
sbsg16
I00
sg17
g32
sbsg14
I2
sg16
I01
sg17
g43
sbsg16
I00
sg17
g32
sbsg29
(imyEvolve
Tree
p632
(dp633
g7
(imyEvolve
Tree
p634
(dp635
g7
(imyEvolve
Tree
p636
(dp637
g7
(imyEvolve
Tree
p638
(dp639
g14
I0
sg82
F2.218572529737097
sg15
I01
sbsg14
I1
sg16
I01
sg17
g133
sbsg14
I2
sg16
I01
sg17
g133
sbsg14
I3
sg16
I01
sg17
g43
sbsg16
I00
sg17
g44
sbsg14
I5
sg16
I01
sg17
g18
sba(imyEvolve
Tree
p640
(dp641
g14
I4
sg22
(imyEvolve
Tree
p642
(dp643
g7
(imyEvolve
Tree
p644
(dp645
g14
I2
sg22
(imyEvolve
Tree
p646
(dp647
g14
I1
sg22
(imyEvolve
Tree
p648
(dp649
g14
I0
sg15
I00
sbsg29
(imyEvolve
Tree
p650
(dp651
g14
I0
sg82
F-1.329347320473393
sg15
I01
sbsg16
I00
sg17
g44
sbsg29
(imyEvolve
Tree
p652
(dp653
g7
(imyEvolve
Tree
p654
(dp655
g14
I0
sg15
I00
sbsg14
I1
sg16
I01
sg17
g19
sbsg16
I00
sg17
g65
sbsg14
I3
sg16
I01
sg17
g19
sbsg29
(imyEvolve
Tree
p656
(dp657
g14
I3
sg22
(imyEvolve
Tree
p658
(dp659
g7
(imyEvolve
Tree
p660
(dp661
g7
(imyEvolve
Tree
p662
(dp663
g14
I0
sg15
I00
sbsg14
I1
sg16
I01
sg17
g43
sbsg14
I2
sg16
I01
sg17
g43
sbsg29
(imyEvolve
Tree
p664
(dp665
g7
(imyEvolve
Tree
p666
(dp667
g14
I1
sg22
(imyEvolve
Tree
p668
(dp669
g14
I0
sg15
I00
sbsg29
(imyEvolve
Tree
p670
(dp671
g14
I0
sg82
F-0.548630573367137
sg15
I01
sbsg16
I00
sg17
g65
sbsg14
I2
sg16
I01
sg17
g19
sbsg16
I00
sg17
g44
sbsg16
I00
sg17
g32
sba(imyEvolve
Tree
p672
(dp673
g7
(imyEvolve
Tree
p674
(dp675
g14
I1
sg22
(imyEvolve
Tree
p676
(dp677
g14
I0
sg15
I00
sbsg29
(imyEvolve
Tree
p678
(dp679
g14
I0
sg82
F-3.9730134853680212
sg15
I01
sbsg16
I00
sg17
g32
sbsg14
I2
sg16
I01
sg17
g133
sba(imyEvolve
Tree
p680
(dp681
g7
(imyEvolve
Tree
p682
(dp683
g7
(imyEvolve
Tree
p684
(dp685
g7
(imyEvolve
Tree
p686
(dp687
g14
I1
sg22
(imyEvolve
Tree
p688
(dp689
g14
I0
sg82
F-4.002073695341316
sg15
I01
sbsg29
(imyEvolve
Tree
p690
(dp691
g14
I0
sg15
I00
sbsg16
I00
sg17
g65
sbsg14
I2
sg16
I01
sg17
g43
sbsg14
I3
sg16
I01
sg17
g18
sbsg14
I4
sg16
I01
sg17
g18
sba(imyEvolve
Tree
p692
(dp693
g14
I5
sg22
(imyEvolve
Tree
p694
(dp695
g7
(imyEvolve
Tree
p696
(dp697
g14
I3
sg22
(imyEvolve
Tree
p698
(dp699
g7
(imyEvolve
Tree
p700
(dp701
g14
I1
sg22
(imyEvolve
Tree
p702
(dp703
g14
I0
sg82
F3.8416549963720463
sg15
I01
sbsg29
(imyEvolve
Tree
p704
(dp705
g14
I0
sg82
F4.667798530544262
sg15
I01
sbsg16
I00
sg17
g44
sbsg14
I2
sg16
I01
sg17
g19
sbsg29
(imyEvolve
Tree
p706
(dp707
g7
(imyEvolve
Tree
p708
(dp709
g7
(imyEvolve
Tree
p710
(dp711
g14
I0
sg82
F2.170937613559369
sg15
I01
sbsg14
I1
sg16
I01
sg17
g133
sbsg14
I2
sg16
I01
sg17
g133
sbsg16
I00
sg17
g32
sbsg14
I4
sg16
I01
sg17
g18
sbsg29
(imyEvolve
Tree
p712
(dp713
g7
(imyEvolve
Tree
p714
(dp715
g14
I3
sg22
(imyEvolve
Tree
p716
(dp717
g7
(imyEvolve
Tree
p718
(dp719
g14
I1
sg22
(imyEvolve
Tree
p720
(dp721
g14
I0
sg82
F-2.081693930674804
sg15
I01
sbsg29
(imyEvolve
Tree
p722
(dp723
g14
I0
sg15
I00
sbsg16
I00
sg17
g44
sbsg14
I2
sg16
I01
sg17
g19
sbsg29
(imyEvolve
Tree
p724
(dp725
g14
I2
sg22
(imyEvolve
Tree
p726
(dp727
g14
I1
sg22
(imyEvolve
Tree
p728
(dp729
g14
I0
sg15
I00
sbsg29
(imyEvolve
Tree
p730
(dp731
g14
I0
sg15
I00
sbsg16
I00
sg17
g32
sbsg29
(imyEvolve
Tree
p732
(dp733
g14
I1
sg22
(imyEvolve
Tree
p734
(dp735
g14
I0
sg15
I00
sbsg29
(imyEvolve
Tree
p736
(dp737
g14
I0
sg15
I00
sbsg16
I00
sg17
g65
sbsg16
I00
sg17
g32
sbsg16
I00
sg17
g65
sbsg14
I4
sg16
I01
sg17
g18
sbsg16
I00
sg17
g32
sba(imyEvolve
Tree
p738
(dp739
g7
(imyEvolve
Tree
p740
(dp741
g14
I3
sg22
(imyEvolve
Tree
p742
(dp743
g7
(imyEvolve
Tree
p744
(dp745
g7
(imyEvolve
Tree
p746
(dp747
g14
I0
sg82
F-3.4351416200512808
sg15
I01
sbsg14
I1
sg16
I01
sg17
g19
sbsg14
I2
sg16
I01
sg17
g43
sbsg29
(imyEvolve
Tree
p748
(dp749
g14
I2
sg22
(imyEvolve
Tree
p750
(dp751
g7
(imyEvolve
Tree
p752
(dp753
g14
I0
sg15
I00
sbsg14
I1
sg16
I01
sg17
g133
sbsg29
(imyEvolve
Tree
p754
(dp755
g7
(imyEvolve
Tree
p756
(dp757
g14
I0
sg82
F1.360746920971713
sg15
I01
sbsg14
I1
sg16
I01
sg17
g43
sbsg16
I00
sg17
g32
sbsg16
I00
sg17
g65
sbsg14
I4
sg16
I01
sg17
g18
sba(imyEvolve
Tree
p758
(dp759
g7
(imyEvolve
Tree
p760
(dp761
g14
I1
sg22
(imyEvolve
Tree
p762
(dp763
g14
I0
sg15
I00
sbsg29
(imyEvolve
Tree
p764
(dp765
g14
I0
sg15
I00
sbsg16
I00
sg17
g32
sbsg14
I2
sg16
I01
sg17
g133
sba(imyEvolve
Tree
p766
(dp767
g14
I4
sg22
(imyEvolve
Tree
p768
(dp769
g7
(imyEvolve
Tree
p770
(dp771
g14
I2
sg22
(imyEvolve
Tree
p772
(dp773
g7
(imyEvolve
Tree
p774
(dp775
g14
I0
sg15
I00
sbsg14
I1
sg16
I01
sg17
g133
sbsg29
(imyEvolve
Tree
p776
(dp777
g14
I1
sg22
(imyEvolve
Tree
p778
(dp779
g14
I0
sg15
I00
sbsg29
(imyEvolve
Tree
p780
(dp781
g14
I0
sg82
F0.8411591972379515
sg15
I01
sbsg16
I00
sg17
g44
sbsg16
I00
sg17
g65
sbsg14
I3
sg16
I01
sg17
g19
sbsg29
(imyEvolve
Tree
p782
(dp783
g7
(imyEvolve
Tree
p784
(dp785
g14
I2
sg22
(imyEvolve
Tree
p786
(dp787
g14
I1
sg22
(imyEvolve
Tree
p788
(dp789
g14
I0
sg15
I00
sbsg29
(imyEvolve
Tree
p790
(dp791
g14
I0
sg82
F-1.261037525320913
sg15
I01
sbsg16
I00
sg17
g65
sbsg29
(imyEvolve
Tree
p792
(dp793
g14
I1
sg22
(imyEvolve
Tree
p794
(dp795
g14
I0
sg15
I00
sbsg29
(imyEvolve
Tree
p796
(dp797
g14
I0
sg15
I00
sbsg16
I00
sg17
g32
sbsg16
I00
sg17
g32
sbsg14
I3
sg16
I01
sg17
g19
sbsg16
I00
sg17
g44
sba(imyEvolve
Tree
p798
(dp799
g7
(imyEvolve
Tree
p800
(dp801
g7
(imyEvolve
Tree
p802
(dp803
g14
I1
sg22
(imyEvolve
Tree
p804
(dp805
g14
I0
sg15
I00
sbsg29
(imyEvolve
Tree
p806
(dp807
g14
I0
sg15
I00
sbsg16
I00
sg17
g32
sbsg14
I2
sg16
I01
sg17
g19
sbsg14
I3
sg16
I01
sg17
g43
sba(imyEvolve
Tree
p808
(dp809
g7
(imyEvolve
Tree
p810
(dp811
g14
I2
sg22
(imyEvolve
Tree
p812
(dp813
g14
I1
sg22
(imyEvolve
Tree
p814
(dp815
g14
I0
sg82
F-0.7835594258595417
sg15
I01
sbsg29
(imyEvolve
Tree
p816
(dp817
g14
I0
sg82
F-2.0890610739115067
sg15
I01
sbsg16
I00
sg17
g32
sbsg29
(imyEvolve
Tree
p818
(dp819
g7
(imyEvolve
Tree
p820
(dp821
g14
I0
sg15
I00
sbsg14
I1
sg16
I01
sg17
g19
sbsg16
I00
sg17
g65
sbsg14
I3
sg16
I01
sg17
g43
sba(imyEvolve
Tree
p822
(dp823
g14
I4
sg22
(imyEvolve
Tree
p824
(dp825
g7
(imyEvolve
Tree
p826
(dp827
g14
I2
sg22
(imyEvolve
Tree
p828
(dp829
g14
I1
sg22
(imyEvolve
Tree
p830
(dp831
g14
I0
sg15
I00
sbsg29
(imyEvolve
Tree
p832
(dp833
g14
I0
sg15
I00
sbsg16
I00
sg17
g32
sbsg29
(imyEvolve
Tree
p834
(dp835
g14
I1
sg22
(imyEvolve
Tree
p836
(dp837
g14
I0
sg82
F-0.8165713701494219
sg15
I01
sbsg29
(imyEvolve
Tree
p838
(dp839
g14
I0
sg82
F-2.644581662599954
sg15
I01
sbsg16
I00
sg17
g65
sbsg16
I00
sg17
g44
sbsg14
I3
sg16
I01
sg17
g133
sbsg29
(imyEvolve
Tree
p840
(dp841
g7
(imyEvolve
Tree
p842
(dp843
g14
I2
sg22
(imyEvolve
Tree
p844
(dp845
g14
I1
sg22
(imyEvolve
Tree
p846
(dp847
g14
I0
sg15
I00
sbsg29
(imyEvolve
Tree
p848
(dp849
g14
I0
sg15
I00
sbsg16
I00
sg17
g44
sbsg29
(imyEvolve
Tree
p850
(dp851
g14
I1
sg22
(imyEvolve
Tree
p852
(dp853
g14
I0
sg82
F-1.4707033173418549
sg15
I01
sbsg29
(imyEvolve
Tree
p854
(dp855
g14
I0
sg15
I00
sbsg16
I00
sg17
g65
sbsg16
I00
sg17
g65
sbsg14
I3
sg16
I01
sg17
g133
sbsg16
I00
sg17
g65
sba(imyEvolve
Tree
p856
(dp857
g7
(imyEvolve
Tree
p858
(dp859
g7
(imyEvolve
Tree
p860
(dp861
g7
(imyEvolve
Tree
p862
(dp863
g14
I0
sg15
I00
sbsg14
I1
sg16
I01
sg17
g19
sbsg14
I2
sg16
I01
sg17
g43
sbsg14
I3
sg16
I01
sg17
g133
sba(imyEvolve
Tree
p864
(dp865
g14
I2
sg22
(imyEvolve
Tree
p866
(dp867
g7
(imyEvolve
Tree
p868
(dp869
g14
I0
sg82
F-2.261000246852843
sg15
I01
sbsg14
I1
sg16
I01
sg17
g18
sbsg29
(imyEvolve
Tree
p870
(dp871
g14
I1
sg22
(imyEvolve
Tree
p872
(dp873
g14
I0
sg82
F2.663021754922033
sg15
I01
sbsg29
(imyEvolve
Tree
p874
(dp875
g14
I0
sg82
F-1.66046734826222
sg15
I01
sbsg16
I00
sg17
g32
sbsg16
I00
sg17
g65
sba(imyEvolve
Tree
p876
(dp877
g7
(imyEvolve
Tree
p878
(dp879
g14
I4
sg22
(imyEvolve
Tree
p880
(dp881
g14
I3
sg22
(imyEvolve
Tree
p882
(dp883
g7
(imyEvolve
Tree
p884
(dp885
g7
(imyEvolve
Tree
p886
(dp887
g14
I0
sg82
F4.716008254800984
sg15
I01
sbsg14
I1
sg16
I01
sg17
g18
sbsg14
I2
sg16
I01
sg17
g43
sbsg29
(imyEvolve
Tree
p888
(dp889
g7
(imyEvolve
Tree
p890
(dp891
g14
I1
sg22
(imyEvolve
Tree
p892
(dp893
g14
I0
sg15
I00
sbsg29
(imyEvolve
Tree
p894
(dp895
g14
I0
sg82
F-3.2636451942915867
sg15
I01
sbsg16
I00
sg17
g32
sbsg14
I2
sg16
I01
sg17
g19
sbsg16
I00
sg17
g32
sbsg29
(imyEvolve
Tree
p896
(dp897
g14
I3
sg22
(imyEvolve
Tree
p898
(dp899
g14
I2
sg22
(imyEvolve
Tree
p900
(dp901
g7
(imyEvolve
Tree
p902
(dp903
g14
I0
sg15
I00
sbsg14
I1
sg16
I01
sg17
g43
sbsg29
(imyEvolve
Tree
p904
(dp905
g7
(imyEvolve
Tree
p906
(dp907
g14
I0
sg82
F3.994904620399131
sg15
I01
sbsg14
I1
sg16
I01
sg17
g19
sbsg16
I00
sg17
g32
sbsg29
(imyEvolve
Tree
p908
(dp909
g7
(imyEvolve
Tree
p910
(dp911
g14
I1
sg22
(imyEvolve
Tree
p912
(dp913
g14
I0
sg15
I00
sbsg29
(imyEvolve
Tree
p914
(dp915
g14
I0
sg82
F2.1516804665987666
sg15
I01
sbsg16
I00
sg17
g65
sbsg14
I2
sg16
I01
sg17
g43
sbsg16
I00
sg17
g44
sbsg16
I00
sg17
g32
sbsg14
I5
sg16
I01
sg17
g43
sba(imyEvolve
Tree
p916
(dp917
g14
I3
sg22
(imyEvolve
Tree
p918
(dp919
g14
I2
sg22
(imyEvolve
Tree
p920
(dp921
g14
I1
sg22
(imyEvolve
Tree
p922
(dp923
g14
I0
sg15
I00
sbsg29
(imyEvolve
Tree
p924
(dp925
g14
I0
sg15
I00
sbsg16
I00
sg17
g32
sbsg29
(imyEvolve
Tree
p926
(dp927
g14
I1
sg22
(imyEvolve
Tree
p928
(dp929
g14
I0
sg15
I00
sbsg29
(imyEvolve
Tree
p930
(dp931
g14
I0
sg82
F4.085453097022251
sg15
I01
sbsg16
I00
sg17
g65
sbsg16
I00
sg17
g44
sbsg29
(imyEvolve
Tree
p932
(dp933
g7
(imyEvolve
Tree
p934
(dp935
g14
I1
sg22
(imyEvolve
Tree
p936
(dp937
g14
I0
sg15
I00
sbsg29
(imyEvolve
Tree
p938
(dp939
g14
I0
sg15
I00
sbsg16
I00
sg17
g44
sbsg14
I2
sg16
I01
sg17
g133
sbsg16
I00
sg17
g44
sba(imyEvolve
Tree
p940
(dp941
g7
(imyEvolve
Tree
p942
(dp943
g7
(imyEvolve
Tree
p944
(dp945
g14
I0
sg82
F-1.8290501819551954
sg15
I01
sbsg14
I1
sg16
I01
sg17
g19
sbsg14
I2
sg16
I01
sg17
g18
sbaa(lp946
(imyEvolve
Tree
p947
(dp948
g14
I2
sg22
(imyEvolve
Tree
p949
(dp950
g14
I1
sg22
(imyEvolve
Tree
p951
(dp952
g14
I0
sg15
I00
sbsg29
(imyEvolve
Tree
p953
(dp954
g14
I0
sg82
F1.068911351742977
sg15
I01
sbsg16
I00
sg17
g32
sbsg29
(imyEvolve
Tree
p955
(dp956
g14
I1
sg22
(imyEvolve
Tree
p957
(dp958
g14
I0
sg15
I00
sbsg29
(imyEvolve
Tree
p959
(dp960
g14
I0
sg15
I00
sbsg16
I00
sg17
g32
sbsg16
I00
sg17
g32
sba(imyEvolve
Tree
p961
(dp962
g14
I2
sg22
(imyEvolve
Tree
p963
(dp964
g14
I1
sg22
(imyEvolve
Tree
p965
(dp966
g14
I0
sg15
I00
sbsg29
(imyEvolve
Tree
p967
(dp968
g14
I0
sg15
I00
sbsg16
I00
sg17
g44
sbsg29
(imyEvolve
Tree
p969
(dp970
g7
(imyEvolve
Tree
p971
(dp972
g14
I0
sg82
F-3.388296006377879
sg15
I01
sbsg14
I1
sg16
I01
sg17
g19
sbsg16
I00
sg17
g44
sba(imyEvolve
Tree
p973
(dp974
g7
(imyEvolve
Tree
p975
(dp976
g7
(imyEvolve
Tree
p977
(dp978
g7
(imyEvolve
Tree
p979
(dp980
g14
I0
sg15
I00
sbsg14
I1
sg16
I01
sg17
g133
sbsg14
I2
sg16
I01
sg17
g43
sbsg14
I3
sg16
I01
sg17
g133
sba(imyEvolve
Tree
p981
(dp982
g7
(imyEvolve
Tree
p983
(dp984
g7
(imyEvolve
Tree
p985
(dp986
g14
I0
sg82
F2.7620175581804887
sg15
I01
sbsg14
I1
sg16
I01
sg17
g19
sbsg14
I2
sg16
I01
sg17
g19
sba(imyEvolve
Tree
p987
(dp988
g7
(imyEvolve
Tree
p989
(dp990
g7
(imyEvolve
Tree
p991
(dp992
g14
I3
sg22
(imyEvolve
Tree
p993
(dp994
g7
(imyEvolve
Tree
p995
(dp996
g14
I1
sg22
(imyEvolve
Tree
p997
(dp998
g14
I0
sg15
I00
sbsg29
(imyEvolve
Tree
p999
(dp1000
g14
I0
sg82
F-3.206039585290108
sg15
I01
sbsg16
I00
sg17
g44
sbsg14
I2
sg16
I01
sg17
g133
sbsg29
(imyEvolve
Tree
p1001
(dp1002
g7
(imyEvolve
Tree
p1003
(dp1004
g14
I1
sg22
(imyEvolve
Tree
p1005
(dp1006
g14
I0
sg82
F0.9234916297280868
sg15
I01
sbsg29
(imyEvolve
Tree
p1007
(dp1008
g14
I0
sg15
I00
sbsg16
I00
sg17
g65
sbsg14
I2
sg16
I01
sg17
g19
sbsg16
I00
sg17
g44
sbsg14
I4
sg16
I01
sg17
g19
sbsg14
I5
sg16
I01
sg17
g133
sba(imyEvolve
Tree
p1009
(dp1010
g7
(imyEvolve
Tree
p1011
(dp1012
g7
(imyEvolve
Tree
p1013
(dp1014
g14
I0
sg15
I00
sbsg14
I1
sg16
I01
sg17
g19
sbsg14
I2
sg16
I01
sg17
g43
sba(imyEvolve
Tree
p1015
(dp1016
g14
I5
sg22
(imyEvolve
Tree
p1017
(dp1018
g7
(imyEvolve
Tree
p1019
(dp1020
g14
I3
sg22
(imyEvolve
Tree
p1021
(dp1022
g7
(imyEvolve
Tree
p1023
(dp1024
g14
I1
sg22
(imyEvolve
Tree
p1025
(dp1026
g14
I0
sg15
I00
sbsg29
(imyEvolve
Tree
p1027
(dp1028
g14
I0
sg15
I00
sbsg16
I00
sg17
g65
sbsg14
I2
sg16
I01
sg17
g18
sbsg29
(imyEvolve
Tree
p1029
(dp1030
g7
(imyEvolve
Tree
p1031
(dp1032
g7
(imyEvolve
Tree
p1033
(dp1034
g14
I0
sg82
F-2.800122042540336
sg15
I01
sbsg14
I1
sg16
I01
sg17
g18
sbsg14
I2
sg16
I01
sg17
g19
sbsg16
I00
sg17
g44
sbsg14
I4
sg16
I01
sg17
g18
sbsg29
(imyEvolve
Tree
p1035
(dp1036
g14
I4
sg22
(imyEvolve
Tree
p1037
(dp1038
g14
I3
sg22
(imyEvolve
Tree
p1039
(dp1040
g14
I2
sg22
(imyEvolve
Tree
p1041
(dp1042
g7
(imyEvolve
Tree
p1043
(dp1044
g14
I0
sg15
I00
sbsg14
I1
sg16
I01
sg17
g18
sbsg29
(imyEvolve
Tree
p1045
(dp1046
g14
I1
sg22
(imyEvolve
Tree
p1047
(dp1048
g14
I0
sg15
I00
sbsg29
(imyEvolve
Tree
p1049
(dp1050
g14
I0
sg82
F-4.15071347751486
sg15
I01
sbsg16
I00
sg17
g65
sbsg16
I00
sg17
g44
sbsg29
(imyEvolve
Tree
p1051
(dp1052
g14
I2
sg22
(imyEvolve
Tree
p1053
(dp1054
g14
I1
sg22
(imyEvolve
Tree
p1055
(dp1056
g14
I0
sg82
F-0.3330591308823374
sg15
I01
sbsg29
(imyEvolve
Tree
p1057
(dp1058
g14
I0
sg15
I00
sbsg16
I00
sg17
g44
sbsg29
(imyEvolve
Tree
p1059
(dp1060
g14
I1
sg22
(imyEvolve
Tree
p1061
(dp1062
g14
I0
sg15
I00
sbsg29
(imyEvolve
Tree
p1063
(dp1064
g14
I0
sg15
I00
sbsg16
I00
sg17
g65
sbsg16
I00
sg17
g44
sbsg16
I00
sg17
g32
sbsg29
(imyEvolve
Tree
p1065
(dp1066
g7
(imyEvolve
Tree
p1067
(dp1068
g14
I2
sg22
(imyEvolve
Tree
p1069
(dp1070
g14
I1
sg22
(imyEvolve
Tree
p1071
(dp1072
g14
I0
sg82
F-2.6167326187955195
sg15
I01
sbsg29
(imyEvolve
Tree
p1073
(dp1074
g14
I0
sg82
F3.7537122933608877
sg15
I01
sbsg16
I00
sg17
g44
sbsg29
(imyEvolve
Tree
p1075
(dp1076
g14
I1
sg22
(imyEvolve
Tree
p1077
(dp1078
g14
I0
sg15
I00
sbsg29
(imyEvolve
Tree
p1079
(dp1080
g14
I0
sg15
I00
sbsg16
I00
sg17
g44
sbsg16
I00
sg17
g65
sbsg14
I3
sg16
I01
sg17
g18
sbsg16
I00
sg17
g32
sbsg16
I00
sg17
g44
sba(imyEvolve
Tree
p1081
(dp1082
g14
I4
sg22
(imyEvolve
Tree
p1083
(dp1084
g7
(imyEvolve
Tree
p1085
(dp1086
g14
I2
sg22
(imyEvolve
Tree
p1087
(dp1088
g7
(imyEvolve
Tree
p1089
(dp1090
g14
I0
sg15
I00
sbsg14
I1
sg16
I01
sg17
g18
sbsg29
(imyEvolve
Tree
p1091
(dp1092
g7
(imyEvolve
Tree
p1093
(dp1094
g14
I0
sg15
I00
sbsg14
I1
sg16
I01
sg17
g43
sbsg16
I00
sg17
g44
sbsg14
I3
sg16
I01
sg17
g133
sbsg29
(imyEvolve
Tree
p1095
(dp1096
g14
I3
sg22
(imyEvolve
Tree
p1097
(dp1098
g7
(imyEvolve
Tree
p1099
(dp1100
g7
(imyEvolve
Tree
p1101
(dp1102
g14
I0
sg15
I00
sbsg14
I1
sg16
I01
sg17
g18
sbsg14
I2
sg16
I01
sg17
g18
sbsg29
(imyEvolve
Tree
p1103
(dp1104
g7
(imyEvolve
Tree
p1105
(dp1106
g7
(imyEvolve
Tree
p1107
(dp1108
g14
I0
sg15
I00
sbsg14
I1
sg16
I01
sg17
g18
sbsg14
I2
sg16
I01
sg17
g18
sbsg16
I00
sg17
g44
sbsg16
I00
sg17
g44
sba(imyEvolve
Tree
p1109
(dp1110
g14
I3
sg22
(imyEvolve
Tree
p1111
(dp1112
g7
(imyEvolve
Tree
p1113
(dp1114
g14
I1
sg22
(imyEvolve
Tree
p1115
(dp1116
g14
I0
sg82
F-1.353401078583032
sg15
I01
sbsg29
(imyEvolve
Tree
p1117
(dp1118
g14
I0
sg82
F1.5028284346980216
sg15
I01
sbsg16
I00
sg17
g44
sbsg14
I2
sg16
I01
sg17
g18
sbsg29
(imyEvolve
Tree
p1119
(dp1120
g14
I2
sg22
(imyEvolve
Tree
p1121
(dp1122
g14
I1
sg22
(imyEvolve
Tree
p1123
(dp1124
g14
I0
sg15
I00
sbsg29
(imyEvolve
Tree
p1125
(dp1126
g14
I0
sg82
F-2.678104352001861
sg15
I01
sbsg16
I00
sg17
g65
sbsg29
(imyEvolve
Tree
p1127
(dp1128
g7
(imyEvolve
Tree
p1129
(dp1130
g14
I0
sg15
I00
sbsg14
I1
sg16
I01
sg17
g43
sbsg16
I00
sg17
g32
sbsg16
I00
sg17
g44
sba(imyEvolve
Tree
p1131
(dp1132
g14
I4
sg22
(imyEvolve
Tree
p1133
(dp1134
g14
I3
sg22
(imyEvolve
Tree
p1135
(dp1136
g7
(imyEvolve
Tree
p1137
(dp1138
g7
(imyEvolve
Tree
p1139
(dp1140
g14
I0
sg82
F4.10713013190783
sg15
I01
sbsg14
I1
sg16
I01
sg17
g19
sbsg14
I2
sg16
I01
sg17
g18
sbsg29
(imyEvolve
Tree
p1141
(dp1142
g14
I2
sg22
(imyEvolve
Tree
p1143
(dp1144
g14
I1
sg22
(imyEvolve
Tree
p1145
(dp1146
g14
I0
sg82
F1.342652966682138
sg15
I01
sbsg29
(imyEvolve
Tree
p1147
(dp1148
g14
I0
sg82
F-4.625739967266113
sg15
I01
sbsg16
I00
sg17
g32
sbsg29
(imyEvolve
Tree
p1149
(dp1150
g14
I1
sg22
(imyEvolve
Tree
p1151
(dp1152
g14
I0
sg15
I00
sbsg29
(imyEvolve
Tree
p1153
(dp1154
g14
I0
sg82
F3.2985938722559336
sg15
I01
sbsg16
I00
sg17
g44
sbsg16
I00
sg17
g65
sbsg16
I00
sg17
g65
sbsg29
(imyEvolve
Tree
p1155
(dp1156
g14
I3
sg22
(imyEvolve
Tree
p1157
(dp1158
g14
I2
sg22
(imyEvolve
Tree
p1159
(dp1160
g7
(imyEvolve
Tree
p1161
(dp1162
g14
I0
sg15
I00
sbsg14
I1
sg16
I01
sg17
g133
sbsg29
(imyEvolve
Tree
p1163
(dp1164
g7
(imyEvolve
Tree
p1165
(dp1166
g14
I0
sg15
I00
sbsg14
I1
sg16
I01
sg17
g133
sbsg16
I00
sg17
g65
sbsg29
(imyEvolve
Tree
p1167
(dp1168
g7
(imyEvolve
Tree
p1169
(dp1170
g14
I1
sg22
(imyEvolve
Tree
p1171
(dp1172
g14
I0
sg82
F-2.7550480710227063
sg15
I01
sbsg29
(imyEvolve
Tree
p1173
(dp1174
g14
I0
sg15
I00
sbsg16
I00
sg17
g32
sbsg14
I2
sg16
I01
sg17
g19
sbsg16
I00
sg17
g44
sbsg16
I00
sg17
g32
sba(imyEvolve
Tree
p1175
(dp1176
g14
I3
sg22
(imyEvolve
Tree
p1177
(dp1178
g14
I2
sg22
(imyEvolve
Tree
p1179
(dp1180
g7
(imyEvolve
Tree
p1181
(dp1182
g14
I0
sg82
F1.1452655861097618
sg15
I01
sbsg14
I1
sg16
I01
sg17
g43
sbsg29
(imyEvolve
Tree
p1183
(dp1184
g14
I1
sg22
(imyEvolve
Tree
p1185
(dp1186
g14
I0
sg15
I00
sbsg29
(imyEvolve
Tree
p1187
(dp1188
g14
I0
sg82
F-3.775252093072897
sg15
I01
sbsg16
I00
sg17
g44
sbsg16
I00
sg17
g65
sbsg29
(imyEvolve
Tree
p1189
(dp1190
g14
I2
sg22
(imyEvolve
Tree
p1191
(dp1192
g7
(imyEvolve
Tree
p1193
(dp1194
g14
I0
sg15
I00
sbsg14
I1
sg16
I01
sg17
g43
sbsg29
(imyEvolve
Tree
p1195
(dp1196
g14
I1
sg22
(imyEvolve
Tree
p1197
(dp1198
g14
I0
sg82
F-3.9671707554107902
sg15
I01
sbsg29
(imyEvolve
Tree
p1199
(dp1200
g14
I0
sg82
F-1.0326652600696749
sg15
I01
sbsg16
I00
sg17
g44
sbsg16
I00
sg17
g32
sbsg16
I00
sg17
g44
sba(imyEvolve
Tree
p1201
(dp1202
g7
(imyEvolve
Tree
p1203
(dp1204
g14
I1
sg22
(imyEvolve
Tree
p1205
(dp1206
g14
I0
sg82
F-3.9234575925888224
sg15
I01
sbsg29
(imyEvolve
Tree
p1207
(dp1208
g14
I0
sg15
I00
sbsg16
I00
sg17
g44
sbsg14
I2
sg16
I01
sg17
g43
sbaasS'weightSharing'
p1209
(lp1210
I00
aI00
asS'fitnessValid'
p1211
I00
sS'fitness'
p1212
cnumpy.core.multiarray
scalar
p1213
(cnumpy
dtype
p1214
(S'f8'
p1215
I0
I1
tp1216
Rp1217
(I3
S'<'
p1218
NNNI-1
I-1
I0
tp1219
bS'\x00\xf4\xdb\xd7\xd6\x87`?'
p1220
tp1221
Rp1222
sS'alpha'
p1223
F0.007117840194307055
sS'resolution'
p1224
I100
sb.