(imyEvolve
Individual
p0
(dp1
S'funcs'
p2
(lp3
(lp4
(imyEvolve
Tree
p5
(dp6
S'depth'
p7
I3
sS'left'
p8
(imyEvolve
Tree
p9
(dp10
S'below'
p11
(imyEvolve
Tree
p12
(dp13
g11
(imyEvolve
Tree
p14
(dp15
g7
I0
sS'constant'
p16
F-4.0946908634715795
sS'isConstant'
p17
I01
sbsg7
I1
sS'single'
p18
I01
sS'op'
p19
cmyEvolve
square
p20
sbsg7
I2
sg18
I01
sg19
cmath
cos
p21
sbsS'right'
p22
(imyEvolve
Tree
p23
(dp24
g7
I2
sg8
(imyEvolve
Tree
p25
(dp26
g7
I1
sg8
(imyEvolve
Tree
p27
(dp28
g7
I0
sg17
I00
sbsg22
(imyEvolve
Tree
p29
(dp30
g7
I0
sg17
I00
sbsg18
I00
sg19
coperator
sub
p31
sbsg22
(imyEvolve
Tree
p32
(dp33
g7
I1
sg8
(imyEvolve
Tree
p34
(dp35
g7
I0
sg16
F-1.3779028071870725
sg17
I01
sbsg22
(imyEvolve
Tree
p36
(dp37
g7
I0
sg17
I00
sbsg18
I00
sg19
coperator
add
p38
sbsg18
I00
sg19
g31
sbsg18
I00
sg19
g31
sba(imyEvolve
Tree
p39
(dp40
g7
I3
sg8
(imyEvolve
Tree
p41
(dp42
g7
I2
sg8
(imyEvolve
Tree
p43
(dp44
g7
I1
sg8
(imyEvolve
Tree
p45
(dp46
g7
I0
sg17
I00
sbsg22
(imyEvolve
Tree
p47
(dp48
g7
I0
sg16
F-1.5152631737599864
sg17
I01
sbsg18
I00
sg19
coperator
mul
p49
sbsg22
(imyEvolve
Tree
p50
(dp51
g7
I1
sg8
(imyEvolve
Tree
p52
(dp53
g7
I0
sg17
I00
sbsg22
(imyEvolve
Tree
p54
(dp55
g7
I0
sg16
F-4.698409576838127
sg17
I01
sbsg18
I00
sg19
g49
sbsg18
I00
sg19
g49
sbsg22
(imyEvolve
Tree
p56
(dp57
g11
(imyEvolve
Tree
p58
(dp59
g7
I1
sg8
(imyEvolve
Tree
p60
(dp61
g7
I0
sg16
F1.3107549312767635
sg17
I01
sbsg22
(imyEvolve
Tree
p62
(dp63
g7
I0
sg16
F0.694651167040341
sg17
I01
sbsg18
I00
sg19
g31
sbsg7
I2
sg18
I01
sg19
g21
sbsg18
I00
sg19
g49
sba(imyEvolve
Tree
p64
(dp65
g7
I4
sg8
(imyEvolve
Tree
p66
(dp67
g11
(imyEvolve
Tree
p68
(dp69
g7
I2
sg8
(imyEvolve
Tree
p70
(dp71
g11
(imyEvolve
Tree
p72
(dp73
g7
I0
sg16
F-1.818854680620551
sg17
I01
sbsg7
I1
sg18
I01
sg19
g21
sbsg22
(imyEvolve
Tree
p74
(dp75
g7
I1
sg8
(imyEvolve
Tree
p76
(dp77
g7
I0
sg17
I00
sbsg22
(imyEvolve
Tree
p78
(dp79
g7
I0
sg16
F2.2791325336671653
sg17
I01
sbsg18
I00
sg19
g49
sbsg18
I00
sg19
g38
sbsg7
I3
sg18
I01
sg19
g20
sbsg22
(imyEvolve
Tree
p80
(dp81
g7
I3
sg8
(imyEvolve
Tree
p82
(dp83
g11
(imyEvolve
Tree
p84
(dp85
g11
(imyEvolve
Tree
p86
(dp87
g7
I0
sg17
I00
sbsg7
I1
sg18
I01
sg19
g21
sbsg7
I2
sg18
I01
sg19
cmyEvolve
absSqrt
p88
sbsg22
(imyEvolve
Tree
p89
(dp90
g11
(imyEvolve
Tree
p91
(dp92
g11
(imyEvolve
Tree
p93
(dp94
g7
I0
sg16
F3.4012529532935396
sg17
I01
sbsg7
I1
sg18
I01
sg19
g21
sbsg7
I2
sg18
I01
sg19
g88
sbsg18
I00
sg19
g38
sbsg18
I00
sg19
g38
sba(imyEvolve
Tree
p95
(dp96
g11
(imyEvolve
Tree
p97
(dp98
g7
I4
sg8
(imyEvolve
Tree
p99
(dp100
g7
I3
sg8
(imyEvolve
Tree
p101
(dp102
g11
(imyEvolve
Tree
p103
(dp104
g7
I1
sg8
(imyEvolve
Tree
p105
(dp106
g7
I0
sg17
I00
sbsg22
(imyEvolve
Tree
p107
(dp108
g7
I0
sg17
I00
sbsg18
I00
sg19
g49
sbsg7
I2
sg18
I01
sg19
g20
sbsg22
(imyEvolve
Tree
p109
(dp110
g7
I2
sg8
(imyEvolve
Tree
p111
(dp112
g7
I1
sg8
(imyEvolve
Tree
p113
(dp114
g7
I0
sg17
I00
sbsg22
(imyEvolve
Tree
p115
(dp116
g7
I0
sg17
I00
sbsg18
I00
sg19
g38
sbsg22
(imyEvolve
Tree
p117
(dp118
g7
I1
sg8
(imyEvolve
Tree
p119
(dp120
g7
I0
sg16
F-1.5116723078883676
sg17
I01
sbsg22
(imyEvolve
Tree
p121
(dp122
g7
I0
sg17
I00
sbsg18
I00
sg19
g31
sbsg18
I00
sg19
g38
sbsg18
I00
sg19
g31
sbsg22
(imyEvolve
Tree
p123
(dp124
g11
(imyEvolve
Tree
p125
(dp126
g7
I2
sg8
(imyEvolve
Tree
p127
(dp128
g7
I1
sg8
(imyEvolve
Tree
p129
(dp130
g7
I0
sg17
I00
sbsg22
(imyEvolve
Tree
p131
(dp132
g7
I0
sg16
F1.8798959539659696
sg17
I01
sbsg18
I00
sg19
g31
sbsg22
(imyEvolve
Tree
p133
(dp134
g11
(imyEvolve
Tree
p135
(dp136
g7
I0
sg16
F4.88593388659633
sg17
I01
sbsg7
I1
sg18
I01
sg19
cmath
sin
p137
sbsg18
I00
sg19
g31
sbsg7
I3
sg18
I01
sg19
g137
sbsg18
I00
sg19
g38
sbsg7
I5
sg18
I01
sg19
g88
sba(imyEvolve
Tree
p138
(dp139
g7
I3
sg8
(imyEvolve
Tree
p140
(dp141
g11
(imyEvolve
Tree
p142
(dp143
g7
I1
sg8
(imyEvolve
Tree
p144
(dp145
g7
I0
sg16
F-1.1993629830306918
sg17
I01
sbsg22
(imyEvolve
Tree
p146
(dp147
g7
I0
sg16
F4.662859691916067
sg17
I01
sbsg18
I00
sg19
g38
sbsg7
I2
sg18
I01
sg19
g20
sbsg22
(imyEvolve
Tree
p148
(dp149
g11
(imyEvolve
Tree
p150
(dp151
g11
(imyEvolve
Tree
p152
(dp153
g7
I0
sg16
F-4.584854512907629
sg17
I01
sbsg7
I1
sg18
I01
sg19
g20
sbsg7
I2
sg18
I01
sg19
g137
sbsg18
I00
sg19
g38
sba(imyEvolve
Tree
p154
(dp155
g11
(imyEvolve
Tree
p156
(dp157
g7
I1
sg8
(imyEvolve
Tree
p158
(dp159
g7
I0
sg17
I00
sbsg22
(imyEvolve
Tree
p160
(dp161
g7
I0
sg17
I00
sbsg18
I00
sg19
g38
sbsg7
I2
sg18
I01
sg19
g20
sba(imyEvolve
Tree
p162
(dp163
g11
(imyEvolve
Tree
p164
(dp165
g11
(imyEvolve
Tree
p166
(dp167
g11
(imyEvolve
Tree
p168
(dp169
g11
(imyEvolve
Tree
p170
(dp171
g7
I0
sg17
I00
sbsg7
I1
sg18
I01
sg19
g88
sbsg7
I2
sg18
I01
sg19
g137
sbsg7
I3
sg18
I01
sg19
g20
sbsg7
I4
sg18
I01
sg19
g20
sba(imyEvolve
Tree
p172
(dp173
g11
(imyEvolve
Tree
p174
(dp175
g11
(imyEvolve
Tree
p176
(dp177
g11
(imyEvolve
Tree
p178
(dp179
g7
I2
sg8
(imyEvolve
Tree
p180
(dp181
g11
(imyEvolve
Tree
p182
(dp183
g7
I0
sg16
F-1.61343623814206
sg17
I01
sbsg7
I1
sg18
I01
sg19
g21
sbsg22
(imyEvolve
Tree
p184
(dp185
g7
I1
sg8
(imyEvolve
Tree
p186
(dp187
g7
I0
sg16
F0.5334143041333261
sg17
I01
sbsg22
(imyEvolve
Tree
p188
(dp189
g7
I0
sg16
F4.071439231651254
sg17
I01
sbsg18
I00
sg19
g31
sbsg18
I00
sg19
g31
sbsg7
I3
sg18
I01
sg19
g21
sbsg7
I4
sg18
I01
sg19
g137
sbsg7
I5
sg18
I01
sg19
g21
sba(imyEvolve
Tree
p190
(dp191
g7
I2
sg8
(imyEvolve
Tree
p192
(dp193
g7
I1
sg8
(imyEvolve
Tree
p194
(dp195
g7
I0
sg16
F2.731365066495531
sg17
I01
sbsg22
(imyEvolve
Tree
p196
(dp197
g7
I0
sg16
F3.3990476377036227
sg17
I01
sbsg18
I00
sg19
g38
sbsg22
(imyEvolve
Tree
p198
(dp199
g11
(imyEvolve
Tree
p200
(dp201
g7
I0
sg16
F1.1508527879944008
sg17
I01
sbsg7
I1
sg18
I01
sg19
g137
sbsg18
I00
sg19
g38
sba(imyEvolve
Tree
p202
(dp203
g7
I5
sg8
(imyEvolve
Tree
p204
(dp205
g7
I4
sg8
(imyEvolve
Tree
p206
(dp207
g7
I3
sg8
(imyEvolve
Tree
p208
(dp209
g7
I2
sg8
(imyEvolve
Tree
p210
(dp211
g7
I1
sg8
(imyEvolve
Tree
p212
(dp213
g7
I0
sg16
F1.7803515777848764
sg17
I01
sbsg22
(imyEvolve
Tree
p214
(dp215
g7
I0
sg16
F2.838518752979425
sg17
I01
sbsg18
I00
sg19
g38
sbsg22
(imyEvolve
Tree
p216
(dp217
g7
I1
sg8
(imyEvolve
Tree
p218
(dp219
g7
I0
sg16
F-1.2329899608242756
sg17
I01
sbsg22
(imyEvolve
Tree
p220
(dp221
g7
I0
sg17
I00
sbsg18
I00
sg19
g38
sbsg18
I00
sg19
g31
sbsg22
(imyEvolve
Tree
p222
(dp223
g7
I2
sg8
(imyEvolve
Tree
p224
(dp225
g11
(imyEvolve
Tree
p226
(dp227
g7
I0
sg17
I00
sbsg7
I1
sg18
I01
sg19
g21
sbsg22
(imyEvolve
Tree
p228
(dp229
g11
(imyEvolve
Tree
p230
(dp231
g7
I0
sg17
I00
sbsg7
I1
sg18
I01
sg19
g137
sbsg18
I00
sg19
g38
sbsg18
I00
sg19
g38
sbsg22
(imyEvolve
Tree
p232
(dp233
g7
I3
sg8
(imyEvolve
Tree
p234
(dp235
g7
I2
sg8
(imyEvolve
Tree
p236
(dp237
g11
(imyEvolve
Tree
p238
(dp239
g7
I0
sg17
I00
sbsg7
I1
sg18
I01
sg19
g88
sbsg22
(imyEvolve
Tree
p240
(dp241
g11
(imyEvolve
Tree
p242
(dp243
g7
I0
sg17
I00
sbsg7
I1
sg18
I01
sg19
g20
sbsg18
I00
sg19
g49
sbsg22
(imyEvolve
Tree
p244
(dp245
g11
(imyEvolve
Tree
p246
(dp247
g11
(imyEvolve
Tree
p248
(dp249
g7
I0
sg16
F-0.19578184728920345
sg17
I01
sbsg7
I1
sg18
I01
sg19
g21
sbsg7
I2
sg18
I01
sg19
g21
sbsg18
I00
sg19
g31
sbsg18
I00
sg19
g49
sbsg22
(imyEvolve
Tree
p250
(dp251
g7
I4
sg8
(imyEvolve
Tree
p252
(dp253
g7
I3
sg8
(imyEvolve
Tree
p254
(dp255
g7
I2
sg8
(imyEvolve
Tree
p256
(dp257
g11
(imyEvolve
Tree
p258
(dp259
g7
I0
sg16
F-3.122387071209557
sg17
I01
sbsg7
I1
sg18
I01
sg19
g20
sbsg22
(imyEvolve
Tree
p260
(dp261
g11
(imyEvolve
Tree
p262
(dp263
g7
I0
sg16
F-0.1068811955123774
sg17
I01
sbsg7
I1
sg18
I01
sg19
g137
sbsg18
I00
sg19
g49
sbsg22
(imyEvolve
Tree
p264
(dp265
g11
(imyEvolve
Tree
p266
(dp267
g7
I1
sg8
(imyEvolve
Tree
p268
(dp269
g7
I0
sg17
I00
sbsg22
(imyEvolve
Tree
p270
(dp271
g7
I0
sg17
I00
sbsg18
I00
sg19
g38
sbsg7
I2
sg18
I01
sg19
g21
sbsg18
I00
sg19
g38
sbsg22
(imyEvolve
Tree
p272
(dp273
g11
(imyEvolve
Tree
p274
(dp275
g7
I2
sg8
(imyEvolve
Tree
p276
(dp277
g11
(imyEvolve
Tree
p278
(dp279
g7
I0
sg16
F-0.6395313456642508
sg17
I01
sbsg7
I1
sg18
I01
sg19
g20
sbsg22
(imyEvolve
Tree
p280
(dp281
g7
I1
sg8
(imyEvolve
Tree
p282
(dp283
g7
I0
sg17
I00
sbsg22
(imyEvolve
Tree
p284
(dp285
g7
I0
sg16
F2.0930858091229476
sg17
I01
sbsg18
I00
sg19
g38
sbsg18
I00
sg19
g31
sbsg7
I3
sg18
I01
sg19
g137
sbsg18
I00
sg19
g31
sbsg18
I00
sg19
g49
sba(imyEvolve
Tree
p286
(dp287
g11
(imyEvolve
Tree
p288
(dp289
g11
(imyEvolve
Tree
p290
(dp291
g7
I0
sg16
F4.530905376653742
sg17
I01
sbsg7
I1
sg18
I01
sg19
g88
sbsg7
I2
sg18
I01
sg19
g21
sba(imyEvolve
Tree
p292
(dp293
g7
I5
sg8
(imyEvolve
Tree
p294
(dp295
g11
(imyEvolve
Tree
p296
(dp297
g11
(imyEvolve
Tree
p298
(dp299
g7
I2
sg8
(imyEvolve
Tree
p300
(dp301
g11
(imyEvolve
Tree
p302
(dp303
g7
I0
sg17
I00
sbsg7
I1
sg18
I01
sg19
g88
sbsg22
(imyEvolve
Tree
p304
(dp305
g7
I1
sg8
(imyEvolve
Tree
p306
(dp307
g7
I0
sg17
I00
sbsg22
(imyEvolve
Tree
p308
(dp309
g7
I0
sg17
I00
sbsg18
I00
sg19
g49
sbsg18
I00
sg19
g49
sbsg7
I3
sg18
I01
sg19
g137
sbsg7
I4
sg18
I01
sg19
g20
sbsg22
(imyEvolve
Tree
p310
(dp311
g11
(imyEvolve
Tree
p312
(dp313
g7
I3
sg8
(imyEvolve
Tree
p314
(dp315
g7
I2
sg8
(imyEvolve
Tree
p316
(dp317
g7
I1
sg8
(imyEvolve
Tree
p318
(dp319
g7
I0
sg17
I00
sbsg22
(imyEvolve
Tree
p320
(dp321
g7
I0
sg17
I00
sbsg18
I00
sg19
g38
sbsg22
(imyEvolve
Tree
p322
(dp323
g11
(imyEvolve
Tree
p324
(dp325
g7
I0
sg17
I00
sbsg7
I1
sg18
I01
sg19
g137
sbsg18
I00
sg19
g38
sbsg22
(imyEvolve
Tree
p326
(dp327
g7
I2
sg8
(imyEvolve
Tree
p328
(dp329
g7
I1
sg8
(imyEvolve
Tree
p330
(dp331
g7
I0
sg16
F-0.9212220073722044
sg17
I01
sbsg22
(imyEvolve
Tree
p332
(dp333
g7
I0
sg17
I00
sbsg18
I00
sg19
g31
sbsg22
(imyEvolve
Tree
p334
(dp335
g7
I1
sg8
(imyEvolve
Tree
p336
(dp337
g7
I0
sg17
I00
sbsg22
(imyEvolve
Tree
p338
(dp339
g7
I0
sg16
F-3.0736824306834065
sg17
I01
sbsg18
I00
sg19
g38
sbsg18
I00
sg19
g49
sbsg18
I00
sg19
g31
sbsg7
I4
sg18
I01
sg19
g88
sbsg18
I00
sg19
g38
sba(imyEvolve
Tree
p340
(dp341
g7
I4
sg8
(imyEvolve
Tree
p342
(dp343
g7
I3
sg8
(imyEvolve
Tree
p344
(dp345
g11
(imyEvolve
Tree
p346
(dp347
g7
I1
sg8
(imyEvolve
Tree
p348
(dp349
g7
I0
sg17
I00
sbsg22
(imyEvolve
Tree
p350
(dp351
g7
I0
sg17
I00
sbsg18
I00
sg19
g38
sbsg7
I2
sg18
I01
sg19
g88
sbsg22
(imyEvolve
Tree
p352
(dp353
g11
(imyEvolve
Tree
p354
(dp355
g7
I1
sg8
(imyEvolve
Tree
p356
(dp357
g7
I0
sg17
I00
sbsg22
(imyEvolve
Tree
p358
(dp359
g7
I0
sg16
F-3.755895896139021
sg17
I01
sbsg18
I00
sg19
g31
sbsg7
I2
sg18
I01
sg19
g20
sbsg18
I00
sg19
g49
sbsg22
(imyEvolve
Tree
p360
(dp361
g7
I3
sg8
(imyEvolve
Tree
p362
(dp363
g7
I2
sg8
(imyEvolve
Tree
p364
(dp365
g7
I1
sg8
(imyEvolve
Tree
p366
(dp367
g7
I0
sg16
F-1.5239112546197084
sg17
I01
sbsg22
(imyEvolve
Tree
p368
(dp369
g7
I0
sg17
I00
sbsg18
I00
sg19
g38
sbsg22
(imyEvolve
Tree
p370
(dp371
g11
(imyEvolve
Tree
p372
(dp373
g7
I0
sg17
I00
sbsg7
I1
sg18
I01
sg19
g21
sbsg18
I00
sg19
g49
sbsg22
(imyEvolve
Tree
p374
(dp375
g11
(imyEvolve
Tree
p376
(dp377
g11
(imyEvolve
Tree
p378
(dp379
g7
I0
sg17
I00
sbsg7
I1
sg18
I01
sg19
g88
sbsg7
I2
sg18
I01
sg19
g20
sbsg18
I00
sg19
g31
sbsg18
I00
sg19
g49
sba(imyEvolve
Tree
p380
(dp381
g7
I4
sg8
(imyEvolve
Tree
p382
(dp383
g7
I3
sg8
(imyEvolve
Tree
p384
(dp385
g11
(imyEvolve
Tree
p386
(dp387
g11
(imyEvolve
Tree
p388
(dp389
g7
I0
sg17
I00
sbsg7
I1
sg18
I01
sg19
g20
sbsg7
I2
sg18
I01
sg19
g21
sbsg22
(imyEvolve
Tree
p390
(dp391
g11
(imyEvolve
Tree
p392
(dp393
g11
(imyEvolve
Tree
p394
(dp395
g7
I0
sg16
F-3.7374588272126754
sg17
I01
sbsg7
I1
sg18
I01
sg19
g20
sbsg7
I2
sg18
I01
sg19
g21
sbsg18
I00
sg19
g31
sbsg22
(imyEvolve
Tree
p396
(dp397
g11
(imyEvolve
Tree
p398
(dp399
g11
(imyEvolve
Tree
p400
(dp401
g7
I1
sg8
(imyEvolve
Tree
p402
(dp403
g7
I0
sg16
F-4.03696983560084
sg17
I01
sbsg22
(imyEvolve
Tree
p404
(dp405
g7
I0
sg17
I00
sbsg18
I00
sg19
g38
sbsg7
I2
sg18
I01
sg19
g21
sbsg7
I3
sg18
I01
sg19
g20
sbsg18
I00
sg19
g38
sba(imyEvolve
Tree
p406
(dp407
g11
(imyEvolve
Tree
p408
(dp409
g7
I3
sg8
(imyEvolve
Tree
p410
(dp411
g7
I2
sg8
(imyEvolve
Tree
p412
(dp413
g11
(imyEvolve
Tree
p414
(dp415
g7
I0
sg17
I00
sbsg7
I1
sg18
I01
sg19
g20
sbsg22
(imyEvolve
Tree
p416
(dp417
g7
I1
sg8
(imyEvolve
Tree
p418
(dp419
g7
I0
sg17
I00
sbsg22
(imyEvolve
Tree
p420
(dp421
g7
I0
sg17
I00
sbsg18
I00
sg19
g31
sbsg18
I00
sg19
g31
sbsg22
(imyEvolve
Tree
p422
(dp423
g11
(imyEvolve
Tree
p424
(dp425
g7
I1
sg8
(imyEvolve
Tree
p426
(dp427
g7
I0
sg16
F-2.4188196116554996
sg17
I01
sbsg22
(imyEvolve
Tree
p428
(dp429
g7
I0
sg17
I00
sbsg18
I00
sg19
g49
sbsg7
I2
sg18
I01
sg19
g21
sbsg18
I00
sg19
g49
sbsg7
I4
sg18
I01
sg19
g137
sba(imyEvolve
Tree
p430
(dp431
g7
I2
sg8
(imyEvolve
Tree
p432
(dp433
g7
I1
sg8
(imyEvolve
Tree
p434
(dp435
g7
I0
sg16
F2.8472543170419993
sg17
I01
sbsg22
(imyEvolve
Tree
p436
(dp437
g7
I0
sg16
F-0.6571446568927719
sg17
I01
sbsg18
I00
sg19
g38
sbsg22
(imyEvolve
Tree
p438
(dp439
g7
I1
sg8
(imyEvolve
Tree
p440
(dp441
g7
I0
sg17
I00
sbsg22
(imyEvolve
Tree
p442
(dp443
g7
I0
sg17
I00
sbsg18
I00
sg19
g31
sbsg18
I00
sg19
g38
sba(imyEvolve
Tree
p444
(dp445
g11
(imyEvolve
Tree
p446
(dp447
g11
(imyEvolve
Tree
p448
(dp449
g11
(imyEvolve
Tree
p450
(dp451
g7
I0
sg16
F1.3846179987811258
sg17
I01
sbsg7
I1
sg18
I01
sg19
g88
sbsg7
I2
sg18
I01
sg19
g21
sbsg7
I3
sg18
I01
sg19
g88
sba(imyEvolve
Tree
p452
(dp453
g11
(imyEvolve
Tree
p454
(dp455
g11
(imyEvolve
Tree
p456
(dp457
g7
I0
sg16
F-4.418060076641157
sg17
I01
sbsg7
I1
sg18
I01
sg19
g137
sbsg7
I2
sg18
I01
sg19
g21
sbaasS'weightSharing'
p458
(lp459
I00
aI00
asS'fitnessValid'
p460
I00
sS'fitness'
p461
cnumpy.core.multiarray
scalar
p462
(cnumpy
dtype
p463
(S'f8'
p464
I0
I1
tp465
Rp466
(I3
S'<'
p467
NNNI-1
I-1
I0
tp468
bS'\x1f\x85\xeb\xe1\xc0\x1e\xe6?'
p469
tp470
Rp471
sS'alpha'
p472
F0.002471587988659634
sS'resolution'
p473
I37
sb.