(imyEvolve
Individual
p0
(dp1
S'funcs'
p2
(lp3
(lp4
(imyEvolve
Tree
p5
(dp6
S'below'
p7
(imyEvolve
Tree
p8
(dp9
g7
(imyEvolve
Tree
p10
(dp11
g7
(imyEvolve
Tree
p12
(dp13
S'depth'
p14
I2
sS'left'
p15
(imyEvolve
Tree
p16
(dp17
g7
(imyEvolve
Tree
p18
(dp19
g14
I0
sS'constant'
p20
F-2.7451035143208005
sS'isConstant'
p21
I01
sbsg14
I1
sS'single'
p22
I01
sS'op'
p23
cmyEvolve
absSqrt
p24
sbsS'right'
p25
(imyEvolve
Tree
p26
(dp27
g7
(imyEvolve
Tree
p28
(dp29
g14
I0
sg21
I00
sbsg14
I1
sg22
I01
sg23
g24
sbsg22
I00
sg23
coperator
add
p30
sbsg14
I3
sg22
I01
sg23
g24
sbsg14
I4
sg22
I01
sg23
cmyEvolve
square
p31
sbsg14
I5
sg22
I01
sg23
g31
sba(imyEvolve
Tree
p32
(dp33
g7
(imyEvolve
Tree
p34
(dp35
g14
I3
sg15
(imyEvolve
Tree
p36
(dp37
g7
(imyEvolve
Tree
p38
(dp39
g7
(imyEvolve
Tree
p40
(dp41
g14
I0
sg20
F3.099401739089963
sg21
I01
sbsg14
I1
sg22
I01
sg23
cmath
cos
p42
sbsg14
I2
sg22
I01
sg23
g42
sbsg25
(imyEvolve
Tree
p43
(dp44
g7
(imyEvolve
Tree
p45
(dp46
g7
(imyEvolve
Tree
p47
(dp48
g14
I0
sg21
I00
sbsg14
I1
sg22
I01
sg23
g42
sbsg14
I2
sg22
I01
sg23
g42
sbsg22
I00
sg23
coperator
mul
p49
sbsg14
I4
sg22
I01
sg23
g31
sba(imyEvolve
Tree
p50
(dp51
g14
I2
sg15
(imyEvolve
Tree
p52
(dp53
g7
(imyEvolve
Tree
p54
(dp55
g14
I0
sg20
F-3.5646840693114443
sg21
I01
sbsg14
I1
sg22
I01
sg23
g42
sbsg25
(imyEvolve
Tree
p56
(dp57
g7
(imyEvolve
Tree
p58
(dp59
g14
I0
sg20
F2.476121323340621
sg21
I01
sbsg14
I1
sg22
I01
sg23
g42
sbsg22
I00
sg23
coperator
sub
p60
sba(imyEvolve
Tree
p61
(dp62
g14
I3
sg15
(imyEvolve
Tree
p63
(dp64
g7
(imyEvolve
Tree
p65
(dp66
g14
I1
sg15
(imyEvolve
Tree
p67
(dp68
g14
I0
sg21
I00
sbsg25
(imyEvolve
Tree
p69
(dp70
g14
I0
sg21
I00
sbsg22
I00
sg23
g49
sbsg14
I2
sg22
I01
sg23
g31
sbsg25
(imyEvolve
Tree
p71
(dp72
g14
I2
sg15
(imyEvolve
Tree
p73
(dp74
g7
(imyEvolve
Tree
p75
(dp76
g14
I0
sg20
F0.7956946296346468
sg21
I01
sbsg14
I1
sg22
I01
sg23
g31
sbsg25
(imyEvolve
Tree
p77
(dp78
g7
(imyEvolve
Tree
p79
(dp80
g14
I0
sg21
I00
sbsg14
I1
sg22
I01
sg23
cmath
sin
p81
sbsg22
I00
sg23
g30
sbsg22
I00
sg23
g49
sba(imyEvolve
Tree
p82
(dp83
g14
I4
sg15
(imyEvolve
Tree
p84
(dp85
g14
I3
sg15
(imyEvolve
Tree
p86
(dp87
g7
(imyEvolve
Tree
p88
(dp89
g7
(imyEvolve
Tree
p90
(dp91
g14
I0
sg21
I00
sbsg14
I1
sg22
I01
sg23
g81
sbsg14
I2
sg22
I01
sg23
g81
sbsg25
(imyEvolve
Tree
p92
(dp93
g14
I2
sg15
(imyEvolve
Tree
p94
(dp95
g14
I1
sg15
(imyEvolve
Tree
p96
(dp97
g14
I0
sg21
I00
sbsg25
(imyEvolve
Tree
p98
(dp99
g14
I0
sg21
I00
sbsg22
I00
sg23
g49
sbsg25
(imyEvolve
Tree
p100
(dp101
g14
I1
sg15
(imyEvolve
Tree
p102
(dp103
g14
I0
sg21
I00
sbsg25
(imyEvolve
Tree
p104
(dp105
g14
I0
sg20
F-4.792149397178304
sg21
I01
sbsg22
I00
sg23
g60
sbsg22
I00
sg23
g49
sbsg22
I00
sg23
g60
sbsg25
(imyEvolve
Tree
p106
(dp107
g7
(imyEvolve
Tree
p108
(dp109
g7
(imyEvolve
Tree
p110
(dp111
g7
(imyEvolve
Tree
p112
(dp113
g14
I0
sg21
I00
sbsg14
I1
sg22
I01
sg23
g31
sbsg14
I2
sg22
I01
sg23
g24
sbsg14
I3
sg22
I01
sg23
g31
sbsg22
I00
sg23
g60
sba(imyEvolve
Tree
p114
(dp115
g7
(imyEvolve
Tree
p116
(dp117
g14
I3
sg15
(imyEvolve
Tree
p118
(dp119
g14
I2
sg15
(imyEvolve
Tree
p120
(dp121
g14
I1
sg15
(imyEvolve
Tree
p122
(dp123
g14
I0
sg20
F-3.391669365153499
sg21
I01
sbsg25
(imyEvolve
Tree
p124
(dp125
g14
I0
sg20
F2.2469172874803114
sg21
I01
sbsg22
I00
sg23
g60
sbsg25
(imyEvolve
Tree
p126
(dp127
g7
(imyEvolve
Tree
p128
(dp129
g14
I0
sg20
F-0.9087172293935408
sg21
I01
sbsg14
I1
sg22
I01
sg23
g42
sbsg22
I00
sg23
g49
sbsg25
(imyEvolve
Tree
p130
(dp131
g14
I2
sg15
(imyEvolve
Tree
p132
(dp133
g14
I1
sg15
(imyEvolve
Tree
p134
(dp135
g14
I0
sg21
I00
sbsg25
(imyEvolve
Tree
p136
(dp137
g14
I0
sg21
I00
sbsg22
I00
sg23
g49
sbsg25
(imyEvolve
Tree
p138
(dp139
g14
I1
sg15
(imyEvolve
Tree
p140
(dp141
g14
I0
sg21
I00
sbsg25
(imyEvolve
Tree
p142
(dp143
g14
I0
sg21
I00
sbsg22
I00
sg23
g30
sbsg22
I00
sg23
g30
sbsg22
I00
sg23
g30
sbsg14
I4
sg22
I01
sg23
g81
sba(imyEvolve
Tree
p144
(dp145
g14
I4
sg15
(imyEvolve
Tree
p146
(dp147
g7
(imyEvolve
Tree
p148
(dp149
g7
(imyEvolve
Tree
p150
(dp151
g7
(imyEvolve
Tree
p152
(dp153
g14
I0
sg21
I00
sbsg14
I1
sg22
I01
sg23
g24
sbsg14
I2
sg22
I01
sg23
g24
sbsg14
I3
sg22
I01
sg23
g24
sbsg25
(imyEvolve
Tree
p154
(dp155
g14
I3
sg15
(imyEvolve
Tree
p156
(dp157
g7
(imyEvolve
Tree
p158
(dp159
g14
I1
sg15
(imyEvolve
Tree
p160
(dp161
g14
I0
sg20
F-2.608867755539218
sg21
I01
sbsg25
(imyEvolve
Tree
p162
(dp163
g14
I0
sg20
F-0.6060055210725128
sg21
I01
sbsg22
I00
sg23
g60
sbsg14
I2
sg22
I01
sg23
g31
sbsg25
(imyEvolve
Tree
p164
(dp165
g7
(imyEvolve
Tree
p166
(dp167
g14
I1
sg15
(imyEvolve
Tree
p168
(dp169
g14
I0
sg21
I00
sbsg25
(imyEvolve
Tree
p170
(dp171
g14
I0
sg21
I00
sbsg22
I00
sg23
g60
sbsg14
I2
sg22
I01
sg23
g31
sbsg22
I00
sg23
g30
sbsg22
I00
sg23
g49
sba(imyEvolve
Tree
p172
(dp173
g7
(imyEvolve
Tree
p174
(dp175
g7
(imyEvolve
Tree
p176
(dp177
g14
I1
sg15
(imyEvolve
Tree
p178
(dp179
g14
I0
sg20
F0.27051420375534985
sg21
I01
sbsg25
(imyEvolve
Tree
p180
(dp181
g14
I0
sg21
I00
sbsg22
I00
sg23
g60
sbsg14
I2
sg22
I01
sg23
g31
sbsg14
I3
sg22
I01
sg23
g31
sba(imyEvolve
Tree
p182
(dp183
g7
(imyEvolve
Tree
p184
(dp185
g14
I3
sg15
(imyEvolve
Tree
p186
(dp187
g14
I2
sg15
(imyEvolve
Tree
p188
(dp189
g14
I1
sg15
(imyEvolve
Tree
p190
(dp191
g14
I0
sg21
I00
sbsg25
(imyEvolve
Tree
p192
(dp193
g14
I0
sg20
F-2.665966837835313
sg21
I01
sbsg22
I00
sg23
g49
sbsg25
(imyEvolve
Tree
p194
(dp195
g14
I1
sg15
(imyEvolve
Tree
p196
(dp197
g14
I0
sg21
I00
sbsg25
(imyEvolve
Tree
p198
(dp199
g14
I0
sg21
I00
sbsg22
I00
sg23
g30
sbsg22
I00
sg23
g49
sbsg25
(imyEvolve
Tree
p200
(dp201
g14
I2
sg15
(imyEvolve
Tree
p202
(dp203
g7
(imyEvolve
Tree
p204
(dp205
g14
I0
sg21
I00
sbsg14
I1
sg22
I01
sg23
g24
sbsg25
(imyEvolve
Tree
p206
(dp207
g7
(imyEvolve
Tree
p208
(dp209
g14
I0
sg20
F1.5790814336702583
sg21
I01
sbsg14
I1
sg22
I01
sg23
g24
sbsg22
I00
sg23
g49
sbsg22
I00
sg23
g60
sbsg14
I4
sg22
I01
sg23
g42
sba(imyEvolve
Tree
p210
(dp211
g7
(imyEvolve
Tree
p212
(dp213
g7
(imyEvolve
Tree
p214
(dp215
g14
I0
sg21
I00
sbsg14
I1
sg22
I01
sg23
g81
sbsg14
I2
sg22
I01
sg23
g42
sba(imyEvolve
Tree
p216
(dp217
g7
(imyEvolve
Tree
p218
(dp219
g14
I4
sg15
(imyEvolve
Tree
p220
(dp221
g14
I3
sg15
(imyEvolve
Tree
p222
(dp223
g14
I2
sg15
(imyEvolve
Tree
p224
(dp225
g14
I1
sg15
(imyEvolve
Tree
p226
(dp227
g14
I0
sg21
I00
sbsg25
(imyEvolve
Tree
p228
(dp229
g14
I0
sg21
I00
sbsg22
I00
sg23
g60
sbsg25
(imyEvolve
Tree
p230
(dp231
g14
I1
sg15
(imyEvolve
Tree
p232
(dp233
g14
I0
sg21
I00
sbsg25
(imyEvolve
Tree
p234
(dp235
g14
I0
sg20
F-2.141624339698404
sg21
I01
sbsg22
I00
sg23
g60
sbsg22
I00
sg23
g60
sbsg25
(imyEvolve
Tree
p236
(dp237
g14
I2
sg15
(imyEvolve
Tree
p238
(dp239
g14
I1
sg15
(imyEvolve
Tree
p240
(dp241
g14
I0
sg20
F-4.773523641665578
sg21
I01
sbsg25
(imyEvolve
Tree
p242
(dp243
g14
I0
sg21
I00
sbsg22
I00
sg23
g49
sbsg25
(imyEvolve
Tree
p244
(dp245
g14
I1
sg15
(imyEvolve
Tree
p246
(dp247
g14
I0
sg21
I00
sbsg25
(imyEvolve
Tree
p248
(dp249
g14
I0
sg20
F-3.5031102873512587
sg21
I01
sbsg22
I00
sg23
g60
sbsg22
I00
sg23
g60
sbsg22
I00
sg23
g60
sbsg25
(imyEvolve
Tree
p250
(dp251
g14
I3
sg15
(imyEvolve
Tree
p252
(dp253
g7
(imyEvolve
Tree
p254
(dp255
g7
(imyEvolve
Tree
p256
(dp257
g14
I0
sg20
F0.07135703405022031
sg21
I01
sbsg14
I1
sg22
I01
sg23
g24
sbsg14
I2
sg22
I01
sg23
g81
sbsg25
(imyEvolve
Tree
p258
(dp259
g14
I2
sg15
(imyEvolve
Tree
p260
(dp261
g14
I1
sg15
(imyEvolve
Tree
p262
(dp263
g14
I0
sg21
I00
sbsg25
(imyEvolve
Tree
p264
(dp265
g14
I0
sg20
F1.2120781398537295
sg21
I01
sbsg22
I00
sg23
g30
sbsg25
(imyEvolve
Tree
p266
(dp267
g14
I1
sg15
(imyEvolve
Tree
p268
(dp269
g14
I0
sg20
F3.930105090676774
sg21
I01
sbsg25
(imyEvolve
Tree
p270
(dp271
g14
I0
sg20
F4.6900703708386455
sg21
I01
sbsg22
I00
sg23
g60
sbsg22
I00
sg23
g60
sbsg22
I00
sg23
g49
sbsg22
I00
sg23
g60
sbsg14
I5
sg22
I01
sg23
g81
sba(imyEvolve
Tree
p272
(dp273
g7
(imyEvolve
Tree
p274
(dp275
g14
I2
sg15
(imyEvolve
Tree
p276
(dp277
g14
I1
sg15
(imyEvolve
Tree
p278
(dp279
g14
I0
sg20
F-0.6342474500400517
sg21
I01
sbsg25
(imyEvolve
Tree
p280
(dp281
g14
I0
sg20
F1.8345228889486478
sg21
I01
sbsg22
I00
sg23
g49
sbsg25
(imyEvolve
Tree
p282
(dp283
g7
(imyEvolve
Tree
p284
(dp285
g14
I0
sg20
F-3.287803067398402
sg21
I01
sbsg14
I1
sg22
I01
sg23
g42
sbsg22
I00
sg23
g60
sbsg14
I3
sg22
I01
sg23
g42
sba(imyEvolve
Tree
p286
(dp287
g14
I5
sg15
(imyEvolve
Tree
p288
(dp289
g7
(imyEvolve
Tree
p290
(dp291
g14
I3
sg15
(imyEvolve
Tree
p292
(dp293
g7
(imyEvolve
Tree
p294
(dp295
g7
(imyEvolve
Tree
p296
(dp297
g14
I0
sg21
I00
sbsg14
I1
sg22
I01
sg23
g81
sbsg14
I2
sg22
I01
sg23
g81
sbsg25
(imyEvolve
Tree
p298
(dp299
g7
(imyEvolve
Tree
p300
(dp301
g7
(imyEvolve
Tree
p302
(dp303
g14
I0
sg21
I00
sbsg14
I1
sg22
I01
sg23
g31
sbsg14
I2
sg22
I01
sg23
g81
sbsg22
I00
sg23
g49
sbsg14
I4
sg22
I01
sg23
g81
sbsg25
(imyEvolve
Tree
p304
(dp305
g7
(imyEvolve
Tree
p306
(dp307
g14
I3
sg15
(imyEvolve
Tree
p308
(dp309
g14
I2
sg15
(imyEvolve
Tree
p310
(dp311
g14
I1
sg15
(imyEvolve
Tree
p312
(dp313
g14
I0
sg20
F-1.7638000267129819
sg21
I01
sbsg25
(imyEvolve
Tree
p314
(dp315
g14
I0
sg21
I00
sbsg22
I00
sg23
g60
sbsg25
(imyEvolve
Tree
p316
(dp317
g14
I1
sg15
(imyEvolve
Tree
p318
(dp319
g14
I0
sg20
F1.0041980509326986
sg21
I01
sbsg25
(imyEvolve
Tree
p320
(dp321
g14
I0
sg20
F-3.2213640759872075
sg21
I01
sbsg22
I00
sg23
g60
sbsg22
I00
sg23
g30
sbsg25
(imyEvolve
Tree
p322
(dp323
g14
I2
sg15
(imyEvolve
Tree
p324
(dp325
g14
I1
sg15
(imyEvolve
Tree
p326
(dp327
g14
I0
sg21
I00
sbsg25
(imyEvolve
Tree
p328
(dp329
g14
I0
sg21
I00
sbsg22
I00
sg23
g30
sbsg25
(imyEvolve
Tree
p330
(dp331
g14
I1
sg15
(imyEvolve
Tree
p332
(dp333
g14
I0
sg21
I00
sbsg25
(imyEvolve
Tree
p334
(dp335
g14
I0
sg20
F2.9937398087377147
sg21
I01
sbsg22
I00
sg23
g30
sbsg22
I00
sg23
g60
sbsg22
I00
sg23
g49
sbsg14
I4
sg22
I01
sg23
g42
sbsg22
I00
sg23
g60
sbaa(lp336
(imyEvolve
Tree
p337
(dp338
g7
(imyEvolve
Tree
p339
(dp340
g7
(imyEvolve
Tree
p341
(dp342
g7
(imyEvolve
Tree
p343
(dp344
g14
I1
sg15
(imyEvolve
Tree
p345
(dp346
g14
I0
sg20
F4.824365439216333
sg21
I01
sbsg25
(imyEvolve
Tree
p347
(dp348
g14
I0
sg21
I00
sbsg22
I00
sg23
g60
sbsg14
I2
sg22
I01
sg23
g42
sbsg14
I3
sg22
I01
sg23
g24
sbsg14
I4
sg22
I01
sg23
g42
sba(imyEvolve
Tree
p349
(dp350
g14
I4
sg15
(imyEvolve
Tree
p351
(dp352
g7
(imyEvolve
Tree
p353
(dp354
g7
(imyEvolve
Tree
p355
(dp356
g7
(imyEvolve
Tree
p357
(dp358
g14
I0
sg20
F2.820763047406861
sg21
I01
sbsg14
I1
sg22
I01
sg23
g42
sbsg14
I2
sg22
I01
sg23
g31
sbsg14
I3
sg22
I01
sg23
g42
sbsg25
(imyEvolve
Tree
p359
(dp360
g7
(imyEvolve
Tree
p361
(dp362
g14
I2
sg15
(imyEvolve
Tree
p363
(dp364
g14
I1
sg15
(imyEvolve
Tree
p365
(dp366
g14
I0
sg20
F2.738634620909237
sg21
I01
sbsg25
(imyEvolve
Tree
p367
(dp368
g14
I0
sg21
I00
sbsg22
I00
sg23
g60
sbsg25
(imyEvolve
Tree
p369
(dp370
g14
I1
sg15
(imyEvolve
Tree
p371
(dp372
g14
I0
sg21
I00
sbsg25
(imyEvolve
Tree
p373
(dp374
g14
I0
sg20
F4.252524230561352
sg21
I01
sbsg22
I00
sg23
g49
sbsg22
I00
sg23
g30
sbsg14
I3
sg22
I01
sg23
g31
sbsg22
I00
sg23
g49
sba(imyEvolve
Tree
p375
(dp376
g7
(imyEvolve
Tree
p377
(dp378
g7
(imyEvolve
Tree
p379
(dp380
g7
(imyEvolve
Tree
p381
(dp382
g14
I2
sg15
(imyEvolve
Tree
p383
(dp384
g14
I1
sg15
(imyEvolve
Tree
p385
(dp386
g14
I0
sg20
F-0.5137167499625805
sg21
I01
sbsg25
(imyEvolve
Tree
p387
(dp388
g14
I0
sg21
I00
sbsg22
I00
sg23
g49
sbsg25
(imyEvolve
Tree
p389
(dp390
g7
(imyEvolve
Tree
p391
(dp392
g14
I0
sg20
F4.690398938443108
sg21
I01
sbsg14
I1
sg22
I01
sg23
g81
sbsg22
I00
sg23
g49
sbsg14
I3
sg22
I01
sg23
g42
sbsg14
I4
sg22
I01
sg23
g81
sbsg14
I5
sg22
I01
sg23
g42
sba(imyEvolve
Tree
p393
(dp394
g14
I5
sg15
(imyEvolve
Tree
p395
(dp396
g7
(imyEvolve
Tree
p397
(dp398
g14
I3
sg15
(imyEvolve
Tree
p399
(dp400
g14
I2
sg15
(imyEvolve
Tree
p401
(dp402
g7
(imyEvolve
Tree
p403
(dp404
g14
I0
sg20
F3.8053643149140886
sg21
I01
sbsg14
I1
sg22
I01
sg23
g24
sbsg25
(imyEvolve
Tree
p405
(dp406
g7
(imyEvolve
Tree
p407
(dp408
g14
I0
sg20
F-3.0526193157697836
sg21
I01
sbsg14
I1
sg22
I01
sg23
g24
sbsg22
I00
sg23
g60
sbsg25
(imyEvolve
Tree
p409
(dp410
g7
(imyEvolve
Tree
p411
(dp412
g7
(imyEvolve
Tree
p413
(dp414
g14
I0
sg20
F-0.7744364319606927
sg21
I01
sbsg14
I1
sg22
I01
sg23
g42
sbsg14
I2
sg22
I01
sg23
g24
sbsg22
I00
sg23
g30
sbsg14
I4
sg22
I01
sg23
g31
sbsg25
(imyEvolve
Tree
p415
(dp416
g7
(imyEvolve
Tree
p417
(dp418
g14
I3
sg15
(imyEvolve
Tree
p419
(dp420
g7
(imyEvolve
Tree
p421
(dp422
g7
(imyEvolve
Tree
p423
(dp424
g14
I0
sg21
I00
sbsg14
I1
sg22
I01
sg23
g24
sbsg14
I2
sg22
I01
sg23
g31
sbsg25
(imyEvolve
Tree
p425
(dp426
g7
(imyEvolve
Tree
p427
(dp428
g14
I1
sg15
(imyEvolve
Tree
p429
(dp430
g14
I0
sg21
I00
sbsg25
(imyEvolve
Tree
p431
(dp432
g14
I0
sg21
I00
sbsg22
I00
sg23
g30
sbsg14
I2
sg22
I01
sg23
g24
sbsg22
I00
sg23
g49
sbsg14
I4
sg22
I01
sg23
g24
sbsg22
I00
sg23
g49
sba(imyEvolve
Tree
p433
(dp434
g14
I2
sg15
(imyEvolve
Tree
p435
(dp436
g7
(imyEvolve
Tree
p437
(dp438
g14
I0
sg21
I00
sbsg14
I1
sg22
I01
sg23
g81
sbsg25
(imyEvolve
Tree
p439
(dp440
g7
(imyEvolve
Tree
p441
(dp442
g14
I0
sg20
F-2.154640886404419
sg21
I01
sbsg14
I1
sg22
I01
sg23
g31
sbsg22
I00
sg23
g60
sba(imyEvolve
Tree
p443
(dp444
g14
I2
sg15
(imyEvolve
Tree
p445
(dp446
g14
I1
sg15
(imyEvolve
Tree
p447
(dp448
g14
I0
sg21
I00
sbsg25
(imyEvolve
Tree
p449
(dp450
g14
I0
sg21
I00
sbsg22
I00
sg23
g49
sbsg25
(imyEvolve
Tree
p451
(dp452
g7
(imyEvolve
Tree
p453
(dp454
g14
I0
sg20
F-0.9037764968624309
sg21
I01
sbsg14
I1
sg22
I01
sg23
g24
sbsg22
I00
sg23
g30
sba(imyEvolve
Tree
p455
(dp456
g14
I4
sg15
(imyEvolve
Tree
p457
(dp458
g14
I3
sg15
(imyEvolve
Tree
p459
(dp460
g14
I2
sg15
(imyEvolve
Tree
p461
(dp462
g7
(imyEvolve
Tree
p463
(dp464
g14
I0
sg21
I00
sbsg14
I1
sg22
I01
sg23
g24
sbsg25
(imyEvolve
Tree
p465
(dp466
g7
(imyEvolve
Tree
p467
(dp468
g14
I0
sg20
F3.5227697798123625
sg21
I01
sbsg14
I1
sg22
I01
sg23
g42
sbsg22
I00
sg23
g60
sbsg25
(imyEvolve
Tree
p469
(dp470
g7
(imyEvolve
Tree
p471
(dp472
g14
I1
sg15
(imyEvolve
Tree
p473
(dp474
g14
I0
sg20
F1.3830548533022755
sg21
I01
sbsg25
(imyEvolve
Tree
p475
(dp476
g14
I0
sg20
F2.9555694713033134
sg21
I01
sbsg22
I00
sg23
g49
sbsg14
I2
sg22
I01
sg23
g24
sbsg22
I00
sg23
g49
sbsg25
(imyEvolve
Tree
p477
(dp478
g7
(imyEvolve
Tree
p479
(dp480
g14
I2
sg15
(imyEvolve
Tree
p481
(dp482
g14
I1
sg15
(imyEvolve
Tree
p483
(dp484
g14
I0
sg20
F3.62556218312279
sg21
I01
sbsg25
(imyEvolve
Tree
p485
(dp486
g14
I0
sg20
F-2.7144257627115556
sg21
I01
sbsg22
I00
sg23
g49
sbsg25
(imyEvolve
Tree
p487
(dp488
g7
(imyEvolve
Tree
p489
(dp490
g14
I0
sg20
F3.7636309940316632
sg21
I01
sbsg14
I1
sg22
I01
sg23
g81
sbsg22
I00
sg23
g60
sbsg14
I3
sg22
I01
sg23
g31
sbsg22
I00
sg23
g49
sba(imyEvolve
Tree
p491
(dp492
g14
I3
sg15
(imyEvolve
Tree
p493
(dp494
g7
(imyEvolve
Tree
p495
(dp496
g7
(imyEvolve
Tree
p497
(dp498
g14
I0
sg20
F-0.6233937809019938
sg21
I01
sbsg14
I1
sg22
I01
sg23
g81
sbsg14
I2
sg22
I01
sg23
g24
sbsg25
(imyEvolve
Tree
p499
(dp500
g7
(imyEvolve
Tree
p501
(dp502
g7
(imyEvolve
Tree
p503
(dp504
g14
I0
sg20
F4.01221787521132
sg21
I01
sbsg14
I1
sg22
I01
sg23
g81
sbsg14
I2
sg22
I01
sg23
g42
sbsg22
I00
sg23
g30
sba(imyEvolve
Tree
p505
(dp506
g14
I2
sg15
(imyEvolve
Tree
p507
(dp508
g7
(imyEvolve
Tree
p509
(dp510
g14
I0
sg20
F-3.038207464528342
sg21
I01
sbsg14
I1
sg22
I01
sg23
g24
sbsg25
(imyEvolve
Tree
p511
(dp512
g14
I1
sg15
(imyEvolve
Tree
p513
(dp514
g14
I0
sg20
F3.505747599117555
sg21
I01
sbsg25
(imyEvolve
Tree
p515
(dp516
g14
I0
sg20
F4.803534815095835
sg21
I01
sbsg22
I00
sg23
g60
sbsg22
I00
sg23
g30
sba(imyEvolve
Tree
p517
(dp518
g14
I3
sg15
(imyEvolve
Tree
p519
(dp520
g7
(imyEvolve
Tree
p521
(dp522
g14
I1
sg15
(imyEvolve
Tree
p523
(dp524
g14
I0
sg20
F1.8542616848833093
sg21
I01
sbsg25
(imyEvolve
Tree
p525
(dp526
g14
I0
sg21
I00
sbsg22
I00
sg23
g30
sbsg14
I2
sg22
I01
sg23
g31
sbsg25
(imyEvolve
Tree
p527
(dp528
g7
(imyEvolve
Tree
p529
(dp530
g7
(imyEvolve
Tree
p531
(dp532
g14
I0
sg20
F4.50679380615219
sg21
I01
sbsg14
I1
sg22
I01
sg23
g24
sbsg14
I2
sg22
I01
sg23
g24
sbsg22
I00
sg23
g49
sba(imyEvolve
Tree
p533
(dp534
g14
I5
sg15
(imyEvolve
Tree
p535
(dp536
g7
(imyEvolve
Tree
p537
(dp538
g14
I3
sg15
(imyEvolve
Tree
p539
(dp540
g7
(imyEvolve
Tree
p541
(dp542
g14
I1
sg15
(imyEvolve
Tree
p543
(dp544
g14
I0
sg21
I00
sbsg25
(imyEvolve
Tree
p545
(dp546
g14
I0
sg20
F3.176801083185218
sg21
I01
sbsg22
I00
sg23
g30
sbsg14
I2
sg22
I01
sg23
g42
sbsg25
(imyEvolve
Tree
p547
(dp548
g7
(imyEvolve
Tree
p549
(dp550
g14
I1
sg15
(imyEvolve
Tree
p551
(dp552
g14
I0
sg20
F3.4959005490366675
sg21
I01
sbsg25
(imyEvolve
Tree
p553
(dp554
g14
I0
sg21
I00
sbsg22
I00
sg23
g30
sbsg14
I2
sg22
I01
sg23
g31
sbsg22
I00
sg23
g49
sbsg14
I4
sg22
I01
sg23
g42
sbsg25
(imyEvolve
Tree
p555
(dp556
g14
I4
sg15
(imyEvolve
Tree
p557
(dp558
g7
(imyEvolve
Tree
p559
(dp560
g7
(imyEvolve
Tree
p561
(dp562
g14
I1
sg15
(imyEvolve
Tree
p563
(dp564
g14
I0
sg20
F2.673428239643572
sg21
I01
sbsg25
(imyEvolve
Tree
p565
(dp566
g14
I0
sg20
F-1.0390930076009566
sg21
I01
sbsg22
I00
sg23
g49
sbsg14
I2
sg22
I01
sg23
g31
sbsg14
I3
sg22
I01
sg23
g42
sbsg25
(imyEvolve
Tree
p567
(dp568
g14
I3
sg15
(imyEvolve
Tree
p569
(dp570
g7
(imyEvolve
Tree
p571
(dp572
g7
(imyEvolve
Tree
p573
(dp574
g14
I0
sg20
F-4.672717036933506
sg21
I01
sbsg14
I1
sg22
I01
sg23
g31
sbsg14
I2
sg22
I01
sg23
g81
sbsg25
(imyEvolve
Tree
p575
(dp576
g7
(imyEvolve
Tree
p577
(dp578
g7
(imyEvolve
Tree
p579
(dp580
g14
I0
sg21
I00
sbsg14
I1
sg22
I01
sg23
g31
sbsg14
I2
sg22
I01
sg23
g81
sbsg22
I00
sg23
g60
sbsg22
I00
sg23
g49
sbsg22
I00
sg23
g30
sba(imyEvolve
Tree
p581
(dp582
g14
I3
sg15
(imyEvolve
Tree
p583
(dp584
g7
(imyEvolve
Tree
p585
(dp586
g7
(imyEvolve
Tree
p587
(dp588
g14
I0
sg20
F3.5600452182831077
sg21
I01
sbsg14
I1
sg22
I01
sg23
g24
sbsg14
I2
sg22
I01
sg23
g24
sbsg25
(imyEvolve
Tree
p589
(dp590
g7
(imyEvolve
Tree
p591
(dp592
g14
I1
sg15
(imyEvolve
Tree
p593
(dp594
g14
I0
sg20
F-1.4934625754396635
sg21
I01
sbsg25
(imyEvolve
Tree
p595
(dp596
g14
I0
sg20
F-1.7691866995837713
sg21
I01
sbsg22
I00
sg23
g49
sbsg14
I2
sg22
I01
sg23
g24
sbsg22
I00
sg23
g30
sbaa(lp597
(imyEvolve
Tree
p598
(dp599
g7
(imyEvolve
Tree
p600
(dp601
g14
I4
sg15
(imyEvolve
Tree
p602
(dp603
g7
(imyEvolve
Tree
p604
(dp605
g14
I2
sg15
(imyEvolve
Tree
p606
(dp607
g7
(imyEvolve
Tree
p608
(dp609
g14
I0
sg21
I00
sbsg14
I1
sg22
I01
sg23
g24
sbsg25
(imyEvolve
Tree
p610
(dp611
g7
(imyEvolve
Tree
p612
(dp613
g14
I0
sg20
F1.5165960737603656
sg21
I01
sbsg14
I1
sg22
I01
sg23
g81
sbsg22
I00
sg23
g60
sbsg14
I3
sg22
I01
sg23
g42
sbsg25
(imyEvolve
Tree
p614
(dp615
g7
(imyEvolve
Tree
p616
(dp617
g14
I2
sg15
(imyEvolve
Tree
p618
(dp619
g7
(imyEvolve
Tree
p620
(dp621
g14
I0
sg20
F1.2545514475849648
sg21
I01
sbsg14
I1
sg22
I01
sg23
g42
sbsg25
(imyEvolve
Tree
p622
(dp623
g7
(imyEvolve
Tree
p624
(dp625
g14
I0
sg20
F-3.9372435144705085
sg21
I01
sbsg14
I1
sg22
I01
sg23
g81
sbsg22
I00
sg23
g60
sbsg14
I3
sg22
I01
sg23
g24
sbsg22
I00
sg23
g30
sbsg14
I5
sg22
I01
sg23
g31
sba(imyEvolve
Tree
p626
(dp627
g7
(imyEvolve
Tree
p628
(dp629
g7
(imyEvolve
Tree
p630
(dp631
g14
I0
sg20
F3.849130670762529
sg21
I01
sbsg14
I1
sg22
I01
sg23
g31
sbsg14
I2
sg22
I01
sg23
g24
sba(imyEvolve
Tree
p632
(dp633
g7
(imyEvolve
Tree
p634
(dp635
g14
I3
sg15
(imyEvolve
Tree
p636
(dp637
g7
(imyEvolve
Tree
p638
(dp639
g14
I1
sg15
(imyEvolve
Tree
p640
(dp641
g14
I0
sg21
I00
sbsg25
(imyEvolve
Tree
p642
(dp643
g14
I0
sg21
I00
sbsg22
I00
sg23
g60
sbsg14
I2
sg22
I01
sg23
g81
sbsg25
(imyEvolve
Tree
p644
(dp645
g7
(imyEvolve
Tree
p646
(dp647
g14
I1
sg15
(imyEvolve
Tree
p648
(dp649
g14
I0
sg21
I00
sbsg25
(imyEvolve
Tree
p650
(dp651
g14
I0
sg20
F-0.09635526717004339
sg21
I01
sbsg22
I00
sg23
g30
sbsg14
I2
sg22
I01
sg23
g42
sbsg22
I00
sg23
g30
sbsg14
I4
sg22
I01
sg23
g31
sba(imyEvolve
Tree
p652
(dp653
g14
I5
sg15
(imyEvolve
Tree
p654
(dp655
g7
(imyEvolve
Tree
p656
(dp657
g7
(imyEvolve
Tree
p658
(dp659
g14
I2
sg15
(imyEvolve
Tree
p660
(dp661
g14
I1
sg15
(imyEvolve
Tree
p662
(dp663
g14
I0
sg21
I00
sbsg25
(imyEvolve
Tree
p664
(dp665
g14
I0
sg20
F2.6705345649183787
sg21
I01
sbsg22
I00
sg23
g30
sbsg25
(imyEvolve
Tree
p666
(dp667
g14
I1
sg15
(imyEvolve
Tree
p668
(dp669
g14
I0
sg21
I00
sbsg25
(imyEvolve
Tree
p670
(dp671
g14
I0
sg21
I00
sbsg22
I00
sg23
g60
sbsg22
I00
sg23
g60
sbsg14
I3
sg22
I01
sg23
g31
sbsg14
I4
sg22
I01
sg23
g42
sbsg25
(imyEvolve
Tree
p672
(dp673
g7
(imyEvolve
Tree
p674
(dp675
g7
(imyEvolve
Tree
p676
(dp677
g7
(imyEvolve
Tree
p678
(dp679
g7
(imyEvolve
Tree
p680
(dp681
g14
I0
sg20
F-1.6950861317814492
sg21
I01
sbsg14
I1
sg22
I01
sg23
g81
sbsg14
I2
sg22
I01
sg23
g42
sbsg14
I3
sg22
I01
sg23
g24
sbsg14
I4
sg22
I01
sg23
g42
sbsg22
I00
sg23
g60
sba(imyEvolve
Tree
p682
(dp683
g7
(imyEvolve
Tree
p684
(dp685
g14
I4
sg15
(imyEvolve
Tree
p686
(dp687
g7
(imyEvolve
Tree
p688
(dp689
g14
I2
sg15
(imyEvolve
Tree
p690
(dp691
g14
I1
sg15
(imyEvolve
Tree
p692
(dp693
g14
I0
sg21
I00
sbsg25
(imyEvolve
Tree
p694
(dp695
g14
I0
sg20
F-0.6703876773803463
sg21
I01
sbsg22
I00
sg23
g30
sbsg25
(imyEvolve
Tree
p696
(dp697
g7
(imyEvolve
Tree
p698
(dp699
g14
I0
sg20
F0.0958160252161484
sg21
I01
sbsg14
I1
sg22
I01
sg23
g24
sbsg22
I00
sg23
g30
sbsg14
I3
sg22
I01
sg23
g24
sbsg25
(imyEvolve
Tree
p700
(dp701
g14
I3
sg15
(imyEvolve
Tree
p702
(dp703
g7
(imyEvolve
Tree
p704
(dp705
g14
I1
sg15
(imyEvolve
Tree
p706
(dp707
g14
I0
sg21
I00
sbsg25
(imyEvolve
Tree
p708
(dp709
g14
I0
sg20
F-4.061108236756955
sg21
I01
sbsg22
I00
sg23
g30
sbsg14
I2
sg22
I01
sg23
g42
sbsg25
(imyEvolve
Tree
p710
(dp711
g7
(imyEvolve
Tree
p712
(dp713
g14
I1
sg15
(imyEvolve
Tree
p714
(dp715
g14
I0
sg21
I00
sbsg25
(imyEvolve
Tree
p716
(dp717
g14
I0
sg21
I00
sbsg22
I00
sg23
g30
sbsg14
I2
sg22
I01
sg23
g24
sbsg22
I00
sg23
g49
sbsg22
I00
sg23
g30
sbsg14
I5
sg22
I01
sg23
g81
sba(imyEvolve
Tree
p718
(dp719
g14
I3
sg15
(imyEvolve
Tree
p720
(dp721
g14
I2
sg15
(imyEvolve
Tree
p722
(dp723
g14
I1
sg15
(imyEvolve
Tree
p724
(dp725
g14
I0
sg20
F-1.8122793603845224
sg21
I01
sbsg25
(imyEvolve
Tree
p726
(dp727
g14
I0
sg21
I00
sbsg22
I00
sg23
g60
sbsg25
(imyEvolve
Tree
p728
(dp729
g7
(imyEvolve
Tree
p730
(dp731
g14
I0
sg20
F-0.29080236282190697
sg21
I01
sbsg14
I1
sg22
I01
sg23
g24
sbsg22
I00
sg23
g30
sbsg25
(imyEvolve
Tree
p732
(dp733
g7
(imyEvolve
Tree
p734
(dp735
g14
I1
sg15
(imyEvolve
Tree
p736
(dp737
g14
I0
sg21
I00
sbsg25
(imyEvolve
Tree
p738
(dp739
g14
I0
sg20
F2.9438731536368232
sg21
I01
sbsg22
I00
sg23
g60
sbsg14
I2
sg22
I01
sg23
g24
sbsg22
I00
sg23
g60
sba(imyEvolve
Tree
p740
(dp741
g14
I5
sg15
(imyEvolve
Tree
p742
(dp743
g14
I4
sg15
(imyEvolve
Tree
p744
(dp745
g14
I3
sg15
(imyEvolve
Tree
p746
(dp747
g7
(imyEvolve
Tree
p748
(dp749
g14
I1
sg15
(imyEvolve
Tree
p750
(dp751
g14
I0
sg20
F-0.9189251332390302
sg21
I01
sbsg25
(imyEvolve
Tree
p752
(dp753
g14
I0
sg20
F0.39487230018298103
sg21
I01
sbsg22
I00
sg23
g30
sbsg14
I2
sg22
I01
sg23
g24
sbsg25
(imyEvolve
Tree
p754
(dp755
g7
(imyEvolve
Tree
p756
(dp757
g14
I1
sg15
(imyEvolve
Tree
p758
(dp759
g14
I0
sg21
I00
sbsg25
(imyEvolve
Tree
p760
(dp761
g14
I0
sg20
F-0.0531065694016819
sg21
I01
sbsg22
I00
sg23
g49
sbsg14
I2
sg22
I01
sg23
g31
sbsg22
I00
sg23
g30
sbsg25
(imyEvolve
Tree
p762
(dp763
g7
(imyEvolve
Tree
p764
(dp765
g7
(imyEvolve
Tree
p766
(dp767
g7
(imyEvolve
Tree
p768
(dp769
g14
I0
sg21
I00
sbsg14
I1
sg22
I01
sg23
g24
sbsg14
I2
sg22
I01
sg23
g42
sbsg14
I3
sg22
I01
sg23
g24
sbsg22
I00
sg23
g60
sbsg25
(imyEvolve
Tree
p770
(dp771
g14
I4
sg15
(imyEvolve
Tree
p772
(dp773
g7
(imyEvolve
Tree
p774
(dp775
g14
I2
sg15
(imyEvolve
Tree
p776
(dp777
g7
(imyEvolve
Tree
p778
(dp779
g14
I0
sg21
I00
sbsg14
I1
sg22
I01
sg23
g24
sbsg25
(imyEvolve
Tree
p780
(dp781
g7
(imyEvolve
Tree
p782
(dp783
g14
I0
sg20
F-1.404294234768436
sg21
I01
sbsg14
I1
sg22
I01
sg23
g24
sbsg22
I00
sg23
g49
sbsg14
I3
sg22
I01
sg23
g31
sbsg25
(imyEvolve
Tree
p784
(dp785
g7
(imyEvolve
Tree
p786
(dp787
g14
I2
sg15
(imyEvolve
Tree
p788
(dp789
g14
I1
sg15
(imyEvolve
Tree
p790
(dp791
g14
I0
sg20
F-0.33118344813483613
sg21
I01
sbsg25
(imyEvolve
Tree
p792
(dp793
g14
I0
sg21
I00
sbsg22
I00
sg23
g60
sbsg25
(imyEvolve
Tree
p794
(dp795
g7
(imyEvolve
Tree
p796
(dp797
g14
I0
sg20
F-0.6199462383008498
sg21
I01
sbsg14
I1
sg22
I01
sg23
g42
sbsg22
I00
sg23
g60
sbsg14
I3
sg22
I01
sg23
g42
sbsg22
I00
sg23
g60
sbsg22
I00
sg23
g49
sba(imyEvolve
Tree
p798
(dp799
g14
I5
sg15
(imyEvolve
Tree
p800
(dp801
g14
I4
sg15
(imyEvolve
Tree
p802
(dp803
g14
I3
sg15
(imyEvolve
Tree
p804
(dp805
g7
(imyEvolve
Tree
p806
(dp807
g7
(imyEvolve
Tree
p808
(dp809
g14
I0
sg20
F0.7091820136242033
sg21
I01
sbsg14
I1
sg22
I01
sg23
g24
sbsg14
I2
sg22
I01
sg23
g42
sbsg25
(imyEvolve
Tree
p810
(dp811
g14
I2
sg15
(imyEvolve
Tree
p812
(dp813
g14
I1
sg15
(imyEvolve
Tree
p814
(dp815
g14
I0
sg21
I00
sbsg25
(imyEvolve
Tree
p816
(dp817
g14
I0
sg21
I00
sbsg22
I00
sg23
g49
sbsg25
(imyEvolve
Tree
p818
(dp819
g14
I1
sg15
(imyEvolve
Tree
p820
(dp821
g14
I0
sg20
F-4.065357257052833
sg21
I01
sbsg25
(imyEvolve
Tree
p822
(dp823
g14
I0
sg20
F-1.8530075505055876
sg21
I01
sbsg22
I00
sg23
g60
sbsg22
I00
sg23
g30
sbsg22
I00
sg23
g49
sbsg25
(imyEvolve
Tree
p824
(dp825
g7
(imyEvolve
Tree
p826
(dp827
g14
I2
sg15
(imyEvolve
Tree
p828
(dp829
g14
I1
sg15
(imyEvolve
Tree
p830
(dp831
g14
I0
sg21
I00
sbsg25
(imyEvolve
Tree
p832
(dp833
g14
I0
sg21
I00
sbsg22
I00
sg23
g49
sbsg25
(imyEvolve
Tree
p834
(dp835
g14
I1
sg15
(imyEvolve
Tree
p836
(dp837
g14
I0
sg21
I00
sbsg25
(imyEvolve
Tree
p838
(dp839
g14
I0
sg21
I00
sbsg22
I00
sg23
g49
sbsg22
I00
sg23
g60
sbsg14
I3
sg22
I01
sg23
g24
sbsg22
I00
sg23
g60
sbsg25
(imyEvolve
Tree
p840
(dp841
g14
I4
sg15
(imyEvolve
Tree
p842
(dp843
g14
I3
sg15
(imyEvolve
Tree
p844
(dp845
g14
I2
sg15
(imyEvolve
Tree
p846
(dp847
g14
I1
sg15
(imyEvolve
Tree
p848
(dp849
g14
I0
sg20
F0.4314770591375572
sg21
I01
sbsg25
(imyEvolve
Tree
p850
(dp851
g14
I0
sg20
F0.4336108613588996
sg21
I01
sbsg22
I00
sg23
g30
sbsg25
(imyEvolve
Tree
p852
(dp853
g7
(imyEvolve
Tree
p854
(dp855
g14
I0
sg21
I00
sbsg14
I1
sg22
I01
sg23
g31
sbsg22
I00
sg23
g49
sbsg25
(imyEvolve
Tree
p856
(dp857
g7
(imyEvolve
Tree
p858
(dp859
g7
(imyEvolve
Tree
p860
(dp861
g14
I0
sg21
I00
sbsg14
I1
sg22
I01
sg23
g42
sbsg14
I2
sg22
I01
sg23
g81
sbsg22
I00
sg23
g60
sbsg25
(imyEvolve
Tree
p862
(dp863
g14
I3
sg15
(imyEvolve
Tree
p864
(dp865
g7
(imyEvolve
Tree
p866
(dp867
g7
(imyEvolve
Tree
p868
(dp869
g14
I0
sg20
F-4.651283254813288
sg21
I01
sbsg14
I1
sg22
I01
sg23
g42
sbsg14
I2
sg22
I01
sg23
g31
sbsg25
(imyEvolve
Tree
p870
(dp871
g7
(imyEvolve
Tree
p872
(dp873
g14
I1
sg15
(imyEvolve
Tree
p874
(dp875
g14
I0
sg21
I00
sbsg25
(imyEvolve
Tree
p876
(dp877
g14
I0
sg20
F-2.5540683236219994
sg21
I01
sbsg22
I00
sg23
g60
sbsg14
I2
sg22
I01
sg23
g81
sbsg22
I00
sg23
g30
sbsg22
I00
sg23
g60
sbsg22
I00
sg23
g30
sba(imyEvolve
Tree
p878
(dp879
g7
(imyEvolve
Tree
p880
(dp881
g7
(imyEvolve
Tree
p882
(dp883
g14
I3
sg15
(imyEvolve
Tree
p884
(dp885
g14
I2
sg15
(imyEvolve
Tree
p886
(dp887
g7
(imyEvolve
Tree
p888
(dp889
g14
I0
sg20
F4.914759125775186
sg21
I01
sbsg14
I1
sg22
I01
sg23
g31
sbsg25
(imyEvolve
Tree
p890
(dp891
g7
(imyEvolve
Tree
p892
(dp893
g14
I0
sg20
F-1.1919444557956407
sg21
I01
sbsg14
I1
sg22
I01
sg23
g31
sbsg22
I00
sg23
g49
sbsg25
(imyEvolve
Tree
p894
(dp895
g7
(imyEvolve
Tree
p896
(dp897
g7
(imyEvolve
Tree
p898
(dp899
g14
I0
sg21
I00
sbsg14
I1
sg22
I01
sg23
g31
sbsg14
I2
sg22
I01
sg23
g31
sbsg22
I00
sg23
g49
sbsg14
I4
sg22
I01
sg23
g81
sbsg14
I5
sg22
I01
sg23
g42
sbaasS'weightSharing'
p900
(lp901
I01
aI01
asS'fitnessValid'
p902
I00
sS'fitness'
p903
cnumpy.core.multiarray
scalar
p904
(cnumpy
dtype
p905
(S'f8'
p906
I0
I1
tp907
Rp908
(I3
S'<'
p909
NNNI-1
I-1
I0
tp910
bS'\x00\x14?\xc6c\xc3\x90\xbf'
p911
tp912
Rp913
sS'alpha'
p914
F0.009037424532423038
sS'resolution'
p915
I47
sb.