(imyEvolve
Individual
p0
(dp1
S'funcs'
p2
(lp3
(lp4
(imyEvolve
Tree
p5
(dp6
S'below'
p7
(imyEvolve
Tree
p8
(dp9
S'depth'
p10
I4
sS'left'
p11
(imyEvolve
Tree
p12
(dp13
g10
I3
sg11
(imyEvolve
Tree
p14
(dp15
g10
I2
sg11
(imyEvolve
Tree
p16
(dp17
g7
(imyEvolve
Tree
p18
(dp19
g10
I0
sS'constant'
p20
F0.3757007575653182
sS'isConstant'
p21
I01
sbsg10
I1
sS'single'
p22
I01
sS'op'
p23
cmath
cos
p24
sbsS'right'
p25
(imyEvolve
Tree
p26
(dp27
g7
(imyEvolve
Tree
p28
(dp29
g10
I0
sg20
F-0.46947802489112345
sg21
I01
sbsg10
I1
sg22
I01
sg23
cmyEvolve
absSqrt
p30
sbsg22
I00
sg23
coperator
mul
p31
sbsg25
(imyEvolve
Tree
p32
(dp33
g10
I2
sg11
(imyEvolve
Tree
p34
(dp35
g7
(imyEvolve
Tree
p36
(dp37
g10
I0
sg20
F-2.5956246342916534
sg21
I01
sbsg10
I1
sg22
I01
sg23
g30
sbsg25
(imyEvolve
Tree
p38
(dp39
g7
(imyEvolve
Tree
p40
(dp41
g10
I0
sg20
F1.2078794700741433
sg21
I01
sbsg10
I1
sg22
I01
sg23
g30
sbsg22
I00
sg23
coperator
sub
p42
sbsg22
I00
sg23
g31
sbsg25
(imyEvolve
Tree
p43
(dp44
g10
I3
sg11
(imyEvolve
Tree
p45
(dp46
g7
(imyEvolve
Tree
p47
(dp48
g10
I1
sg11
(imyEvolve
Tree
p49
(dp50
g10
I0
sg20
F-3.9536785133439025
sg21
I01
sbsg25
(imyEvolve
Tree
p51
(dp52
g10
I0
sg20
F0.21673711923354766
sg21
I01
sbsg22
I00
sg23
coperator
add
p53
sbsg10
I2
sg22
I01
sg23
cmath
sin
p54
sbsg25
(imyEvolve
Tree
p55
(dp56
g10
I2
sg11
(imyEvolve
Tree
p57
(dp58
g10
I1
sg11
(imyEvolve
Tree
p59
(dp60
g10
I0
sg20
F1.6518826290006405
sg21
I01
sbsg25
(imyEvolve
Tree
p61
(dp62
g10
I0
sg21
I00
sbsg22
I00
sg23
g31
sbsg25
(imyEvolve
Tree
p63
(dp64
g7
(imyEvolve
Tree
p65
(dp66
g10
I0
sg20
F-3.4598019913044564
sg21
I01
sbsg10
I1
sg22
I01
sg23
g24
sbsg22
I00
sg23
g42
sbsg22
I00
sg23
g31
sbsg22
I00
sg23
g42
sbsg10
I5
sg22
I01
sg23
g54
sba(imyEvolve
Tree
p67
(dp68
g11
(imyEvolve
Tree
p69
(dp70
g7
(imyEvolve
Tree
p71
(dp72
g11
(imyEvolve
Tree
p73
(dp74
g10
I0
sg20
F0.23403116206035524
sg21
I01
sbsg10
I1
sg25
(imyEvolve
Tree
p75
(dp76
g10
I0
sg21
I00
sbsg22
I00
sg23
g42
sbsg10
I2
sg22
I01
sg23
cmyEvolve
square
p77
sbsg10
I3
sg25
(imyEvolve
Tree
p78
(dp79
g11
(imyEvolve
Tree
p80
(dp81
g11
(imyEvolve
Tree
p82
(dp83
g10
I0
sg20
F3.5569515997570402
sg21
I01
sbsg10
I1
sg25
(imyEvolve
Tree
p84
(dp85
g10
I0
sg20
F2.219843764454441
sg21
I01
sbsg22
I00
sg23
g31
sbsg10
I2
sg25
(imyEvolve
Tree
p86
(dp87
g7
(imyEvolve
Tree
p88
(dp89
g10
I0
sg21
I00
sbsg10
I1
sg22
I01
sg23
g54
sbsg22
I00
sg23
g53
sbsg22
I00
sg23
g42
sba(imyEvolve
Tree
p90
(dp91
g10
I5
sg11
(imyEvolve
Tree
p92
(dp93
g7
(imyEvolve
Tree
p94
(dp95
g7
(imyEvolve
Tree
p96
(dp97
g7
(imyEvolve
Tree
p98
(dp99
g10
I1
sg11
(imyEvolve
Tree
p100
(dp101
g10
I0
sg20
F0.687829799995332
sg21
I01
sbsg25
(imyEvolve
Tree
p102
(dp103
g10
I0
sg20
F1.7619181962285637
sg21
I01
sbsg22
I00
sg23
g53
sbsg10
I2
sg22
I01
sg23
g54
sbsg10
I3
sg22
I01
sg23
g54
sbsg10
I4
sg22
I01
sg23
g54
sbsg25
(imyEvolve
Tree
p104
(dp105
g7
(imyEvolve
Tree
p106
(dp107
g7
(imyEvolve
Tree
p108
(dp109
g10
I2
sg11
(imyEvolve
Tree
p110
(dp111
g10
I1
sg11
(imyEvolve
Tree
p112
(dp113
g10
I0
sg20
F-0.5722094155252444
sg21
I01
sbsg25
(imyEvolve
Tree
p114
(dp115
g10
I0
sg20
F-4.329098022762401
sg21
I01
sbsg22
I00
sg23
g31
sbsg25
(imyEvolve
Tree
p116
(dp117
g7
(imyEvolve
Tree
p118
(dp119
g10
I0
sg20
F0.6600004019217351
sg21
I01
sbsg10
I1
sg22
I01
sg23
g77
sbsg22
I00
sg23
g53
sbsg10
I3
sg22
I01
sg23
g77
sbsg10
I4
sg22
I01
sg23
g30
sbsg22
I00
sg23
g31
sba(imyEvolve
Tree
p120
(dp121
g7
(imyEvolve
Tree
p122
(dp123
g11
(imyEvolve
Tree
p124
(dp125
g11
(imyEvolve
Tree
p126
(dp127
g10
I0
sg20
F0.36826992967050387
sg21
I01
sbsg10
I1
sg25
(imyEvolve
Tree
p128
(dp129
g10
I0
sg20
F4.856780197386492
sg21
I01
sbsg22
I00
sg23
g42
sbsg10
I2
sg25
(imyEvolve
Tree
p130
(dp131
g11
(imyEvolve
Tree
p132
(dp133
g10
I0
sg20
F-0.5563782429086759
sg21
I01
sbsg10
I1
sg25
(imyEvolve
Tree
p134
(dp135
g10
I0
sg20
F3.779247722163099
sg21
I01
sbsg22
I00
sg23
g31
sbsg22
I00
sg23
g42
sbsg10
I3
sg22
I01
sg23
g54
sba(imyEvolve
Tree
p136
(dp137
g7
(imyEvolve
Tree
p138
(dp139
g11
(imyEvolve
Tree
p140
(dp141
g11
(imyEvolve
Tree
p142
(dp143
g10
I0
sg21
I00
sbsg10
I1
sg25
(imyEvolve
Tree
p144
(dp145
g10
I0
sg21
I00
sbsg22
I00
sg23
g31
sbsg10
I2
sg25
(imyEvolve
Tree
p146
(dp147
g11
(imyEvolve
Tree
p148
(dp149
g10
I0
sg20
F0.9827745072408769
sg21
I01
sbsg10
I1
sg25
(imyEvolve
Tree
p150
(dp151
g10
I0
sg20
F-4.647679124196761
sg21
I01
sbsg22
I00
sg23
g31
sbsg22
I00
sg23
g53
sbsg10
I3
sg22
I01
sg23
g54
sba(imyEvolve
Tree
p152
(dp153
g11
(imyEvolve
Tree
p154
(dp155
g11
(imyEvolve
Tree
p156
(dp157
g7
(imyEvolve
Tree
p158
(dp159
g10
I0
sg21
I00
sbsg10
I1
sg22
I01
sg23
g30
sbsg10
I2
sg25
(imyEvolve
Tree
p160
(dp161
g11
(imyEvolve
Tree
p162
(dp163
g10
I0
sg20
F1.6357787650675082
sg21
I01
sbsg10
I1
sg25
(imyEvolve
Tree
p164
(dp165
g10
I0
sg21
I00
sbsg22
I00
sg23
g42
sbsg22
I00
sg23
g42
sbsg10
I3
sg25
(imyEvolve
Tree
p166
(dp167
g7
(imyEvolve
Tree
p168
(dp169
g11
(imyEvolve
Tree
p170
(dp171
g10
I0
sg20
F-0.9555988417013017
sg21
I01
sbsg10
I1
sg25
(imyEvolve
Tree
p172
(dp173
g10
I0
sg21
I00
sbsg22
I00
sg23
g42
sbsg10
I2
sg22
I01
sg23
g24
sbsg22
I00
sg23
g42
sba(imyEvolve
Tree
p174
(dp175
g7
(imyEvolve
Tree
p176
(dp177
g7
(imyEvolve
Tree
p178
(dp179
g10
I1
sg11
(imyEvolve
Tree
p180
(dp181
g10
I0
sg20
F-4.5566873166780475
sg21
I01
sbsg25
(imyEvolve
Tree
p182
(dp183
g10
I0
sg20
F2.5395630091271224
sg21
I01
sbsg22
I00
sg23
g31
sbsg10
I2
sg22
I01
sg23
g77
sbsg10
I3
sg22
I01
sg23
g77
sba(imyEvolve
Tree
p184
(dp185
g7
(imyEvolve
Tree
p186
(dp187
g7
(imyEvolve
Tree
p188
(dp189
g7
(imyEvolve
Tree
p190
(dp191
g11
(imyEvolve
Tree
p192
(dp193
g7
(imyEvolve
Tree
p194
(dp195
g10
I0
sg20
F-1.5266529772187711
sg21
I01
sbsg10
I1
sg22
I01
sg23
g24
sbsg10
I2
sg25
(imyEvolve
Tree
p196
(dp197
g11
(imyEvolve
Tree
p198
(dp199
g10
I0
sg20
F2.490962801265403
sg21
I01
sbsg10
I1
sg25
(imyEvolve
Tree
p200
(dp201
g10
I0
sg21
I00
sbsg22
I00
sg23
g42
sbsg22
I00
sg23
g53
sbsg10
I3
sg22
I01
sg23
g54
sbsg10
I4
sg22
I01
sg23
g30
sbsg10
I5
sg22
I01
sg23
g30
sba(imyEvolve
Tree
p202
(dp203
g7
(imyEvolve
Tree
p204
(dp205
g7
(imyEvolve
Tree
p206
(dp207
g11
(imyEvolve
Tree
p208
(dp209
g10
I0
sg21
I00
sbsg10
I1
sg25
(imyEvolve
Tree
p210
(dp211
g10
I0
sg20
F0.12237748139200111
sg21
I01
sbsg22
I00
sg23
g31
sbsg10
I2
sg22
I01
sg23
g54
sbsg10
I3
sg22
I01
sg23
g30
sba(imyEvolve
Tree
p212
(dp213
g11
(imyEvolve
Tree
p214
(dp215
g11
(imyEvolve
Tree
p216
(dp217
g11
(imyEvolve
Tree
p218
(dp219
g11
(imyEvolve
Tree
p220
(dp221
g7
(imyEvolve
Tree
p222
(dp223
g10
I0
sg21
I00
sbsg10
I1
sg22
I01
sg23
g30
sbsg10
I2
sg25
(imyEvolve
Tree
p224
(dp225
g11
(imyEvolve
Tree
p226
(dp227
g10
I0
sg20
F3.24573270997651
sg21
I01
sbsg10
I1
sg25
(imyEvolve
Tree
p228
(dp229
g10
I0
sg21
I00
sbsg22
I00
sg23
g31
sbsg22
I00
sg23
g31
sbsg10
I3
sg25
(imyEvolve
Tree
p230
(dp231
g7
(imyEvolve
Tree
p232
(dp233
g7
(imyEvolve
Tree
p234
(dp235
g10
I0
sg21
I00
sbsg10
I1
sg22
I01
sg23
g30
sbsg10
I2
sg22
I01
sg23
g24
sbsg22
I00
sg23
g31
sbsg10
I4
sg25
(imyEvolve
Tree
p236
(dp237
g7
(imyEvolve
Tree
p238
(dp239
g7
(imyEvolve
Tree
p240
(dp241
g11
(imyEvolve
Tree
p242
(dp243
g10
I0
sg21
I00
sbsg10
I1
sg25
(imyEvolve
Tree
p244
(dp245
g10
I0
sg21
I00
sbsg22
I00
sg23
g31
sbsg10
I2
sg22
I01
sg23
g24
sbsg10
I3
sg22
I01
sg23
g77
sbsg22
I00
sg23
g53
sbsg10
I5
sg25
(imyEvolve
Tree
p246
(dp247
g11
(imyEvolve
Tree
p248
(dp249
g11
(imyEvolve
Tree
p250
(dp251
g7
(imyEvolve
Tree
p252
(dp253
g7
(imyEvolve
Tree
p254
(dp255
g10
I0
sg21
I00
sbsg10
I1
sg22
I01
sg23
g77
sbsg10
I2
sg22
I01
sg23
g77
sbsg10
I3
sg25
(imyEvolve
Tree
p256
(dp257
g11
(imyEvolve
Tree
p258
(dp259
g7
(imyEvolve
Tree
p260
(dp261
g10
I0
sg21
I00
sbsg10
I1
sg22
I01
sg23
g77
sbsg10
I2
sg25
(imyEvolve
Tree
p262
(dp263
g11
(imyEvolve
Tree
p264
(dp265
g10
I0
sg20
F-4.3509255633618515
sg21
I01
sbsg10
I1
sg25
(imyEvolve
Tree
p266
(dp267
g10
I0
sg20
F1.2824754600024848
sg21
I01
sbsg22
I00
sg23
g42
sbsg22
I00
sg23
g31
sbsg22
I00
sg23
g31
sbsg10
I4
sg25
(imyEvolve
Tree
p268
(dp269
g11
(imyEvolve
Tree
p270
(dp271
g7
(imyEvolve
Tree
p272
(dp273
g7
(imyEvolve
Tree
p274
(dp275
g10
I0
sg20
F-4.185139649671111
sg21
I01
sbsg10
I1
sg22
I01
sg23
g30
sbsg10
I2
sg22
I01
sg23
g24
sbsg10
I3
sg25
(imyEvolve
Tree
p276
(dp277
g7
(imyEvolve
Tree
p278
(dp279
g11
(imyEvolve
Tree
p280
(dp281
g10
I0
sg21
I00
sbsg10
I1
sg25
(imyEvolve
Tree
p282
(dp283
g10
I0
sg21
I00
sbsg22
I00
sg23
g42
sbsg10
I2
sg22
I01
sg23
g77
sbsg22
I00
sg23
g31
sbsg22
I00
sg23
g31
sbsg22
I00
sg23
g31
sba(imyEvolve
Tree
p284
(dp285
g7
(imyEvolve
Tree
p286
(dp287
g7
(imyEvolve
Tree
p288
(dp289
g11
(imyEvolve
Tree
p290
(dp291
g10
I0
sg21
I00
sbsg10
I1
sg25
(imyEvolve
Tree
p292
(dp293
g10
I0
sg20
F3.994219386937745
sg21
I01
sbsg22
I00
sg23
g42
sbsg10
I2
sg22
I01
sg23
g54
sbsg10
I3
sg22
I01
sg23
g77
sba(imyEvolve
Tree
p294
(dp295
g10
I2
sg11
(imyEvolve
Tree
p296
(dp297
g7
(imyEvolve
Tree
p298
(dp299
g10
I0
sg20
F1.5870979991262448
sg21
I01
sbsg10
I1
sg22
I01
sg23
g24
sbsg25
(imyEvolve
Tree
p300
(dp301
g10
I1
sg11
(imyEvolve
Tree
p302
(dp303
g10
I0
sg21
I00
sbsg25
(imyEvolve
Tree
p304
(dp305
g10
I0
sg21
I00
sbsg22
I00
sg23
g31
sbsg22
I00
sg23
g42
sba(imyEvolve
Tree
p306
(dp307
g7
(imyEvolve
Tree
p308
(dp309
g11
(imyEvolve
Tree
p310
(dp311
g7
(imyEvolve
Tree
p312
(dp313
g11
(imyEvolve
Tree
p314
(dp315
g10
I0
sg20
F3.7580148290723816
sg21
I01
sbsg10
I1
sg25
(imyEvolve
Tree
p316
(dp317
g10
I0
sg21
I00
sbsg22
I00
sg23
g53
sbsg10
I2
sg22
I01
sg23
g30
sbsg10
I3
sg25
(imyEvolve
Tree
p318
(dp319
g11
(imyEvolve
Tree
p320
(dp321
g11
(imyEvolve
Tree
p322
(dp323
g10
I0
sg21
I00
sbsg10
I1
sg25
(imyEvolve
Tree
p324
(dp325
g10
I0
sg20
F4.258500687547135
sg21
I01
sbsg22
I00
sg23
g42
sbsg10
I2
sg25
(imyEvolve
Tree
p326
(dp327
g7
(imyEvolve
Tree
p328
(dp329
g10
I0
sg21
I00
sbsg10
I1
sg22
I01
sg23
g54
sbsg22
I00
sg23
g53
sbsg22
I00
sg23
g53
sbsg10
I4
sg22
I01
sg23
g54
sba(imyEvolve
Tree
p330
(dp331
g7
(imyEvolve
Tree
p332
(dp333
g7
(imyEvolve
Tree
p334
(dp335
g11
(imyEvolve
Tree
p336
(dp337
g7
(imyEvolve
Tree
p338
(dp339
g7
(imyEvolve
Tree
p340
(dp341
g10
I0
sg21
I00
sbsg10
I1
sg22
I01
sg23
g54
sbsg10
I2
sg22
I01
sg23
g77
sbsg10
I3
sg25
(imyEvolve
Tree
p342
(dp343
g11
(imyEvolve
Tree
p344
(dp345
g7
(imyEvolve
Tree
p346
(dp347
g10
I0
sg20
F-4.496614673175651
sg21
I01
sbsg10
I1
sg22
I01
sg23
g30
sbsg10
I2
sg25
(imyEvolve
Tree
p348
(dp349
g7
(imyEvolve
Tree
p350
(dp351
g10
I0
sg21
I00
sbsg10
I1
sg22
I01
sg23
g30
sbsg22
I00
sg23
g42
sbsg22
I00
sg23
g53
sbsg10
I4
sg22
I01
sg23
g54
sbsg10
I5
sg22
I01
sg23
g30
sba(imyEvolve
Tree
p352
(dp353
g7
(imyEvolve
Tree
p354
(dp355
g10
I1
sg11
(imyEvolve
Tree
p356
(dp357
g10
I0
sg20
F-1.490125152741264
sg21
I01
sbsg25
(imyEvolve
Tree
p358
(dp359
g10
I0
sg20
F-2.1020839764921364
sg21
I01
sbsg22
I00
sg23
g42
sbsg10
I2
sg22
I01
sg23
g54
sba(imyEvolve
Tree
p360
(dp361
g7
(imyEvolve
Tree
p362
(dp363
g11
(imyEvolve
Tree
p364
(dp365
g7
(imyEvolve
Tree
p366
(dp367
g11
(imyEvolve
Tree
p368
(dp369
g10
I0
sg21
I00
sbsg10
I1
sg25
(imyEvolve
Tree
p370
(dp371
g10
I0
sg21
I00
sbsg22
I00
sg23
g42
sbsg10
I2
sg22
I01
sg23
g54
sbsg10
I3
sg25
(imyEvolve
Tree
p372
(dp373
g7
(imyEvolve
Tree
p374
(dp375
g7
(imyEvolve
Tree
p376
(dp377
g10
I0
sg20
F3.2715046571225788
sg21
I01
sbsg10
I1
sg22
I01
sg23
g24
sbsg10
I2
sg22
I01
sg23
g77
sbsg22
I00
sg23
g42
sbsg10
I4
sg22
I01
sg23
g24
sba(imyEvolve
Tree
p378
(dp379
g10
I3
sg11
(imyEvolve
Tree
p380
(dp381
g10
I2
sg11
(imyEvolve
Tree
p382
(dp383
g7
(imyEvolve
Tree
p384
(dp385
g10
I0
sg20
F-1.2461026334341794
sg21
I01
sbsg10
I1
sg22
I01
sg23
g54
sbsg25
(imyEvolve
Tree
p386
(dp387
g7
(imyEvolve
Tree
p388
(dp389
g10
I0
sg21
I00
sbsg10
I1
sg22
I01
sg23
g54
sbsg22
I00
sg23
g53
sbsg25
(imyEvolve
Tree
p390
(dp391
g7
(imyEvolve
Tree
p392
(dp393
g7
(imyEvolve
Tree
p394
(dp395
g10
I0
sg20
F-3.7712892516502503
sg21
I01
sbsg10
I1
sg22
I01
sg23
g54
sbsg10
I2
sg22
I01
sg23
g24
sbsg22
I00
sg23
g53
sba(imyEvolve
Tree
p396
(dp397
g7
(imyEvolve
Tree
p398
(dp399
g7
(imyEvolve
Tree
p400
(dp401
g10
I0
sg21
I00
sbsg10
I1
sg22
I01
sg23
g24
sbsg10
I2
sg22
I01
sg23
g54
sba(imyEvolve
Tree
p402
(dp403
g7
(imyEvolve
Tree
p404
(dp405
g7
(imyEvolve
Tree
p406
(dp407
g10
I3
sg11
(imyEvolve
Tree
p408
(dp409
g10
I2
sg11
(imyEvolve
Tree
p410
(dp411
g7
(imyEvolve
Tree
p412
(dp413
g10
I0
sg21
I00
sbsg10
I1
sg22
I01
sg23
g77
sbsg25
(imyEvolve
Tree
p414
(dp415
g7
(imyEvolve
Tree
p416
(dp417
g10
I0
sg20
F4.826450305119556
sg21
I01
sbsg10
I1
sg22
I01
sg23
g30
sbsg22
I00
sg23
g42
sbsg25
(imyEvolve
Tree
p418
(dp419
g10
I2
sg11
(imyEvolve
Tree
p420
(dp421
g7
(imyEvolve
Tree
p422
(dp423
g10
I0
sg20
F-4.8625860597651025
sg21
I01
sbsg10
I1
sg22
I01
sg23
g30
sbsg25
(imyEvolve
Tree
p424
(dp425
g7
(imyEvolve
Tree
p426
(dp427
g10
I0
sg21
I00
sbsg10
I1
sg22
I01
sg23
g54
sbsg22
I00
sg23
g31
sbsg22
I00
sg23
g42
sbsg10
I4
sg22
I01
sg23
g77
sbsg10
I5
sg22
I01
sg23
g77
sbaa(lp428
(imyEvolve
Tree
p429
(dp430
g7
(imyEvolve
Tree
p431
(dp432
g10
I4
sg11
(imyEvolve
Tree
p433
(dp434
g10
I3
sg11
(imyEvolve
Tree
p435
(dp436
g10
I2
sg11
(imyEvolve
Tree
p437
(dp438
g7
(imyEvolve
Tree
p439
(dp440
g10
I0
sg20
F2.229544839263893
sg21
I01
sbsg10
I1
sg22
I01
sg23
g54
sbsg25
(imyEvolve
Tree
p441
(dp442
g10
I1
sg11
(imyEvolve
Tree
p443
(dp444
g10
I0
sg21
I00
sbsg25
(imyEvolve
Tree
p445
(dp446
g10
I0
sg20
F4.377168579173402
sg21
I01
sbsg22
I00
sg23
g53
sbsg22
I00
sg23
g53
sbsg25
(imyEvolve
Tree
p447
(dp448
g7
(imyEvolve
Tree
p449
(dp450
g7
(imyEvolve
Tree
p451
(dp452
g10
I0
sg20
F4.781320856770883
sg21
I01
sbsg10
I1
sg22
I01
sg23
g30
sbsg10
I2
sg22
I01
sg23
g30
sbsg22
I00
sg23
g42
sbsg25
(imyEvolve
Tree
p453
(dp454
g10
I3
sg11
(imyEvolve
Tree
p455
(dp456
g7
(imyEvolve
Tree
p457
(dp458
g10
I1
sg11
(imyEvolve
Tree
p459
(dp460
g10
I0
sg20
F-4.10238774420883
sg21
I01
sbsg25
(imyEvolve
Tree
p461
(dp462
g10
I0
sg20
F-4.307433445054576
sg21
I01
sbsg22
I00
sg23
g42
sbsg10
I2
sg22
I01
sg23
g30
sbsg25
(imyEvolve
Tree
p463
(dp464
g10
I2
sg11
(imyEvolve
Tree
p465
(dp466
g10
I1
sg11
(imyEvolve
Tree
p467
(dp468
g10
I0
sg21
I00
sbsg25
(imyEvolve
Tree
p469
(dp470
g10
I0
sg20
F1.9217084699420397
sg21
I01
sbsg22
I00
sg23
g53
sbsg25
(imyEvolve
Tree
p471
(dp472
g7
(imyEvolve
Tree
p473
(dp474
g10
I0
sg20
F-0.17828053900020713
sg21
I01
sbsg10
I1
sg22
I01
sg23
g77
sbsg22
I00
sg23
g31
sbsg22
I00
sg23
g42
sbsg22
I00
sg23
g42
sbsg10
I5
sg22
I01
sg23
g77
sba(imyEvolve
Tree
p475
(dp476
g7
(imyEvolve
Tree
p477
(dp478
g7
(imyEvolve
Tree
p479
(dp480
g7
(imyEvolve
Tree
p481
(dp482
g10
I1
sg11
(imyEvolve
Tree
p483
(dp484
g10
I0
sg20
F-3.033484581692736
sg21
I01
sbsg25
(imyEvolve
Tree
p485
(dp486
g10
I0
sg20
F2.6975592309301604
sg21
I01
sbsg22
I00
sg23
g31
sbsg10
I2
sg22
I01
sg23
g30
sbsg10
I3
sg22
I01
sg23
g24
sbsg10
I4
sg22
I01
sg23
g30
sba(imyEvolve
Tree
p487
(dp488
g11
(imyEvolve
Tree
p489
(dp490
g7
(imyEvolve
Tree
p491
(dp492
g11
(imyEvolve
Tree
p493
(dp494
g7
(imyEvolve
Tree
p495
(dp496
g7
(imyEvolve
Tree
p497
(dp498
g10
I0
sg20
F-2.938164790465466
sg21
I01
sbsg10
I1
sg22
I01
sg23
g77
sbsg10
I2
sg22
I01
sg23
g77
sbsg10
I3
sg25
(imyEvolve
Tree
p499
(dp500
g11
(imyEvolve
Tree
p501
(dp502
g11
(imyEvolve
Tree
p503
(dp504
g10
I0
sg21
I00
sbsg10
I1
sg25
(imyEvolve
Tree
p505
(dp506
g10
I0
sg21
I00
sbsg22
I00
sg23
g53
sbsg10
I2
sg25
(imyEvolve
Tree
p507
(dp508
g11
(imyEvolve
Tree
p509
(dp510
g10
I0
sg21
I00
sbsg10
I1
sg25
(imyEvolve
Tree
p511
(dp512
g10
I0
sg20
F1.4930045785161639
sg21
I01
sbsg22
I00
sg23
g42
sbsg22
I00
sg23
g31
sbsg22
I00
sg23
g31
sbsg10
I4
sg22
I01
sg23
g24
sbsg10
I5
sg25
(imyEvolve
Tree
p513
(dp514
g11
(imyEvolve
Tree
p515
(dp516
g11
(imyEvolve
Tree
p517
(dp518
g11
(imyEvolve
Tree
p519
(dp520
g11
(imyEvolve
Tree
p521
(dp522
g10
I0
sg21
I00
sbsg10
I1
sg25
(imyEvolve
Tree
p523
(dp524
g10
I0
sg20
F-1.332231302334356
sg21
I01
sbsg22
I00
sg23
g53
sbsg10
I2
sg25
(imyEvolve
Tree
p525
(dp526
g7
(imyEvolve
Tree
p527
(dp528
g10
I0
sg21
I00
sbsg10
I1
sg22
I01
sg23
g54
sbsg22
I00
sg23
g53
sbsg10
I3
sg25
(imyEvolve
Tree
p529
(dp530
g7
(imyEvolve
Tree
p531
(dp532
g7
(imyEvolve
Tree
p533
(dp534
g10
I0
sg20
F3.7326041807392603
sg21
I01
sbsg10
I1
sg22
I01
sg23
g30
sbsg10
I2
sg22
I01
sg23
g30
sbsg22
I00
sg23
g31
sbsg10
I4
sg25
(imyEvolve
Tree
p535
(dp536
g7
(imyEvolve
Tree
p537
(dp538
g11
(imyEvolve
Tree
p539
(dp540
g11
(imyEvolve
Tree
p541
(dp542
g10
I0
sg20
F4.527674165386712
sg21
I01
sbsg10
I1
sg25
(imyEvolve
Tree
p543
(dp544
g10
I0
sg20
F-2.2994389364527414
sg21
I01
sbsg22
I00
sg23
g31
sbsg10
I2
sg25
(imyEvolve
Tree
p545
(dp546
g11
(imyEvolve
Tree
p547
(dp548
g10
I0
sg20
F-2.2359464661349406
sg21
I01
sbsg10
I1
sg25
(imyEvolve
Tree
p549
(dp550
g10
I0
sg20
F4.730216095558525
sg21
I01
sbsg22
I00
sg23
g31
sbsg22
I00
sg23
g42
sbsg10
I3
sg22
I01
sg23
g24
sbsg22
I00
sg23
g53
sbsg22
I00
sg23
g31
sba(imyEvolve
Tree
p551
(dp552
g7
(imyEvolve
Tree
p553
(dp554
g7
(imyEvolve
Tree
p555
(dp556
g10
I0
sg20
F-2.811336643044874
sg21
I01
sbsg10
I1
sg22
I01
sg23
g54
sbsg10
I2
sg22
I01
sg23
g30
sba(imyEvolve
Tree
p557
(dp558
g7
(imyEvolve
Tree
p559
(dp560
g11
(imyEvolve
Tree
p561
(dp562
g7
(imyEvolve
Tree
p563
(dp564
g10
I0
sg21
I00
sbsg10
I1
sg22
I01
sg23
g77
sbsg10
I2
sg25
(imyEvolve
Tree
p565
(dp566
g11
(imyEvolve
Tree
p567
(dp568
g10
I0
sg20
F-2.700757692288296
sg21
I01
sbsg10
I1
sg25
(imyEvolve
Tree
p569
(dp570
g10
I0
sg20
F-2.4673139301749893
sg21
I01
sbsg22
I00
sg23
g31
sbsg22
I00
sg23
g42
sbsg10
I3
sg22
I01
sg23
g54
sba(imyEvolve
Tree
p571
(dp572
g11
(imyEvolve
Tree
p573
(dp574
g11
(imyEvolve
Tree
p575
(dp576
g7
(imyEvolve
Tree
p577
(dp578
g11
(imyEvolve
Tree
p579
(dp580
g10
I0
sg21
I00
sbsg10
I1
sg25
(imyEvolve
Tree
p581
(dp582
g10
I0
sg21
I00
sbsg22
I00
sg23
g31
sbsg10
I2
sg22
I01
sg23
g77
sbsg10
I3
sg25
(imyEvolve
Tree
p583
(dp584
g11
(imyEvolve
Tree
p585
(dp586
g7
(imyEvolve
Tree
p587
(dp588
g10
I0
sg20
F4.497734608389969
sg21
I01
sbsg10
I1
sg22
I01
sg23
g30
sbsg10
I2
sg25
(imyEvolve
Tree
p589
(dp590
g11
(imyEvolve
Tree
p591
(dp592
g10
I0
sg20
F3.11461189347337
sg21
I01
sbsg10
I1
sg25
(imyEvolve
Tree
p593
(dp594
g10
I0
sg20
F-3.0537480652818747
sg21
I01
sbsg22
I00
sg23
g31
sbsg22
I00
sg23
g31
sbsg22
I00
sg23
g31
sbsg10
I4
sg25
(imyEvolve
Tree
p595
(dp596
g7
(imyEvolve
Tree
p597
(dp598
g7
(imyEvolve
Tree
p599
(dp600
g11
(imyEvolve
Tree
p601
(dp602
g10
I0
sg20
F1.9375955660859159
sg21
I01
sbsg10
I1
sg25
(imyEvolve
Tree
p603
(dp604
g10
I0
sg21
I00
sbsg22
I00
sg23
g31
sbsg10
I2
sg22
I01
sg23
g30
sbsg10
I3
sg22
I01
sg23
g54
sbsg22
I00
sg23
g42
sba(imyEvolve
Tree
p605
(dp606
g10
I3
sg11
(imyEvolve
Tree
p607
(dp608
g10
I2
sg11
(imyEvolve
Tree
p609
(dp610
g10
I1
sg11
(imyEvolve
Tree
p611
(dp612
g10
I0
sg20
F-3.2425235124552856
sg21
I01
sbsg25
(imyEvolve
Tree
p613
(dp614
g10
I0
sg20
F3.142109945410269
sg21
I01
sbsg22
I00
sg23
g31
sbsg25
(imyEvolve
Tree
p615
(dp616
g7
(imyEvolve
Tree
p617
(dp618
g10
I0
sg20
F2.4629385789987044
sg21
I01
sbsg10
I1
sg22
I01
sg23
g24
sbsg22
I00
sg23
g31
sbsg25
(imyEvolve
Tree
p619
(dp620
g10
I2
sg11
(imyEvolve
Tree
p621
(dp622
g10
I1
sg11
(imyEvolve
Tree
p623
(dp624
g10
I0
sg21
I00
sbsg25
(imyEvolve
Tree
p625
(dp626
g10
I0
sg20
F-4.698598003123566
sg21
I01
sbsg22
I00
sg23
g31
sbsg25
(imyEvolve
Tree
p627
(dp628
g10
I1
sg11
(imyEvolve
Tree
p629
(dp630
g10
I0
sg20
F3.561255857889652
sg21
I01
sbsg25
(imyEvolve
Tree
p631
(dp632
g10
I0
sg20
F-1.4447343123611756
sg21
I01
sbsg22
I00
sg23
g31
sbsg22
I00
sg23
g31
sbsg22
I00
sg23
g53
sba(imyEvolve
Tree
p633
(dp634
g7
(imyEvolve
Tree
p635
(dp636
g7
(imyEvolve
Tree
p637
(dp638
g10
I0
sg20
F-0.17300017235640297
sg21
I01
sbsg10
I1
sg22
I01
sg23
g30
sbsg10
I2
sg22
I01
sg23
g24
sba(imyEvolve
Tree
p639
(dp640
g7
(imyEvolve
Tree
p641
(dp642
g11
(imyEvolve
Tree
p643
(dp644
g11
(imyEvolve
Tree
p645
(dp646
g10
I0
sg21
I00
sbsg10
I1
sg25
(imyEvolve
Tree
p647
(dp648
g10
I0
sg21
I00
sbsg22
I00
sg23
g53
sbsg10
I2
sg25
(imyEvolve
Tree
p649
(dp650
g7
(imyEvolve
Tree
p651
(dp652
g10
I0
sg21
I00
sbsg10
I1
sg22
I01
sg23
g30
sbsg22
I00
sg23
g53
sbsg10
I3
sg22
I01
sg23
g24
sba(imyEvolve
Tree
p653
(dp654
g10
I5
sg11
(imyEvolve
Tree
p655
(dp656
g7
(imyEvolve
Tree
p657
(dp658
g10
I3
sg11
(imyEvolve
Tree
p659
(dp660
g7
(imyEvolve
Tree
p661
(dp662
g7
(imyEvolve
Tree
p663
(dp664
g10
I0
sg20
F-1.4319736248135118
sg21
I01
sbsg10
I1
sg22
I01
sg23
g24
sbsg10
I2
sg22
I01
sg23
g77
sbsg25
(imyEvolve
Tree
p665
(dp666
g7
(imyEvolve
Tree
p667
(dp668
g7
(imyEvolve
Tree
p669
(dp670
g10
I0
sg21
I00
sbsg10
I1
sg22
I01
sg23
g54
sbsg10
I2
sg22
I01
sg23
g24
sbsg22
I00
sg23
g31
sbsg10
I4
sg22
I01
sg23
g54
sbsg25
(imyEvolve
Tree
p671
(dp672
g10
I4
sg11
(imyEvolve
Tree
p673
(dp674
g7
(imyEvolve
Tree
p675
(dp676
g7
(imyEvolve
Tree
p677
(dp678
g7
(imyEvolve
Tree
p679
(dp680
g10
I0
sg20
F-4.998230357943719
sg21
I01
sbsg10
I1
sg22
I01
sg23
g24
sbsg10
I2
sg22
I01
sg23
g24
sbsg10
I3
sg22
I01
sg23
g24
sbsg25
(imyEvolve
Tree
p681
(dp682
g10
I3
sg11
(imyEvolve
Tree
p683
(dp684
g10
I2
sg11
(imyEvolve
Tree
p685
(dp686
g7
(imyEvolve
Tree
p687
(dp688
g10
I0
sg21
I00
sbsg10
I1
sg22
I01
sg23
g24
sbsg25
(imyEvolve
Tree
p689
(dp690
g7
(imyEvolve
Tree
p691
(dp692
g10
I0
sg21
I00
sbsg10
I1
sg22
I01
sg23
g30
sbsg22
I00
sg23
g31
sbsg25
(imyEvolve
Tree
p693
(dp694
g10
I2
sg11
(imyEvolve
Tree
p695
(dp696
g10
I1
sg11
(imyEvolve
Tree
p697
(dp698
g10
I0
sg21
I00
sbsg25
(imyEvolve
Tree
p699
(dp700
g10
I0
sg21
I00
sbsg22
I00
sg23
g42
sbsg25
(imyEvolve
Tree
p701
(dp702
g10
I1
sg11
(imyEvolve
Tree
p703
(dp704
g10
I0
sg21
I00
sbsg25
(imyEvolve
Tree
p705
(dp706
g10
I0
sg21
I00
sbsg22
I00
sg23
g42
sbsg22
I00
sg23
g53
sbsg22
I00
sg23
g42
sbsg22
I00
sg23
g42
sbsg22
I00
sg23
g53
sba(imyEvolve
Tree
p707
(dp708
g7
(imyEvolve
Tree
p709
(dp710
g10
I2
sg11
(imyEvolve
Tree
p711
(dp712
g7
(imyEvolve
Tree
p713
(dp714
g10
I0
sg21
I00
sbsg10
I1
sg22
I01
sg23
g24
sbsg25
(imyEvolve
Tree
p715
(dp716
g7
(imyEvolve
Tree
p717
(dp718
g10
I0
sg20
F1.445593211456396
sg21
I01
sbsg10
I1
sg22
I01
sg23
g24
sbsg22
I00
sg23
g53
sbsg10
I3
sg22
I01
sg23
g54
sba(imyEvolve
Tree
p719
(dp720
g7
(imyEvolve
Tree
p721
(dp722
g11
(imyEvolve
Tree
p723
(dp724
g11
(imyEvolve
Tree
p725
(dp726
g10
I0
sg20
F-0.41532056258376926
sg21
I01
sbsg10
I1
sg25
(imyEvolve
Tree
p727
(dp728
g10
I0
sg21
I00
sbsg22
I00
sg23
g42
sbsg10
I2
sg25
(imyEvolve
Tree
p729
(dp730
g7
(imyEvolve
Tree
p731
(dp732
g10
I0
sg20
F0.45881118724903125
sg21
I01
sbsg10
I1
sg22
I01
sg23
g30
sbsg22
I00
sg23
g42
sbsg10
I3
sg22
I01
sg23
g30
sba(imyEvolve
Tree
p733
(dp734
g7
(imyEvolve
Tree
p735
(dp736
g7
(imyEvolve
Tree
p737
(dp738
g7
(imyEvolve
Tree
p739
(dp740
g10
I0
sg20
F-3.4252011039981403
sg21
I01
sbsg10
I1
sg22
I01
sg23
g77
sbsg10
I2
sg22
I01
sg23
g30
sbsg10
I3
sg22
I01
sg23
g54
sbaa(lp741
(imyEvolve
Tree
p742
(dp743
g11
(imyEvolve
Tree
p744
(dp745
g7
(imyEvolve
Tree
p746
(dp747
g7
(imyEvolve
Tree
p748
(dp749
g7
(imyEvolve
Tree
p750
(dp751
g11
(imyEvolve
Tree
p752
(dp753
g10
I0
sg21
I00
sbsg10
I1
sg25
(imyEvolve
Tree
p754
(dp755
g10
I0
sg20
F1.5111061961564856
sg21
I01
sbsg22
I00
sg23
g53
sbsg10
I2
sg22
I01
sg23
g24
sbsg10
I3
sg22
I01
sg23
g54
sbsg10
I4
sg22
I01
sg23
g77
sbsg10
I5
sg25
(imyEvolve
Tree
p756
(dp757
g7
(imyEvolve
Tree
p758
(dp759
g7
(imyEvolve
Tree
p760
(dp761
g7
(imyEvolve
Tree
p762
(dp763
g7
(imyEvolve
Tree
p764
(dp765
g10
I0
sg20
F3.3487763688746313
sg21
I01
sbsg10
I1
sg22
I01
sg23
g54
sbsg10
I2
sg22
I01
sg23
g54
sbsg10
I3
sg22
I01
sg23
g54
sbsg10
I4
sg22
I01
sg23
g24
sbsg22
I00
sg23
g31
sba(imyEvolve
Tree
p766
(dp767
g11
(imyEvolve
Tree
p768
(dp769
g7
(imyEvolve
Tree
p770
(dp771
g7
(imyEvolve
Tree
p772
(dp773
g10
I0
sg21
I00
sbsg10
I1
sg22
I01
sg23
g24
sbsg10
I2
sg22
I01
sg23
g77
sbsg10
I3
sg25
(imyEvolve
Tree
p774
(dp775
g7
(imyEvolve
Tree
p776
(dp777
g11
(imyEvolve
Tree
p778
(dp779
g10
I0
sg20
F4.813068387450961
sg21
I01
sbsg10
I1
sg25
(imyEvolve
Tree
p780
(dp781
g10
I0
sg20
F-4.889974293189803
sg21
I01
sbsg22
I00
sg23
g53
sbsg10
I2
sg22
I01
sg23
g24
sbsg22
I00
sg23
g42
sba(imyEvolve
Tree
p782
(dp783
g11
(imyEvolve
Tree
p784
(dp785
g7
(imyEvolve
Tree
p786
(dp787
g7
(imyEvolve
Tree
p788
(dp789
g7
(imyEvolve
Tree
p790
(dp791
g10
I0
sg21
I00
sbsg10
I1
sg22
I01
sg23
g77
sbsg10
I2
sg22
I01
sg23
g30
sbsg10
I3
sg22
I01
sg23
g77
sbsg10
I4
sg25
(imyEvolve
Tree
p792
(dp793
g7
(imyEvolve
Tree
p794
(dp795
g7
(imyEvolve
Tree
p796
(dp797
g7
(imyEvolve
Tree
p798
(dp799
g10
I0
sg20
F-1.6407745224308767
sg21
I01
sbsg10
I1
sg22
I01
sg23
g77
sbsg10
I2
sg22
I01
sg23
g30
sbsg10
I3
sg22
I01
sg23
g54
sbsg22
I00
sg23
g42
sba(imyEvolve
Tree
p800
(dp801
g11
(imyEvolve
Tree
p802
(dp803
g11
(imyEvolve
Tree
p804
(dp805
g11
(imyEvolve
Tree
p806
(dp807
g7
(imyEvolve
Tree
p808
(dp809
g7
(imyEvolve
Tree
p810
(dp811
g10
I0
sg20
F-2.1235614659139546
sg21
I01
sbsg10
I1
sg22
I01
sg23
g77
sbsg10
I2
sg22
I01
sg23
g24
sbsg10
I3
sg25
(imyEvolve
Tree
p812
(dp813
g7
(imyEvolve
Tree
p814
(dp815
g7
(imyEvolve
Tree
p816
(dp817
g10
I0
sg21
I00
sbsg10
I1
sg22
I01
sg23
g24
sbsg10
I2
sg22
I01
sg23
g54
sbsg22
I00
sg23
g31
sbsg10
I4
sg25
(imyEvolve
Tree
p818
(dp819
g7
(imyEvolve
Tree
p820
(dp821
g7
(imyEvolve
Tree
p822
(dp823
g7
(imyEvolve
Tree
p824
(dp825
g10
I0
sg21
I00
sbsg10
I1
sg22
I01
sg23
g77
sbsg10
I2
sg22
I01
sg23
g24
sbsg10
I3
sg22
I01
sg23
g30
sbsg22
I00
sg23
g42
sbsg10
I5
sg25
(imyEvolve
Tree
p826
(dp827
g11
(imyEvolve
Tree
p828
(dp829
g11
(imyEvolve
Tree
p830
(dp831
g11
(imyEvolve
Tree
p832
(dp833
g7
(imyEvolve
Tree
p834
(dp835
g10
I0
sg21
I00
sbsg10
I1
sg22
I01
sg23
g77
sbsg10
I2
sg25
(imyEvolve
Tree
p836
(dp837
g7
(imyEvolve
Tree
p838
(dp839
g10
I0
sg20
F-3.0734475442883324
sg21
I01
sbsg10
I1
sg22
I01
sg23
g77
sbsg22
I00
sg23
g53
sbsg10
I3
sg25
(imyEvolve
Tree
p840
(dp841
g7
(imyEvolve
Tree
p842
(dp843
g11
(imyEvolve
Tree
p844
(dp845
g10
I0
sg20
F0.8065632869274166
sg21
I01
sbsg10
I1
sg25
(imyEvolve
Tree
p846
(dp847
g10
I0
sg21
I00
sbsg22
I00
sg23
g53
sbsg10
I2
sg22
I01
sg23
g54
sbsg22
I00
sg23
g42
sbsg10
I4
sg25
(imyEvolve
Tree
p848
(dp849
g7
(imyEvolve
Tree
p850
(dp851
g11
(imyEvolve
Tree
p852
(dp853
g11
(imyEvolve
Tree
p854
(dp855
g10
I0
sg21
I00
sbsg10
I1
sg25
(imyEvolve
Tree
p856
(dp857
g10
I0
sg20
F4.301154903072307
sg21
I01
sbsg22
I00
sg23
g53
sbsg10
I2
sg25
(imyEvolve
Tree
p858
(dp859
g11
(imyEvolve
Tree
p860
(dp861
g10
I0
sg21
I00
sbsg10
I1
sg25
(imyEvolve
Tree
p862
(dp863
g10
I0
sg20
F-2.009175406477004
sg21
I01
sbsg22
I00
sg23
g42
sbsg22
I00
sg23
g42
sbsg10
I3
sg22
I01
sg23
g24
sbsg22
I00
sg23
g53
sbsg22
I00
sg23
g42
sba(imyEvolve
Tree
p864
(dp865
g7
(imyEvolve
Tree
p866
(dp867
g7
(imyEvolve
Tree
p868
(dp869
g11
(imyEvolve
Tree
p870
(dp871
g7
(imyEvolve
Tree
p872
(dp873
g10
I0
sg20
F1.079034952624581
sg21
I01
sbsg10
I1
sg22
I01
sg23
g30
sbsg10
I2
sg25
(imyEvolve
Tree
p874
(dp875
g7
(imyEvolve
Tree
p876
(dp877
g10
I0
sg21
I00
sbsg10
I1
sg22
I01
sg23
g54
sbsg22
I00
sg23
g31
sbsg10
I3
sg22
I01
sg23
g30
sbsg10
I4
sg22
I01
sg23
g24
sba(imyEvolve
Tree
p878
(dp879
g7
(imyEvolve
Tree
p880
(dp881
g10
I1
sg11
(imyEvolve
Tree
p882
(dp883
g10
I0
sg20
F-4.549975276509921
sg21
I01
sbsg25
(imyEvolve
Tree
p884
(dp885
g10
I0
sg20
F3.627556976463717
sg21
I01
sbsg22
I00
sg23
g42
sbsg10
I2
sg22
I01
sg23
g24
sba(imyEvolve
Tree
p886
(dp887
g11
(imyEvolve
Tree
p888
(dp889
g7
(imyEvolve
Tree
p890
(dp891
g10
I0
sg20
F1.7198692565316556
sg21
I01
sbsg10
I1
sg22
I01
sg23
g54
sbsg10
I2
sg25
(imyEvolve
Tree
p892
(dp893
g7
(imyEvolve
Tree
p894
(dp895
g10
I0
sg20
F2.8804175337243523
sg21
I01
sbsg10
I1
sg22
I01
sg23
g30
sbsg22
I00
sg23
g53
sba(imyEvolve
Tree
p896
(dp897
g7
(imyEvolve
Tree
p898
(dp899
g11
(imyEvolve
Tree
p900
(dp901
g10
I0
sg20
F-0.26615797079395875
sg21
I01
sbsg10
I1
sg25
(imyEvolve
Tree
p902
(dp903
g10
I0
sg21
I00
sbsg22
I00
sg23
g42
sbsg10
I2
sg22
I01
sg23
g24
sba(imyEvolve
Tree
p904
(dp905
g7
(imyEvolve
Tree
p906
(dp907
g11
(imyEvolve
Tree
p908
(dp909
g11
(imyEvolve
Tree
p910
(dp911
g7
(imyEvolve
Tree
p912
(dp913
g10
I0
sg21
I00
sbsg10
I1
sg22
I01
sg23
g24
sbsg10
I2
sg25
(imyEvolve
Tree
p914
(dp915
g11
(imyEvolve
Tree
p916
(dp917
g10
I0
sg21
I00
sbsg10
I1
sg25
(imyEvolve
Tree
p918
(dp919
g10
I0
sg21
I00
sbsg22
I00
sg23
g31
sbsg22
I00
sg23
g42
sbsg10
I3
sg25
(imyEvolve
Tree
p920
(dp921
g7
(imyEvolve
Tree
p922
(dp923
g7
(imyEvolve
Tree
p924
(dp925
g10
I0
sg21
I00
sbsg10
I1
sg22
I01
sg23
g54
sbsg10
I2
sg22
I01
sg23
g24
sbsg22
I00
sg23
g42
sbsg10
I4
sg22
I01
sg23
g30
sba(imyEvolve
Tree
p926
(dp927
g11
(imyEvolve
Tree
p928
(dp929
g11
(imyEvolve
Tree
p930
(dp931
g7
(imyEvolve
Tree
p932
(dp933
g7
(imyEvolve
Tree
p934
(dp935
g10
I0
sg21
I00
sbsg10
I1
sg22
I01
sg23
g54
sbsg10
I2
sg22
I01
sg23
g30
sbsg10
I3
sg25
(imyEvolve
Tree
p936
(dp937
g11
(imyEvolve
Tree
p938
(dp939
g7
(imyEvolve
Tree
p940
(dp941
g10
I0
sg21
I00
sbsg10
I1
sg22
I01
sg23
g77
sbsg10
I2
sg25
(imyEvolve
Tree
p942
(dp943
g11
(imyEvolve
Tree
p944
(dp945
g10
I0
sg20
F0.5166643911859676
sg21
I01
sbsg10
I1
sg25
(imyEvolve
Tree
p946
(dp947
g10
I0
sg20
F2.545024982440367
sg21
I01
sbsg22
I00
sg23
g42
sbsg22
I00
sg23
g31
sbsg22
I00
sg23
g42
sbsg10
I4
sg25
(imyEvolve
Tree
p948
(dp949
g7
(imyEvolve
Tree
p950
(dp951
g11
(imyEvolve
Tree
p952
(dp953
g11
(imyEvolve
Tree
p954
(dp955
g10
I0
sg20
F3.0789206330565637
sg21
I01
sbsg10
I1
sg25
(imyEvolve
Tree
p956
(dp957
g10
I0
sg20
F0.5934033040547746
sg21
I01
sbsg22
I00
sg23
g42
sbsg10
I2
sg25
(imyEvolve
Tree
p958
(dp959
g7
(imyEvolve
Tree
p960
(dp961
g10
I0
sg21
I00
sbsg10
I1
sg22
I01
sg23
g24
sbsg22
I00
sg23
g42
sbsg10
I3
sg22
I01
sg23
g24
sbsg22
I00
sg23
g42
sba(imyEvolve
Tree
p962
(dp963
g10
I3
sg11
(imyEvolve
Tree
p964
(dp965
g7
(imyEvolve
Tree
p966
(dp967
g10
I1
sg11
(imyEvolve
Tree
p968
(dp969
g10
I0
sg21
I00
sbsg25
(imyEvolve
Tree
p970
(dp971
g10
I0
sg20
F0.5313403824875618
sg21
I01
sbsg22
I00
sg23
g53
sbsg10
I2
sg22
I01
sg23
g30
sbsg25
(imyEvolve
Tree
p972
(dp973
g7
(imyEvolve
Tree
p974
(dp975
g10
I1
sg11
(imyEvolve
Tree
p976
(dp977
g10
I0
sg20
F0.5839439247813658
sg21
I01
sbsg25
(imyEvolve
Tree
p978
(dp979
g10
I0
sg20
F-4.670168808641489
sg21
I01
sbsg22
I00
sg23
g31
sbsg10
I2
sg22
I01
sg23
g54
sbsg22
I00
sg23
g53
sba(imyEvolve
Tree
p980
(dp981
g11
(imyEvolve
Tree
p982
(dp983
g11
(imyEvolve
Tree
p984
(dp985
g7
(imyEvolve
Tree
p986
(dp987
g11
(imyEvolve
Tree
p988
(dp989
g11
(imyEvolve
Tree
p990
(dp991
g10
I0
sg20
F-0.9314163753962585
sg21
I01
sbsg10
I1
sg25
(imyEvolve
Tree
p992
(dp993
g10
I0
sg21
I00
sbsg22
I00
sg23
g31
sbsg10
I2
sg25
(imyEvolve
Tree
p994
(dp995
g11
(imyEvolve
Tree
p996
(dp997
g10
I0
sg21
I00
sbsg10
I1
sg25
(imyEvolve
Tree
p998
(dp999
g10
I0
sg21
I00
sbsg22
I00
sg23
g53
sbsg22
I00
sg23
g31
sbsg10
I3
sg22
I01
sg23
g77
sbsg10
I4
sg25
(imyEvolve
Tree
p1000
(dp1001
g11
(imyEvolve
Tree
p1002
(dp1003
g11
(imyEvolve
Tree
p1004
(dp1005
g7
(imyEvolve
Tree
p1006
(dp1007
g10
I0
sg21
I00
sbsg10
I1
sg22
I01
sg23
g54
sbsg10
I2
sg25
(imyEvolve
Tree
p1008
(dp1009
g7
(imyEvolve
Tree
p1010
(dp1011
g10
I0
sg21
I00
sbsg10
I1
sg22
I01
sg23
g54
sbsg22
I00
sg23
g31
sbsg10
I3
sg25
(imyEvolve
Tree
p1012
(dp1013
g7
(imyEvolve
Tree
p1014
(dp1015
g7
(imyEvolve
Tree
p1016
(dp1017
g10
I0
sg20
F4.468926905194827
sg21
I01
sbsg10
I1
sg22
I01
sg23
g24
sbsg10
I2
sg22
I01
sg23
g77
sbsg22
I00
sg23
g53
sbsg22
I00
sg23
g31
sbsg10
I5
sg25
(imyEvolve
Tree
p1018
(dp1019
g7
(imyEvolve
Tree
p1020
(dp1021
g11
(imyEvolve
Tree
p1022
(dp1023
g7
(imyEvolve
Tree
p1024
(dp1025
g7
(imyEvolve
Tree
p1026
(dp1027
g10
I0
sg21
I00
sbsg10
I1
sg22
I01
sg23
g30
sbsg10
I2
sg22
I01
sg23
g24
sbsg10
I3
sg25
(imyEvolve
Tree
p1028
(dp1029
g7
(imyEvolve
Tree
p1030
(dp1031
g7
(imyEvolve
Tree
p1032
(dp1033
g10
I0
sg21
I00
sbsg10
I1
sg22
I01
sg23
g54
sbsg10
I2
sg22
I01
sg23
g54
sbsg22
I00
sg23
g31
sbsg10
I4
sg22
I01
sg23
g54
sbsg22
I00
sg23
g42
sba(imyEvolve
Tree
p1034
(dp1035
g10
I4
sg11
(imyEvolve
Tree
p1036
(dp1037
g7
(imyEvolve
Tree
p1038
(dp1039
g10
I2
sg11
(imyEvolve
Tree
p1040
(dp1041
g10
I1
sg11
(imyEvolve
Tree
p1042
(dp1043
g10
I0
sg21
I00
sbsg25
(imyEvolve
Tree
p1044
(dp1045
g10
I0
sg20
F-4.310141411610888
sg21
I01
sbsg22
I00
sg23
g53
sbsg25
(imyEvolve
Tree
p1046
(dp1047
g7
(imyEvolve
Tree
p1048
(dp1049
g10
I0
sg21
I00
sbsg10
I1
sg22
I01
sg23
g77
sbsg22
I00
sg23
g42
sbsg10
I3
sg22
I01
sg23
g30
sbsg25
(imyEvolve
Tree
p1050
(dp1051
g7
(imyEvolve
Tree
p1052
(dp1053
g7
(imyEvolve
Tree
p1054
(dp1055
g7
(imyEvolve
Tree
p1056
(dp1057
g10
I0
sg20
F-0.3541382598832339
sg21
I01
sbsg10
I1
sg22
I01
sg23
g30
sbsg10
I2
sg22
I01
sg23
g54
sbsg10
I3
sg22
I01
sg23
g24
sbsg22
I00
sg23
g42
sba(imyEvolve
Tree
p1058
(dp1059
g7
(imyEvolve
Tree
p1060
(dp1061
g11
(imyEvolve
Tree
p1062
(dp1063
g7
(imyEvolve
Tree
p1064
(dp1065
g10
I0
sg21
I00
sbsg10
I1
sg22
I01
sg23
g77
sbsg10
I2
sg25
(imyEvolve
Tree
p1066
(dp1067
g11
(imyEvolve
Tree
p1068
(dp1069
g10
I0
sg21
I00
sbsg10
I1
sg25
(imyEvolve
Tree
p1070
(dp1071
g10
I0
sg20
F-3.74351143126301
sg21
I01
sbsg22
I00
sg23
g31
sbsg22
I00
sg23
g31
sbsg10
I3
sg22
I01
sg23
g30
sba(imyEvolve
Tree
p1072
(dp1073
g7
(imyEvolve
Tree
p1074
(dp1075
g7
(imyEvolve
Tree
p1076
(dp1077
g11
(imyEvolve
Tree
p1078
(dp1079
g10
I0
sg20
F-0.3723743554197121
sg21
I01
sbsg10
I1
sg25
(imyEvolve
Tree
p1080
(dp1081
g10
I0
sg20
F-3.974977288558379
sg21
I01
sbsg22
I00
sg23
g31
sbsg10
I2
sg22
I01
sg23
g54
sbsg10
I3
sg22
I01
sg23
g77
sba(imyEvolve
Tree
p1082
(dp1083
g7
(imyEvolve
Tree
p1084
(dp1085
g7
(imyEvolve
Tree
p1086
(dp1087
g10
I0
sg21
I00
sbsg10
I1
sg22
I01
sg23
g77
sbsg10
I2
sg22
I01
sg23
g54
sbaasS'alpha'
p1088
F0.0012068478921166473
sS'fitness'
p1089
cnumpy.core.multiarray
scalar
p1090
(cnumpy
dtype
p1091
(S'f8'
p1092
I0
I1
tp1093
Rp1094
(I3
S'<'
p1095
NNNI-1
I-1
I0
tp1096
bS'<N\xd1\xb7\xa4 \xe6?'
p1097
tp1098
Rp1099
sS'weightSharing'
p1100
(lp1101
I01
asS'fitnessValid'
p1102
I00
sS'resolution'
p1103
I81
sb.