(imyEvolve
Individual
p0
(dp1
S'funcs'
p2
(lp3
(lp4
(imyEvolve
Tree
p5
(dp6
S'below'
p7
(imyEvolve
Tree
p8
(dp9
g7
(imyEvolve
Tree
p10
(dp11
g7
(imyEvolve
Tree
p12
(dp13
S'left'
p14
(imyEvolve
Tree
p15
(dp16
g14
(imyEvolve
Tree
p17
(dp18
S'depth'
p19
I0
sS'isConstant'
p20
I00
sbsg19
I1
sS'right'
p21
(imyEvolve
Tree
p22
(dp23
g19
I0
sS'constant'
p24
F3.984427907563571
sg20
I01
sbsS'single'
p25
I00
sS'op'
p26
coperator
sub
p27
sbsg19
I2
sg21
(imyEvolve
Tree
p28
(dp29
g14
(imyEvolve
Tree
p30
(dp31
g19
I0
sg20
I00
sbsg19
I1
sg21
(imyEvolve
Tree
p32
(dp33
g19
I0
sg20
I00
sbsg25
I00
sg26
coperator
mul
p34
sbsg25
I00
sg26
coperator
add
p35
sbsg19
I3
sg25
I01
sg26
cmyEvolve
absSqrt
p36
sbsg19
I4
sg25
I01
sg26
cmath
cos
p37
sbsg19
I5
sg25
I01
sg26
cmyEvolve
square
p38
sba(imyEvolve
Tree
p39
(dp40
g7
(imyEvolve
Tree
p41
(dp42
g19
I3
sg14
(imyEvolve
Tree
p43
(dp44
g19
I2
sg14
(imyEvolve
Tree
p45
(dp46
g19
I1
sg14
(imyEvolve
Tree
p47
(dp48
g19
I0
sg20
I00
sbsg21
(imyEvolve
Tree
p49
(dp50
g19
I0
sg20
I00
sbsg25
I00
sg26
g27
sbsg21
(imyEvolve
Tree
p51
(dp52
g7
(imyEvolve
Tree
p53
(dp54
g19
I0
sg24
F3.6957952371629936
sg20
I01
sbsg19
I1
sg25
I01
sg26
g38
sbsg25
I00
sg26
g27
sbsg21
(imyEvolve
Tree
p55
(dp56
g19
I2
sg14
(imyEvolve
Tree
p57
(dp58
g7
(imyEvolve
Tree
p59
(dp60
g19
I0
sg20
I00
sbsg19
I1
sg25
I01
sg26
g38
sbsg21
(imyEvolve
Tree
p61
(dp62
g19
I1
sg14
(imyEvolve
Tree
p63
(dp64
g19
I0
sg20
I00
sbsg21
(imyEvolve
Tree
p65
(dp66
g19
I0
sg24
F2.255007437252007
sg20
I01
sbsg25
I00
sg26
g35
sbsg25
I00
sg26
g34
sbsg25
I00
sg26
g34
sbsg19
I4
sg25
I01
sg26
g38
sba(imyEvolve
Tree
p67
(dp68
g7
(imyEvolve
Tree
p69
(dp70
g7
(imyEvolve
Tree
p71
(dp72
g14
(imyEvolve
Tree
p73
(dp74
g19
I0
sg24
F-4.125099713695647
sg20
I01
sbsg19
I1
sg21
(imyEvolve
Tree
p75
(dp76
g19
I0
sg24
F-0.9152356311262988
sg20
I01
sbsg25
I00
sg26
g27
sbsg19
I2
sg25
I01
sg26
g38
sbsg19
I3
sg25
I01
sg26
g36
sba(imyEvolve
Tree
p77
(dp78
g19
I4
sg14
(imyEvolve
Tree
p79
(dp80
g7
(imyEvolve
Tree
p81
(dp82
g19
I2
sg14
(imyEvolve
Tree
p83
(dp84
g19
I1
sg14
(imyEvolve
Tree
p85
(dp86
g19
I0
sg20
I00
sbsg21
(imyEvolve
Tree
p87
(dp88
g19
I0
sg24
F3.4558728192557027
sg20
I01
sbsg25
I00
sg26
g34
sbsg21
(imyEvolve
Tree
p89
(dp90
g7
(imyEvolve
Tree
p91
(dp92
g19
I0
sg20
I00
sbsg19
I1
sg25
I01
sg26
g37
sbsg25
I00
sg26
g35
sbsg19
I3
sg25
I01
sg26
g37
sbsg21
(imyEvolve
Tree
p93
(dp94
g7
(imyEvolve
Tree
p95
(dp96
g19
I2
sg14
(imyEvolve
Tree
p97
(dp98
g7
(imyEvolve
Tree
p99
(dp100
g19
I0
sg20
I00
sbsg19
I1
sg25
I01
sg26
g38
sbsg21
(imyEvolve
Tree
p101
(dp102
g7
(imyEvolve
Tree
p103
(dp104
g19
I0
sg24
F4.6332084418357695
sg20
I01
sbsg19
I1
sg25
I01
sg26
g37
sbsg25
I00
sg26
g34
sbsg19
I3
sg25
I01
sg26
g38
sbsg25
I00
sg26
g27
sba(imyEvolve
Tree
p105
(dp106
g14
(imyEvolve
Tree
p107
(dp108
g7
(imyEvolve
Tree
p109
(dp110
g14
(imyEvolve
Tree
p111
(dp112
g7
(imyEvolve
Tree
p113
(dp114
g14
(imyEvolve
Tree
p115
(dp116
g19
I0
sg24
F4.0396433389151944
sg20
I01
sbsg19
I1
sg21
(imyEvolve
Tree
p117
(dp118
g19
I0
sg20
I00
sbsg25
I00
sg26
g27
sbsg19
I2
sg25
I01
sg26
g36
sbsg19
I3
sg21
(imyEvolve
Tree
p119
(dp120
g7
(imyEvolve
Tree
p121
(dp122
g7
(imyEvolve
Tree
p123
(dp124
g19
I0
sg20
I00
sbsg19
I1
sg25
I01
sg26
g36
sbsg19
I2
sg25
I01
sg26
g37
sbsg25
I00
sg26
g27
sbsg19
I4
sg25
I01
sg26
g38
sbsg19
I5
sg21
(imyEvolve
Tree
p125
(dp126
g14
(imyEvolve
Tree
p127
(dp128
g7
(imyEvolve
Tree
p129
(dp130
g14
(imyEvolve
Tree
p131
(dp132
g7
(imyEvolve
Tree
p133
(dp134
g19
I0
sg20
I00
sbsg19
I1
sg25
I01
sg26
g37
sbsg19
I2
sg21
(imyEvolve
Tree
p135
(dp136
g14
(imyEvolve
Tree
p137
(dp138
g19
I0
sg24
F3.170171351217242
sg20
I01
sbsg19
I1
sg21
(imyEvolve
Tree
p139
(dp140
g19
I0
sg24
F-4.363646497794421
sg20
I01
sbsg25
I00
sg26
g27
sbsg25
I00
sg26
g27
sbsg19
I3
sg25
I01
sg26
g38
sbsg19
I4
sg21
(imyEvolve
Tree
p141
(dp142
g14
(imyEvolve
Tree
p143
(dp144
g7
(imyEvolve
Tree
p145
(dp146
g7
(imyEvolve
Tree
p147
(dp148
g19
I0
sg24
F1.967929402358985
sg20
I01
sbsg19
I1
sg25
I01
sg26
cmath
sin
p149
sbsg19
I2
sg25
I01
sg26
g38
sbsg19
I3
sg21
(imyEvolve
Tree
p150
(dp151
g7
(imyEvolve
Tree
p152
(dp153
g7
(imyEvolve
Tree
p154
(dp155
g19
I0
sg20
I00
sbsg19
I1
sg25
I01
sg26
g38
sbsg19
I2
sg25
I01
sg26
g149
sbsg25
I00
sg26
g34
sbsg25
I00
sg26
g27
sbsg25
I00
sg26
g35
sba(imyEvolve
Tree
p156
(dp157
g7
(imyEvolve
Tree
p158
(dp159
g19
I1
sg14
(imyEvolve
Tree
p160
(dp161
g19
I0
sg20
I00
sbsg21
(imyEvolve
Tree
p162
(dp163
g19
I0
sg24
F4.5548293883081215
sg20
I01
sbsg25
I00
sg26
g35
sbsg19
I2
sg25
I01
sg26
g149
sba(imyEvolve
Tree
p164
(dp165
g14
(imyEvolve
Tree
p166
(dp167
g7
(imyEvolve
Tree
p168
(dp169
g14
(imyEvolve
Tree
p170
(dp171
g19
I0
sg20
I00
sbsg19
I1
sg21
(imyEvolve
Tree
p172
(dp173
g19
I0
sg24
F1.0217643525660849
sg20
I01
sbsg25
I00
sg26
g27
sbsg19
I2
sg25
I01
sg26
g37
sbsg19
I3
sg21
(imyEvolve
Tree
p174
(dp175
g7
(imyEvolve
Tree
p176
(dp177
g7
(imyEvolve
Tree
p178
(dp179
g19
I0
sg24
F2.7183803353093055
sg20
I01
sbsg19
I1
sg25
I01
sg26
g149
sbsg19
I2
sg25
I01
sg26
g37
sbsg25
I00
sg26
g34
sba(imyEvolve
Tree
p180
(dp181
g14
(imyEvolve
Tree
p182
(dp183
g7
(imyEvolve
Tree
p184
(dp185
g14
(imyEvolve
Tree
p186
(dp187
g7
(imyEvolve
Tree
p188
(dp189
g14
(imyEvolve
Tree
p190
(dp191
g19
I0
sg20
I00
sbsg19
I1
sg21
(imyEvolve
Tree
p192
(dp193
g19
I0
sg20
I00
sbsg25
I00
sg26
g35
sbsg19
I2
sg25
I01
sg26
g37
sbsg19
I3
sg21
(imyEvolve
Tree
p194
(dp195
g14
(imyEvolve
Tree
p196
(dp197
g7
(imyEvolve
Tree
p198
(dp199
g19
I0
sg24
F0.46885582864117037
sg20
I01
sbsg19
I1
sg25
I01
sg26
g36
sbsg19
I2
sg21
(imyEvolve
Tree
p200
(dp201
g14
(imyEvolve
Tree
p202
(dp203
g19
I0
sg20
I00
sbsg19
I1
sg21
(imyEvolve
Tree
p204
(dp205
g19
I0
sg20
I00
sbsg25
I00
sg26
g27
sbsg25
I00
sg26
g27
sbsg25
I00
sg26
g34
sbsg19
I4
sg25
I01
sg26
g149
sbsg19
I5
sg21
(imyEvolve
Tree
p206
(dp207
g7
(imyEvolve
Tree
p208
(dp209
g14
(imyEvolve
Tree
p210
(dp211
g7
(imyEvolve
Tree
p212
(dp213
g14
(imyEvolve
Tree
p214
(dp215
g19
I0
sg24
F3.705529910164774
sg20
I01
sbsg19
I1
sg21
(imyEvolve
Tree
p216
(dp217
g19
I0
sg24
F-4.5397349346008395
sg20
I01
sbsg25
I00
sg26
g35
sbsg19
I2
sg25
I01
sg26
g36
sbsg19
I3
sg21
(imyEvolve
Tree
p218
(dp219
g7
(imyEvolve
Tree
p220
(dp221
g7
(imyEvolve
Tree
p222
(dp223
g19
I0
sg24
F-2.9443916459360175
sg20
I01
sbsg19
I1
sg25
I01
sg26
g38
sbsg19
I2
sg25
I01
sg26
g38
sbsg25
I00
sg26
g27
sbsg19
I4
sg25
I01
sg26
g37
sbsg25
I00
sg26
g27
sbaa(lp224
(imyEvolve
Tree
p225
(dp226
g14
(imyEvolve
Tree
p227
(dp228
g7
(imyEvolve
Tree
p229
(dp230
g19
I0
sg24
F4.659652594258729
sg20
I01
sbsg19
I1
sg25
I01
sg26
g37
sbsg19
I2
sg21
(imyEvolve
Tree
p231
(dp232
g7
(imyEvolve
Tree
p233
(dp234
g19
I0
sg20
I00
sbsg19
I1
sg25
I01
sg26
g149
sbsg25
I00
sg26
g34
sba(imyEvolve
Tree
p235
(dp236
g14
(imyEvolve
Tree
p237
(dp238
g7
(imyEvolve
Tree
p239
(dp240
g7
(imyEvolve
Tree
p241
(dp242
g7
(imyEvolve
Tree
p243
(dp244
g19
I0
sg20
I00
sbsg19
I1
sg25
I01
sg26
g149
sbsg19
I2
sg25
I01
sg26
g37
sbsg19
I3
sg25
I01
sg26
g38
sbsg19
I4
sg21
(imyEvolve
Tree
p245
(dp246
g14
(imyEvolve
Tree
p247
(dp248
g14
(imyEvolve
Tree
p249
(dp250
g7
(imyEvolve
Tree
p251
(dp252
g19
I0
sg24
F-3.953719394271904
sg20
I01
sbsg19
I1
sg25
I01
sg26
g149
sbsg19
I2
sg21
(imyEvolve
Tree
p253
(dp254
g7
(imyEvolve
Tree
p255
(dp256
g19
I0
sg24
F2.2112499590500168
sg20
I01
sbsg19
I1
sg25
I01
sg26
g37
sbsg25
I00
sg26
g27
sbsg19
I3
sg21
(imyEvolve
Tree
p257
(dp258
g7
(imyEvolve
Tree
p259
(dp260
g7
(imyEvolve
Tree
p261
(dp262
g19
I0
sg24
F-4.87101732650288
sg20
I01
sbsg19
I1
sg25
I01
sg26
g149
sbsg19
I2
sg25
I01
sg26
g37
sbsg25
I00
sg26
g35
sbsg25
I00
sg26
g34
sba(imyEvolve
Tree
p263
(dp264
g14
(imyEvolve
Tree
p265
(dp266
g14
(imyEvolve
Tree
p267
(dp268
g19
I0
sg20
I00
sbsg19
I1
sg21
(imyEvolve
Tree
p269
(dp270
g19
I0
sg20
I00
sbsg25
I00
sg26
g35
sbsg19
I2
sg21
(imyEvolve
Tree
p271
(dp272
g7
(imyEvolve
Tree
p273
(dp274
g19
I0
sg20
I00
sbsg19
I1
sg25
I01
sg26
g38
sbsg25
I00
sg26
g34
sba(imyEvolve
Tree
p275
(dp276
g19
I2
sg14
(imyEvolve
Tree
p277
(dp278
g7
(imyEvolve
Tree
p279
(dp280
g19
I0
sg24
F-3.624597378007902
sg20
I01
sbsg19
I1
sg25
I01
sg26
g149
sbsg21
(imyEvolve
Tree
p281
(dp282
g19
I1
sg14
(imyEvolve
Tree
p283
(dp284
g19
I0
sg20
I00
sbsg21
(imyEvolve
Tree
p285
(dp286
g19
I0
sg20
I00
sbsg25
I00
sg26
g34
sbsg25
I00
sg26
g34
sba(imyEvolve
Tree
p287
(dp288
g14
(imyEvolve
Tree
p289
(dp290
g7
(imyEvolve
Tree
p291
(dp292
g14
(imyEvolve
Tree
p293
(dp294
g7
(imyEvolve
Tree
p295
(dp296
g19
I0
sg20
I00
sbsg19
I1
sg25
I01
sg26
g149
sbsg19
I2
sg21
(imyEvolve
Tree
p297
(dp298
g7
(imyEvolve
Tree
p299
(dp300
g19
I0
sg20
I00
sbsg19
I1
sg25
I01
sg26
g36
sbsg25
I00
sg26
g34
sbsg19
I3
sg25
I01
sg26
g37
sbsg19
I4
sg21
(imyEvolve
Tree
p301
(dp302
g7
(imyEvolve
Tree
p303
(dp304
g7
(imyEvolve
Tree
p305
(dp306
g7
(imyEvolve
Tree
p307
(dp308
g19
I0
sg20
I00
sbsg19
I1
sg25
I01
sg26
g36
sbsg19
I2
sg25
I01
sg26
g149
sbsg19
I3
sg25
I01
sg26
g149
sbsg25
I00
sg26
g34
sba(imyEvolve
Tree
p309
(dp310
g19
I5
sg14
(imyEvolve
Tree
p311
(dp312
g19
I4
sg14
(imyEvolve
Tree
p313
(dp314
g7
(imyEvolve
Tree
p315
(dp316
g7
(imyEvolve
Tree
p317
(dp318
g7
(imyEvolve
Tree
p319
(dp320
g19
I0
sg24
F4.905144560684624
sg20
I01
sbsg19
I1
sg25
I01
sg26
g38
sbsg19
I2
sg25
I01
sg26
g149
sbsg19
I3
sg25
I01
sg26
g37
sbsg21
(imyEvolve
Tree
p321
(dp322
g7
(imyEvolve
Tree
p323
(dp324
g19
I2
sg14
(imyEvolve
Tree
p325
(dp326
g19
I1
sg14
(imyEvolve
Tree
p327
(dp328
g19
I0
sg24
F2.1071311437093794
sg20
I01
sbsg21
(imyEvolve
Tree
p329
(dp330
g19
I0
sg20
I00
sbsg25
I00
sg26
g35
sbsg21
(imyEvolve
Tree
p331
(dp332
g7
(imyEvolve
Tree
p333
(dp334
g19
I0
sg20
I00
sbsg19
I1
sg25
I01
sg26
g149
sbsg25
I00
sg26
g34
sbsg19
I3
sg25
I01
sg26
g37
sbsg25
I00
sg26
g27
sbsg21
(imyEvolve
Tree
p335
(dp336
g19
I4
sg14
(imyEvolve
Tree
p337
(dp338
g7
(imyEvolve
Tree
p339
(dp340
g19
I2
sg14
(imyEvolve
Tree
p341
(dp342
g19
I1
sg14
(imyEvolve
Tree
p343
(dp344
g19
I0
sg24
F-4.945296973171885
sg20
I01
sbsg21
(imyEvolve
Tree
p345
(dp346
g19
I0
sg20
I00
sbsg25
I00
sg26
g35
sbsg21
(imyEvolve
Tree
p347
(dp348
g7
(imyEvolve
Tree
p349
(dp350
g19
I0
sg24
F1.732453924704763
sg20
I01
sbsg19
I1
sg25
I01
sg26
g149
sbsg25
I00
sg26
g35
sbsg19
I3
sg25
I01
sg26
g36
sbsg21
(imyEvolve
Tree
p351
(dp352
g19
I3
sg14
(imyEvolve
Tree
p353
(dp354
g19
I2
sg14
(imyEvolve
Tree
p355
(dp356
g19
I1
sg14
(imyEvolve
Tree
p357
(dp358
g19
I0
sg24
F0.9526385233760672
sg20
I01
sbsg21
(imyEvolve
Tree
p359
(dp360
g19
I0
sg24
F-2.370338552552301
sg20
I01
sbsg25
I00
sg26
g27
sbsg21
(imyEvolve
Tree
p361
(dp362
g7
(imyEvolve
Tree
p363
(dp364
g19
I0
sg24
F2.280324003044589
sg20
I01
sbsg19
I1
sg25
I01
sg26
g149
sbsg25
I00
sg26
g27
sbsg21
(imyEvolve
Tree
p365
(dp366
g19
I2
sg14
(imyEvolve
Tree
p367
(dp368
g19
I1
sg14
(imyEvolve
Tree
p369
(dp370
g19
I0
sg24
F0.39792969578828075
sg20
I01
sbsg21
(imyEvolve
Tree
p371
(dp372
g19
I0
sg24
F-4.345649159117896
sg20
I01
sbsg25
I00
sg26
g35
sbsg21
(imyEvolve
Tree
p373
(dp374
g7
(imyEvolve
Tree
p375
(dp376
g19
I0
sg20
I00
sbsg19
I1
sg25
I01
sg26
g38
sbsg25
I00
sg26
g34
sbsg25
I00
sg26
g34
sbsg25
I00
sg26
g27
sbsg25
I00
sg26
g34
sba(imyEvolve
Tree
p377
(dp378
g7
(imyEvolve
Tree
p379
(dp380
g7
(imyEvolve
Tree
p381
(dp382
g7
(imyEvolve
Tree
p383
(dp384
g7
(imyEvolve
Tree
p385
(dp386
g7
(imyEvolve
Tree
p387
(dp388
g19
I0
sg20
I00
sbsg19
I1
sg25
I01
sg26
g149
sbsg19
I2
sg25
I01
sg26
g36
sbsg19
I3
sg25
I01
sg26
g37
sbsg19
I4
sg25
I01
sg26
g38
sbsg19
I5
sg25
I01
sg26
g37
sba(imyEvolve
Tree
p389
(dp390
g7
(imyEvolve
Tree
p391
(dp392
g7
(imyEvolve
Tree
p393
(dp394
g7
(imyEvolve
Tree
p395
(dp396
g19
I1
sg14
(imyEvolve
Tree
p397
(dp398
g19
I0
sg24
F-4.596228646565878
sg20
I01
sbsg21
(imyEvolve
Tree
p399
(dp400
g19
I0
sg20
I00
sbsg25
I00
sg26
g35
sbsg19
I2
sg25
I01
sg26
g149
sbsg19
I3
sg25
I01
sg26
g36
sbsg19
I4
sg25
I01
sg26
g149
sba(imyEvolve
Tree
p401
(dp402
g7
(imyEvolve
Tree
p403
(dp404
g7
(imyEvolve
Tree
p405
(dp406
g19
I0
sg24
F4.920875181572963
sg20
I01
sbsg19
I1
sg25
I01
sg26
g38
sbsg19
I2
sg25
I01
sg26
g36
sba(imyEvolve
Tree
p407
(dp408
g7
(imyEvolve
Tree
p409
(dp410
g14
(imyEvolve
Tree
p411
(dp412
g14
(imyEvolve
Tree
p413
(dp414
g19
I0
sg24
F1.7830900044286349
sg20
I01
sbsg19
I1
sg21
(imyEvolve
Tree
p415
(dp416
g19
I0
sg24
F-1.1987786485235552
sg20
I01
sbsg25
I00
sg26
g35
sbsg19
I2
sg21
(imyEvolve
Tree
p417
(dp418
g14
(imyEvolve
Tree
p419
(dp420
g19
I0
sg24
F2.2103201594598527
sg20
I01
sbsg19
I1
sg21
(imyEvolve
Tree
p421
(dp422
g19
I0
sg20
I00
sbsg25
I00
sg26
g35
sbsg25
I00
sg26
g35
sbsg19
I3
sg25
I01
sg26
g36
sba(imyEvolve
Tree
p423
(dp424
g14
(imyEvolve
Tree
p425
(dp426
g7
(imyEvolve
Tree
p427
(dp428
g14
(imyEvolve
Tree
p429
(dp430
g7
(imyEvolve
Tree
p431
(dp432
g14
(imyEvolve
Tree
p433
(dp434
g19
I0
sg24
F-4.737511868862114
sg20
I01
sbsg19
I1
sg21
(imyEvolve
Tree
p435
(dp436
g19
I0
sg24
F3.7521648800040026
sg20
I01
sbsg25
I00
sg26
g27
sbsg19
I2
sg25
I01
sg26
g38
sbsg19
I3
sg21
(imyEvolve
Tree
p437
(dp438
g14
(imyEvolve
Tree
p439
(dp440
g14
(imyEvolve
Tree
p441
(dp442
g19
I0
sg20
I00
sbsg19
I1
sg21
(imyEvolve
Tree
p443
(dp444
g19
I0
sg24
F-1.0816151023391307
sg20
I01
sbsg25
I00
sg26
g35
sbsg19
I2
sg21
(imyEvolve
Tree
p445
(dp446
g7
(imyEvolve
Tree
p447
(dp448
g19
I0
sg24
F4.614271217284497
sg20
I01
sbsg19
I1
sg25
I01
sg26
g37
sbsg25
I00
sg26
g35
sbsg25
I00
sg26
g27
sbsg19
I4
sg25
I01
sg26
g37
sbsg19
I5
sg21
(imyEvolve
Tree
p449
(dp450
g7
(imyEvolve
Tree
p451
(dp452
g7
(imyEvolve
Tree
p453
(dp454
g7
(imyEvolve
Tree
p455
(dp456
g7
(imyEvolve
Tree
p457
(dp458
g19
I0
sg20
I00
sbsg19
I1
sg25
I01
sg26
g38
sbsg19
I2
sg25
I01
sg26
g38
sbsg19
I3
sg25
I01
sg26
g37
sbsg19
I4
sg25
I01
sg26
g37
sbsg25
I00
sg26
g27
sba(imyEvolve
Tree
p459
(dp460
g7
(imyEvolve
Tree
p461
(dp462
g7
(imyEvolve
Tree
p463
(dp464
g7
(imyEvolve
Tree
p465
(dp466
g7
(imyEvolve
Tree
p467
(dp468
g7
(imyEvolve
Tree
p469
(dp470
g19
I0
sg20
I00
sbsg19
I1
sg25
I01
sg26
g36
sbsg19
I2
sg25
I01
sg26
g36
sbsg19
I3
sg25
I01
sg26
g37
sbsg19
I4
sg25
I01
sg26
g37
sbsg19
I5
sg25
I01
sg26
g37
sbaa(lp471
(imyEvolve
Tree
p472
(dp473
g7
(imyEvolve
Tree
p474
(dp475
g7
(imyEvolve
Tree
p476
(dp477
g7
(imyEvolve
Tree
p478
(dp479
g19
I0
sg24
F2.7799744554251893
sg20
I01
sbsg19
I1
sg25
I01
sg26
g37
sbsg19
I2
sg25
I01
sg26
g38
sbsg19
I3
sg25
I01
sg26
g38
sba(imyEvolve
Tree
p480
(dp481
g14
(imyEvolve
Tree
p482
(dp483
g14
(imyEvolve
Tree
p484
(dp485
g7
(imyEvolve
Tree
p486
(dp487
g14
(imyEvolve
Tree
p488
(dp489
g7
(imyEvolve
Tree
p490
(dp491
g19
I0
sg24
F4.276482765628039
sg20
I01
sbsg19
I1
sg25
I01
sg26
g36
sbsg19
I2
sg21
(imyEvolve
Tree
p492
(dp493
g7
(imyEvolve
Tree
p494
(dp495
g19
I0
sg24
F0.1902149452745121
sg20
I01
sbsg19
I1
sg25
I01
sg26
g36
sbsg25
I00
sg26
g35
sbsg19
I3
sg25
I01
sg26
g37
sbsg19
I4
sg21
(imyEvolve
Tree
p496
(dp497
g14
(imyEvolve
Tree
p498
(dp499
g7
(imyEvolve
Tree
p500
(dp501
g14
(imyEvolve
Tree
p502
(dp503
g19
I0
sg20
I00
sbsg19
I1
sg21
(imyEvolve
Tree
p504
(dp505
g19
I0
sg24
F-3.7382981899894894
sg20
I01
sbsg25
I00
sg26
g27
sbsg19
I2
sg25
I01
sg26
g36
sbsg19
I3
sg21
(imyEvolve
Tree
p506
(dp507
g14
(imyEvolve
Tree
p508
(dp509
g14
(imyEvolve
Tree
p510
(dp511
g19
I0
sg20
I00
sbsg19
I1
sg21
(imyEvolve
Tree
p512
(dp513
g19
I0
sg24
F-3.699354253628384
sg20
I01
sbsg25
I00
sg26
g34
sbsg19
I2
sg21
(imyEvolve
Tree
p514
(dp515
g7
(imyEvolve
Tree
p516
(dp517
g19
I0
sg20
I00
sbsg19
I1
sg25
I01
sg26
g37
sbsg25
I00
sg26
g35
sbsg25
I00
sg26
g27
sbsg25
I00
sg26
g27
sbsg19
I5
sg21
(imyEvolve
Tree
p518
(dp519
g7
(imyEvolve
Tree
p520
(dp521
g7
(imyEvolve
Tree
p522
(dp523
g14
(imyEvolve
Tree
p524
(dp525
g7
(imyEvolve
Tree
p526
(dp527
g19
I0
sg20
I00
sbsg19
I1
sg25
I01
sg26
g149
sbsg19
I2
sg21
(imyEvolve
Tree
p528
(dp529
g14
(imyEvolve
Tree
p530
(dp531
g19
I0
sg24
F2.6501444584697555
sg20
I01
sbsg19
I1
sg21
(imyEvolve
Tree
p532
(dp533
g19
I0
sg20
I00
sbsg25
I00
sg26
g35
sbsg25
I00
sg26
g35
sbsg19
I3
sg25
I01
sg26
g37
sbsg19
I4
sg25
I01
sg26
g149
sbsg25
I00
sg26
g34
sba(imyEvolve
Tree
p534
(dp535
g14
(imyEvolve
Tree
p536
(dp537
g7
(imyEvolve
Tree
p538
(dp539
g7
(imyEvolve
Tree
p540
(dp541
g19
I0
sg24
F-2.3311905986264083
sg20
I01
sbsg19
I1
sg25
I01
sg26
g37
sbsg19
I2
sg25
I01
sg26
g149
sbsg19
I3
sg21
(imyEvolve
Tree
p542
(dp543
g7
(imyEvolve
Tree
p544
(dp545
g7
(imyEvolve
Tree
p546
(dp547
g19
I0
sg20
I00
sbsg19
I1
sg25
I01
sg26
g149
sbsg19
I2
sg25
I01
sg26
g36
sbsg25
I00
sg26
g35
sba(imyEvolve
Tree
p548
(dp549
g14
(imyEvolve
Tree
p550
(dp551
g14
(imyEvolve
Tree
p552
(dp553
g7
(imyEvolve
Tree
p554
(dp555
g19
I0
sg20
I00
sbsg19
I1
sg25
I01
sg26
g38
sbsg19
I2
sg21
(imyEvolve
Tree
p556
(dp557
g14
(imyEvolve
Tree
p558
(dp559
g19
I0
sg20
I00
sbsg19
I1
sg21
(imyEvolve
Tree
p560
(dp561
g19
I0
sg24
F-0.941585394241848
sg20
I01
sbsg25
I00
sg26
g34
sbsg25
I00
sg26
g35
sbsg19
I3
sg21
(imyEvolve
Tree
p562
(dp563
g14
(imyEvolve
Tree
p564
(dp565
g7
(imyEvolve
Tree
p566
(dp567
g19
I0
sg24
F2.6210174398404575
sg20
I01
sbsg19
I1
sg25
I01
sg26
g37
sbsg19
I2
sg21
(imyEvolve
Tree
p568
(dp569
g7
(imyEvolve
Tree
p570
(dp571
g19
I0
sg24
F-4.045359181508706
sg20
I01
sbsg19
I1
sg25
I01
sg26
g149
sbsg25
I00
sg26
g34
sbsg25
I00
sg26
g35
sba(imyEvolve
Tree
p572
(dp573
g19
I4
sg14
(imyEvolve
Tree
p574
(dp575
g7
(imyEvolve
Tree
p576
(dp577
g7
(imyEvolve
Tree
p578
(dp579
g19
I1
sg14
(imyEvolve
Tree
p580
(dp581
g19
I0
sg20
I00
sbsg21
(imyEvolve
Tree
p582
(dp583
g19
I0
sg20
I00
sbsg25
I00
sg26
g27
sbsg19
I2
sg25
I01
sg26
g37
sbsg19
I3
sg25
I01
sg26
g149
sbsg21
(imyEvolve
Tree
p584
(dp585
g19
I3
sg14
(imyEvolve
Tree
p586
(dp587
g7
(imyEvolve
Tree
p588
(dp589
g19
I1
sg14
(imyEvolve
Tree
p590
(dp591
g19
I0
sg20
I00
sbsg21
(imyEvolve
Tree
p592
(dp593
g19
I0
sg20
I00
sbsg25
I00
sg26
g27
sbsg19
I2
sg25
I01
sg26
g37
sbsg21
(imyEvolve
Tree
p594
(dp595
g19
I2
sg14
(imyEvolve
Tree
p596
(dp597
g7
(imyEvolve
Tree
p598
(dp599
g19
I0
sg20
I00
sbsg19
I1
sg25
I01
sg26
g37
sbsg21
(imyEvolve
Tree
p600
(dp601
g7
(imyEvolve
Tree
p602
(dp603
g19
I0
sg24
F1.3219262822077003
sg20
I01
sbsg19
I1
sg25
I01
sg26
g149
sbsg25
I00
sg26
g35
sbsg25
I00
sg26
g34
sbsg25
I00
sg26
g34
sba(imyEvolve
Tree
p604
(dp605
g7
(imyEvolve
Tree
p606
(dp607
g7
(imyEvolve
Tree
p608
(dp609
g14
(imyEvolve
Tree
p610
(dp611
g7
(imyEvolve
Tree
p612
(dp613
g19
I0
sg24
F1.4092503662679263
sg20
I01
sbsg19
I1
sg25
I01
sg26
g38
sbsg19
I2
sg21
(imyEvolve
Tree
p614
(dp615
g7
(imyEvolve
Tree
p616
(dp617
g19
I0
sg20
I00
sbsg19
I1
sg25
I01
sg26
g37
sbsg25
I00
sg26
g34
sbsg19
I3
sg25
I01
sg26
g149
sbsg19
I4
sg25
I01
sg26
g149
sba(imyEvolve
Tree
p618
(dp619
g7
(imyEvolve
Tree
p620
(dp621
g7
(imyEvolve
Tree
p622
(dp623
g14
(imyEvolve
Tree
p624
(dp625
g14
(imyEvolve
Tree
p626
(dp627
g19
I0
sg20
I00
sbsg19
I1
sg21
(imyEvolve
Tree
p628
(dp629
g19
I0
sg20
I00
sbsg25
I00
sg26
g35
sbsg19
I2
sg21
(imyEvolve
Tree
p630
(dp631
g14
(imyEvolve
Tree
p632
(dp633
g19
I0
sg24
F-4.661466121407454
sg20
I01
sbsg19
I1
sg21
(imyEvolve
Tree
p634
(dp635
g19
I0
sg20
I00
sbsg25
I00
sg26
g35
sbsg25
I00
sg26
g34
sbsg19
I3
sg25
I01
sg26
g149
sbsg19
I4
sg25
I01
sg26
g37
sba(imyEvolve
Tree
p636
(dp637
g7
(imyEvolve
Tree
p638
(dp639
g14
(imyEvolve
Tree
p640
(dp641
g14
(imyEvolve
Tree
p642
(dp643
g19
I0
sg24
F4.310691393680797
sg20
I01
sbsg19
I1
sg21
(imyEvolve
Tree
p644
(dp645
g19
I0
sg24
F-1.9901444880081351
sg20
I01
sbsg25
I00
sg26
g35
sbsg19
I2
sg21
(imyEvolve
Tree
p646
(dp647
g7
(imyEvolve
Tree
p648
(dp649
g19
I0
sg24
F2.2929575047705706
sg20
I01
sbsg19
I1
sg25
I01
sg26
g38
sbsg25
I00
sg26
g35
sbsg19
I3
sg25
I01
sg26
g36
sba(imyEvolve
Tree
p650
(dp651
g14
(imyEvolve
Tree
p652
(dp653
g7
(imyEvolve
Tree
p654
(dp655
g14
(imyEvolve
Tree
p656
(dp657
g7
(imyEvolve
Tree
p658
(dp659
g7
(imyEvolve
Tree
p660
(dp661
g19
I0
sg20
I00
sbsg19
I1
sg25
I01
sg26
g149
sbsg19
I2
sg25
I01
sg26
g37
sbsg19
I3
sg21
(imyEvolve
Tree
p662
(dp663
g14
(imyEvolve
Tree
p664
(dp665
g7
(imyEvolve
Tree
p666
(dp667
g19
I0
sg20
I00
sbsg19
I1
sg25
I01
sg26
g36
sbsg19
I2
sg21
(imyEvolve
Tree
p668
(dp669
g7
(imyEvolve
Tree
p670
(dp671
g19
I0
sg20
I00
sbsg19
I1
sg25
I01
sg26
g36
sbsg25
I00
sg26
g35
sbsg25
I00
sg26
g27
sbsg19
I4
sg25
I01
sg26
g149
sbsg19
I5
sg21
(imyEvolve
Tree
p672
(dp673
g14
(imyEvolve
Tree
p674
(dp675
g7
(imyEvolve
Tree
p676
(dp677
g7
(imyEvolve
Tree
p678
(dp679
g7
(imyEvolve
Tree
p680
(dp681
g19
I0
sg20
I00
sbsg19
I1
sg25
I01
sg26
g38
sbsg19
I2
sg25
I01
sg26
g36
sbsg19
I3
sg25
I01
sg26
g36
sbsg19
I4
sg21
(imyEvolve
Tree
p682
(dp683
g14
(imyEvolve
Tree
p684
(dp685
g7
(imyEvolve
Tree
p686
(dp687
g14
(imyEvolve
Tree
p688
(dp689
g19
I0
sg20
I00
sbsg19
I1
sg21
(imyEvolve
Tree
p690
(dp691
g19
I0
sg20
I00
sbsg25
I00
sg26
g35
sbsg19
I2
sg25
I01
sg26
g149
sbsg19
I3
sg21
(imyEvolve
Tree
p692
(dp693
g7
(imyEvolve
Tree
p694
(dp695
g7
(imyEvolve
Tree
p696
(dp697
g19
I0
sg24
F-3.2077212438364433
sg20
I01
sbsg19
I1
sg25
I01
sg26
g38
sbsg19
I2
sg25
I01
sg26
g149
sbsg25
I00
sg26
g34
sbsg25
I00
sg26
g34
sbsg25
I00
sg26
g35
sba(imyEvolve
Tree
p698
(dp699
g14
(imyEvolve
Tree
p700
(dp701
g7
(imyEvolve
Tree
p702
(dp703
g7
(imyEvolve
Tree
p704
(dp705
g7
(imyEvolve
Tree
p706
(dp707
g14
(imyEvolve
Tree
p708
(dp709
g19
I0
sg24
F4.3656886241889055
sg20
I01
sbsg19
I1
sg21
(imyEvolve
Tree
p710
(dp711
g19
I0
sg20
I00
sbsg25
I00
sg26
g34
sbsg19
I2
sg25
I01
sg26
g37
sbsg19
I3
sg25
I01
sg26
g38
sbsg19
I4
sg25
I01
sg26
g37
sbsg19
I5
sg21
(imyEvolve
Tree
p712
(dp713
g7
(imyEvolve
Tree
p714
(dp715
g7
(imyEvolve
Tree
p716
(dp717
g7
(imyEvolve
Tree
p718
(dp719
g14
(imyEvolve
Tree
p720
(dp721
g19
I0
sg24
F-0.19306148715914961
sg20
I01
sbsg19
I1
sg21
(imyEvolve
Tree
p722
(dp723
g19
I0
sg20
I00
sbsg25
I00
sg26
g27
sbsg19
I2
sg25
I01
sg26
g37
sbsg19
I3
sg25
I01
sg26
g37
sbsg19
I4
sg25
I01
sg26
g36
sbsg25
I00
sg26
g27
sba(imyEvolve
Tree
p724
(dp725
g7
(imyEvolve
Tree
p726
(dp727
g7
(imyEvolve
Tree
p728
(dp729
g7
(imyEvolve
Tree
p730
(dp731
g7
(imyEvolve
Tree
p732
(dp733
g19
I0
sg20
I00
sbsg19
I1
sg25
I01
sg26
g37
sbsg19
I2
sg25
I01
sg26
g37
sbsg19
I3
sg25
I01
sg26
g37
sbsg19
I4
sg25
I01
sg26
g149
sba(imyEvolve
Tree
p734
(dp735
g7
(imyEvolve
Tree
p736
(dp737
g7
(imyEvolve
Tree
p738
(dp739
g14
(imyEvolve
Tree
p740
(dp741
g19
I0
sg20
I00
sbsg19
I1
sg21
(imyEvolve
Tree
p742
(dp743
g19
I0
sg20
I00
sbsg25
I00
sg26
g34
sbsg19
I2
sg25
I01
sg26
g37
sbsg19
I3
sg25
I01
sg26
g37
sba(imyEvolve
Tree
p744
(dp745
g14
(imyEvolve
Tree
p746
(dp747
g14
(imyEvolve
Tree
p748
(dp749
g14
(imyEvolve
Tree
p750
(dp751
g14
(imyEvolve
Tree
p752
(dp753
g19
I0
sg24
F-1.6936525170870476
sg20
I01
sbsg19
I1
sg21
(imyEvolve
Tree
p754
(dp755
g19
I0
sg20
I00
sbsg25
I00
sg26
g35
sbsg19
I2
sg21
(imyEvolve
Tree
p756
(dp757
g14
(imyEvolve
Tree
p758
(dp759
g19
I0
sg20
I00
sbsg19
I1
sg21
(imyEvolve
Tree
p760
(dp761
g19
I0
sg24
F-1.521540828356096
sg20
I01
sbsg25
I00
sg26
g35
sbsg25
I00
sg26
g35
sbsg19
I3
sg21
(imyEvolve
Tree
p762
(dp763
g14
(imyEvolve
Tree
p764
(dp765
g7
(imyEvolve
Tree
p766
(dp767
g19
I0
sg20
I00
sbsg19
I1
sg25
I01
sg26
g149
sbsg19
I2
sg21
(imyEvolve
Tree
p768
(dp769
g7
(imyEvolve
Tree
p770
(dp771
g19
I0
sg20
I00
sbsg19
I1
sg25
I01
sg26
g149
sbsg25
I00
sg26
g27
sbsg25
I00
sg26
g34
sbsg19
I4
sg21
(imyEvolve
Tree
p772
(dp773
g14
(imyEvolve
Tree
p774
(dp775
g14
(imyEvolve
Tree
p776
(dp777
g14
(imyEvolve
Tree
p778
(dp779
g19
I0
sg20
I00
sbsg19
I1
sg21
(imyEvolve
Tree
p780
(dp781
g19
I0
sg24
F-4.295276679830261
sg20
I01
sbsg25
I00
sg26
g34
sbsg19
I2
sg21
(imyEvolve
Tree
p782
(dp783
g14
(imyEvolve
Tree
p784
(dp785
g19
I0
sg20
I00
sbsg19
I1
sg21
(imyEvolve
Tree
p786
(dp787
g19
I0
sg20
I00
sbsg25
I00
sg26
g27
sbsg25
I00
sg26
g34
sbsg19
I3
sg21
(imyEvolve
Tree
p788
(dp789
g14
(imyEvolve
Tree
p790
(dp791
g14
(imyEvolve
Tree
p792
(dp793
g19
I0
sg24
F-1.4969336506450026
sg20
I01
sbsg19
I1
sg21
(imyEvolve
Tree
p794
(dp795
g19
I0
sg20
I00
sbsg25
I00
sg26
g35
sbsg19
I2
sg21
(imyEvolve
Tree
p796
(dp797
g7
(imyEvolve
Tree
p798
(dp799
g19
I0
sg20
I00
sbsg19
I1
sg25
I01
sg26
g149
sbsg25
I00
sg26
g35
sbsg25
I00
sg26
g34
sbsg25
I00
sg26
g34
sba(imyEvolve
Tree
p800
(dp801
g7
(imyEvolve
Tree
p802
(dp803
g19
I3
sg14
(imyEvolve
Tree
p804
(dp805
g19
I2
sg14
(imyEvolve
Tree
p806
(dp807
g19
I1
sg14
(imyEvolve
Tree
p808
(dp809
g19
I0
sg20
I00
sbsg21
(imyEvolve
Tree
p810
(dp811
g19
I0
sg24
F0.33485252045768377
sg20
I01
sbsg25
I00
sg26
g34
sbsg21
(imyEvolve
Tree
p812
(dp813
g7
(imyEvolve
Tree
p814
(dp815
g19
I0
sg24
F-3.1097549574817815
sg20
I01
sbsg19
I1
sg25
I01
sg26
g149
sbsg25
I00
sg26
g34
sbsg21
(imyEvolve
Tree
p816
(dp817
g19
I2
sg14
(imyEvolve
Tree
p818
(dp819
g7
(imyEvolve
Tree
p820
(dp821
g19
I0
sg24
F-3.0316145988351773
sg20
I01
sbsg19
I1
sg25
I01
sg26
g149
sbsg21
(imyEvolve
Tree
p822
(dp823
g7
(imyEvolve
Tree
p824
(dp825
g19
I0
sg20
I00
sbsg19
I1
sg25
I01
sg26
g37
sbsg25
I00
sg26
g34
sbsg25
I00
sg26
g27
sbsg19
I4
sg25
I01
sg26
g36
sba(imyEvolve
Tree
p826
(dp827
g14
(imyEvolve
Tree
p828
(dp829
g7
(imyEvolve
Tree
p830
(dp831
g19
I0
sg24
F-3.594012668945904
sg20
I01
sbsg19
I1
sg25
I01
sg26
g38
sbsg19
I2
sg21
(imyEvolve
Tree
p832
(dp833
g14
(imyEvolve
Tree
p834
(dp835
g19
I0
sg20
I00
sbsg19
I1
sg21
(imyEvolve
Tree
p836
(dp837
g19
I0
sg20
I00
sbsg25
I00
sg26
g27
sbsg25
I00
sg26
g34
sbaasS'alpha'
p838
F0.007471123144049652
sS'fitness'
p839
cnumpy.core.multiarray
scalar
p840
(cnumpy
dtype
p841
(S'f8'
p842
I0
I1
tp843
Rp844
(I3
S'<'
p845
NNNI-1
I-1
I0
tp846
bS'\x00@\x13a\xf1\xd7V?'
p847
tp848
Rp849
sS'weightSharing'
p850
(lp851
I00
asS'fitnessValid'
p852
I00
sS'resolution'
p853
I70
sb.