(imyEvolve
Individual
p0
(dp1
S'funcs'
p2
(lp3
(lp4
(imyEvolve
Tree
p5
(dp6
S'depth'
p7
I5
sS'left'
p8
(imyEvolve
Tree
p9
(dp10
g7
I4
sg8
(imyEvolve
Tree
p11
(dp12
S'below'
p13
(imyEvolve
Tree
p14
(dp15
g13
(imyEvolve
Tree
p16
(dp17
g7
I1
sg8
(imyEvolve
Tree
p18
(dp19
g7
I0
sS'isConstant'
p20
I00
sbsS'right'
p21
(imyEvolve
Tree
p22
(dp23
g7
I0
sg20
I00
sbsS'single'
p24
I00
sS'op'
p25
coperator
mul
p26
sbsg7
I2
sg24
I01
sg25
cmath
cos
p27
sbsg7
I3
sg24
I01
sg25
g27
sbsg21
(imyEvolve
Tree
p28
(dp29
g7
I3
sg8
(imyEvolve
Tree
p30
(dp31
g7
I2
sg8
(imyEvolve
Tree
p32
(dp33
g7
I1
sg8
(imyEvolve
Tree
p34
(dp35
g7
I0
sS'constant'
p36
F3.4548109960773576
sg20
I01
sbsg21
(imyEvolve
Tree
p37
(dp38
g7
I0
sg36
F-3.203116969465981
sg20
I01
sbsg24
I00
sg25
g26
sbsg21
(imyEvolve
Tree
p39
(dp40
g13
(imyEvolve
Tree
p41
(dp42
g7
I0
sg20
I00
sbsg7
I1
sg24
I01
sg25
cmyEvolve
absSqrt
p43
sbsg24
I00
sg25
coperator
add
p44
sbsg21
(imyEvolve
Tree
p45
(dp46
g13
(imyEvolve
Tree
p47
(dp48
g13
(imyEvolve
Tree
p49
(dp50
g7
I0
sg20
I00
sbsg7
I1
sg24
I01
sg25
g27
sbsg7
I2
sg24
I01
sg25
cmath
sin
p51
sbsg24
I00
sg25
g44
sbsg24
I00
sg25
g26
sbsg21
(imyEvolve
Tree
p52
(dp53
g7
I4
sg8
(imyEvolve
Tree
p54
(dp55
g13
(imyEvolve
Tree
p56
(dp57
g7
I2
sg8
(imyEvolve
Tree
p58
(dp59
g13
(imyEvolve
Tree
p60
(dp61
g7
I0
sg36
F3.5443431370256597
sg20
I01
sbsg7
I1
sg24
I01
sg25
g51
sbsg21
(imyEvolve
Tree
p62
(dp63
g13
(imyEvolve
Tree
p64
(dp65
g7
I0
sg20
I00
sbsg7
I1
sg24
I01
sg25
cmyEvolve
square
p66
sbsg24
I00
sg25
coperator
sub
p67
sbsg7
I3
sg24
I01
sg25
g43
sbsg21
(imyEvolve
Tree
p68
(dp69
g7
I3
sg8
(imyEvolve
Tree
p70
(dp71
g13
(imyEvolve
Tree
p72
(dp73
g13
(imyEvolve
Tree
p74
(dp75
g7
I0
sg20
I00
sbsg7
I1
sg24
I01
sg25
g66
sbsg7
I2
sg24
I01
sg25
g66
sbsg21
(imyEvolve
Tree
p76
(dp77
g13
(imyEvolve
Tree
p78
(dp79
g7
I1
sg8
(imyEvolve
Tree
p80
(dp81
g7
I0
sg36
F-2.9073600452221804
sg20
I01
sbsg21
(imyEvolve
Tree
p82
(dp83
g7
I0
sg20
I00
sbsg24
I00
sg25
g67
sbsg7
I2
sg24
I01
sg25
g43
sbsg24
I00
sg25
g44
sbsg24
I00
sg25
g44
sbsg24
I00
sg25
g44
sba(imyEvolve
Tree
p84
(dp85
g13
(imyEvolve
Tree
p86
(dp87
g13
(imyEvolve
Tree
p88
(dp89
g7
I0
sg20
I00
sbsg7
I1
sg24
I01
sg25
g66
sbsg7
I2
sg24
I01
sg25
g66
sba(imyEvolve
Tree
p90
(dp91
g7
I2
sg8
(imyEvolve
Tree
p92
(dp93
g13
(imyEvolve
Tree
p94
(dp95
g7
I0
sg20
I00
sbsg7
I1
sg24
I01
sg25
g66
sbsg21
(imyEvolve
Tree
p96
(dp97
g13
(imyEvolve
Tree
p98
(dp99
g7
I0
sg20
I00
sbsg7
I1
sg24
I01
sg25
g27
sbsg24
I00
sg25
g26
sba(imyEvolve
Tree
p100
(dp101
g13
(imyEvolve
Tree
p102
(dp103
g7
I3
sg8
(imyEvolve
Tree
p104
(dp105
g7
I2
sg8
(imyEvolve
Tree
p106
(dp107
g7
I1
sg8
(imyEvolve
Tree
p108
(dp109
g7
I0
sg36
F-4.349578504147668
sg20
I01
sbsg21
(imyEvolve
Tree
p110
(dp111
g7
I0
sg36
F-4.4294941599676765
sg20
I01
sbsg24
I00
sg25
g67
sbsg21
(imyEvolve
Tree
p112
(dp113
g13
(imyEvolve
Tree
p114
(dp115
g7
I0
sg36
F-1.2488303369698994
sg20
I01
sbsg7
I1
sg24
I01
sg25
g51
sbsg24
I00
sg25
g44
sbsg21
(imyEvolve
Tree
p116
(dp117
g13
(imyEvolve
Tree
p118
(dp119
g13
(imyEvolve
Tree
p120
(dp121
g7
I0
sg36
F-0.5817485248996013
sg20
I01
sbsg7
I1
sg24
I01
sg25
g27
sbsg7
I2
sg24
I01
sg25
g27
sbsg24
I00
sg25
g67
sbsg7
I4
sg24
I01
sg25
g43
sba(imyEvolve
Tree
p122
(dp123
g7
I3
sg8
(imyEvolve
Tree
p124
(dp125
g13
(imyEvolve
Tree
p126
(dp127
g7
I1
sg8
(imyEvolve
Tree
p128
(dp129
g7
I0
sg20
I00
sbsg21
(imyEvolve
Tree
p130
(dp131
g7
I0
sg36
F-0.9874374969569395
sg20
I01
sbsg24
I00
sg25
g44
sbsg7
I2
sg24
I01
sg25
g43
sbsg21
(imyEvolve
Tree
p132
(dp133
g13
(imyEvolve
Tree
p134
(dp135
g13
(imyEvolve
Tree
p136
(dp137
g7
I0
sg20
I00
sbsg7
I1
sg24
I01
sg25
g51
sbsg7
I2
sg24
I01
sg25
g27
sbsg24
I00
sg25
g44
sba(imyEvolve
Tree
p138
(dp139
g7
I2
sg8
(imyEvolve
Tree
p140
(dp141
g7
I1
sg8
(imyEvolve
Tree
p142
(dp143
g7
I0
sg36
F-0.6712570831847833
sg20
I01
sbsg21
(imyEvolve
Tree
p144
(dp145
g7
I0
sg20
I00
sbsg24
I00
sg25
g26
sbsg21
(imyEvolve
Tree
p146
(dp147
g7
I1
sg8
(imyEvolve
Tree
p148
(dp149
g7
I0
sg36
F-4.448044170192615
sg20
I01
sbsg21
(imyEvolve
Tree
p150
(dp151
g7
I0
sg20
I00
sbsg24
I00
sg25
g44
sbsg24
I00
sg25
g67
sba(imyEvolve
Tree
p152
(dp153
g7
I3
sg8
(imyEvolve
Tree
p154
(dp155
g7
I2
sg8
(imyEvolve
Tree
p156
(dp157
g7
I1
sg8
(imyEvolve
Tree
p158
(dp159
g7
I0
sg36
F1.5740775461770342
sg20
I01
sbsg21
(imyEvolve
Tree
p160
(dp161
g7
I0
sg20
I00
sbsg24
I00
sg25
g44
sbsg21
(imyEvolve
Tree
p162
(dp163
g7
I1
sg8
(imyEvolve
Tree
p164
(dp165
g7
I0
sg20
I00
sbsg21
(imyEvolve
Tree
p166
(dp167
g7
I0
sg36
F-4.91631172470634
sg20
I01
sbsg24
I00
sg25
g67
sbsg24
I00
sg25
g26
sbsg21
(imyEvolve
Tree
p168
(dp169
g13
(imyEvolve
Tree
p170
(dp171
g13
(imyEvolve
Tree
p172
(dp173
g7
I0
sg36
F-1.5515208525751545
sg20
I01
sbsg7
I1
sg24
I01
sg25
g66
sbsg7
I2
sg24
I01
sg25
g66
sbsg24
I00
sg25
g44
sba(imyEvolve
Tree
p174
(dp175
g13
(imyEvolve
Tree
p176
(dp177
g7
I4
sg8
(imyEvolve
Tree
p178
(dp179
g13
(imyEvolve
Tree
p180
(dp181
g7
I2
sg8
(imyEvolve
Tree
p182
(dp183
g7
I1
sg8
(imyEvolve
Tree
p184
(dp185
g7
I0
sg20
I00
sbsg21
(imyEvolve
Tree
p186
(dp187
g7
I0
sg20
I00
sbsg24
I00
sg25
g67
sbsg21
(imyEvolve
Tree
p188
(dp189
g7
I1
sg8
(imyEvolve
Tree
p190
(dp191
g7
I0
sg36
F-1.7702866832642772
sg20
I01
sbsg21
(imyEvolve
Tree
p192
(dp193
g7
I0
sg20
I00
sbsg24
I00
sg25
g26
sbsg24
I00
sg25
g26
sbsg7
I3
sg24
I01
sg25
g51
sbsg21
(imyEvolve
Tree
p194
(dp195
g7
I3
sg8
(imyEvolve
Tree
p196
(dp197
g13
(imyEvolve
Tree
p198
(dp199
g13
(imyEvolve
Tree
p200
(dp201
g7
I0
sg36
F3.626544209109152
sg20
I01
sbsg7
I1
sg24
I01
sg25
g27
sbsg7
I2
sg24
I01
sg25
g66
sbsg21
(imyEvolve
Tree
p202
(dp203
g7
I2
sg8
(imyEvolve
Tree
p204
(dp205
g13
(imyEvolve
Tree
p206
(dp207
g7
I0
sg20
I00
sbsg7
I1
sg24
I01
sg25
g66
sbsg21
(imyEvolve
Tree
p208
(dp209
g7
I1
sg8
(imyEvolve
Tree
p210
(dp211
g7
I0
sg20
I00
sbsg21
(imyEvolve
Tree
p212
(dp213
g7
I0
sg20
I00
sbsg24
I00
sg25
g44
sbsg24
I00
sg25
g67
sbsg24
I00
sg25
g67
sbsg24
I00
sg25
g26
sbsg7
I5
sg24
I01
sg25
g43
sba(imyEvolve
Tree
p214
(dp215
g13
(imyEvolve
Tree
p216
(dp217
g13
(imyEvolve
Tree
p218
(dp219
g13
(imyEvolve
Tree
p220
(dp221
g13
(imyEvolve
Tree
p222
(dp223
g7
I0
sg20
I00
sbsg7
I1
sg24
I01
sg25
g27
sbsg7
I2
sg24
I01
sg25
g27
sbsg7
I3
sg24
I01
sg25
g43
sbsg7
I4
sg24
I01
sg25
g66
sba(imyEvolve
Tree
p224
(dp225
g13
(imyEvolve
Tree
p226
(dp227
g7
I1
sg8
(imyEvolve
Tree
p228
(dp229
g7
I0
sg20
I00
sbsg21
(imyEvolve
Tree
p230
(dp231
g7
I0
sg20
I00
sbsg24
I00
sg25
g67
sbsg7
I2
sg24
I01
sg25
g51
sba(imyEvolve
Tree
p232
(dp233
g13
(imyEvolve
Tree
p234
(dp235
g7
I4
sg8
(imyEvolve
Tree
p236
(dp237
g7
I3
sg8
(imyEvolve
Tree
p238
(dp239
g13
(imyEvolve
Tree
p240
(dp241
g13
(imyEvolve
Tree
p242
(dp243
g7
I0
sg20
I00
sbsg7
I1
sg24
I01
sg25
g66
sbsg7
I2
sg24
I01
sg25
g27
sbsg21
(imyEvolve
Tree
p244
(dp245
g13
(imyEvolve
Tree
p246
(dp247
g7
I1
sg8
(imyEvolve
Tree
p248
(dp249
g7
I0
sg20
I00
sbsg21
(imyEvolve
Tree
p250
(dp251
g7
I0
sg20
I00
sbsg24
I00
sg25
g44
sbsg7
I2
sg24
I01
sg25
g66
sbsg24
I00
sg25
g67
sbsg21
(imyEvolve
Tree
p252
(dp253
g7
I3
sg8
(imyEvolve
Tree
p254
(dp255
g7
I2
sg8
(imyEvolve
Tree
p256
(dp257
g13
(imyEvolve
Tree
p258
(dp259
g7
I0
sg36
F1.2675248717093766
sg20
I01
sbsg7
I1
sg24
I01
sg25
g27
sbsg21
(imyEvolve
Tree
p260
(dp261
g13
(imyEvolve
Tree
p262
(dp263
g7
I0
sg20
I00
sbsg7
I1
sg24
I01
sg25
g66
sbsg24
I00
sg25
g44
sbsg21
(imyEvolve
Tree
p264
(dp265
g13
(imyEvolve
Tree
p266
(dp267
g13
(imyEvolve
Tree
p268
(dp269
g7
I0
sg36
F-2.4436945377523553
sg20
I01
sbsg7
I1
sg24
I01
sg25
g43
sbsg7
I2
sg24
I01
sg25
g43
sbsg24
I00
sg25
g26
sbsg24
I00
sg25
g44
sbsg7
I5
sg24
I01
sg25
g51
sbaa(lp270
(imyEvolve
Tree
p271
(dp272
g7
I4
sg8
(imyEvolve
Tree
p273
(dp274
g13
(imyEvolve
Tree
p275
(dp276
g7
I2
sg8
(imyEvolve
Tree
p277
(dp278
g13
(imyEvolve
Tree
p279
(dp280
g7
I0
sg20
I00
sbsg7
I1
sg24
I01
sg25
g66
sbsg21
(imyEvolve
Tree
p281
(dp282
g13
(imyEvolve
Tree
p283
(dp284
g7
I0
sg36
F-0.6002263852599485
sg20
I01
sbsg7
I1
sg24
I01
sg25
g27
sbsg24
I00
sg25
g26
sbsg7
I3
sg24
I01
sg25
g27
sbsg21
(imyEvolve
Tree
p285
(dp286
g13
(imyEvolve
Tree
p287
(dp288
g7
I2
sg8
(imyEvolve
Tree
p289
(dp290
g13
(imyEvolve
Tree
p291
(dp292
g7
I0
sg36
F-1.2124350033488507
sg20
I01
sbsg7
I1
sg24
I01
sg25
g27
sbsg21
(imyEvolve
Tree
p293
(dp294
g7
I1
sg8
(imyEvolve
Tree
p295
(dp296
g7
I0
sg36
F-1.871882955109875
sg20
I01
sbsg21
(imyEvolve
Tree
p297
(dp298
g7
I0
sg36
F-2.5771763801342527
sg20
I01
sbsg24
I00
sg25
g44
sbsg24
I00
sg25
g67
sbsg7
I3
sg24
I01
sg25
g27
sbsg24
I00
sg25
g67
sba(imyEvolve
Tree
p299
(dp300
g7
I3
sg8
(imyEvolve
Tree
p301
(dp302
g13
(imyEvolve
Tree
p303
(dp304
g13
(imyEvolve
Tree
p305
(dp306
g7
I0
sg36
F-3.018178068544878
sg20
I01
sbsg7
I1
sg24
I01
sg25
g43
sbsg7
I2
sg24
I01
sg25
g66
sbsg21
(imyEvolve
Tree
p307
(dp308
g7
I2
sg8
(imyEvolve
Tree
p309
(dp310
g7
I1
sg8
(imyEvolve
Tree
p311
(dp312
g7
I0
sg20
I00
sbsg21
(imyEvolve
Tree
p313
(dp314
g7
I0
sg20
I00
sbsg24
I00
sg25
g26
sbsg21
(imyEvolve
Tree
p315
(dp316
g7
I1
sg8
(imyEvolve
Tree
p317
(dp318
g7
I0
sg36
F-2.974776405495787
sg20
I01
sbsg21
(imyEvolve
Tree
p319
(dp320
g7
I0
sg20
I00
sbsg24
I00
sg25
g26
sbsg24
I00
sg25
g67
sbsg24
I00
sg25
g26
sba(imyEvolve
Tree
p321
(dp322
g7
I2
sg8
(imyEvolve
Tree
p323
(dp324
g7
I1
sg8
(imyEvolve
Tree
p325
(dp326
g7
I0
sg36
F-3.4326494314038394
sg20
I01
sbsg21
(imyEvolve
Tree
p327
(dp328
g7
I0
sg36
F-1.6509915302011633
sg20
I01
sbsg24
I00
sg25
g26
sbsg21
(imyEvolve
Tree
p329
(dp330
g7
I1
sg8
(imyEvolve
Tree
p331
(dp332
g7
I0
sg20
I00
sbsg21
(imyEvolve
Tree
p333
(dp334
g7
I0
sg20
I00
sbsg24
I00
sg25
g67
sbsg24
I00
sg25
g26
sba(imyEvolve
Tree
p335
(dp336
g7
I2
sg8
(imyEvolve
Tree
p337
(dp338
g7
I1
sg8
(imyEvolve
Tree
p339
(dp340
g7
I0
sg20
I00
sbsg21
(imyEvolve
Tree
p341
(dp342
g7
I0
sg36
F-1.8760972926995878
sg20
I01
sbsg24
I00
sg25
g44
sbsg21
(imyEvolve
Tree
p343
(dp344
g7
I1
sg8
(imyEvolve
Tree
p345
(dp346
g7
I0
sg20
I00
sbsg21
(imyEvolve
Tree
p347
(dp348
g7
I0
sg36
F2.11425373822701
sg20
I01
sbsg24
I00
sg25
g26
sbsg24
I00
sg25
g67
sba(imyEvolve
Tree
p349
(dp350
g7
I3
sg8
(imyEvolve
Tree
p351
(dp352
g7
I2
sg8
(imyEvolve
Tree
p353
(dp354
g7
I1
sg8
(imyEvolve
Tree
p355
(dp356
g7
I0
sg36
F-1.7392550229161552
sg20
I01
sbsg21
(imyEvolve
Tree
p357
(dp358
g7
I0
sg20
I00
sbsg24
I00
sg25
g26
sbsg21
(imyEvolve
Tree
p359
(dp360
g13
(imyEvolve
Tree
p361
(dp362
g7
I0
sg36
F0.3462152927133406
sg20
I01
sbsg7
I1
sg24
I01
sg25
g27
sbsg24
I00
sg25
g67
sbsg21
(imyEvolve
Tree
p363
(dp364
g13
(imyEvolve
Tree
p365
(dp366
g7
I1
sg8
(imyEvolve
Tree
p367
(dp368
g7
I0
sg20
I00
sbsg21
(imyEvolve
Tree
p369
(dp370
g7
I0
sg36
F4.562232237748962
sg20
I01
sbsg24
I00
sg25
g67
sbsg7
I2
sg24
I01
sg25
g66
sbsg24
I00
sg25
g26
sba(imyEvolve
Tree
p371
(dp372
g13
(imyEvolve
Tree
p373
(dp374
g7
I2
sg8
(imyEvolve
Tree
p375
(dp376
g13
(imyEvolve
Tree
p377
(dp378
g7
I0
sg36
F0.3757869702649579
sg20
I01
sbsg7
I1
sg24
I01
sg25
g27
sbsg21
(imyEvolve
Tree
p379
(dp380
g13
(imyEvolve
Tree
p381
(dp382
g7
I0
sg36
F3.5994977057724995
sg20
I01
sbsg7
I1
sg24
I01
sg25
g51
sbsg24
I00
sg25
g67
sbsg7
I3
sg24
I01
sg25
g66
sba(imyEvolve
Tree
p383
(dp384
g13
(imyEvolve
Tree
p385
(dp386
g7
I4
sg8
(imyEvolve
Tree
p387
(dp388
g13
(imyEvolve
Tree
p389
(dp390
g13
(imyEvolve
Tree
p391
(dp392
g13
(imyEvolve
Tree
p393
(dp394
g7
I0
sg20
I00
sbsg7
I1
sg24
I01
sg25
g27
sbsg7
I2
sg24
I01
sg25
g66
sbsg7
I3
sg24
I01
sg25
g27
sbsg21
(imyEvolve
Tree
p395
(dp396
g13
(imyEvolve
Tree
p397
(dp398
g7
I2
sg8
(imyEvolve
Tree
p399
(dp400
g7
I1
sg8
(imyEvolve
Tree
p401
(dp402
g7
I0
sg36
F3.4487125646771872
sg20
I01
sbsg21
(imyEvolve
Tree
p403
(dp404
g7
I0
sg36
F-4.727341200176868
sg20
I01
sbsg24
I00
sg25
g26
sbsg21
(imyEvolve
Tree
p405
(dp406
g7
I1
sg8
(imyEvolve
Tree
p407
(dp408
g7
I0
sg36
F3.7318199373270673
sg20
I01
sbsg21
(imyEvolve
Tree
p409
(dp410
g7
I0
sg20
I00
sbsg24
I00
sg25
g44
sbsg24
I00
sg25
g26
sbsg7
I3
sg24
I01
sg25
g66
sbsg24
I00
sg25
g26
sbsg7
I5
sg24
I01
sg25
g66
sba(imyEvolve
Tree
p411
(dp412
g13
(imyEvolve
Tree
p413
(dp414
g13
(imyEvolve
Tree
p415
(dp416
g7
I1
sg8
(imyEvolve
Tree
p417
(dp418
g7
I0
sg36
F4.538691231939492
sg20
I01
sbsg21
(imyEvolve
Tree
p419
(dp420
g7
I0
sg36
F-3.7179453122159
sg20
I01
sbsg24
I00
sg25
g26
sbsg7
I2
sg24
I01
sg25
g43
sbsg7
I3
sg24
I01
sg25
g43
sba(imyEvolve
Tree
p421
(dp422
g7
I3
sg8
(imyEvolve
Tree
p423
(dp424
g7
I2
sg8
(imyEvolve
Tree
p425
(dp426
g7
I1
sg8
(imyEvolve
Tree
p427
(dp428
g7
I0
sg36
F1.4382687580513736
sg20
I01
sbsg21
(imyEvolve
Tree
p429
(dp430
g7
I0
sg20
I00
sbsg24
I00
sg25
g67
sbsg21
(imyEvolve
Tree
p431
(dp432
g7
I1
sg8
(imyEvolve
Tree
p433
(dp434
g7
I0
sg20
I00
sbsg21
(imyEvolve
Tree
p435
(dp436
g7
I0
sg20
I00
sbsg24
I00
sg25
g67
sbsg24
I00
sg25
g44
sbsg21
(imyEvolve
Tree
p437
(dp438
g7
I2
sg8
(imyEvolve
Tree
p439
(dp440
g7
I1
sg8
(imyEvolve
Tree
p441
(dp442
g7
I0
sg36
F-4.041995593775272
sg20
I01
sbsg21
(imyEvolve
Tree
p443
(dp444
g7
I0
sg36
F-0.5987417082099498
sg20
I01
sbsg24
I00
sg25
g26
sbsg21
(imyEvolve
Tree
p445
(dp446
g7
I1
sg8
(imyEvolve
Tree
p447
(dp448
g7
I0
sg20
I00
sbsg21
(imyEvolve
Tree
p449
(dp450
g7
I0
sg20
I00
sbsg24
I00
sg25
g26
sbsg24
I00
sg25
g44
sbsg24
I00
sg25
g44
sba(imyEvolve
Tree
p451
(dp452
g7
I3
sg8
(imyEvolve
Tree
p453
(dp454
g7
I2
sg8
(imyEvolve
Tree
p455
(dp456
g7
I1
sg8
(imyEvolve
Tree
p457
(dp458
g7
I0
sg20
I00
sbsg21
(imyEvolve
Tree
p459
(dp460
g7
I0
sg36
F-4.104649597358529
sg20
I01
sbsg24
I00
sg25
g67
sbsg21
(imyEvolve
Tree
p461
(dp462
g7
I1
sg8
(imyEvolve
Tree
p463
(dp464
g7
I0
sg20
I00
sbsg21
(imyEvolve
Tree
p465
(dp466
g7
I0
sg36
F4.5417704744048315
sg20
I01
sbsg24
I00
sg25
g26
sbsg24
I00
sg25
g26
sbsg21
(imyEvolve
Tree
p467
(dp468
g7
I2
sg8
(imyEvolve
Tree
p469
(dp470
g7
I1
sg8
(imyEvolve
Tree
p471
(dp472
g7
I0
sg36
F-0.1551173914834756
sg20
I01
sbsg21
(imyEvolve
Tree
p473
(dp474
g7
I0
sg20
I00
sbsg24
I00
sg25
g26
sbsg21
(imyEvolve
Tree
p475
(dp476
g7
I1
sg8
(imyEvolve
Tree
p477
(dp478
g7
I0
sg36
F-0.5784132107092477
sg20
I01
sbsg21
(imyEvolve
Tree
p479
(dp480
g7
I0
sg36
F-0.1403424914996716
sg20
I01
sbsg24
I00
sg25
g26
sbsg24
I00
sg25
g44
sbsg24
I00
sg25
g44
sba(imyEvolve
Tree
p481
(dp482
g7
I3
sg8
(imyEvolve
Tree
p483
(dp484
g7
I2
sg8
(imyEvolve
Tree
p485
(dp486
g7
I1
sg8
(imyEvolve
Tree
p487
(dp488
g7
I0
sg36
F2.999140075572554
sg20
I01
sbsg21
(imyEvolve
Tree
p489
(dp490
g7
I0
sg36
F-4.66938810524214
sg20
I01
sbsg24
I00
sg25
g67
sbsg21
(imyEvolve
Tree
p491
(dp492
g13
(imyEvolve
Tree
p493
(dp494
g7
I0
sg36
F3.4384927806413472
sg20
I01
sbsg7
I1
sg24
I01
sg25
g66
sbsg24
I00
sg25
g67
sbsg21
(imyEvolve
Tree
p495
(dp496
g7
I2
sg8
(imyEvolve
Tree
p497
(dp498
g13
(imyEvolve
Tree
p499
(dp500
g7
I0
sg36
F-2.912429130402553
sg20
I01
sbsg7
I1
sg24
I01
sg25
g51
sbsg21
(imyEvolve
Tree
p501
(dp502
g13
(imyEvolve
Tree
p503
(dp504
g7
I0
sg36
F0.2657192085543052
sg20
I01
sbsg7
I1
sg24
I01
sg25
g43
sbsg24
I00
sg25
g44
sbsg24
I00
sg25
g44
sba(imyEvolve
Tree
p505
(dp506
g13
(imyEvolve
Tree
p507
(dp508
g13
(imyEvolve
Tree
p509
(dp510
g7
I2
sg8
(imyEvolve
Tree
p511
(dp512
g7
I1
sg8
(imyEvolve
Tree
p513
(dp514
g7
I0
sg20
I00
sbsg21
(imyEvolve
Tree
p515
(dp516
g7
I0
sg20
I00
sbsg24
I00
sg25
g26
sbsg21
(imyEvolve
Tree
p517
(dp518
g13
(imyEvolve
Tree
p519
(dp520
g7
I0
sg36
F4.760756310389986
sg20
I01
sbsg7
I1
sg24
I01
sg25
g43
sbsg24
I00
sg25
g67
sbsg7
I3
sg24
I01
sg25
g51
sbsg7
I4
sg24
I01
sg25
g43
sba(imyEvolve
Tree
p521
(dp522
g13
(imyEvolve
Tree
p523
(dp524
g7
I2
sg8
(imyEvolve
Tree
p525
(dp526
g7
I1
sg8
(imyEvolve
Tree
p527
(dp528
g7
I0
sg36
F0.4639614535743224
sg20
I01
sbsg21
(imyEvolve
Tree
p529
(dp530
g7
I0
sg36
F-0.13018430266883563
sg20
I01
sbsg24
I00
sg25
g67
sbsg21
(imyEvolve
Tree
p531
(dp532
g13
(imyEvolve
Tree
p533
(dp534
g7
I0
sg20
I00
sbsg7
I1
sg24
I01
sg25
g27
sbsg24
I00
sg25
g67
sbsg7
I3
sg24
I01
sg25
g51
sba(imyEvolve
Tree
p535
(dp536
g7
I3
sg8
(imyEvolve
Tree
p537
(dp538
g13
(imyEvolve
Tree
p539
(dp540
g7
I1
sg8
(imyEvolve
Tree
p541
(dp542
g7
I0
sg20
I00
sbsg21
(imyEvolve
Tree
p543
(dp544
g7
I0
sg20
I00
sbsg24
I00
sg25
g44
sbsg7
I2
sg24
I01
sg25
g27
sbsg21
(imyEvolve
Tree
p545
(dp546
g13
(imyEvolve
Tree
p547
(dp548
g13
(imyEvolve
Tree
p549
(dp550
g7
I0
sg36
F2.819598468555178
sg20
I01
sbsg7
I1
sg24
I01
sg25
g43
sbsg7
I2
sg24
I01
sg25
g27
sbsg24
I00
sg25
g67
sba(imyEvolve
Tree
p551
(dp552
g13
(imyEvolve
Tree
p553
(dp554
g13
(imyEvolve
Tree
p555
(dp556
g13
(imyEvolve
Tree
p557
(dp558
g13
(imyEvolve
Tree
p559
(dp560
g7
I1
sg8
(imyEvolve
Tree
p561
(dp562
g7
I0
sg36
F-0.17119700337820554
sg20
I01
sbsg21
(imyEvolve
Tree
p563
(dp564
g7
I0
sg20
I00
sbsg24
I00
sg25
g44
sbsg7
I2
sg24
I01
sg25
g27
sbsg7
I3
sg24
I01
sg25
g51
sbsg7
I4
sg24
I01
sg25
g43
sbsg7
I5
sg24
I01
sg25
g51
sba(imyEvolve
Tree
p565
(dp566
g7
I3
sg8
(imyEvolve
Tree
p567
(dp568
g13
(imyEvolve
Tree
p569
(dp570
g13
(imyEvolve
Tree
p571
(dp572
g7
I0
sg36
F3.5431017045592856
sg20
I01
sbsg7
I1
sg24
I01
sg25
g51
sbsg7
I2
sg24
I01
sg25
g66
sbsg21
(imyEvolve
Tree
p573
(dp574
g7
I2
sg8
(imyEvolve
Tree
p575
(dp576
g13
(imyEvolve
Tree
p577
(dp578
g7
I0
sg36
F3.079207195016574
sg20
I01
sbsg7
I1
sg24
I01
sg25
g51
sbsg21
(imyEvolve
Tree
p579
(dp580
g7
I1
sg8
(imyEvolve
Tree
p581
(dp582
g7
I0
sg20
I00
sbsg21
(imyEvolve
Tree
p583
(dp584
g7
I0
sg36
F3.936443948715926
sg20
I01
sbsg24
I00
sg25
g44
sbsg24
I00
sg25
g26
sbsg24
I00
sg25
g44
sbaa(lp585
(imyEvolve
Tree
p586
(dp587
g13
(imyEvolve
Tree
p588
(dp589
g13
(imyEvolve
Tree
p590
(dp591
g13
(imyEvolve
Tree
p592
(dp593
g7
I2
sg8
(imyEvolve
Tree
p594
(dp595
g13
(imyEvolve
Tree
p596
(dp597
g7
I0
sg36
F-3.0638176452444545
sg20
I01
sbsg7
I1
sg24
I01
sg25
g66
sbsg21
(imyEvolve
Tree
p598
(dp599
g7
I1
sg8
(imyEvolve
Tree
p600
(dp601
g7
I0
sg36
F-3.396411674981249
sg20
I01
sbsg21
(imyEvolve
Tree
p602
(dp603
g7
I0
sg36
F4.219616185654328
sg20
I01
sbsg24
I00
sg25
g44
sbsg24
I00
sg25
g67
sbsg7
I3
sg24
I01
sg25
g51
sbsg7
I4
sg24
I01
sg25
g66
sbsg7
I5
sg24
I01
sg25
g66
sba(imyEvolve
Tree
p604
(dp605
g7
I4
sg8
(imyEvolve
Tree
p606
(dp607
g7
I3
sg8
(imyEvolve
Tree
p608
(dp609
g13
(imyEvolve
Tree
p610
(dp611
g13
(imyEvolve
Tree
p612
(dp613
g7
I0
sg20
I00
sbsg7
I1
sg24
I01
sg25
g27
sbsg7
I2
sg24
I01
sg25
g27
sbsg21
(imyEvolve
Tree
p614
(dp615
g13
(imyEvolve
Tree
p616
(dp617
g7
I1
sg8
(imyEvolve
Tree
p618
(dp619
g7
I0
sg36
F-3.4658522303701678
sg20
I01
sbsg21
(imyEvolve
Tree
p620
(dp621
g7
I0
sg20
I00
sbsg24
I00
sg25
g26
sbsg7
I2
sg24
I01
sg25
g66
sbsg24
I00
sg25
g26
sbsg21
(imyEvolve
Tree
p622
(dp623
g13
(imyEvolve
Tree
p624
(dp625
g7
I2
sg8
(imyEvolve
Tree
p626
(dp627
g7
I1
sg8
(imyEvolve
Tree
p628
(dp629
g7
I0
sg36
F0.9033757195893299
sg20
I01
sbsg21
(imyEvolve
Tree
p630
(dp631
g7
I0
sg20
I00
sbsg24
I00
sg25
g67
sbsg21
(imyEvolve
Tree
p632
(dp633
g13
(imyEvolve
Tree
p634
(dp635
g7
I0
sg20
I00
sbsg7
I1
sg24
I01
sg25
g43
sbsg24
I00
sg25
g26
sbsg7
I3
sg24
I01
sg25
g66
sbsg24
I00
sg25
g67
sba(imyEvolve
Tree
p636
(dp637
g13
(imyEvolve
Tree
p638
(dp639
g13
(imyEvolve
Tree
p640
(dp641
g13
(imyEvolve
Tree
p642
(dp643
g7
I2
sg8
(imyEvolve
Tree
p644
(dp645
g13
(imyEvolve
Tree
p646
(dp647
g7
I0
sg36
F2.1346297100311107
sg20
I01
sbsg7
I1
sg24
I01
sg25
g66
sbsg21
(imyEvolve
Tree
p648
(dp649
g13
(imyEvolve
Tree
p650
(dp651
g7
I0
sg36
F-1.572291883887126
sg20
I01
sbsg7
I1
sg24
I01
sg25
g43
sbsg24
I00
sg25
g67
sbsg7
I3
sg24
I01
sg25
g43
sbsg7
I4
sg24
I01
sg25
g27
sbsg7
I5
sg24
I01
sg25
g43
sba(imyEvolve
Tree
p652
(dp653
g13
(imyEvolve
Tree
p654
(dp655
g13
(imyEvolve
Tree
p656
(dp657
g13
(imyEvolve
Tree
p658
(dp659
g13
(imyEvolve
Tree
p660
(dp661
g7
I0
sg20
I00
sbsg7
I1
sg24
I01
sg25
g66
sbsg7
I2
sg24
I01
sg25
g43
sbsg7
I3
sg24
I01
sg25
g66
sbsg7
I4
sg24
I01
sg25
g27
sba(imyEvolve
Tree
p662
(dp663
g13
(imyEvolve
Tree
p664
(dp665
g13
(imyEvolve
Tree
p666
(dp667
g7
I1
sg8
(imyEvolve
Tree
p668
(dp669
g7
I0
sg36
F3.0656971895063307
sg20
I01
sbsg21
(imyEvolve
Tree
p670
(dp671
g7
I0
sg36
F-0.9835610080939734
sg20
I01
sbsg24
I00
sg25
g67
sbsg7
I2
sg24
I01
sg25
g27
sbsg7
I3
sg24
I01
sg25
g43
sba(imyEvolve
Tree
p672
(dp673
g7
I5
sg8
(imyEvolve
Tree
p674
(dp675
g7
I4
sg8
(imyEvolve
Tree
p676
(dp677
g7
I3
sg8
(imyEvolve
Tree
p678
(dp679
g7
I2
sg8
(imyEvolve
Tree
p680
(dp681
g13
(imyEvolve
Tree
p682
(dp683
g7
I0
sg20
I00
sbsg7
I1
sg24
I01
sg25
g27
sbsg21
(imyEvolve
Tree
p684
(dp685
g7
I1
sg8
(imyEvolve
Tree
p686
(dp687
g7
I0
sg20
I00
sbsg21
(imyEvolve
Tree
p688
(dp689
g7
I0
sg20
I00
sbsg24
I00
sg25
g44
sbsg24
I00
sg25
g26
sbsg21
(imyEvolve
Tree
p690
(dp691
g13
(imyEvolve
Tree
p692
(dp693
g13
(imyEvolve
Tree
p694
(dp695
g7
I0
sg36
F1.9204255603212914
sg20
I01
sbsg7
I1
sg24
I01
sg25
g51
sbsg7
I2
sg24
I01
sg25
g27
sbsg24
I00
sg25
g26
sbsg21
(imyEvolve
Tree
p696
(dp697
g7
I3
sg8
(imyEvolve
Tree
p698
(dp699
g13
(imyEvolve
Tree
p700
(dp701
g13
(imyEvolve
Tree
p702
(dp703
g7
I0
sg20
I00
sbsg7
I1
sg24
I01
sg25
g43
sbsg7
I2
sg24
I01
sg25
g51
sbsg21
(imyEvolve
Tree
p704
(dp705
g7
I2
sg8
(imyEvolve
Tree
p706
(dp707
g13
(imyEvolve
Tree
p708
(dp709
g7
I0
sg20
I00
sbsg7
I1
sg24
I01
sg25
g51
sbsg21
(imyEvolve
Tree
p710
(dp711
g7
I1
sg8
(imyEvolve
Tree
p712
(dp713
g7
I0
sg36
F4.990186014505305
sg20
I01
sbsg21
(imyEvolve
Tree
p714
(dp715
g7
I0
sg20
I00
sbsg24
I00
sg25
g44
sbsg24
I00
sg25
g44
sbsg24
I00
sg25
g26
sbsg24
I00
sg25
g44
sbsg21
(imyEvolve
Tree
p716
(dp717
g13
(imyEvolve
Tree
p718
(dp719
g13
(imyEvolve
Tree
p720
(dp721
g7
I2
sg8
(imyEvolve
Tree
p722
(dp723
g13
(imyEvolve
Tree
p724
(dp725
g7
I0
sg36
F-0.6189513259404142
sg20
I01
sbsg7
I1
sg24
I01
sg25
g66
sbsg21
(imyEvolve
Tree
p726
(dp727
g13
(imyEvolve
Tree
p728
(dp729
g7
I0
sg20
I00
sbsg7
I1
sg24
I01
sg25
g43
sbsg24
I00
sg25
g26
sbsg7
I3
sg24
I01
sg25
g43
sbsg7
I4
sg24
I01
sg25
g27
sbsg24
I00
sg25
g44
sba(imyEvolve
Tree
p730
(dp731
g7
I5
sg8
(imyEvolve
Tree
p732
(dp733
g7
I4
sg8
(imyEvolve
Tree
p734
(dp735
g7
I3
sg8
(imyEvolve
Tree
p736
(dp737
g7
I2
sg8
(imyEvolve
Tree
p738
(dp739
g13
(imyEvolve
Tree
p740
(dp741
g7
I0
sg20
I00
sbsg7
I1
sg24
I01
sg25
g27
sbsg21
(imyEvolve
Tree
p742
(dp743
g13
(imyEvolve
Tree
p744
(dp745
g7
I0
sg36
F0.2540035650079435
sg20
I01
sbsg7
I1
sg24
I01
sg25
g66
sbsg24
I00
sg25
g26
sbsg21
(imyEvolve
Tree
p746
(dp747
g13
(imyEvolve
Tree
p748
(dp749
g13
(imyEvolve
Tree
p750
(dp751
g7
I0
sg36
F-1.1596012114554686
sg20
I01
sbsg7
I1
sg24
I01
sg25
g27
sbsg7
I2
sg24
I01
sg25
g43
sbsg24
I00
sg25
g44
sbsg21
(imyEvolve
Tree
p752
(dp753
g13
(imyEvolve
Tree
p754
(dp755
g13
(imyEvolve
Tree
p756
(dp757
g13
(imyEvolve
Tree
p758
(dp759
g7
I0
sg36
F-2.0187333234485205
sg20
I01
sbsg7
I1
sg24
I01
sg25
g27
sbsg7
I2
sg24
I01
sg25
g27
sbsg7
I3
sg24
I01
sg25
g66
sbsg24
I00
sg25
g44
sbsg21
(imyEvolve
Tree
p760
(dp761
g13
(imyEvolve
Tree
p762
(dp763
g7
I3
sg8
(imyEvolve
Tree
p764
(dp765
g7
I2
sg8
(imyEvolve
Tree
p766
(dp767
g13
(imyEvolve
Tree
p768
(dp769
g7
I0
sg20
I00
sbsg7
I1
sg24
I01
sg25
g51
sbsg21
(imyEvolve
Tree
p770
(dp771
g7
I1
sg8
(imyEvolve
Tree
p772
(dp773
g7
I0
sg20
I00
sbsg21
(imyEvolve
Tree
p774
(dp775
g7
I0
sg20
I00
sbsg24
I00
sg25
g26
sbsg24
I00
sg25
g44
sbsg21
(imyEvolve
Tree
p776
(dp777
g13
(imyEvolve
Tree
p778
(dp779
g13
(imyEvolve
Tree
p780
(dp781
g7
I0
sg20
I00
sbsg7
I1
sg24
I01
sg25
g66
sbsg7
I2
sg24
I01
sg25
g66
sbsg24
I00
sg25
g44
sbsg7
I4
sg24
I01
sg25
g51
sbsg24
I00
sg25
g26
sba(imyEvolve
Tree
p782
(dp783
g7
I5
sg8
(imyEvolve
Tree
p784
(dp785
g7
I4
sg8
(imyEvolve
Tree
p786
(dp787
g7
I3
sg8
(imyEvolve
Tree
p788
(dp789
g7
I2
sg8
(imyEvolve
Tree
p790
(dp791
g13
(imyEvolve
Tree
p792
(dp793
g7
I0
sg36
F-0.7380197472185932
sg20
I01
sbsg7
I1
sg24
I01
sg25
g27
sbsg21
(imyEvolve
Tree
p794
(dp795
g13
(imyEvolve
Tree
p796
(dp797
g7
I0
sg36
F-3.415892201368136
sg20
I01
sbsg7
I1
sg24
I01
sg25
g27
sbsg24
I00
sg25
g67
sbsg21
(imyEvolve
Tree
p798
(dp799
g7
I2
sg8
(imyEvolve
Tree
p800
(dp801
g7
I1
sg8
(imyEvolve
Tree
p802
(dp803
g7
I0
sg20
I00
sbsg21
(imyEvolve
Tree
p804
(dp805
g7
I0
sg36
F-3.979817816237695
sg20
I01
sbsg24
I00
sg25
g44
sbsg21
(imyEvolve
Tree
p806
(dp807
g13
(imyEvolve
Tree
p808
(dp809
g7
I0
sg36
F-4.975725464573376
sg20
I01
sbsg7
I1
sg24
I01
sg25
g27
sbsg24
I00
sg25
g67
sbsg24
I00
sg25
g26
sbsg21
(imyEvolve
Tree
p810
(dp811
g13
(imyEvolve
Tree
p812
(dp813
g7
I2
sg8
(imyEvolve
Tree
p814
(dp815
g13
(imyEvolve
Tree
p816
(dp817
g7
I0
sg20
I00
sbsg7
I1
sg24
I01
sg25
g27
sbsg21
(imyEvolve
Tree
p818
(dp819
g13
(imyEvolve
Tree
p820
(dp821
g7
I0
sg36
F-2.03390546678241
sg20
I01
sbsg7
I1
sg24
I01
sg25
g51
sbsg24
I00
sg25
g26
sbsg7
I3
sg24
I01
sg25
g27
sbsg24
I00
sg25
g67
sbsg21
(imyEvolve
Tree
p822
(dp823
g13
(imyEvolve
Tree
p824
(dp825
g7
I3
sg8
(imyEvolve
Tree
p826
(dp827
g7
I2
sg8
(imyEvolve
Tree
p828
(dp829
g13
(imyEvolve
Tree
p830
(dp831
g7
I0
sg20
I00
sbsg7
I1
sg24
I01
sg25
g43
sbsg21
(imyEvolve
Tree
p832
(dp833
g13
(imyEvolve
Tree
p834
(dp835
g7
I0
sg20
I00
sbsg7
I1
sg24
I01
sg25
g51
sbsg24
I00
sg25
g26
sbsg21
(imyEvolve
Tree
p836
(dp837
g13
(imyEvolve
Tree
p838
(dp839
g13
(imyEvolve
Tree
p840
(dp841
g7
I0
sg20
I00
sbsg7
I1
sg24
I01
sg25
g27
sbsg7
I2
sg24
I01
sg25
g27
sbsg24
I00
sg25
g26
sbsg7
I4
sg24
I01
sg25
g43
sbsg24
I00
sg25
g67
sba(imyEvolve
Tree
p842
(dp843
g13
(imyEvolve
Tree
p844
(dp845
g7
I4
sg8
(imyEvolve
Tree
p846
(dp847
g7
I3
sg8
(imyEvolve
Tree
p848
(dp849
g13
(imyEvolve
Tree
p850
(dp851
g13
(imyEvolve
Tree
p852
(dp853
g7
I0
sg36
F-4.11307588285884
sg20
I01
sbsg7
I1
sg24
I01
sg25
g66
sbsg7
I2
sg24
I01
sg25
g51
sbsg21
(imyEvolve
Tree
p854
(dp855
g13
(imyEvolve
Tree
p856
(dp857
g13
(imyEvolve
Tree
p858
(dp859
g7
I0
sg20
I00
sbsg7
I1
sg24
I01
sg25
g27
sbsg7
I2
sg24
I01
sg25
g27
sbsg24
I00
sg25
g26
sbsg21
(imyEvolve
Tree
p860
(dp861
g13
(imyEvolve
Tree
p862
(dp863
g13
(imyEvolve
Tree
p864
(dp865
g13
(imyEvolve
Tree
p866
(dp867
g7
I0
sg20
I00
sbsg7
I1
sg24
I01
sg25
g66
sbsg7
I2
sg24
I01
sg25
g43
sbsg7
I3
sg24
I01
sg25
g27
sbsg24
I00
sg25
g44
sbsg7
I5
sg24
I01
sg25
g43
sba(imyEvolve
Tree
p868
(dp869
g13
(imyEvolve
Tree
p870
(dp871
g13
(imyEvolve
Tree
p872
(dp873
g13
(imyEvolve
Tree
p874
(dp875
g7
I0
sg36
F3.328724073089525
sg20
I01
sbsg7
I1
sg24
I01
sg25
g27
sbsg7
I2
sg24
I01
sg25
g27
sbsg7
I3
sg24
I01
sg25
g43
sba(imyEvolve
Tree
p876
(dp877
g13
(imyEvolve
Tree
p878
(dp879
g13
(imyEvolve
Tree
p880
(dp881
g13
(imyEvolve
Tree
p882
(dp883
g13
(imyEvolve
Tree
p884
(dp885
g7
I0
sg36
F1.0559048684499919
sg20
I01
sbsg7
I1
sg24
I01
sg25
g51
sbsg7
I2
sg24
I01
sg25
g66
sbsg7
I3
sg24
I01
sg25
g66
sbsg7
I4
sg24
I01
sg25
g43
sba(imyEvolve
Tree
p886
(dp887
g13
(imyEvolve
Tree
p888
(dp889
g7
I2
sg8
(imyEvolve
Tree
p890
(dp891
g7
I1
sg8
(imyEvolve
Tree
p892
(dp893
g7
I0
sg20
I00
sbsg21
(imyEvolve
Tree
p894
(dp895
g7
I0
sg20
I00
sbsg24
I00
sg25
g44
sbsg21
(imyEvolve
Tree
p896
(dp897
g7
I1
sg8
(imyEvolve
Tree
p898
(dp899
g7
I0
sg20
I00
sbsg21
(imyEvolve
Tree
p900
(dp901
g7
I0
sg36
F3.9188028925443987
sg20
I01
sbsg24
I00
sg25
g26
sbsg24
I00
sg25
g44
sbsg7
I3
sg24
I01
sg25
g43
sba(imyEvolve
Tree
p902
(dp903
g7
I4
sg8
(imyEvolve
Tree
p904
(dp905
g7
I3
sg8
(imyEvolve
Tree
p906
(dp907
g7
I2
sg8
(imyEvolve
Tree
p908
(dp909
g13
(imyEvolve
Tree
p910
(dp911
g7
I0
sg36
F3.1706649899106196
sg20
I01
sbsg7
I1
sg24
I01
sg25
g51
sbsg21
(imyEvolve
Tree
p912
(dp913
g7
I1
sg8
(imyEvolve
Tree
p914
(dp915
g7
I0
sg20
I00
sbsg21
(imyEvolve
Tree
p916
(dp917
g7
I0
sg36
F0.5458737657858261
sg20
I01
sbsg24
I00
sg25
g44
sbsg24
I00
sg25
g67
sbsg21
(imyEvolve
Tree
p918
(dp919
g13
(imyEvolve
Tree
p920
(dp921
g7
I1
sg8
(imyEvolve
Tree
p922
(dp923
g7
I0
sg36
F2.886703905791588
sg20
I01
sbsg21
(imyEvolve
Tree
p924
(dp925
g7
I0
sg20
I00
sbsg24
I00
sg25
g67
sbsg7
I2
sg24
I01
sg25
g43
sbsg24
I00
sg25
g26
sbsg21
(imyEvolve
Tree
p926
(dp927
g13
(imyEvolve
Tree
p928
(dp929
g7
I2
sg8
(imyEvolve
Tree
p930
(dp931
g7
I1
sg8
(imyEvolve
Tree
p932
(dp933
g7
I0
sg36
F-3.5068393196079217
sg20
I01
sbsg21
(imyEvolve
Tree
p934
(dp935
g7
I0
sg36
F4.837437573044806
sg20
I01
sbsg24
I00
sg25
g26
sbsg21
(imyEvolve
Tree
p936
(dp937
g7
I1
sg8
(imyEvolve
Tree
p938
(dp939
g7
I0
sg20
I00
sbsg21
(imyEvolve
Tree
p940
(dp941
g7
I0
sg20
I00
sbsg24
I00
sg25
g67
sbsg24
I00
sg25
g26
sbsg7
I3
sg24
I01
sg25
g51
sbsg24
I00
sg25
g44
sba(imyEvolve
Tree
p942
(dp943
g7
I5
sg8
(imyEvolve
Tree
p944
(dp945
g7
I4
sg8
(imyEvolve
Tree
p946
(dp947
g7
I3
sg8
(imyEvolve
Tree
p948
(dp949
g7
I2
sg8
(imyEvolve
Tree
p950
(dp951
g7
I1
sg8
(imyEvolve
Tree
p952
(dp953
g7
I0
sg20
I00
sbsg21
(imyEvolve
Tree
p954
(dp955
g7
I0
sg36
F-1.6970101719506578
sg20
I01
sbsg24
I00
sg25
g44
sbsg21
(imyEvolve
Tree
p956
(dp957
g7
I1
sg8
(imyEvolve
Tree
p958
(dp959
g7
I0
sg36
F1.1411151079892417
sg20
I01
sbsg21
(imyEvolve
Tree
p960
(dp961
g7
I0
sg20
I00
sbsg24
I00
sg25
g67
sbsg24
I00
sg25
g26
sbsg21
(imyEvolve
Tree
p962
(dp963
g7
I2
sg8
(imyEvolve
Tree
p964
(dp965
g13
(imyEvolve
Tree
p966
(dp967
g7
I0
sg36
F0.8800993193051676
sg20
I01
sbsg7
I1
sg24
I01
sg25
g51
sbsg21
(imyEvolve
Tree
p968
(dp969
g7
I1
sg8
(imyEvolve
Tree
p970
(dp971
g7
I0
sg20
I00
sbsg21
(imyEvolve
Tree
p972
(dp973
g7
I0
sg20
I00
sbsg24
I00
sg25
g67
sbsg24
I00
sg25
g26
sbsg24
I00
sg25
g44
sbsg21
(imyEvolve
Tree
p974
(dp975
g7
I3
sg8
(imyEvolve
Tree
p976
(dp977
g7
I2
sg8
(imyEvolve
Tree
p978
(dp979
g7
I1
sg8
(imyEvolve
Tree
p980
(dp981
g7
I0
sg20
I00
sbsg21
(imyEvolve
Tree
p982
(dp983
g7
I0
sg36
F-2.051583075682182
sg20
I01
sbsg24
I00
sg25
g67
sbsg21
(imyEvolve
Tree
p984
(dp985
g7
I1
sg8
(imyEvolve
Tree
p986
(dp987
g7
I0
sg36
F1.6295910562554363
sg20
I01
sbsg21
(imyEvolve
Tree
p988
(dp989
g7
I0
sg36
F-1.813661331236629
sg20
I01
sbsg24
I00
sg25
g67
sbsg24
I00
sg25
g67
sbsg21
(imyEvolve
Tree
p990
(dp991
g7
I2
sg8
(imyEvolve
Tree
p992
(dp993
g13
(imyEvolve
Tree
p994
(dp995
g7
I0
sg36
F2.6941216825638206
sg20
I01
sbsg7
I1
sg24
I01
sg25
g43
sbsg21
(imyEvolve
Tree
p996
(dp997
g7
I1
sg8
(imyEvolve
Tree
p998
(dp999
g7
I0
sg20
I00
sbsg21
(imyEvolve
Tree
p1000
(dp1001
g7
I0
sg20
I00
sbsg24
I00
sg25
g67
sbsg24
I00
sg25
g67
sbsg24
I00
sg25
g44
sbsg24
I00
sg25
g67
sbsg21
(imyEvolve
Tree
p1002
(dp1003
g7
I4
sg8
(imyEvolve
Tree
p1004
(dp1005
g13
(imyEvolve
Tree
p1006
(dp1007
g13
(imyEvolve
Tree
p1008
(dp1009
g13
(imyEvolve
Tree
p1010
(dp1011
g7
I0
sg36
F-2.1608076609734725
sg20
I01
sbsg7
I1
sg24
I01
sg25
g27
sbsg7
I2
sg24
I01
sg25
g43
sbsg7
I3
sg24
I01
sg25
g51
sbsg21
(imyEvolve
Tree
p1012
(dp1013
g13
(imyEvolve
Tree
p1014
(dp1015
g13
(imyEvolve
Tree
p1016
(dp1017
g7
I1
sg8
(imyEvolve
Tree
p1018
(dp1019
g7
I0
sg20
I00
sbsg21
(imyEvolve
Tree
p1020
(dp1021
g7
I0
sg20
I00
sbsg24
I00
sg25
g44
sbsg7
I2
sg24
I01
sg25
g27
sbsg7
I3
sg24
I01
sg25
g51
sbsg24
I00
sg25
g67
sbsg24
I00
sg25
g26
sba(imyEvolve
Tree
p1022
(dp1023
g7
I2
sg8
(imyEvolve
Tree
p1024
(dp1025
g7
I1
sg8
(imyEvolve
Tree
p1026
(dp1027
g7
I0
sg20
I00
sbsg21
(imyEvolve
Tree
p1028
(dp1029
g7
I0
sg20
I00
sbsg24
I00
sg25
g67
sbsg21
(imyEvolve
Tree
p1030
(dp1031
g7
I1
sg8
(imyEvolve
Tree
p1032
(dp1033
g7
I0
sg20
I00
sbsg21
(imyEvolve
Tree
p1034
(dp1035
g7
I0
sg36
F-0.9211243870292662
sg20
I01
sbsg24
I00
sg25
g67
sbsg24
I00
sg25
g26
sba(imyEvolve
Tree
p1036
(dp1037
g13
(imyEvolve
Tree
p1038
(dp1039
g13
(imyEvolve
Tree
p1040
(dp1041
g7
I0
sg36
F-4.3589081710044635
sg20
I01
sbsg7
I1
sg24
I01
sg25
g51
sbsg7
I2
sg24
I01
sg25
g66
sbaa(lp1042
(imyEvolve
Tree
p1043
(dp1044
g7
I4
sg8
(imyEvolve
Tree
p1045
(dp1046
g13
(imyEvolve
Tree
p1047
(dp1048
g7
I2
sg8
(imyEvolve
Tree
p1049
(dp1050
g7
I1
sg8
(imyEvolve
Tree
p1051
(dp1052
g7
I0
sg20
I00
sbsg21
(imyEvolve
Tree
p1053
(dp1054
g7
I0
sg20
I00
sbsg24
I00
sg25
g67
sbsg21
(imyEvolve
Tree
p1055
(dp1056
g13
(imyEvolve
Tree
p1057
(dp1058
g7
I0
sg36
F-2.4588926586415036
sg20
I01
sbsg7
I1
sg24
I01
sg25
g43
sbsg24
I00
sg25
g67
sbsg7
I3
sg24
I01
sg25
g66
sbsg21
(imyEvolve
Tree
p1059
(dp1060
g13
(imyEvolve
Tree
p1061
(dp1062
g7
I2
sg8
(imyEvolve
Tree
p1063
(dp1064
g13
(imyEvolve
Tree
p1065
(dp1066
g7
I0
sg20
I00
sbsg7
I1
sg24
I01
sg25
g66
sbsg21
(imyEvolve
Tree
p1067
(dp1068
g7
I1
sg8
(imyEvolve
Tree
p1069
(dp1070
g7
I0
sg36
F1.1563154831719
sg20
I01
sbsg21
(imyEvolve
Tree
p1071
(dp1072
g7
I0
sg20
I00
sbsg24
I00
sg25
g26
sbsg24
I00
sg25
g67
sbsg7
I3
sg24
I01
sg25
g51
sbsg24
I00
sg25
g26
sba(imyEvolve
Tree
p1073
(dp1074
g7
I4
sg8
(imyEvolve
Tree
p1075
(dp1076
g13
(imyEvolve
Tree
p1077
(dp1078
g13
(imyEvolve
Tree
p1079
(dp1080
g13
(imyEvolve
Tree
p1081
(dp1082
g7
I0
sg36
F2.151373563248339
sg20
I01
sbsg7
I1
sg24
I01
sg25
g27
sbsg7
I2
sg24
I01
sg25
g66
sbsg7
I3
sg24
I01
sg25
g43
sbsg21
(imyEvolve
Tree
p1083
(dp1084
g13
(imyEvolve
Tree
p1085
(dp1086
g13
(imyEvolve
Tree
p1087
(dp1088
g7
I1
sg8
(imyEvolve
Tree
p1089
(dp1090
g7
I0
sg20
I00
sbsg21
(imyEvolve
Tree
p1091
(dp1092
g7
I0
sg36
F4.766603871754581
sg20
I01
sbsg24
I00
sg25
g44
sbsg7
I2
sg24
I01
sg25
g66
sbsg7
I3
sg24
I01
sg25
g51
sbsg24
I00
sg25
g67
sba(imyEvolve
Tree
p1093
(dp1094
g7
I5
sg8
(imyEvolve
Tree
p1095
(dp1096
g7
I4
sg8
(imyEvolve
Tree
p1097
(dp1098
g13
(imyEvolve
Tree
p1099
(dp1100
g7
I2
sg8
(imyEvolve
Tree
p1101
(dp1102
g13
(imyEvolve
Tree
p1103
(dp1104
g7
I0
sg36
F-1.1643087917431592
sg20
I01
sbsg7
I1
sg24
I01
sg25
g27
sbsg21
(imyEvolve
Tree
p1105
(dp1106
g13
(imyEvolve
Tree
p1107
(dp1108
g7
I0
sg36
F-3.1091755109801236
sg20
I01
sbsg7
I1
sg24
I01
sg25
g27
sbsg24
I00
sg25
g44
sbsg7
I3
sg24
I01
sg25
g27
sbsg21
(imyEvolve
Tree
p1109
(dp1110
g7
I3
sg8
(imyEvolve
Tree
p1111
(dp1112
g7
I2
sg8
(imyEvolve
Tree
p1113
(dp1114
g13
(imyEvolve
Tree
p1115
(dp1116
g7
I0
sg36
F2.3726497794407395
sg20
I01
sbsg7
I1
sg24
I01
sg25
g51
sbsg21
(imyEvolve
Tree
p1117
(dp1118
g7
I1
sg8
(imyEvolve
Tree
p1119
(dp1120
g7
I0
sg36
F-4.026470939928082
sg20
I01
sbsg21
(imyEvolve
Tree
p1121
(dp1122
g7
I0
sg20
I00
sbsg24
I00
sg25
g44
sbsg24
I00
sg25
g26
sbsg21
(imyEvolve
Tree
p1123
(dp1124
g13
(imyEvolve
Tree
p1125
(dp1126
g13
(imyEvolve
Tree
p1127
(dp1128
g7
I0
sg36
F0.6164445929382065
sg20
I01
sbsg7
I1
sg24
I01
sg25
g66
sbsg7
I2
sg24
I01
sg25
g51
sbsg24
I00
sg25
g26
sbsg24
I00
sg25
g67
sbsg21
(imyEvolve
Tree
p1129
(dp1130
g13
(imyEvolve
Tree
p1131
(dp1132
g7
I3
sg8
(imyEvolve
Tree
p1133
(dp1134
g7
I2
sg8
(imyEvolve
Tree
p1135
(dp1136
g7
I1
sg8
(imyEvolve
Tree
p1137
(dp1138
g7
I0
sg36
F-1.5429335561975224
sg20
I01
sbsg21
(imyEvolve
Tree
p1139
(dp1140
g7
I0
sg36
F4.051417333702354
sg20
I01
sbsg24
I00
sg25
g67
sbsg21
(imyEvolve
Tree
p1141
(dp1142
g13
(imyEvolve
Tree
p1143
(dp1144
g7
I0
sg20
I00
sbsg7
I1
sg24
I01
sg25
g66
sbsg24
I00
sg25
g44
sbsg21
(imyEvolve
Tree
p1145
(dp1146
g7
I2
sg8
(imyEvolve
Tree
p1147
(dp1148
g7
I1
sg8
(imyEvolve
Tree
p1149
(dp1150
g7
I0
sg36
F-0.5187410959711727
sg20
I01
sbsg21
(imyEvolve
Tree
p1151
(dp1152
g7
I0
sg36
F-4.322689213219611
sg20
I01
sbsg24
I00
sg25
g44
sbsg21
(imyEvolve
Tree
p1153
(dp1154
g13
(imyEvolve
Tree
p1155
(dp1156
g7
I0
sg20
I00
sbsg7
I1
sg24
I01
sg25
g51
sbsg24
I00
sg25
g44
sbsg24
I00
sg25
g44
sbsg7
I4
sg24
I01
sg25
g51
sbsg24
I00
sg25
g67
sba(imyEvolve
Tree
p1157
(dp1158
g13
(imyEvolve
Tree
p1159
(dp1160
g7
I2
sg8
(imyEvolve
Tree
p1161
(dp1162
g13
(imyEvolve
Tree
p1163
(dp1164
g7
I0
sg20
I00
sbsg7
I1
sg24
I01
sg25
g51
sbsg21
(imyEvolve
Tree
p1165
(dp1166
g7
I1
sg8
(imyEvolve
Tree
p1167
(dp1168
g7
I0
sg36
F-2.168664801354762
sg20
I01
sbsg21
(imyEvolve
Tree
p1169
(dp1170
g7
I0
sg36
F-4.561263771171356
sg20
I01
sbsg24
I00
sg25
g26
sbsg24
I00
sg25
g44
sbsg7
I3
sg24
I01
sg25
g66
sba(imyEvolve
Tree
p1171
(dp1172
g13
(imyEvolve
Tree
p1173
(dp1174
g7
I2
sg8
(imyEvolve
Tree
p1175
(dp1176
g13
(imyEvolve
Tree
p1177
(dp1178
g7
I0
sg20
I00
sbsg7
I1
sg24
I01
sg25
g43
sbsg21
(imyEvolve
Tree
p1179
(dp1180
g13
(imyEvolve
Tree
p1181
(dp1182
g7
I0
sg20
I00
sbsg7
I1
sg24
I01
sg25
g27
sbsg24
I00
sg25
g44
sbsg7
I3
sg24
I01
sg25
g66
sba(imyEvolve
Tree
p1183
(dp1184
g13
(imyEvolve
Tree
p1185
(dp1186
g7
I4
sg8
(imyEvolve
Tree
p1187
(dp1188
g13
(imyEvolve
Tree
p1189
(dp1190
g7
I2
sg8
(imyEvolve
Tree
p1191
(dp1192
g7
I1
sg8
(imyEvolve
Tree
p1193
(dp1194
g7
I0
sg20
I00
sbsg21
(imyEvolve
Tree
p1195
(dp1196
g7
I0
sg36
F3.753089948884176
sg20
I01
sbsg24
I00
sg25
g44
sbsg21
(imyEvolve
Tree
p1197
(dp1198
g13
(imyEvolve
Tree
p1199
(dp1200
g7
I0
sg20
I00
sbsg7
I1
sg24
I01
sg25
g51
sbsg24
I00
sg25
g67
sbsg7
I3
sg24
I01
sg25
g43
sbsg21
(imyEvolve
Tree
p1201
(dp1202
g13
(imyEvolve
Tree
p1203
(dp1204
g7
I2
sg8
(imyEvolve
Tree
p1205
(dp1206
g7
I1
sg8
(imyEvolve
Tree
p1207
(dp1208
g7
I0
sg20
I00
sbsg21
(imyEvolve
Tree
p1209
(dp1210
g7
I0
sg36
F-0.4621096937655267
sg20
I01
sbsg24
I00
sg25
g44
sbsg21
(imyEvolve
Tree
p1211
(dp1212
g13
(imyEvolve
Tree
p1213
(dp1214
g7
I0
sg20
I00
sbsg7
I1
sg24
I01
sg25
g43
sbsg24
I00
sg25
g44
sbsg7
I3
sg24
I01
sg25
g66
sbsg24
I00
sg25
g67
sbsg7
I5
sg24
I01
sg25
g66
sba(imyEvolve
Tree
p1215
(dp1216
g13
(imyEvolve
Tree
p1217
(dp1218
g13
(imyEvolve
Tree
p1219
(dp1220
g7
I0
sg20
I00
sbsg7
I1
sg24
I01
sg25
g27
sbsg7
I2
sg24
I01
sg25
g66
sba(imyEvolve
Tree
p1221
(dp1222
g13
(imyEvolve
Tree
p1223
(dp1224
g7
I1
sg8
(imyEvolve
Tree
p1225
(dp1226
g7
I0
sg20
I00
sbsg21
(imyEvolve
Tree
p1227
(dp1228
g7
I0
sg20
I00
sbsg24
I00
sg25
g26
sbsg7
I2
sg24
I01
sg25
g51
sba(imyEvolve
Tree
p1229
(dp1230
g13
(imyEvolve
Tree
p1231
(dp1232
g13
(imyEvolve
Tree
p1233
(dp1234
g7
I3
sg8
(imyEvolve
Tree
p1235
(dp1236
g7
I2
sg8
(imyEvolve
Tree
p1237
(dp1238
g7
I1
sg8
(imyEvolve
Tree
p1239
(dp1240
g7
I0
sg20
I00
sbsg21
(imyEvolve
Tree
p1241
(dp1242
g7
I0
sg20
I00
sbsg24
I00
sg25
g44
sbsg21
(imyEvolve
Tree
p1243
(dp1244
g7
I1
sg8
(imyEvolve
Tree
p1245
(dp1246
g7
I0
sg36
F-3.063320198689002
sg20
I01
sbsg21
(imyEvolve
Tree
p1247
(dp1248
g7
I0
sg36
F3.8489997528049162
sg20
I01
sbsg24
I00
sg25
g67
sbsg24
I00
sg25
g44
sbsg21
(imyEvolve
Tree
p1249
(dp1250
g7
I2
sg8
(imyEvolve
Tree
p1251
(dp1252
g13
(imyEvolve
Tree
p1253
(dp1254
g7
I0
sg20
I00
sbsg7
I1
sg24
I01
sg25
g27
sbsg21
(imyEvolve
Tree
p1255
(dp1256
g7
I1
sg8
(imyEvolve
Tree
p1257
(dp1258
g7
I0
sg36
F-1.9683592384696746
sg20
I01
sbsg21
(imyEvolve
Tree
p1259
(dp1260
g7
I0
sg36
F2.5721605000018215
sg20
I01
sbsg24
I00
sg25
g67
sbsg24
I00
sg25
g44
sbsg24
I00
sg25
g44
sbsg7
I4
sg24
I01
sg25
g27
sbsg7
I5
sg24
I01
sg25
g51
sba(imyEvolve
Tree
p1261
(dp1262
g7
I4
sg8
(imyEvolve
Tree
p1263
(dp1264
g7
I3
sg8
(imyEvolve
Tree
p1265
(dp1266
g7
I2
sg8
(imyEvolve
Tree
p1267
(dp1268
g13
(imyEvolve
Tree
p1269
(dp1270
g7
I0
sg36
F2.0581376600358556
sg20
I01
sbsg7
I1
sg24
I01
sg25
g43
sbsg21
(imyEvolve
Tree
p1271
(dp1272
g7
I1
sg8
(imyEvolve
Tree
p1273
(dp1274
g7
I0
sg20
I00
sbsg21
(imyEvolve
Tree
p1275
(dp1276
g7
I0
sg36
F-0.07982982053658905
sg20
I01
sbsg24
I00
sg25
g44
sbsg24
I00
sg25
g26
sbsg21
(imyEvolve
Tree
p1277
(dp1278
g7
I2
sg8
(imyEvolve
Tree
p1279
(dp1280
g7
I1
sg8
(imyEvolve
Tree
p1281
(dp1282
g7
I0
sg36
F-0.8937816273092292
sg20
I01
sbsg21
(imyEvolve
Tree
p1283
(dp1284
g7
I0
sg36
F0.1017066293081994
sg20
I01
sbsg24
I00
sg25
g26
sbsg21
(imyEvolve
Tree
p1285
(dp1286
g7
I1
sg8
(imyEvolve
Tree
p1287
(dp1288
g7
I0
sg36
F-1.091225292207414
sg20
I01
sbsg21
(imyEvolve
Tree
p1289
(dp1290
g7
I0
sg36
F-4.956295683424811
sg20
I01
sbsg24
I00
sg25
g26
sbsg24
I00
sg25
g67
sbsg24
I00
sg25
g44
sbsg21
(imyEvolve
Tree
p1291
(dp1292
g7
I3
sg8
(imyEvolve
Tree
p1293
(dp1294
g13
(imyEvolve
Tree
p1295
(dp1296
g7
I1
sg8
(imyEvolve
Tree
p1297
(dp1298
g7
I0
sg36
F-1.5166219648676194
sg20
I01
sbsg21
(imyEvolve
Tree
p1299
(dp1300
g7
I0
sg36
F1.4407606267801505
sg20
I01
sbsg24
I00
sg25
g44
sbsg7
I2
sg24
I01
sg25
g43
sbsg21
(imyEvolve
Tree
p1301
(dp1302
g7
I2
sg8
(imyEvolve
Tree
p1303
(dp1304
g13
(imyEvolve
Tree
p1305
(dp1306
g7
I0
sg36
F0.6250150520917863
sg20
I01
sbsg7
I1
sg24
I01
sg25
g43
sbsg21
(imyEvolve
Tree
p1307
(dp1308
g7
I1
sg8
(imyEvolve
Tree
p1309
(dp1310
g7
I0
sg20
I00
sbsg21
(imyEvolve
Tree
p1311
(dp1312
g7
I0
sg36
F1.5213452503493228
sg20
I01
sbsg24
I00
sg25
g67
sbsg24
I00
sg25
g44
sbsg24
I00
sg25
g26
sbsg24
I00
sg25
g67
sba(imyEvolve
Tree
p1313
(dp1314
g13
(imyEvolve
Tree
p1315
(dp1316
g13
(imyEvolve
Tree
p1317
(dp1318
g7
I3
sg8
(imyEvolve
Tree
p1319
(dp1320
g7
I2
sg8
(imyEvolve
Tree
p1321
(dp1322
g13
(imyEvolve
Tree
p1323
(dp1324
g7
I0
sg20
I00
sbsg7
I1
sg24
I01
sg25
g51
sbsg21
(imyEvolve
Tree
p1325
(dp1326
g13
(imyEvolve
Tree
p1327
(dp1328
g7
I0
sg20
I00
sbsg7
I1
sg24
I01
sg25
g51
sbsg24
I00
sg25
g67
sbsg21
(imyEvolve
Tree
p1329
(dp1330
g7
I2
sg8
(imyEvolve
Tree
p1331
(dp1332
g7
I1
sg8
(imyEvolve
Tree
p1333
(dp1334
g7
I0
sg36
F2.845540376309451
sg20
I01
sbsg21
(imyEvolve
Tree
p1335
(dp1336
g7
I0
sg36
F1.8796417901615712
sg20
I01
sbsg24
I00
sg25
g67
sbsg21
(imyEvolve
Tree
p1337
(dp1338
g13
(imyEvolve
Tree
p1339
(dp1340
g7
I0
sg36
F-4.17984678548954
sg20
I01
sbsg7
I1
sg24
I01
sg25
g51
sbsg24
I00
sg25
g67
sbsg24
I00
sg25
g26
sbsg7
I4
sg24
I01
sg25
g66
sbsg7
I5
sg24
I01
sg25
g66
sba(imyEvolve
Tree
p1341
(dp1342
g13
(imyEvolve
Tree
p1343
(dp1344
g7
I2
sg8
(imyEvolve
Tree
p1345
(dp1346
g7
I1
sg8
(imyEvolve
Tree
p1347
(dp1348
g7
I0
sg20
I00
sbsg21
(imyEvolve
Tree
p1349
(dp1350
g7
I0
sg20
I00
sbsg24
I00
sg25
g67
sbsg21
(imyEvolve
Tree
p1351
(dp1352
g13
(imyEvolve
Tree
p1353
(dp1354
g7
I0
sg20
I00
sbsg7
I1
sg24
I01
sg25
g51
sbsg24
I00
sg25
g26
sbsg7
I3
sg24
I01
sg25
g27
sba(imyEvolve
Tree
p1355
(dp1356
g13
(imyEvolve
Tree
p1357
(dp1358
g13
(imyEvolve
Tree
p1359
(dp1360
g7
I0
sg20
I00
sbsg7
I1
sg24
I01
sg25
g27
sbsg7
I2
sg24
I01
sg25
g66
sba(imyEvolve
Tree
p1361
(dp1362
g7
I2
sg8
(imyEvolve
Tree
p1363
(dp1364
g13
(imyEvolve
Tree
p1365
(dp1366
g7
I0
sg36
F0.5601048968177054
sg20
I01
sbsg7
I1
sg24
I01
sg25
g27
sbsg21
(imyEvolve
Tree
p1367
(dp1368
g7
I1
sg8
(imyEvolve
Tree
p1369
(dp1370
g7
I0
sg36
F2.869482441393626
sg20
I01
sbsg21
(imyEvolve
Tree
p1371
(dp1372
g7
I0
sg20
I00
sbsg24
I00
sg25
g44
sbsg24
I00
sg25
g67
sba(imyEvolve
Tree
p1373
(dp1374
g7
I4
sg8
(imyEvolve
Tree
p1375
(dp1376
g7
I3
sg8
(imyEvolve
Tree
p1377
(dp1378
g13
(imyEvolve
Tree
p1379
(dp1380
g7
I1
sg8
(imyEvolve
Tree
p1381
(dp1382
g7
I0
sg20
I00
sbsg21
(imyEvolve
Tree
p1383
(dp1384
g7
I0
sg20
I00
sbsg24
I00
sg25
g67
sbsg7
I2
sg24
I01
sg25
g51
sbsg21
(imyEvolve
Tree
p1385
(dp1386
g7
I2
sg8
(imyEvolve
Tree
p1387
(dp1388
g13
(imyEvolve
Tree
p1389
(dp1390
g7
I0
sg36
F-3.7703398043082714
sg20
I01
sbsg7
I1
sg24
I01
sg25
g43
sbsg21
(imyEvolve
Tree
p1391
(dp1392
g7
I1
sg8
(imyEvolve
Tree
p1393
(dp1394
g7
I0
sg36
F-2.934815134924005
sg20
I01
sbsg21
(imyEvolve
Tree
p1395
(dp1396
g7
I0
sg36
F-1.8145942018325978
sg20
I01
sbsg24
I00
sg25
g67
sbsg24
I00
sg25
g44
sbsg24
I00
sg25
g26
sbsg21
(imyEvolve
Tree
p1397
(dp1398
g13
(imyEvolve
Tree
p1399
(dp1400
g13
(imyEvolve
Tree
p1401
(dp1402
g13
(imyEvolve
Tree
p1403
(dp1404
g7
I0
sg36
F-1.7736272128826567
sg20
I01
sbsg7
I1
sg24
I01
sg25
g66
sbsg7
I2
sg24
I01
sg25
g43
sbsg7
I3
sg24
I01
sg25
g66
sbsg24
I00
sg25
g67
sba(imyEvolve
Tree
p1405
(dp1406
g13
(imyEvolve
Tree
p1407
(dp1408
g13
(imyEvolve
Tree
p1409
(dp1410
g13
(imyEvolve
Tree
p1411
(dp1412
g7
I0
sg20
I00
sbsg7
I1
sg24
I01
sg25
g51
sbsg7
I2
sg24
I01
sg25
g51
sbsg7
I3
sg24
I01
sg25
g51
sba(imyEvolve
Tree
p1413
(dp1414
g13
(imyEvolve
Tree
p1415
(dp1416
g13
(imyEvolve
Tree
p1417
(dp1418
g7
I1
sg8
(imyEvolve
Tree
p1419
(dp1420
g7
I0
sg36
F-4.952329924758573
sg20
I01
sbsg21
(imyEvolve
Tree
p1421
(dp1422
g7
I0
sg36
F-1.1953015637403142
sg20
I01
sbsg24
I00
sg25
g44
sbsg7
I2
sg24
I01
sg25
g66
sbsg7
I3
sg24
I01
sg25
g66
sba(imyEvolve
Tree
p1423
(dp1424
g7
I5
sg8
(imyEvolve
Tree
p1425
(dp1426
g13
(imyEvolve
Tree
p1427
(dp1428
g7
I3
sg8
(imyEvolve
Tree
p1429
(dp1430
g13
(imyEvolve
Tree
p1431
(dp1432
g7
I1
sg8
(imyEvolve
Tree
p1433
(dp1434
g7
I0
sg20
I00
sbsg21
(imyEvolve
Tree
p1435
(dp1436
g7
I0
sg20
I00
sbsg24
I00
sg25
g67
sbsg7
I2
sg24
I01
sg25
g51
sbsg21
(imyEvolve
Tree
p1437
(dp1438
g7
I2
sg8
(imyEvolve
Tree
p1439
(dp1440
g13
(imyEvolve
Tree
p1441
(dp1442
g7
I0
sg20
I00
sbsg7
I1
sg24
I01
sg25
g27
sbsg21
(imyEvolve
Tree
p1443
(dp1444
g13
(imyEvolve
Tree
p1445
(dp1446
g7
I0
sg20
I00
sbsg7
I1
sg24
I01
sg25
g27
sbsg24
I00
sg25
g67
sbsg24
I00
sg25
g26
sbsg7
I4
sg24
I01
sg25
g51
sbsg21
(imyEvolve
Tree
p1447
(dp1448
g7
I4
sg8
(imyEvolve
Tree
p1449
(dp1450
g13
(imyEvolve
Tree
p1451
(dp1452
g13
(imyEvolve
Tree
p1453
(dp1454
g13
(imyEvolve
Tree
p1455
(dp1456
g7
I0
sg20
I00
sbsg7
I1
sg24
I01
sg25
g43
sbsg7
I2
sg24
I01
sg25
g51
sbsg7
I3
sg24
I01
sg25
g51
sbsg21
(imyEvolve
Tree
p1457
(dp1458
g13
(imyEvolve
Tree
p1459
(dp1460
g7
I2
sg8
(imyEvolve
Tree
p1461
(dp1462
g7
I1
sg8
(imyEvolve
Tree
p1463
(dp1464
g7
I0
sg20
I00
sbsg21
(imyEvolve
Tree
p1465
(dp1466
g7
I0
sg36
F3.8799865358645
sg20
I01
sbsg24
I00
sg25
g26
sbsg21
(imyEvolve
Tree
p1467
(dp1468
g13
(imyEvolve
Tree
p1469
(dp1470
g7
I0
sg20
I00
sbsg7
I1
sg24
I01
sg25
g27
sbsg24
I00
sg25
g67
sbsg7
I3
sg24
I01
sg25
g43
sbsg24
I00
sg25
g26
sbsg24
I00
sg25
g67
sba(imyEvolve
Tree
p1471
(dp1472
g13
(imyEvolve
Tree
p1473
(dp1474
g7
I1
sg8
(imyEvolve
Tree
p1475
(dp1476
g7
I0
sg20
I00
sbsg21
(imyEvolve
Tree
p1477
(dp1478
g7
I0
sg36
F-0.774202216224924
sg20
I01
sbsg24
I00
sg25
g26
sbsg7
I2
sg24
I01
sg25
g43
sbaasS'weightSharing'
p1479
(lp1480
I01
aI01
asS'fitnessValid'
p1481
I00
sS'fitness'
p1482
cnumpy.core.multiarray
scalar
p1483
(cnumpy
dtype
p1484
(S'f8'
p1485
I0
I1
tp1486
Rp1487
(I3
S'<'
p1488
NNNI-1
I-1
I0
tp1489
bS'\x80\xee\xc9\xc3\xab\xb6|\xbf'
p1490
tp1491
Rp1492
sS'alpha'
p1493
F0.005606313782668329
sS'resolution'
p1494
I90
sb.