(imyEvolve
Individual
p0
(dp1
S'funcs'
p2
(lp3
(lp4
(imyEvolve
Tree
p5
(dp6
S'depth'
p7
I4
sS'left'
p8
(imyEvolve
Tree
p9
(dp10
g7
I3
sg8
(imyEvolve
Tree
p11
(dp12
g7
I2
sg8
(imyEvolve
Tree
p13
(dp14
S'below'
p15
(imyEvolve
Tree
p16
(dp17
g7
I0
sS'isConstant'
p18
I00
sbsg7
I1
sS'single'
p19
I01
sS'op'
p20
cmyEvolve
absSqrt
p21
sbsS'right'
p22
(imyEvolve
Tree
p23
(dp24
g7
I1
sg8
(imyEvolve
Tree
p25
(dp26
g7
I0
sg18
I00
sbsg22
(imyEvolve
Tree
p27
(dp28
g7
I0
sS'constant'
p29
F0.3519105067675863
sg18
I01
sbsg19
I00
sg20
coperator
add
p30
sbsg19
I00
sg20
coperator
sub
p31
sbsg22
(imyEvolve
Tree
p32
(dp33
g15
(imyEvolve
Tree
p34
(dp35
g15
(imyEvolve
Tree
p36
(dp37
g7
I0
sg18
I00
sbsg7
I1
sg19
I01
sg20
g21
sbsg7
I2
sg19
I01
sg20
cmath
sin
p38
sbsg19
I00
sg20
coperator
mul
p39
sbsg22
(imyEvolve
Tree
p40
(dp41
g15
(imyEvolve
Tree
p42
(dp43
g7
I2
sg8
(imyEvolve
Tree
p44
(dp45
g7
I1
sg8
(imyEvolve
Tree
p46
(dp47
g7
I0
sg18
I00
sbsg22
(imyEvolve
Tree
p48
(dp49
g7
I0
sg29
F3.978212325056665
sg18
I01
sbsg19
I00
sg20
g39
sbsg22
(imyEvolve
Tree
p50
(dp51
g15
(imyEvolve
Tree
p52
(dp53
g7
I0
sg18
I00
sbsg7
I1
sg19
I01
sg20
g21
sbsg19
I00
sg20
g31
sbsg7
I3
sg19
I01
sg20
cmyEvolve
square
p54
sbsg19
I00
sg20
g31
sba(imyEvolve
Tree
p55
(dp56
g8
(imyEvolve
Tree
p57
(dp58
g8
(imyEvolve
Tree
p59
(dp60
g15
(imyEvolve
Tree
p61
(dp62
g8
(imyEvolve
Tree
p63
(dp64
g8
(imyEvolve
Tree
p65
(dp66
g7
I0
sg18
I00
sbsg7
I1
sg22
(imyEvolve
Tree
p67
(dp68
g7
I0
sg29
F2.4842166545595843
sg18
I01
sbsg19
I00
sg20
g30
sbsg7
I2
sg22
(imyEvolve
Tree
p69
(dp70
g15
(imyEvolve
Tree
p71
(dp72
g7
I0
sg29
F-0.48789877059713405
sg18
I01
sbsg7
I1
sg19
I01
sg20
g21
sbsg19
I00
sg20
g39
sbsg7
I3
sg19
I01
sg20
g38
sbsg7
I4
sg22
(imyEvolve
Tree
p73
(dp74
g15
(imyEvolve
Tree
p75
(dp76
g8
(imyEvolve
Tree
p77
(dp78
g8
(imyEvolve
Tree
p79
(dp80
g7
I0
sg29
F4.612358454702882
sg18
I01
sbsg7
I1
sg22
(imyEvolve
Tree
p81
(dp82
g7
I0
sg18
I00
sbsg19
I00
sg20
g31
sbsg7
I2
sg22
(imyEvolve
Tree
p83
(dp84
g8
(imyEvolve
Tree
p85
(dp86
g7
I0
sg29
F-4.035936047316724
sg18
I01
sbsg7
I1
sg22
(imyEvolve
Tree
p87
(dp88
g7
I0
sg29
F-1.9665436658018445
sg18
I01
sbsg19
I00
sg20
g30
sbsg19
I00
sg20
g31
sbsg7
I3
sg19
I01
sg20
g54
sbsg19
I00
sg20
g30
sbsg7
I5
sg22
(imyEvolve
Tree
p89
(dp90
g8
(imyEvolve
Tree
p91
(dp92
g8
(imyEvolve
Tree
p93
(dp94
g8
(imyEvolve
Tree
p95
(dp96
g8
(imyEvolve
Tree
p97
(dp98
g7
I0
sg29
F-0.35254300800329297
sg18
I01
sbsg7
I1
sg22
(imyEvolve
Tree
p99
(dp100
g7
I0
sg18
I00
sbsg19
I00
sg20
g30
sbsg7
I2
sg22
(imyEvolve
Tree
p101
(dp102
g15
(imyEvolve
Tree
p103
(dp104
g7
I0
sg29
F0.30344584753323645
sg18
I01
sbsg7
I1
sg19
I01
sg20
cmath
cos
p105
sbsg19
I00
sg20
g30
sbsg7
I3
sg22
(imyEvolve
Tree
p106
(dp107
g15
(imyEvolve
Tree
p108
(dp109
g8
(imyEvolve
Tree
p110
(dp111
g7
I0
sg29
F3.4034702550952165
sg18
I01
sbsg7
I1
sg22
(imyEvolve
Tree
p112
(dp113
g7
I0
sg18
I00
sbsg19
I00
sg20
g31
sbsg7
I2
sg19
I01
sg20
g21
sbsg19
I00
sg20
g31
sbsg7
I4
sg22
(imyEvolve
Tree
p114
(dp115
g15
(imyEvolve
Tree
p116
(dp117
g8
(imyEvolve
Tree
p118
(dp119
g15
(imyEvolve
Tree
p120
(dp121
g7
I0
sg29
F-0.7304050358150027
sg18
I01
sbsg7
I1
sg19
I01
sg20
g21
sbsg7
I2
sg22
(imyEvolve
Tree
p122
(dp123
g8
(imyEvolve
Tree
p124
(dp125
g7
I0
sg29
F-2.8963907036153023
sg18
I01
sbsg7
I1
sg22
(imyEvolve
Tree
p126
(dp127
g7
I0
sg18
I00
sbsg19
I00
sg20
g30
sbsg19
I00
sg20
g31
sbsg7
I3
sg19
I01
sg20
g54
sbsg19
I00
sg20
g30
sbsg19
I00
sg20
g30
sba(imyEvolve
Tree
p128
(dp129
g15
(imyEvolve
Tree
p130
(dp131
g8
(imyEvolve
Tree
p132
(dp133
g8
(imyEvolve
Tree
p134
(dp135
g15
(imyEvolve
Tree
p136
(dp137
g7
I0
sg18
I00
sbsg7
I1
sg19
I01
sg20
g38
sbsg7
I2
sg22
(imyEvolve
Tree
p138
(dp139
g15
(imyEvolve
Tree
p140
(dp141
g7
I0
sg18
I00
sbsg7
I1
sg19
I01
sg20
g54
sbsg19
I00
sg20
g39
sbsg7
I3
sg22
(imyEvolve
Tree
p142
(dp143
g8
(imyEvolve
Tree
p144
(dp145
g8
(imyEvolve
Tree
p146
(dp147
g7
I0
sg18
I00
sbsg7
I1
sg22
(imyEvolve
Tree
p148
(dp149
g7
I0
sg29
F-4.090391860496188
sg18
I01
sbsg19
I00
sg20
g31
sbsg7
I2
sg22
(imyEvolve
Tree
p150
(dp151
g15
(imyEvolve
Tree
p152
(dp153
g7
I0
sg29
F2.4475927049836157
sg18
I01
sbsg7
I1
sg19
I01
sg20
g105
sbsg19
I00
sg20
g31
sbsg19
I00
sg20
g39
sbsg7
I4
sg19
I01
sg20
g38
sba(imyEvolve
Tree
p154
(dp155
g15
(imyEvolve
Tree
p156
(dp157
g15
(imyEvolve
Tree
p158
(dp159
g15
(imyEvolve
Tree
p160
(dp161
g7
I2
sg8
(imyEvolve
Tree
p162
(dp163
g15
(imyEvolve
Tree
p164
(dp165
g7
I0
sg18
I00
sbsg7
I1
sg19
I01
sg20
g21
sbsg22
(imyEvolve
Tree
p166
(dp167
g7
I1
sg8
(imyEvolve
Tree
p168
(dp169
g7
I0
sg18
I00
sbsg22
(imyEvolve
Tree
p170
(dp171
g7
I0
sg18
I00
sbsg19
I00
sg20
g31
sbsg19
I00
sg20
g30
sbsg7
I3
sg19
I01
sg20
g21
sbsg7
I4
sg19
I01
sg20
g38
sbsg7
I5
sg19
I01
sg20
g54
sba(imyEvolve
Tree
p172
(dp173
g15
(imyEvolve
Tree
p174
(dp175
g15
(imyEvolve
Tree
p176
(dp177
g15
(imyEvolve
Tree
p178
(dp179
g8
(imyEvolve
Tree
p180
(dp181
g8
(imyEvolve
Tree
p182
(dp183
g7
I0
sg18
I00
sbsg7
I1
sg22
(imyEvolve
Tree
p184
(dp185
g7
I0
sg29
F0.304838521791857
sg18
I01
sbsg19
I00
sg20
g30
sbsg7
I2
sg22
(imyEvolve
Tree
p186
(dp187
g15
(imyEvolve
Tree
p188
(dp189
g7
I0
sg29
F-1.5030482224032724
sg18
I01
sbsg7
I1
sg19
I01
sg20
g21
sbsg19
I00
sg20
g31
sbsg7
I3
sg19
I01
sg20
g21
sbsg7
I4
sg19
I01
sg20
g21
sbsg7
I5
sg19
I01
sg20
g54
sba(imyEvolve
Tree
p190
(dp191
g8
(imyEvolve
Tree
p192
(dp193
g15
(imyEvolve
Tree
p194
(dp195
g15
(imyEvolve
Tree
p196
(dp197
g8
(imyEvolve
Tree
p198
(dp199
g7
I0
sg29
F-3.8996145352988467
sg18
I01
sbsg7
I1
sg22
(imyEvolve
Tree
p200
(dp201
g7
I0
sg29
F-2.8168975876226234
sg18
I01
sbsg19
I00
sg20
g31
sbsg7
I2
sg19
I01
sg20
g105
sbsg7
I3
sg19
I01
sg20
g54
sbsg7
I4
sg22
(imyEvolve
Tree
p202
(dp203
g8
(imyEvolve
Tree
p204
(dp205
g8
(imyEvolve
Tree
p206
(dp207
g8
(imyEvolve
Tree
p208
(dp209
g7
I0
sg29
F-1.1818719150243986
sg18
I01
sbsg7
I1
sg22
(imyEvolve
Tree
p210
(dp211
g7
I0
sg18
I00
sbsg19
I00
sg20
g39
sbsg7
I2
sg22
(imyEvolve
Tree
p212
(dp213
g8
(imyEvolve
Tree
p214
(dp215
g7
I0
sg29
F-0.266751876691278
sg18
I01
sbsg7
I1
sg22
(imyEvolve
Tree
p216
(dp217
g7
I0
sg18
I00
sbsg19
I00
sg20
g31
sbsg19
I00
sg20
g30
sbsg7
I3
sg22
(imyEvolve
Tree
p218
(dp219
g8
(imyEvolve
Tree
p220
(dp221
g15
(imyEvolve
Tree
p222
(dp223
g7
I0
sg18
I00
sbsg7
I1
sg19
I01
sg20
g105
sbsg7
I2
sg22
(imyEvolve
Tree
p224
(dp225
g15
(imyEvolve
Tree
p226
(dp227
g7
I0
sg29
F0.5789172615681712
sg18
I01
sbsg7
I1
sg19
I01
sg20
g54
sbsg19
I00
sg20
g31
sbsg19
I00
sg20
g30
sbsg19
I00
sg20
g31
sba(imyEvolve
Tree
p228
(dp229
g8
(imyEvolve
Tree
p230
(dp231
g8
(imyEvolve
Tree
p232
(dp233
g7
I0
sg18
I00
sbsg7
I1
sg22
(imyEvolve
Tree
p234
(dp235
g7
I0
sg29
F0.7498203774778833
sg18
I01
sbsg19
I00
sg20
g30
sbsg7
I2
sg22
(imyEvolve
Tree
p236
(dp237
g15
(imyEvolve
Tree
p238
(dp239
g7
I0
sg29
F2.3500615334230233
sg18
I01
sbsg7
I1
sg19
I01
sg20
g38
sbsg19
I00
sg20
g39
sba(imyEvolve
Tree
p240
(dp241
g15
(imyEvolve
Tree
p242
(dp243
g15
(imyEvolve
Tree
p244
(dp245
g15
(imyEvolve
Tree
p246
(dp247
g7
I0
sg18
I00
sbsg7
I1
sg19
I01
sg20
g38
sbsg7
I2
sg19
I01
sg20
g38
sbsg7
I3
sg19
I01
sg20
g21
sba(imyEvolve
Tree
p248
(dp249
g15
(imyEvolve
Tree
p250
(dp251
g8
(imyEvolve
Tree
p252
(dp253
g8
(imyEvolve
Tree
p254
(dp255
g7
I0
sg29
F-0.03993167120625429
sg18
I01
sbsg7
I1
sg22
(imyEvolve
Tree
p256
(dp257
g7
I0
sg29
F-0.5149591048081525
sg18
I01
sbsg19
I00
sg20
g31
sbsg7
I2
sg22
(imyEvolve
Tree
p258
(dp259
g8
(imyEvolve
Tree
p260
(dp261
g7
I0
sg29
F2.8233851811766097
sg18
I01
sbsg7
I1
sg22
(imyEvolve
Tree
p262
(dp263
g7
I0
sg29
F3.370592278098014
sg18
I01
sbsg19
I00
sg20
g39
sbsg19
I00
sg20
g31
sbsg7
I3
sg19
I01
sg20
g21
sba(imyEvolve
Tree
p264
(dp265
g15
(imyEvolve
Tree
p266
(dp267
g8
(imyEvolve
Tree
p268
(dp269
g15
(imyEvolve
Tree
p270
(dp271
g7
I0
sg29
F2.0522991062125326
sg18
I01
sbsg7
I1
sg19
I01
sg20
g105
sbsg7
I2
sg22
(imyEvolve
Tree
p272
(dp273
g15
(imyEvolve
Tree
p274
(dp275
g7
I0
sg18
I00
sbsg7
I1
sg19
I01
sg20
g38
sbsg19
I00
sg20
g31
sbsg7
I3
sg19
I01
sg20
g38
sba(imyEvolve
Tree
p276
(dp277
g8
(imyEvolve
Tree
p278
(dp279
g15
(imyEvolve
Tree
p280
(dp281
g7
I0
sg29
F-2.730835104919187
sg18
I01
sbsg7
I1
sg19
I01
sg20
g38
sbsg7
I2
sg22
(imyEvolve
Tree
p282
(dp283
g8
(imyEvolve
Tree
p284
(dp285
g7
I0
sg18
I00
sbsg7
I1
sg22
(imyEvolve
Tree
p286
(dp287
g7
I0
sg18
I00
sbsg19
I00
sg20
g30
sbsg19
I00
sg20
g31
sba(imyEvolve
Tree
p288
(dp289
g7
I2
sg8
(imyEvolve
Tree
p290
(dp291
g15
(imyEvolve
Tree
p292
(dp293
g7
I0
sg29
F1.1271896082663915
sg18
I01
sbsg7
I1
sg19
I01
sg20
g21
sbsg22
(imyEvolve
Tree
p294
(dp295
g7
I1
sg8
(imyEvolve
Tree
p296
(dp297
g7
I0
sg29
F-3.8109987960143332
sg18
I01
sbsg22
(imyEvolve
Tree
p298
(dp299
g7
I0
sg18
I00
sbsg19
I00
sg20
g31
sbsg19
I00
sg20
g31
sba(imyEvolve
Tree
p300
(dp301
g15
(imyEvolve
Tree
p302
(dp303
g7
I3
sg8
(imyEvolve
Tree
p304
(dp305
g7
I2
sg8
(imyEvolve
Tree
p306
(dp307
g7
I1
sg8
(imyEvolve
Tree
p308
(dp309
g7
I0
sg29
F3.6265459548707177
sg18
I01
sbsg22
(imyEvolve
Tree
p310
(dp311
g7
I0
sg29
F4.754624529443342
sg18
I01
sbsg19
I00
sg20
g31
sbsg22
(imyEvolve
Tree
p312
(dp313
g15
(imyEvolve
Tree
p314
(dp315
g7
I0
sg18
I00
sbsg7
I1
sg19
I01
sg20
g105
sbsg19
I00
sg20
g39
sbsg22
(imyEvolve
Tree
p316
(dp317
g7
I2
sg8
(imyEvolve
Tree
p318
(dp319
g7
I1
sg8
(imyEvolve
Tree
p320
(dp321
g7
I0
sg18
I00
sbsg22
(imyEvolve
Tree
p322
(dp323
g7
I0
sg29
F0.30783058304180777
sg18
I01
sbsg19
I00
sg20
g30
sbsg22
(imyEvolve
Tree
p324
(dp325
g15
(imyEvolve
Tree
p326
(dp327
g7
I0
sg29
F-2.395255979851909
sg18
I01
sbsg7
I1
sg19
I01
sg20
g105
sbsg19
I00
sg20
g30
sbsg19
I00
sg20
g39
sbsg7
I4
sg19
I01
sg20
g21
sba(imyEvolve
Tree
p328
(dp329
g15
(imyEvolve
Tree
p330
(dp331
g8
(imyEvolve
Tree
p332
(dp333
g15
(imyEvolve
Tree
p334
(dp335
g15
(imyEvolve
Tree
p336
(dp337
g7
I0
sg18
I00
sbsg7
I1
sg19
I01
sg20
g38
sbsg7
I2
sg19
I01
sg20
g38
sbsg7
I3
sg22
(imyEvolve
Tree
p338
(dp339
g15
(imyEvolve
Tree
p340
(dp341
g15
(imyEvolve
Tree
p342
(dp343
g7
I0
sg18
I00
sbsg7
I1
sg19
I01
sg20
g105
sbsg7
I2
sg19
I01
sg20
g105
sbsg19
I00
sg20
g30
sbsg7
I4
sg19
I01
sg20
g54
sba(imyEvolve
Tree
p344
(dp345
g15
(imyEvolve
Tree
p346
(dp347
g8
(imyEvolve
Tree
p348
(dp349
g15
(imyEvolve
Tree
p350
(dp351
g15
(imyEvolve
Tree
p352
(dp353
g7
I0
sg29
F1.2673741460726085
sg18
I01
sbsg7
I1
sg19
I01
sg20
g38
sbsg7
I2
sg19
I01
sg20
g54
sbsg7
I3
sg22
(imyEvolve
Tree
p354
(dp355
g8
(imyEvolve
Tree
p356
(dp357
g8
(imyEvolve
Tree
p358
(dp359
g7
I0
sg18
I00
sbsg7
I1
sg22
(imyEvolve
Tree
p360
(dp361
g7
I0
sg29
F1.1813954358826475
sg18
I01
sbsg19
I00
sg20
g31
sbsg7
I2
sg22
(imyEvolve
Tree
p362
(dp363
g15
(imyEvolve
Tree
p364
(dp365
g7
I0
sg29
F1.9851409186653566
sg18
I01
sbsg7
I1
sg19
I01
sg20
g105
sbsg19
I00
sg20
g39
sbsg19
I00
sg20
g39
sbsg7
I4
sg19
I01
sg20
g21
sba(imyEvolve
Tree
p366
(dp367
g15
(imyEvolve
Tree
p368
(dp369
g8
(imyEvolve
Tree
p370
(dp371
g7
I0
sg18
I00
sbsg7
I1
sg22
(imyEvolve
Tree
p372
(dp373
g7
I0
sg29
F-3.5713627831542105
sg18
I01
sbsg19
I00
sg20
g39
sbsg7
I2
sg19
I01
sg20
g21
sba(imyEvolve
Tree
p374
(dp375
g15
(imyEvolve
Tree
p376
(dp377
g8
(imyEvolve
Tree
p378
(dp379
g15
(imyEvolve
Tree
p380
(dp381
g15
(imyEvolve
Tree
p382
(dp383
g7
I0
sg29
F4.621639351528035
sg18
I01
sbsg7
I1
sg19
I01
sg20
g54
sbsg7
I2
sg19
I01
sg20
g54
sbsg7
I3
sg22
(imyEvolve
Tree
p384
(dp385
g15
(imyEvolve
Tree
p386
(dp387
g8
(imyEvolve
Tree
p388
(dp389
g7
I0
sg18
I00
sbsg7
I1
sg22
(imyEvolve
Tree
p390
(dp391
g7
I0
sg18
I00
sbsg19
I00
sg20
g39
sbsg7
I2
sg19
I01
sg20
g105
sbsg19
I00
sg20
g31
sbsg7
I4
sg19
I01
sg20
g105
sba(imyEvolve
Tree
p392
(dp393
g8
(imyEvolve
Tree
p394
(dp395
g15
(imyEvolve
Tree
p396
(dp397
g8
(imyEvolve
Tree
p398
(dp399
g8
(imyEvolve
Tree
p400
(dp401
g7
I0
sg29
F-2.333072058415188
sg18
I01
sbsg7
I1
sg22
(imyEvolve
Tree
p402
(dp403
g7
I0
sg18
I00
sbsg19
I00
sg20
g39
sbsg7
I2
sg22
(imyEvolve
Tree
p404
(dp405
g15
(imyEvolve
Tree
p406
(dp407
g7
I0
sg18
I00
sbsg7
I1
sg19
I01
sg20
g105
sbsg19
I00
sg20
g31
sbsg7
I3
sg19
I01
sg20
g105
sbsg7
I4
sg22
(imyEvolve
Tree
p408
(dp409
g8
(imyEvolve
Tree
p410
(dp411
g15
(imyEvolve
Tree
p412
(dp413
g15
(imyEvolve
Tree
p414
(dp415
g7
I0
sg18
I00
sbsg7
I1
sg19
I01
sg20
g105
sbsg7
I2
sg19
I01
sg20
g54
sbsg7
I3
sg22
(imyEvolve
Tree
p416
(dp417
g8
(imyEvolve
Tree
p418
(dp419
g15
(imyEvolve
Tree
p420
(dp421
g7
I0
sg29
F-1.1860108469205057
sg18
I01
sbsg7
I1
sg19
I01
sg20
g38
sbsg7
I2
sg22
(imyEvolve
Tree
p422
(dp423
g8
(imyEvolve
Tree
p424
(dp425
g7
I0
sg18
I00
sbsg7
I1
sg22
(imyEvolve
Tree
p426
(dp427
g7
I0
sg18
I00
sbsg19
I00
sg20
g39
sbsg19
I00
sg20
g39
sbsg19
I00
sg20
g39
sbsg19
I00
sg20
g31
sba(imyEvolve
Tree
p428
(dp429
g8
(imyEvolve
Tree
p430
(dp431
g8
(imyEvolve
Tree
p432
(dp433
g8
(imyEvolve
Tree
p434
(dp435
g8
(imyEvolve
Tree
p436
(dp437
g7
I0
sg29
F-1.3856725040700613
sg18
I01
sbsg7
I1
sg22
(imyEvolve
Tree
p438
(dp439
g7
I0
sg29
F-2.6666571928058036
sg18
I01
sbsg19
I00
sg20
g31
sbsg7
I2
sg22
(imyEvolve
Tree
p440
(dp441
g8
(imyEvolve
Tree
p442
(dp443
g7
I0
sg29
F4.74265453836958
sg18
I01
sbsg7
I1
sg22
(imyEvolve
Tree
p444
(dp445
g7
I0
sg18
I00
sbsg19
I00
sg20
g30
sbsg19
I00
sg20
g31
sbsg7
I3
sg22
(imyEvolve
Tree
p446
(dp447
g8
(imyEvolve
Tree
p448
(dp449
g8
(imyEvolve
Tree
p450
(dp451
g7
I0
sg29
F-4.571888899603472
sg18
I01
sbsg7
I1
sg22
(imyEvolve
Tree
p452
(dp453
g7
I0
sg18
I00
sbsg19
I00
sg20
g39
sbsg7
I2
sg22
(imyEvolve
Tree
p454
(dp455
g8
(imyEvolve
Tree
p456
(dp457
g7
I0
sg18
I00
sbsg7
I1
sg22
(imyEvolve
Tree
p458
(dp459
g7
I0
sg29
F-4.238122781513663
sg18
I01
sbsg19
I00
sg20
g31
sbsg19
I00
sg20
g30
sbsg19
I00
sg20
g31
sbsg7
I4
sg22
(imyEvolve
Tree
p460
(dp461
g15
(imyEvolve
Tree
p462
(dp463
g8
(imyEvolve
Tree
p464
(dp465
g15
(imyEvolve
Tree
p466
(dp467
g7
I0
sg29
F-4.899822936894786
sg18
I01
sbsg7
I1
sg19
I01
sg20
g105
sbsg7
I2
sg22
(imyEvolve
Tree
p468
(dp469
g15
(imyEvolve
Tree
p470
(dp471
g7
I0
sg29
F0.8133443715456803
sg18
I01
sbsg7
I1
sg19
I01
sg20
g105
sbsg19
I00
sg20
g39
sbsg7
I3
sg19
I01
sg20
g105
sbsg19
I00
sg20
g30
sbaa(lp472
(imyEvolve
Tree
p473
(dp474
g15
(imyEvolve
Tree
p475
(dp476
g8
(imyEvolve
Tree
p477
(dp478
g8
(imyEvolve
Tree
p479
(dp480
g15
(imyEvolve
Tree
p481
(dp482
g7
I0
sg29
F-0.5177396789217017
sg18
I01
sbsg7
I1
sg19
I01
sg20
g21
sbsg7
I2
sg22
(imyEvolve
Tree
p483
(dp484
g15
(imyEvolve
Tree
p485
(dp486
g7
I0
sg29
F-2.9952610245265
sg18
I01
sbsg7
I1
sg19
I01
sg20
g21
sbsg19
I00
sg20
g39
sbsg7
I3
sg22
(imyEvolve
Tree
p487
(dp488
g8
(imyEvolve
Tree
p489
(dp490
g15
(imyEvolve
Tree
p491
(dp492
g7
I0
sg29
F4.85832124502879
sg18
I01
sbsg7
I1
sg19
I01
sg20
g38
sbsg7
I2
sg22
(imyEvolve
Tree
p493
(dp494
g15
(imyEvolve
Tree
p495
(dp496
g7
I0
sg18
I00
sbsg7
I1
sg19
I01
sg20
g54
sbsg19
I00
sg20
g31
sbsg19
I00
sg20
g31
sbsg7
I4
sg19
I01
sg20
g21
sba(imyEvolve
Tree
p497
(dp498
g8
(imyEvolve
Tree
p499
(dp500
g15
(imyEvolve
Tree
p501
(dp502
g7
I0
sg29
F-4.102018097452792
sg18
I01
sbsg7
I1
sg19
I01
sg20
g38
sbsg7
I2
sg22
(imyEvolve
Tree
p503
(dp504
g15
(imyEvolve
Tree
p505
(dp506
g7
I0
sg29
F-1.103799335200696
sg18
I01
sbsg7
I1
sg19
I01
sg20
g54
sbsg19
I00
sg20
g31
sba(imyEvolve
Tree
p507
(dp508
g8
(imyEvolve
Tree
p509
(dp510
g15
(imyEvolve
Tree
p511
(dp512
g7
I0
sg18
I00
sbsg7
I1
sg19
I01
sg20
g105
sbsg7
I2
sg22
(imyEvolve
Tree
p513
(dp514
g8
(imyEvolve
Tree
p515
(dp516
g7
I0
sg18
I00
sbsg7
I1
sg22
(imyEvolve
Tree
p517
(dp518
g7
I0
sg18
I00
sbsg19
I00
sg20
g30
sbsg19
I00
sg20
g30
sba(imyEvolve
Tree
p519
(dp520
g8
(imyEvolve
Tree
p521
(dp522
g15
(imyEvolve
Tree
p523
(dp524
g8
(imyEvolve
Tree
p525
(dp526
g15
(imyEvolve
Tree
p527
(dp528
g7
I0
sg18
I00
sbsg7
I1
sg19
I01
sg20
g21
sbsg7
I2
sg22
(imyEvolve
Tree
p529
(dp530
g8
(imyEvolve
Tree
p531
(dp532
g7
I0
sg29
F-1.3856565181639366
sg18
I01
sbsg7
I1
sg22
(imyEvolve
Tree
p533
(dp534
g7
I0
sg18
I00
sbsg19
I00
sg20
g39
sbsg19
I00
sg20
g31
sbsg7
I3
sg19
I01
sg20
g38
sbsg7
I4
sg22
(imyEvolve
Tree
p535
(dp536
g8
(imyEvolve
Tree
p537
(dp538
g15
(imyEvolve
Tree
p539
(dp540
g15
(imyEvolve
Tree
p541
(dp542
g7
I0
sg29
F-4.664571699332604
sg18
I01
sbsg7
I1
sg19
I01
sg20
g54
sbsg7
I2
sg19
I01
sg20
g105
sbsg7
I3
sg22
(imyEvolve
Tree
p543
(dp544
g8
(imyEvolve
Tree
p545
(dp546
g8
(imyEvolve
Tree
p547
(dp548
g7
I0
sg18
I00
sbsg7
I1
sg22
(imyEvolve
Tree
p549
(dp550
g7
I0
sg29
F4.061115404924191
sg18
I01
sbsg19
I00
sg20
g31
sbsg7
I2
sg22
(imyEvolve
Tree
p551
(dp552
g8
(imyEvolve
Tree
p553
(dp554
g7
I0
sg18
I00
sbsg7
I1
sg22
(imyEvolve
Tree
p555
(dp556
g7
I0
sg29
F-0.8345457042793845
sg18
I01
sbsg19
I00
sg20
g30
sbsg19
I00
sg20
g30
sbsg19
I00
sg20
g30
sbsg19
I00
sg20
g30
sba(imyEvolve
Tree
p557
(dp558
g15
(imyEvolve
Tree
p559
(dp560
g15
(imyEvolve
Tree
p561
(dp562
g7
I1
sg8
(imyEvolve
Tree
p563
(dp564
g7
I0
sg18
I00
sbsg22
(imyEvolve
Tree
p565
(dp566
g7
I0
sg29
F3.1589646495994668
sg18
I01
sbsg19
I00
sg20
g30
sbsg7
I2
sg19
I01
sg20
g21
sbsg7
I3
sg19
I01
sg20
g105
sba(imyEvolve
Tree
p567
(dp568
g7
I5
sg8
(imyEvolve
Tree
p569
(dp570
g7
I4
sg8
(imyEvolve
Tree
p571
(dp572
g15
(imyEvolve
Tree
p573
(dp574
g7
I2
sg8
(imyEvolve
Tree
p575
(dp576
g15
(imyEvolve
Tree
p577
(dp578
g7
I0
sg18
I00
sbsg7
I1
sg19
I01
sg20
g105
sbsg22
(imyEvolve
Tree
p579
(dp580
g15
(imyEvolve
Tree
p581
(dp582
g7
I0
sg29
F-2.366524302524693
sg18
I01
sbsg7
I1
sg19
I01
sg20
g54
sbsg19
I00
sg20
g31
sbsg7
I3
sg19
I01
sg20
g54
sbsg22
(imyEvolve
Tree
p583
(dp584
g7
I3
sg8
(imyEvolve
Tree
p585
(dp586
g7
I2
sg8
(imyEvolve
Tree
p587
(dp588
g7
I1
sg8
(imyEvolve
Tree
p589
(dp590
g7
I0
sg18
I00
sbsg22
(imyEvolve
Tree
p591
(dp592
g7
I0
sg18
I00
sbsg19
I00
sg20
g30
sbsg22
(imyEvolve
Tree
p593
(dp594
g15
(imyEvolve
Tree
p595
(dp596
g7
I0
sg29
F1.42054003944157
sg18
I01
sbsg7
I1
sg19
I01
sg20
g54
sbsg19
I00
sg20
g39
sbsg22
(imyEvolve
Tree
p597
(dp598
g7
I2
sg8
(imyEvolve
Tree
p599
(dp600
g7
I1
sg8
(imyEvolve
Tree
p601
(dp602
g7
I0
sg29
F0.4213814692465503
sg18
I01
sbsg22
(imyEvolve
Tree
p603
(dp604
g7
I0
sg29
F-1.7327148344086019
sg18
I01
sbsg19
I00
sg20
g39
sbsg22
(imyEvolve
Tree
p605
(dp606
g7
I1
sg8
(imyEvolve
Tree
p607
(dp608
g7
I0
sg18
I00
sbsg22
(imyEvolve
Tree
p609
(dp610
g7
I0
sg18
I00
sbsg19
I00
sg20
g30
sbsg19
I00
sg20
g39
sbsg19
I00
sg20
g30
sbsg19
I00
sg20
g31
sbsg22
(imyEvolve
Tree
p611
(dp612
g15
(imyEvolve
Tree
p613
(dp614
g15
(imyEvolve
Tree
p615
(dp616
g7
I2
sg8
(imyEvolve
Tree
p617
(dp618
g7
I1
sg8
(imyEvolve
Tree
p619
(dp620
g7
I0
sg18
I00
sbsg22
(imyEvolve
Tree
p621
(dp622
g7
I0
sg18
I00
sbsg19
I00
sg20
g39
sbsg22
(imyEvolve
Tree
p623
(dp624
g7
I1
sg8
(imyEvolve
Tree
p625
(dp626
g7
I0
sg29
F-2.9884329313675795
sg18
I01
sbsg22
(imyEvolve
Tree
p627
(dp628
g7
I0
sg29
F3.2356538344801695
sg18
I01
sbsg19
I00
sg20
g31
sbsg19
I00
sg20
g31
sbsg7
I3
sg19
I01
sg20
g54
sbsg7
I4
sg19
I01
sg20
g105
sbsg19
I00
sg20
g39
sba(imyEvolve
Tree
p629
(dp630
g7
I3
sg8
(imyEvolve
Tree
p631
(dp632
g15
(imyEvolve
Tree
p633
(dp634
g15
(imyEvolve
Tree
p635
(dp636
g7
I0
sg29
F-2.011707185743888
sg18
I01
sbsg7
I1
sg19
I01
sg20
g105
sbsg7
I2
sg19
I01
sg20
g54
sbsg22
(imyEvolve
Tree
p637
(dp638
g7
I2
sg8
(imyEvolve
Tree
p639
(dp640
g7
I1
sg8
(imyEvolve
Tree
p641
(dp642
g7
I0
sg29
F-4.371331998995237
sg18
I01
sbsg22
(imyEvolve
Tree
p643
(dp644
g7
I0
sg29
F-1.081648021702856
sg18
I01
sbsg19
I00
sg20
g39
sbsg22
(imyEvolve
Tree
p645
(dp646
g7
I1
sg8
(imyEvolve
Tree
p647
(dp648
g7
I0
sg29
F-4.795745067534508
sg18
I01
sbsg22
(imyEvolve
Tree
p649
(dp650
g7
I0
sg29
F0.2714871035912765
sg18
I01
sbsg19
I00
sg20
g31
sbsg19
I00
sg20
g30
sbsg19
I00
sg20
g30
sba(imyEvolve
Tree
p651
(dp652
g15
(imyEvolve
Tree
p653
(dp654
g15
(imyEvolve
Tree
p655
(dp656
g7
I0
sg29
F-0.05967538306602016
sg18
I01
sbsg7
I1
sg19
I01
sg20
g21
sbsg7
I2
sg19
I01
sg20
g38
sba(imyEvolve
Tree
p657
(dp658
g8
(imyEvolve
Tree
p659
(dp660
g8
(imyEvolve
Tree
p661
(dp662
g7
I0
sg29
F-4.477638229545947
sg18
I01
sbsg7
I1
sg22
(imyEvolve
Tree
p663
(dp664
g7
I0
sg18
I00
sbsg19
I00
sg20
g39
sbsg7
I2
sg22
(imyEvolve
Tree
p665
(dp666
g15
(imyEvolve
Tree
p667
(dp668
g7
I0
sg29
F3.587499140363162
sg18
I01
sbsg7
I1
sg19
I01
sg20
g21
sbsg19
I00
sg20
g31
sba(imyEvolve
Tree
p669
(dp670
g7
I5
sg8
(imyEvolve
Tree
p671
(dp672
g15
(imyEvolve
Tree
p673
(dp674
g15
(imyEvolve
Tree
p675
(dp676
g15
(imyEvolve
Tree
p677
(dp678
g7
I1
sg8
(imyEvolve
Tree
p679
(dp680
g7
I0
sg29
F1.0983308557589968
sg18
I01
sbsg22
(imyEvolve
Tree
p681
(dp682
g7
I0
sg18
I00
sbsg19
I00
sg20
g30
sbsg7
I2
sg19
I01
sg20
g54
sbsg7
I3
sg19
I01
sg20
g54
sbsg7
I4
sg19
I01
sg20
g105
sbsg22
(imyEvolve
Tree
p683
(dp684
g15
(imyEvolve
Tree
p685
(dp686
g15
(imyEvolve
Tree
p687
(dp688
g7
I2
sg8
(imyEvolve
Tree
p689
(dp690
g7
I1
sg8
(imyEvolve
Tree
p691
(dp692
g7
I0
sg18
I00
sbsg22
(imyEvolve
Tree
p693
(dp694
g7
I0
sg18
I00
sbsg19
I00
sg20
g31
sbsg22
(imyEvolve
Tree
p695
(dp696
g15
(imyEvolve
Tree
p697
(dp698
g7
I0
sg29
F2.0147587668899885
sg18
I01
sbsg7
I1
sg19
I01
sg20
g54
sbsg19
I00
sg20
g39
sbsg7
I3
sg19
I01
sg20
g38
sbsg7
I4
sg19
I01
sg20
g54
sbsg19
I00
sg20
g31
sba(imyEvolve
Tree
p699
(dp700
g7
I5
sg8
(imyEvolve
Tree
p701
(dp702
g7
I4
sg8
(imyEvolve
Tree
p703
(dp704
g15
(imyEvolve
Tree
p705
(dp706
g7
I2
sg8
(imyEvolve
Tree
p707
(dp708
g7
I1
sg8
(imyEvolve
Tree
p709
(dp710
g7
I0
sg18
I00
sbsg22
(imyEvolve
Tree
p711
(dp712
g7
I0
sg29
F3.4997807711785534
sg18
I01
sbsg19
I00
sg20
g39
sbsg22
(imyEvolve
Tree
p713
(dp714
g7
I1
sg8
(imyEvolve
Tree
p715
(dp716
g7
I0
sg29
F-2.9520181607816665
sg18
I01
sbsg22
(imyEvolve
Tree
p717
(dp718
g7
I0
sg29
F-4.958997436739484
sg18
I01
sbsg19
I00
sg20
g30
sbsg19
I00
sg20
g31
sbsg7
I3
sg19
I01
sg20
g21
sbsg22
(imyEvolve
Tree
p719
(dp720
g7
I3
sg8
(imyEvolve
Tree
p721
(dp722
g15
(imyEvolve
Tree
p723
(dp724
g7
I1
sg8
(imyEvolve
Tree
p725
(dp726
g7
I0
sg29
F2.6545250616498395
sg18
I01
sbsg22
(imyEvolve
Tree
p727
(dp728
g7
I0
sg29
F-1.0582603498865693
sg18
I01
sbsg19
I00
sg20
g39
sbsg7
I2
sg19
I01
sg20
g105
sbsg22
(imyEvolve
Tree
p729
(dp730
g15
(imyEvolve
Tree
p731
(dp732
g7
I1
sg8
(imyEvolve
Tree
p733
(dp734
g7
I0
sg29
F2.327789449966576
sg18
I01
sbsg22
(imyEvolve
Tree
p735
(dp736
g7
I0
sg29
F0.06760288368610201
sg18
I01
sbsg19
I00
sg20
g31
sbsg7
I2
sg19
I01
sg20
g54
sbsg19
I00
sg20
g31
sbsg19
I00
sg20
g31
sbsg22
(imyEvolve
Tree
p737
(dp738
g15
(imyEvolve
Tree
p739
(dp740
g15
(imyEvolve
Tree
p741
(dp742
g15
(imyEvolve
Tree
p743
(dp744
g15
(imyEvolve
Tree
p745
(dp746
g7
I0
sg18
I00
sbsg7
I1
sg19
I01
sg20
g38
sbsg7
I2
sg19
I01
sg20
g21
sbsg7
I3
sg19
I01
sg20
g105
sbsg7
I4
sg19
I01
sg20
g105
sbsg19
I00
sg20
g31
sba(imyEvolve
Tree
p747
(dp748
g7
I3
sg8
(imyEvolve
Tree
p749
(dp750
g7
I2
sg8
(imyEvolve
Tree
p751
(dp752
g7
I1
sg8
(imyEvolve
Tree
p753
(dp754
g7
I0
sg18
I00
sbsg22
(imyEvolve
Tree
p755
(dp756
g7
I0
sg18
I00
sbsg19
I00
sg20
g31
sbsg22
(imyEvolve
Tree
p757
(dp758
g7
I1
sg8
(imyEvolve
Tree
p759
(dp760
g7
I0
sg18
I00
sbsg22
(imyEvolve
Tree
p761
(dp762
g7
I0
sg29
F3.6464357722512624
sg18
I01
sbsg19
I00
sg20
g30
sbsg19
I00
sg20
g31
sbsg22
(imyEvolve
Tree
p763
(dp764
g15
(imyEvolve
Tree
p765
(dp766
g7
I1
sg8
(imyEvolve
Tree
p767
(dp768
g7
I0
sg29
F-0.6789691187888378
sg18
I01
sbsg22
(imyEvolve
Tree
p769
(dp770
g7
I0
sg18
I00
sbsg19
I00
sg20
g39
sbsg7
I2
sg19
I01
sg20
g38
sbsg19
I00
sg20
g31
sba(imyEvolve
Tree
p771
(dp772
g15
(imyEvolve
Tree
p773
(dp774
g8
(imyEvolve
Tree
p775
(dp776
g7
I0
sg29
F0.5924679435789333
sg18
I01
sbsg7
I1
sg22
(imyEvolve
Tree
p777
(dp778
g7
I0
sg18
I00
sbsg19
I00
sg20
g39
sbsg7
I2
sg19
I01
sg20
g105
sba(imyEvolve
Tree
p779
(dp780
g8
(imyEvolve
Tree
p781
(dp782
g15
(imyEvolve
Tree
p783
(dp784
g15
(imyEvolve
Tree
p785
(dp786
g15
(imyEvolve
Tree
p787
(dp788
g15
(imyEvolve
Tree
p789
(dp790
g7
I0
sg29
F-1.580039613297969
sg18
I01
sbsg7
I1
sg19
I01
sg20
g21
sbsg7
I2
sg19
I01
sg20
g54
sbsg7
I3
sg19
I01
sg20
g54
sbsg7
I4
sg19
I01
sg20
g54
sbsg7
I5
sg22
(imyEvolve
Tree
p791
(dp792
g8
(imyEvolve
Tree
p793
(dp794
g15
(imyEvolve
Tree
p795
(dp796
g15
(imyEvolve
Tree
p797
(dp798
g8
(imyEvolve
Tree
p799
(dp800
g7
I0
sg18
I00
sbsg7
I1
sg22
(imyEvolve
Tree
p801
(dp802
g7
I0
sg18
I00
sbsg19
I00
sg20
g30
sbsg7
I2
sg19
I01
sg20
g54
sbsg7
I3
sg19
I01
sg20
g54
sbsg7
I4
sg22
(imyEvolve
Tree
p803
(dp804
g15
(imyEvolve
Tree
p805
(dp806
g15
(imyEvolve
Tree
p807
(dp808
g15
(imyEvolve
Tree
p809
(dp810
g7
I0
sg29
F-1.3052000480599588
sg18
I01
sbsg7
I1
sg19
I01
sg20
g54
sbsg7
I2
sg19
I01
sg20
g21
sbsg7
I3
sg19
I01
sg20
g54
sbsg19
I00
sg20
g31
sbsg19
I00
sg20
g30
sba(imyEvolve
Tree
p811
(dp812
g7
I5
sg8
(imyEvolve
Tree
p813
(dp814
g7
I4
sg8
(imyEvolve
Tree
p815
(dp816
g7
I3
sg8
(imyEvolve
Tree
p817
(dp818
g15
(imyEvolve
Tree
p819
(dp820
g7
I1
sg8
(imyEvolve
Tree
p821
(dp822
g7
I0
sg18
I00
sbsg22
(imyEvolve
Tree
p823
(dp824
g7
I0
sg18
I00
sbsg19
I00
sg20
g31
sbsg7
I2
sg19
I01
sg20
g105
sbsg22
(imyEvolve
Tree
p825
(dp826
g15
(imyEvolve
Tree
p827
(dp828
g15
(imyEvolve
Tree
p829
(dp830
g7
I0
sg29
F1.1411906482720084
sg18
I01
sbsg7
I1
sg19
I01
sg20
g54
sbsg7
I2
sg19
I01
sg20
g38
sbsg19
I00
sg20
g31
sbsg22
(imyEvolve
Tree
p831
(dp832
g15
(imyEvolve
Tree
p833
(dp834
g15
(imyEvolve
Tree
p835
(dp836
g15
(imyEvolve
Tree
p837
(dp838
g7
I0
sg18
I00
sbsg7
I1
sg19
I01
sg20
g38
sbsg7
I2
sg19
I01
sg20
g21
sbsg7
I3
sg19
I01
sg20
g105
sbsg19
I00
sg20
g31
sbsg22
(imyEvolve
Tree
p839
(dp840
g15
(imyEvolve
Tree
p841
(dp842
g7
I3
sg8
(imyEvolve
Tree
p843
(dp844
g15
(imyEvolve
Tree
p845
(dp846
g15
(imyEvolve
Tree
p847
(dp848
g7
I0
sg18
I00
sbsg7
I1
sg19
I01
sg20
g38
sbsg7
I2
sg19
I01
sg20
g38
sbsg22
(imyEvolve
Tree
p849
(dp850
g7
I2
sg8
(imyEvolve
Tree
p851
(dp852
g15
(imyEvolve
Tree
p853
(dp854
g7
I0
sg18
I00
sbsg7
I1
sg19
I01
sg20
g38
sbsg22
(imyEvolve
Tree
p855
(dp856
g7
I1
sg8
(imyEvolve
Tree
p857
(dp858
g7
I0
sg18
I00
sbsg22
(imyEvolve
Tree
p859
(dp860
g7
I0
sg29
F0.033334814942197255
sg18
I01
sbsg19
I00
sg20
g31
sbsg19
I00
sg20
g31
sbsg19
I00
sg20
g30
sbsg7
I4
sg19
I01
sg20
g21
sbsg19
I00
sg20
g30
sba(imyEvolve
Tree
p861
(dp862
g8
(imyEvolve
Tree
p863
(dp864
g8
(imyEvolve
Tree
p865
(dp866
g8
(imyEvolve
Tree
p867
(dp868
g15
(imyEvolve
Tree
p869
(dp870
g7
I0
sg18
I00
sbsg7
I1
sg19
I01
sg20
g38
sbsg7
I2
sg22
(imyEvolve
Tree
p871
(dp872
g8
(imyEvolve
Tree
p873
(dp874
g7
I0
sg18
I00
sbsg7
I1
sg22
(imyEvolve
Tree
p875
(dp876
g7
I0
sg29
F-4.920340509286749
sg18
I01
sbsg19
I00
sg20
g39
sbsg19
I00
sg20
g31
sbsg7
I3
sg22
(imyEvolve
Tree
p877
(dp878
g15
(imyEvolve
Tree
p879
(dp880
g8
(imyEvolve
Tree
p881
(dp882
g7
I0
sg18
I00
sbsg7
I1
sg22
(imyEvolve
Tree
p883
(dp884
g7
I0
sg29
F4.575555976558526
sg18
I01
sbsg19
I00
sg20
g30
sbsg7
I2
sg19
I01
sg20
g21
sbsg19
I00
sg20
g30
sbsg7
I4
sg22
(imyEvolve
Tree
p885
(dp886
g8
(imyEvolve
Tree
p887
(dp888
g15
(imyEvolve
Tree
p889
(dp890
g15
(imyEvolve
Tree
p891
(dp892
g7
I0
sg29
F0.1331008107027012
sg18
I01
sbsg7
I1
sg19
I01
sg20
g54
sbsg7
I2
sg19
I01
sg20
g38
sbsg7
I3
sg22
(imyEvolve
Tree
p893
(dp894
g8
(imyEvolve
Tree
p895
(dp896
g15
(imyEvolve
Tree
p897
(dp898
g7
I0
sg29
F-2.7967584422862766
sg18
I01
sbsg7
I1
sg19
I01
sg20
g21
sbsg7
I2
sg22
(imyEvolve
Tree
p899
(dp900
g15
(imyEvolve
Tree
p901
(dp902
g7
I0
sg29
F3.7810310734289594
sg18
I01
sbsg7
I1
sg19
I01
sg20
g54
sbsg19
I00
sg20
g31
sbsg19
I00
sg20
g31
sbsg19
I00
sg20
g39
sba(imyEvolve
Tree
p903
(dp904
g7
I2
sg8
(imyEvolve
Tree
p905
(dp906
g15
(imyEvolve
Tree
p907
(dp908
g7
I0
sg18
I00
sbsg7
I1
sg19
I01
sg20
g54
sbsg22
(imyEvolve
Tree
p909
(dp910
g15
(imyEvolve
Tree
p911
(dp912
g7
I0
sg29
F-2.2894424479495434
sg18
I01
sbsg7
I1
sg19
I01
sg20
g21
sbsg19
I00
sg20
g30
sbaa(lp913
(imyEvolve
Tree
p914
(dp915
g15
(imyEvolve
Tree
p916
(dp917
g8
(imyEvolve
Tree
p918
(dp919
g8
(imyEvolve
Tree
p920
(dp921
g8
(imyEvolve
Tree
p922
(dp923
g8
(imyEvolve
Tree
p924
(dp925
g7
I0
sg18
I00
sbsg7
I1
sg22
(imyEvolve
Tree
p926
(dp927
g7
I0
sg29
F-1.3956777795380306
sg18
I01
sbsg19
I00
sg20
g31
sbsg7
I2
sg22
(imyEvolve
Tree
p928
(dp929
g15
(imyEvolve
Tree
p930
(dp931
g7
I0
sg18
I00
sbsg7
I1
sg19
I01
sg20
g105
sbsg19
I00
sg20
g31
sbsg7
I3
sg22
(imyEvolve
Tree
p932
(dp933
g15
(imyEvolve
Tree
p934
(dp935
g15
(imyEvolve
Tree
p936
(dp937
g7
I0
sg18
I00
sbsg7
I1
sg19
I01
sg20
g21
sbsg7
I2
sg19
I01
sg20
g38
sbsg19
I00
sg20
g30
sbsg7
I4
sg22
(imyEvolve
Tree
p938
(dp939
g15
(imyEvolve
Tree
p940
(dp941
g15
(imyEvolve
Tree
p942
(dp943
g8
(imyEvolve
Tree
p944
(dp945
g7
I0
sg18
I00
sbsg7
I1
sg22
(imyEvolve
Tree
p946
(dp947
g7
I0
sg18
I00
sbsg19
I00
sg20
g39
sbsg7
I2
sg19
I01
sg20
g54
sbsg7
I3
sg19
I01
sg20
g54
sbsg19
I00
sg20
g39
sbsg7
I5
sg19
I01
sg20
g54
sba(imyEvolve
Tree
p948
(dp949
g15
(imyEvolve
Tree
p950
(dp951
g15
(imyEvolve
Tree
p952
(dp953
g15
(imyEvolve
Tree
p954
(dp955
g7
I1
sg8
(imyEvolve
Tree
p956
(dp957
g7
I0
sg29
F2.9740935219994
sg18
I01
sbsg22
(imyEvolve
Tree
p958
(dp959
g7
I0
sg29
F4.561497823654701
sg18
I01
sbsg19
I00
sg20
g30
sbsg7
I2
sg19
I01
sg20
g54
sbsg7
I3
sg19
I01
sg20
g54
sbsg7
I4
sg19
I01
sg20
g21
sba(imyEvolve
Tree
p960
(dp961
g15
(imyEvolve
Tree
p962
(dp963
g15
(imyEvolve
Tree
p964
(dp965
g15
(imyEvolve
Tree
p966
(dp967
g7
I0
sg29
F-2.060578156389967
sg18
I01
sbsg7
I1
sg19
I01
sg20
g38
sbsg7
I2
sg19
I01
sg20
g38
sbsg7
I3
sg19
I01
sg20
g21
sba(imyEvolve
Tree
p968
(dp969
g8
(imyEvolve
Tree
p970
(dp971
g15
(imyEvolve
Tree
p972
(dp973
g7
I0
sg18
I00
sbsg7
I1
sg19
I01
sg20
g105
sbsg7
I2
sg22
(imyEvolve
Tree
p974
(dp975
g8
(imyEvolve
Tree
p976
(dp977
g7
I0
sg29
F1.0073655632145915
sg18
I01
sbsg7
I1
sg22
(imyEvolve
Tree
p978
(dp979
g7
I0
sg18
I00
sbsg19
I00
sg20
g30
sbsg19
I00
sg20
g31
sba(imyEvolve
Tree
p980
(dp981
g15
(imyEvolve
Tree
p982
(dp983
g15
(imyEvolve
Tree
p984
(dp985
g8
(imyEvolve
Tree
p986
(dp987
g15
(imyEvolve
Tree
p988
(dp989
g7
I0
sg29
F1.2792557121007562
sg18
I01
sbsg7
I1
sg19
I01
sg20
g38
sbsg7
I2
sg22
(imyEvolve
Tree
p990
(dp991
g8
(imyEvolve
Tree
p992
(dp993
g7
I0
sg18
I00
sbsg7
I1
sg22
(imyEvolve
Tree
p994
(dp995
g7
I0
sg29
F-1.933007594728763
sg18
I01
sbsg19
I00
sg20
g31
sbsg19
I00
sg20
g30
sbsg7
I3
sg19
I01
sg20
g21
sbsg7
I4
sg19
I01
sg20
g38
sba(imyEvolve
Tree
p996
(dp997
g15
(imyEvolve
Tree
p998
(dp999
g15
(imyEvolve
Tree
p1000
(dp1001
g15
(imyEvolve
Tree
p1002
(dp1003
g8
(imyEvolve
Tree
p1004
(dp1005
g15
(imyEvolve
Tree
p1006
(dp1007
g7
I0
sg29
F0.4238345021920109
sg18
I01
sbsg7
I1
sg19
I01
sg20
g38
sbsg7
I2
sg22
(imyEvolve
Tree
p1008
(dp1009
g8
(imyEvolve
Tree
p1010
(dp1011
g7
I0
sg29
F-4.0424621588014755
sg18
I01
sbsg7
I1
sg22
(imyEvolve
Tree
p1012
(dp1013
g7
I0
sg29
F-0.5251291177365509
sg18
I01
sbsg19
I00
sg20
g30
sbsg19
I00
sg20
g39
sbsg7
I3
sg19
I01
sg20
g38
sbsg7
I4
sg19
I01
sg20
g38
sbsg7
I5
sg19
I01
sg20
g21
sba(imyEvolve
Tree
p1014
(dp1015
g15
(imyEvolve
Tree
p1016
(dp1017
g8
(imyEvolve
Tree
p1018
(dp1019
g7
I0
sg18
I00
sbsg7
I1
sg22
(imyEvolve
Tree
p1020
(dp1021
g7
I0
sg29
F2.8982093822512036
sg18
I01
sbsg19
I00
sg20
g31
sbsg7
I2
sg19
I01
sg20
g54
sba(imyEvolve
Tree
p1022
(dp1023
g8
(imyEvolve
Tree
p1024
(dp1025
g8
(imyEvolve
Tree
p1026
(dp1027
g7
I0
sg29
F1.909221571340999
sg18
I01
sbsg7
I1
sg22
(imyEvolve
Tree
p1028
(dp1029
g7
I0
sg29
F0.1717035768885724
sg18
I01
sbsg19
I00
sg20
g30
sbsg7
I2
sg22
(imyEvolve
Tree
p1030
(dp1031
g15
(imyEvolve
Tree
p1032
(dp1033
g7
I0
sg29
F-1.1466521072567781
sg18
I01
sbsg7
I1
sg19
I01
sg20
g38
sbsg19
I00
sg20
g30
sba(imyEvolve
Tree
p1034
(dp1035
g8
(imyEvolve
Tree
p1036
(dp1037
g15
(imyEvolve
Tree
p1038
(dp1039
g7
I0
sg29
F2.0040809612078325
sg18
I01
sbsg7
I1
sg19
I01
sg20
g21
sbsg7
I2
sg22
(imyEvolve
Tree
p1040
(dp1041
g15
(imyEvolve
Tree
p1042
(dp1043
g7
I0
sg29
F-1.5210632673941293
sg18
I01
sbsg7
I1
sg19
I01
sg20
g105
sbsg19
I00
sg20
g39
sba(imyEvolve
Tree
p1044
(dp1045
g15
(imyEvolve
Tree
p1046
(dp1047
g15
(imyEvolve
Tree
p1048
(dp1049
g15
(imyEvolve
Tree
p1050
(dp1051
g15
(imyEvolve
Tree
p1052
(dp1053
g7
I0
sg18
I00
sbsg7
I1
sg19
I01
sg20
g21
sbsg7
I2
sg19
I01
sg20
g54
sbsg7
I3
sg19
I01
sg20
g54
sbsg7
I4
sg19
I01
sg20
g38
sba(imyEvolve
Tree
p1054
(dp1055
g8
(imyEvolve
Tree
p1056
(dp1057
g15
(imyEvolve
Tree
p1058
(dp1059
g7
I0
sg18
I00
sbsg7
I1
sg19
I01
sg20
g38
sbsg7
I2
sg22
(imyEvolve
Tree
p1060
(dp1061
g8
(imyEvolve
Tree
p1062
(dp1063
g7
I0
sg29
F3.1974177695709685
sg18
I01
sbsg7
I1
sg22
(imyEvolve
Tree
p1064
(dp1065
g7
I0
sg29
F-3.6392771285584944
sg18
I01
sbsg19
I00
sg20
g30
sbsg19
I00
sg20
g30
sba(imyEvolve
Tree
p1066
(dp1067
g8
(imyEvolve
Tree
p1068
(dp1069
g15
(imyEvolve
Tree
p1070
(dp1071
g8
(imyEvolve
Tree
p1072
(dp1073
g15
(imyEvolve
Tree
p1074
(dp1075
g7
I0
sg18
I00
sbsg7
I1
sg19
I01
sg20
g38
sbsg7
I2
sg22
(imyEvolve
Tree
p1076
(dp1077
g15
(imyEvolve
Tree
p1078
(dp1079
g7
I0
sg18
I00
sbsg7
I1
sg19
I01
sg20
g54
sbsg19
I00
sg20
g39
sbsg7
I3
sg19
I01
sg20
g54
sbsg7
I4
sg22
(imyEvolve
Tree
p1080
(dp1081
g8
(imyEvolve
Tree
p1082
(dp1083
g8
(imyEvolve
Tree
p1084
(dp1085
g8
(imyEvolve
Tree
p1086
(dp1087
g7
I0
sg18
I00
sbsg7
I1
sg22
(imyEvolve
Tree
p1088
(dp1089
g7
I0
sg18
I00
sbsg19
I00
sg20
g39
sbsg7
I2
sg22
(imyEvolve
Tree
p1090
(dp1091
g8
(imyEvolve
Tree
p1092
(dp1093
g7
I0
sg18
I00
sbsg7
I1
sg22
(imyEvolve
Tree
p1094
(dp1095
g7
I0
sg29
F-4.292855173402083
sg18
I01
sbsg19
I00
sg20
g39
sbsg19
I00
sg20
g30
sbsg7
I3
sg22
(imyEvolve
Tree
p1096
(dp1097
g8
(imyEvolve
Tree
p1098
(dp1099
g8
(imyEvolve
Tree
p1100
(dp1101
g7
I0
sg29
F0.9988886356081705
sg18
I01
sbsg7
I1
sg22
(imyEvolve
Tree
p1102
(dp1103
g7
I0
sg18
I00
sbsg19
I00
sg20
g39
sbsg7
I2
sg22
(imyEvolve
Tree
p1104
(dp1105
g8
(imyEvolve
Tree
p1106
(dp1107
g7
I0
sg29
F4.1500390802141
sg18
I01
sbsg7
I1
sg22
(imyEvolve
Tree
p1108
(dp1109
g7
I0
sg18
I00
sbsg19
I00
sg20
g39
sbsg19
I00
sg20
g31
sbsg19
I00
sg20
g30
sbsg19
I00
sg20
g39
sbaa(lp1110
(imyEvolve
Tree
p1111
(dp1112
g7
I4
sg8
(imyEvolve
Tree
p1113
(dp1114
g7
I3
sg8
(imyEvolve
Tree
p1115
(dp1116
g7
I2
sg8
(imyEvolve
Tree
p1117
(dp1118
g15
(imyEvolve
Tree
p1119
(dp1120
g7
I0
sg18
I00
sbsg7
I1
sg19
I01
sg20
g38
sbsg22
(imyEvolve
Tree
p1121
(dp1122
g7
I1
sg8
(imyEvolve
Tree
p1123
(dp1124
g7
I0
sg29
F2.946225599972281
sg18
I01
sbsg22
(imyEvolve
Tree
p1125
(dp1126
g7
I0
sg29
F1.220583195035597
sg18
I01
sbsg19
I00
sg20
g30
sbsg19
I00
sg20
g39
sbsg22
(imyEvolve
Tree
p1127
(dp1128
g15
(imyEvolve
Tree
p1129
(dp1130
g15
(imyEvolve
Tree
p1131
(dp1132
g7
I0
sg18
I00
sbsg7
I1
sg19
I01
sg20
g54
sbsg7
I2
sg19
I01
sg20
g21
sbsg19
I00
sg20
g31
sbsg22
(imyEvolve
Tree
p1133
(dp1134
g7
I3
sg8
(imyEvolve
Tree
p1135
(dp1136
g15
(imyEvolve
Tree
p1137
(dp1138
g7
I1
sg8
(imyEvolve
Tree
p1139
(dp1140
g7
I0
sg18
I00
sbsg22
(imyEvolve
Tree
p1141
(dp1142
g7
I0
sg29
F3.6604190070800673
sg18
I01
sbsg19
I00
sg20
g39
sbsg7
I2
sg19
I01
sg20
g21
sbsg22
(imyEvolve
Tree
p1143
(dp1144
g15
(imyEvolve
Tree
p1145
(dp1146
g7
I1
sg8
(imyEvolve
Tree
p1147
(dp1148
g7
I0
sg18
I00
sbsg22
(imyEvolve
Tree
p1149
(dp1150
g7
I0
sg29
F-0.9299607630328479
sg18
I01
sbsg19
I00
sg20
g39
sbsg7
I2
sg19
I01
sg20
g38
sbsg19
I00
sg20
g31
sbsg19
I00
sg20
g30
sba(imyEvolve
Tree
p1151
(dp1152
g7
I3
sg8
(imyEvolve
Tree
p1153
(dp1154
g7
I2
sg8
(imyEvolve
Tree
p1155
(dp1156
g15
(imyEvolve
Tree
p1157
(dp1158
g7
I0
sg29
F4.253847580396924
sg18
I01
sbsg7
I1
sg19
I01
sg20
g21
sbsg22
(imyEvolve
Tree
p1159
(dp1160
g7
I1
sg8
(imyEvolve
Tree
p1161
(dp1162
g7
I0
sg18
I00
sbsg22
(imyEvolve
Tree
p1163
(dp1164
g7
I0
sg18
I00
sbsg19
I00
sg20
g30
sbsg19
I00
sg20
g39
sbsg22
(imyEvolve
Tree
p1165
(dp1166
g15
(imyEvolve
Tree
p1167
(dp1168
g15
(imyEvolve
Tree
p1169
(dp1170
g7
I0
sg18
I00
sbsg7
I1
sg19
I01
sg20
g105
sbsg7
I2
sg19
I01
sg20
g105
sbsg19
I00
sg20
g30
sba(imyEvolve
Tree
p1171
(dp1172
g7
I4
sg8
(imyEvolve
Tree
p1173
(dp1174
g7
I3
sg8
(imyEvolve
Tree
p1175
(dp1176
g15
(imyEvolve
Tree
p1177
(dp1178
g15
(imyEvolve
Tree
p1179
(dp1180
g7
I0
sg18
I00
sbsg7
I1
sg19
I01
sg20
g54
sbsg7
I2
sg19
I01
sg20
g54
sbsg22
(imyEvolve
Tree
p1181
(dp1182
g7
I2
sg8
(imyEvolve
Tree
p1183
(dp1184
g15
(imyEvolve
Tree
p1185
(dp1186
g7
I0
sg29
F-1.2987314770139067
sg18
I01
sbsg7
I1
sg19
I01
sg20
g105
sbsg22
(imyEvolve
Tree
p1187
(dp1188
g7
I1
sg8
(imyEvolve
Tree
p1189
(dp1190
g7
I0
sg29
F0.2088076573312181
sg18
I01
sbsg22
(imyEvolve
Tree
p1191
(dp1192
g7
I0
sg29
F-4.031274676958495
sg18
I01
sbsg19
I00
sg20
g31
sbsg19
I00
sg20
g39
sbsg19
I00
sg20
g30
sbsg22
(imyEvolve
Tree
p1193
(dp1194
g7
I3
sg8
(imyEvolve
Tree
p1195
(dp1196
g15
(imyEvolve
Tree
p1197
(dp1198
g7
I1
sg8
(imyEvolve
Tree
p1199
(dp1200
g7
I0
sg29
F2.6143781005902076
sg18
I01
sbsg22
(imyEvolve
Tree
p1201
(dp1202
g7
I0
sg18
I00
sbsg19
I00
sg20
g31
sbsg7
I2
sg19
I01
sg20
g21
sbsg22
(imyEvolve
Tree
p1203
(dp1204
g7
I2
sg8
(imyEvolve
Tree
p1205
(dp1206
g15
(imyEvolve
Tree
p1207
(dp1208
g7
I0
sg29
F1.2478912641692785
sg18
I01
sbsg7
I1
sg19
I01
sg20
g54
sbsg22
(imyEvolve
Tree
p1209
(dp1210
g15
(imyEvolve
Tree
p1211
(dp1212
g7
I0
sg18
I00
sbsg7
I1
sg19
I01
sg20
g54
sbsg19
I00
sg20
g39
sbsg19
I00
sg20
g31
sbsg19
I00
sg20
g39
sba(imyEvolve
Tree
p1213
(dp1214
g15
(imyEvolve
Tree
p1215
(dp1216
g7
I3
sg8
(imyEvolve
Tree
p1217
(dp1218
g7
I2
sg8
(imyEvolve
Tree
p1219
(dp1220
g15
(imyEvolve
Tree
p1221
(dp1222
g7
I0
sg29
F-0.426816320865802
sg18
I01
sbsg7
I1
sg19
I01
sg20
g105
sbsg22
(imyEvolve
Tree
p1223
(dp1224
g7
I1
sg8
(imyEvolve
Tree
p1225
(dp1226
g7
I0
sg29
F-0.12730951216509023
sg18
I01
sbsg22
(imyEvolve
Tree
p1227
(dp1228
g7
I0
sg18
I00
sbsg19
I00
sg20
g31
sbsg19
I00
sg20
g31
sbsg22
(imyEvolve
Tree
p1229
(dp1230
g15
(imyEvolve
Tree
p1231
(dp1232
g15
(imyEvolve
Tree
p1233
(dp1234
g7
I0
sg29
F-3.54886356549452
sg18
I01
sbsg7
I1
sg19
I01
sg20
g105
sbsg7
I2
sg19
I01
sg20
g54
sbsg19
I00
sg20
g39
sbsg7
I4
sg19
I01
sg20
g21
sba(imyEvolve
Tree
p1235
(dp1236
g15
(imyEvolve
Tree
p1237
(dp1238
g15
(imyEvolve
Tree
p1239
(dp1240
g8
(imyEvolve
Tree
p1241
(dp1242
g7
I0
sg29
F-3.1681336061847887
sg18
I01
sbsg7
I1
sg22
(imyEvolve
Tree
p1243
(dp1244
g7
I0
sg29
F-0.1440430449900143
sg18
I01
sbsg19
I00
sg20
g30
sbsg7
I2
sg19
I01
sg20
g105
sbsg7
I3
sg19
I01
sg20
g38
sba(imyEvolve
Tree
p1245
(dp1246
g8
(imyEvolve
Tree
p1247
(dp1248
g8
(imyEvolve
Tree
p1249
(dp1250
g7
I0
sg29
F0.1284264709628129
sg18
I01
sbsg7
I1
sg22
(imyEvolve
Tree
p1251
(dp1252
g7
I0
sg18
I00
sbsg19
I00
sg20
g39
sbsg7
I2
sg22
(imyEvolve
Tree
p1253
(dp1254
g15
(imyEvolve
Tree
p1255
(dp1256
g7
I0
sg18
I00
sbsg7
I1
sg19
I01
sg20
g21
sbsg19
I00
sg20
g30
sba(imyEvolve
Tree
p1257
(dp1258
g15
(imyEvolve
Tree
p1259
(dp1260
g8
(imyEvolve
Tree
p1261
(dp1262
g15
(imyEvolve
Tree
p1263
(dp1264
g7
I0
sg18
I00
sbsg7
I1
sg19
I01
sg20
g38
sbsg7
I2
sg22
(imyEvolve
Tree
p1265
(dp1266
g15
(imyEvolve
Tree
p1267
(dp1268
g7
I0
sg29
F1.592690586619642
sg18
I01
sbsg7
I1
sg19
I01
sg20
g38
sbsg19
I00
sg20
g31
sbsg7
I3
sg19
I01
sg20
g105
sba(imyEvolve
Tree
p1269
(dp1270
g15
(imyEvolve
Tree
p1271
(dp1272
g15
(imyEvolve
Tree
p1273
(dp1274
g15
(imyEvolve
Tree
p1275
(dp1276
g8
(imyEvolve
Tree
p1277
(dp1278
g7
I0
sg18
I00
sbsg7
I1
sg22
(imyEvolve
Tree
p1279
(dp1280
g7
I0
sg18
I00
sbsg19
I00
sg20
g31
sbsg7
I2
sg19
I01
sg20
g21
sbsg7
I3
sg19
I01
sg20
g54
sbsg7
I4
sg19
I01
sg20
g105
sba(imyEvolve
Tree
p1281
(dp1282
g15
(imyEvolve
Tree
p1283
(dp1284
g7
I4
sg8
(imyEvolve
Tree
p1285
(dp1286
g15
(imyEvolve
Tree
p1287
(dp1288
g15
(imyEvolve
Tree
p1289
(dp1290
g7
I1
sg8
(imyEvolve
Tree
p1291
(dp1292
g7
I0
sg18
I00
sbsg22
(imyEvolve
Tree
p1293
(dp1294
g7
I0
sg29
F0.05912796341341231
sg18
I01
sbsg19
I00
sg20
g39
sbsg7
I2
sg19
I01
sg20
g54
sbsg7
I3
sg19
I01
sg20
g54
sbsg22
(imyEvolve
Tree
p1295
(dp1296
g15
(imyEvolve
Tree
p1297
(dp1298
g15
(imyEvolve
Tree
p1299
(dp1300
g7
I1
sg8
(imyEvolve
Tree
p1301
(dp1302
g7
I0
sg29
F3.579045399954481
sg18
I01
sbsg22
(imyEvolve
Tree
p1303
(dp1304
g7
I0
sg18
I00
sbsg19
I00
sg20
g30
sbsg7
I2
sg19
I01
sg20
g21
sbsg7
I3
sg19
I01
sg20
g54
sbsg19
I00
sg20
g30
sbsg7
I5
sg19
I01
sg20
g54
sba(imyEvolve
Tree
p1305
(dp1306
g15
(imyEvolve
Tree
p1307
(dp1308
g7
I4
sg8
(imyEvolve
Tree
p1309
(dp1310
g7
I3
sg8
(imyEvolve
Tree
p1311
(dp1312
g15
(imyEvolve
Tree
p1313
(dp1314
g15
(imyEvolve
Tree
p1315
(dp1316
g7
I0
sg29
F-0.02793655844997822
sg18
I01
sbsg7
I1
sg19
I01
sg20
g54
sbsg7
I2
sg19
I01
sg20
g54
sbsg22
(imyEvolve
Tree
p1317
(dp1318
g7
I2
sg8
(imyEvolve
Tree
p1319
(dp1320
g7
I1
sg8
(imyEvolve
Tree
p1321
(dp1322
g7
I0
sg18
I00
sbsg22
(imyEvolve
Tree
p1323
(dp1324
g7
I0
sg29
F2.0262443913028774
sg18
I01
sbsg19
I00
sg20
g31
sbsg22
(imyEvolve
Tree
p1325
(dp1326
g15
(imyEvolve
Tree
p1327
(dp1328
g7
I0
sg18
I00
sbsg7
I1
sg19
I01
sg20
g38
sbsg19
I00
sg20
g39
sbsg19
I00
sg20
g39
sbsg22
(imyEvolve
Tree
p1329
(dp1330
g15
(imyEvolve
Tree
p1331
(dp1332
g15
(imyEvolve
Tree
p1333
(dp1334
g7
I1
sg8
(imyEvolve
Tree
p1335
(dp1336
g7
I0
sg29
F-1.400711247085209
sg18
I01
sbsg22
(imyEvolve
Tree
p1337
(dp1338
g7
I0
sg29
F-4.079577924617807
sg18
I01
sbsg19
I00
sg20
g30
sbsg7
I2
sg19
I01
sg20
g105
sbsg7
I3
sg19
I01
sg20
g38
sbsg19
I00
sg20
g31
sbsg7
I5
sg19
I01
sg20
g38
sbaasS'alpha'
p1339
F0.006235283429227879
sS'fitness'
p1340
cnumpy.core.multiarray
scalar
p1341
(cnumpy
dtype
p1342
(S'f8'
p1343
I0
I1
tp1344
Rp1345
(I3
S'<'
p1346
NNNI-1
I-1
I0
tp1347
bS'\xa0\xbd\xc1w\x03\x08\xa1\xbf'
p1348
tp1349
Rp1350
sS'weightSharing'
p1351
(lp1352
I00
aI00
asS'fitnessValid'
p1353
I00
sS'resolution'
p1354
I84
sb.