(imyEvolve
Individual
p0
(dp1
S'funcs'
p2
(lp3
(lp4
(imyEvolve
Tree
p5
(dp6
S'below'
p7
(imyEvolve
Tree
p8
(dp9
g7
(imyEvolve
Tree
p10
(dp11
S'depth'
p12
I1
sS'left'
p13
(imyEvolve
Tree
p14
(dp15
g12
I0
sS'isConstant'
p16
I00
sbsS'right'
p17
(imyEvolve
Tree
p18
(dp19
g12
I0
sg16
I00
sbsS'single'
p20
I00
sS'op'
p21
coperator
sub
p22
sbsg12
I2
sg20
I01
sg21
cmyEvolve
square
p23
sbsg12
I3
sg20
I01
sg21
cmyEvolve
absSqrt
p24
sba(imyEvolve
Tree
p25
(dp26
g7
(imyEvolve
Tree
p27
(dp28
g12
I1
sg13
(imyEvolve
Tree
p29
(dp30
g12
I0
sS'constant'
p31
F-2.7264317468143737
sg16
I01
sbsg17
(imyEvolve
Tree
p32
(dp33
g12
I0
sg16
I00
sbsg20
I00
sg21
g22
sbsg12
I2
sg20
I01
sg21
cmath
cos
p34
sba(imyEvolve
Tree
p35
(dp36
g12
I3
sg13
(imyEvolve
Tree
p37
(dp38
g7
(imyEvolve
Tree
p39
(dp40
g12
I1
sg13
(imyEvolve
Tree
p41
(dp42
g12
I0
sg16
I00
sbsg17
(imyEvolve
Tree
p43
(dp44
g12
I0
sg16
I00
sbsg20
I00
sg21
coperator
mul
p45
sbsg12
I2
sg20
I01
sg21
g24
sbsg17
(imyEvolve
Tree
p46
(dp47
g7
(imyEvolve
Tree
p48
(dp49
g7
(imyEvolve
Tree
p50
(dp51
g12
I0
sg16
I00
sbsg12
I1
sg20
I01
sg21
g24
sbsg12
I2
sg20
I01
sg21
g34
sbsg20
I00
sg21
coperator
add
p52
sba(imyEvolve
Tree
p53
(dp54
g7
(imyEvolve
Tree
p55
(dp56
g12
I4
sg13
(imyEvolve
Tree
p57
(dp58
g12
I3
sg13
(imyEvolve
Tree
p59
(dp60
g12
I2
sg13
(imyEvolve
Tree
p61
(dp62
g12
I1
sg13
(imyEvolve
Tree
p63
(dp64
g12
I0
sg31
F1.3431357245232274
sg16
I01
sbsg17
(imyEvolve
Tree
p65
(dp66
g12
I0
sg31
F-3.338977867568016
sg16
I01
sbsg20
I00
sg21
g22
sbsg17
(imyEvolve
Tree
p67
(dp68
g12
I1
sg13
(imyEvolve
Tree
p69
(dp70
g12
I0
sg31
F-4.7006218812301
sg16
I01
sbsg17
(imyEvolve
Tree
p71
(dp72
g12
I0
sg31
F0.043975541800330475
sg16
I01
sbsg20
I00
sg21
g22
sbsg20
I00
sg21
g45
sbsg17
(imyEvolve
Tree
p73
(dp74
g12
I2
sg13
(imyEvolve
Tree
p75
(dp76
g12
I1
sg13
(imyEvolve
Tree
p77
(dp78
g12
I0
sg16
I00
sbsg17
(imyEvolve
Tree
p79
(dp80
g12
I0
sg16
I00
sbsg20
I00
sg21
g22
sbsg17
(imyEvolve
Tree
p81
(dp82
g7
(imyEvolve
Tree
p83
(dp84
g12
I0
sg31
F3.976320146517015
sg16
I01
sbsg12
I1
sg20
I01
sg21
g23
sbsg20
I00
sg21
g45
sbsg20
I00
sg21
g52
sbsg17
(imyEvolve
Tree
p85
(dp86
g12
I3
sg13
(imyEvolve
Tree
p87
(dp88
g7
(imyEvolve
Tree
p89
(dp90
g12
I1
sg13
(imyEvolve
Tree
p91
(dp92
g12
I0
sg16
I00
sbsg17
(imyEvolve
Tree
p93
(dp94
g12
I0
sg31
F-4.529360008059442
sg16
I01
sbsg20
I00
sg21
g22
sbsg12
I2
sg20
I01
sg21
g24
sbsg17
(imyEvolve
Tree
p95
(dp96
g12
I2
sg13
(imyEvolve
Tree
p97
(dp98
g7
(imyEvolve
Tree
p99
(dp100
g12
I0
sg31
F-1.0140037212489963
sg16
I01
sbsg12
I1
sg20
I01
sg21
g24
sbsg17
(imyEvolve
Tree
p101
(dp102
g12
I1
sg13
(imyEvolve
Tree
p103
(dp104
g12
I0
sg16
I00
sbsg17
(imyEvolve
Tree
p105
(dp106
g12
I0
sg16
I00
sbsg20
I00
sg21
g52
sbsg20
I00
sg21
g45
sbsg20
I00
sg21
g45
sbsg20
I00
sg21
g22
sbsg12
I5
sg20
I01
sg21
g24
sba(imyEvolve
Tree
p107
(dp108
g12
I4
sg13
(imyEvolve
Tree
p109
(dp110
g12
I3
sg13
(imyEvolve
Tree
p111
(dp112
g7
(imyEvolve
Tree
p113
(dp114
g7
(imyEvolve
Tree
p115
(dp116
g12
I0
sg31
F4.524085597395802
sg16
I01
sbsg12
I1
sg20
I01
sg21
g23
sbsg12
I2
sg20
I01
sg21
g23
sbsg17
(imyEvolve
Tree
p117
(dp118
g7
(imyEvolve
Tree
p119
(dp120
g12
I1
sg13
(imyEvolve
Tree
p121
(dp122
g12
I0
sg31
F3.5694227838656207
sg16
I01
sbsg17
(imyEvolve
Tree
p123
(dp124
g12
I0
sg31
F1.6095844948460822
sg16
I01
sbsg20
I00
sg21
g45
sbsg12
I2
sg20
I01
sg21
g34
sbsg20
I00
sg21
g45
sbsg17
(imyEvolve
Tree
p125
(dp126
g7
(imyEvolve
Tree
p127
(dp128
g7
(imyEvolve
Tree
p129
(dp130
g12
I1
sg13
(imyEvolve
Tree
p131
(dp132
g12
I0
sg16
I00
sbsg17
(imyEvolve
Tree
p133
(dp134
g12
I0
sg31
F-4.627942189707614
sg16
I01
sbsg20
I00
sg21
g52
sbsg12
I2
sg20
I01
sg21
g34
sbsg12
I3
sg20
I01
sg21
g24
sbsg20
I00
sg21
g45
sba(imyEvolve
Tree
p135
(dp136
g7
(imyEvolve
Tree
p137
(dp138
g12
I2
sg13
(imyEvolve
Tree
p139
(dp140
g12
I1
sg13
(imyEvolve
Tree
p141
(dp142
g12
I0
sg31
F-4.241516727290865
sg16
I01
sbsg17
(imyEvolve
Tree
p143
(dp144
g12
I0
sg31
F-3.7658483701043877
sg16
I01
sbsg20
I00
sg21
g52
sbsg17
(imyEvolve
Tree
p145
(dp146
g7
(imyEvolve
Tree
p147
(dp148
g12
I0
sg16
I00
sbsg12
I1
sg20
I01
sg21
g34
sbsg20
I00
sg21
g22
sbsg12
I3
sg20
I01
sg21
g34
sba(imyEvolve
Tree
p149
(dp150
g12
I3
sg13
(imyEvolve
Tree
p151
(dp152
g7
(imyEvolve
Tree
p153
(dp154
g7
(imyEvolve
Tree
p155
(dp156
g12
I0
sg16
I00
sbsg12
I1
sg20
I01
sg21
cmath
sin
p157
sbsg12
I2
sg20
I01
sg21
g157
sbsg17
(imyEvolve
Tree
p158
(dp159
g12
I2
sg13
(imyEvolve
Tree
p160
(dp161
g12
I1
sg13
(imyEvolve
Tree
p162
(dp163
g12
I0
sg16
I00
sbsg17
(imyEvolve
Tree
p164
(dp165
g12
I0
sg16
I00
sbsg20
I00
sg21
g52
sbsg17
(imyEvolve
Tree
p166
(dp167
g12
I1
sg13
(imyEvolve
Tree
p168
(dp169
g12
I0
sg31
F-2.0836784484347683
sg16
I01
sbsg17
(imyEvolve
Tree
p170
(dp171
g12
I0
sg16
I00
sbsg20
I00
sg21
g52
sbsg20
I00
sg21
g22
sbsg20
I00
sg21
g52
sba(imyEvolve
Tree
p172
(dp173
g7
(imyEvolve
Tree
p174
(dp175
g7
(imyEvolve
Tree
p176
(dp177
g12
I2
sg13
(imyEvolve
Tree
p178
(dp179
g7
(imyEvolve
Tree
p180
(dp181
g12
I0
sg16
I00
sbsg12
I1
sg20
I01
sg21
g23
sbsg17
(imyEvolve
Tree
p182
(dp183
g7
(imyEvolve
Tree
p184
(dp185
g12
I0
sg31
F2.703398835062371
sg16
I01
sbsg12
I1
sg20
I01
sg21
g157
sbsg20
I00
sg21
g52
sbsg12
I3
sg20
I01
sg21
g157
sbsg12
I4
sg20
I01
sg21
g157
sba(imyEvolve
Tree
p186
(dp187
g7
(imyEvolve
Tree
p188
(dp189
g12
I2
sg13
(imyEvolve
Tree
p190
(dp191
g7
(imyEvolve
Tree
p192
(dp193
g12
I0
sg31
F2.2832763430107246
sg16
I01
sbsg12
I1
sg20
I01
sg21
g157
sbsg17
(imyEvolve
Tree
p194
(dp195
g7
(imyEvolve
Tree
p196
(dp197
g12
I0
sg31
F-4.13053252183396
sg16
I01
sbsg12
I1
sg20
I01
sg21
g24
sbsg20
I00
sg21
g22
sbsg12
I3
sg20
I01
sg21
g34
sba(imyEvolve
Tree
p198
(dp199
g12
I5
sg13
(imyEvolve
Tree
p200
(dp201
g7
(imyEvolve
Tree
p202
(dp203
g12
I3
sg13
(imyEvolve
Tree
p204
(dp205
g12
I2
sg13
(imyEvolve
Tree
p206
(dp207
g7
(imyEvolve
Tree
p208
(dp209
g12
I0
sg16
I00
sbsg12
I1
sg20
I01
sg21
g24
sbsg17
(imyEvolve
Tree
p210
(dp211
g12
I1
sg13
(imyEvolve
Tree
p212
(dp213
g12
I0
sg16
I00
sbsg17
(imyEvolve
Tree
p214
(dp215
g12
I0
sg16
I00
sbsg20
I00
sg21
g45
sbsg20
I00
sg21
g52
sbsg17
(imyEvolve
Tree
p216
(dp217
g7
(imyEvolve
Tree
p218
(dp219
g12
I1
sg13
(imyEvolve
Tree
p220
(dp221
g12
I0
sg16
I00
sbsg17
(imyEvolve
Tree
p222
(dp223
g12
I0
sg16
I00
sbsg20
I00
sg21
g52
sbsg12
I2
sg20
I01
sg21
g24
sbsg20
I00
sg21
g45
sbsg12
I4
sg20
I01
sg21
g34
sbsg17
(imyEvolve
Tree
p224
(dp225
g7
(imyEvolve
Tree
p226
(dp227
g12
I3
sg13
(imyEvolve
Tree
p228
(dp229
g12
I2
sg13
(imyEvolve
Tree
p230
(dp231
g12
I1
sg13
(imyEvolve
Tree
p232
(dp233
g12
I0
sg16
I00
sbsg17
(imyEvolve
Tree
p234
(dp235
g12
I0
sg31
F-1.589736632745665
sg16
I01
sbsg20
I00
sg21
g45
sbsg17
(imyEvolve
Tree
p236
(dp237
g12
I1
sg13
(imyEvolve
Tree
p238
(dp239
g12
I0
sg16
I00
sbsg17
(imyEvolve
Tree
p240
(dp241
g12
I0
sg16
I00
sbsg20
I00
sg21
g52
sbsg20
I00
sg21
g52
sbsg17
(imyEvolve
Tree
p242
(dp243
g12
I2
sg13
(imyEvolve
Tree
p244
(dp245
g7
(imyEvolve
Tree
p246
(dp247
g12
I0
sg16
I00
sbsg12
I1
sg20
I01
sg21
g157
sbsg17
(imyEvolve
Tree
p248
(dp249
g7
(imyEvolve
Tree
p250
(dp251
g12
I0
sg16
I00
sbsg12
I1
sg20
I01
sg21
g23
sbsg20
I00
sg21
g22
sbsg20
I00
sg21
g22
sbsg12
I4
sg20
I01
sg21
g24
sbsg20
I00
sg21
g45
sba(imyEvolve
Tree
p252
(dp253
g12
I5
sg13
(imyEvolve
Tree
p254
(dp255
g7
(imyEvolve
Tree
p256
(dp257
g12
I3
sg13
(imyEvolve
Tree
p258
(dp259
g12
I2
sg13
(imyEvolve
Tree
p260
(dp261
g12
I1
sg13
(imyEvolve
Tree
p262
(dp263
g12
I0
sg16
I00
sbsg17
(imyEvolve
Tree
p264
(dp265
g12
I0
sg31
F-2.6394371391711333
sg16
I01
sbsg20
I00
sg21
g52
sbsg17
(imyEvolve
Tree
p266
(dp267
g7
(imyEvolve
Tree
p268
(dp269
g12
I0
sg31
F-3.908778366985671
sg16
I01
sbsg12
I1
sg20
I01
sg21
g34
sbsg20
I00
sg21
g22
sbsg17
(imyEvolve
Tree
p270
(dp271
g7
(imyEvolve
Tree
p272
(dp273
g7
(imyEvolve
Tree
p274
(dp275
g12
I0
sg31
F-1.9256893926517513
sg16
I01
sbsg12
I1
sg20
I01
sg21
g34
sbsg12
I2
sg20
I01
sg21
g157
sbsg20
I00
sg21
g52
sbsg12
I4
sg20
I01
sg21
g34
sbsg17
(imyEvolve
Tree
p276
(dp277
g12
I4
sg13
(imyEvolve
Tree
p278
(dp279
g12
I3
sg13
(imyEvolve
Tree
p280
(dp281
g7
(imyEvolve
Tree
p282
(dp283
g7
(imyEvolve
Tree
p284
(dp285
g12
I0
sg16
I00
sbsg12
I1
sg20
I01
sg21
g24
sbsg12
I2
sg20
I01
sg21
g24
sbsg17
(imyEvolve
Tree
p286
(dp287
g7
(imyEvolve
Tree
p288
(dp289
g7
(imyEvolve
Tree
p290
(dp291
g12
I0
sg16
I00
sbsg12
I1
sg20
I01
sg21
g157
sbsg12
I2
sg20
I01
sg21
g24
sbsg20
I00
sg21
g52
sbsg17
(imyEvolve
Tree
p292
(dp293
g12
I3
sg13
(imyEvolve
Tree
p294
(dp295
g7
(imyEvolve
Tree
p296
(dp297
g12
I1
sg13
(imyEvolve
Tree
p298
(dp299
g12
I0
sg31
F-4.263573187274013
sg16
I01
sbsg17
(imyEvolve
Tree
p300
(dp301
g12
I0
sg31
F2.943233103890055
sg16
I01
sbsg20
I00
sg21
g22
sbsg12
I2
sg20
I01
sg21
g34
sbsg17
(imyEvolve
Tree
p302
(dp303
g7
(imyEvolve
Tree
p304
(dp305
g7
(imyEvolve
Tree
p306
(dp307
g12
I0
sg31
F-0.9134947888073714
sg16
I01
sbsg12
I1
sg20
I01
sg21
g34
sbsg12
I2
sg20
I01
sg21
g157
sbsg20
I00
sg21
g22
sbsg20
I00
sg21
g45
sbsg20
I00
sg21
g22
sba(imyEvolve
Tree
p308
(dp309
g7
(imyEvolve
Tree
p310
(dp311
g12
I3
sg13
(imyEvolve
Tree
p312
(dp313
g12
I2
sg13
(imyEvolve
Tree
p314
(dp315
g7
(imyEvolve
Tree
p316
(dp317
g12
I0
sg16
I00
sbsg12
I1
sg20
I01
sg21
g157
sbsg17
(imyEvolve
Tree
p318
(dp319
g12
I1
sg13
(imyEvolve
Tree
p320
(dp321
g12
I0
sg31
F-1.6455615673025736
sg16
I01
sbsg17
(imyEvolve
Tree
p322
(dp323
g12
I0
sg16
I00
sbsg20
I00
sg21
g45
sbsg20
I00
sg21
g52
sbsg17
(imyEvolve
Tree
p324
(dp325
g12
I2
sg13
(imyEvolve
Tree
p326
(dp327
g7
(imyEvolve
Tree
p328
(dp329
g12
I0
sg16
I00
sbsg12
I1
sg20
I01
sg21
g34
sbsg17
(imyEvolve
Tree
p330
(dp331
g12
I1
sg13
(imyEvolve
Tree
p332
(dp333
g12
I0
sg31
F-1.6900467118424012
sg16
I01
sbsg17
(imyEvolve
Tree
p334
(dp335
g12
I0
sg16
I00
sbsg20
I00
sg21
g52
sbsg20
I00
sg21
g22
sbsg20
I00
sg21
g52
sbsg12
I4
sg20
I01
sg21
g24
sba(imyEvolve
Tree
p336
(dp337
g7
(imyEvolve
Tree
p338
(dp339
g12
I4
sg13
(imyEvolve
Tree
p340
(dp341
g12
I3
sg13
(imyEvolve
Tree
p342
(dp343
g12
I2
sg13
(imyEvolve
Tree
p344
(dp345
g12
I1
sg13
(imyEvolve
Tree
p346
(dp347
g12
I0
sg31
F0.4145280128366924
sg16
I01
sbsg17
(imyEvolve
Tree
p348
(dp349
g12
I0
sg31
F-2.6975525007950365
sg16
I01
sbsg20
I00
sg21
g52
sbsg17
(imyEvolve
Tree
p350
(dp351
g7
(imyEvolve
Tree
p352
(dp353
g12
I0
sg31
F-1.5021625498881686
sg16
I01
sbsg12
I1
sg20
I01
sg21
g23
sbsg20
I00
sg21
g22
sbsg17
(imyEvolve
Tree
p354
(dp355
g7
(imyEvolve
Tree
p356
(dp357
g12
I1
sg13
(imyEvolve
Tree
p358
(dp359
g12
I0
sg16
I00
sbsg17
(imyEvolve
Tree
p360
(dp361
g12
I0
sg16
I00
sbsg20
I00
sg21
g45
sbsg12
I2
sg20
I01
sg21
g34
sbsg20
I00
sg21
g45
sbsg17
(imyEvolve
Tree
p362
(dp363
g7
(imyEvolve
Tree
p364
(dp365
g12
I2
sg13
(imyEvolve
Tree
p366
(dp367
g12
I1
sg13
(imyEvolve
Tree
p368
(dp369
g12
I0
sg16
I00
sbsg17
(imyEvolve
Tree
p370
(dp371
g12
I0
sg16
I00
sbsg20
I00
sg21
g22
sbsg17
(imyEvolve
Tree
p372
(dp373
g12
I1
sg13
(imyEvolve
Tree
p374
(dp375
g12
I0
sg31
F-0.9050080772159328
sg16
I01
sbsg17
(imyEvolve
Tree
p376
(dp377
g12
I0
sg31
F2.8769643175313195
sg16
I01
sbsg20
I00
sg21
g22
sbsg20
I00
sg21
g45
sbsg12
I3
sg20
I01
sg21
g23
sbsg20
I00
sg21
g52
sbsg12
I5
sg20
I01
sg21
g157
sba(imyEvolve
Tree
p378
(dp379
g7
(imyEvolve
Tree
p380
(dp381
g7
(imyEvolve
Tree
p382
(dp383
g12
I2
sg13
(imyEvolve
Tree
p384
(dp385
g7
(imyEvolve
Tree
p386
(dp387
g12
I0
sg16
I00
sbsg12
I1
sg20
I01
sg21
g157
sbsg17
(imyEvolve
Tree
p388
(dp389
g7
(imyEvolve
Tree
p390
(dp391
g12
I0
sg31
F0.6372744527109102
sg16
I01
sbsg12
I1
sg20
I01
sg21
g34
sbsg20
I00
sg21
g22
sbsg12
I3
sg20
I01
sg21
g157
sbsg12
I4
sg20
I01
sg21
g157
sbaasS'weightSharing'
p392
(lp393
I00
aI00
aI00
aI00
aI00
aI00
aI00
aI00
aI00
aI00
aI00
aI00
aI00
aI00
aI00
aI00
asS'fitnessValid'
p394
I00
sS'fitness'
p395
cnumpy.core.multiarray
scalar
p396
(cnumpy
dtype
p397
(S'f8'
p398
I0
I1
tp399
Rp400
(I3
S'<'
p401
NNNI-1
I-1
I0
tp402
bS'\x00E\xb6\xf3A\xb4l\xbf'
p403
tp404
Rp405
sS'alpha'
p406
F0.007583430113099272
sS'resolution'
p407
I44
sb.