(imyEvolve
Individual
p0
(dp1
S'funcs'
p2
(lp3
(lp4
(imyEvolve
Tree
p5
(dp6
S'depth'
p7
I3
sS'left'
p8
(imyEvolve
Tree
p9
(dp10
g7
I2
sg8
(imyEvolve
Tree
p11
(dp12
g7
I1
sg8
(imyEvolve
Tree
p13
(dp14
g7
I0
sS'constant'
p15
F3.823497271955457
sS'isConstant'
p16
I01
sbsS'right'
p17
(imyEvolve
Tree
p18
(dp19
g7
I0
sg15
F-2.0485692813590486
sg16
I01
sbsS'single'
p20
I00
sS'op'
p21
coperator
add
p22
sbsg17
(imyEvolve
Tree
p23
(dp24
g7
I1
sg8
(imyEvolve
Tree
p25
(dp26
g7
I0
sg16
I00
sbsg17
(imyEvolve
Tree
p27
(dp28
g7
I0
sg16
I00
sbsg20
I00
sg21
g22
sbsg20
I00
sg21
coperator
mul
p29
sbsg17
(imyEvolve
Tree
p30
(dp31
g7
I2
sg8
(imyEvolve
Tree
p32
(dp33
g7
I1
sg8
(imyEvolve
Tree
p34
(dp35
g7
I0
sg15
F-1.1567209133948686
sg16
I01
sbsg17
(imyEvolve
Tree
p36
(dp37
g7
I0
sg15
F2.564092376840743
sg16
I01
sbsg20
I00
sg21
coperator
sub
p38
sbsg17
(imyEvolve
Tree
p39
(dp40
g7
I1
sg8
(imyEvolve
Tree
p41
(dp42
g7
I0
sg15
F4.94872476419822
sg16
I01
sbsg17
(imyEvolve
Tree
p43
(dp44
g7
I0
sg16
I00
sbsg20
I00
sg21
g29
sbsg20
I00
sg21
g38
sbsg20
I00
sg21
g38
sba(imyEvolve
Tree
p45
(dp46
g7
I4
sg8
(imyEvolve
Tree
p47
(dp48
g7
I3
sg8
(imyEvolve
Tree
p49
(dp50
S'below'
p51
(imyEvolve
Tree
p52
(dp53
g51
(imyEvolve
Tree
p54
(dp55
g7
I0
sg15
F-2.4499012039636794
sg16
I01
sbsg7
I1
sg20
I01
sg21
cmath
sin
p56
sbsg7
I2
sg20
I01
sg21
cmyEvolve
absSqrt
p57
sbsg17
(imyEvolve
Tree
p58
(dp59
g51
(imyEvolve
Tree
p60
(dp61
g7
I1
sg8
(imyEvolve
Tree
p62
(dp63
g7
I0
sg16
I00
sbsg17
(imyEvolve
Tree
p64
(dp65
g7
I0
sg15
F-1.4218740206858405
sg16
I01
sbsg20
I00
sg21
g22
sbsg7
I2
sg20
I01
sg21
cmyEvolve
square
p66
sbsg20
I00
sg21
g29
sbsg17
(imyEvolve
Tree
p67
(dp68
g51
(imyEvolve
Tree
p69
(dp70
g7
I2
sg8
(imyEvolve
Tree
p71
(dp72
g7
I1
sg8
(imyEvolve
Tree
p73
(dp74
g7
I0
sg15
F-0.079754088723063
sg16
I01
sbsg17
(imyEvolve
Tree
p75
(dp76
g7
I0
sg15
F3.973359067377908
sg16
I01
sbsg20
I00
sg21
g38
sbsg17
(imyEvolve
Tree
p77
(dp78
g7
I1
sg8
(imyEvolve
Tree
p79
(dp80
g7
I0
sg15
F2.446139586168301
sg16
I01
sbsg17
(imyEvolve
Tree
p81
(dp82
g7
I0
sg15
F-4.33330582415387
sg16
I01
sbsg20
I00
sg21
g38
sbsg20
I00
sg21
g29
sbsg7
I3
sg20
I01
sg21
g66
sbsg20
I00
sg21
g29
sba(imyEvolve
Tree
p83
(dp84
g7
I5
sg8
(imyEvolve
Tree
p85
(dp86
g7
I4
sg8
(imyEvolve
Tree
p87
(dp88
g51
(imyEvolve
Tree
p89
(dp90
g51
(imyEvolve
Tree
p91
(dp92
g7
I1
sg8
(imyEvolve
Tree
p93
(dp94
g7
I0
sg16
I00
sbsg17
(imyEvolve
Tree
p95
(dp96
g7
I0
sg15
F-3.2528509823575416
sg16
I01
sbsg20
I00
sg21
g22
sbsg7
I2
sg20
I01
sg21
cmath
cos
p97
sbsg7
I3
sg20
I01
sg21
g57
sbsg17
(imyEvolve
Tree
p98
(dp99
g7
I3
sg8
(imyEvolve
Tree
p100
(dp101
g51
(imyEvolve
Tree
p102
(dp103
g7
I1
sg8
(imyEvolve
Tree
p104
(dp105
g7
I0
sg16
I00
sbsg17
(imyEvolve
Tree
p106
(dp107
g7
I0
sg16
I00
sbsg20
I00
sg21
g22
sbsg7
I2
sg20
I01
sg21
g97
sbsg17
(imyEvolve
Tree
p108
(dp109
g51
(imyEvolve
Tree
p110
(dp111
g51
(imyEvolve
Tree
p112
(dp113
g7
I0
sg15
F-0.47510169444914396
sg16
I01
sbsg7
I1
sg20
I01
sg21
g97
sbsg7
I2
sg20
I01
sg21
g57
sbsg20
I00
sg21
g29
sbsg20
I00
sg21
g22
sbsg17
(imyEvolve
Tree
p114
(dp115
g51
(imyEvolve
Tree
p116
(dp117
g7
I3
sg8
(imyEvolve
Tree
p118
(dp119
g7
I2
sg8
(imyEvolve
Tree
p120
(dp121
g7
I1
sg8
(imyEvolve
Tree
p122
(dp123
g7
I0
sg16
I00
sbsg17
(imyEvolve
Tree
p124
(dp125
g7
I0
sg15
F1.715300474456476
sg16
I01
sbsg20
I00
sg21
g38
sbsg17
(imyEvolve
Tree
p126
(dp127
g7
I1
sg8
(imyEvolve
Tree
p128
(dp129
g7
I0
sg16
I00
sbsg17
(imyEvolve
Tree
p130
(dp131
g7
I0
sg16
I00
sbsg20
I00
sg21
g38
sbsg20
I00
sg21
g38
sbsg17
(imyEvolve
Tree
p132
(dp133
g51
(imyEvolve
Tree
p134
(dp135
g7
I1
sg8
(imyEvolve
Tree
p136
(dp137
g7
I0
sg15
F-2.616062001568642
sg16
I01
sbsg17
(imyEvolve
Tree
p138
(dp139
g7
I0
sg16
I00
sbsg20
I00
sg21
g22
sbsg7
I2
sg20
I01
sg21
g66
sbsg20
I00
sg21
g38
sbsg7
I4
sg20
I01
sg21
g56
sbsg20
I00
sg21
g38
sba(imyEvolve
Tree
p140
(dp141
g7
I4
sg8
(imyEvolve
Tree
p142
(dp143
g51
(imyEvolve
Tree
p144
(dp145
g51
(imyEvolve
Tree
p146
(dp147
g7
I1
sg8
(imyEvolve
Tree
p148
(dp149
g7
I0
sg16
I00
sbsg17
(imyEvolve
Tree
p150
(dp151
g7
I0
sg15
F-1.5422390057671
sg16
I01
sbsg20
I00
sg21
g29
sbsg7
I2
sg20
I01
sg21
g66
sbsg7
I3
sg20
I01
sg21
g97
sbsg17
(imyEvolve
Tree
p152
(dp153
g7
I3
sg8
(imyEvolve
Tree
p154
(dp155
g51
(imyEvolve
Tree
p156
(dp157
g7
I1
sg8
(imyEvolve
Tree
p158
(dp159
g7
I0
sg16
I00
sbsg17
(imyEvolve
Tree
p160
(dp161
g7
I0
sg16
I00
sbsg20
I00
sg21
g38
sbsg7
I2
sg20
I01
sg21
g57
sbsg17
(imyEvolve
Tree
p162
(dp163
g7
I2
sg8
(imyEvolve
Tree
p164
(dp165
g7
I1
sg8
(imyEvolve
Tree
p166
(dp167
g7
I0
sg15
F3.0029535210561065
sg16
I01
sbsg17
(imyEvolve
Tree
p168
(dp169
g7
I0
sg16
I00
sbsg20
I00
sg21
g22
sbsg17
(imyEvolve
Tree
p170
(dp171
g51
(imyEvolve
Tree
p172
(dp173
g7
I0
sg15
F-0.08227213218629181
sg16
I01
sbsg7
I1
sg20
I01
sg21
g56
sbsg20
I00
sg21
g22
sbsg20
I00
sg21
g29
sbsg20
I00
sg21
g38
sba(imyEvolve
Tree
p174
(dp175
g7
I3
sg8
(imyEvolve
Tree
p176
(dp177
g7
I2
sg8
(imyEvolve
Tree
p178
(dp179
g51
(imyEvolve
Tree
p180
(dp181
g7
I0
sg16
I00
sbsg7
I1
sg20
I01
sg21
g66
sbsg17
(imyEvolve
Tree
p182
(dp183
g51
(imyEvolve
Tree
p184
(dp185
g7
I0
sg15
F-3.5295925255801865
sg16
I01
sbsg7
I1
sg20
I01
sg21
g57
sbsg20
I00
sg21
g22
sbsg17
(imyEvolve
Tree
p186
(dp187
g51
(imyEvolve
Tree
p188
(dp189
g7
I1
sg8
(imyEvolve
Tree
p190
(dp191
g7
I0
sg16
I00
sbsg17
(imyEvolve
Tree
p192
(dp193
g7
I0
sg16
I00
sbsg20
I00
sg21
g38
sbsg7
I2
sg20
I01
sg21
g56
sbsg20
I00
sg21
g29
sba(imyEvolve
Tree
p194
(dp195
g7
I5
sg8
(imyEvolve
Tree
p196
(dp197
g51
(imyEvolve
Tree
p198
(dp199
g7
I3
sg8
(imyEvolve
Tree
p200
(dp201
g51
(imyEvolve
Tree
p202
(dp203
g51
(imyEvolve
Tree
p204
(dp205
g7
I0
sg16
I00
sbsg7
I1
sg20
I01
sg21
g97
sbsg7
I2
sg20
I01
sg21
g97
sbsg17
(imyEvolve
Tree
p206
(dp207
g7
I2
sg8
(imyEvolve
Tree
p208
(dp209
g51
(imyEvolve
Tree
p210
(dp211
g7
I0
sg16
I00
sbsg7
I1
sg20
I01
sg21
g97
sbsg17
(imyEvolve
Tree
p212
(dp213
g7
I1
sg8
(imyEvolve
Tree
p214
(dp215
g7
I0
sg15
F-1.2783648442561812
sg16
I01
sbsg17
(imyEvolve
Tree
p216
(dp217
g7
I0
sg16
I00
sbsg20
I00
sg21
g29
sbsg20
I00
sg21
g29
sbsg20
I00
sg21
g38
sbsg7
I4
sg20
I01
sg21
g57
sbsg17
(imyEvolve
Tree
p218
(dp219
g7
I4
sg8
(imyEvolve
Tree
p220
(dp221
g51
(imyEvolve
Tree
p222
(dp223
g7
I2
sg8
(imyEvolve
Tree
p224
(dp225
g7
I1
sg8
(imyEvolve
Tree
p226
(dp227
g7
I0
sg15
F-1.7587425498193499
sg16
I01
sbsg17
(imyEvolve
Tree
p228
(dp229
g7
I0
sg15
F1.6722557207487432
sg16
I01
sbsg20
I00
sg21
g38
sbsg17
(imyEvolve
Tree
p230
(dp231
g7
I1
sg8
(imyEvolve
Tree
p232
(dp233
g7
I0
sg16
I00
sbsg17
(imyEvolve
Tree
p234
(dp235
g7
I0
sg15
F-0.9136798305342806
sg16
I01
sbsg20
I00
sg21
g22
sbsg20
I00
sg21
g29
sbsg7
I3
sg20
I01
sg21
g56
sbsg17
(imyEvolve
Tree
p236
(dp237
g7
I3
sg8
(imyEvolve
Tree
p238
(dp239
g7
I2
sg8
(imyEvolve
Tree
p240
(dp241
g51
(imyEvolve
Tree
p242
(dp243
g7
I0
sg16
I00
sbsg7
I1
sg20
I01
sg21
g97
sbsg17
(imyEvolve
Tree
p244
(dp245
g51
(imyEvolve
Tree
p246
(dp247
g7
I0
sg16
I00
sbsg7
I1
sg20
I01
sg21
g57
sbsg20
I00
sg21
g38
sbsg17
(imyEvolve
Tree
p248
(dp249
g7
I2
sg8
(imyEvolve
Tree
p250
(dp251
g7
I1
sg8
(imyEvolve
Tree
p252
(dp253
g7
I0
sg16
I00
sbsg17
(imyEvolve
Tree
p254
(dp255
g7
I0
sg15
F-3.3922700982499654
sg16
I01
sbsg20
I00
sg21
g29
sbsg17
(imyEvolve
Tree
p256
(dp257
g51
(imyEvolve
Tree
p258
(dp259
g7
I0
sg15
F-0.04982548753873939
sg16
I01
sbsg7
I1
sg20
I01
sg21
g57
sbsg20
I00
sg21
g22
sbsg20
I00
sg21
g22
sbsg20
I00
sg21
g22
sbsg20
I00
sg21
g38
sba(imyEvolve
Tree
p260
(dp261
g7
I2
sg8
(imyEvolve
Tree
p262
(dp263
g7
I1
sg8
(imyEvolve
Tree
p264
(dp265
g7
I0
sg16
I00
sbsg17
(imyEvolve
Tree
p266
(dp267
g7
I0
sg15
F1.9764468556968282
sg16
I01
sbsg20
I00
sg21
g38
sbsg17
(imyEvolve
Tree
p268
(dp269
g51
(imyEvolve
Tree
p270
(dp271
g7
I0
sg16
I00
sbsg7
I1
sg20
I01
sg21
g57
sbsg20
I00
sg21
g29
sba(imyEvolve
Tree
p272
(dp273
g51
(imyEvolve
Tree
p274
(dp275
g7
I3
sg8
(imyEvolve
Tree
p276
(dp277
g51
(imyEvolve
Tree
p278
(dp279
g7
I1
sg8
(imyEvolve
Tree
p280
(dp281
g7
I0
sg15
F-3.2800250765988705
sg16
I01
sbsg17
(imyEvolve
Tree
p282
(dp283
g7
I0
sg15
F0.261176405189957
sg16
I01
sbsg20
I00
sg21
g29
sbsg7
I2
sg20
I01
sg21
g56
sbsg17
(imyEvolve
Tree
p284
(dp285
g7
I2
sg8
(imyEvolve
Tree
p286
(dp287
g7
I1
sg8
(imyEvolve
Tree
p288
(dp289
g7
I0
sg15
F2.140837993244694
sg16
I01
sbsg17
(imyEvolve
Tree
p290
(dp291
g7
I0
sg16
I00
sbsg20
I00
sg21
g38
sbsg17
(imyEvolve
Tree
p292
(dp293
g7
I1
sg8
(imyEvolve
Tree
p294
(dp295
g7
I0
sg15
F-4.458364511685092
sg16
I01
sbsg17
(imyEvolve
Tree
p296
(dp297
g7
I0
sg16
I00
sbsg20
I00
sg21
g38
sbsg20
I00
sg21
g38
sbsg20
I00
sg21
g22
sbsg7
I4
sg20
I01
sg21
g57
sba(imyEvolve
Tree
p298
(dp299
g7
I5
sg8
(imyEvolve
Tree
p300
(dp301
g51
(imyEvolve
Tree
p302
(dp303
g7
I3
sg8
(imyEvolve
Tree
p304
(dp305
g51
(imyEvolve
Tree
p306
(dp307
g7
I1
sg8
(imyEvolve
Tree
p308
(dp309
g7
I0
sg16
I00
sbsg17
(imyEvolve
Tree
p310
(dp311
g7
I0
sg16
I00
sbsg20
I00
sg21
g38
sbsg7
I2
sg20
I01
sg21
g57
sbsg17
(imyEvolve
Tree
p312
(dp313
g7
I2
sg8
(imyEvolve
Tree
p314
(dp315
g51
(imyEvolve
Tree
p316
(dp317
g7
I0
sg16
I00
sbsg7
I1
sg20
I01
sg21
g66
sbsg17
(imyEvolve
Tree
p318
(dp319
g51
(imyEvolve
Tree
p320
(dp321
g7
I0
sg16
I00
sbsg7
I1
sg20
I01
sg21
g56
sbsg20
I00
sg21
g38
sbsg20
I00
sg21
g38
sbsg7
I4
sg20
I01
sg21
g57
sbsg17
(imyEvolve
Tree
p322
(dp323
g51
(imyEvolve
Tree
p324
(dp325
g51
(imyEvolve
Tree
p326
(dp327
g51
(imyEvolve
Tree
p328
(dp329
g7
I1
sg8
(imyEvolve
Tree
p330
(dp331
g7
I0
sg16
I00
sbsg17
(imyEvolve
Tree
p332
(dp333
g7
I0
sg16
I00
sbsg20
I00
sg21
g38
sbsg7
I2
sg20
I01
sg21
g97
sbsg7
I3
sg20
I01
sg21
g56
sbsg7
I4
sg20
I01
sg21
g97
sbsg20
I00
sg21
g38
sba(imyEvolve
Tree
p334
(dp335
g51
(imyEvolve
Tree
p336
(dp337
g7
I4
sg8
(imyEvolve
Tree
p338
(dp339
g7
I3
sg8
(imyEvolve
Tree
p340
(dp341
g7
I2
sg8
(imyEvolve
Tree
p342
(dp343
g51
(imyEvolve
Tree
p344
(dp345
g7
I0
sg16
I00
sbsg7
I1
sg20
I01
sg21
g57
sbsg17
(imyEvolve
Tree
p346
(dp347
g51
(imyEvolve
Tree
p348
(dp349
g7
I0
sg16
I00
sbsg7
I1
sg20
I01
sg21
g56
sbsg20
I00
sg21
g22
sbsg17
(imyEvolve
Tree
p350
(dp351
g7
I2
sg8
(imyEvolve
Tree
p352
(dp353
g7
I1
sg8
(imyEvolve
Tree
p354
(dp355
g7
I0
sg15
F0.03439662538982802
sg16
I01
sbsg17
(imyEvolve
Tree
p356
(dp357
g7
I0
sg16
I00
sbsg20
I00
sg21
g29
sbsg17
(imyEvolve
Tree
p358
(dp359
g7
I1
sg8
(imyEvolve
Tree
p360
(dp361
g7
I0
sg16
I00
sbsg17
(imyEvolve
Tree
p362
(dp363
g7
I0
sg15
F0.2739996201014163
sg16
I01
sbsg20
I00
sg21
g29
sbsg20
I00
sg21
g22
sbsg20
I00
sg21
g38
sbsg17
(imyEvolve
Tree
p364
(dp365
g7
I3
sg8
(imyEvolve
Tree
p366
(dp367
g51
(imyEvolve
Tree
p368
(dp369
g51
(imyEvolve
Tree
p370
(dp371
g7
I0
sg16
I00
sbsg7
I1
sg20
I01
sg21
g66
sbsg7
I2
sg20
I01
sg21
g66
sbsg17
(imyEvolve
Tree
p372
(dp373
g7
I2
sg8
(imyEvolve
Tree
p374
(dp375
g7
I1
sg8
(imyEvolve
Tree
p376
(dp377
g7
I0
sg15
F-1.9842219622272306
sg16
I01
sbsg17
(imyEvolve
Tree
p378
(dp379
g7
I0
sg16
I00
sbsg20
I00
sg21
g29
sbsg17
(imyEvolve
Tree
p380
(dp381
g51
(imyEvolve
Tree
p382
(dp383
g7
I0
sg15
F1.5458252443096319
sg16
I01
sbsg7
I1
sg20
I01
sg21
g57
sbsg20
I00
sg21
g38
sbsg20
I00
sg21
g38
sbsg20
I00
sg21
g29
sbsg7
I5
sg20
I01
sg21
g57
sba(imyEvolve
Tree
p384
(dp385
g51
(imyEvolve
Tree
p386
(dp387
g51
(imyEvolve
Tree
p388
(dp389
g7
I0
sg16
I00
sbsg7
I1
sg20
I01
sg21
g56
sbsg7
I2
sg20
I01
sg21
g97
sba(imyEvolve
Tree
p390
(dp391
g7
I4
sg8
(imyEvolve
Tree
p392
(dp393
g7
I3
sg8
(imyEvolve
Tree
p394
(dp395
g51
(imyEvolve
Tree
p396
(dp397
g7
I1
sg8
(imyEvolve
Tree
p398
(dp399
g7
I0
sg16
I00
sbsg17
(imyEvolve
Tree
p400
(dp401
g7
I0
sg15
F-3.7506026823077843
sg16
I01
sbsg20
I00
sg21
g22
sbsg7
I2
sg20
I01
sg21
g66
sbsg17
(imyEvolve
Tree
p402
(dp403
g7
I2
sg8
(imyEvolve
Tree
p404
(dp405
g7
I1
sg8
(imyEvolve
Tree
p406
(dp407
g7
I0
sg16
I00
sbsg17
(imyEvolve
Tree
p408
(dp409
g7
I0
sg15
F4.166752471624093
sg16
I01
sbsg20
I00
sg21
g22
sbsg17
(imyEvolve
Tree
p410
(dp411
g7
I1
sg8
(imyEvolve
Tree
p412
(dp413
g7
I0
sg16
I00
sbsg17
(imyEvolve
Tree
p414
(dp415
g7
I0
sg16
I00
sbsg20
I00
sg21
g22
sbsg20
I00
sg21
g29
sbsg20
I00
sg21
g29
sbsg17
(imyEvolve
Tree
p416
(dp417
g7
I3
sg8
(imyEvolve
Tree
p418
(dp419
g7
I2
sg8
(imyEvolve
Tree
p420
(dp421
g7
I1
sg8
(imyEvolve
Tree
p422
(dp423
g7
I0
sg15
F1.615997961672246
sg16
I01
sbsg17
(imyEvolve
Tree
p424
(dp425
g7
I0
sg16
I00
sbsg20
I00
sg21
g29
sbsg17
(imyEvolve
Tree
p426
(dp427
g51
(imyEvolve
Tree
p428
(dp429
g7
I0
sg16
I00
sbsg7
I1
sg20
I01
sg21
g56
sbsg20
I00
sg21
g38
sbsg17
(imyEvolve
Tree
p430
(dp431
g7
I2
sg8
(imyEvolve
Tree
p432
(dp433
g51
(imyEvolve
Tree
p434
(dp435
g7
I0
sg16
I00
sbsg7
I1
sg20
I01
sg21
g97
sbsg17
(imyEvolve
Tree
p436
(dp437
g7
I1
sg8
(imyEvolve
Tree
p438
(dp439
g7
I0
sg15
F-4.1788485048081805
sg16
I01
sbsg17
(imyEvolve
Tree
p440
(dp441
g7
I0
sg15
F-0.8263694663429213
sg16
I01
sbsg20
I00
sg21
g22
sbsg20
I00
sg21
g38
sbsg20
I00
sg21
g38
sbsg20
I00
sg21
g22
sba(imyEvolve
Tree
p442
(dp443
g51
(imyEvolve
Tree
p444
(dp445
g51
(imyEvolve
Tree
p446
(dp447
g7
I1
sg8
(imyEvolve
Tree
p448
(dp449
g7
I0
sg15
F-4.681146167499893
sg16
I01
sbsg17
(imyEvolve
Tree
p450
(dp451
g7
I0
sg16
I00
sbsg20
I00
sg21
g38
sbsg7
I2
sg20
I01
sg21
g66
sbsg7
I3
sg20
I01
sg21
g66
sba(imyEvolve
Tree
p452
(dp453
g7
I4
sg8
(imyEvolve
Tree
p454
(dp455
g7
I3
sg8
(imyEvolve
Tree
p456
(dp457
g51
(imyEvolve
Tree
p458
(dp459
g51
(imyEvolve
Tree
p460
(dp461
g7
I0
sg15
F-0.8422990395225449
sg16
I01
sbsg7
I1
sg20
I01
sg21
g56
sbsg7
I2
sg20
I01
sg21
g57
sbsg17
(imyEvolve
Tree
p462
(dp463
g51
(imyEvolve
Tree
p464
(dp465
g51
(imyEvolve
Tree
p466
(dp467
g7
I0
sg16
I00
sbsg7
I1
sg20
I01
sg21
g66
sbsg7
I2
sg20
I01
sg21
g56
sbsg20
I00
sg21
g22
sbsg17
(imyEvolve
Tree
p468
(dp469
g51
(imyEvolve
Tree
p470
(dp471
g7
I2
sg8
(imyEvolve
Tree
p472
(dp473
g7
I1
sg8
(imyEvolve
Tree
p474
(dp475
g7
I0
sg15
F-0.5770640728352392
sg16
I01
sbsg17
(imyEvolve
Tree
p476
(dp477
g7
I0
sg15
F2.95096675296831
sg16
I01
sbsg20
I00
sg21
g22
sbsg17
(imyEvolve
Tree
p478
(dp479
g51
(imyEvolve
Tree
p480
(dp481
g7
I0
sg15
F-0.028399645077758606
sg16
I01
sbsg7
I1
sg20
I01
sg21
g57
sbsg20
I00
sg21
g22
sbsg7
I3
sg20
I01
sg21
g56
sbsg20
I00
sg21
g38
sba(imyEvolve
Tree
p482
(dp483
g7
I2
sg8
(imyEvolve
Tree
p484
(dp485
g7
I1
sg8
(imyEvolve
Tree
p486
(dp487
g7
I0
sg16
I00
sbsg17
(imyEvolve
Tree
p488
(dp489
g7
I0
sg15
F3.1600321385022294
sg16
I01
sbsg20
I00
sg21
g22
sbsg17
(imyEvolve
Tree
p490
(dp491
g51
(imyEvolve
Tree
p492
(dp493
g7
I0
sg15
F4.54770253349624
sg16
I01
sbsg7
I1
sg20
I01
sg21
g66
sbsg20
I00
sg21
g22
sba(imyEvolve
Tree
p494
(dp495
g7
I5
sg8
(imyEvolve
Tree
p496
(dp497
g51
(imyEvolve
Tree
p498
(dp499
g51
(imyEvolve
Tree
p500
(dp501
g51
(imyEvolve
Tree
p502
(dp503
g7
I1
sg8
(imyEvolve
Tree
p504
(dp505
g7
I0
sg15
F1.7852591385060617
sg16
I01
sbsg17
(imyEvolve
Tree
p506
(dp507
g7
I0
sg16
I00
sbsg20
I00
sg21
g38
sbsg7
I2
sg20
I01
sg21
g66
sbsg7
I3
sg20
I01
sg21
g57
sbsg7
I4
sg20
I01
sg21
g57
sbsg17
(imyEvolve
Tree
p508
(dp509
g51
(imyEvolve
Tree
p510
(dp511
g51
(imyEvolve
Tree
p512
(dp513
g7
I2
sg8
(imyEvolve
Tree
p514
(dp515
g7
I1
sg8
(imyEvolve
Tree
p516
(dp517
g7
I0
sg16
I00
sbsg17
(imyEvolve
Tree
p518
(dp519
g7
I0
sg16
I00
sbsg20
I00
sg21
g29
sbsg17
(imyEvolve
Tree
p520
(dp521
g7
I1
sg8
(imyEvolve
Tree
p522
(dp523
g7
I0
sg15
F0.21268763271914626
sg16
I01
sbsg17
(imyEvolve
Tree
p524
(dp525
g7
I0
sg15
F3.284720816359341
sg16
I01
sbsg20
I00
sg21
g29
sbsg20
I00
sg21
g22
sbsg7
I3
sg20
I01
sg21
g57
sbsg7
I4
sg20
I01
sg21
g57
sbsg20
I00
sg21
g22
sba(imyEvolve
Tree
p526
(dp527
g51
(imyEvolve
Tree
p528
(dp529
g7
I2
sg8
(imyEvolve
Tree
p530
(dp531
g7
I1
sg8
(imyEvolve
Tree
p532
(dp533
g7
I0
sg16
I00
sbsg17
(imyEvolve
Tree
p534
(dp535
g7
I0
sg16
I00
sbsg20
I00
sg21
g22
sbsg17
(imyEvolve
Tree
p536
(dp537
g51
(imyEvolve
Tree
p538
(dp539
g7
I0
sg15
F-1.776420131755291
sg16
I01
sbsg7
I1
sg20
I01
sg21
g56
sbsg20
I00
sg21
g29
sbsg7
I3
sg20
I01
sg21
g57
sbaa(lp540
(imyEvolve
Tree
p541
(dp542
g7
I2
sg8
(imyEvolve
Tree
p543
(dp544
g51
(imyEvolve
Tree
p545
(dp546
g7
I0
sg15
F0.4750314868331307
sg16
I01
sbsg7
I1
sg20
I01
sg21
g97
sbsg17
(imyEvolve
Tree
p547
(dp548
g7
I1
sg8
(imyEvolve
Tree
p549
(dp550
g7
I0
sg16
I00
sbsg17
(imyEvolve
Tree
p551
(dp552
g7
I0
sg15
F2.585789817671542
sg16
I01
sbsg20
I00
sg21
g22
sbsg20
I00
sg21
g29
sba(imyEvolve
Tree
p553
(dp554
g51
(imyEvolve
Tree
p555
(dp556
g7
I2
sg8
(imyEvolve
Tree
p557
(dp558
g51
(imyEvolve
Tree
p559
(dp560
g7
I0
sg15
F1.7793386476774575
sg16
I01
sbsg7
I1
sg20
I01
sg21
g97
sbsg17
(imyEvolve
Tree
p561
(dp562
g7
I1
sg8
(imyEvolve
Tree
p563
(dp564
g7
I0
sg15
F3.1438863386918765
sg16
I01
sbsg17
(imyEvolve
Tree
p565
(dp566
g7
I0
sg15
F-4.915969850610715
sg16
I01
sbsg20
I00
sg21
g29
sbsg20
I00
sg21
g38
sbsg7
I3
sg20
I01
sg21
g57
sba(imyEvolve
Tree
p567
(dp568
g7
I4
sg8
(imyEvolve
Tree
p569
(dp570
g51
(imyEvolve
Tree
p571
(dp572
g7
I2
sg8
(imyEvolve
Tree
p573
(dp574
g7
I1
sg8
(imyEvolve
Tree
p575
(dp576
g7
I0
sg15
F-2.374106989945486
sg16
I01
sbsg17
(imyEvolve
Tree
p577
(dp578
g7
I0
sg15
F0.744993071915423
sg16
I01
sbsg20
I00
sg21
g38
sbsg17
(imyEvolve
Tree
p579
(dp580
g7
I1
sg8
(imyEvolve
Tree
p581
(dp582
g7
I0
sg15
F-2.1467822344780263
sg16
I01
sbsg17
(imyEvolve
Tree
p583
(dp584
g7
I0
sg16
I00
sbsg20
I00
sg21
g38
sbsg20
I00
sg21
g22
sbsg7
I3
sg20
I01
sg21
g66
sbsg17
(imyEvolve
Tree
p585
(dp586
g51
(imyEvolve
Tree
p587
(dp588
g7
I2
sg8
(imyEvolve
Tree
p589
(dp590
g51
(imyEvolve
Tree
p591
(dp592
g7
I0
sg16
I00
sbsg7
I1
sg20
I01
sg21
g97
sbsg17
(imyEvolve
Tree
p593
(dp594
g51
(imyEvolve
Tree
p595
(dp596
g7
I0
sg16
I00
sbsg7
I1
sg20
I01
sg21
g66
sbsg20
I00
sg21
g29
sbsg7
I3
sg20
I01
sg21
g97
sbsg20
I00
sg21
g38
sba(imyEvolve
Tree
p597
(dp598
g51
(imyEvolve
Tree
p599
(dp600
g51
(imyEvolve
Tree
p601
(dp602
g51
(imyEvolve
Tree
p603
(dp604
g7
I1
sg8
(imyEvolve
Tree
p605
(dp606
g7
I0
sg15
F-4.916421980005743
sg16
I01
sbsg17
(imyEvolve
Tree
p607
(dp608
g7
I0
sg15
F-2.5236628330189212
sg16
I01
sbsg20
I00
sg21
g38
sbsg7
I2
sg20
I01
sg21
g56
sbsg7
I3
sg20
I01
sg21
g56
sbsg7
I4
sg20
I01
sg21
g66
sba(imyEvolve
Tree
p609
(dp610
g51
(imyEvolve
Tree
p611
(dp612
g7
I3
sg8
(imyEvolve
Tree
p613
(dp614
g51
(imyEvolve
Tree
p615
(dp616
g51
(imyEvolve
Tree
p617
(dp618
g7
I0
sg16
I00
sbsg7
I1
sg20
I01
sg21
g97
sbsg7
I2
sg20
I01
sg21
g66
sbsg17
(imyEvolve
Tree
p619
(dp620
g7
I2
sg8
(imyEvolve
Tree
p621
(dp622
g51
(imyEvolve
Tree
p623
(dp624
g7
I0
sg15
F-0.5887650379353442
sg16
I01
sbsg7
I1
sg20
I01
sg21
g57
sbsg17
(imyEvolve
Tree
p625
(dp626
g7
I1
sg8
(imyEvolve
Tree
p627
(dp628
g7
I0
sg16
I00
sbsg17
(imyEvolve
Tree
p629
(dp630
g7
I0
sg15
F-1.1237189350308152
sg16
I01
sbsg20
I00
sg21
g38
sbsg20
I00
sg21
g38
sbsg20
I00
sg21
g38
sbsg7
I4
sg20
I01
sg21
g56
sba(imyEvolve
Tree
p631
(dp632
g51
(imyEvolve
Tree
p633
(dp634
g51
(imyEvolve
Tree
p635
(dp636
g51
(imyEvolve
Tree
p637
(dp638
g7
I1
sg8
(imyEvolve
Tree
p639
(dp640
g7
I0
sg15
F4.983431383792423
sg16
I01
sbsg17
(imyEvolve
Tree
p641
(dp642
g7
I0
sg15
F-2.824039975499022
sg16
I01
sbsg20
I00
sg21
g22
sbsg7
I2
sg20
I01
sg21
g97
sbsg7
I3
sg20
I01
sg21
g97
sbsg7
I4
sg20
I01
sg21
g56
sba(imyEvolve
Tree
p643
(dp644
g7
I3
sg8
(imyEvolve
Tree
p645
(dp646
g7
I2
sg8
(imyEvolve
Tree
p647
(dp648
g51
(imyEvolve
Tree
p649
(dp650
g7
I0
sg15
F-4.635783019909717
sg16
I01
sbsg7
I1
sg20
I01
sg21
g97
sbsg17
(imyEvolve
Tree
p651
(dp652
g51
(imyEvolve
Tree
p653
(dp654
g7
I0
sg15
F-3.754829209807242
sg16
I01
sbsg7
I1
sg20
I01
sg21
g97
sbsg20
I00
sg21
g29
sbsg17
(imyEvolve
Tree
p655
(dp656
g51
(imyEvolve
Tree
p657
(dp658
g51
(imyEvolve
Tree
p659
(dp660
g7
I0
sg16
I00
sbsg7
I1
sg20
I01
sg21
g57
sbsg7
I2
sg20
I01
sg21
g66
sbsg20
I00
sg21
g22
sba(imyEvolve
Tree
p661
(dp662
g7
I5
sg8
(imyEvolve
Tree
p663
(dp664
g51
(imyEvolve
Tree
p665
(dp666
g7
I3
sg8
(imyEvolve
Tree
p667
(dp668
g51
(imyEvolve
Tree
p669
(dp670
g7
I1
sg8
(imyEvolve
Tree
p671
(dp672
g7
I0
sg15
F-4.182452266772843
sg16
I01
sbsg17
(imyEvolve
Tree
p673
(dp674
g7
I0
sg15
F-3.6653679738900315
sg16
I01
sbsg20
I00
sg21
g22
sbsg7
I2
sg20
I01
sg21
g56
sbsg17
(imyEvolve
Tree
p675
(dp676
g51
(imyEvolve
Tree
p677
(dp678
g51
(imyEvolve
Tree
p679
(dp680
g7
I0
sg16
I00
sbsg7
I1
sg20
I01
sg21
g97
sbsg7
I2
sg20
I01
sg21
g97
sbsg20
I00
sg21
g38
sbsg7
I4
sg20
I01
sg21
g97
sbsg17
(imyEvolve
Tree
p681
(dp682
g7
I4
sg8
(imyEvolve
Tree
p683
(dp684
g7
I3
sg8
(imyEvolve
Tree
p685
(dp686
g51
(imyEvolve
Tree
p687
(dp688
g7
I1
sg8
(imyEvolve
Tree
p689
(dp690
g7
I0
sg15
F3.9746156304777482
sg16
I01
sbsg17
(imyEvolve
Tree
p691
(dp692
g7
I0
sg15
F0.4852806394431948
sg16
I01
sbsg20
I00
sg21
g29
sbsg7
I2
sg20
I01
sg21
g97
sbsg17
(imyEvolve
Tree
p693
(dp694
g7
I2
sg8
(imyEvolve
Tree
p695
(dp696
g7
I1
sg8
(imyEvolve
Tree
p697
(dp698
g7
I0
sg15
F-4.536303878526119
sg16
I01
sbsg17
(imyEvolve
Tree
p699
(dp700
g7
I0
sg16
I00
sbsg20
I00
sg21
g22
sbsg17
(imyEvolve
Tree
p701
(dp702
g7
I1
sg8
(imyEvolve
Tree
p703
(dp704
g7
I0
sg16
I00
sbsg17
(imyEvolve
Tree
p705
(dp706
g7
I0
sg15
F-0.6422013815368368
sg16
I01
sbsg20
I00
sg21
g22
sbsg20
I00
sg21
g22
sbsg20
I00
sg21
g29
sbsg17
(imyEvolve
Tree
p707
(dp708
g51
(imyEvolve
Tree
p709
(dp710
g7
I2
sg8
(imyEvolve
Tree
p711
(dp712
g51
(imyEvolve
Tree
p713
(dp714
g7
I0
sg15
F0.079348605280817
sg16
I01
sbsg7
I1
sg20
I01
sg21
g56
sbsg17
(imyEvolve
Tree
p715
(dp716
g51
(imyEvolve
Tree
p717
(dp718
g7
I0
sg15
F3.0588872213626157
sg16
I01
sbsg7
I1
sg20
I01
sg21
g97
sbsg20
I00
sg21
g22
sbsg7
I3
sg20
I01
sg21
g57
sbsg20
I00
sg21
g38
sbsg20
I00
sg21
g22
sba(imyEvolve
Tree
p719
(dp720
g7
I3
sg8
(imyEvolve
Tree
p721
(dp722
g51
(imyEvolve
Tree
p723
(dp724
g7
I1
sg8
(imyEvolve
Tree
p725
(dp726
g7
I0
sg16
I00
sbsg17
(imyEvolve
Tree
p727
(dp728
g7
I0
sg16
I00
sbsg20
I00
sg21
g22
sbsg7
I2
sg20
I01
sg21
g66
sbsg17
(imyEvolve
Tree
p729
(dp730
g51
(imyEvolve
Tree
p731
(dp732
g51
(imyEvolve
Tree
p733
(dp734
g7
I0
sg16
I00
sbsg7
I1
sg20
I01
sg21
g56
sbsg7
I2
sg20
I01
sg21
g66
sbsg20
I00
sg21
g22
sba(imyEvolve
Tree
p735
(dp736
g7
I2
sg8
(imyEvolve
Tree
p737
(dp738
g7
I1
sg8
(imyEvolve
Tree
p739
(dp740
g7
I0
sg15
F1.8676974933077792
sg16
I01
sbsg17
(imyEvolve
Tree
p741
(dp742
g7
I0
sg15
F-3.3415795669326287
sg16
I01
sbsg20
I00
sg21
g22
sbsg17
(imyEvolve
Tree
p743
(dp744
g7
I1
sg8
(imyEvolve
Tree
p745
(dp746
g7
I0
sg15
F3.827418137718304
sg16
I01
sbsg17
(imyEvolve
Tree
p747
(dp748
g7
I0
sg16
I00
sbsg20
I00
sg21
g22
sbsg20
I00
sg21
g38
sba(imyEvolve
Tree
p749
(dp750
g7
I3
sg8
(imyEvolve
Tree
p751
(dp752
g7
I2
sg8
(imyEvolve
Tree
p753
(dp754
g51
(imyEvolve
Tree
p755
(dp756
g7
I0
sg15
F-4.252098995001706
sg16
I01
sbsg7
I1
sg20
I01
sg21
g97
sbsg17
(imyEvolve
Tree
p757
(dp758
g7
I1
sg8
(imyEvolve
Tree
p759
(dp760
g7
I0
sg16
I00
sbsg17
(imyEvolve
Tree
p761
(dp762
g7
I0
sg15
F-3.8250894095561216
sg16
I01
sbsg20
I00
sg21
g22
sbsg20
I00
sg21
g22
sbsg17
(imyEvolve
Tree
p763
(dp764
g51
(imyEvolve
Tree
p765
(dp766
g7
I1
sg8
(imyEvolve
Tree
p767
(dp768
g7
I0
sg16
I00
sbsg17
(imyEvolve
Tree
p769
(dp770
g7
I0
sg15
F0.4084494919586703
sg16
I01
sbsg20
I00
sg21
g22
sbsg7
I2
sg20
I01
sg21
g57
sbsg20
I00
sg21
g22
sba(imyEvolve
Tree
p771
(dp772
g7
I2
sg8
(imyEvolve
Tree
p773
(dp774
g51
(imyEvolve
Tree
p775
(dp776
g7
I0
sg15
F-0.30941741683344315
sg16
I01
sbsg7
I1
sg20
I01
sg21
g57
sbsg17
(imyEvolve
Tree
p777
(dp778
g7
I1
sg8
(imyEvolve
Tree
p779
(dp780
g7
I0
sg15
F-3.8353362417044035
sg16
I01
sbsg17
(imyEvolve
Tree
p781
(dp782
g7
I0
sg15
F4.752828045682474
sg16
I01
sbsg20
I00
sg21
g29
sbsg20
I00
sg21
g29
sbaa(lp783
(imyEvolve
Tree
p784
(dp785
g51
(imyEvolve
Tree
p786
(dp787
g51
(imyEvolve
Tree
p788
(dp789
g7
I2
sg8
(imyEvolve
Tree
p790
(dp791
g7
I1
sg8
(imyEvolve
Tree
p792
(dp793
g7
I0
sg16
I00
sbsg17
(imyEvolve
Tree
p794
(dp795
g7
I0
sg15
F2.5490386372805895
sg16
I01
sbsg20
I00
sg21
g29
sbsg17
(imyEvolve
Tree
p796
(dp797
g7
I1
sg8
(imyEvolve
Tree
p798
(dp799
g7
I0
sg16
I00
sbsg17
(imyEvolve
Tree
p800
(dp801
g7
I0
sg15
F-1.5100311253125795
sg16
I01
sbsg20
I00
sg21
g22
sbsg20
I00
sg21
g38
sbsg7
I3
sg20
I01
sg21
g97
sbsg7
I4
sg20
I01
sg21
g57
sba(imyEvolve
Tree
p802
(dp803
g7
I3
sg8
(imyEvolve
Tree
p804
(dp805
g51
(imyEvolve
Tree
p806
(dp807
g51
(imyEvolve
Tree
p808
(dp809
g7
I0
sg15
F2.380261044267062
sg16
I01
sbsg7
I1
sg20
I01
sg21
g97
sbsg7
I2
sg20
I01
sg21
g97
sbsg17
(imyEvolve
Tree
p810
(dp811
g51
(imyEvolve
Tree
p812
(dp813
g51
(imyEvolve
Tree
p814
(dp815
g7
I0
sg16
I00
sbsg7
I1
sg20
I01
sg21
g97
sbsg7
I2
sg20
I01
sg21
g66
sbsg20
I00
sg21
g38
sba(imyEvolve
Tree
p816
(dp817
g51
(imyEvolve
Tree
p818
(dp819
g51
(imyEvolve
Tree
p820
(dp821
g7
I0
sg16
I00
sbsg7
I1
sg20
I01
sg21
g57
sbsg7
I2
sg20
I01
sg21
g66
sba(imyEvolve
Tree
p822
(dp823
g51
(imyEvolve
Tree
p824
(dp825
g7
I4
sg8
(imyEvolve
Tree
p826
(dp827
g51
(imyEvolve
Tree
p828
(dp829
g51
(imyEvolve
Tree
p830
(dp831
g7
I1
sg8
(imyEvolve
Tree
p832
(dp833
g7
I0
sg15
F4.628679671247054
sg16
I01
sbsg17
(imyEvolve
Tree
p834
(dp835
g7
I0
sg15
F3.9055020225091166
sg16
I01
sbsg20
I00
sg21
g29
sbsg7
I2
sg20
I01
sg21
g66
sbsg7
I3
sg20
I01
sg21
g57
sbsg17
(imyEvolve
Tree
p836
(dp837
g7
I3
sg8
(imyEvolve
Tree
p838
(dp839
g51
(imyEvolve
Tree
p840
(dp841
g51
(imyEvolve
Tree
p842
(dp843
g7
I0
sg15
F-1.7545548038423942
sg16
I01
sbsg7
I1
sg20
I01
sg21
g97
sbsg7
I2
sg20
I01
sg21
g56
sbsg17
(imyEvolve
Tree
p844
(dp845
g51
(imyEvolve
Tree
p846
(dp847
g7
I1
sg8
(imyEvolve
Tree
p848
(dp849
g7
I0
sg15
F3.621517300273002
sg16
I01
sbsg17
(imyEvolve
Tree
p850
(dp851
g7
I0
sg15
F3.7621418906211037
sg16
I01
sbsg20
I00
sg21
g22
sbsg7
I2
sg20
I01
sg21
g66
sbsg20
I00
sg21
g29
sbsg20
I00
sg21
g38
sbsg7
I5
sg20
I01
sg21
g57
sba(imyEvolve
Tree
p852
(dp853
g7
I5
sg8
(imyEvolve
Tree
p854
(dp855
g7
I4
sg8
(imyEvolve
Tree
p856
(dp857
g51
(imyEvolve
Tree
p858
(dp859
g51
(imyEvolve
Tree
p860
(dp861
g7
I1
sg8
(imyEvolve
Tree
p862
(dp863
g7
I0
sg16
I00
sbsg17
(imyEvolve
Tree
p864
(dp865
g7
I0
sg16
I00
sbsg20
I00
sg21
g29
sbsg7
I2
sg20
I01
sg21
g66
sbsg7
I3
sg20
I01
sg21
g66
sbsg17
(imyEvolve
Tree
p866
(dp867
g7
I3
sg8
(imyEvolve
Tree
p868
(dp869
g7
I2
sg8
(imyEvolve
Tree
p870
(dp871
g51
(imyEvolve
Tree
p872
(dp873
g7
I0
sg16
I00
sbsg7
I1
sg20
I01
sg21
g66
sbsg17
(imyEvolve
Tree
p874
(dp875
g7
I1
sg8
(imyEvolve
Tree
p876
(dp877
g7
I0
sg15
F-4.78845013635882
sg16
I01
sbsg17
(imyEvolve
Tree
p878
(dp879
g7
I0
sg15
F2.4342019005389792
sg16
I01
sbsg20
I00
sg21
g38
sbsg20
I00
sg21
g29
sbsg17
(imyEvolve
Tree
p880
(dp881
g51
(imyEvolve
Tree
p882
(dp883
g51
(imyEvolve
Tree
p884
(dp885
g7
I0
sg15
F-1.4494054393419429
sg16
I01
sbsg7
I1
sg20
I01
sg21
g66
sbsg7
I2
sg20
I01
sg21
g57
sbsg20
I00
sg21
g29
sbsg20
I00
sg21
g38
sbsg17
(imyEvolve
Tree
p886
(dp887
g51
(imyEvolve
Tree
p888
(dp889
g7
I3
sg8
(imyEvolve
Tree
p890
(dp891
g7
I2
sg8
(imyEvolve
Tree
p892
(dp893
g51
(imyEvolve
Tree
p894
(dp895
g7
I0
sg15
F-4.220616357847186
sg16
I01
sbsg7
I1
sg20
I01
sg21
g66
sbsg17
(imyEvolve
Tree
p896
(dp897
g7
I1
sg8
(imyEvolve
Tree
p898
(dp899
g7
I0
sg15
F2.2770483301964646
sg16
I01
sbsg17
(imyEvolve
Tree
p900
(dp901
g7
I0
sg16
I00
sbsg20
I00
sg21
g22
sbsg20
I00
sg21
g38
sbsg17
(imyEvolve
Tree
p902
(dp903
g51
(imyEvolve
Tree
p904
(dp905
g7
I1
sg8
(imyEvolve
Tree
p906
(dp907
g7
I0
sg16
I00
sbsg17
(imyEvolve
Tree
p908
(dp909
g7
I0
sg15
F-2.74015324558198
sg16
I01
sbsg20
I00
sg21
g29
sbsg7
I2
sg20
I01
sg21
g57
sbsg20
I00
sg21
g22
sbsg7
I4
sg20
I01
sg21
g66
sbsg20
I00
sg21
g29
sba(imyEvolve
Tree
p910
(dp911
g51
(imyEvolve
Tree
p912
(dp913
g7
I2
sg8
(imyEvolve
Tree
p914
(dp915
g7
I1
sg8
(imyEvolve
Tree
p916
(dp917
g7
I0
sg15
F-1.524721198323168
sg16
I01
sbsg17
(imyEvolve
Tree
p918
(dp919
g7
I0
sg16
I00
sbsg20
I00
sg21
g38
sbsg17
(imyEvolve
Tree
p920
(dp921
g51
(imyEvolve
Tree
p922
(dp923
g7
I0
sg16
I00
sbsg7
I1
sg20
I01
sg21
g57
sbsg20
I00
sg21
g22
sbsg7
I3
sg20
I01
sg21
g66
sba(imyEvolve
Tree
p924
(dp925
g51
(imyEvolve
Tree
p926
(dp927
g51
(imyEvolve
Tree
p928
(dp929
g7
I2
sg8
(imyEvolve
Tree
p930
(dp931
g7
I1
sg8
(imyEvolve
Tree
p932
(dp933
g7
I0
sg15
F4.624660649267959
sg16
I01
sbsg17
(imyEvolve
Tree
p934
(dp935
g7
I0
sg16
I00
sbsg20
I00
sg21
g22
sbsg17
(imyEvolve
Tree
p936
(dp937
g51
(imyEvolve
Tree
p938
(dp939
g7
I0
sg15
F1.6089930961670094
sg16
I01
sbsg7
I1
sg20
I01
sg21
g56
sbsg20
I00
sg21
g38
sbsg7
I3
sg20
I01
sg21
g57
sbsg7
I4
sg20
I01
sg21
g97
sba(imyEvolve
Tree
p940
(dp941
g7
I2
sg8
(imyEvolve
Tree
p942
(dp943
g7
I1
sg8
(imyEvolve
Tree
p944
(dp945
g7
I0
sg15
F-0.21051226864468653
sg16
I01
sbsg17
(imyEvolve
Tree
p946
(dp947
g7
I0
sg16
I00
sbsg20
I00
sg21
g22
sbsg17
(imyEvolve
Tree
p948
(dp949
g7
I1
sg8
(imyEvolve
Tree
p950
(dp951
g7
I0
sg16
I00
sbsg17
(imyEvolve
Tree
p952
(dp953
g7
I0
sg16
I00
sbsg20
I00
sg21
g22
sbsg20
I00
sg21
g38
sba(imyEvolve
Tree
p954
(dp955
g7
I3
sg8
(imyEvolve
Tree
p956
(dp957
g51
(imyEvolve
Tree
p958
(dp959
g51
(imyEvolve
Tree
p960
(dp961
g7
I0
sg15
F-0.6203526522123992
sg16
I01
sbsg7
I1
sg20
I01
sg21
g56
sbsg7
I2
sg20
I01
sg21
g57
sbsg17
(imyEvolve
Tree
p962
(dp963
g51
(imyEvolve
Tree
p964
(dp965
g51
(imyEvolve
Tree
p966
(dp967
g7
I0
sg15
F1.4516026001483677
sg16
I01
sbsg7
I1
sg20
I01
sg21
g97
sbsg7
I2
sg20
I01
sg21
g97
sbsg20
I00
sg21
g22
sba(imyEvolve
Tree
p968
(dp969
g7
I4
sg8
(imyEvolve
Tree
p970
(dp971
g51
(imyEvolve
Tree
p972
(dp973
g51
(imyEvolve
Tree
p974
(dp975
g7
I1
sg8
(imyEvolve
Tree
p976
(dp977
g7
I0
sg16
I00
sbsg17
(imyEvolve
Tree
p978
(dp979
g7
I0
sg15
F-0.6532262745124173
sg16
I01
sbsg20
I00
sg21
g38
sbsg7
I2
sg20
I01
sg21
g66
sbsg7
I3
sg20
I01
sg21
g56
sbsg17
(imyEvolve
Tree
p980
(dp981
g51
(imyEvolve
Tree
p982
(dp983
g7
I2
sg8
(imyEvolve
Tree
p984
(dp985
g7
I1
sg8
(imyEvolve
Tree
p986
(dp987
g7
I0
sg15
F0.4438430343658428
sg16
I01
sbsg17
(imyEvolve
Tree
p988
(dp989
g7
I0
sg16
I00
sbsg20
I00
sg21
g29
sbsg17
(imyEvolve
Tree
p990
(dp991
g51
(imyEvolve
Tree
p992
(dp993
g7
I0
sg15
F-4.359092813340127
sg16
I01
sbsg7
I1
sg20
I01
sg21
g57
sbsg20
I00
sg21
g22
sbsg7
I3
sg20
I01
sg21
g57
sbsg20
I00
sg21
g38
sbaa(lp994
(imyEvolve
Tree
p995
(dp996
g51
(imyEvolve
Tree
p997
(dp998
g7
I3
sg8
(imyEvolve
Tree
p999
(dp1000
g7
I2
sg8
(imyEvolve
Tree
p1001
(dp1002
g7
I1
sg8
(imyEvolve
Tree
p1003
(dp1004
g7
I0
sg15
F-0.6885420985190427
sg16
I01
sbsg17
(imyEvolve
Tree
p1005
(dp1006
g7
I0
sg15
F3.533094755023999
sg16
I01
sbsg20
I00
sg21
g29
sbsg17
(imyEvolve
Tree
p1007
(dp1008
g51
(imyEvolve
Tree
p1009
(dp1010
g7
I0
sg16
I00
sbsg7
I1
sg20
I01
sg21
g57
sbsg20
I00
sg21
g29
sbsg17
(imyEvolve
Tree
p1011
(dp1012
g7
I2
sg8
(imyEvolve
Tree
p1013
(dp1014
g7
I1
sg8
(imyEvolve
Tree
p1015
(dp1016
g7
I0
sg16
I00
sbsg17
(imyEvolve
Tree
p1017
(dp1018
g7
I0
sg16
I00
sbsg20
I00
sg21
g22
sbsg17
(imyEvolve
Tree
p1019
(dp1020
g7
I1
sg8
(imyEvolve
Tree
p1021
(dp1022
g7
I0
sg15
F-4.6074738405182325
sg16
I01
sbsg17
(imyEvolve
Tree
p1023
(dp1024
g7
I0
sg16
I00
sbsg20
I00
sg21
g38
sbsg20
I00
sg21
g29
sbsg20
I00
sg21
g22
sbsg7
I4
sg20
I01
sg21
g56
sba(imyEvolve
Tree
p1025
(dp1026
g51
(imyEvolve
Tree
p1027
(dp1028
g51
(imyEvolve
Tree
p1029
(dp1030
g7
I1
sg8
(imyEvolve
Tree
p1031
(dp1032
g7
I0
sg16
I00
sbsg17
(imyEvolve
Tree
p1033
(dp1034
g7
I0
sg15
F-1.4680093243583405
sg16
I01
sbsg20
I00
sg21
g22
sbsg7
I2
sg20
I01
sg21
g97
sbsg7
I3
sg20
I01
sg21
g97
sba(imyEvolve
Tree
p1035
(dp1036
g51
(imyEvolve
Tree
p1037
(dp1038
g7
I3
sg8
(imyEvolve
Tree
p1039
(dp1040
g7
I2
sg8
(imyEvolve
Tree
p1041
(dp1042
g7
I1
sg8
(imyEvolve
Tree
p1043
(dp1044
g7
I0
sg15
F-3.5260970297929726
sg16
I01
sbsg17
(imyEvolve
Tree
p1045
(dp1046
g7
I0
sg16
I00
sbsg20
I00
sg21
g22
sbsg17
(imyEvolve
Tree
p1047
(dp1048
g7
I1
sg8
(imyEvolve
Tree
p1049
(dp1050
g7
I0
sg16
I00
sbsg17
(imyEvolve
Tree
p1051
(dp1052
g7
I0
sg15
F2.127319937669
sg16
I01
sbsg20
I00
sg21
g38
sbsg20
I00
sg21
g38
sbsg17
(imyEvolve
Tree
p1053
(dp1054
g7
I2
sg8
(imyEvolve
Tree
p1055
(dp1056
g51
(imyEvolve
Tree
p1057
(dp1058
g7
I0
sg15
F1.0616301755333417
sg16
I01
sbsg7
I1
sg20
I01
sg21
g56
sbsg17
(imyEvolve
Tree
p1059
(dp1060
g51
(imyEvolve
Tree
p1061
(dp1062
g7
I0
sg15
F-1.3465654265610363
sg16
I01
sbsg7
I1
sg20
I01
sg21
g66
sbsg20
I00
sg21
g38
sbsg20
I00
sg21
g29
sbsg7
I4
sg20
I01
sg21
g56
sba(imyEvolve
Tree
p1063
(dp1064
g7
I3
sg8
(imyEvolve
Tree
p1065
(dp1066
g51
(imyEvolve
Tree
p1067
(dp1068
g7
I1
sg8
(imyEvolve
Tree
p1069
(dp1070
g7
I0
sg16
I00
sbsg17
(imyEvolve
Tree
p1071
(dp1072
g7
I0
sg15
F4.378734661924716
sg16
I01
sbsg20
I00
sg21
g38
sbsg7
I2
sg20
I01
sg21
g97
sbsg17
(imyEvolve
Tree
p1073
(dp1074
g51
(imyEvolve
Tree
p1075
(dp1076
g51
(imyEvolve
Tree
p1077
(dp1078
g7
I0
sg15
F-2.2069147513705776
sg16
I01
sbsg7
I1
sg20
I01
sg21
g97
sbsg7
I2
sg20
I01
sg21
g57
sbsg20
I00
sg21
g22
sba(imyEvolve
Tree
p1079
(dp1080
g7
I2
sg8
(imyEvolve
Tree
p1081
(dp1082
g51
(imyEvolve
Tree
p1083
(dp1084
g7
I0
sg15
F4.146691181299079
sg16
I01
sbsg7
I1
sg20
I01
sg21
g97
sbsg17
(imyEvolve
Tree
p1085
(dp1086
g51
(imyEvolve
Tree
p1087
(dp1088
g7
I0
sg16
I00
sbsg7
I1
sg20
I01
sg21
g56
sbsg20
I00
sg21
g29
sba(imyEvolve
Tree
p1089
(dp1090
g51
(imyEvolve
Tree
p1091
(dp1092
g7
I3
sg8
(imyEvolve
Tree
p1093
(dp1094
g51
(imyEvolve
Tree
p1095
(dp1096
g7
I1
sg8
(imyEvolve
Tree
p1097
(dp1098
g7
I0
sg15
F-4.532688374566608
sg16
I01
sbsg17
(imyEvolve
Tree
p1099
(dp1100
g7
I0
sg15
F-3.732713992049468
sg16
I01
sbsg20
I00
sg21
g29
sbsg7
I2
sg20
I01
sg21
g66
sbsg17
(imyEvolve
Tree
p1101
(dp1102
g51
(imyEvolve
Tree
p1103
(dp1104
g7
I1
sg8
(imyEvolve
Tree
p1105
(dp1106
g7
I0
sg16
I00
sbsg17
(imyEvolve
Tree
p1107
(dp1108
g7
I0
sg16
I00
sbsg20
I00
sg21
g38
sbsg7
I2
sg20
I01
sg21
g97
sbsg20
I00
sg21
g22
sbsg7
I4
sg20
I01
sg21
g97
sba(imyEvolve
Tree
p1109
(dp1110
g51
(imyEvolve
Tree
p1111
(dp1112
g7
I3
sg8
(imyEvolve
Tree
p1113
(dp1114
g51
(imyEvolve
Tree
p1115
(dp1116
g51
(imyEvolve
Tree
p1117
(dp1118
g7
I0
sg15
F4.808070072328405
sg16
I01
sbsg7
I1
sg20
I01
sg21
g97
sbsg7
I2
sg20
I01
sg21
g97
sbsg17
(imyEvolve
Tree
p1119
(dp1120
g7
I2
sg8
(imyEvolve
Tree
p1121
(dp1122
g51
(imyEvolve
Tree
p1123
(dp1124
g7
I0
sg15
F1.527225851301937
sg16
I01
sbsg7
I1
sg20
I01
sg21
g66
sbsg17
(imyEvolve
Tree
p1125
(dp1126
g51
(imyEvolve
Tree
p1127
(dp1128
g7
I0
sg15
F-3.162929577354708
sg16
I01
sbsg7
I1
sg20
I01
sg21
g97
sbsg20
I00
sg21
g38
sbsg20
I00
sg21
g22
sbsg7
I4
sg20
I01
sg21
g57
sba(imyEvolve
Tree
p1129
(dp1130
g7
I4
sg8
(imyEvolve
Tree
p1131
(dp1132
g51
(imyEvolve
Tree
p1133
(dp1134
g51
(imyEvolve
Tree
p1135
(dp1136
g7
I1
sg8
(imyEvolve
Tree
p1137
(dp1138
g7
I0
sg16
I00
sbsg17
(imyEvolve
Tree
p1139
(dp1140
g7
I0
sg15
F-3.171210832108522
sg16
I01
sbsg20
I00
sg21
g22
sbsg7
I2
sg20
I01
sg21
g97
sbsg7
I3
sg20
I01
sg21
g57
sbsg17
(imyEvolve
Tree
p1141
(dp1142
g51
(imyEvolve
Tree
p1143
(dp1144
g51
(imyEvolve
Tree
p1145
(dp1146
g7
I1
sg8
(imyEvolve
Tree
p1147
(dp1148
g7
I0
sg16
I00
sbsg17
(imyEvolve
Tree
p1149
(dp1150
g7
I0
sg16
I00
sbsg20
I00
sg21
g29
sbsg7
I2
sg20
I01
sg21
g57
sbsg7
I3
sg20
I01
sg21
g56
sbsg20
I00
sg21
g22
sbaa(lp1151
(imyEvolve
Tree
p1152
(dp1153
g7
I2
sg8
(imyEvolve
Tree
p1154
(dp1155
g7
I1
sg8
(imyEvolve
Tree
p1156
(dp1157
g7
I0
sg16
I00
sbsg17
(imyEvolve
Tree
p1158
(dp1159
g7
I0
sg15
F-3.533058277126775
sg16
I01
sbsg20
I00
sg21
g29
sbsg17
(imyEvolve
Tree
p1160
(dp1161
g7
I1
sg8
(imyEvolve
Tree
p1162
(dp1163
g7
I0
sg16
I00
sbsg17
(imyEvolve
Tree
p1164
(dp1165
g7
I0
sg16
I00
sbsg20
I00
sg21
g29
sbsg20
I00
sg21
g22
sba(imyEvolve
Tree
p1166
(dp1167
g51
(imyEvolve
Tree
p1168
(dp1169
g51
(imyEvolve
Tree
p1170
(dp1171
g7
I0
sg15
F3.5873518547620815
sg16
I01
sbsg7
I1
sg20
I01
sg21
g97
sbsg7
I2
sg20
I01
sg21
g97
sba(imyEvolve
Tree
p1172
(dp1173
g7
I5
sg8
(imyEvolve
Tree
p1174
(dp1175
g7
I4
sg8
(imyEvolve
Tree
p1176
(dp1177
g51
(imyEvolve
Tree
p1178
(dp1179
g7
I2
sg8
(imyEvolve
Tree
p1180
(dp1181
g51
(imyEvolve
Tree
p1182
(dp1183
g7
I0
sg16
I00
sbsg7
I1
sg20
I01
sg21
g56
sbsg17
(imyEvolve
Tree
p1184
(dp1185
g7
I1
sg8
(imyEvolve
Tree
p1186
(dp1187
g7
I0
sg16
I00
sbsg17
(imyEvolve
Tree
p1188
(dp1189
g7
I0
sg15
F-1.6385833783898374
sg16
I01
sbsg20
I00
sg21
g22
sbsg20
I00
sg21
g38
sbsg7
I3
sg20
I01
sg21
g66
sbsg17
(imyEvolve
Tree
p1190
(dp1191
g7
I3
sg8
(imyEvolve
Tree
p1192
(dp1193
g7
I2
sg8
(imyEvolve
Tree
p1194
(dp1195
g51
(imyEvolve
Tree
p1196
(dp1197
g7
I0
sg15
F-3.543653995117124
sg16
I01
sbsg7
I1
sg20
I01
sg21
g57
sbsg17
(imyEvolve
Tree
p1198
(dp1199
g7
I1
sg8
(imyEvolve
Tree
p1200
(dp1201
g7
I0
sg15
F-0.04680326853595407
sg16
I01
sbsg17
(imyEvolve
Tree
p1202
(dp1203
g7
I0
sg16
I00
sbsg20
I00
sg21
g22
sbsg20
I00
sg21
g29
sbsg17
(imyEvolve
Tree
p1204
(dp1205
g51
(imyEvolve
Tree
p1206
(dp1207
g51
(imyEvolve
Tree
p1208
(dp1209
g7
I0
sg15
F-1.9481985416332015
sg16
I01
sbsg7
I1
sg20
I01
sg21
g56
sbsg7
I2
sg20
I01
sg21
g66
sbsg20
I00
sg21
g29
sbsg20
I00
sg21
g38
sbsg17
(imyEvolve
Tree
p1210
(dp1211
g51
(imyEvolve
Tree
p1212
(dp1213
g7
I3
sg8
(imyEvolve
Tree
p1214
(dp1215
g51
(imyEvolve
Tree
p1216
(dp1217
g51
(imyEvolve
Tree
p1218
(dp1219
g7
I0
sg15
F-1.273927608635561
sg16
I01
sbsg7
I1
sg20
I01
sg21
g57
sbsg7
I2
sg20
I01
sg21
g97
sbsg17
(imyEvolve
Tree
p1220
(dp1221
g51
(imyEvolve
Tree
p1222
(dp1223
g51
(imyEvolve
Tree
p1224
(dp1225
g7
I0
sg15
F-3.6696625655427138
sg16
I01
sbsg7
I1
sg20
I01
sg21
g66
sbsg7
I2
sg20
I01
sg21
g97
sbsg20
I00
sg21
g22
sbsg7
I4
sg20
I01
sg21
g57
sbsg20
I00
sg21
g38
sba(imyEvolve
Tree
p1226
(dp1227
g7
I4
sg8
(imyEvolve
Tree
p1228
(dp1229
g51
(imyEvolve
Tree
p1230
(dp1231
g51
(imyEvolve
Tree
p1232
(dp1233
g51
(imyEvolve
Tree
p1234
(dp1235
g7
I0
sg16
I00
sbsg7
I1
sg20
I01
sg21
g57
sbsg7
I2
sg20
I01
sg21
g57
sbsg7
I3
sg20
I01
sg21
g57
sbsg17
(imyEvolve
Tree
p1236
(dp1237
g51
(imyEvolve
Tree
p1238
(dp1239
g51
(imyEvolve
Tree
p1240
(dp1241
g7
I1
sg8
(imyEvolve
Tree
p1242
(dp1243
g7
I0
sg15
F2.3424072945100907
sg16
I01
sbsg17
(imyEvolve
Tree
p1244
(dp1245
g7
I0
sg16
I00
sbsg20
I00
sg21
g29
sbsg7
I2
sg20
I01
sg21
g66
sbsg7
I3
sg20
I01
sg21
g56
sbsg20
I00
sg21
g22
sba(imyEvolve
Tree
p1246
(dp1247
g7
I5
sg8
(imyEvolve
Tree
p1248
(dp1249
g51
(imyEvolve
Tree
p1250
(dp1251
g51
(imyEvolve
Tree
p1252
(dp1253
g7
I2
sg8
(imyEvolve
Tree
p1254
(dp1255
g7
I1
sg8
(imyEvolve
Tree
p1256
(dp1257
g7
I0
sg16
I00
sbsg17
(imyEvolve
Tree
p1258
(dp1259
g7
I0
sg15
F-4.203311366694459
sg16
I01
sbsg20
I00
sg21
g22
sbsg17
(imyEvolve
Tree
p1260
(dp1261
g51
(imyEvolve
Tree
p1262
(dp1263
g7
I0
sg15
F-3.0785022458916202
sg16
I01
sbsg7
I1
sg20
I01
sg21
g57
sbsg20
I00
sg21
g29
sbsg7
I3
sg20
I01
sg21
g56
sbsg7
I4
sg20
I01
sg21
g56
sbsg17
(imyEvolve
Tree
p1264
(dp1265
g7
I4
sg8
(imyEvolve
Tree
p1266
(dp1267
g51
(imyEvolve
Tree
p1268
(dp1269
g7
I2
sg8
(imyEvolve
Tree
p1270
(dp1271
g51
(imyEvolve
Tree
p1272
(dp1273
g7
I0
sg15
F-4.78922195632172
sg16
I01
sbsg7
I1
sg20
I01
sg21
g56
sbsg17
(imyEvolve
Tree
p1274
(dp1275
g51
(imyEvolve
Tree
p1276
(dp1277
g7
I0
sg16
I00
sbsg7
I1
sg20
I01
sg21
g57
sbsg20
I00
sg21
g22
sbsg7
I3
sg20
I01
sg21
g66
sbsg17
(imyEvolve
Tree
p1278
(dp1279
g7
I3
sg8
(imyEvolve
Tree
p1280
(dp1281
g7
I2
sg8
(imyEvolve
Tree
p1282
(dp1283
g7
I1
sg8
(imyEvolve
Tree
p1284
(dp1285
g7
I0
sg16
I00
sbsg17
(imyEvolve
Tree
p1286
(dp1287
g7
I0
sg15
F-3.4391036046220433
sg16
I01
sbsg20
I00
sg21
g29
sbsg17
(imyEvolve
Tree
p1288
(dp1289
g51
(imyEvolve
Tree
p1290
(dp1291
g7
I0
sg16
I00
sbsg7
I1
sg20
I01
sg21
g57
sbsg20
I00
sg21
g29
sbsg17
(imyEvolve
Tree
p1292
(dp1293
g51
(imyEvolve
Tree
p1294
(dp1295
g51
(imyEvolve
Tree
p1296
(dp1297
g7
I0
sg16
I00
sbsg7
I1
sg20
I01
sg21
g66
sbsg7
I2
sg20
I01
sg21
g57
sbsg20
I00
sg21
g38
sbsg20
I00
sg21
g29
sbsg20
I00
sg21
g22
sba(imyEvolve
Tree
p1298
(dp1299
g7
I5
sg8
(imyEvolve
Tree
p1300
(dp1301
g7
I4
sg8
(imyEvolve
Tree
p1302
(dp1303
g7
I3
sg8
(imyEvolve
Tree
p1304
(dp1305
g7
I2
sg8
(imyEvolve
Tree
p1306
(dp1307
g51
(imyEvolve
Tree
p1308
(dp1309
g7
I0
sg15
F4.094542736400278
sg16
I01
sbsg7
I1
sg20
I01
sg21
g57
sbsg17
(imyEvolve
Tree
p1310
(dp1311
g51
(imyEvolve
Tree
p1312
(dp1313
g7
I0
sg16
I00
sbsg7
I1
sg20
I01
sg21
g97
sbsg20
I00
sg21
g29
sbsg17
(imyEvolve
Tree
p1314
(dp1315
g7
I2
sg8
(imyEvolve
Tree
p1316
(dp1317
g7
I1
sg8
(imyEvolve
Tree
p1318
(dp1319
g7
I0
sg15
F-3.777535633276549
sg16
I01
sbsg17
(imyEvolve
Tree
p1320
(dp1321
g7
I0
sg16
I00
sbsg20
I00
sg21
g22
sbsg17
(imyEvolve
Tree
p1322
(dp1323
g7
I1
sg8
(imyEvolve
Tree
p1324
(dp1325
g7
I0
sg16
I00
sbsg17
(imyEvolve
Tree
p1326
(dp1327
g7
I0
sg16
I00
sbsg20
I00
sg21
g22
sbsg20
I00
sg21
g38
sbsg20
I00
sg21
g29
sbsg17
(imyEvolve
Tree
p1328
(dp1329
g7
I3
sg8
(imyEvolve
Tree
p1330
(dp1331
g51
(imyEvolve
Tree
p1332
(dp1333
g7
I1
sg8
(imyEvolve
Tree
p1334
(dp1335
g7
I0
sg15
F2.6359181023952427
sg16
I01
sbsg17
(imyEvolve
Tree
p1336
(dp1337
g7
I0
sg16
I00
sbsg20
I00
sg21
g29
sbsg7
I2
sg20
I01
sg21
g56
sbsg17
(imyEvolve
Tree
p1338
(dp1339
g51
(imyEvolve
Tree
p1340
(dp1341
g7
I1
sg8
(imyEvolve
Tree
p1342
(dp1343
g7
I0
sg16
I00
sbsg17
(imyEvolve
Tree
p1344
(dp1345
g7
I0
sg16
I00
sbsg20
I00
sg21
g29
sbsg7
I2
sg20
I01
sg21
g97
sbsg20
I00
sg21
g29
sbsg20
I00
sg21
g22
sbsg17
(imyEvolve
Tree
p1346
(dp1347
g7
I4
sg8
(imyEvolve
Tree
p1348
(dp1349
g51
(imyEvolve
Tree
p1350
(dp1351
g51
(imyEvolve
Tree
p1352
(dp1353
g7
I1
sg8
(imyEvolve
Tree
p1354
(dp1355
g7
I0
sg16
I00
sbsg17
(imyEvolve
Tree
p1356
(dp1357
g7
I0
sg15
F-1.9514480720188834
sg16
I01
sbsg20
I00
sg21
g22
sbsg7
I2
sg20
I01
sg21
g66
sbsg7
I3
sg20
I01
sg21
g57
sbsg17
(imyEvolve
Tree
p1358
(dp1359
g51
(imyEvolve
Tree
p1360
(dp1361
g7
I2
sg8
(imyEvolve
Tree
p1362
(dp1363
g51
(imyEvolve
Tree
p1364
(dp1365
g7
I0
sg16
I00
sbsg7
I1
sg20
I01
sg21
g97
sbsg17
(imyEvolve
Tree
p1366
(dp1367
g51
(imyEvolve
Tree
p1368
(dp1369
g7
I0
sg16
I00
sbsg7
I1
sg20
I01
sg21
g97
sbsg20
I00
sg21
g38
sbsg7
I3
sg20
I01
sg21
g97
sbsg20
I00
sg21
g38
sbsg20
I00
sg21
g29
sba(imyEvolve
Tree
p1370
(dp1371
g51
(imyEvolve
Tree
p1372
(dp1373
g51
(imyEvolve
Tree
p1374
(dp1375
g7
I3
sg8
(imyEvolve
Tree
p1376
(dp1377
g7
I2
sg8
(imyEvolve
Tree
p1378
(dp1379
g51
(imyEvolve
Tree
p1380
(dp1381
g7
I0
sg15
F4.702190588466081
sg16
I01
sbsg7
I1
sg20
I01
sg21
g56
sbsg17
(imyEvolve
Tree
p1382
(dp1383
g51
(imyEvolve
Tree
p1384
(dp1385
g7
I0
sg16
I00
sbsg7
I1
sg20
I01
sg21
g56
sbsg20
I00
sg21
g22
sbsg17
(imyEvolve
Tree
p1386
(dp1387
g51
(imyEvolve
Tree
p1388
(dp1389
g51
(imyEvolve
Tree
p1390
(dp1391
g7
I0
sg15
F-2.4510422986460334
sg16
I01
sbsg7
I1
sg20
I01
sg21
g97
sbsg7
I2
sg20
I01
sg21
g57
sbsg20
I00
sg21
g38
sbsg7
I4
sg20
I01
sg21
g56
sbsg7
I5
sg20
I01
sg21
g66
sba(imyEvolve
Tree
p1392
(dp1393
g51
(imyEvolve
Tree
p1394
(dp1395
g7
I3
sg8
(imyEvolve
Tree
p1396
(dp1397
g7
I2
sg8
(imyEvolve
Tree
p1398
(dp1399
g7
I1
sg8
(imyEvolve
Tree
p1400
(dp1401
g7
I0
sg15
F-1.6158251837799709
sg16
I01
sbsg17
(imyEvolve
Tree
p1402
(dp1403
g7
I0
sg16
I00
sbsg20
I00
sg21
g29
sbsg17
(imyEvolve
Tree
p1404
(dp1405
g7
I1
sg8
(imyEvolve
Tree
p1406
(dp1407
g7
I0
sg15
F1.121778050371388
sg16
I01
sbsg17
(imyEvolve
Tree
p1408
(dp1409
g7
I0
sg15
F-1.1283772954667892
sg16
I01
sbsg20
I00
sg21
g38
sbsg20
I00
sg21
g29
sbsg17
(imyEvolve
Tree
p1410
(dp1411
g7
I2
sg8
(imyEvolve
Tree
p1412
(dp1413
g51
(imyEvolve
Tree
p1414
(dp1415
g7
I0
sg15
F0.27192596492939813
sg16
I01
sbsg7
I1
sg20
I01
sg21
g66
sbsg17
(imyEvolve
Tree
p1416
(dp1417
g7
I1
sg8
(imyEvolve
Tree
p1418
(dp1419
g7
I0
sg16
I00
sbsg17
(imyEvolve
Tree
p1420
(dp1421
g7
I0
sg15
F-4.774502062710883
sg16
I01
sbsg20
I00
sg21
g29
sbsg20
I00
sg21
g29
sbsg20
I00
sg21
g29
sbsg7
I4
sg20
I01
sg21
g66
sba(imyEvolve
Tree
p1422
(dp1423
g51
(imyEvolve
Tree
p1424
(dp1425
g51
(imyEvolve
Tree
p1426
(dp1427
g7
I0
sg16
I00
sbsg7
I1
sg20
I01
sg21
g97
sbsg7
I2
sg20
I01
sg21
g97
sba(imyEvolve
Tree
p1428
(dp1429
g7
I4
sg8
(imyEvolve
Tree
p1430
(dp1431
g7
I3
sg8
(imyEvolve
Tree
p1432
(dp1433
g7
I2
sg8
(imyEvolve
Tree
p1434
(dp1435
g7
I1
sg8
(imyEvolve
Tree
p1436
(dp1437
g7
I0
sg15
F0.6486444802963813
sg16
I01
sbsg17
(imyEvolve
Tree
p1438
(dp1439
g7
I0
sg15
F-4.528973362958788
sg16
I01
sbsg20
I00
sg21
g38
sbsg17
(imyEvolve
Tree
p1440
(dp1441
g7
I1
sg8
(imyEvolve
Tree
p1442
(dp1443
g7
I0
sg16
I00
sbsg17
(imyEvolve
Tree
p1444
(dp1445
g7
I0
sg15
F-3.8187587876781484
sg16
I01
sbsg20
I00
sg21
g38
sbsg20
I00
sg21
g38
sbsg17
(imyEvolve
Tree
p1446
(dp1447
g51
(imyEvolve
Tree
p1448
(dp1449
g7
I1
sg8
(imyEvolve
Tree
p1450
(dp1451
g7
I0
sg16
I00
sbsg17
(imyEvolve
Tree
p1452
(dp1453
g7
I0
sg15
F-1.624404263646828
sg16
I01
sbsg20
I00
sg21
g22
sbsg7
I2
sg20
I01
sg21
g57
sbsg20
I00
sg21
g38
sbsg17
(imyEvolve
Tree
p1454
(dp1455
g7
I3
sg8
(imyEvolve
Tree
p1456
(dp1457
g51
(imyEvolve
Tree
p1458
(dp1459
g7
I1
sg8
(imyEvolve
Tree
p1460
(dp1461
g7
I0
sg16
I00
sbsg17
(imyEvolve
Tree
p1462
(dp1463
g7
I0
sg16
I00
sbsg20
I00
sg21
g29
sbsg7
I2
sg20
I01
sg21
g66
sbsg17
(imyEvolve
Tree
p1464
(dp1465
g7
I2
sg8
(imyEvolve
Tree
p1466
(dp1467
g7
I1
sg8
(imyEvolve
Tree
p1468
(dp1469
g7
I0
sg16
I00
sbsg17
(imyEvolve
Tree
p1470
(dp1471
g7
I0
sg16
I00
sbsg20
I00
sg21
g22
sbsg17
(imyEvolve
Tree
p1472
(dp1473
g7
I1
sg8
(imyEvolve
Tree
p1474
(dp1475
g7
I0
sg16
I00
sbsg17
(imyEvolve
Tree
p1476
(dp1477
g7
I0
sg15
F-3.384835179626402
sg16
I01
sbsg20
I00
sg21
g29
sbsg20
I00
sg21
g29
sbsg20
I00
sg21
g38
sbsg20
I00
sg21
g29
sba(imyEvolve
Tree
p1478
(dp1479
g51
(imyEvolve
Tree
p1480
(dp1481
g51
(imyEvolve
Tree
p1482
(dp1483
g7
I1
sg8
(imyEvolve
Tree
p1484
(dp1485
g7
I0
sg16
I00
sbsg17
(imyEvolve
Tree
p1486
(dp1487
g7
I0
sg16
I00
sbsg20
I00
sg21
g29
sbsg7
I2
sg20
I01
sg21
g57
sbsg7
I3
sg20
I01
sg21
g66
sba(imyEvolve
Tree
p1488
(dp1489
g51
(imyEvolve
Tree
p1490
(dp1491
g7
I3
sg8
(imyEvolve
Tree
p1492
(dp1493
g51
(imyEvolve
Tree
p1494
(dp1495
g7
I1
sg8
(imyEvolve
Tree
p1496
(dp1497
g7
I0
sg16
I00
sbsg17
(imyEvolve
Tree
p1498
(dp1499
g7
I0
sg15
F-3.894050042193502
sg16
I01
sbsg20
I00
sg21
g38
sbsg7
I2
sg20
I01
sg21
g66
sbsg17
(imyEvolve
Tree
p1500
(dp1501
g7
I2
sg8
(imyEvolve
Tree
p1502
(dp1503
g7
I1
sg8
(imyEvolve
Tree
p1504
(dp1505
g7
I0
sg16
I00
sbsg17
(imyEvolve
Tree
p1506
(dp1507
g7
I0
sg16
I00
sbsg20
I00
sg21
g22
sbsg17
(imyEvolve
Tree
p1508
(dp1509
g7
I1
sg8
(imyEvolve
Tree
p1510
(dp1511
g7
I0
sg16
I00
sbsg17
(imyEvolve
Tree
p1512
(dp1513
g7
I0
sg16
I00
sbsg20
I00
sg21
g22
sbsg20
I00
sg21
g22
sbsg20
I00
sg21
g22
sbsg7
I4
sg20
I01
sg21
g56
sba(imyEvolve
Tree
p1514
(dp1515
g51
(imyEvolve
Tree
p1516
(dp1517
g7
I3
sg8
(imyEvolve
Tree
p1518
(dp1519
g51
(imyEvolve
Tree
p1520
(dp1521
g7
I1
sg8
(imyEvolve
Tree
p1522
(dp1523
g7
I0
sg16
I00
sbsg17
(imyEvolve
Tree
p1524
(dp1525
g7
I0
sg15
F-0.03260723219444728
sg16
I01
sbsg20
I00
sg21
g29
sbsg7
I2
sg20
I01
sg21
g57
sbsg17
(imyEvolve
Tree
p1526
(dp1527
g7
I2
sg8
(imyEvolve
Tree
p1528
(dp1529
g7
I1
sg8
(imyEvolve
Tree
p1530
(dp1531
g7
I0
sg15
F-0.9386719646146435
sg16
I01
sbsg17
(imyEvolve
Tree
p1532
(dp1533
g7
I0
sg15
F0.04409709628260572
sg16
I01
sbsg20
I00
sg21
g38
sbsg17
(imyEvolve
Tree
p1534
(dp1535
g7
I1
sg8
(imyEvolve
Tree
p1536
(dp1537
g7
I0
sg16
I00
sbsg17
(imyEvolve
Tree
p1538
(dp1539
g7
I0
sg15
F-2.120253654170552
sg16
I01
sbsg20
I00
sg21
g38
sbsg20
I00
sg21
g22
sbsg20
I00
sg21
g38
sbsg7
I4
sg20
I01
sg21
g56
sba(imyEvolve
Tree
p1540
(dp1541
g51
(imyEvolve
Tree
p1542
(dp1543
g51
(imyEvolve
Tree
p1544
(dp1545
g51
(imyEvolve
Tree
p1546
(dp1547
g51
(imyEvolve
Tree
p1548
(dp1549
g7
I0
sg15
F1.1789170184378497
sg16
I01
sbsg7
I1
sg20
I01
sg21
g57
sbsg7
I2
sg20
I01
sg21
g57
sbsg7
I3
sg20
I01
sg21
g57
sbsg7
I4
sg20
I01
sg21
g97
sba(imyEvolve
Tree
p1550
(dp1551
g7
I2
sg8
(imyEvolve
Tree
p1552
(dp1553
g51
(imyEvolve
Tree
p1554
(dp1555
g7
I0
sg15
F3.878665101120623
sg16
I01
sbsg7
I1
sg20
I01
sg21
g57
sbsg17
(imyEvolve
Tree
p1556
(dp1557
g7
I1
sg8
(imyEvolve
Tree
p1558
(dp1559
g7
I0
sg16
I00
sbsg17
(imyEvolve
Tree
p1560
(dp1561
g7
I0
sg16
I00
sbsg20
I00
sg21
g22
sbsg20
I00
sg21
g22
sba(imyEvolve
Tree
p1562
(dp1563
g51
(imyEvolve
Tree
p1564
(dp1565
g7
I2
sg8
(imyEvolve
Tree
p1566
(dp1567
g51
(imyEvolve
Tree
p1568
(dp1569
g7
I0
sg16
I00
sbsg7
I1
sg20
I01
sg21
g66
sbsg17
(imyEvolve
Tree
p1570
(dp1571
g7
I1
sg8
(imyEvolve
Tree
p1572
(dp1573
g7
I0
sg15
F1.4483733547112818
sg16
I01
sbsg17
(imyEvolve
Tree
p1574
(dp1575
g7
I0
sg16
I00
sbsg20
I00
sg21
g29
sbsg20
I00
sg21
g38
sbsg7
I3
sg20
I01
sg21
g57
sba(imyEvolve
Tree
p1576
(dp1577
g7
I4
sg8
(imyEvolve
Tree
p1578
(dp1579
g7
I3
sg8
(imyEvolve
Tree
p1580
(dp1581
g7
I2
sg8
(imyEvolve
Tree
p1582
(dp1583
g51
(imyEvolve
Tree
p1584
(dp1585
g7
I0
sg15
F4.980854724624354
sg16
I01
sbsg7
I1
sg20
I01
sg21
g57
sbsg17
(imyEvolve
Tree
p1586
(dp1587
g7
I1
sg8
(imyEvolve
Tree
p1588
(dp1589
g7
I0
sg16
I00
sbsg17
(imyEvolve
Tree
p1590
(dp1591
g7
I0
sg15
F4.683151648574622
sg16
I01
sbsg20
I00
sg21
g29
sbsg20
I00
sg21
g22
sbsg17
(imyEvolve
Tree
p1592
(dp1593
g7
I2
sg8
(imyEvolve
Tree
p1594
(dp1595
g7
I1
sg8
(imyEvolve
Tree
p1596
(dp1597
g7
I0
sg16
I00
sbsg17
(imyEvolve
Tree
p1598
(dp1599
g7
I0
sg16
I00
sbsg20
I00
sg21
g22
sbsg17
(imyEvolve
Tree
p1600
(dp1601
g51
(imyEvolve
Tree
p1602
(dp1603
g7
I0
sg15
F-4.69887954350142
sg16
I01
sbsg7
I1
sg20
I01
sg21
g97
sbsg20
I00
sg21
g38
sbsg20
I00
sg21
g29
sbsg17
(imyEvolve
Tree
p1604
(dp1605
g7
I3
sg8
(imyEvolve
Tree
p1606
(dp1607
g7
I2
sg8
(imyEvolve
Tree
p1608
(dp1609
g51
(imyEvolve
Tree
p1610
(dp1611
g7
I0
sg16
I00
sbsg7
I1
sg20
I01
sg21
g97
sbsg17
(imyEvolve
Tree
p1612
(dp1613
g7
I1
sg8
(imyEvolve
Tree
p1614
(dp1615
g7
I0
sg15
F-4.653168720015934
sg16
I01
sbsg17
(imyEvolve
Tree
p1616
(dp1617
g7
I0
sg16
I00
sbsg20
I00
sg21
g29
sbsg20
I00
sg21
g38
sbsg17
(imyEvolve
Tree
p1618
(dp1619
g51
(imyEvolve
Tree
p1620
(dp1621
g51
(imyEvolve
Tree
p1622
(dp1623
g7
I0
sg15
F1.1972628452343503
sg16
I01
sbsg7
I1
sg20
I01
sg21
g97
sbsg7
I2
sg20
I01
sg21
g97
sbsg20
I00
sg21
g29
sbsg20
I00
sg21
g38
sba(imyEvolve
Tree
p1624
(dp1625
g51
(imyEvolve
Tree
p1626
(dp1627
g7
I1
sg8
(imyEvolve
Tree
p1628
(dp1629
g7
I0
sg16
I00
sbsg17
(imyEvolve
Tree
p1630
(dp1631
g7
I0
sg16
I00
sbsg20
I00
sg21
g29
sbsg7
I2
sg20
I01
sg21
g66
sba(imyEvolve
Tree
p1632
(dp1633
g7
I4
sg8
(imyEvolve
Tree
p1634
(dp1635
g7
I3
sg8
(imyEvolve
Tree
p1636
(dp1637
g51
(imyEvolve
Tree
p1638
(dp1639
g7
I1
sg8
(imyEvolve
Tree
p1640
(dp1641
g7
I0
sg15
F3.054342436015496
sg16
I01
sbsg17
(imyEvolve
Tree
p1642
(dp1643
g7
I0
sg15
F-1.8114449622267061
sg16
I01
sbsg20
I00
sg21
g22
sbsg7
I2
sg20
I01
sg21
g56
sbsg17
(imyEvolve
Tree
p1644
(dp1645
g51
(imyEvolve
Tree
p1646
(dp1647
g51
(imyEvolve
Tree
p1648
(dp1649
g7
I0
sg16
I00
sbsg7
I1
sg20
I01
sg21
g57
sbsg7
I2
sg20
I01
sg21
g66
sbsg20
I00
sg21
g29
sbsg17
(imyEvolve
Tree
p1650
(dp1651
g51
(imyEvolve
Tree
p1652
(dp1653
g7
I2
sg8
(imyEvolve
Tree
p1654
(dp1655
g51
(imyEvolve
Tree
p1656
(dp1657
g7
I0
sg15
F-4.491738292092515
sg16
I01
sbsg7
I1
sg20
I01
sg21
g66
sbsg17
(imyEvolve
Tree
p1658
(dp1659
g51
(imyEvolve
Tree
p1660
(dp1661
g7
I0
sg15
F3.6556116692709946
sg16
I01
sbsg7
I1
sg20
I01
sg21
g56
sbsg20
I00
sg21
g29
sbsg7
I3
sg20
I01
sg21
g66
sbsg20
I00
sg21
g38
sbaasS'weightSharing'
p1662
(lp1663
I00
asS'fitnessValid'
p1664
I00
sS'fitness'
p1665
cnumpy.core.multiarray
scalar
p1666
(cnumpy
dtype
p1667
(S'f8'
p1668
I0
I1
tp1669
Rp1670
(I3
S'<'
p1671
NNNI-1
I-1
I0
tp1672
bS'\xeeZB\xb6\x95#\xe6?'
p1673
tp1674
Rp1675
sS'alpha'
p1676
F0.007070443247295144
sS'resolution'
p1677
I95
sb.