(imyEvolve
Individual
p0
(dp1
S'funcs'
p2
(lp3
(lp4
(imyEvolve
Tree
p5
(dp6
S'depth'
p7
I5
sS'left'
p8
(imyEvolve
Tree
p9
(dp10
g7
I4
sg8
(imyEvolve
Tree
p11
(dp12
S'below'
p13
(imyEvolve
Tree
p14
(dp15
g13
(imyEvolve
Tree
p16
(dp17
g7
I1
sg8
(imyEvolve
Tree
p18
(dp19
g7
I0
sS'constant'
p20
F-0.820905403248271
sS'isConstant'
p21
I01
sbsS'right'
p22
(imyEvolve
Tree
p23
(dp24
g7
I0
sg21
I00
sbsS'single'
p25
I00
sS'op'
p26
coperator
sub
p27
sbsg7
I2
sg25
I01
sg26
cmyEvolve
absSqrt
p28
sbsg7
I3
sg25
I01
sg26
cmath
cos
p29
sbsg22
(imyEvolve
Tree
p30
(dp31
g13
(imyEvolve
Tree
p32
(dp33
g7
I2
sg8
(imyEvolve
Tree
p34
(dp35
g13
(imyEvolve
Tree
p36
(dp37
g7
I0
sg20
F-2.4024472704446556
sg21
I01
sbsg7
I1
sg25
I01
sg26
cmyEvolve
square
p38
sbsg22
(imyEvolve
Tree
p39
(dp40
g13
(imyEvolve
Tree
p41
(dp42
g7
I0
sg20
F-2.266019131571423
sg21
I01
sbsg7
I1
sg25
I01
sg26
cmath
sin
p43
sbsg25
I00
sg26
coperator
add
p44
sbsg7
I3
sg25
I01
sg26
g43
sbsg25
I00
sg26
g27
sbsg22
(imyEvolve
Tree
p45
(dp46
g13
(imyEvolve
Tree
p47
(dp48
g7
I3
sg8
(imyEvolve
Tree
p49
(dp50
g13
(imyEvolve
Tree
p51
(dp52
g7
I1
sg8
(imyEvolve
Tree
p53
(dp54
g7
I0
sg21
I00
sbsg22
(imyEvolve
Tree
p55
(dp56
g7
I0
sg20
F-4.478477798029309
sg21
I01
sbsg25
I00
sg26
coperator
mul
p57
sbsg7
I2
sg25
I01
sg26
g38
sbsg22
(imyEvolve
Tree
p58
(dp59
g13
(imyEvolve
Tree
p60
(dp61
g7
I1
sg8
(imyEvolve
Tree
p62
(dp63
g7
I0
sg20
F1.3568793180248306
sg21
I01
sbsg22
(imyEvolve
Tree
p64
(dp65
g7
I0
sg20
F0.06625150833711224
sg21
I01
sbsg25
I00
sg26
g27
sbsg7
I2
sg25
I01
sg26
g43
sbsg25
I00
sg26
g27
sbsg7
I4
sg25
I01
sg26
g43
sbsg25
I00
sg26
g57
sba(imyEvolve
Tree
p66
(dp67
g7
I2
sg8
(imyEvolve
Tree
p68
(dp69
g7
I1
sg8
(imyEvolve
Tree
p70
(dp71
g7
I0
sg21
I00
sbsg22
(imyEvolve
Tree
p72
(dp73
g7
I0
sg21
I00
sbsg25
I00
sg26
g27
sbsg22
(imyEvolve
Tree
p74
(dp75
g7
I1
sg8
(imyEvolve
Tree
p76
(dp77
g7
I0
sg21
I00
sbsg22
(imyEvolve
Tree
p78
(dp79
g7
I0
sg20
F-4.384392888440284
sg21
I01
sbsg25
I00
sg26
g57
sbsg25
I00
sg26
g57
sba(imyEvolve
Tree
p80
(dp81
g7
I2
sg8
(imyEvolve
Tree
p82
(dp83
g7
I1
sg8
(imyEvolve
Tree
p84
(dp85
g7
I0
sg21
I00
sbsg22
(imyEvolve
Tree
p86
(dp87
g7
I0
sg21
I00
sbsg25
I00
sg26
g27
sbsg22
(imyEvolve
Tree
p88
(dp89
g7
I1
sg8
(imyEvolve
Tree
p90
(dp91
g7
I0
sg21
I00
sbsg22
(imyEvolve
Tree
p92
(dp93
g7
I0
sg20
F1.1997862212991812
sg21
I01
sbsg25
I00
sg26
g57
sbsg25
I00
sg26
g44
sba(imyEvolve
Tree
p94
(dp95
g13
(imyEvolve
Tree
p96
(dp97
g7
I2
sg8
(imyEvolve
Tree
p98
(dp99
g7
I1
sg8
(imyEvolve
Tree
p100
(dp101
g7
I0
sg20
F0.36826992967050387
sg21
I01
sbsg22
(imyEvolve
Tree
p102
(dp103
g7
I0
sg20
F4.856780197386492
sg21
I01
sbsg25
I00
sg26
g27
sbsg22
(imyEvolve
Tree
p104
(dp105
g7
I1
sg8
(imyEvolve
Tree
p106
(dp107
g7
I0
sg20
F-0.5563782429086759
sg21
I01
sbsg22
(imyEvolve
Tree
p108
(dp109
g7
I0
sg20
F3.779247722163099
sg21
I01
sbsg25
I00
sg26
g57
sbsg25
I00
sg26
g27
sbsg7
I3
sg25
I01
sg26
g43
sba(imyEvolve
Tree
p110
(dp111
g7
I3
sg8
(imyEvolve
Tree
p112
(dp113
g13
(imyEvolve
Tree
p114
(dp115
g13
(imyEvolve
Tree
p116
(dp117
g7
I0
sg20
F-0.10252813506873082
sg21
I01
sbsg7
I1
sg25
I01
sg26
g38
sbsg7
I2
sg25
I01
sg26
g38
sbsg22
(imyEvolve
Tree
p118
(dp119
g13
(imyEvolve
Tree
p120
(dp121
g7
I1
sg8
(imyEvolve
Tree
p122
(dp123
g7
I0
sg20
F0.06713501900660557
sg21
I01
sbsg22
(imyEvolve
Tree
p124
(dp125
g7
I0
sg20
F-2.2308556886165753
sg21
I01
sbsg25
I00
sg26
g44
sbsg7
I2
sg25
I01
sg26
g43
sbsg25
I00
sg26
g27
sba(imyEvolve
Tree
p126
(dp127
g13
(imyEvolve
Tree
p128
(dp129
g13
(imyEvolve
Tree
p130
(dp131
g13
(imyEvolve
Tree
p132
(dp133
g7
I1
sg8
(imyEvolve
Tree
p134
(dp135
g7
I0
sg21
I00
sbsg22
(imyEvolve
Tree
p136
(dp137
g7
I0
sg20
F-1.8173678789600798
sg21
I01
sbsg25
I00
sg26
g57
sbsg7
I2
sg25
I01
sg26
g43
sbsg7
I3
sg25
I01
sg26
g43
sbsg7
I4
sg25
I01
sg26
g38
sba(imyEvolve
Tree
p138
(dp139
g13
(imyEvolve
Tree
p140
(dp141
g13
(imyEvolve
Tree
p142
(dp143
g7
I2
sg8
(imyEvolve
Tree
p144
(dp145
g7
I1
sg8
(imyEvolve
Tree
p146
(dp147
g7
I0
sg20
F2.4161430021550787
sg21
I01
sbsg22
(imyEvolve
Tree
p148
(dp149
g7
I0
sg20
F-3.4231197917564096
sg21
I01
sbsg25
I00
sg26
g44
sbsg22
(imyEvolve
Tree
p150
(dp151
g7
I1
sg8
(imyEvolve
Tree
p152
(dp153
g7
I0
sg21
I00
sbsg22
(imyEvolve
Tree
p154
(dp155
g7
I0
sg20
F0.4134078578935956
sg21
I01
sbsg25
I00
sg26
g27
sbsg25
I00
sg26
g27
sbsg7
I3
sg25
I01
sg26
g29
sbsg7
I4
sg25
I01
sg26
g29
sba(imyEvolve
Tree
p156
(dp157
g13
(imyEvolve
Tree
p158
(dp159
g13
(imyEvolve
Tree
p160
(dp161
g13
(imyEvolve
Tree
p162
(dp163
g7
I2
sg8
(imyEvolve
Tree
p164
(dp165
g13
(imyEvolve
Tree
p166
(dp167
g7
I0
sg20
F-1.5266529772187711
sg21
I01
sbsg7
I1
sg25
I01
sg26
g29
sbsg22
(imyEvolve
Tree
p168
(dp169
g7
I1
sg8
(imyEvolve
Tree
p170
(dp171
g7
I0
sg20
F2.490962801265403
sg21
I01
sbsg22
(imyEvolve
Tree
p172
(dp173
g7
I0
sg21
I00
sbsg25
I00
sg26
g27
sbsg25
I00
sg26
g44
sbsg7
I3
sg25
I01
sg26
g43
sbsg7
I4
sg25
I01
sg26
g28
sbsg7
I5
sg25
I01
sg26
g28
sba(imyEvolve
Tree
p174
(dp175
g13
(imyEvolve
Tree
p176
(dp177
g13
(imyEvolve
Tree
p178
(dp179
g7
I1
sg8
(imyEvolve
Tree
p180
(dp181
g7
I0
sg21
I00
sbsg22
(imyEvolve
Tree
p182
(dp183
g7
I0
sg20
F0.12237748139200111
sg21
I01
sbsg25
I00
sg26
g57
sbsg7
I2
sg25
I01
sg26
g43
sbsg7
I3
sg25
I01
sg26
g28
sba(imyEvolve
Tree
p184
(dp185
g7
I5
sg8
(imyEvolve
Tree
p186
(dp187
g7
I4
sg8
(imyEvolve
Tree
p188
(dp189
g7
I3
sg8
(imyEvolve
Tree
p190
(dp191
g7
I2
sg8
(imyEvolve
Tree
p192
(dp193
g13
(imyEvolve
Tree
p194
(dp195
g7
I0
sg21
I00
sbsg7
I1
sg25
I01
sg26
g28
sbsg22
(imyEvolve
Tree
p196
(dp197
g7
I1
sg8
(imyEvolve
Tree
p198
(dp199
g7
I0
sg20
F3.24573270997651
sg21
I01
sbsg22
(imyEvolve
Tree
p200
(dp201
g7
I0
sg21
I00
sbsg25
I00
sg26
g57
sbsg25
I00
sg26
g57
sbsg22
(imyEvolve
Tree
p202
(dp203
g13
(imyEvolve
Tree
p204
(dp205
g13
(imyEvolve
Tree
p206
(dp207
g7
I0
sg21
I00
sbsg7
I1
sg25
I01
sg26
g28
sbsg7
I2
sg25
I01
sg26
g29
sbsg25
I00
sg26
g57
sbsg22
(imyEvolve
Tree
p208
(dp209
g13
(imyEvolve
Tree
p210
(dp211
g13
(imyEvolve
Tree
p212
(dp213
g7
I1
sg8
(imyEvolve
Tree
p214
(dp215
g7
I0
sg21
I00
sbsg22
(imyEvolve
Tree
p216
(dp217
g7
I0
sg21
I00
sbsg25
I00
sg26
g57
sbsg7
I2
sg25
I01
sg26
g29
sbsg7
I3
sg25
I01
sg26
g38
sbsg25
I00
sg26
g44
sbsg22
(imyEvolve
Tree
p218
(dp219
g7
I4
sg8
(imyEvolve
Tree
p220
(dp221
g7
I3
sg8
(imyEvolve
Tree
p222
(dp223
g13
(imyEvolve
Tree
p224
(dp225
g13
(imyEvolve
Tree
p226
(dp227
g7
I0
sg21
I00
sbsg7
I1
sg25
I01
sg26
g38
sbsg7
I2
sg25
I01
sg26
g38
sbsg22
(imyEvolve
Tree
p228
(dp229
g7
I2
sg8
(imyEvolve
Tree
p230
(dp231
g13
(imyEvolve
Tree
p232
(dp233
g7
I0
sg21
I00
sbsg7
I1
sg25
I01
sg26
g38
sbsg22
(imyEvolve
Tree
p234
(dp235
g7
I1
sg8
(imyEvolve
Tree
p236
(dp237
g7
I0
sg20
F-4.3509255633618515
sg21
I01
sbsg22
(imyEvolve
Tree
p238
(dp239
g7
I0
sg20
F1.2824754600024848
sg21
I01
sbsg25
I00
sg26
g27
sbsg25
I00
sg26
g57
sbsg25
I00
sg26
g57
sbsg22
(imyEvolve
Tree
p240
(dp241
g7
I3
sg8
(imyEvolve
Tree
p242
(dp243
g13
(imyEvolve
Tree
p244
(dp245
g13
(imyEvolve
Tree
p246
(dp247
g7
I0
sg20
F-4.185139649671111
sg21
I01
sbsg7
I1
sg25
I01
sg26
g28
sbsg7
I2
sg25
I01
sg26
g29
sbsg22
(imyEvolve
Tree
p248
(dp249
g13
(imyEvolve
Tree
p250
(dp251
g7
I1
sg8
(imyEvolve
Tree
p252
(dp253
g7
I0
sg21
I00
sbsg22
(imyEvolve
Tree
p254
(dp255
g7
I0
sg21
I00
sbsg25
I00
sg26
g27
sbsg7
I2
sg25
I01
sg26
g38
sbsg25
I00
sg26
g57
sbsg25
I00
sg26
g57
sbsg25
I00
sg26
g57
sba(imyEvolve
Tree
p256
(dp257
g7
I5
sg8
(imyEvolve
Tree
p258
(dp259
g13
(imyEvolve
Tree
p260
(dp261
g7
I3
sg8
(imyEvolve
Tree
p262
(dp263
g7
I2
sg8
(imyEvolve
Tree
p264
(dp265
g7
I1
sg8
(imyEvolve
Tree
p266
(dp267
g7
I0
sg20
F2.7746949976859803
sg21
I01
sbsg22
(imyEvolve
Tree
p268
(dp269
g7
I0
sg21
I00
sbsg25
I00
sg26
g44
sbsg22
(imyEvolve
Tree
p270
(dp271
g13
(imyEvolve
Tree
p272
(dp273
g7
I0
sg21
I00
sbsg7
I1
sg25
I01
sg26
g28
sbsg25
I00
sg26
g27
sbsg22
(imyEvolve
Tree
p274
(dp275
g7
I2
sg8
(imyEvolve
Tree
p276
(dp277
g13
(imyEvolve
Tree
p278
(dp279
g7
I0
sg20
F-4.768783910567037
sg21
I01
sbsg7
I1
sg25
I01
sg26
g38
sbsg22
(imyEvolve
Tree
p280
(dp281
g7
I1
sg8
(imyEvolve
Tree
p282
(dp283
g7
I0
sg20
F2.384247655211743
sg21
I01
sbsg22
(imyEvolve
Tree
p284
(dp285
g7
I0
sg21
I00
sbsg25
I00
sg26
g57
sbsg25
I00
sg26
g44
sbsg25
I00
sg26
g27
sbsg7
I4
sg25
I01
sg26
g38
sbsg22
(imyEvolve
Tree
p286
(dp287
g7
I4
sg8
(imyEvolve
Tree
p288
(dp289
g13
(imyEvolve
Tree
p290
(dp291
g7
I2
sg8
(imyEvolve
Tree
p292
(dp293
g13
(imyEvolve
Tree
p294
(dp295
g7
I0
sg20
F-2.7249123333054026
sg21
I01
sbsg7
I1
sg25
I01
sg26
g28
sbsg22
(imyEvolve
Tree
p296
(dp297
g7
I1
sg8
(imyEvolve
Tree
p298
(dp299
g7
I0
sg21
I00
sbsg22
(imyEvolve
Tree
p300
(dp301
g7
I0
sg21
I00
sbsg25
I00
sg26
g44
sbsg25
I00
sg26
g27
sbsg7
I3
sg25
I01
sg26
g43
sbsg22
(imyEvolve
Tree
p302
(dp303
g7
I3
sg8
(imyEvolve
Tree
p304
(dp305
g7
I2
sg8
(imyEvolve
Tree
p306
(dp307
g7
I1
sg8
(imyEvolve
Tree
p308
(dp309
g7
I0
sg21
I00
sbsg22
(imyEvolve
Tree
p310
(dp311
g7
I0
sg21
I00
sbsg25
I00
sg26
g57
sbsg22
(imyEvolve
Tree
p312
(dp313
g7
I1
sg8
(imyEvolve
Tree
p314
(dp315
g7
I0
sg20
F2.5575712281821597
sg21
I01
sbsg22
(imyEvolve
Tree
p316
(dp317
g7
I0
sg20
F-4.961776845963003
sg21
I01
sbsg25
I00
sg26
g27
sbsg25
I00
sg26
g57
sbsg22
(imyEvolve
Tree
p318
(dp319
g13
(imyEvolve
Tree
p320
(dp321
g7
I1
sg8
(imyEvolve
Tree
p322
(dp323
g7
I0
sg20
F2.532426366718431
sg21
I01
sbsg22
(imyEvolve
Tree
p324
(dp325
g7
I0
sg20
F4.831853756481889
sg21
I01
sbsg25
I00
sg26
g27
sbsg7
I2
sg25
I01
sg26
g28
sbsg25
I00
sg26
g27
sbsg25
I00
sg26
g27
sbsg25
I00
sg26
g27
sba(imyEvolve
Tree
p326
(dp327
g7
I4
sg8
(imyEvolve
Tree
p328
(dp329
g7
I3
sg8
(imyEvolve
Tree
p330
(dp331
g7
I2
sg8
(imyEvolve
Tree
p332
(dp333
g13
(imyEvolve
Tree
p334
(dp335
g7
I0
sg20
F-2.540485090379707
sg21
I01
sbsg7
I1
sg25
I01
sg26
g28
sbsg22
(imyEvolve
Tree
p336
(dp337
g13
(imyEvolve
Tree
p338
(dp339
g7
I0
sg20
F-1.4904376319115045
sg21
I01
sbsg7
I1
sg25
I01
sg26
g43
sbsg25
I00
sg26
g44
sbsg22
(imyEvolve
Tree
p340
(dp341
g13
(imyEvolve
Tree
p342
(dp343
g7
I1
sg8
(imyEvolve
Tree
p344
(dp345
g7
I0
sg21
I00
sbsg22
(imyEvolve
Tree
p346
(dp347
g7
I0
sg20
F-2.2459016666025944
sg21
I01
sbsg25
I00
sg26
g44
sbsg7
I2
sg25
I01
sg26
g43
sbsg25
I00
sg26
g57
sbsg22
(imyEvolve
Tree
p348
(dp349
g13
(imyEvolve
Tree
p350
(dp351
g13
(imyEvolve
Tree
p352
(dp353
g13
(imyEvolve
Tree
p354
(dp355
g7
I0
sg20
F-2.8656185528392273
sg21
I01
sbsg7
I1
sg25
I01
sg26
g43
sbsg7
I2
sg25
I01
sg26
g43
sbsg7
I3
sg25
I01
sg26
g29
sbsg25
I00
sg26
g27
sba(imyEvolve
Tree
p356
(dp357
g13
(imyEvolve
Tree
p358
(dp359
g7
I3
sg8
(imyEvolve
Tree
p360
(dp361
g13
(imyEvolve
Tree
p362
(dp363
g7
I1
sg8
(imyEvolve
Tree
p364
(dp365
g7
I0
sg20
F3.7580148290723816
sg21
I01
sbsg22
(imyEvolve
Tree
p366
(dp367
g7
I0
sg21
I00
sbsg25
I00
sg26
g44
sbsg7
I2
sg25
I01
sg26
g28
sbsg22
(imyEvolve
Tree
p368
(dp369
g7
I2
sg8
(imyEvolve
Tree
p370
(dp371
g7
I1
sg8
(imyEvolve
Tree
p372
(dp373
g7
I0
sg21
I00
sbsg22
(imyEvolve
Tree
p374
(dp375
g7
I0
sg20
F4.258500687547135
sg21
I01
sbsg25
I00
sg26
g27
sbsg22
(imyEvolve
Tree
p376
(dp377
g13
(imyEvolve
Tree
p378
(dp379
g7
I0
sg21
I00
sbsg7
I1
sg25
I01
sg26
g43
sbsg25
I00
sg26
g44
sbsg25
I00
sg26
g44
sbsg7
I4
sg25
I01
sg26
g43
sba(imyEvolve
Tree
p380
(dp381
g13
(imyEvolve
Tree
p382
(dp383
g13
(imyEvolve
Tree
p384
(dp385
g7
I3
sg8
(imyEvolve
Tree
p386
(dp387
g13
(imyEvolve
Tree
p388
(dp389
g13
(imyEvolve
Tree
p390
(dp391
g7
I0
sg21
I00
sbsg7
I1
sg25
I01
sg26
g43
sbsg7
I2
sg25
I01
sg26
g38
sbsg22
(imyEvolve
Tree
p392
(dp393
g7
I2
sg8
(imyEvolve
Tree
p394
(dp395
g13
(imyEvolve
Tree
p396
(dp397
g7
I0
sg20
F-4.496614673175651
sg21
I01
sbsg7
I1
sg25
I01
sg26
g28
sbsg22
(imyEvolve
Tree
p398
(dp399
g13
(imyEvolve
Tree
p400
(dp401
g7
I0
sg21
I00
sbsg7
I1
sg25
I01
sg26
g28
sbsg25
I00
sg26
g27
sbsg25
I00
sg26
g44
sbsg7
I4
sg25
I01
sg26
g43
sbsg7
I5
sg25
I01
sg26
g28
sba(imyEvolve
Tree
p402
(dp403
g7
I5
sg8
(imyEvolve
Tree
p404
(dp405
g7
I4
sg8
(imyEvolve
Tree
p406
(dp407
g13
(imyEvolve
Tree
p408
(dp409
g7
I2
sg8
(imyEvolve
Tree
p410
(dp411
g13
(imyEvolve
Tree
p412
(dp413
g7
I0
sg21
I00
sbsg7
I1
sg25
I01
sg26
g29
sbsg22
(imyEvolve
Tree
p414
(dp415
g7
I1
sg8
(imyEvolve
Tree
p416
(dp417
g7
I0
sg20
F-0.32993897016716645
sg21
I01
sbsg22
(imyEvolve
Tree
p418
(dp419
g7
I0
sg20
F-2.76741041531153
sg21
I01
sbsg25
I00
sg26
g44
sbsg25
I00
sg26
g44
sbsg7
I3
sg25
I01
sg26
g29
sbsg22
(imyEvolve
Tree
p420
(dp421
g7
I3
sg8
(imyEvolve
Tree
p422
(dp423
g13
(imyEvolve
Tree
p424
(dp425
g13
(imyEvolve
Tree
p426
(dp427
g7
I0
sg21
I00
sbsg7
I1
sg25
I01
sg26
g28
sbsg7
I2
sg25
I01
sg26
g28
sbsg22
(imyEvolve
Tree
p428
(dp429
g13
(imyEvolve
Tree
p430
(dp431
g13
(imyEvolve
Tree
p432
(dp433
g7
I0
sg20
F0.6165397513670925
sg21
I01
sbsg7
I1
sg25
I01
sg26
g43
sbsg7
I2
sg25
I01
sg26
g28
sbsg25
I00
sg26
g44
sbsg25
I00
sg26
g57
sbsg22
(imyEvolve
Tree
p434
(dp435
g7
I4
sg8
(imyEvolve
Tree
p436
(dp437
g13
(imyEvolve
Tree
p438
(dp439
g7
I2
sg8
(imyEvolve
Tree
p440
(dp441
g7
I1
sg8
(imyEvolve
Tree
p442
(dp443
g7
I0
sg20
F1.1722639674977833
sg21
I01
sbsg22
(imyEvolve
Tree
p444
(dp445
g7
I0
sg21
I00
sbsg25
I00
sg26
g27
sbsg22
(imyEvolve
Tree
p446
(dp447
g7
I1
sg8
(imyEvolve
Tree
p448
(dp449
g7
I0
sg20
F-2.5237432323124565
sg21
I01
sbsg22
(imyEvolve
Tree
p450
(dp451
g7
I0
sg20
F-0.9374002308326759
sg21
I01
sbsg25
I00
sg26
g57
sbsg25
I00
sg26
g44
sbsg7
I3
sg25
I01
sg26
g38
sbsg22
(imyEvolve
Tree
p452
(dp453
g13
(imyEvolve
Tree
p454
(dp455
g7
I2
sg8
(imyEvolve
Tree
p456
(dp457
g13
(imyEvolve
Tree
p458
(dp459
g7
I0
sg20
F-3.9657103343705313
sg21
I01
sbsg7
I1
sg25
I01
sg26
g43
sbsg22
(imyEvolve
Tree
p460
(dp461
g7
I1
sg8
(imyEvolve
Tree
p462
(dp463
g7
I0
sg20
F-4.129501668406897
sg21
I01
sbsg22
(imyEvolve
Tree
p464
(dp465
g7
I0
sg21
I00
sbsg25
I00
sg26
g27
sbsg25
I00
sg26
g57
sbsg7
I3
sg25
I01
sg26
g38
sbsg25
I00
sg26
g27
sbsg25
I00
sg26
g27
sba(imyEvolve
Tree
p466
(dp467
g13
(imyEvolve
Tree
p468
(dp469
g7
I3
sg8
(imyEvolve
Tree
p470
(dp471
g13
(imyEvolve
Tree
p472
(dp473
g7
I1
sg8
(imyEvolve
Tree
p474
(dp475
g7
I0
sg21
I00
sbsg22
(imyEvolve
Tree
p476
(dp477
g7
I0
sg21
I00
sbsg25
I00
sg26
g27
sbsg7
I2
sg25
I01
sg26
g43
sbsg22
(imyEvolve
Tree
p478
(dp479
g13
(imyEvolve
Tree
p480
(dp481
g13
(imyEvolve
Tree
p482
(dp483
g7
I0
sg20
F3.2715046571225788
sg21
I01
sbsg7
I1
sg25
I01
sg26
g29
sbsg7
I2
sg25
I01
sg26
g38
sbsg25
I00
sg26
g27
sbsg7
I4
sg25
I01
sg26
g29
sba(imyEvolve
Tree
p484
(dp485
g7
I3
sg8
(imyEvolve
Tree
p486
(dp487
g7
I2
sg8
(imyEvolve
Tree
p488
(dp489
g13
(imyEvolve
Tree
p490
(dp491
g7
I0
sg20
F-1.5928010025755048
sg21
I01
sbsg7
I1
sg25
I01
sg26
g29
sbsg22
(imyEvolve
Tree
p492
(dp493
g7
I1
sg8
(imyEvolve
Tree
p494
(dp495
g7
I0
sg20
F-0.2856660002625251
sg21
I01
sbsg22
(imyEvolve
Tree
p496
(dp497
g7
I0
sg20
F4.192145816549843
sg21
I01
sbsg25
I00
sg26
g57
sbsg25
I00
sg26
g27
sbsg22
(imyEvolve
Tree
p498
(dp499
g7
I2
sg8
(imyEvolve
Tree
p500
(dp501
g7
I1
sg8
(imyEvolve
Tree
p502
(dp503
g7
I0
sg20
F4.963102354681556
sg21
I01
sbsg22
(imyEvolve
Tree
p504
(dp505
g7
I0
sg21
I00
sbsg25
I00
sg26
g27
sbsg22
(imyEvolve
Tree
p506
(dp507
g13
(imyEvolve
Tree
p508
(dp509
g7
I0
sg21
I00
sbsg7
I1
sg25
I01
sg26
g43
sbsg25
I00
sg26
g44
sbsg25
I00
sg26
g44
sba(imyEvolve
Tree
p510
(dp511
g7
I4
sg8
(imyEvolve
Tree
p512
(dp513
g13
(imyEvolve
Tree
p514
(dp515
g7
I2
sg8
(imyEvolve
Tree
p516
(dp517
g7
I1
sg8
(imyEvolve
Tree
p518
(dp519
g7
I0
sg20
F3.6998065349877844
sg21
I01
sbsg22
(imyEvolve
Tree
p520
(dp521
g7
I0
sg21
I00
sbsg25
I00
sg26
g44
sbsg22
(imyEvolve
Tree
p522
(dp523
g13
(imyEvolve
Tree
p524
(dp525
g7
I0
sg21
I00
sbsg7
I1
sg25
I01
sg26
g43
sbsg25
I00
sg26
g57
sbsg7
I3
sg25
I01
sg26
g43
sbsg22
(imyEvolve
Tree
p526
(dp527
g7
I3
sg8
(imyEvolve
Tree
p528
(dp529
g13
(imyEvolve
Tree
p530
(dp531
g13
(imyEvolve
Tree
p532
(dp533
g7
I0
sg20
F-2.4011608483995515
sg21
I01
sbsg7
I1
sg25
I01
sg26
g43
sbsg7
I2
sg25
I01
sg26
g43
sbsg22
(imyEvolve
Tree
p534
(dp535
g13
(imyEvolve
Tree
p536
(dp537
g13
(imyEvolve
Tree
p538
(dp539
g7
I0
sg21
I00
sbsg7
I1
sg25
I01
sg26
g28
sbsg7
I2
sg25
I01
sg26
g38
sbsg25
I00
sg26
g44
sbsg25
I00
sg26
g57
sba(imyEvolve
Tree
p540
(dp541
g7
I3
sg8
(imyEvolve
Tree
p542
(dp543
g7
I2
sg8
(imyEvolve
Tree
p544
(dp545
g13
(imyEvolve
Tree
p546
(dp547
g7
I0
sg21
I00
sbsg7
I1
sg25
I01
sg26
g43
sbsg22
(imyEvolve
Tree
p548
(dp549
g13
(imyEvolve
Tree
p550
(dp551
g7
I0
sg21
I00
sbsg7
I1
sg25
I01
sg26
g38
sbsg25
I00
sg26
g44
sbsg22
(imyEvolve
Tree
p552
(dp553
g13
(imyEvolve
Tree
p554
(dp555
g7
I1
sg8
(imyEvolve
Tree
p556
(dp557
g7
I0
sg21
I00
sbsg22
(imyEvolve
Tree
p558
(dp559
g7
I0
sg21
I00
sbsg25
I00
sg26
g27
sbsg7
I2
sg25
I01
sg26
g38
sbsg25
I00
sg26
g27
sbaa(lp560
(imyEvolve
Tree
p561
(dp562
g13
(imyEvolve
Tree
p563
(dp564
g7
I1
sg8
(imyEvolve
Tree
p565
(dp566
g7
I0
sg20
F-4.845945771346235
sg21
I01
sbsg22
(imyEvolve
Tree
p567
(dp568
g7
I0
sg20
F-2.649149601009241
sg21
I01
sbsg25
I00
sg26
g57
sbsg7
I2
sg25
I01
sg26
g38
sba(imyEvolve
Tree
p569
(dp570
g7
I2
sg8
(imyEvolve
Tree
p571
(dp572
g13
(imyEvolve
Tree
p573
(dp574
g7
I0
sg20
F-1.2821020582512679
sg21
I01
sbsg7
I1
sg25
I01
sg26
g43
sbsg22
(imyEvolve
Tree
p575
(dp576
g7
I1
sg8
(imyEvolve
Tree
p577
(dp578
g7
I0
sg21
I00
sbsg22
(imyEvolve
Tree
p579
(dp580
g7
I0
sg21
I00
sbsg25
I00
sg26
g57
sbsg25
I00
sg26
g44
sba(imyEvolve
Tree
p581
(dp582
g7
I5
sg8
(imyEvolve
Tree
p583
(dp584
g13
(imyEvolve
Tree
p585
(dp586
g7
I3
sg8
(imyEvolve
Tree
p587
(dp588
g13
(imyEvolve
Tree
p589
(dp590
g13
(imyEvolve
Tree
p591
(dp592
g7
I0
sg20
F-2.938164790465466
sg21
I01
sbsg7
I1
sg25
I01
sg26
g38
sbsg7
I2
sg25
I01
sg26
g38
sbsg22
(imyEvolve
Tree
p593
(dp594
g7
I2
sg8
(imyEvolve
Tree
p595
(dp596
g7
I1
sg8
(imyEvolve
Tree
p597
(dp598
g7
I0
sg21
I00
sbsg22
(imyEvolve
Tree
p599
(dp600
g7
I0
sg21
I00
sbsg25
I00
sg26
g44
sbsg22
(imyEvolve
Tree
p601
(dp602
g7
I1
sg8
(imyEvolve
Tree
p603
(dp604
g7
I0
sg21
I00
sbsg22
(imyEvolve
Tree
p605
(dp606
g7
I0
sg20
F1.4930045785161639
sg21
I01
sbsg25
I00
sg26
g27
sbsg25
I00
sg26
g57
sbsg25
I00
sg26
g57
sbsg7
I4
sg25
I01
sg26
g29
sbsg22
(imyEvolve
Tree
p607
(dp608
g7
I4
sg8
(imyEvolve
Tree
p609
(dp610
g7
I3
sg8
(imyEvolve
Tree
p611
(dp612
g7
I2
sg8
(imyEvolve
Tree
p613
(dp614
g7
I1
sg8
(imyEvolve
Tree
p615
(dp616
g7
I0
sg21
I00
sbsg22
(imyEvolve
Tree
p617
(dp618
g7
I0
sg20
F-1.332231302334356
sg21
I01
sbsg25
I00
sg26
g44
sbsg22
(imyEvolve
Tree
p619
(dp620
g13
(imyEvolve
Tree
p621
(dp622
g7
I0
sg21
I00
sbsg7
I1
sg25
I01
sg26
g43
sbsg25
I00
sg26
g44
sbsg22
(imyEvolve
Tree
p623
(dp624
g13
(imyEvolve
Tree
p625
(dp626
g13
(imyEvolve
Tree
p627
(dp628
g7
I0
sg20
F3.7326041807392603
sg21
I01
sbsg7
I1
sg25
I01
sg26
g28
sbsg7
I2
sg25
I01
sg26
g28
sbsg25
I00
sg26
g57
sbsg22
(imyEvolve
Tree
p629
(dp630
g13
(imyEvolve
Tree
p631
(dp632
g7
I2
sg8
(imyEvolve
Tree
p633
(dp634
g7
I1
sg8
(imyEvolve
Tree
p635
(dp636
g7
I0
sg20
F4.527674165386712
sg21
I01
sbsg22
(imyEvolve
Tree
p637
(dp638
g7
I0
sg20
F-2.2994389364527414
sg21
I01
sbsg25
I00
sg26
g57
sbsg22
(imyEvolve
Tree
p639
(dp640
g7
I1
sg8
(imyEvolve
Tree
p641
(dp642
g7
I0
sg20
F-2.2359464661349406
sg21
I01
sbsg22
(imyEvolve
Tree
p643
(dp644
g7
I0
sg20
F4.730216095558525
sg21
I01
sbsg25
I00
sg26
g57
sbsg25
I00
sg26
g27
sbsg7
I3
sg25
I01
sg26
g29
sbsg25
I00
sg26
g44
sbsg25
I00
sg26
g57
sba(imyEvolve
Tree
p645
(dp646
g13
(imyEvolve
Tree
p647
(dp648
g13
(imyEvolve
Tree
p649
(dp650
g13
(imyEvolve
Tree
p651
(dp652
g13
(imyEvolve
Tree
p653
(dp654
g7
I0
sg21
I00
sbsg7
I1
sg25
I01
sg26
g38
sbsg7
I2
sg25
I01
sg26
g28
sbsg7
I3
sg25
I01
sg26
g29
sbsg7
I4
sg25
I01
sg26
g43
sba(imyEvolve
Tree
p655
(dp656
g13
(imyEvolve
Tree
p657
(dp658
g13
(imyEvolve
Tree
p659
(dp660
g7
I0
sg21
I00
sbsg7
I1
sg25
I01
sg26
g38
sbsg7
I2
sg25
I01
sg26
g38
sba(imyEvolve
Tree
p661
(dp662
g7
I4
sg8
(imyEvolve
Tree
p663
(dp664
g7
I3
sg8
(imyEvolve
Tree
p665
(dp666
g13
(imyEvolve
Tree
p667
(dp668
g7
I1
sg8
(imyEvolve
Tree
p669
(dp670
g7
I0
sg21
I00
sbsg22
(imyEvolve
Tree
p671
(dp672
g7
I0
sg21
I00
sbsg25
I00
sg26
g57
sbsg7
I2
sg25
I01
sg26
g38
sbsg22
(imyEvolve
Tree
p673
(dp674
g7
I2
sg8
(imyEvolve
Tree
p675
(dp676
g13
(imyEvolve
Tree
p677
(dp678
g7
I0
sg20
F4.497734608389969
sg21
I01
sbsg7
I1
sg25
I01
sg26
g28
sbsg22
(imyEvolve
Tree
p679
(dp680
g7
I1
sg8
(imyEvolve
Tree
p681
(dp682
g7
I0
sg20
F3.11461189347337
sg21
I01
sbsg22
(imyEvolve
Tree
p683
(dp684
g7
I0
sg20
F-3.0537480652818747
sg21
I01
sbsg25
I00
sg26
g57
sbsg25
I00
sg26
g57
sbsg25
I00
sg26
g57
sbsg22
(imyEvolve
Tree
p685
(dp686
g13
(imyEvolve
Tree
p687
(dp688
g13
(imyEvolve
Tree
p689
(dp690
g7
I1
sg8
(imyEvolve
Tree
p691
(dp692
g7
I0
sg20
F1.9375955660859159
sg21
I01
sbsg22
(imyEvolve
Tree
p693
(dp694
g7
I0
sg21
I00
sbsg25
I00
sg26
g57
sbsg7
I2
sg25
I01
sg26
g28
sbsg7
I3
sg25
I01
sg26
g43
sbsg25
I00
sg26
g27
sba(imyEvolve
Tree
p695
(dp696
g13
(imyEvolve
Tree
p697
(dp698
g13
(imyEvolve
Tree
p699
(dp700
g7
I0
sg21
I00
sbsg7
I1
sg25
I01
sg26
g29
sbsg7
I2
sg25
I01
sg26
g43
sba(imyEvolve
Tree
p701
(dp702
g13
(imyEvolve
Tree
p703
(dp704
g7
I4
sg8
(imyEvolve
Tree
p705
(dp706
g13
(imyEvolve
Tree
p707
(dp708
g7
I2
sg8
(imyEvolve
Tree
p709
(dp710
g13
(imyEvolve
Tree
p711
(dp712
g7
I0
sg21
I00
sbsg7
I1
sg25
I01
sg26
g28
sbsg22
(imyEvolve
Tree
p713
(dp714
g13
(imyEvolve
Tree
p715
(dp716
g7
I0
sg21
I00
sbsg7
I1
sg25
I01
sg26
g29
sbsg25
I00
sg26
g57
sbsg7
I3
sg25
I01
sg26
g38
sbsg22
(imyEvolve
Tree
p717
(dp718
g13
(imyEvolve
Tree
p719
(dp720
g7
I2
sg8
(imyEvolve
Tree
p721
(dp722
g13
(imyEvolve
Tree
p723
(dp724
g7
I0
sg21
I00
sbsg7
I1
sg25
I01
sg26
g43
sbsg22
(imyEvolve
Tree
p725
(dp726
g13
(imyEvolve
Tree
p727
(dp728
g7
I0
sg21
I00
sbsg7
I1
sg25
I01
sg26
g28
sbsg25
I00
sg26
g27
sbsg7
I3
sg25
I01
sg26
g28
sbsg25
I00
sg26
g57
sbsg7
I5
sg25
I01
sg26
g38
sba(imyEvolve
Tree
p729
(dp730
g7
I5
sg8
(imyEvolve
Tree
p731
(dp732
g13
(imyEvolve
Tree
p733
(dp734
g7
I3
sg8
(imyEvolve
Tree
p735
(dp736
g7
I2
sg8
(imyEvolve
Tree
p737
(dp738
g7
I1
sg8
(imyEvolve
Tree
p739
(dp740
g7
I0
sg20
F1.422367847877518
sg21
I01
sbsg22
(imyEvolve
Tree
p741
(dp742
g7
I0
sg21
I00
sbsg25
I00
sg26
g57
sbsg22
(imyEvolve
Tree
p743
(dp744
g7
I1
sg8
(imyEvolve
Tree
p745
(dp746
g7
I0
sg20
F3.1021309285722047
sg21
I01
sbsg22
(imyEvolve
Tree
p747
(dp748
g7
I0
sg20
F1.8726533325518595
sg21
I01
sbsg25
I00
sg26
g44
sbsg25
I00
sg26
g27
sbsg22
(imyEvolve
Tree
p749
(dp750
g13
(imyEvolve
Tree
p751
(dp752
g13
(imyEvolve
Tree
p753
(dp754
g7
I0
sg21
I00
sbsg7
I1
sg25
I01
sg26
g43
sbsg7
I2
sg25
I01
sg26
g29
sbsg25
I00
sg26
g57
sbsg7
I4
sg25
I01
sg26
g43
sbsg22
(imyEvolve
Tree
p755
(dp756
g13
(imyEvolve
Tree
p757
(dp758
g13
(imyEvolve
Tree
p759
(dp760
g13
(imyEvolve
Tree
p761
(dp762
g13
(imyEvolve
Tree
p763
(dp764
g7
I0
sg21
I00
sbsg7
I1
sg25
I01
sg26
g38
sbsg7
I2
sg25
I01
sg26
g28
sbsg7
I3
sg25
I01
sg26
g28
sbsg7
I4
sg25
I01
sg26
g29
sbsg25
I00
sg26
g27
sba(imyEvolve
Tree
p765
(dp766
g7
I4
sg8
(imyEvolve
Tree
p767
(dp768
g7
I3
sg8
(imyEvolve
Tree
p769
(dp770
g13
(imyEvolve
Tree
p771
(dp772
g7
I1
sg8
(imyEvolve
Tree
p773
(dp774
g7
I0
sg20
F1.0119587020304497
sg21
I01
sbsg22
(imyEvolve
Tree
p775
(dp776
g7
I0
sg20
F-4.336403324092059
sg21
I01
sbsg25
I00
sg26
g44
sbsg7
I2
sg25
I01
sg26
g43
sbsg22
(imyEvolve
Tree
p777
(dp778
g13
(imyEvolve
Tree
p779
(dp780
g13
(imyEvolve
Tree
p781
(dp782
g7
I0
sg20
F4.287819345291265
sg21
I01
sbsg7
I1
sg25
I01
sg26
g38
sbsg7
I2
sg25
I01
sg26
g29
sbsg25
I00
sg26
g27
sbsg22
(imyEvolve
Tree
p783
(dp784
g7
I3
sg8
(imyEvolve
Tree
p785
(dp786
g7
I2
sg8
(imyEvolve
Tree
p787
(dp788
g13
(imyEvolve
Tree
p789
(dp790
g7
I0
sg20
F-1.174851890815357
sg21
I01
sbsg7
I1
sg25
I01
sg26
g43
sbsg22
(imyEvolve
Tree
p791
(dp792
g7
I1
sg8
(imyEvolve
Tree
p793
(dp794
g7
I0
sg20
F4.544790417446032
sg21
I01
sbsg22
(imyEvolve
Tree
p795
(dp796
g7
I0
sg20
F3.0250695198739503
sg21
I01
sbsg25
I00
sg26
g27
sbsg25
I00
sg26
g27
sbsg22
(imyEvolve
Tree
p797
(dp798
g7
I2
sg8
(imyEvolve
Tree
p799
(dp800
g7
I1
sg8
(imyEvolve
Tree
p801
(dp802
g7
I0
sg20
F1.4573477107424608
sg21
I01
sbsg22
(imyEvolve
Tree
p803
(dp804
g7
I0
sg20
F-1.55539114555412
sg21
I01
sbsg25
I00
sg26
g27
sbsg22
(imyEvolve
Tree
p805
(dp806
g13
(imyEvolve
Tree
p807
(dp808
g7
I0
sg21
I00
sbsg7
I1
sg25
I01
sg26
g43
sbsg25
I00
sg26
g57
sbsg25
I00
sg26
g27
sbsg25
I00
sg26
g27
sba(imyEvolve
Tree
p809
(dp810
g7
I3
sg8
(imyEvolve
Tree
p811
(dp812
g13
(imyEvolve
Tree
p813
(dp814
g13
(imyEvolve
Tree
p815
(dp816
g7
I0
sg20
F1.6929408264421202
sg21
I01
sbsg7
I1
sg25
I01
sg26
g28
sbsg7
I2
sg25
I01
sg26
g43
sbsg22
(imyEvolve
Tree
p817
(dp818
g13
(imyEvolve
Tree
p819
(dp820
g13
(imyEvolve
Tree
p821
(dp822
g7
I0
sg20
F2.6007867663599926
sg21
I01
sbsg7
I1
sg25
I01
sg26
g38
sbsg7
I2
sg25
I01
sg26
g38
sbsg25
I00
sg26
g57
sba(imyEvolve
Tree
p823
(dp824
g13
(imyEvolve
Tree
p825
(dp826
g13
(imyEvolve
Tree
p827
(dp828
g13
(imyEvolve
Tree
p829
(dp830
g13
(imyEvolve
Tree
p831
(dp832
g7
I0
sg20
F-0.32330899020202786
sg21
I01
sbsg7
I1
sg25
I01
sg26
g43
sbsg7
I2
sg25
I01
sg26
g29
sbsg7
I3
sg25
I01
sg26
g28
sbsg7
I4
sg25
I01
sg26
g43
sba(imyEvolve
Tree
p833
(dp834
g7
I4
sg8
(imyEvolve
Tree
p835
(dp836
g7
I3
sg8
(imyEvolve
Tree
p837
(dp838
g13
(imyEvolve
Tree
p839
(dp840
g13
(imyEvolve
Tree
p841
(dp842
g7
I0
sg20
F2.867117121670865
sg21
I01
sbsg7
I1
sg25
I01
sg26
g38
sbsg7
I2
sg25
I01
sg26
g38
sbsg22
(imyEvolve
Tree
p843
(dp844
g7
I2
sg8
(imyEvolve
Tree
p845
(dp846
g7
I1
sg8
(imyEvolve
Tree
p847
(dp848
g7
I0
sg21
I00
sbsg22
(imyEvolve
Tree
p849
(dp850
g7
I0
sg20
F-0.5096482103935056
sg21
I01
sbsg25
I00
sg26
g57
sbsg22
(imyEvolve
Tree
p851
(dp852
g13
(imyEvolve
Tree
p853
(dp854
g7
I0
sg21
I00
sbsg7
I1
sg25
I01
sg26
g29
sbsg25
I00
sg26
g27
sbsg25
I00
sg26
g57
sbsg22
(imyEvolve
Tree
p855
(dp856
g13
(imyEvolve
Tree
p857
(dp858
g13
(imyEvolve
Tree
p859
(dp860
g7
I1
sg8
(imyEvolve
Tree
p861
(dp862
g7
I0
sg20
F2.252572259569005
sg21
I01
sbsg22
(imyEvolve
Tree
p863
(dp864
g7
I0
sg21
I00
sbsg25
I00
sg26
g57
sbsg7
I2
sg25
I01
sg26
g43
sbsg7
I3
sg25
I01
sg26
g28
sbsg25
I00
sg26
g27
sbaa(lp865
(imyEvolve
Tree
p866
(dp867
g7
I5
sg8
(imyEvolve
Tree
p868
(dp869
g13
(imyEvolve
Tree
p870
(dp871
g13
(imyEvolve
Tree
p872
(dp873
g13
(imyEvolve
Tree
p874
(dp875
g7
I1
sg8
(imyEvolve
Tree
p876
(dp877
g7
I0
sg21
I00
sbsg22
(imyEvolve
Tree
p878
(dp879
g7
I0
sg20
F1.5111061961564856
sg21
I01
sbsg25
I00
sg26
g44
sbsg7
I2
sg25
I01
sg26
g29
sbsg7
I3
sg25
I01
sg26
g43
sbsg7
I4
sg25
I01
sg26
g38
sbsg22
(imyEvolve
Tree
p880
(dp881
g13
(imyEvolve
Tree
p882
(dp883
g13
(imyEvolve
Tree
p884
(dp885
g13
(imyEvolve
Tree
p886
(dp887
g13
(imyEvolve
Tree
p888
(dp889
g7
I0
sg20
F3.3487763688746313
sg21
I01
sbsg7
I1
sg25
I01
sg26
g43
sbsg7
I2
sg25
I01
sg26
g43
sbsg7
I3
sg25
I01
sg26
g43
sbsg7
I4
sg25
I01
sg26
g29
sbsg25
I00
sg26
g57
sba(imyEvolve
Tree
p890
(dp891
g7
I4
sg8
(imyEvolve
Tree
p892
(dp893
g13
(imyEvolve
Tree
p894
(dp895
g13
(imyEvolve
Tree
p896
(dp897
g7
I1
sg8
(imyEvolve
Tree
p898
(dp899
g7
I0
sg21
I00
sbsg22
(imyEvolve
Tree
p900
(dp901
g7
I0
sg20
F2.244399618847817
sg21
I01
sbsg25
I00
sg26
g57
sbsg7
I2
sg25
I01
sg26
g38
sbsg7
I3
sg25
I01
sg26
g28
sbsg22
(imyEvolve
Tree
p902
(dp903
g13
(imyEvolve
Tree
p904
(dp905
g13
(imyEvolve
Tree
p906
(dp907
g7
I1
sg8
(imyEvolve
Tree
p908
(dp909
g7
I0
sg20
F-3.3256335774080457
sg21
I01
sbsg22
(imyEvolve
Tree
p910
(dp911
g7
I0
sg21
I00
sbsg25
I00
sg26
g57
sbsg7
I2
sg25
I01
sg26
g29
sbsg7
I3
sg25
I01
sg26
g43
sbsg25
I00
sg26
g57
sba(imyEvolve
Tree
p912
(dp913
g7
I3
sg8
(imyEvolve
Tree
p914
(dp915
g13
(imyEvolve
Tree
p916
(dp917
g7
I1
sg8
(imyEvolve
Tree
p918
(dp919
g7
I0
sg21
I00
sbsg22
(imyEvolve
Tree
p920
(dp921
g7
I0
sg21
I00
sbsg25
I00
sg26
g44
sbsg7
I2
sg25
I01
sg26
g28
sbsg22
(imyEvolve
Tree
p922
(dp923
g13
(imyEvolve
Tree
p924
(dp925
g7
I1
sg8
(imyEvolve
Tree
p926
(dp927
g7
I0
sg21
I00
sbsg22
(imyEvolve
Tree
p928
(dp929
g7
I0
sg21
I00
sbsg25
I00
sg26
g57
sbsg7
I2
sg25
I01
sg26
g29
sbsg25
I00
sg26
g44
sba(imyEvolve
Tree
p930
(dp931
g7
I4
sg8
(imyEvolve
Tree
p932
(dp933
g13
(imyEvolve
Tree
p934
(dp935
g7
I2
sg8
(imyEvolve
Tree
p936
(dp937
g13
(imyEvolve
Tree
p938
(dp939
g7
I0
sg21
I00
sbsg7
I1
sg25
I01
sg26
g28
sbsg22
(imyEvolve
Tree
p940
(dp941
g13
(imyEvolve
Tree
p942
(dp943
g7
I0
sg21
I00
sbsg7
I1
sg25
I01
sg26
g29
sbsg25
I00
sg26
g44
sbsg7
I3
sg25
I01
sg26
g29
sbsg22
(imyEvolve
Tree
p944
(dp945
g13
(imyEvolve
Tree
p946
(dp947
g13
(imyEvolve
Tree
p948
(dp949
g13
(imyEvolve
Tree
p950
(dp951
g7
I0
sg20
F3.807899350972985
sg21
I01
sbsg7
I1
sg25
I01
sg26
g38
sbsg7
I2
sg25
I01
sg26
g43
sbsg7
I3
sg25
I01
sg26
g43
sbsg25
I00
sg26
g57
sba(imyEvolve
Tree
p952
(dp953
g13
(imyEvolve
Tree
p954
(dp955
g13
(imyEvolve
Tree
p956
(dp957
g7
I2
sg8
(imyEvolve
Tree
p958
(dp959
g13
(imyEvolve
Tree
p960
(dp961
g7
I0
sg20
F1.079034952624581
sg21
I01
sbsg7
I1
sg25
I01
sg26
g28
sbsg22
(imyEvolve
Tree
p962
(dp963
g13
(imyEvolve
Tree
p964
(dp965
g7
I0
sg21
I00
sbsg7
I1
sg25
I01
sg26
g43
sbsg25
I00
sg26
g57
sbsg7
I3
sg25
I01
sg26
g28
sbsg7
I4
sg25
I01
sg26
g29
sba(imyEvolve
Tree
p966
(dp967
g13
(imyEvolve
Tree
p968
(dp969
g7
I2
sg8
(imyEvolve
Tree
p970
(dp971
g7
I1
sg8
(imyEvolve
Tree
p972
(dp973
g7
I0
sg20
F-0.1894346779309375
sg21
I01
sbsg22
(imyEvolve
Tree
p974
(dp975
g7
I0
sg20
F-1.372944929387189
sg21
I01
sbsg25
I00
sg26
g44
sbsg22
(imyEvolve
Tree
p976
(dp977
g13
(imyEvolve
Tree
p978
(dp979
g7
I0
sg20
F-4.510334855593234
sg21
I01
sbsg7
I1
sg25
I01
sg26
g43
sbsg25
I00
sg26
g27
sbsg7
I3
sg25
I01
sg26
g28
sba(imyEvolve
Tree
p980
(dp981
g7
I2
sg8
(imyEvolve
Tree
p982
(dp983
g13
(imyEvolve
Tree
p984
(dp985
g7
I0
sg20
F1.7198692565316556
sg21
I01
sbsg7
I1
sg25
I01
sg26
g43
sbsg22
(imyEvolve
Tree
p986
(dp987
g13
(imyEvolve
Tree
p988
(dp989
g7
I0
sg20
F2.8804175337243523
sg21
I01
sbsg7
I1
sg25
I01
sg26
g28
sbsg25
I00
sg26
g44
sba(imyEvolve
Tree
p990
(dp991
g13
(imyEvolve
Tree
p992
(dp993
g7
I1
sg8
(imyEvolve
Tree
p994
(dp995
g7
I0
sg20
F-0.26615797079395875
sg21
I01
sbsg22
(imyEvolve
Tree
p996
(dp997
g7
I0
sg21
I00
sbsg25
I00
sg26
g27
sbsg7
I2
sg25
I01
sg26
g29
sba(imyEvolve
Tree
p998
(dp999
g13
(imyEvolve
Tree
p1000
(dp1001
g13
(imyEvolve
Tree
p1002
(dp1003
g7
I3
sg8
(imyEvolve
Tree
p1004
(dp1005
g13
(imyEvolve
Tree
p1006
(dp1007
g7
I1
sg8
(imyEvolve
Tree
p1008
(dp1009
g7
I0
sg20
F-2.9131513774064244
sg21
I01
sbsg22
(imyEvolve
Tree
p1010
(dp1011
g7
I0
sg20
F-3.436649313200697
sg21
I01
sbsg25
I00
sg26
g44
sbsg7
I2
sg25
I01
sg26
g28
sbsg22
(imyEvolve
Tree
p1012
(dp1013
g7
I2
sg8
(imyEvolve
Tree
p1014
(dp1015
g7
I1
sg8
(imyEvolve
Tree
p1016
(dp1017
g7
I0
sg21
I00
sbsg22
(imyEvolve
Tree
p1018
(dp1019
g7
I0
sg21
I00
sbsg25
I00
sg26
g57
sbsg22
(imyEvolve
Tree
p1020
(dp1021
g13
(imyEvolve
Tree
p1022
(dp1023
g7
I0
sg20
F-0.5275326611591993
sg21
I01
sbsg7
I1
sg25
I01
sg26
g38
sbsg25
I00
sg26
g44
sbsg25
I00
sg26
g27
sbsg7
I4
sg25
I01
sg26
g29
sbsg7
I5
sg25
I01
sg26
g29
sba(imyEvolve
Tree
p1024
(dp1025
g7
I4
sg8
(imyEvolve
Tree
p1026
(dp1027
g7
I3
sg8
(imyEvolve
Tree
p1028
(dp1029
g13
(imyEvolve
Tree
p1030
(dp1031
g13
(imyEvolve
Tree
p1032
(dp1033
g7
I0
sg21
I00
sbsg7
I1
sg25
I01
sg26
g43
sbsg7
I2
sg25
I01
sg26
g28
sbsg22
(imyEvolve
Tree
p1034
(dp1035
g7
I2
sg8
(imyEvolve
Tree
p1036
(dp1037
g13
(imyEvolve
Tree
p1038
(dp1039
g7
I0
sg21
I00
sbsg7
I1
sg25
I01
sg26
g38
sbsg22
(imyEvolve
Tree
p1040
(dp1041
g7
I1
sg8
(imyEvolve
Tree
p1042
(dp1043
g7
I0
sg20
F0.5166643911859676
sg21
I01
sbsg22
(imyEvolve
Tree
p1044
(dp1045
g7
I0
sg20
F2.545024982440367
sg21
I01
sbsg25
I00
sg26
g27
sbsg25
I00
sg26
g57
sbsg25
I00
sg26
g27
sbsg22
(imyEvolve
Tree
p1046
(dp1047
g13
(imyEvolve
Tree
p1048
(dp1049
g7
I2
sg8
(imyEvolve
Tree
p1050
(dp1051
g7
I1
sg8
(imyEvolve
Tree
p1052
(dp1053
g7
I0
sg20
F3.0789206330565637
sg21
I01
sbsg22
(imyEvolve
Tree
p1054
(dp1055
g7
I0
sg20
F0.5934033040547746
sg21
I01
sbsg25
I00
sg26
g27
sbsg22
(imyEvolve
Tree
p1056
(dp1057
g13
(imyEvolve
Tree
p1058
(dp1059
g7
I0
sg21
I00
sbsg7
I1
sg25
I01
sg26
g29
sbsg25
I00
sg26
g27
sbsg7
I3
sg25
I01
sg26
g29
sbsg25
I00
sg26
g27
sba(imyEvolve
Tree
p1060
(dp1061
g13
(imyEvolve
Tree
p1062
(dp1063
g13
(imyEvolve
Tree
p1064
(dp1065
g7
I1
sg8
(imyEvolve
Tree
p1066
(dp1067
g7
I0
sg20
F1.5540374423131
sg21
I01
sbsg22
(imyEvolve
Tree
p1068
(dp1069
g7
I0
sg20
F-1.6027916877869708
sg21
I01
sbsg25
I00
sg26
g57
sbsg7
I2
sg25
I01
sg26
g43
sbsg7
I3
sg25
I01
sg26
g29
sba(imyEvolve
Tree
p1070
(dp1071
g7
I5
sg8
(imyEvolve
Tree
p1072
(dp1073
g7
I4
sg8
(imyEvolve
Tree
p1074
(dp1075
g13
(imyEvolve
Tree
p1076
(dp1077
g7
I2
sg8
(imyEvolve
Tree
p1078
(dp1079
g7
I1
sg8
(imyEvolve
Tree
p1080
(dp1081
g7
I0
sg20
F-0.9314163753962585
sg21
I01
sbsg22
(imyEvolve
Tree
p1082
(dp1083
g7
I0
sg21
I00
sbsg25
I00
sg26
g57
sbsg22
(imyEvolve
Tree
p1084
(dp1085
g7
I1
sg8
(imyEvolve
Tree
p1086
(dp1087
g7
I0
sg21
I00
sbsg22
(imyEvolve
Tree
p1088
(dp1089
g7
I0
sg21
I00
sbsg25
I00
sg26
g44
sbsg25
I00
sg26
g57
sbsg7
I3
sg25
I01
sg26
g38
sbsg22
(imyEvolve
Tree
p1090
(dp1091
g7
I3
sg8
(imyEvolve
Tree
p1092
(dp1093
g7
I2
sg8
(imyEvolve
Tree
p1094
(dp1095
g13
(imyEvolve
Tree
p1096
(dp1097
g7
I0
sg21
I00
sbsg7
I1
sg25
I01
sg26
g43
sbsg22
(imyEvolve
Tree
p1098
(dp1099
g13
(imyEvolve
Tree
p1100
(dp1101
g7
I0
sg21
I00
sbsg7
I1
sg25
I01
sg26
g43
sbsg25
I00
sg26
g57
sbsg22
(imyEvolve
Tree
p1102
(dp1103
g13
(imyEvolve
Tree
p1104
(dp1105
g13
(imyEvolve
Tree
p1106
(dp1107
g7
I0
sg20
F4.468926905194827
sg21
I01
sbsg7
I1
sg25
I01
sg26
g29
sbsg7
I2
sg25
I01
sg26
g38
sbsg25
I00
sg26
g44
sbsg25
I00
sg26
g57
sbsg22
(imyEvolve
Tree
p1108
(dp1109
g13
(imyEvolve
Tree
p1110
(dp1111
g7
I3
sg8
(imyEvolve
Tree
p1112
(dp1113
g13
(imyEvolve
Tree
p1114
(dp1115
g13
(imyEvolve
Tree
p1116
(dp1117
g7
I0
sg21
I00
sbsg7
I1
sg25
I01
sg26
g28
sbsg7
I2
sg25
I01
sg26
g29
sbsg22
(imyEvolve
Tree
p1118
(dp1119
g13
(imyEvolve
Tree
p1120
(dp1121
g13
(imyEvolve
Tree
p1122
(dp1123
g7
I0
sg21
I00
sbsg7
I1
sg25
I01
sg26
g43
sbsg7
I2
sg25
I01
sg26
g43
sbsg25
I00
sg26
g57
sbsg7
I4
sg25
I01
sg26
g43
sbsg25
I00
sg26
g27
sba(imyEvolve
Tree
p1124
(dp1125
g7
I4
sg8
(imyEvolve
Tree
p1126
(dp1127
g13
(imyEvolve
Tree
p1128
(dp1129
g13
(imyEvolve
Tree
p1130
(dp1131
g7
I1
sg8
(imyEvolve
Tree
p1132
(dp1133
g7
I0
sg21
I00
sbsg22
(imyEvolve
Tree
p1134
(dp1135
g7
I0
sg21
I00
sbsg25
I00
sg26
g27
sbsg7
I2
sg25
I01
sg26
g28
sbsg7
I3
sg25
I01
sg26
g43
sbsg22
(imyEvolve
Tree
p1136
(dp1137
g13
(imyEvolve
Tree
p1138
(dp1139
g7
I2
sg8
(imyEvolve
Tree
p1140
(dp1141
g13
(imyEvolve
Tree
p1142
(dp1143
g7
I0
sg20
F-3.5315738430803103
sg21
I01
sbsg7
I1
sg25
I01
sg26
g28
sbsg22
(imyEvolve
Tree
p1144
(dp1145
g13
(imyEvolve
Tree
p1146
(dp1147
g7
I0
sg21
I00
sbsg7
I1
sg25
I01
sg26
g28
sbsg25
I00
sg26
g27
sbsg7
I3
sg25
I01
sg26
g38
sbsg25
I00
sg26
g44
sba(imyEvolve
Tree
p1148
(dp1149
g7
I4
sg8
(imyEvolve
Tree
p1150
(dp1151
g13
(imyEvolve
Tree
p1152
(dp1153
g7
I2
sg8
(imyEvolve
Tree
p1154
(dp1155
g13
(imyEvolve
Tree
p1156
(dp1157
g7
I0
sg21
I00
sbsg7
I1
sg25
I01
sg26
g38
sbsg22
(imyEvolve
Tree
p1158
(dp1159
g7
I1
sg8
(imyEvolve
Tree
p1160
(dp1161
g7
I0
sg21
I00
sbsg22
(imyEvolve
Tree
p1162
(dp1163
g7
I0
sg20
F-1.364885371235245
sg21
I01
sbsg25
I00
sg26
g27
sbsg25
I00
sg26
g57
sbsg7
I3
sg25
I01
sg26
g43
sbsg22
(imyEvolve
Tree
p1164
(dp1165
g13
(imyEvolve
Tree
p1166
(dp1167
g13
(imyEvolve
Tree
p1168
(dp1169
g13
(imyEvolve
Tree
p1170
(dp1171
g7
I0
sg21
I00
sbsg7
I1
sg25
I01
sg26
g29
sbsg7
I2
sg25
I01
sg26
g28
sbsg7
I3
sg25
I01
sg26
g29
sbsg25
I00
sg26
g57
sba(imyEvolve
Tree
p1172
(dp1173
g13
(imyEvolve
Tree
p1174
(dp1175
g13
(imyEvolve
Tree
p1176
(dp1177
g7
I1
sg8
(imyEvolve
Tree
p1178
(dp1179
g7
I0
sg20
F-0.3723743554197121
sg21
I01
sbsg22
(imyEvolve
Tree
p1180
(dp1181
g7
I0
sg20
F-3.974977288558379
sg21
I01
sbsg25
I00
sg26
g57
sbsg7
I2
sg25
I01
sg26
g43
sbsg7
I3
sg25
I01
sg26
g38
sbaasS'weightSharing'
p1182
(lp1183
I00
asS'fitnessValid'
p1184
I00
sS'fitness'
p1185
cnumpy.core.multiarray
scalar
p1186
(cnumpy
dtype
p1187
(S'f8'
p1188
I0
I1
tp1189
Rp1190
(I3
S'<'
p1191
NNNI-1
I-1
I0
tp1192
bS'S\x96!\xf6s\x1c\xe6?'
p1193
tp1194
Rp1195
sS'alpha'
p1196
F0.0012068478921166473
sS'resolution'
p1197
I81
sb.