(imyEvolve
Individual
p0
(dp1
S'funcs'
p2
(lp3
(lp4
(imyEvolve
Tree
p5
(dp6
S'depth'
p7
I5
sS'left'
p8
(imyEvolve
Tree
p9
(dp10
g7
I4
sg8
(imyEvolve
Tree
p11
(dp12
g7
I3
sg8
(imyEvolve
Tree
p13
(dp14
g7
I2
sg8
(imyEvolve
Tree
p15
(dp16
S'below'
p17
(imyEvolve
Tree
p18
(dp19
g7
I0
sS'isConstant'
p20
I00
sbsg7
I1
sS'single'
p21
I01
sS'op'
p22
cmyEvolve
absSqrt
p23
sbsS'right'
p24
(imyEvolve
Tree
p25
(dp26
g17
(imyEvolve
Tree
p27
(dp28
g7
I0
sS'constant'
p29
F4.8004511685001425
sg20
I01
sbsg7
I1
sg21
I01
sg22
g23
sbsg21
I00
sg22
coperator
mul
p30
sbsg24
(imyEvolve
Tree
p31
(dp32
g17
(imyEvolve
Tree
p33
(dp34
g7
I1
sg8
(imyEvolve
Tree
p35
(dp36
g7
I0
sg20
I00
sbsg24
(imyEvolve
Tree
p37
(dp38
g7
I0
sg20
I00
sbsg21
I00
sg22
coperator
sub
p39
sbsg7
I2
sg21
I01
sg22
cmath
sin
p40
sbsg21
I00
sg22
g30
sbsg24
(imyEvolve
Tree
p41
(dp42
g17
(imyEvolve
Tree
p43
(dp44
g17
(imyEvolve
Tree
p45
(dp46
g7
I1
sg8
(imyEvolve
Tree
p47
(dp48
g7
I0
sg20
I00
sbsg24
(imyEvolve
Tree
p49
(dp50
g7
I0
sg29
F-1.7714197485296648
sg20
I01
sbsg21
I00
sg22
coperator
add
p51
sbsg7
I2
sg21
I01
sg22
cmyEvolve
square
p52
sbsg7
I3
sg21
I01
sg22
g52
sbsg21
I00
sg22
g51
sbsg24
(imyEvolve
Tree
p53
(dp54
g7
I4
sg8
(imyEvolve
Tree
p55
(dp56
g17
(imyEvolve
Tree
p57
(dp58
g7
I2
sg8
(imyEvolve
Tree
p59
(dp60
g17
(imyEvolve
Tree
p61
(dp62
g7
I0
sg29
F3.029371867601432
sg20
I01
sbsg7
I1
sg21
I01
sg22
g23
sbsg24
(imyEvolve
Tree
p63
(dp64
g7
I1
sg8
(imyEvolve
Tree
p65
(dp66
g7
I0
sg20
I00
sbsg24
(imyEvolve
Tree
p67
(dp68
g7
I0
sg20
I00
sbsg21
I00
sg22
g30
sbsg21
I00
sg22
g51
sbsg7
I3
sg21
I01
sg22
g52
sbsg24
(imyEvolve
Tree
p69
(dp70
g7
I3
sg8
(imyEvolve
Tree
p71
(dp72
g17
(imyEvolve
Tree
p73
(dp74
g17
(imyEvolve
Tree
p75
(dp76
g7
I0
sg29
F-2.481974473661129
sg20
I01
sbsg7
I1
sg21
I01
sg22
g23
sbsg7
I2
sg21
I01
sg22
g40
sbsg24
(imyEvolve
Tree
p77
(dp78
g17
(imyEvolve
Tree
p79
(dp80
g7
I1
sg8
(imyEvolve
Tree
p81
(dp82
g7
I0
sg20
I00
sbsg24
(imyEvolve
Tree
p83
(dp84
g7
I0
sg29
F0.07690136657866908
sg20
I01
sbsg21
I00
sg22
g30
sbsg7
I2
sg21
I01
sg22
cmath
cos
p85
sbsg21
I00
sg22
g39
sbsg21
I00
sg22
g51
sbsg21
I00
sg22
g30
sba(imyEvolve
Tree
p86
(dp87
g17
(imyEvolve
Tree
p88
(dp89
g8
(imyEvolve
Tree
p90
(dp91
g17
(imyEvolve
Tree
p92
(dp93
g8
(imyEvolve
Tree
p94
(dp95
g7
I0
sg29
F-1.9195401520068875
sg20
I01
sbsg7
I1
sg24
(imyEvolve
Tree
p96
(dp97
g7
I0
sg29
F3.1399231440303037
sg20
I01
sbsg21
I00
sg22
g30
sbsg7
I2
sg21
I01
sg22
g40
sbsg7
I3
sg24
(imyEvolve
Tree
p98
(dp99
g8
(imyEvolve
Tree
p100
(dp101
g17
(imyEvolve
Tree
p102
(dp103
g7
I0
sg20
I00
sbsg7
I1
sg21
I01
sg22
g85
sbsg7
I2
sg24
(imyEvolve
Tree
p104
(dp105
g8
(imyEvolve
Tree
p106
(dp107
g7
I0
sg29
F3.605294997294534
sg20
I01
sbsg7
I1
sg24
(imyEvolve
Tree
p108
(dp109
g7
I0
sg20
I00
sbsg21
I00
sg22
g39
sbsg21
I00
sg22
g39
sbsg21
I00
sg22
g30
sbsg7
I4
sg21
I01
sg22
g85
sba(imyEvolve
Tree
p110
(dp111
g8
(imyEvolve
Tree
p112
(dp113
g8
(imyEvolve
Tree
p114
(dp115
g17
(imyEvolve
Tree
p116
(dp117
g7
I0
sg20
I00
sbsg7
I1
sg21
I01
sg22
g52
sbsg7
I2
sg24
(imyEvolve
Tree
p118
(dp119
g8
(imyEvolve
Tree
p120
(dp121
g7
I0
sg29
F-3.032380191598122
sg20
I01
sbsg7
I1
sg24
(imyEvolve
Tree
p122
(dp123
g7
I0
sg20
I00
sbsg21
I00
sg22
g51
sbsg21
I00
sg22
g51
sbsg7
I3
sg24
(imyEvolve
Tree
p124
(dp125
g17
(imyEvolve
Tree
p126
(dp127
g8
(imyEvolve
Tree
p128
(dp129
g7
I0
sg29
F-1.8707328902086218
sg20
I01
sbsg7
I1
sg24
(imyEvolve
Tree
p130
(dp131
g7
I0
sg20
I00
sbsg21
I00
sg22
g30
sbsg7
I2
sg21
I01
sg22
g85
sbsg21
I00
sg22
g39
sba(imyEvolve
Tree
p132
(dp133
g17
(imyEvolve
Tree
p134
(dp135
g17
(imyEvolve
Tree
p136
(dp137
g7
I0
sg20
I00
sbsg7
I1
sg21
I01
sg22
g40
sbsg7
I2
sg21
I01
sg22
g23
sba(imyEvolve
Tree
p138
(dp139
g8
(imyEvolve
Tree
p140
(dp141
g17
(imyEvolve
Tree
p142
(dp143
g8
(imyEvolve
Tree
p144
(dp145
g7
I0
sg20
I00
sbsg7
I1
sg24
(imyEvolve
Tree
p146
(dp147
g7
I0
sg20
I00
sbsg21
I00
sg22
g30
sbsg7
I2
sg21
I01
sg22
g52
sbsg7
I3
sg24
(imyEvolve
Tree
p148
(dp149
g8
(imyEvolve
Tree
p150
(dp151
g17
(imyEvolve
Tree
p152
(dp153
g7
I0
sg29
F3.7719965867171936
sg20
I01
sbsg7
I1
sg21
I01
sg22
g23
sbsg7
I2
sg24
(imyEvolve
Tree
p154
(dp155
g17
(imyEvolve
Tree
p156
(dp157
g7
I0
sg29
F1.4211872113203006
sg20
I01
sbsg7
I1
sg21
I01
sg22
g52
sbsg21
I00
sg22
g51
sbsg21
I00
sg22
g30
sba(imyEvolve
Tree
p158
(dp159
g8
(imyEvolve
Tree
p160
(dp161
g17
(imyEvolve
Tree
p162
(dp163
g17
(imyEvolve
Tree
p164
(dp165
g7
I0
sg20
I00
sbsg7
I1
sg21
I01
sg22
g52
sbsg7
I2
sg21
I01
sg22
g40
sbsg7
I3
sg24
(imyEvolve
Tree
p166
(dp167
g17
(imyEvolve
Tree
p168
(dp169
g8
(imyEvolve
Tree
p170
(dp171
g7
I0
sg29
F-3.763745197392746
sg20
I01
sbsg7
I1
sg24
(imyEvolve
Tree
p172
(dp173
g7
I0
sg20
I00
sbsg21
I00
sg22
g51
sbsg7
I2
sg21
I01
sg22
g40
sbsg21
I00
sg22
g51
sba(imyEvolve
Tree
p174
(dp175
g8
(imyEvolve
Tree
p176
(dp177
g17
(imyEvolve
Tree
p178
(dp179
g17
(imyEvolve
Tree
p180
(dp181
g17
(imyEvolve
Tree
p182
(dp183
g7
I0
sg29
F2.270308283954825
sg20
I01
sbsg7
I1
sg21
I01
sg22
g23
sbsg7
I2
sg21
I01
sg22
g40
sbsg7
I3
sg21
I01
sg22
g40
sbsg7
I4
sg24
(imyEvolve
Tree
p184
(dp185
g8
(imyEvolve
Tree
p186
(dp187
g8
(imyEvolve
Tree
p188
(dp189
g8
(imyEvolve
Tree
p190
(dp191
g7
I0
sg20
I00
sbsg7
I1
sg24
(imyEvolve
Tree
p192
(dp193
g7
I0
sg20
I00
sbsg21
I00
sg22
g51
sbsg7
I2
sg24
(imyEvolve
Tree
p194
(dp195
g8
(imyEvolve
Tree
p196
(dp197
g7
I0
sg29
F2.6288304430035545
sg20
I01
sbsg7
I1
sg24
(imyEvolve
Tree
p198
(dp199
g7
I0
sg20
I00
sbsg21
I00
sg22
g51
sbsg21
I00
sg22
g51
sbsg7
I3
sg24
(imyEvolve
Tree
p200
(dp201
g17
(imyEvolve
Tree
p202
(dp203
g17
(imyEvolve
Tree
p204
(dp205
g7
I0
sg20
I00
sbsg7
I1
sg21
I01
sg22
g23
sbsg7
I2
sg21
I01
sg22
g40
sbsg21
I00
sg22
g51
sbsg21
I00
sg22
g30
sba(imyEvolve
Tree
p206
(dp207
g8
(imyEvolve
Tree
p208
(dp209
g17
(imyEvolve
Tree
p210
(dp211
g17
(imyEvolve
Tree
p212
(dp213
g7
I0
sg20
I00
sbsg7
I1
sg21
I01
sg22
g52
sbsg7
I2
sg21
I01
sg22
g40
sbsg7
I3
sg24
(imyEvolve
Tree
p214
(dp215
g17
(imyEvolve
Tree
p216
(dp217
g8
(imyEvolve
Tree
p218
(dp219
g7
I0
sg20
I00
sbsg7
I1
sg24
(imyEvolve
Tree
p220
(dp221
g7
I0
sg20
I00
sbsg21
I00
sg22
g30
sbsg7
I2
sg21
I01
sg22
g40
sbsg21
I00
sg22
g39
sba(imyEvolve
Tree
p222
(dp223
g8
(imyEvolve
Tree
p224
(dp225
g8
(imyEvolve
Tree
p226
(dp227
g7
I0
sg29
F-0.8599608241347321
sg20
I01
sbsg7
I1
sg24
(imyEvolve
Tree
p228
(dp229
g7
I0
sg29
F-2.8794523240010372
sg20
I01
sbsg21
I00
sg22
g39
sbsg7
I2
sg24
(imyEvolve
Tree
p230
(dp231
g17
(imyEvolve
Tree
p232
(dp233
g7
I0
sg20
I00
sbsg7
I1
sg21
I01
sg22
g23
sbsg21
I00
sg22
g39
sba(imyEvolve
Tree
p234
(dp235
g8
(imyEvolve
Tree
p236
(dp237
g17
(imyEvolve
Tree
p238
(dp239
g17
(imyEvolve
Tree
p240
(dp241
g7
I0
sg20
I00
sbsg7
I1
sg21
I01
sg22
g40
sbsg7
I2
sg21
I01
sg22
g85
sbsg7
I3
sg24
(imyEvolve
Tree
p242
(dp243
g17
(imyEvolve
Tree
p244
(dp245
g17
(imyEvolve
Tree
p246
(dp247
g7
I0
sg20
I00
sbsg7
I1
sg21
I01
sg22
g85
sbsg7
I2
sg21
I01
sg22
g52
sbsg21
I00
sg22
g30
sba(imyEvolve
Tree
p248
(dp249
g8
(imyEvolve
Tree
p250
(dp251
g17
(imyEvolve
Tree
p252
(dp253
g7
I0
sg20
I00
sbsg7
I1
sg21
I01
sg22
g40
sbsg7
I2
sg24
(imyEvolve
Tree
p254
(dp255
g8
(imyEvolve
Tree
p256
(dp257
g7
I0
sg20
I00
sbsg7
I1
sg24
(imyEvolve
Tree
p258
(dp259
g7
I0
sg29
F-2.143070297015303
sg20
I01
sbsg21
I00
sg22
g39
sbsg21
I00
sg22
g51
sba(imyEvolve
Tree
p260
(dp261
g8
(imyEvolve
Tree
p262
(dp263
g8
(imyEvolve
Tree
p264
(dp265
g8
(imyEvolve
Tree
p266
(dp267
g7
I0
sg20
I00
sbsg7
I1
sg24
(imyEvolve
Tree
p268
(dp269
g7
I0
sg20
I00
sbsg21
I00
sg22
g30
sbsg7
I2
sg24
(imyEvolve
Tree
p270
(dp271
g8
(imyEvolve
Tree
p272
(dp273
g7
I0
sg29
F-2.743077610343846
sg20
I01
sbsg7
I1
sg24
(imyEvolve
Tree
p274
(dp275
g7
I0
sg29
F3.283815050504437
sg20
I01
sbsg21
I00
sg22
g39
sbsg21
I00
sg22
g39
sbsg7
I3
sg24
(imyEvolve
Tree
p276
(dp277
g8
(imyEvolve
Tree
p278
(dp279
g8
(imyEvolve
Tree
p280
(dp281
g7
I0
sg20
I00
sbsg7
I1
sg24
(imyEvolve
Tree
p282
(dp283
g7
I0
sg20
I00
sbsg21
I00
sg22
g30
sbsg7
I2
sg24
(imyEvolve
Tree
p284
(dp285
g17
(imyEvolve
Tree
p286
(dp287
g7
I0
sg29
F0.9294295887408701
sg20
I01
sbsg7
I1
sg21
I01
sg22
g23
sbsg21
I00
sg22
g51
sbsg21
I00
sg22
g51
sba(imyEvolve
Tree
p288
(dp289
g7
I2
sg8
(imyEvolve
Tree
p290
(dp291
g7
I1
sg8
(imyEvolve
Tree
p292
(dp293
g7
I0
sg20
I00
sbsg24
(imyEvolve
Tree
p294
(dp295
g7
I0
sg29
F0.15911644749743914
sg20
I01
sbsg21
I00
sg22
g30
sbsg24
(imyEvolve
Tree
p296
(dp297
g17
(imyEvolve
Tree
p298
(dp299
g7
I0
sg20
I00
sbsg7
I1
sg21
I01
sg22
g40
sbsg21
I00
sg22
g30
sba(imyEvolve
Tree
p300
(dp301
g17
(imyEvolve
Tree
p302
(dp303
g8
(imyEvolve
Tree
p304
(dp305
g8
(imyEvolve
Tree
p306
(dp307
g17
(imyEvolve
Tree
p308
(dp309
g7
I0
sg20
I00
sbsg7
I1
sg21
I01
sg22
g23
sbsg7
I2
sg24
(imyEvolve
Tree
p310
(dp311
g17
(imyEvolve
Tree
p312
(dp313
g7
I0
sg29
F1.7539509873770154
sg20
I01
sbsg7
I1
sg21
I01
sg22
g52
sbsg21
I00
sg22
g30
sbsg7
I3
sg24
(imyEvolve
Tree
p314
(dp315
g17
(imyEvolve
Tree
p316
(dp317
g8
(imyEvolve
Tree
p318
(dp319
g7
I0
sg20
I00
sbsg7
I1
sg24
(imyEvolve
Tree
p320
(dp321
g7
I0
sg20
I00
sbsg21
I00
sg22
g39
sbsg7
I2
sg21
I01
sg22
g52
sbsg21
I00
sg22
g39
sbsg7
I4
sg21
I01
sg22
g23
sba(imyEvolve
Tree
p322
(dp323
g17
(imyEvolve
Tree
p324
(dp325
g7
I3
sg8
(imyEvolve
Tree
p326
(dp327
g17
(imyEvolve
Tree
p328
(dp329
g17
(imyEvolve
Tree
p330
(dp331
g7
I0
sg20
I00
sbsg7
I1
sg21
I01
sg22
g23
sbsg7
I2
sg21
I01
sg22
g52
sbsg24
(imyEvolve
Tree
p332
(dp333
g17
(imyEvolve
Tree
p334
(dp335
g7
I1
sg8
(imyEvolve
Tree
p336
(dp337
g7
I0
sg29
F-1.5059234735954643
sg20
I01
sbsg24
(imyEvolve
Tree
p338
(dp339
g7
I0
sg29
F4.953499638965651
sg20
I01
sbsg21
I00
sg22
g51
sbsg7
I2
sg21
I01
sg22
g85
sbsg21
I00
sg22
g39
sbsg7
I4
sg21
I01
sg22
g52
sbaa(lp340
(imyEvolve
Tree
p341
(dp342
g8
(imyEvolve
Tree
p343
(dp344
g8
(imyEvolve
Tree
p345
(dp346
g8
(imyEvolve
Tree
p347
(dp348
g17
(imyEvolve
Tree
p349
(dp350
g7
I0
sg20
I00
sbsg7
I1
sg21
I01
sg22
g52
sbsg7
I2
sg24
(imyEvolve
Tree
p351
(dp352
g8
(imyEvolve
Tree
p353
(dp354
g7
I0
sg29
F2.7425479563792976
sg20
I01
sbsg7
I1
sg24
(imyEvolve
Tree
p355
(dp356
g7
I0
sg29
F-3.292245874052284
sg20
I01
sbsg21
I00
sg22
g30
sbsg21
I00
sg22
g30
sbsg7
I3
sg24
(imyEvolve
Tree
p357
(dp358
g8
(imyEvolve
Tree
p359
(dp360
g8
(imyEvolve
Tree
p361
(dp362
g7
I0
sg29
F-0.8385714682470624
sg20
I01
sbsg7
I1
sg24
(imyEvolve
Tree
p363
(dp364
g7
I0
sg20
I00
sbsg21
I00
sg22
g51
sbsg7
I2
sg24
(imyEvolve
Tree
p365
(dp366
g17
(imyEvolve
Tree
p367
(dp368
g7
I0
sg20
I00
sbsg7
I1
sg21
I01
sg22
g40
sbsg21
I00
sg22
g39
sbsg21
I00
sg22
g39
sbsg7
I4
sg24
(imyEvolve
Tree
p369
(dp370
g17
(imyEvolve
Tree
p371
(dp372
g8
(imyEvolve
Tree
p373
(dp374
g8
(imyEvolve
Tree
p375
(dp376
g7
I0
sg20
I00
sbsg7
I1
sg24
(imyEvolve
Tree
p377
(dp378
g7
I0
sg20
I00
sbsg21
I00
sg22
g51
sbsg7
I2
sg24
(imyEvolve
Tree
p379
(dp380
g8
(imyEvolve
Tree
p381
(dp382
g7
I0
sg20
I00
sbsg7
I1
sg24
(imyEvolve
Tree
p383
(dp384
g7
I0
sg29
F3.758704124851013
sg20
I01
sbsg21
I00
sg22
g39
sbsg21
I00
sg22
g39
sbsg7
I3
sg21
I01
sg22
g52
sbsg21
I00
sg22
g51
sba(imyEvolve
Tree
p385
(dp386
g17
(imyEvolve
Tree
p387
(dp388
g17
(imyEvolve
Tree
p389
(dp390
g7
I0
sg29
F4.321177834217041
sg20
I01
sbsg7
I1
sg21
I01
sg22
g40
sbsg7
I2
sg21
I01
sg22
g85
sba(imyEvolve
Tree
p391
(dp392
g17
(imyEvolve
Tree
p393
(dp394
g8
(imyEvolve
Tree
p395
(dp396
g17
(imyEvolve
Tree
p397
(dp398
g17
(imyEvolve
Tree
p399
(dp400
g7
I0
sg20
I00
sbsg7
I1
sg21
I01
sg22
g40
sbsg7
I2
sg21
I01
sg22
g52
sbsg7
I3
sg24
(imyEvolve
Tree
p401
(dp402
g17
(imyEvolve
Tree
p403
(dp404
g17
(imyEvolve
Tree
p405
(dp406
g7
I0
sg20
I00
sbsg7
I1
sg21
I01
sg22
g23
sbsg7
I2
sg21
I01
sg22
g40
sbsg21
I00
sg22
g30
sbsg7
I4
sg21
I01
sg22
g23
sba(imyEvolve
Tree
p407
(dp408
g7
I5
sg8
(imyEvolve
Tree
p409
(dp410
g17
(imyEvolve
Tree
p411
(dp412
g17
(imyEvolve
Tree
p413
(dp414
g7
I2
sg8
(imyEvolve
Tree
p415
(dp416
g17
(imyEvolve
Tree
p417
(dp418
g7
I0
sg20
I00
sbsg7
I1
sg21
I01
sg22
g23
sbsg24
(imyEvolve
Tree
p419
(dp420
g17
(imyEvolve
Tree
p421
(dp422
g7
I0
sg20
I00
sbsg7
I1
sg21
I01
sg22
g23
sbsg21
I00
sg22
g39
sbsg7
I3
sg21
I01
sg22
g85
sbsg7
I4
sg21
I01
sg22
g52
sbsg24
(imyEvolve
Tree
p423
(dp424
g7
I4
sg8
(imyEvolve
Tree
p425
(dp426
g17
(imyEvolve
Tree
p427
(dp428
g7
I2
sg8
(imyEvolve
Tree
p429
(dp430
g17
(imyEvolve
Tree
p431
(dp432
g7
I0
sg29
F1.9226247037471653
sg20
I01
sbsg7
I1
sg21
I01
sg22
g52
sbsg24
(imyEvolve
Tree
p433
(dp434
g17
(imyEvolve
Tree
p435
(dp436
g7
I0
sg20
I00
sbsg7
I1
sg21
I01
sg22
g40
sbsg21
I00
sg22
g39
sbsg7
I3
sg21
I01
sg22
g52
sbsg24
(imyEvolve
Tree
p437
(dp438
g7
I3
sg8
(imyEvolve
Tree
p439
(dp440
g17
(imyEvolve
Tree
p441
(dp442
g17
(imyEvolve
Tree
p443
(dp444
g7
I0
sg29
F-0.7779991282110199
sg20
I01
sbsg7
I1
sg21
I01
sg22
g23
sbsg7
I2
sg21
I01
sg22
g52
sbsg24
(imyEvolve
Tree
p445
(dp446
g17
(imyEvolve
Tree
p447
(dp448
g17
(imyEvolve
Tree
p449
(dp450
g7
I0
sg20
I00
sbsg7
I1
sg21
I01
sg22
g85
sbsg7
I2
sg21
I01
sg22
g85
sbsg21
I00
sg22
g51
sbsg21
I00
sg22
g30
sbsg21
I00
sg22
g51
sba(imyEvolve
Tree
p451
(dp452
g8
(imyEvolve
Tree
p453
(dp454
g8
(imyEvolve
Tree
p455
(dp456
g7
I0
sg20
I00
sbsg7
I1
sg24
(imyEvolve
Tree
p457
(dp458
g7
I0
sg29
F-4.5864258147774075
sg20
I01
sbsg21
I00
sg22
g51
sbsg7
I2
sg24
(imyEvolve
Tree
p459
(dp460
g17
(imyEvolve
Tree
p461
(dp462
g7
I0
sg29
F-3.8022819772201077
sg20
I01
sbsg7
I1
sg21
I01
sg22
g52
sbsg21
I00
sg22
g39
sba(imyEvolve
Tree
p463
(dp464
g17
(imyEvolve
Tree
p465
(dp466
g7
I1
sg8
(imyEvolve
Tree
p467
(dp468
g7
I0
sg29
F3.391417002095748
sg20
I01
sbsg24
(imyEvolve
Tree
p469
(dp470
g7
I0
sg29
F3.4256692686135395
sg20
I01
sbsg21
I00
sg22
g51
sbsg7
I2
sg21
I01
sg22
g40
sba(imyEvolve
Tree
p471
(dp472
g17
(imyEvolve
Tree
p473
(dp474
g17
(imyEvolve
Tree
p475
(dp476
g7
I2
sg8
(imyEvolve
Tree
p477
(dp478
g7
I1
sg8
(imyEvolve
Tree
p479
(dp480
g7
I0
sg29
F-1.6561670213690807
sg20
I01
sbsg24
(imyEvolve
Tree
p481
(dp482
g7
I0
sg20
I00
sbsg21
I00
sg22
g39
sbsg24
(imyEvolve
Tree
p483
(dp484
g7
I1
sg8
(imyEvolve
Tree
p485
(dp486
g7
I0
sg20
I00
sbsg24
(imyEvolve
Tree
p487
(dp488
g7
I0
sg29
F-0.9223294161271838
sg20
I01
sbsg21
I00
sg22
g30
sbsg21
I00
sg22
g39
sbsg7
I3
sg21
I01
sg22
g85
sbsg7
I4
sg21
I01
sg22
g40
sba(imyEvolve
Tree
p489
(dp490
g8
(imyEvolve
Tree
p491
(dp492
g17
(imyEvolve
Tree
p493
(dp494
g7
I0
sg20
I00
sbsg7
I1
sg21
I01
sg22
g85
sbsg7
I2
sg24
(imyEvolve
Tree
p495
(dp496
g8
(imyEvolve
Tree
p497
(dp498
g7
I0
sg29
F3.40606619897736
sg20
I01
sbsg7
I1
sg24
(imyEvolve
Tree
p499
(dp500
g7
I0
sg20
I00
sbsg21
I00
sg22
g51
sbsg21
I00
sg22
g39
sba(imyEvolve
Tree
p501
(dp502
g8
(imyEvolve
Tree
p503
(dp504
g8
(imyEvolve
Tree
p505
(dp506
g8
(imyEvolve
Tree
p507
(dp508
g8
(imyEvolve
Tree
p509
(dp510
g8
(imyEvolve
Tree
p511
(dp512
g7
I0
sg29
F1.2456202243567986
sg20
I01
sbsg7
I1
sg24
(imyEvolve
Tree
p513
(dp514
g7
I0
sg20
I00
sbsg21
I00
sg22
g39
sbsg7
I2
sg24
(imyEvolve
Tree
p515
(dp516
g17
(imyEvolve
Tree
p517
(dp518
g7
I0
sg20
I00
sbsg7
I1
sg21
I01
sg22
g85
sbsg21
I00
sg22
g39
sbsg7
I3
sg24
(imyEvolve
Tree
p519
(dp520
g17
(imyEvolve
Tree
p521
(dp522
g8
(imyEvolve
Tree
p523
(dp524
g7
I0
sg20
I00
sbsg7
I1
sg24
(imyEvolve
Tree
p525
(dp526
g7
I0
sg29
F2.9183720025202584
sg20
I01
sbsg21
I00
sg22
g39
sbsg7
I2
sg21
I01
sg22
g23
sbsg21
I00
sg22
g51
sbsg7
I4
sg24
(imyEvolve
Tree
p527
(dp528
g17
(imyEvolve
Tree
p529
(dp530
g17
(imyEvolve
Tree
p531
(dp532
g8
(imyEvolve
Tree
p533
(dp534
g7
I0
sg29
F2.502725343363304
sg20
I01
sbsg7
I1
sg24
(imyEvolve
Tree
p535
(dp536
g7
I0
sg20
I00
sbsg21
I00
sg22
g51
sbsg7
I2
sg21
I01
sg22
g85
sbsg7
I3
sg21
I01
sg22
g40
sbsg21
I00
sg22
g51
sbsg7
I5
sg24
(imyEvolve
Tree
p537
(dp538
g17
(imyEvolve
Tree
p539
(dp540
g17
(imyEvolve
Tree
p541
(dp542
g17
(imyEvolve
Tree
p543
(dp544
g8
(imyEvolve
Tree
p545
(dp546
g7
I0
sg20
I00
sbsg7
I1
sg24
(imyEvolve
Tree
p547
(dp548
g7
I0
sg29
F1.520877054189854
sg20
I01
sbsg21
I00
sg22
g39
sbsg7
I2
sg21
I01
sg22
g85
sbsg7
I3
sg21
I01
sg22
g85
sbsg7
I4
sg21
I01
sg22
g85
sbsg21
I00
sg22
g51
sba(imyEvolve
Tree
p549
(dp550
g8
(imyEvolve
Tree
p551
(dp552
g8
(imyEvolve
Tree
p553
(dp554
g8
(imyEvolve
Tree
p555
(dp556
g17
(imyEvolve
Tree
p557
(dp558
g7
I0
sg20
I00
sbsg7
I1
sg21
I01
sg22
g52
sbsg7
I2
sg24
(imyEvolve
Tree
p559
(dp560
g17
(imyEvolve
Tree
p561
(dp562
g7
I0
sg20
I00
sbsg7
I1
sg21
I01
sg22
g40
sbsg21
I00
sg22
g51
sbsg7
I3
sg24
(imyEvolve
Tree
p563
(dp564
g8
(imyEvolve
Tree
p565
(dp566
g8
(imyEvolve
Tree
p567
(dp568
g7
I0
sg29
F4.589783532565184
sg20
I01
sbsg7
I1
sg24
(imyEvolve
Tree
p569
(dp570
g7
I0
sg29
F4.506355044068233
sg20
I01
sbsg21
I00
sg22
g39
sbsg7
I2
sg24
(imyEvolve
Tree
p571
(dp572
g8
(imyEvolve
Tree
p573
(dp574
g7
I0
sg29
F0.3966439209885406
sg20
I01
sbsg7
I1
sg24
(imyEvolve
Tree
p575
(dp576
g7
I0
sg29
F-1.1413834172911197
sg20
I01
sbsg21
I00
sg22
g39
sbsg21
I00
sg22
g39
sbsg21
I00
sg22
g39
sbsg7
I4
sg24
(imyEvolve
Tree
p577
(dp578
g17
(imyEvolve
Tree
p579
(dp580
g8
(imyEvolve
Tree
p581
(dp582
g8
(imyEvolve
Tree
p583
(dp584
g7
I0
sg20
I00
sbsg7
I1
sg24
(imyEvolve
Tree
p585
(dp586
g7
I0
sg20
I00
sbsg21
I00
sg22
g51
sbsg7
I2
sg24
(imyEvolve
Tree
p587
(dp588
g8
(imyEvolve
Tree
p589
(dp590
g7
I0
sg29
F-4.176226819191146
sg20
I01
sbsg7
I1
sg24
(imyEvolve
Tree
p591
(dp592
g7
I0
sg29
F-3.072843717746844
sg20
I01
sbsg21
I00
sg22
g51
sbsg21
I00
sg22
g51
sbsg7
I3
sg21
I01
sg22
g52
sbsg21
I00
sg22
g30
sba(imyEvolve
Tree
p593
(dp594
g8
(imyEvolve
Tree
p595
(dp596
g17
(imyEvolve
Tree
p597
(dp598
g8
(imyEvolve
Tree
p599
(dp600
g7
I0
sg29
F2.321494126619731
sg20
I01
sbsg7
I1
sg24
(imyEvolve
Tree
p601
(dp602
g7
I0
sg20
I00
sbsg21
I00
sg22
g30
sbsg7
I2
sg21
I01
sg22
g52
sbsg7
I3
sg24
(imyEvolve
Tree
p603
(dp604
g8
(imyEvolve
Tree
p605
(dp606
g8
(imyEvolve
Tree
p607
(dp608
g7
I0
sg29
F4.146970879339333
sg20
I01
sbsg7
I1
sg24
(imyEvolve
Tree
p609
(dp610
g7
I0
sg20
I00
sbsg21
I00
sg22
g39
sbsg7
I2
sg24
(imyEvolve
Tree
p611
(dp612
g8
(imyEvolve
Tree
p613
(dp614
g7
I0
sg20
I00
sbsg7
I1
sg24
(imyEvolve
Tree
p615
(dp616
g7
I0
sg20
I00
sbsg21
I00
sg22
g51
sbsg21
I00
sg22
g51
sbsg21
I00
sg22
g30
sba(imyEvolve
Tree
p617
(dp618
g17
(imyEvolve
Tree
p619
(dp620
g8
(imyEvolve
Tree
p621
(dp622
g17
(imyEvolve
Tree
p623
(dp624
g8
(imyEvolve
Tree
p625
(dp626
g8
(imyEvolve
Tree
p627
(dp628
g7
I0
sg29
F0.5511436931047857
sg20
I01
sbsg7
I1
sg24
(imyEvolve
Tree
p629
(dp630
g7
I0
sg29
F-2.5696910390620054
sg20
I01
sbsg21
I00
sg22
g39
sbsg7
I2
sg24
(imyEvolve
Tree
p631
(dp632
g17
(imyEvolve
Tree
p633
(dp634
g7
I0
sg29
F-0.5505085284148006
sg20
I01
sbsg7
I1
sg21
I01
sg22
g52
sbsg21
I00
sg22
g39
sbsg7
I3
sg21
I01
sg22
g52
sbsg7
I4
sg24
(imyEvolve
Tree
p635
(dp636
g17
(imyEvolve
Tree
p637
(dp638
g8
(imyEvolve
Tree
p639
(dp640
g8
(imyEvolve
Tree
p641
(dp642
g7
I0
sg20
I00
sbsg7
I1
sg24
(imyEvolve
Tree
p643
(dp644
g7
I0
sg29
F1.4226051635491297
sg20
I01
sbsg21
I00
sg22
g39
sbsg7
I2
sg24
(imyEvolve
Tree
p645
(dp646
g17
(imyEvolve
Tree
p647
(dp648
g7
I0
sg29
F-0.5949524360961753
sg20
I01
sbsg7
I1
sg21
I01
sg22
g23
sbsg21
I00
sg22
g51
sbsg7
I3
sg21
I01
sg22
g85
sbsg21
I00
sg22
g51
sbsg7
I5
sg21
I01
sg22
g85
sba(imyEvolve
Tree
p649
(dp650
g17
(imyEvolve
Tree
p651
(dp652
g17
(imyEvolve
Tree
p653
(dp654
g8
(imyEvolve
Tree
p655
(dp656
g17
(imyEvolve
Tree
p657
(dp658
g17
(imyEvolve
Tree
p659
(dp660
g7
I0
sg29
F-4.505645658621526
sg20
I01
sbsg7
I1
sg21
I01
sg22
g23
sbsg7
I2
sg21
I01
sg22
g85
sbsg7
I3
sg24
(imyEvolve
Tree
p661
(dp662
g17
(imyEvolve
Tree
p663
(dp664
g17
(imyEvolve
Tree
p665
(dp666
g7
I0
sg29
F1.5873823350209388
sg20
I01
sbsg7
I1
sg21
I01
sg22
g52
sbsg7
I2
sg21
I01
sg22
g23
sbsg21
I00
sg22
g30
sbsg7
I4
sg21
I01
sg22
g23
sbsg7
I5
sg21
I01
sg22
g85
sba(imyEvolve
Tree
p667
(dp668
g17
(imyEvolve
Tree
p669
(dp670
g8
(imyEvolve
Tree
p671
(dp672
g17
(imyEvolve
Tree
p673
(dp674
g17
(imyEvolve
Tree
p675
(dp676
g7
I0
sg20
I00
sbsg7
I1
sg21
I01
sg22
g85
sbsg7
I2
sg21
I01
sg22
g40
sbsg7
I3
sg24
(imyEvolve
Tree
p677
(dp678
g17
(imyEvolve
Tree
p679
(dp680
g8
(imyEvolve
Tree
p681
(dp682
g7
I0
sg29
F0.9613984775954334
sg20
I01
sbsg7
I1
sg24
(imyEvolve
Tree
p683
(dp684
g7
I0
sg29
F-3.4249081922598146
sg20
I01
sbsg21
I00
sg22
g51
sbsg7
I2
sg21
I01
sg22
g23
sbsg21
I00
sg22
g30
sbsg7
I4
sg21
I01
sg22
g85
sbaasS'alpha'
p685
F0.006081428776862099
sS'fitness'
p686
cnumpy.core.multiarray
scalar
p687
(cnumpy
dtype
p688
(S'f8'
p689
I0
I1
tp690
Rp691
(I3
S'<'
p692
NNNI-1
I-1
I0
tp693
bS'\x00\x88\x16\xd9\x8avT\xbf'
p694
tp695
Rp696
sS'weightSharing'
p697
(lp698
I01
aI00
asS'fitnessValid'
p699
I00
sS'resolution'
p700
I100
sb.