(imyEvolve
Individual
p0
(dp1
S'funcs'
p2
(lp3
(lp4
(imyEvolve
Tree
p5
(dp6
S'below'
p7
(imyEvolve
Tree
p8
(dp9
S'depth'
p10
I2
sS'left'
p11
(imyEvolve
Tree
p12
(dp13
g7
(imyEvolve
Tree
p14
(dp15
g10
I0
sS'isConstant'
p16
I00
sbsg10
I1
sS'single'
p17
I01
sS'op'
p18
cmath
sin
p19
sbsS'right'
p20
(imyEvolve
Tree
p21
(dp22
g7
(imyEvolve
Tree
p23
(dp24
g10
I0
sS'constant'
p25
F-4.699336191797466
sg16
I01
sbsg10
I1
sg17
I01
sg18
g19
sbsg17
I00
sg18
coperator
mul
p26
sbsg10
I3
sg17
I01
sg18
cmyEvolve
square
p27
sba(imyEvolve
Tree
p28
(dp29
g10
I2
sg11
(imyEvolve
Tree
p30
(dp31
g10
I1
sg11
(imyEvolve
Tree
p32
(dp33
g10
I0
sg25
F-1.8249297734850876
sg16
I01
sbsg20
(imyEvolve
Tree
p34
(dp35
g10
I0
sg16
I00
sbsg17
I00
sg18
g26
sbsg20
(imyEvolve
Tree
p36
(dp37
g7
(imyEvolve
Tree
p38
(dp39
g10
I0
sg16
I00
sbsg10
I1
sg17
I01
sg18
cmath
cos
p40
sbsg17
I00
sg18
coperator
sub
p41
sba(imyEvolve
Tree
p42
(dp43
g7
(imyEvolve
Tree
p44
(dp45
g7
(imyEvolve
Tree
p46
(dp47
g7
(imyEvolve
Tree
p48
(dp49
g10
I0
sg25
F0.6748000593336476
sg16
I01
sbsg10
I1
sg17
I01
sg18
g27
sbsg10
I2
sg17
I01
sg18
g27
sbsg10
I3
sg17
I01
sg18
g19
sba(imyEvolve
Tree
p50
(dp51
g7
(imyEvolve
Tree
p52
(dp53
g10
I4
sg11
(imyEvolve
Tree
p54
(dp55
g7
(imyEvolve
Tree
p56
(dp57
g10
I2
sg11
(imyEvolve
Tree
p58
(dp59
g10
I1
sg11
(imyEvolve
Tree
p60
(dp61
g10
I0
sg25
F-1.4155141554360773
sg16
I01
sbsg20
(imyEvolve
Tree
p62
(dp63
g10
I0
sg16
I00
sbsg17
I00
sg18
g26
sbsg20
(imyEvolve
Tree
p64
(dp65
g10
I1
sg11
(imyEvolve
Tree
p66
(dp67
g10
I0
sg16
I00
sbsg20
(imyEvolve
Tree
p68
(dp69
g10
I0
sg25
F-3.848924143690715
sg16
I01
sbsg17
I00
sg18
coperator
add
p70
sbsg17
I00
sg18
g41
sbsg10
I3
sg17
I01
sg18
cmyEvolve
absSqrt
p71
sbsg20
(imyEvolve
Tree
p72
(dp73
g7
(imyEvolve
Tree
p74
(dp75
g10
I2
sg11
(imyEvolve
Tree
p76
(dp77
g10
I1
sg11
(imyEvolve
Tree
p78
(dp79
g10
I0
sg25
F4.0682584584085095
sg16
I01
sbsg20
(imyEvolve
Tree
p80
(dp81
g10
I0
sg25
F0.1827696753121577
sg16
I01
sbsg17
I00
sg18
g41
sbsg20
(imyEvolve
Tree
p82
(dp83
g10
I1
sg11
(imyEvolve
Tree
p84
(dp85
g10
I0
sg25
F4.803207827451741
sg16
I01
sbsg20
(imyEvolve
Tree
p86
(dp87
g10
I0
sg16
I00
sbsg17
I00
sg18
g41
sbsg17
I00
sg18
g70
sbsg10
I3
sg17
I01
sg18
g27
sbsg17
I00
sg18
g70
sbsg10
I5
sg17
I01
sg18
g19
sba(imyEvolve
Tree
p88
(dp89
g7
(imyEvolve
Tree
p90
(dp91
g10
I2
sg11
(imyEvolve
Tree
p92
(dp93
g7
(imyEvolve
Tree
p94
(dp95
g10
I0
sg16
I00
sbsg10
I1
sg17
I01
sg18
g19
sbsg20
(imyEvolve
Tree
p96
(dp97
g7
(imyEvolve
Tree
p98
(dp99
g10
I0
sg16
I00
sbsg10
I1
sg17
I01
sg18
g40
sbsg17
I00
sg18
g26
sbsg10
I3
sg17
I01
sg18
g19
sba(imyEvolve
Tree
p100
(dp101
g7
(imyEvolve
Tree
p102
(dp103
g10
I4
sg11
(imyEvolve
Tree
p104
(dp105
g7
(imyEvolve
Tree
p106
(dp107
g7
(imyEvolve
Tree
p108
(dp109
g10
I1
sg11
(imyEvolve
Tree
p110
(dp111
g10
I0
sg25
F-4.9639819423545815
sg16
I01
sbsg20
(imyEvolve
Tree
p112
(dp113
g10
I0
sg25
F2.528091713052283
sg16
I01
sbsg17
I00
sg18
g41
sbsg10
I2
sg17
I01
sg18
g19
sbsg10
I3
sg17
I01
sg18
g71
sbsg20
(imyEvolve
Tree
p114
(dp115
g10
I3
sg11
(imyEvolve
Tree
p116
(dp117
g7
(imyEvolve
Tree
p118
(dp119
g7
(imyEvolve
Tree
p120
(dp121
g10
I0
sg16
I00
sbsg10
I1
sg17
I01
sg18
g19
sbsg10
I2
sg17
I01
sg18
g19
sbsg20
(imyEvolve
Tree
p122
(dp123
g7
(imyEvolve
Tree
p124
(dp125
g7
(imyEvolve
Tree
p126
(dp127
g10
I0
sg25
F2.8035168161664696
sg16
I01
sbsg10
I1
sg17
I01
sg18
g27
sbsg10
I2
sg17
I01
sg18
g40
sbsg17
I00
sg18
g70
sbsg17
I00
sg18
g26
sbsg10
I5
sg17
I01
sg18
g71
sba(imyEvolve
Tree
p128
(dp129
g10
I2
sg11
(imyEvolve
Tree
p130
(dp131
g7
(imyEvolve
Tree
p132
(dp133
g10
I0
sg25
F2.447859002492879
sg16
I01
sbsg10
I1
sg17
I01
sg18
g27
sbsg20
(imyEvolve
Tree
p134
(dp135
g7
(imyEvolve
Tree
p136
(dp137
g10
I0
sg16
I00
sbsg10
I1
sg17
I01
sg18
g27
sbsg17
I00
sg18
g41
sba(imyEvolve
Tree
p138
(dp139
g10
I3
sg11
(imyEvolve
Tree
p140
(dp141
g7
(imyEvolve
Tree
p142
(dp143
g7
(imyEvolve
Tree
p144
(dp145
g10
I0
sg25
F1.8609810140273257
sg16
I01
sbsg10
I1
sg17
I01
sg18
g71
sbsg10
I2
sg17
I01
sg18
g27
sbsg20
(imyEvolve
Tree
p146
(dp147
g10
I2
sg11
(imyEvolve
Tree
p148
(dp149
g7
(imyEvolve
Tree
p150
(dp151
g10
I0
sg25
F0.5811840220182685
sg16
I01
sbsg10
I1
sg17
I01
sg18
g27
sbsg20
(imyEvolve
Tree
p152
(dp153
g10
I1
sg11
(imyEvolve
Tree
p154
(dp155
g10
I0
sg25
F2.4051187040331667
sg16
I01
sbsg20
(imyEvolve
Tree
p156
(dp157
g10
I0
sg25
F-1.6494569130436787
sg16
I01
sbsg17
I00
sg18
g70
sbsg17
I00
sg18
g26
sbsg17
I00
sg18
g70
sba(imyEvolve
Tree
p158
(dp159
g7
(imyEvolve
Tree
p160
(dp161
g10
I4
sg11
(imyEvolve
Tree
p162
(dp163
g7
(imyEvolve
Tree
p164
(dp165
g7
(imyEvolve
Tree
p166
(dp167
g7
(imyEvolve
Tree
p168
(dp169
g10
I0
sg25
F3.2352930734638115
sg16
I01
sbsg10
I1
sg17
I01
sg18
g40
sbsg10
I2
sg17
I01
sg18
g71
sbsg10
I3
sg17
I01
sg18
g27
sbsg20
(imyEvolve
Tree
p170
(dp171
g7
(imyEvolve
Tree
p172
(dp173
g10
I2
sg11
(imyEvolve
Tree
p174
(dp175
g10
I1
sg11
(imyEvolve
Tree
p176
(dp177
g10
I0
sg25
F-2.0490382152728226
sg16
I01
sbsg20
(imyEvolve
Tree
p178
(dp179
g10
I0
sg16
I00
sbsg17
I00
sg18
g70
sbsg20
(imyEvolve
Tree
p180
(dp181
g7
(imyEvolve
Tree
p182
(dp183
g10
I0
sg16
I00
sbsg10
I1
sg17
I01
sg18
g40
sbsg17
I00
sg18
g41
sbsg10
I3
sg17
I01
sg18
g40
sbsg17
I00
sg18
g70
sbsg10
I5
sg17
I01
sg18
g40
sba(imyEvolve
Tree
p184
(dp185
g7
(imyEvolve
Tree
p186
(dp187
g10
I2
sg11
(imyEvolve
Tree
p188
(dp189
g7
(imyEvolve
Tree
p190
(dp191
g10
I0
sg16
I00
sbsg10
I1
sg17
I01
sg18
g27
sbsg20
(imyEvolve
Tree
p192
(dp193
g7
(imyEvolve
Tree
p194
(dp195
g10
I0
sg25
F-2.847726832584887
sg16
I01
sbsg10
I1
sg17
I01
sg18
g27
sbsg17
I00
sg18
g26
sbsg10
I3
sg17
I01
sg18
g40
sba(imyEvolve
Tree
p196
(dp197
g10
I5
sg11
(imyEvolve
Tree
p198
(dp199
g7
(imyEvolve
Tree
p200
(dp201
g10
I3
sg11
(imyEvolve
Tree
p202
(dp203
g7
(imyEvolve
Tree
p204
(dp205
g10
I1
sg11
(imyEvolve
Tree
p206
(dp207
g10
I0
sg25
F0.9157334483908901
sg16
I01
sbsg20
(imyEvolve
Tree
p208
(dp209
g10
I0
sg16
I00
sbsg17
I00
sg18
g41
sbsg10
I2
sg17
I01
sg18
g19
sbsg20
(imyEvolve
Tree
p210
(dp211
g7
(imyEvolve
Tree
p212
(dp213
g7
(imyEvolve
Tree
p214
(dp215
g10
I0
sg25
F-0.929863369199639
sg16
I01
sbsg10
I1
sg17
I01
sg18
g19
sbsg10
I2
sg17
I01
sg18
g27
sbsg17
I00
sg18
g41
sbsg10
I4
sg17
I01
sg18
g40
sbsg20
(imyEvolve
Tree
p216
(dp217
g10
I4
sg11
(imyEvolve
Tree
p218
(dp219
g10
I3
sg11
(imyEvolve
Tree
p220
(dp221
g7
(imyEvolve
Tree
p222
(dp223
g10
I1
sg11
(imyEvolve
Tree
p224
(dp225
g10
I0
sg25
F3.2441292060381812
sg16
I01
sbsg20
(imyEvolve
Tree
p226
(dp227
g10
I0
sg16
I00
sbsg17
I00
sg18
g26
sbsg10
I2
sg17
I01
sg18
g19
sbsg20
(imyEvolve
Tree
p228
(dp229
g7
(imyEvolve
Tree
p230
(dp231
g10
I1
sg11
(imyEvolve
Tree
p232
(dp233
g10
I0
sg25
F2.1546351894387197
sg16
I01
sbsg20
(imyEvolve
Tree
p234
(dp235
g10
I0
sg25
F-3.329168484610202
sg16
I01
sbsg17
I00
sg18
g70
sbsg10
I2
sg17
I01
sg18
g27
sbsg17
I00
sg18
g41
sbsg20
(imyEvolve
Tree
p236
(dp237
g7
(imyEvolve
Tree
p238
(dp239
g10
I2
sg11
(imyEvolve
Tree
p240
(dp241
g10
I1
sg11
(imyEvolve
Tree
p242
(dp243
g10
I0
sg16
I00
sbsg20
(imyEvolve
Tree
p244
(dp245
g10
I0
sg25
F-3.085475233914882
sg16
I01
sbsg17
I00
sg18
g70
sbsg20
(imyEvolve
Tree
p246
(dp247
g10
I1
sg11
(imyEvolve
Tree
p248
(dp249
g10
I0
sg25
F1.5007279758993466
sg16
I01
sbsg20
(imyEvolve
Tree
p250
(dp251
g10
I0
sg25
F-1.142624001435515
sg16
I01
sbsg17
I00
sg18
g41
sbsg17
I00
sg18
g41
sbsg10
I3
sg17
I01
sg18
g40
sbsg17
I00
sg18
g26
sbsg17
I00
sg18
g41
sba(imyEvolve
Tree
p252
(dp253
g10
I2
sg11
(imyEvolve
Tree
p254
(dp255
g10
I1
sg11
(imyEvolve
Tree
p256
(dp257
g10
I0
sg25
F-4.92844273275367
sg16
I01
sbsg20
(imyEvolve
Tree
p258
(dp259
g10
I0
sg25
F-2.298684231112343
sg16
I01
sbsg17
I00
sg18
g26
sbsg20
(imyEvolve
Tree
p260
(dp261
g7
(imyEvolve
Tree
p262
(dp263
g10
I0
sg16
I00
sbsg10
I1
sg17
I01
sg18
g40
sbsg17
I00
sg18
g41
sba(imyEvolve
Tree
p264
(dp265
g10
I2
sg11
(imyEvolve
Tree
p266
(dp267
g7
(imyEvolve
Tree
p268
(dp269
g10
I0
sg16
I00
sbsg10
I1
sg17
I01
sg18
g40
sbsg20
(imyEvolve
Tree
p270
(dp271
g7
(imyEvolve
Tree
p272
(dp273
g10
I0
sg25
F3.157778114274368
sg16
I01
sbsg10
I1
sg17
I01
sg18
g19
sbsg17
I00
sg18
g26
sba(imyEvolve
Tree
p274
(dp275
g7
(imyEvolve
Tree
p276
(dp277
g10
I3
sg11
(imyEvolve
Tree
p278
(dp279
g10
I2
sg11
(imyEvolve
Tree
p280
(dp281
g10
I1
sg11
(imyEvolve
Tree
p282
(dp283
g10
I0
sg25
F-3.6104978071670812
sg16
I01
sbsg20
(imyEvolve
Tree
p284
(dp285
g10
I0
sg16
I00
sbsg17
I00
sg18
g41
sbsg20
(imyEvolve
Tree
p286
(dp287
g7
(imyEvolve
Tree
p288
(dp289
g10
I0
sg16
I00
sbsg10
I1
sg17
I01
sg18
g19
sbsg17
I00
sg18
g41
sbsg20
(imyEvolve
Tree
p290
(dp291
g7
(imyEvolve
Tree
p292
(dp293
g10
I1
sg11
(imyEvolve
Tree
p294
(dp295
g10
I0
sg25
F4.289902114850037
sg16
I01
sbsg20
(imyEvolve
Tree
p296
(dp297
g10
I0
sg16
I00
sbsg17
I00
sg18
g70
sbsg10
I2
sg17
I01
sg18
g19
sbsg17
I00
sg18
g70
sbsg10
I4
sg17
I01
sg18
g71
sba(imyEvolve
Tree
p298
(dp299
g7
(imyEvolve
Tree
p300
(dp301
g10
I3
sg11
(imyEvolve
Tree
p302
(dp303
g10
I2
sg11
(imyEvolve
Tree
p304
(dp305
g10
I1
sg11
(imyEvolve
Tree
p306
(dp307
g10
I0
sg25
F-3.0621446302367303
sg16
I01
sbsg20
(imyEvolve
Tree
p308
(dp309
g10
I0
sg16
I00
sbsg17
I00
sg18
g70
sbsg20
(imyEvolve
Tree
p310
(dp311
g10
I1
sg11
(imyEvolve
Tree
p312
(dp313
g10
I0
sg25
F1.9336814065784358
sg16
I01
sbsg20
(imyEvolve
Tree
p314
(dp315
g10
I0
sg25
F4.18203124555756
sg16
I01
sbsg17
I00
sg18
g41
sbsg17
I00
sg18
g70
sbsg20
(imyEvolve
Tree
p316
(dp317
g10
I2
sg11
(imyEvolve
Tree
p318
(dp319
g7
(imyEvolve
Tree
p320
(dp321
g10
I0
sg25
F-0.14276244896407597
sg16
I01
sbsg10
I1
sg17
I01
sg18
g71
sbsg20
(imyEvolve
Tree
p322
(dp323
g10
I1
sg11
(imyEvolve
Tree
p324
(dp325
g10
I0
sg16
I00
sbsg20
(imyEvolve
Tree
p326
(dp327
g10
I0
sg25
F3.8629175072568263
sg16
I01
sbsg17
I00
sg18
g70
sbsg17
I00
sg18
g26
sbsg17
I00
sg18
g41
sbsg10
I4
sg17
I01
sg18
g40
sbaa(lp328
(imyEvolve
Tree
p329
(dp330
g7
(imyEvolve
Tree
p331
(dp332
g10
I2
sg11
(imyEvolve
Tree
p333
(dp334
g7
(imyEvolve
Tree
p335
(dp336
g10
I0
sg16
I00
sbsg10
I1
sg17
I01
sg18
g19
sbsg20
(imyEvolve
Tree
p337
(dp338
g7
(imyEvolve
Tree
p339
(dp340
g10
I0
sg25
F4.337426742408063
sg16
I01
sbsg10
I1
sg17
I01
sg18
g19
sbsg17
I00
sg18
g26
sbsg10
I3
sg17
I01
sg18
g40
sba(imyEvolve
Tree
p341
(dp342
g7
(imyEvolve
Tree
p343
(dp344
g10
I4
sg11
(imyEvolve
Tree
p345
(dp346
g7
(imyEvolve
Tree
p347
(dp348
g7
(imyEvolve
Tree
p349
(dp350
g7
(imyEvolve
Tree
p351
(dp352
g10
I0
sg25
F-4.4286018167183965
sg16
I01
sbsg10
I1
sg17
I01
sg18
g71
sbsg10
I2
sg17
I01
sg18
g40
sbsg10
I3
sg17
I01
sg18
g19
sbsg20
(imyEvolve
Tree
p353
(dp354
g7
(imyEvolve
Tree
p355
(dp356
g7
(imyEvolve
Tree
p357
(dp358
g10
I1
sg11
(imyEvolve
Tree
p359
(dp360
g10
I0
sg25
F-0.6416754061606298
sg16
I01
sbsg20
(imyEvolve
Tree
p361
(dp362
g10
I0
sg25
F-3.7315818202417317
sg16
I01
sbsg17
I00
sg18
g70
sbsg10
I2
sg17
I01
sg18
g19
sbsg10
I3
sg17
I01
sg18
g27
sbsg17
I00
sg18
g26
sbsg10
I5
sg17
I01
sg18
g19
sba(imyEvolve
Tree
p363
(dp364
g10
I5
sg11
(imyEvolve
Tree
p365
(dp366
g7
(imyEvolve
Tree
p367
(dp368
g7
(imyEvolve
Tree
p369
(dp370
g7
(imyEvolve
Tree
p371
(dp372
g7
(imyEvolve
Tree
p373
(dp374
g10
I0
sg16
I00
sbsg10
I1
sg17
I01
sg18
g19
sbsg10
I2
sg17
I01
sg18
g40
sbsg10
I3
sg17
I01
sg18
g19
sbsg10
I4
sg17
I01
sg18
g19
sbsg20
(imyEvolve
Tree
p375
(dp376
g10
I4
sg11
(imyEvolve
Tree
p377
(dp378
g7
(imyEvolve
Tree
p379
(dp380
g10
I2
sg11
(imyEvolve
Tree
p381
(dp382
g10
I1
sg11
(imyEvolve
Tree
p383
(dp384
g10
I0
sg16
I00
sbsg20
(imyEvolve
Tree
p385
(dp386
g10
I0
sg25
F-1.0360948814013957
sg16
I01
sbsg17
I00
sg18
g70
sbsg20
(imyEvolve
Tree
p387
(dp388
g10
I1
sg11
(imyEvolve
Tree
p389
(dp390
g10
I0
sg25
F-0.6438985272681927
sg16
I01
sbsg20
(imyEvolve
Tree
p391
(dp392
g10
I0
sg25
F1.7936722507307348
sg16
I01
sbsg17
I00
sg18
g70
sbsg17
I00
sg18
g41
sbsg10
I3
sg17
I01
sg18
g27
sbsg20
(imyEvolve
Tree
p393
(dp394
g10
I3
sg11
(imyEvolve
Tree
p395
(dp396
g10
I2
sg11
(imyEvolve
Tree
p397
(dp398
g7
(imyEvolve
Tree
p399
(dp400
g10
I0
sg25
F4.617486510920388
sg16
I01
sbsg10
I1
sg17
I01
sg18
g71
sbsg20
(imyEvolve
Tree
p401
(dp402
g7
(imyEvolve
Tree
p403
(dp404
g10
I0
sg16
I00
sbsg10
I1
sg17
I01
sg18
g71
sbsg17
I00
sg18
g26
sbsg20
(imyEvolve
Tree
p405
(dp406
g7
(imyEvolve
Tree
p407
(dp408
g10
I1
sg11
(imyEvolve
Tree
p409
(dp410
g10
I0
sg25
F1.227326688765375
sg16
I01
sbsg20
(imyEvolve
Tree
p411
(dp412
g10
I0
sg25
F1.5747741987850636
sg16
I01
sbsg17
I00
sg18
g41
sbsg10
I2
sg17
I01
sg18
g19
sbsg17
I00
sg18
g41
sbsg17
I00
sg18
g41
sbsg17
I00
sg18
g26
sba(imyEvolve
Tree
p413
(dp414
g7
(imyEvolve
Tree
p415
(dp416
g10
I4
sg11
(imyEvolve
Tree
p417
(dp418
g10
I3
sg11
(imyEvolve
Tree
p419
(dp420
g7
(imyEvolve
Tree
p421
(dp422
g10
I1
sg11
(imyEvolve
Tree
p423
(dp424
g10
I0
sg16
I00
sbsg20
(imyEvolve
Tree
p425
(dp426
g10
I0
sg25
F-0.07847572306045159
sg16
I01
sbsg17
I00
sg18
g41
sbsg10
I2
sg17
I01
sg18
g40
sbsg20
(imyEvolve
Tree
p427
(dp428
g7
(imyEvolve
Tree
p429
(dp430
g7
(imyEvolve
Tree
p431
(dp432
g10
I0
sg25
F-2.235932392179605
sg16
I01
sbsg10
I1
sg17
I01
sg18
g71
sbsg10
I2
sg17
I01
sg18
g27
sbsg17
I00
sg18
g41
sbsg20
(imyEvolve
Tree
p433
(dp434
g10
I3
sg11
(imyEvolve
Tree
p435
(dp436
g7
(imyEvolve
Tree
p437
(dp438
g7
(imyEvolve
Tree
p439
(dp440
g10
I0
sg25
F4.510622796347141
sg16
I01
sbsg10
I1
sg17
I01
sg18
g40
sbsg10
I2
sg17
I01
sg18
g27
sbsg20
(imyEvolve
Tree
p441
(dp442
g10
I2
sg11
(imyEvolve
Tree
p443
(dp444
g10
I1
sg11
(imyEvolve
Tree
p445
(dp446
g10
I0
sg25
F-4.319130721437797
sg16
I01
sbsg20
(imyEvolve
Tree
p447
(dp448
g10
I0
sg25
F2.4602676660042464
sg16
I01
sbsg17
I00
sg18
g41
sbsg20
(imyEvolve
Tree
p449
(dp450
g10
I1
sg11
(imyEvolve
Tree
p451
(dp452
g10
I0
sg25
F-4.7529618110145755
sg16
I01
sbsg20
(imyEvolve
Tree
p453
(dp454
g10
I0
sg16
I00
sbsg17
I00
sg18
g70
sbsg17
I00
sg18
g70
sbsg17
I00
sg18
g26
sbsg17
I00
sg18
g41
sbsg10
I5
sg17
I01
sg18
g71
sba(imyEvolve
Tree
p455
(dp456
g10
I2
sg11
(imyEvolve
Tree
p457
(dp458
g10
I1
sg11
(imyEvolve
Tree
p459
(dp460
g10
I0
sg25
F-2.647087149613924
sg16
I01
sbsg20
(imyEvolve
Tree
p461
(dp462
g10
I0
sg25
F-1.6503586089369957
sg16
I01
sbsg17
I00
sg18
g41
sbsg20
(imyEvolve
Tree
p463
(dp464
g7
(imyEvolve
Tree
p465
(dp466
g10
I0
sg16
I00
sbsg10
I1
sg17
I01
sg18
g19
sbsg17
I00
sg18
g70
sba(imyEvolve
Tree
p467
(dp468
g7
(imyEvolve
Tree
p469
(dp470
g10
I2
sg11
(imyEvolve
Tree
p471
(dp472
g7
(imyEvolve
Tree
p473
(dp474
g10
I0
sg25
F-2.421110881591373
sg16
I01
sbsg10
I1
sg17
I01
sg18
g19
sbsg20
(imyEvolve
Tree
p475
(dp476
g7
(imyEvolve
Tree
p477
(dp478
g10
I0
sg16
I00
sbsg10
I1
sg17
I01
sg18
g19
sbsg17
I00
sg18
g70
sbsg10
I3
sg17
I01
sg18
g40
sba(imyEvolve
Tree
p479
(dp480
g10
I2
sg11
(imyEvolve
Tree
p481
(dp482
g7
(imyEvolve
Tree
p483
(dp484
g10
I0
sg25
F2.0136476035085735
sg16
I01
sbsg10
I1
sg17
I01
sg18
g40
sbsg20
(imyEvolve
Tree
p485
(dp486
g10
I1
sg11
(imyEvolve
Tree
p487
(dp488
g10
I0
sg25
F4.900319412511088
sg16
I01
sbsg20
(imyEvolve
Tree
p489
(dp490
g10
I0
sg16
I00
sbsg17
I00
sg18
g41
sbsg17
I00
sg18
g41
sba(imyEvolve
Tree
p491
(dp492
g10
I5
sg11
(imyEvolve
Tree
p493
(dp494
g10
I4
sg11
(imyEvolve
Tree
p495
(dp496
g10
I3
sg11
(imyEvolve
Tree
p497
(dp498
g10
I2
sg11
(imyEvolve
Tree
p499
(dp500
g7
(imyEvolve
Tree
p501
(dp502
g10
I0
sg25
F-4.28317807947651
sg16
I01
sbsg10
I1
sg17
I01
sg18
g27
sbsg20
(imyEvolve
Tree
p503
(dp504
g7
(imyEvolve
Tree
p505
(dp506
g10
I0
sg16
I00
sbsg10
I1
sg17
I01
sg18
g27
sbsg17
I00
sg18
g41
sbsg20
(imyEvolve
Tree
p507
(dp508
g7
(imyEvolve
Tree
p509
(dp510
g10
I1
sg11
(imyEvolve
Tree
p511
(dp512
g10
I0
sg25
F4.160020778371495
sg16
I01
sbsg20
(imyEvolve
Tree
p513
(dp514
g10
I0
sg16
I00
sbsg17
I00
sg18
g41
sbsg10
I2
sg17
I01
sg18
g40
sbsg17
I00
sg18
g26
sbsg20
(imyEvolve
Tree
p515
(dp516
g10
I3
sg11
(imyEvolve
Tree
p517
(dp518
g10
I2
sg11
(imyEvolve
Tree
p519
(dp520
g7
(imyEvolve
Tree
p521
(dp522
g10
I0
sg25
F-1.8977889881437293
sg16
I01
sbsg10
I1
sg17
I01
sg18
g19
sbsg20
(imyEvolve
Tree
p523
(dp524
g10
I1
sg11
(imyEvolve
Tree
p525
(dp526
g10
I0
sg16
I00
sbsg20
(imyEvolve
Tree
p527
(dp528
g10
I0
sg16
I00
sbsg17
I00
sg18
g41
sbsg17
I00
sg18
g41
sbsg20
(imyEvolve
Tree
p529
(dp530
g10
I2
sg11
(imyEvolve
Tree
p531
(dp532
g7
(imyEvolve
Tree
p533
(dp534
g10
I0
sg25
F0.04986010796356055
sg16
I01
sbsg10
I1
sg17
I01
sg18
g71
sbsg20
(imyEvolve
Tree
p535
(dp536
g10
I1
sg11
(imyEvolve
Tree
p537
(dp538
g10
I0
sg16
I00
sbsg20
(imyEvolve
Tree
p539
(dp540
g10
I0
sg25
F4.207907719476367
sg16
I01
sbsg17
I00
sg18
g26
sbsg17
I00
sg18
g70
sbsg17
I00
sg18
g70
sbsg17
I00
sg18
g26
sbsg20
(imyEvolve
Tree
p541
(dp542
g7
(imyEvolve
Tree
p543
(dp544
g10
I3
sg11
(imyEvolve
Tree
p545
(dp546
g7
(imyEvolve
Tree
p547
(dp548
g7
(imyEvolve
Tree
p549
(dp550
g10
I0
sg25
F1.6006102165202618
sg16
I01
sbsg10
I1
sg17
I01
sg18
g71
sbsg10
I2
sg17
I01
sg18
g40
sbsg20
(imyEvolve
Tree
p551
(dp552
g7
(imyEvolve
Tree
p553
(dp554
g7
(imyEvolve
Tree
p555
(dp556
g10
I0
sg25
F3.195747139680565
sg16
I01
sbsg10
I1
sg17
I01
sg18
g40
sbsg10
I2
sg17
I01
sg18
g19
sbsg17
I00
sg18
g26
sbsg10
I4
sg17
I01
sg18
g71
sbsg17
I00
sg18
g41
sba(imyEvolve
Tree
p557
(dp558
g10
I3
sg11
(imyEvolve
Tree
p559
(dp560
g10
I2
sg11
(imyEvolve
Tree
p561
(dp562
g7
(imyEvolve
Tree
p563
(dp564
g10
I0
sg25
F-1.9549572726737194
sg16
I01
sbsg10
I1
sg17
I01
sg18
g19
sbsg20
(imyEvolve
Tree
p565
(dp566
g10
I1
sg11
(imyEvolve
Tree
p567
(dp568
g10
I0
sg16
I00
sbsg20
(imyEvolve
Tree
p569
(dp570
g10
I0
sg25
F-4.527361723546145
sg16
I01
sbsg17
I00
sg18
g41
sbsg17
I00
sg18
g70
sbsg20
(imyEvolve
Tree
p571
(dp572
g7
(imyEvolve
Tree
p573
(dp574
g10
I1
sg11
(imyEvolve
Tree
p575
(dp576
g10
I0
sg16
I00
sbsg20
(imyEvolve
Tree
p577
(dp578
g10
I0
sg25
F3.1993862755420324
sg16
I01
sbsg17
I00
sg18
g70
sbsg10
I2
sg17
I01
sg18
g27
sbsg17
I00
sg18
g70
sbaa(lp579
(imyEvolve
Tree
p580
(dp581
g7
(imyEvolve
Tree
p582
(dp583
g10
I3
sg11
(imyEvolve
Tree
p584
(dp585
g7
(imyEvolve
Tree
p586
(dp587
g7
(imyEvolve
Tree
p588
(dp589
g10
I0
sg16
I00
sbsg10
I1
sg17
I01
sg18
g19
sbsg10
I2
sg17
I01
sg18
g27
sbsg20
(imyEvolve
Tree
p590
(dp591
g7
(imyEvolve
Tree
p592
(dp593
g7
(imyEvolve
Tree
p594
(dp595
g10
I0
sg16
I00
sbsg10
I1
sg17
I01
sg18
g71
sbsg10
I2
sg17
I01
sg18
g19
sbsg17
I00
sg18
g26
sbsg10
I4
sg17
I01
sg18
g27
sba(imyEvolve
Tree
p596
(dp597
g7
(imyEvolve
Tree
p598
(dp599
g7
(imyEvolve
Tree
p600
(dp601
g10
I1
sg11
(imyEvolve
Tree
p602
(dp603
g10
I0
sg25
F1.2862761018279105
sg16
I01
sbsg20
(imyEvolve
Tree
p604
(dp605
g10
I0
sg25
F-3.5719400966197448
sg16
I01
sbsg17
I00
sg18
g70
sbsg10
I2
sg17
I01
sg18
g40
sbsg10
I3
sg17
I01
sg18
g27
sba(imyEvolve
Tree
p606
(dp607
g10
I2
sg11
(imyEvolve
Tree
p608
(dp609
g7
(imyEvolve
Tree
p610
(dp611
g10
I0
sg25
F-3.726566452348904
sg16
I01
sbsg10
I1
sg17
I01
sg18
g71
sbsg20
(imyEvolve
Tree
p612
(dp613
g7
(imyEvolve
Tree
p614
(dp615
g10
I0
sg16
I00
sbsg10
I1
sg17
I01
sg18
g19
sbsg17
I00
sg18
g26
sba(imyEvolve
Tree
p616
(dp617
g10
I4
sg11
(imyEvolve
Tree
p618
(dp619
g7
(imyEvolve
Tree
p620
(dp621
g7
(imyEvolve
Tree
p622
(dp623
g10
I1
sg11
(imyEvolve
Tree
p624
(dp625
g10
I0
sg16
I00
sbsg20
(imyEvolve
Tree
p626
(dp627
g10
I0
sg25
F2.416138563725153
sg16
I01
sbsg17
I00
sg18
g26
sbsg10
I2
sg17
I01
sg18
g40
sbsg10
I3
sg17
I01
sg18
g19
sbsg20
(imyEvolve
Tree
p628
(dp629
g10
I3
sg11
(imyEvolve
Tree
p630
(dp631
g7
(imyEvolve
Tree
p632
(dp633
g10
I1
sg11
(imyEvolve
Tree
p634
(dp635
g10
I0
sg16
I00
sbsg20
(imyEvolve
Tree
p636
(dp637
g10
I0
sg16
I00
sbsg17
I00
sg18
g41
sbsg10
I2
sg17
I01
sg18
g40
sbsg20
(imyEvolve
Tree
p638
(dp639
g10
I2
sg11
(imyEvolve
Tree
p640
(dp641
g10
I1
sg11
(imyEvolve
Tree
p642
(dp643
g10
I0
sg25
F3.9563642127588246
sg16
I01
sbsg20
(imyEvolve
Tree
p644
(dp645
g10
I0
sg25
F-2.1610779529956847
sg16
I01
sbsg17
I00
sg18
g70
sbsg20
(imyEvolve
Tree
p646
(dp647
g10
I1
sg11
(imyEvolve
Tree
p648
(dp649
g10
I0
sg25
F1.0740542511649087
sg16
I01
sbsg20
(imyEvolve
Tree
p650
(dp651
g10
I0
sg16
I00
sbsg17
I00
sg18
g70
sbsg17
I00
sg18
g41
sbsg17
I00
sg18
g26
sbsg17
I00
sg18
g26
sba(imyEvolve
Tree
p652
(dp653
g7
(imyEvolve
Tree
p654
(dp655
g7
(imyEvolve
Tree
p656
(dp657
g10
I2
sg11
(imyEvolve
Tree
p658
(dp659
g10
I1
sg11
(imyEvolve
Tree
p660
(dp661
g10
I0
sg16
I00
sbsg20
(imyEvolve
Tree
p662
(dp663
g10
I0
sg16
I00
sbsg17
I00
sg18
g70
sbsg20
(imyEvolve
Tree
p664
(dp665
g7
(imyEvolve
Tree
p666
(dp667
g10
I0
sg16
I00
sbsg10
I1
sg17
I01
sg18
g27
sbsg17
I00
sg18
g41
sbsg10
I3
sg17
I01
sg18
g71
sbsg10
I4
sg17
I01
sg18
g27
sba(imyEvolve
Tree
p668
(dp669
g10
I5
sg11
(imyEvolve
Tree
p670
(dp671
g7
(imyEvolve
Tree
p672
(dp673
g7
(imyEvolve
Tree
p674
(dp675
g10
I2
sg11
(imyEvolve
Tree
p676
(dp677
g10
I1
sg11
(imyEvolve
Tree
p678
(dp679
g10
I0
sg25
F0.2440627581004895
sg16
I01
sbsg20
(imyEvolve
Tree
p680
(dp681
g10
I0
sg25
F4.672607319117365
sg16
I01
sbsg17
I00
sg18
g70
sbsg20
(imyEvolve
Tree
p682
(dp683
g10
I1
sg11
(imyEvolve
Tree
p684
(dp685
g10
I0
sg25
F2.629748977170557
sg16
I01
sbsg20
(imyEvolve
Tree
p686
(dp687
g10
I0
sg25
F-3.0854634893777213
sg16
I01
sbsg17
I00
sg18
g70
sbsg17
I00
sg18
g70
sbsg10
I3
sg17
I01
sg18
g71
sbsg10
I4
sg17
I01
sg18
g27
sbsg20
(imyEvolve
Tree
p688
(dp689
g7
(imyEvolve
Tree
p690
(dp691
g7
(imyEvolve
Tree
p692
(dp693
g7
(imyEvolve
Tree
p694
(dp695
g10
I1
sg11
(imyEvolve
Tree
p696
(dp697
g10
I0
sg25
F-2.9908753333705707
sg16
I01
sbsg20
(imyEvolve
Tree
p698
(dp699
g10
I0
sg25
F-1.9966834794083432
sg16
I01
sbsg17
I00
sg18
g26
sbsg10
I2
sg17
I01
sg18
g19
sbsg10
I3
sg17
I01
sg18
g71
sbsg10
I4
sg17
I01
sg18
g71
sbsg17
I00
sg18
g26
sba(imyEvolve
Tree
p700
(dp701
g10
I3
sg11
(imyEvolve
Tree
p702
(dp703
g7
(imyEvolve
Tree
p704
(dp705
g7
(imyEvolve
Tree
p706
(dp707
g10
I0
sg25
F-3.6090290146531223
sg16
I01
sbsg10
I1
sg17
I01
sg18
g19
sbsg10
I2
sg17
I01
sg18
g40
sbsg20
(imyEvolve
Tree
p708
(dp709
g10
I2
sg11
(imyEvolve
Tree
p710
(dp711
g7
(imyEvolve
Tree
p712
(dp713
g10
I0
sg16
I00
sbsg10
I1
sg17
I01
sg18
g27
sbsg20
(imyEvolve
Tree
p714
(dp715
g7
(imyEvolve
Tree
p716
(dp717
g10
I0
sg25
F2.95563057491834
sg16
I01
sbsg10
I1
sg17
I01
sg18
g71
sbsg17
I00
sg18
g70
sbsg17
I00
sg18
g70
sba(imyEvolve
Tree
p718
(dp719
g10
I2
sg11
(imyEvolve
Tree
p720
(dp721
g7
(imyEvolve
Tree
p722
(dp723
g10
I0
sg25
F0.7752709695598003
sg16
I01
sbsg10
I1
sg17
I01
sg18
g19
sbsg20
(imyEvolve
Tree
p724
(dp725
g7
(imyEvolve
Tree
p726
(dp727
g10
I0
sg25
F1.7241730659277765
sg16
I01
sbsg10
I1
sg17
I01
sg18
g40
sbsg17
I00
sg18
g41
sba(imyEvolve
Tree
p728
(dp729
g10
I2
sg11
(imyEvolve
Tree
p730
(dp731
g7
(imyEvolve
Tree
p732
(dp733
g10
I0
sg16
I00
sbsg10
I1
sg17
I01
sg18
g71
sbsg20
(imyEvolve
Tree
p734
(dp735
g10
I1
sg11
(imyEvolve
Tree
p736
(dp737
g10
I0
sg16
I00
sbsg20
(imyEvolve
Tree
p738
(dp739
g10
I0
sg25
F2.4237640974484975
sg16
I01
sbsg17
I00
sg18
g26
sbsg17
I00
sg18
g26
sba(imyEvolve
Tree
p740
(dp741
g7
(imyEvolve
Tree
p742
(dp743
g10
I2
sg11
(imyEvolve
Tree
p744
(dp745
g10
I1
sg11
(imyEvolve
Tree
p746
(dp747
g10
I0
sg25
F-3.4365982277938256
sg16
I01
sbsg20
(imyEvolve
Tree
p748
(dp749
g10
I0
sg16
I00
sbsg17
I00
sg18
g26
sbsg20
(imyEvolve
Tree
p750
(dp751
g7
(imyEvolve
Tree
p752
(dp753
g10
I0
sg25
F-1.2509500029806575
sg16
I01
sbsg10
I1
sg17
I01
sg18
g27
sbsg17
I00
sg18
g70
sbsg10
I3
sg17
I01
sg18
g19
sba(imyEvolve
Tree
p754
(dp755
g10
I4
sg11
(imyEvolve
Tree
p756
(dp757
g10
I3
sg11
(imyEvolve
Tree
p758
(dp759
g10
I2
sg11
(imyEvolve
Tree
p760
(dp761
g7
(imyEvolve
Tree
p762
(dp763
g10
I0
sg25
F3.4853020682271403
sg16
I01
sbsg10
I1
sg17
I01
sg18
g40
sbsg20
(imyEvolve
Tree
p764
(dp765
g10
I1
sg11
(imyEvolve
Tree
p766
(dp767
g10
I0
sg16
I00
sbsg20
(imyEvolve
Tree
p768
(dp769
g10
I0
sg25
F-3.3839269992132284
sg16
I01
sbsg17
I00
sg18
g41
sbsg17
I00
sg18
g41
sbsg20
(imyEvolve
Tree
p770
(dp771
g10
I2
sg11
(imyEvolve
Tree
p772
(dp773
g7
(imyEvolve
Tree
p774
(dp775
g10
I0
sg25
F-4.375271150864495
sg16
I01
sbsg10
I1
sg17
I01
sg18
g19
sbsg20
(imyEvolve
Tree
p776
(dp777
g10
I1
sg11
(imyEvolve
Tree
p778
(dp779
g10
I0
sg16
I00
sbsg20
(imyEvolve
Tree
p780
(dp781
g10
I0
sg25
F-2.557974998848047
sg16
I01
sbsg17
I00
sg18
g26
sbsg17
I00
sg18
g26
sbsg17
I00
sg18
g26
sbsg20
(imyEvolve
Tree
p782
(dp783
g7
(imyEvolve
Tree
p784
(dp785
g7
(imyEvolve
Tree
p786
(dp787
g7
(imyEvolve
Tree
p788
(dp789
g10
I0
sg16
I00
sbsg10
I1
sg17
I01
sg18
g19
sbsg10
I2
sg17
I01
sg18
g27
sbsg10
I3
sg17
I01
sg18
g71
sbsg17
I00
sg18
g70
sba(imyEvolve
Tree
p790
(dp791
g10
I2
sg11
(imyEvolve
Tree
p792
(dp793
g10
I1
sg11
(imyEvolve
Tree
p794
(dp795
g10
I0
sg25
F-3.8739408173186005
sg16
I01
sbsg20
(imyEvolve
Tree
p796
(dp797
g10
I0
sg25
F-2.1110291105775483
sg16
I01
sbsg17
I00
sg18
g26
sbsg20
(imyEvolve
Tree
p798
(dp799
g7
(imyEvolve
Tree
p800
(dp801
g10
I0
sg25
F-3.5627509935848742
sg16
I01
sbsg10
I1
sg17
I01
sg18
g19
sbsg17
I00
sg18
g41
sba(imyEvolve
Tree
p802
(dp803
g7
(imyEvolve
Tree
p804
(dp805
g7
(imyEvolve
Tree
p806
(dp807
g10
I2
sg11
(imyEvolve
Tree
p808
(dp809
g10
I1
sg11
(imyEvolve
Tree
p810
(dp811
g10
I0
sg25
F-0.12981884703519153
sg16
I01
sbsg20
(imyEvolve
Tree
p812
(dp813
g10
I0
sg16
I00
sbsg17
I00
sg18
g70
sbsg20
(imyEvolve
Tree
p814
(dp815
g10
I1
sg11
(imyEvolve
Tree
p816
(dp817
g10
I0
sg16
I00
sbsg20
(imyEvolve
Tree
p818
(dp819
g10
I0
sg25
F-1.888469649659906
sg16
I01
sbsg17
I00
sg18
g70
sbsg17
I00
sg18
g26
sbsg10
I3
sg17
I01
sg18
g19
sbsg10
I4
sg17
I01
sg18
g40
sba(imyEvolve
Tree
p820
(dp821
g10
I5
sg11
(imyEvolve
Tree
p822
(dp823
g7
(imyEvolve
Tree
p824
(dp825
g10
I3
sg11
(imyEvolve
Tree
p826
(dp827
g10
I2
sg11
(imyEvolve
Tree
p828
(dp829
g10
I1
sg11
(imyEvolve
Tree
p830
(dp831
g10
I0
sg16
I00
sbsg20
(imyEvolve
Tree
p832
(dp833
g10
I0
sg16
I00
sbsg17
I00
sg18
g26
sbsg20
(imyEvolve
Tree
p834
(dp835
g7
(imyEvolve
Tree
p836
(dp837
g10
I0
sg25
F-2.931600481936406
sg16
I01
sbsg10
I1
sg17
I01
sg18
g27
sbsg17
I00
sg18
g26
sbsg20
(imyEvolve
Tree
p838
(dp839
g10
I2
sg11
(imyEvolve
Tree
p840
(dp841
g10
I1
sg11
(imyEvolve
Tree
p842
(dp843
g10
I0
sg16
I00
sbsg20
(imyEvolve
Tree
p844
(dp845
g10
I0
sg16
I00
sbsg17
I00
sg18
g70
sbsg20
(imyEvolve
Tree
p846
(dp847
g10
I1
sg11
(imyEvolve
Tree
p848
(dp849
g10
I0
sg25
F0.28595331710116945
sg16
I01
sbsg20
(imyEvolve
Tree
p850
(dp851
g10
I0
sg25
F-1.4029090982008463
sg16
I01
sbsg17
I00
sg18
g70
sbsg17
I00
sg18
g41
sbsg17
I00
sg18
g70
sbsg10
I4
sg17
I01
sg18
g71
sbsg20
(imyEvolve
Tree
p852
(dp853
g7
(imyEvolve
Tree
p854
(dp855
g10
I3
sg11
(imyEvolve
Tree
p856
(dp857
g7
(imyEvolve
Tree
p858
(dp859
g10
I1
sg11
(imyEvolve
Tree
p860
(dp861
g10
I0
sg16
I00
sbsg20
(imyEvolve
Tree
p862
(dp863
g10
I0
sg25
F3.715251353254052
sg16
I01
sbsg17
I00
sg18
g41
sbsg10
I2
sg17
I01
sg18
g40
sbsg20
(imyEvolve
Tree
p864
(dp865
g10
I2
sg11
(imyEvolve
Tree
p866
(dp867
g10
I1
sg11
(imyEvolve
Tree
p868
(dp869
g10
I0
sg16
I00
sbsg20
(imyEvolve
Tree
p870
(dp871
g10
I0
sg25
F-4.944682181784006
sg16
I01
sbsg17
I00
sg18
g41
sbsg20
(imyEvolve
Tree
p872
(dp873
g7
(imyEvolve
Tree
p874
(dp875
g10
I0
sg25
F-4.403677094354798
sg16
I01
sbsg10
I1
sg17
I01
sg18
g27
sbsg17
I00
sg18
g26
sbsg17
I00
sg18
g41
sbsg10
I4
sg17
I01
sg18
g27
sbsg17
I00
sg18
g70
sba(imyEvolve
Tree
p876
(dp877
g7
(imyEvolve
Tree
p878
(dp879
g7
(imyEvolve
Tree
p880
(dp881
g7
(imyEvolve
Tree
p882
(dp883
g10
I2
sg11
(imyEvolve
Tree
p884
(dp885
g10
I1
sg11
(imyEvolve
Tree
p886
(dp887
g10
I0
sg16
I00
sbsg20
(imyEvolve
Tree
p888
(dp889
g10
I0
sg16
I00
sbsg17
I00
sg18
g41
sbsg20
(imyEvolve
Tree
p890
(dp891
g7
(imyEvolve
Tree
p892
(dp893
g10
I0
sg25
F3.355437633418566
sg16
I01
sbsg10
I1
sg17
I01
sg18
g19
sbsg17
I00
sg18
g26
sbsg10
I3
sg17
I01
sg18
g27
sbsg10
I4
sg17
I01
sg18
g71
sbsg10
I5
sg17
I01
sg18
g27
sba(imyEvolve
Tree
p894
(dp895
g10
I2
sg11
(imyEvolve
Tree
p896
(dp897
g10
I1
sg11
(imyEvolve
Tree
p898
(dp899
g10
I0
sg25
F0.5091269772555105
sg16
I01
sbsg20
(imyEvolve
Tree
p900
(dp901
g10
I0
sg16
I00
sbsg17
I00
sg18
g70
sbsg20
(imyEvolve
Tree
p902
(dp903
g10
I1
sg11
(imyEvolve
Tree
p904
(dp905
g10
I0
sg25
F-1.3736930131212768
sg16
I01
sbsg20
(imyEvolve
Tree
p906
(dp907
g10
I0
sg25
F-4.717985987963875
sg16
I01
sbsg17
I00
sg18
g70
sbsg17
I00
sg18
g41
sba(imyEvolve
Tree
p908
(dp909
g10
I5
sg11
(imyEvolve
Tree
p910
(dp911
g10
I4
sg11
(imyEvolve
Tree
p912
(dp913
g10
I3
sg11
(imyEvolve
Tree
p914
(dp915
g7
(imyEvolve
Tree
p916
(dp917
g10
I1
sg11
(imyEvolve
Tree
p918
(dp919
g10
I0
sg25
F0.7525138819746635
sg16
I01
sbsg20
(imyEvolve
Tree
p920
(dp921
g10
I0
sg16
I00
sbsg17
I00
sg18
g70
sbsg10
I2
sg17
I01
sg18
g27
sbsg20
(imyEvolve
Tree
p922
(dp923
g10
I2
sg11
(imyEvolve
Tree
p924
(dp925
g10
I1
sg11
(imyEvolve
Tree
p926
(dp927
g10
I0
sg25
F0.28818171623131583
sg16
I01
sbsg20
(imyEvolve
Tree
p928
(dp929
g10
I0
sg16
I00
sbsg17
I00
sg18
g70
sbsg20
(imyEvolve
Tree
p930
(dp931
g7
(imyEvolve
Tree
p932
(dp933
g10
I0
sg16
I00
sbsg10
I1
sg17
I01
sg18
g71
sbsg17
I00
sg18
g41
sbsg17
I00
sg18
g41
sbsg20
(imyEvolve
Tree
p934
(dp935
g10
I3
sg11
(imyEvolve
Tree
p936
(dp937
g10
I2
sg11
(imyEvolve
Tree
p938
(dp939
g10
I1
sg11
(imyEvolve
Tree
p940
(dp941
g10
I0
sg25
F-1.1615121866265632
sg16
I01
sbsg20
(imyEvolve
Tree
p942
(dp943
g10
I0
sg25
F2.1450921178067297
sg16
I01
sbsg17
I00
sg18
g26
sbsg20
(imyEvolve
Tree
p944
(dp945
g7
(imyEvolve
Tree
p946
(dp947
g10
I0
sg25
F3.023709263240292
sg16
I01
sbsg10
I1
sg17
I01
sg18
g27
sbsg17
I00
sg18
g41
sbsg20
(imyEvolve
Tree
p948
(dp949
g10
I2
sg11
(imyEvolve
Tree
p950
(dp951
g7
(imyEvolve
Tree
p952
(dp953
g10
I0
sg16
I00
sbsg10
I1
sg17
I01
sg18
g19
sbsg20
(imyEvolve
Tree
p954
(dp955
g10
I1
sg11
(imyEvolve
Tree
p956
(dp957
g10
I0
sg16
I00
sbsg20
(imyEvolve
Tree
p958
(dp959
g10
I0
sg16
I00
sbsg17
I00
sg18
g70
sbsg17
I00
sg18
g26
sbsg17
I00
sg18
g70
sbsg17
I00
sg18
g26
sbsg20
(imyEvolve
Tree
p960
(dp961
g10
I4
sg11
(imyEvolve
Tree
p962
(dp963
g10
I3
sg11
(imyEvolve
Tree
p964
(dp965
g7
(imyEvolve
Tree
p966
(dp967
g10
I1
sg11
(imyEvolve
Tree
p968
(dp969
g10
I0
sg16
I00
sbsg20
(imyEvolve
Tree
p970
(dp971
g10
I0
sg16
I00
sbsg17
I00
sg18
g41
sbsg10
I2
sg17
I01
sg18
g40
sbsg20
(imyEvolve
Tree
p972
(dp973
g7
(imyEvolve
Tree
p974
(dp975
g7
(imyEvolve
Tree
p976
(dp977
g10
I0
sg25
F-3.717207720385254
sg16
I01
sbsg10
I1
sg17
I01
sg18
g40
sbsg10
I2
sg17
I01
sg18
g40
sbsg17
I00
sg18
g70
sbsg20
(imyEvolve
Tree
p978
(dp979
g7
(imyEvolve
Tree
p980
(dp981
g10
I2
sg11
(imyEvolve
Tree
p982
(dp983
g10
I1
sg11
(imyEvolve
Tree
p984
(dp985
g10
I0
sg25
F-4.712567861201471
sg16
I01
sbsg20
(imyEvolve
Tree
p986
(dp987
g10
I0
sg25
F1.4075434481426399
sg16
I01
sbsg17
I00
sg18
g41
sbsg20
(imyEvolve
Tree
p988
(dp989
g7
(imyEvolve
Tree
p990
(dp991
g10
I0
sg16
I00
sbsg10
I1
sg17
I01
sg18
g40
sbsg17
I00
sg18
g41
sbsg10
I3
sg17
I01
sg18
g19
sbsg17
I00
sg18
g26
sbsg17
I00
sg18
g26
sba(imyEvolve
Tree
p992
(dp993
g10
I2
sg11
(imyEvolve
Tree
p994
(dp995
g10
I1
sg11
(imyEvolve
Tree
p996
(dp997
g10
I0
sg16
I00
sbsg20
(imyEvolve
Tree
p998
(dp999
g10
I0
sg25
F4.817159896960961
sg16
I01
sbsg17
I00
sg18
g26
sbsg20
(imyEvolve
Tree
p1000
(dp1001
g7
(imyEvolve
Tree
p1002
(dp1003
g10
I0
sg16
I00
sbsg10
I1
sg17
I01
sg18
g71
sbsg17
I00
sg18
g26
sba(imyEvolve
Tree
p1004
(dp1005
g7
(imyEvolve
Tree
p1006
(dp1007
g10
I1
sg11
(imyEvolve
Tree
p1008
(dp1009
g10
I0
sg16
I00
sbsg20
(imyEvolve
Tree
p1010
(dp1011
g10
I0
sg25
F2.9583177347228586
sg16
I01
sbsg17
I00
sg18
g70
sbsg10
I2
sg17
I01
sg18
g71
sba(imyEvolve
Tree
p1012
(dp1013
g10
I3
sg11
(imyEvolve
Tree
p1014
(dp1015
g10
I2
sg11
(imyEvolve
Tree
p1016
(dp1017
g10
I1
sg11
(imyEvolve
Tree
p1018
(dp1019
g10
I0
sg16
I00
sbsg20
(imyEvolve
Tree
p1020
(dp1021
g10
I0
sg16
I00
sbsg17
I00
sg18
g41
sbsg20
(imyEvolve
Tree
p1022
(dp1023
g7
(imyEvolve
Tree
p1024
(dp1025
g10
I0
sg16
I00
sbsg10
I1
sg17
I01
sg18
g71
sbsg17
I00
sg18
g41
sbsg20
(imyEvolve
Tree
p1026
(dp1027
g7
(imyEvolve
Tree
p1028
(dp1029
g10
I1
sg11
(imyEvolve
Tree
p1030
(dp1031
g10
I0
sg16
I00
sbsg20
(imyEvolve
Tree
p1032
(dp1033
g10
I0
sg25
F-2.007370927715626
sg16
I01
sbsg17
I00
sg18
g26
sbsg10
I2
sg17
I01
sg18
g71
sbsg17
I00
sg18
g70
sbaa(lp1034
(imyEvolve
Tree
p1035
(dp1036
g10
I2
sg11
(imyEvolve
Tree
p1037
(dp1038
g10
I1
sg11
(imyEvolve
Tree
p1039
(dp1040
g10
I0
sg16
I00
sbsg20
(imyEvolve
Tree
p1041
(dp1042
g10
I0
sg16
I00
sbsg17
I00
sg18
g70
sbsg20
(imyEvolve
Tree
p1043
(dp1044
g7
(imyEvolve
Tree
p1045
(dp1046
g10
I0
sg16
I00
sbsg10
I1
sg17
I01
sg18
g19
sbsg17
I00
sg18
g70
sba(imyEvolve
Tree
p1047
(dp1048
g7
(imyEvolve
Tree
p1049
(dp1050
g7
(imyEvolve
Tree
p1051
(dp1052
g7
(imyEvolve
Tree
p1053
(dp1054
g7
(imyEvolve
Tree
p1055
(dp1056
g10
I1
sg11
(imyEvolve
Tree
p1057
(dp1058
g10
I0
sg16
I00
sbsg20
(imyEvolve
Tree
p1059
(dp1060
g10
I0
sg25
F-4.878128138663033
sg16
I01
sbsg17
I00
sg18
g26
sbsg10
I2
sg17
I01
sg18
g40
sbsg10
I3
sg17
I01
sg18
g19
sbsg10
I4
sg17
I01
sg18
g27
sbsg10
I5
sg17
I01
sg18
g27
sba(imyEvolve
Tree
p1061
(dp1062
g7
(imyEvolve
Tree
p1063
(dp1064
g10
I3
sg11
(imyEvolve
Tree
p1065
(dp1066
g10
I2
sg11
(imyEvolve
Tree
p1067
(dp1068
g10
I1
sg11
(imyEvolve
Tree
p1069
(dp1070
g10
I0
sg16
I00
sbsg20
(imyEvolve
Tree
p1071
(dp1072
g10
I0
sg16
I00
sbsg17
I00
sg18
g70
sbsg20
(imyEvolve
Tree
p1073
(dp1074
g7
(imyEvolve
Tree
p1075
(dp1076
g10
I0
sg16
I00
sbsg10
I1
sg17
I01
sg18
g40
sbsg17
I00
sg18
g26
sbsg20
(imyEvolve
Tree
p1077
(dp1078
g10
I2
sg11
(imyEvolve
Tree
p1079
(dp1080
g10
I1
sg11
(imyEvolve
Tree
p1081
(dp1082
g10
I0
sg25
F0.6705138201490399
sg16
I01
sbsg20
(imyEvolve
Tree
p1083
(dp1084
g10
I0
sg16
I00
sbsg17
I00
sg18
g41
sbsg20
(imyEvolve
Tree
p1085
(dp1086
g10
I1
sg11
(imyEvolve
Tree
p1087
(dp1088
g10
I0
sg25
F0.22656246753759746
sg16
I01
sbsg20
(imyEvolve
Tree
p1089
(dp1090
g10
I0
sg16
I00
sbsg17
I00
sg18
g26
sbsg17
I00
sg18
g70
sbsg17
I00
sg18
g70
sbsg10
I4
sg17
I01
sg18
g40
sba(imyEvolve
Tree
p1091
(dp1092
g7
(imyEvolve
Tree
p1093
(dp1094
g10
I4
sg11
(imyEvolve
Tree
p1095
(dp1096
g10
I3
sg11
(imyEvolve
Tree
p1097
(dp1098
g10
I2
sg11
(imyEvolve
Tree
p1099
(dp1100
g7
(imyEvolve
Tree
p1101
(dp1102
g10
I0
sg16
I00
sbsg10
I1
sg17
I01
sg18
g27
sbsg20
(imyEvolve
Tree
p1103
(dp1104
g7
(imyEvolve
Tree
p1105
(dp1106
g10
I0
sg16
I00
sbsg10
I1
sg17
I01
sg18
g27
sbsg17
I00
sg18
g41
sbsg20
(imyEvolve
Tree
p1107
(dp1108
g10
I2
sg11
(imyEvolve
Tree
p1109
(dp1110
g10
I1
sg11
(imyEvolve
Tree
p1111
(dp1112
g10
I0
sg25
F3.8350719999594087
sg16
I01
sbsg20
(imyEvolve
Tree
p1113
(dp1114
g10
I0
sg16
I00
sbsg17
I00
sg18
g41
sbsg20
(imyEvolve
Tree
p1115
(dp1116
g10
I1
sg11
(imyEvolve
Tree
p1117
(dp1118
g10
I0
sg25
F-3.8272441370488552
sg16
I01
sbsg20
(imyEvolve
Tree
p1119
(dp1120
g10
I0
sg25
F0.6933543373759585
sg16
I01
sbsg17
I00
sg18
g41
sbsg17
I00
sg18
g41
sbsg17
I00
sg18
g70
sbsg20
(imyEvolve
Tree
p1121
(dp1122
g10
I3
sg11
(imyEvolve
Tree
p1123
(dp1124
g7
(imyEvolve
Tree
p1125
(dp1126
g10
I1
sg11
(imyEvolve
Tree
p1127
(dp1128
g10
I0
sg25
F-1.7624769675327592
sg16
I01
sbsg20
(imyEvolve
Tree
p1129
(dp1130
g10
I0
sg25
F-0.9429247667575256
sg16
I01
sbsg17
I00
sg18
g70
sbsg10
I2
sg17
I01
sg18
g27
sbsg20
(imyEvolve
Tree
p1131
(dp1132
g10
I2
sg11
(imyEvolve
Tree
p1133
(dp1134
g10
I1
sg11
(imyEvolve
Tree
p1135
(dp1136
g10
I0
sg16
I00
sbsg20
(imyEvolve
Tree
p1137
(dp1138
g10
I0
sg25
F2.886653483046251
sg16
I01
sbsg17
I00
sg18
g70
sbsg20
(imyEvolve
Tree
p1139
(dp1140
g10
I1
sg11
(imyEvolve
Tree
p1141
(dp1142
g10
I0
sg16
I00
sbsg20
(imyEvolve
Tree
p1143
(dp1144
g10
I0
sg16
I00
sbsg17
I00
sg18
g41
sbsg17
I00
sg18
g70
sbsg17
I00
sg18
g70
sbsg17
I00
sg18
g70
sbsg10
I5
sg17
I01
sg18
g71
sba(imyEvolve
Tree
p1145
(dp1146
g10
I4
sg11
(imyEvolve
Tree
p1147
(dp1148
g10
I3
sg11
(imyEvolve
Tree
p1149
(dp1150
g10
I2
sg11
(imyEvolve
Tree
p1151
(dp1152
g10
I1
sg11
(imyEvolve
Tree
p1153
(dp1154
g10
I0
sg16
I00
sbsg20
(imyEvolve
Tree
p1155
(dp1156
g10
I0
sg25
F0.342239991957598
sg16
I01
sbsg17
I00
sg18
g26
sbsg20
(imyEvolve
Tree
p1157
(dp1158
g7
(imyEvolve
Tree
p1159
(dp1160
g10
I0
sg16
I00
sbsg10
I1
sg17
I01
sg18
g27
sbsg17
I00
sg18
g70
sbsg20
(imyEvolve
Tree
p1161
(dp1162
g7
(imyEvolve
Tree
p1163
(dp1164
g7
(imyEvolve
Tree
p1165
(dp1166
g10
I0
sg25
F-3.7487872032437073
sg16
I01
sbsg10
I1
sg17
I01
sg18
g27
sbsg10
I2
sg17
I01
sg18
g19
sbsg17
I00
sg18
g70
sbsg20
(imyEvolve
Tree
p1167
(dp1168
g10
I3
sg11
(imyEvolve
Tree
p1169
(dp1170
g10
I2
sg11
(imyEvolve
Tree
p1171
(dp1172
g10
I1
sg11
(imyEvolve
Tree
p1173
(dp1174
g10
I0
sg25
F2.476304200557701
sg16
I01
sbsg20
(imyEvolve
Tree
p1175
(dp1176
g10
I0
sg16
I00
sbsg17
I00
sg18
g26
sbsg20
(imyEvolve
Tree
p1177
(dp1178
g10
I1
sg11
(imyEvolve
Tree
p1179
(dp1180
g10
I0
sg16
I00
sbsg20
(imyEvolve
Tree
p1181
(dp1182
g10
I0
sg16
I00
sbsg17
I00
sg18
g70
sbsg17
I00
sg18
g41
sbsg20
(imyEvolve
Tree
p1183
(dp1184
g7
(imyEvolve
Tree
p1185
(dp1186
g7
(imyEvolve
Tree
p1187
(dp1188
g10
I0
sg25
F2.098039960383936
sg16
I01
sbsg10
I1
sg17
I01
sg18
g71
sbsg10
I2
sg17
I01
sg18
g71
sbsg17
I00
sg18
g26
sbsg17
I00
sg18
g41
sba(imyEvolve
Tree
p1189
(dp1190
g7
(imyEvolve
Tree
p1191
(dp1192
g7
(imyEvolve
Tree
p1193
(dp1194
g10
I1
sg11
(imyEvolve
Tree
p1195
(dp1196
g10
I0
sg16
I00
sbsg20
(imyEvolve
Tree
p1197
(dp1198
g10
I0
sg16
I00
sbsg17
I00
sg18
g26
sbsg10
I2
sg17
I01
sg18
g19
sbsg10
I3
sg17
I01
sg18
g40
sba(imyEvolve
Tree
p1199
(dp1200
g10
I2
sg11
(imyEvolve
Tree
p1201
(dp1202
g10
I1
sg11
(imyEvolve
Tree
p1203
(dp1204
g10
I0
sg16
I00
sbsg20
(imyEvolve
Tree
p1205
(dp1206
g10
I0
sg25
F3.287140545948416
sg16
I01
sbsg17
I00
sg18
g70
sbsg20
(imyEvolve
Tree
p1207
(dp1208
g10
I1
sg11
(imyEvolve
Tree
p1209
(dp1210
g10
I0
sg16
I00
sbsg20
(imyEvolve
Tree
p1211
(dp1212
g10
I0
sg25
F-0.47685208489566033
sg16
I01
sbsg17
I00
sg18
g41
sbsg17
I00
sg18
g70
sba(imyEvolve
Tree
p1213
(dp1214
g10
I3
sg11
(imyEvolve
Tree
p1215
(dp1216
g7
(imyEvolve
Tree
p1217
(dp1218
g7
(imyEvolve
Tree
p1219
(dp1220
g10
I0
sg25
F-4.661670457204847
sg16
I01
sbsg10
I1
sg17
I01
sg18
g19
sbsg10
I2
sg17
I01
sg18
g71
sbsg20
(imyEvolve
Tree
p1221
(dp1222
g10
I2
sg11
(imyEvolve
Tree
p1223
(dp1224
g10
I1
sg11
(imyEvolve
Tree
p1225
(dp1226
g10
I0
sg25
F3.876002880620238
sg16
I01
sbsg20
(imyEvolve
Tree
p1227
(dp1228
g10
I0
sg16
I00
sbsg17
I00
sg18
g70
sbsg20
(imyEvolve
Tree
p1229
(dp1230
g10
I1
sg11
(imyEvolve
Tree
p1231
(dp1232
g10
I0
sg16
I00
sbsg20
(imyEvolve
Tree
p1233
(dp1234
g10
I0
sg25
F-4.620581190260956
sg16
I01
sbsg17
I00
sg18
g26
sbsg17
I00
sg18
g41
sbsg17
I00
sg18
g70
sba(imyEvolve
Tree
p1235
(dp1236
g7
(imyEvolve
Tree
p1237
(dp1238
g10
I2
sg11
(imyEvolve
Tree
p1239
(dp1240
g7
(imyEvolve
Tree
p1241
(dp1242
g10
I0
sg16
I00
sbsg10
I1
sg17
I01
sg18
g19
sbsg20
(imyEvolve
Tree
p1243
(dp1244
g10
I1
sg11
(imyEvolve
Tree
p1245
(dp1246
g10
I0
sg16
I00
sbsg20
(imyEvolve
Tree
p1247
(dp1248
g10
I0
sg16
I00
sbsg17
I00
sg18
g70
sbsg17
I00
sg18
g41
sbsg10
I3
sg17
I01
sg18
g71
sba(imyEvolve
Tree
p1249
(dp1250
g7
(imyEvolve
Tree
p1251
(dp1252
g10
I4
sg11
(imyEvolve
Tree
p1253
(dp1254
g10
I3
sg11
(imyEvolve
Tree
p1255
(dp1256
g10
I2
sg11
(imyEvolve
Tree
p1257
(dp1258
g10
I1
sg11
(imyEvolve
Tree
p1259
(dp1260
g10
I0
sg25
F0.4886788118243359
sg16
I01
sbsg20
(imyEvolve
Tree
p1261
(dp1262
g10
I0
sg25
F0.0582439592504862
sg16
I01
sbsg17
I00
sg18
g26
sbsg20
(imyEvolve
Tree
p1263
(dp1264
g10
I1
sg11
(imyEvolve
Tree
p1265
(dp1266
g10
I0
sg16
I00
sbsg20
(imyEvolve
Tree
p1267
(dp1268
g10
I0
sg16
I00
sbsg17
I00
sg18
g70
sbsg17
I00
sg18
g41
sbsg20
(imyEvolve
Tree
p1269
(dp1270
g7
(imyEvolve
Tree
p1271
(dp1272
g7
(imyEvolve
Tree
p1273
(dp1274
g10
I0
sg25
F0.4913515790836378
sg16
I01
sbsg10
I1
sg17
I01
sg18
g19
sbsg10
I2
sg17
I01
sg18
g27
sbsg17
I00
sg18
g70
sbsg20
(imyEvolve
Tree
p1275
(dp1276
g10
I3
sg11
(imyEvolve
Tree
p1277
(dp1278
g10
I2
sg11
(imyEvolve
Tree
p1279
(dp1280
g10
I1
sg11
(imyEvolve
Tree
p1281
(dp1282
g10
I0
sg16
I00
sbsg20
(imyEvolve
Tree
p1283
(dp1284
g10
I0
sg25
F1.9489840301413892
sg16
I01
sbsg17
I00
sg18
g41
sbsg20
(imyEvolve
Tree
p1285
(dp1286
g10
I1
sg11
(imyEvolve
Tree
p1287
(dp1288
g10
I0
sg16
I00
sbsg20
(imyEvolve
Tree
p1289
(dp1290
g10
I0
sg16
I00
sbsg17
I00
sg18
g26
sbsg17
I00
sg18
g26
sbsg20
(imyEvolve
Tree
p1291
(dp1292
g10
I2
sg11
(imyEvolve
Tree
p1293
(dp1294
g7
(imyEvolve
Tree
p1295
(dp1296
g10
I0
sg25
F1.0767914084318786
sg16
I01
sbsg10
I1
sg17
I01
sg18
g71
sbsg20
(imyEvolve
Tree
p1297
(dp1298
g7
(imyEvolve
Tree
p1299
(dp1300
g10
I0
sg25
F4.419996972475083
sg16
I01
sbsg10
I1
sg17
I01
sg18
g19
sbsg17
I00
sg18
g41
sbsg17
I00
sg18
g70
sbsg17
I00
sg18
g70
sbsg10
I5
sg17
I01
sg18
g19
sba(imyEvolve
Tree
p1301
(dp1302
g10
I5
sg11
(imyEvolve
Tree
p1303
(dp1304
g10
I4
sg11
(imyEvolve
Tree
p1305
(dp1306
g7
(imyEvolve
Tree
p1307
(dp1308
g7
(imyEvolve
Tree
p1309
(dp1310
g7
(imyEvolve
Tree
p1311
(dp1312
g10
I0
sg16
I00
sbsg10
I1
sg17
I01
sg18
g27
sbsg10
I2
sg17
I01
sg18
g71
sbsg10
I3
sg17
I01
sg18
g71
sbsg20
(imyEvolve
Tree
p1313
(dp1314
g7
(imyEvolve
Tree
p1315
(dp1316
g7
(imyEvolve
Tree
p1317
(dp1318
g7
(imyEvolve
Tree
p1319
(dp1320
g10
I0
sg25
F-2.4788625579980774
sg16
I01
sbsg10
I1
sg17
I01
sg18
g40
sbsg10
I2
sg17
I01
sg18
g71
sbsg10
I3
sg17
I01
sg18
g40
sbsg17
I00
sg18
g41
sbsg20
(imyEvolve
Tree
p1321
(dp1322
g10
I4
sg11
(imyEvolve
Tree
p1323
(dp1324
g10
I3
sg11
(imyEvolve
Tree
p1325
(dp1326
g7
(imyEvolve
Tree
p1327
(dp1328
g10
I1
sg11
(imyEvolve
Tree
p1329
(dp1330
g10
I0
sg25
F1.502236761427131
sg16
I01
sbsg20
(imyEvolve
Tree
p1331
(dp1332
g10
I0
sg16
I00
sbsg17
I00
sg18
g26
sbsg10
I2
sg17
I01
sg18
g71
sbsg20
(imyEvolve
Tree
p1333
(dp1334
g7
(imyEvolve
Tree
p1335
(dp1336
g7
(imyEvolve
Tree
p1337
(dp1338
g10
I0
sg16
I00
sbsg10
I1
sg17
I01
sg18
g27
sbsg10
I2
sg17
I01
sg18
g40
sbsg17
I00
sg18
g41
sbsg20
(imyEvolve
Tree
p1339
(dp1340
g10
I3
sg11
(imyEvolve
Tree
p1341
(dp1342
g7
(imyEvolve
Tree
p1343
(dp1344
g7
(imyEvolve
Tree
p1345
(dp1346
g10
I0
sg16
I00
sbsg10
I1
sg17
I01
sg18
g27
sbsg10
I2
sg17
I01
sg18
g19
sbsg20
(imyEvolve
Tree
p1347
(dp1348
g10
I2
sg11
(imyEvolve
Tree
p1349
(dp1350
g7
(imyEvolve
Tree
p1351
(dp1352
g10
I0
sg25
F-4.65944249426426
sg16
I01
sbsg10
I1
sg17
I01
sg18
g19
sbsg20
(imyEvolve
Tree
p1353
(dp1354
g10
I1
sg11
(imyEvolve
Tree
p1355
(dp1356
g10
I0
sg16
I00
sbsg20
(imyEvolve
Tree
p1357
(dp1358
g10
I0
sg25
F1.0288826474501036
sg16
I01
sbsg17
I00
sg18
g26
sbsg17
I00
sg18
g26
sbsg17
I00
sg18
g41
sbsg17
I00
sg18
g70
sbsg17
I00
sg18
g41
sba(imyEvolve
Tree
p1359
(dp1360
g10
I3
sg11
(imyEvolve
Tree
p1361
(dp1362
g10
I2
sg11
(imyEvolve
Tree
p1363
(dp1364
g7
(imyEvolve
Tree
p1365
(dp1366
g10
I0
sg16
I00
sbsg10
I1
sg17
I01
sg18
g19
sbsg20
(imyEvolve
Tree
p1367
(dp1368
g10
I1
sg11
(imyEvolve
Tree
p1369
(dp1370
g10
I0
sg25
F-4.283283032250914
sg16
I01
sbsg20
(imyEvolve
Tree
p1371
(dp1372
g10
I0
sg25
F-3.201802060971437
sg16
I01
sbsg17
I00
sg18
g70
sbsg17
I00
sg18
g70
sbsg20
(imyEvolve
Tree
p1373
(dp1374
g7
(imyEvolve
Tree
p1375
(dp1376
g7
(imyEvolve
Tree
p1377
(dp1378
g10
I0
sg16
I00
sbsg10
I1
sg17
I01
sg18
g27
sbsg10
I2
sg17
I01
sg18
g71
sbsg17
I00
sg18
g26
sba(imyEvolve
Tree
p1379
(dp1380
g7
(imyEvolve
Tree
p1381
(dp1382
g10
I1
sg11
(imyEvolve
Tree
p1383
(dp1384
g10
I0
sg16
I00
sbsg20
(imyEvolve
Tree
p1385
(dp1386
g10
I0
sg16
I00
sbsg17
I00
sg18
g70
sbsg10
I2
sg17
I01
sg18
g19
sba(imyEvolve
Tree
p1387
(dp1388
g7
(imyEvolve
Tree
p1389
(dp1390
g10
I4
sg11
(imyEvolve
Tree
p1391
(dp1392
g7
(imyEvolve
Tree
p1393
(dp1394
g7
(imyEvolve
Tree
p1395
(dp1396
g7
(imyEvolve
Tree
p1397
(dp1398
g10
I0
sg16
I00
sbsg10
I1
sg17
I01
sg18
g19
sbsg10
I2
sg17
I01
sg18
g19
sbsg10
I3
sg17
I01
sg18
g40
sbsg20
(imyEvolve
Tree
p1399
(dp1400
g7
(imyEvolve
Tree
p1401
(dp1402
g7
(imyEvolve
Tree
p1403
(dp1404
g10
I1
sg11
(imyEvolve
Tree
p1405
(dp1406
g10
I0
sg16
I00
sbsg20
(imyEvolve
Tree
p1407
(dp1408
g10
I0
sg25
F4.252378726230537
sg16
I01
sbsg17
I00
sg18
g26
sbsg10
I2
sg17
I01
sg18
g71
sbsg10
I3
sg17
I01
sg18
g19
sbsg17
I00
sg18
g26
sbsg10
I5
sg17
I01
sg18
g19
sba(imyEvolve
Tree
p1409
(dp1410
g10
I5
sg11
(imyEvolve
Tree
p1411
(dp1412
g10
I4
sg11
(imyEvolve
Tree
p1413
(dp1414
g10
I3
sg11
(imyEvolve
Tree
p1415
(dp1416
g10
I2
sg11
(imyEvolve
Tree
p1417
(dp1418
g7
(imyEvolve
Tree
p1419
(dp1420
g10
I0
sg25
F-1.1710657487130893
sg16
I01
sbsg10
I1
sg17
I01
sg18
g19
sbsg20
(imyEvolve
Tree
p1421
(dp1422
g10
I1
sg11
(imyEvolve
Tree
p1423
(dp1424
g10
I0
sg25
F-1.11424553531939
sg16
I01
sbsg20
(imyEvolve
Tree
p1425
(dp1426
g10
I0
sg16
I00
sbsg17
I00
sg18
g41
sbsg17
I00
sg18
g70
sbsg20
(imyEvolve
Tree
p1427
(dp1428
g10
I2
sg11
(imyEvolve
Tree
p1429
(dp1430
g7
(imyEvolve
Tree
p1431
(dp1432
g10
I0
sg25
F3.6394487334961383
sg16
I01
sbsg10
I1
sg17
I01
sg18
g40
sbsg20
(imyEvolve
Tree
p1433
(dp1434
g7
(imyEvolve
Tree
p1435
(dp1436
g10
I0
sg16
I00
sbsg10
I1
sg17
I01
sg18
g27
sbsg17
I00
sg18
g41
sbsg17
I00
sg18
g41
sbsg20
(imyEvolve
Tree
p1437
(dp1438
g10
I3
sg11
(imyEvolve
Tree
p1439
(dp1440
g7
(imyEvolve
Tree
p1441
(dp1442
g7
(imyEvolve
Tree
p1443
(dp1444
g10
I0
sg16
I00
sbsg10
I1
sg17
I01
sg18
g71
sbsg10
I2
sg17
I01
sg18
g40
sbsg20
(imyEvolve
Tree
p1445
(dp1446
g10
I2
sg11
(imyEvolve
Tree
p1447
(dp1448
g10
I1
sg11
(imyEvolve
Tree
p1449
(dp1450
g10
I0
sg25
F3.0637658097784346
sg16
I01
sbsg20
(imyEvolve
Tree
p1451
(dp1452
g10
I0
sg25
F0.4584198783418909
sg16
I01
sbsg17
I00
sg18
g41
sbsg20
(imyEvolve
Tree
p1453
(dp1454
g7
(imyEvolve
Tree
p1455
(dp1456
g10
I0
sg25
F-2.5189366950781844
sg16
I01
sbsg10
I1
sg17
I01
sg18
g40
sbsg17
I00
sg18
g26
sbsg17
I00
sg18
g26
sbsg17
I00
sg18
g26
sbsg20
(imyEvolve
Tree
p1457
(dp1458
g7
(imyEvolve
Tree
p1459
(dp1460
g7
(imyEvolve
Tree
p1461
(dp1462
g7
(imyEvolve
Tree
p1463
(dp1464
g7
(imyEvolve
Tree
p1465
(dp1466
g10
I0
sg25
F1.018980390265388
sg16
I01
sbsg10
I1
sg17
I01
sg18
g71
sbsg10
I2
sg17
I01
sg18
g71
sbsg10
I3
sg17
I01
sg18
g27
sbsg10
I4
sg17
I01
sg18
g27
sbsg17
I00
sg18
g41
sba(imyEvolve
Tree
p1467
(dp1468
g10
I5
sg11
(imyEvolve
Tree
p1469
(dp1470
g7
(imyEvolve
Tree
p1471
(dp1472
g7
(imyEvolve
Tree
p1473
(dp1474
g7
(imyEvolve
Tree
p1475
(dp1476
g10
I1
sg11
(imyEvolve
Tree
p1477
(dp1478
g10
I0
sg25
F0.07846961833893928
sg16
I01
sbsg20
(imyEvolve
Tree
p1479
(dp1480
g10
I0
sg25
F-0.08032986442168166
sg16
I01
sbsg17
I00
sg18
g70
sbsg10
I2
sg17
I01
sg18
g19
sbsg10
I3
sg17
I01
sg18
g19
sbsg10
I4
sg17
I01
sg18
g27
sbsg20
(imyEvolve
Tree
p1481
(dp1482
g7
(imyEvolve
Tree
p1483
(dp1484
g7
(imyEvolve
Tree
p1485
(dp1486
g7
(imyEvolve
Tree
p1487
(dp1488
g7
(imyEvolve
Tree
p1489
(dp1490
g10
I0
sg25
F-4.234670843145777
sg16
I01
sbsg10
I1
sg17
I01
sg18
g27
sbsg10
I2
sg17
I01
sg18
g27
sbsg10
I3
sg17
I01
sg18
g19
sbsg10
I4
sg17
I01
sg18
g71
sbsg17
I00
sg18
g41
sba(imyEvolve
Tree
p1491
(dp1492
g7
(imyEvolve
Tree
p1493
(dp1494
g7
(imyEvolve
Tree
p1495
(dp1496
g10
I0
sg25
F-1.538846943772957
sg16
I01
sbsg10
I1
sg17
I01
sg18
g71
sbsg10
I2
sg17
I01
sg18
g27
sba(imyEvolve
Tree
p1497
(dp1498
g10
I5
sg11
(imyEvolve
Tree
p1499
(dp1500
g10
I4
sg11
(imyEvolve
Tree
p1501
(dp1502
g7
(imyEvolve
Tree
p1503
(dp1504
g10
I2
sg11
(imyEvolve
Tree
p1505
(dp1506
g10
I1
sg11
(imyEvolve
Tree
p1507
(dp1508
g10
I0
sg25
F-2.736359583895661
sg16
I01
sbsg20
(imyEvolve
Tree
p1509
(dp1510
g10
I0
sg25
F3.726608505411173
sg16
I01
sbsg17
I00
sg18
g70
sbsg20
(imyEvolve
Tree
p1511
(dp1512
g10
I1
sg11
(imyEvolve
Tree
p1513
(dp1514
g10
I0
sg25
F-3.7611406480242984
sg16
I01
sbsg20
(imyEvolve
Tree
p1515
(dp1516
g10
I0
sg16
I00
sbsg17
I00
sg18
g41
sbsg17
I00
sg18
g70
sbsg10
I3
sg17
I01
sg18
g27
sbsg20
(imyEvolve
Tree
p1517
(dp1518
g7
(imyEvolve
Tree
p1519
(dp1520
g10
I2
sg11
(imyEvolve
Tree
p1521
(dp1522
g10
I1
sg11
(imyEvolve
Tree
p1523
(dp1524
g10
I0
sg25
F2.902218510518698
sg16
I01
sbsg20
(imyEvolve
Tree
p1525
(dp1526
g10
I0
sg25
F1.8585826414412363
sg16
I01
sbsg17
I00
sg18
g70
sbsg20
(imyEvolve
Tree
p1527
(dp1528
g7
(imyEvolve
Tree
p1529
(dp1530
g10
I0
sg25
F1.7901489317016033
sg16
I01
sbsg10
I1
sg17
I01
sg18
g40
sbsg17
I00
sg18
g70
sbsg10
I3
sg17
I01
sg18
g19
sbsg17
I00
sg18
g70
sbsg20
(imyEvolve
Tree
p1531
(dp1532
g10
I4
sg11
(imyEvolve
Tree
p1533
(dp1534
g7
(imyEvolve
Tree
p1535
(dp1536
g7
(imyEvolve
Tree
p1537
(dp1538
g7
(imyEvolve
Tree
p1539
(dp1540
g10
I0
sg16
I00
sbsg10
I1
sg17
I01
sg18
g40
sbsg10
I2
sg17
I01
sg18
g19
sbsg10
I3
sg17
I01
sg18
g40
sbsg20
(imyEvolve
Tree
p1541
(dp1542
g7
(imyEvolve
Tree
p1543
(dp1544
g7
(imyEvolve
Tree
p1545
(dp1546
g7
(imyEvolve
Tree
p1547
(dp1548
g10
I0
sg25
F-2.3626206965816854
sg16
I01
sbsg10
I1
sg17
I01
sg18
g40
sbsg10
I2
sg17
I01
sg18
g71
sbsg10
I3
sg17
I01
sg18
g27
sbsg17
I00
sg18
g26
sbsg17
I00
sg18
g41
sba(imyEvolve
Tree
p1549
(dp1550
g7
(imyEvolve
Tree
p1551
(dp1552
g10
I1
sg11
(imyEvolve
Tree
p1553
(dp1554
g10
I0
sg16
I00
sbsg20
(imyEvolve
Tree
p1555
(dp1556
g10
I0
sg25
F-2.2229298995986646
sg16
I01
sbsg17
I00
sg18
g41
sbsg10
I2
sg17
I01
sg18
g40
sba(imyEvolve
Tree
p1557
(dp1558
g10
I4
sg11
(imyEvolve
Tree
p1559
(dp1560
g7
(imyEvolve
Tree
p1561
(dp1562
g10
I2
sg11
(imyEvolve
Tree
p1563
(dp1564
g7
(imyEvolve
Tree
p1565
(dp1566
g10
I0
sg16
I00
sbsg10
I1
sg17
I01
sg18
g19
sbsg20
(imyEvolve
Tree
p1567
(dp1568
g10
I1
sg11
(imyEvolve
Tree
p1569
(dp1570
g10
I0
sg25
F4.517626909918022
sg16
I01
sbsg20
(imyEvolve
Tree
p1571
(dp1572
g10
I0
sg25
F1.3820203598361838
sg16
I01
sbsg17
I00
sg18
g26
sbsg17
I00
sg18
g41
sbsg10
I3
sg17
I01
sg18
g71
sbsg20
(imyEvolve
Tree
p1573
(dp1574
g7
(imyEvolve
Tree
p1575
(dp1576
g10
I2
sg11
(imyEvolve
Tree
p1577
(dp1578
g7
(imyEvolve
Tree
p1579
(dp1580
g10
I0
sg25
F1.5963429039763248
sg16
I01
sbsg10
I1
sg17
I01
sg18
g71
sbsg20
(imyEvolve
Tree
p1581
(dp1582
g7
(imyEvolve
Tree
p1583
(dp1584
g10
I0
sg16
I00
sbsg10
I1
sg17
I01
sg18
g71
sbsg17
I00
sg18
g41
sbsg10
I3
sg17
I01
sg18
g40
sbsg17
I00
sg18
g41
sbaasS'weightSharing'
p1585
(lp1586
I00
asS'fitnessValid'
p1587
I00
sS'fitness'
p1588
cnumpy.core.multiarray
scalar
p1589
(cnumpy
dtype
p1590
(S'f8'
p1591
I0
I1
tp1592
Rp1593
(I3
S'<'
p1594
NNNI-1
I-1
I0
tp1595
bS'\xf4lV\xb5n7\xe6?'
p1596
tp1597
Rp1598
sS'alpha'
p1599
F0.007193692609567825
sS'resolution'
p1600
I49
sb.