(imyEvolve
Individual
p0
(dp1
S'funcs'
p2
(lp3
(lp4
(imyEvolve
Tree
p5
(dp6
S'below'
p7
(imyEvolve
Tree
p8
(dp9
S'depth'
p10
I2
sS'left'
p11
(imyEvolve
Tree
p12
(dp13
g10
I1
sg11
(imyEvolve
Tree
p14
(dp15
g10
I0
sS'isConstant'
p16
I00
sbsS'right'
p17
(imyEvolve
Tree
p18
(dp19
g10
I0
sS'constant'
p20
F-0.01794423878450413
sg16
I01
sbsS'single'
p21
I00
sS'op'
p22
coperator
mul
p23
sbsg17
(imyEvolve
Tree
p24
(dp25
g10
I1
sg11
(imyEvolve
Tree
p26
(dp27
g10
I0
sg20
F3.120447534069296
sg16
I01
sbsg17
(imyEvolve
Tree
p28
(dp29
g10
I0
sg16
I00
sbsg21
I00
sg22
g23
sbsg21
I00
sg22
g23
sbsg10
I3
sg21
I01
sg22
cmyEvolve
absSqrt
p30
sba(imyEvolve
Tree
p31
(dp32
g7
(imyEvolve
Tree
p33
(dp34
g7
(imyEvolve
Tree
p35
(dp36
g10
I0
sg16
I00
sbsg10
I1
sg21
I01
sg22
g30
sbsg10
I2
sg21
I01
sg22
cmath
sin
p37
sba(imyEvolve
Tree
p38
(dp39
g10
I5
sg11
(imyEvolve
Tree
p40
(dp41
g10
I4
sg11
(imyEvolve
Tree
p42
(dp43
g7
(imyEvolve
Tree
p44
(dp45
g7
(imyEvolve
Tree
p46
(dp47
g10
I1
sg11
(imyEvolve
Tree
p48
(dp49
g10
I0
sg16
I00
sbsg17
(imyEvolve
Tree
p50
(dp51
g10
I0
sg16
I00
sbsg21
I00
sg22
coperator
add
p52
sbsg10
I2
sg21
I01
sg22
g37
sbsg10
I3
sg21
I01
sg22
g30
sbsg17
(imyEvolve
Tree
p53
(dp54
g10
I3
sg11
(imyEvolve
Tree
p55
(dp56
g7
(imyEvolve
Tree
p57
(dp58
g10
I1
sg11
(imyEvolve
Tree
p59
(dp60
g10
I0
sg16
I00
sbsg17
(imyEvolve
Tree
p61
(dp62
g10
I0
sg16
I00
sbsg21
I00
sg22
g23
sbsg10
I2
sg21
I01
sg22
cmath
cos
p63
sbsg17
(imyEvolve
Tree
p64
(dp65
g10
I2
sg11
(imyEvolve
Tree
p66
(dp67
g10
I1
sg11
(imyEvolve
Tree
p68
(dp69
g10
I0
sg16
I00
sbsg17
(imyEvolve
Tree
p70
(dp71
g10
I0
sg20
F-0.4120328975311338
sg16
I01
sbsg21
I00
sg22
g52
sbsg17
(imyEvolve
Tree
p72
(dp73
g10
I1
sg11
(imyEvolve
Tree
p74
(dp75
g10
I0
sg20
F1.6175477466684507
sg16
I01
sbsg17
(imyEvolve
Tree
p76
(dp77
g10
I0
sg20
F-3.8574864791934935
sg16
I01
sbsg21
I00
sg22
g52
sbsg21
I00
sg22
coperator
sub
p78
sbsg21
I00
sg22
g23
sbsg21
I00
sg22
g78
sbsg17
(imyEvolve
Tree
p79
(dp80
g10
I4
sg11
(imyEvolve
Tree
p81
(dp82
g10
I3
sg11
(imyEvolve
Tree
p83
(dp84
g10
I2
sg11
(imyEvolve
Tree
p85
(dp86
g10
I1
sg11
(imyEvolve
Tree
p87
(dp88
g10
I0
sg16
I00
sbsg17
(imyEvolve
Tree
p89
(dp90
g10
I0
sg20
F-4.429861053210335
sg16
I01
sbsg21
I00
sg22
g78
sbsg17
(imyEvolve
Tree
p91
(dp92
g7
(imyEvolve
Tree
p93
(dp94
g10
I0
sg16
I00
sbsg10
I1
sg21
I01
sg22
g37
sbsg21
I00
sg22
g52
sbsg17
(imyEvolve
Tree
p95
(dp96
g10
I2
sg11
(imyEvolve
Tree
p97
(dp98
g7
(imyEvolve
Tree
p99
(dp100
g10
I0
sg20
F-1.4040406472005262
sg16
I01
sbsg10
I1
sg21
I01
sg22
g37
sbsg17
(imyEvolve
Tree
p101
(dp102
g7
(imyEvolve
Tree
p103
(dp104
g10
I0
sg20
F0.8815770920069799
sg16
I01
sbsg10
I1
sg21
I01
sg22
cmyEvolve
square
p105
sbsg21
I00
sg22
g23
sbsg21
I00
sg22
g52
sbsg17
(imyEvolve
Tree
p106
(dp107
g7
(imyEvolve
Tree
p108
(dp109
g7
(imyEvolve
Tree
p110
(dp111
g7
(imyEvolve
Tree
p112
(dp113
g10
I0
sg16
I00
sbsg10
I1
sg21
I01
sg22
g105
sbsg10
I2
sg21
I01
sg22
g30
sbsg10
I3
sg21
I01
sg22
g30
sbsg21
I00
sg22
g78
sbsg21
I00
sg22
g52
sba(imyEvolve
Tree
p114
(dp115
g7
(imyEvolve
Tree
p116
(dp117
g10
I2
sg11
(imyEvolve
Tree
p118
(dp119
g10
I1
sg11
(imyEvolve
Tree
p120
(dp121
g10
I0
sg20
F1.7972734151943124
sg16
I01
sbsg17
(imyEvolve
Tree
p122
(dp123
g10
I0
sg16
I00
sbsg21
I00
sg22
g23
sbsg17
(imyEvolve
Tree
p124
(dp125
g7
(imyEvolve
Tree
p126
(dp127
g10
I0
sg20
F-3.9105016862544426
sg16
I01
sbsg10
I1
sg21
I01
sg22
g37
sbsg21
I00
sg22
g78
sbsg10
I3
sg21
I01
sg22
g63
sba(imyEvolve
Tree
p128
(dp129
g7
(imyEvolve
Tree
p130
(dp131
g7
(imyEvolve
Tree
p132
(dp133
g10
I0
sg16
I00
sbsg10
I1
sg21
I01
sg22
g105
sbsg10
I2
sg21
I01
sg22
g105
sba(imyEvolve
Tree
p134
(dp135
g10
I3
sg11
(imyEvolve
Tree
p136
(dp137
g7
(imyEvolve
Tree
p138
(dp139
g7
(imyEvolve
Tree
p140
(dp141
g10
I0
sg16
I00
sbsg10
I1
sg21
I01
sg22
g30
sbsg10
I2
sg21
I01
sg22
g105
sbsg17
(imyEvolve
Tree
p142
(dp143
g7
(imyEvolve
Tree
p144
(dp145
g7
(imyEvolve
Tree
p146
(dp147
g10
I0
sg20
F-3.428526141330812
sg16
I01
sbsg10
I1
sg21
I01
sg22
g63
sbsg10
I2
sg21
I01
sg22
g30
sbsg21
I00
sg22
g78
sba(imyEvolve
Tree
p148
(dp149
g10
I5
sg11
(imyEvolve
Tree
p150
(dp151
g10
I4
sg11
(imyEvolve
Tree
p152
(dp153
g10
I3
sg11
(imyEvolve
Tree
p154
(dp155
g7
(imyEvolve
Tree
p156
(dp157
g10
I1
sg11
(imyEvolve
Tree
p158
(dp159
g10
I0
sg20
F-0.8901388068913851
sg16
I01
sbsg17
(imyEvolve
Tree
p160
(dp161
g10
I0
sg20
F-0.8230385275484418
sg16
I01
sbsg21
I00
sg22
g52
sbsg10
I2
sg21
I01
sg22
g105
sbsg17
(imyEvolve
Tree
p162
(dp163
g7
(imyEvolve
Tree
p164
(dp165
g10
I1
sg11
(imyEvolve
Tree
p166
(dp167
g10
I0
sg20
F-4.530291224960994
sg16
I01
sbsg17
(imyEvolve
Tree
p168
(dp169
g10
I0
sg20
F-2.876205705334459
sg16
I01
sbsg21
I00
sg22
g78
sbsg10
I2
sg21
I01
sg22
g105
sbsg21
I00
sg22
g52
sbsg17
(imyEvolve
Tree
p170
(dp171
g10
I3
sg11
(imyEvolve
Tree
p172
(dp173
g10
I2
sg11
(imyEvolve
Tree
p174
(dp175
g10
I1
sg11
(imyEvolve
Tree
p176
(dp177
g10
I0
sg16
I00
sbsg17
(imyEvolve
Tree
p178
(dp179
g10
I0
sg20
F-1.0812469034665795
sg16
I01
sbsg21
I00
sg22
g23
sbsg17
(imyEvolve
Tree
p180
(dp181
g7
(imyEvolve
Tree
p182
(dp183
g10
I0
sg16
I00
sbsg10
I1
sg21
I01
sg22
g63
sbsg21
I00
sg22
g78
sbsg17
(imyEvolve
Tree
p184
(dp185
g7
(imyEvolve
Tree
p186
(dp187
g10
I1
sg11
(imyEvolve
Tree
p188
(dp189
g10
I0
sg20
F-2.599425613295571
sg16
I01
sbsg17
(imyEvolve
Tree
p190
(dp191
g10
I0
sg16
I00
sbsg21
I00
sg22
g23
sbsg10
I2
sg21
I01
sg22
g63
sbsg21
I00
sg22
g52
sbsg21
I00
sg22
g78
sbsg17
(imyEvolve
Tree
p192
(dp193
g10
I4
sg11
(imyEvolve
Tree
p194
(dp195
g10
I3
sg11
(imyEvolve
Tree
p196
(dp197
g7
(imyEvolve
Tree
p198
(dp199
g10
I1
sg11
(imyEvolve
Tree
p200
(dp201
g10
I0
sg20
F2.344125557361907
sg16
I01
sbsg17
(imyEvolve
Tree
p202
(dp203
g10
I0
sg20
F1.8872084450037727
sg16
I01
sbsg21
I00
sg22
g52
sbsg10
I2
sg21
I01
sg22
g37
sbsg17
(imyEvolve
Tree
p204
(dp205
g7
(imyEvolve
Tree
p206
(dp207
g10
I1
sg11
(imyEvolve
Tree
p208
(dp209
g10
I0
sg16
I00
sbsg17
(imyEvolve
Tree
p210
(dp211
g10
I0
sg20
F-2.764639774588259
sg16
I01
sbsg21
I00
sg22
g52
sbsg10
I2
sg21
I01
sg22
g37
sbsg21
I00
sg22
g23
sbsg17
(imyEvolve
Tree
p212
(dp213
g7
(imyEvolve
Tree
p214
(dp215
g7
(imyEvolve
Tree
p216
(dp217
g7
(imyEvolve
Tree
p218
(dp219
g10
I0
sg16
I00
sbsg10
I1
sg21
I01
sg22
g105
sbsg10
I2
sg21
I01
sg22
g63
sbsg10
I3
sg21
I01
sg22
g37
sbsg21
I00
sg22
g78
sbsg21
I00
sg22
g78
sba(imyEvolve
Tree
p220
(dp221
g10
I2
sg11
(imyEvolve
Tree
p222
(dp223
g7
(imyEvolve
Tree
p224
(dp225
g10
I0
sg16
I00
sbsg10
I1
sg21
I01
sg22
g30
sbsg17
(imyEvolve
Tree
p226
(dp227
g10
I1
sg11
(imyEvolve
Tree
p228
(dp229
g10
I0
sg16
I00
sbsg17
(imyEvolve
Tree
p230
(dp231
g10
I0
sg16
I00
sbsg21
I00
sg22
g23
sbsg21
I00
sg22
g78
sba(imyEvolve
Tree
p232
(dp233
g10
I4
sg11
(imyEvolve
Tree
p234
(dp235
g7
(imyEvolve
Tree
p236
(dp237
g10
I2
sg11
(imyEvolve
Tree
p238
(dp239
g10
I1
sg11
(imyEvolve
Tree
p240
(dp241
g10
I0
sg16
I00
sbsg17
(imyEvolve
Tree
p242
(dp243
g10
I0
sg16
I00
sbsg21
I00
sg22
g23
sbsg17
(imyEvolve
Tree
p244
(dp245
g7
(imyEvolve
Tree
p246
(dp247
g10
I0
sg16
I00
sbsg10
I1
sg21
I01
sg22
g63
sbsg21
I00
sg22
g23
sbsg10
I3
sg21
I01
sg22
g30
sbsg17
(imyEvolve
Tree
p248
(dp249
g10
I3
sg11
(imyEvolve
Tree
p250
(dp251
g10
I2
sg11
(imyEvolve
Tree
p252
(dp253
g10
I1
sg11
(imyEvolve
Tree
p254
(dp255
g10
I0
sg16
I00
sbsg17
(imyEvolve
Tree
p256
(dp257
g10
I0
sg20
F2.290261221723128
sg16
I01
sbsg21
I00
sg22
g52
sbsg17
(imyEvolve
Tree
p258
(dp259
g7
(imyEvolve
Tree
p260
(dp261
g10
I0
sg20
F3.198155888414897
sg16
I01
sbsg10
I1
sg21
I01
sg22
g105
sbsg21
I00
sg22
g78
sbsg17
(imyEvolve
Tree
p262
(dp263
g7
(imyEvolve
Tree
p264
(dp265
g7
(imyEvolve
Tree
p266
(dp267
g10
I0
sg16
I00
sbsg10
I1
sg21
I01
sg22
g63
sbsg10
I2
sg21
I01
sg22
g63
sbsg21
I00
sg22
g78
sbsg21
I00
sg22
g78
sba(imyEvolve
Tree
p268
(dp269
g7
(imyEvolve
Tree
p270
(dp271
g10
I4
sg11
(imyEvolve
Tree
p272
(dp273
g7
(imyEvolve
Tree
p274
(dp275
g10
I2
sg11
(imyEvolve
Tree
p276
(dp277
g7
(imyEvolve
Tree
p278
(dp279
g10
I0
sg20
F3.374785353773632
sg16
I01
sbsg10
I1
sg21
I01
sg22
g105
sbsg17
(imyEvolve
Tree
p280
(dp281
g7
(imyEvolve
Tree
p282
(dp283
g10
I0
sg16
I00
sbsg10
I1
sg21
I01
sg22
g30
sbsg21
I00
sg22
g78
sbsg10
I3
sg21
I01
sg22
g63
sbsg17
(imyEvolve
Tree
p284
(dp285
g7
(imyEvolve
Tree
p286
(dp287
g10
I2
sg11
(imyEvolve
Tree
p288
(dp289
g7
(imyEvolve
Tree
p290
(dp291
g10
I0
sg20
F1.263592754426769
sg16
I01
sbsg10
I1
sg21
I01
sg22
g63
sbsg17
(imyEvolve
Tree
p292
(dp293
g10
I1
sg11
(imyEvolve
Tree
p294
(dp295
g10
I0
sg20
F-4.627443316614905
sg16
I01
sbsg17
(imyEvolve
Tree
p296
(dp297
g10
I0
sg20
F-2.895402031809783
sg16
I01
sbsg21
I00
sg22
g23
sbsg21
I00
sg22
g23
sbsg10
I3
sg21
I01
sg22
g30
sbsg21
I00
sg22
g23
sbsg10
I5
sg21
I01
sg22
g30
sba(imyEvolve
Tree
p298
(dp299
g7
(imyEvolve
Tree
p300
(dp301
g10
I1
sg11
(imyEvolve
Tree
p302
(dp303
g10
I0
sg16
I00
sbsg17
(imyEvolve
Tree
p304
(dp305
g10
I0
sg20
F3.5165122288453308
sg16
I01
sbsg21
I00
sg22
g23
sbsg10
I2
sg21
I01
sg22
g63
sba(imyEvolve
Tree
p306
(dp307
g7
(imyEvolve
Tree
p308
(dp309
g10
I2
sg11
(imyEvolve
Tree
p310
(dp311
g10
I1
sg11
(imyEvolve
Tree
p312
(dp313
g10
I0
sg16
I00
sbsg17
(imyEvolve
Tree
p314
(dp315
g10
I0
sg20
F2.4289748608707153
sg16
I01
sbsg21
I00
sg22
g23
sbsg17
(imyEvolve
Tree
p316
(dp317
g7
(imyEvolve
Tree
p318
(dp319
g10
I0
sg16
I00
sbsg10
I1
sg21
I01
sg22
g37
sbsg21
I00
sg22
g52
sbsg10
I3
sg21
I01
sg22
g37
sba(imyEvolve
Tree
p320
(dp321
g10
I3
sg11
(imyEvolve
Tree
p322
(dp323
g7
(imyEvolve
Tree
p324
(dp325
g7
(imyEvolve
Tree
p326
(dp327
g10
I0
sg20
F-0.012775892110208353
sg16
I01
sbsg10
I1
sg21
I01
sg22
g30
sbsg10
I2
sg21
I01
sg22
g30
sbsg17
(imyEvolve
Tree
p328
(dp329
g7
(imyEvolve
Tree
p330
(dp331
g7
(imyEvolve
Tree
p332
(dp333
g10
I0
sg16
I00
sbsg10
I1
sg21
I01
sg22
g30
sbsg10
I2
sg21
I01
sg22
g105
sbsg21
I00
sg22
g78
sba(imyEvolve
Tree
p334
(dp335
g10
I4
sg11
(imyEvolve
Tree
p336
(dp337
g7
(imyEvolve
Tree
p338
(dp339
g10
I2
sg11
(imyEvolve
Tree
p340
(dp341
g7
(imyEvolve
Tree
p342
(dp343
g10
I0
sg16
I00
sbsg10
I1
sg21
I01
sg22
g105
sbsg17
(imyEvolve
Tree
p344
(dp345
g7
(imyEvolve
Tree
p346
(dp347
g10
I0
sg16
I00
sbsg10
I1
sg21
I01
sg22
g30
sbsg21
I00
sg22
g78
sbsg10
I3
sg21
I01
sg22
g63
sbsg17
(imyEvolve
Tree
p348
(dp349
g10
I3
sg11
(imyEvolve
Tree
p350
(dp351
g7
(imyEvolve
Tree
p352
(dp353
g7
(imyEvolve
Tree
p354
(dp355
g10
I0
sg16
I00
sbsg10
I1
sg21
I01
sg22
g37
sbsg10
I2
sg21
I01
sg22
g30
sbsg17
(imyEvolve
Tree
p356
(dp357
g7
(imyEvolve
Tree
p358
(dp359
g7
(imyEvolve
Tree
p360
(dp361
g10
I0
sg16
I00
sbsg10
I1
sg21
I01
sg22
g63
sbsg10
I2
sg21
I01
sg22
g37
sbsg21
I00
sg22
g78
sbsg21
I00
sg22
g23
sba(imyEvolve
Tree
p362
(dp363
g10
I3
sg11
(imyEvolve
Tree
p364
(dp365
g7
(imyEvolve
Tree
p366
(dp367
g7
(imyEvolve
Tree
p368
(dp369
g10
I0
sg16
I00
sbsg10
I1
sg21
I01
sg22
g105
sbsg10
I2
sg21
I01
sg22
g105
sbsg17
(imyEvolve
Tree
p370
(dp371
g10
I2
sg11
(imyEvolve
Tree
p372
(dp373
g7
(imyEvolve
Tree
p374
(dp375
g10
I0
sg20
F3.098327315838528
sg16
I01
sbsg10
I1
sg21
I01
sg22
g105
sbsg17
(imyEvolve
Tree
p376
(dp377
g7
(imyEvolve
Tree
p378
(dp379
g10
I0
sg16
I00
sbsg10
I1
sg21
I01
sg22
g105
sbsg21
I00
sg22
g52
sbsg21
I00
sg22
g52
sba(imyEvolve
Tree
p380
(dp381
g7
(imyEvolve
Tree
p382
(dp383
g10
I3
sg11
(imyEvolve
Tree
p384
(dp385
g7
(imyEvolve
Tree
p386
(dp387
g7
(imyEvolve
Tree
p388
(dp389
g10
I0
sg20
F4.043542606271892
sg16
I01
sbsg10
I1
sg21
I01
sg22
g30
sbsg10
I2
sg21
I01
sg22
g105
sbsg17
(imyEvolve
Tree
p390
(dp391
g10
I2
sg11
(imyEvolve
Tree
p392
(dp393
g10
I1
sg11
(imyEvolve
Tree
p394
(dp395
g10
I0
sg16
I00
sbsg17
(imyEvolve
Tree
p396
(dp397
g10
I0
sg16
I00
sbsg21
I00
sg22
g23
sbsg17
(imyEvolve
Tree
p398
(dp399
g10
I1
sg11
(imyEvolve
Tree
p400
(dp401
g10
I0
sg20
F-2.351934231948174
sg16
I01
sbsg17
(imyEvolve
Tree
p402
(dp403
g10
I0
sg16
I00
sbsg21
I00
sg22
g23
sbsg21
I00
sg22
g78
sbsg21
I00
sg22
g23
sbsg10
I4
sg21
I01
sg22
g105
sba(imyEvolve
Tree
p404
(dp405
g10
I4
sg11
(imyEvolve
Tree
p406
(dp407
g7
(imyEvolve
Tree
p408
(dp409
g10
I2
sg11
(imyEvolve
Tree
p410
(dp411
g7
(imyEvolve
Tree
p412
(dp413
g10
I0
sg16
I00
sbsg10
I1
sg21
I01
sg22
g105
sbsg17
(imyEvolve
Tree
p414
(dp415
g7
(imyEvolve
Tree
p416
(dp417
g10
I0
sg16
I00
sbsg10
I1
sg21
I01
sg22
g63
sbsg21
I00
sg22
g78
sbsg10
I3
sg21
I01
sg22
g105
sbsg17
(imyEvolve
Tree
p418
(dp419
g10
I3
sg11
(imyEvolve
Tree
p420
(dp421
g10
I2
sg11
(imyEvolve
Tree
p422
(dp423
g7
(imyEvolve
Tree
p424
(dp425
g10
I0
sg20
F1.625147282957994
sg16
I01
sbsg10
I1
sg21
I01
sg22
g63
sbsg17
(imyEvolve
Tree
p426
(dp427
g7
(imyEvolve
Tree
p428
(dp429
g10
I0
sg16
I00
sbsg10
I1
sg21
I01
sg22
g105
sbsg21
I00
sg22
g52
sbsg17
(imyEvolve
Tree
p430
(dp431
g7
(imyEvolve
Tree
p432
(dp433
g10
I1
sg11
(imyEvolve
Tree
p434
(dp435
g10
I0
sg16
I00
sbsg17
(imyEvolve
Tree
p436
(dp437
g10
I0
sg16
I00
sbsg21
I00
sg22
g78
sbsg10
I2
sg21
I01
sg22
g63
sbsg21
I00
sg22
g52
sbsg21
I00
sg22
g78
sba(imyEvolve
Tree
p438
(dp439
g7
(imyEvolve
Tree
p440
(dp441
g7
(imyEvolve
Tree
p442
(dp443
g10
I3
sg11
(imyEvolve
Tree
p444
(dp445
g10
I2
sg11
(imyEvolve
Tree
p446
(dp447
g10
I1
sg11
(imyEvolve
Tree
p448
(dp449
g10
I0
sg16
I00
sbsg17
(imyEvolve
Tree
p450
(dp451
g10
I0
sg20
F-2.437114824968255
sg16
I01
sbsg21
I00
sg22
g23
sbsg17
(imyEvolve
Tree
p452
(dp453
g7
(imyEvolve
Tree
p454
(dp455
g10
I0
sg20
F-1.743712698192823
sg16
I01
sbsg10
I1
sg21
I01
sg22
g30
sbsg21
I00
sg22
g23
sbsg17
(imyEvolve
Tree
p456
(dp457
g7
(imyEvolve
Tree
p458
(dp459
g7
(imyEvolve
Tree
p460
(dp461
g10
I0
sg20
F-4.850298972349792
sg16
I01
sbsg10
I1
sg21
I01
sg22
g30
sbsg10
I2
sg21
I01
sg22
g37
sbsg21
I00
sg22
g78
sbsg10
I4
sg21
I01
sg22
g105
sbsg10
I5
sg21
I01
sg22
g63
sba(imyEvolve
Tree
p462
(dp463
g7
(imyEvolve
Tree
p464
(dp465
g10
I3
sg11
(imyEvolve
Tree
p466
(dp467
g7
(imyEvolve
Tree
p468
(dp469
g10
I1
sg11
(imyEvolve
Tree
p470
(dp471
g10
I0
sg20
F1.751429760478321
sg16
I01
sbsg17
(imyEvolve
Tree
p472
(dp473
g10
I0
sg20
F1.977065817175192
sg16
I01
sbsg21
I00
sg22
g23
sbsg10
I2
sg21
I01
sg22
g105
sbsg17
(imyEvolve
Tree
p474
(dp475
g10
I2
sg11
(imyEvolve
Tree
p476
(dp477
g7
(imyEvolve
Tree
p478
(dp479
g10
I0
sg20
F-1.890851608432409
sg16
I01
sbsg10
I1
sg21
I01
sg22
g30
sbsg17
(imyEvolve
Tree
p480
(dp481
g7
(imyEvolve
Tree
p482
(dp483
g10
I0
sg20
F3.984286423697341
sg16
I01
sbsg10
I1
sg21
I01
sg22
g30
sbsg21
I00
sg22
g78
sbsg21
I00
sg22
g78
sbsg10
I4
sg21
I01
sg22
g30
sbaasS'weightSharing'
p484
(lp485
I00
aI00
aI00
aI00
aI00
aI00
asS'fitnessValid'
p486
I00
sS'fitness'
p487
cnumpy.core.multiarray
scalar
p488
(cnumpy
dtype
p489
(S'f8'
p490
I0
I1
tp491
Rp492
(I3
S'<'
p493
NNNI-1
I-1
I0
tp494
bS'\x00\xe0\xe0\x0b\x93\x8b\x14\xbf'
p495
tp496
Rp497
sS'alpha'
p498
F0.002212039637686991
sS'resolution'
p499
I90
sb.