(imyEvolve
Individual
p0
(dp1
S'funcs'
p2
(lp3
(lp4
(imyEvolve
Tree
p5
(dp6
S'below'
p7
(imyEvolve
Tree
p8
(dp9
g7
(imyEvolve
Tree
p10
(dp11
g7
(imyEvolve
Tree
p12
(dp13
S'depth'
p14
I0
sS'isConstant'
p15
I00
sbsg14
I1
sS'single'
p16
I01
sS'op'
p17
cmath
cos
p18
sbsg14
I2
sg16
I01
sg17
cmyEvolve
absSqrt
p19
sbsg14
I3
sg16
I01
sg17
g18
sba(imyEvolve
Tree
p20
(dp21
g14
I3
sS'left'
p22
(imyEvolve
Tree
p23
(dp24
g14
I2
sg22
(imyEvolve
Tree
p25
(dp26
g14
I1
sg22
(imyEvolve
Tree
p27
(dp28
g14
I0
sg15
I00
sbsS'right'
p29
(imyEvolve
Tree
p30
(dp31
g14
I0
sg15
I00
sbsg16
I00
sg17
coperator
sub
p32
sbsg29
(imyEvolve
Tree
p33
(dp34
g7
(imyEvolve
Tree
p35
(dp36
g14
I0
sS'constant'
p37
F1.067893517174804
sg15
I01
sbsg14
I1
sg16
I01
sg17
g18
sbsg16
I00
sg17
coperator
add
p38
sbsg29
(imyEvolve
Tree
p39
(dp40
g7
(imyEvolve
Tree
p41
(dp42
g7
(imyEvolve
Tree
p43
(dp44
g14
I0
sg37
F4.306801402643956
sg15
I01
sbsg14
I1
sg16
I01
sg17
cmath
sin
p45
sbsg14
I2
sg16
I01
sg17
g19
sbsg16
I00
sg17
g38
sba(imyEvolve
Tree
p46
(dp47
g22
(imyEvolve
Tree
p48
(dp49
g22
(imyEvolve
Tree
p50
(dp51
g14
I0
sg15
I00
sbsg14
I1
sg29
(imyEvolve
Tree
p52
(dp53
g14
I0
sg15
I00
sbsg16
I00
sg17
g32
sbsg14
I2
sg29
(imyEvolve
Tree
p54
(dp55
g22
(imyEvolve
Tree
p56
(dp57
g14
I0
sg15
I00
sbsg14
I1
sg29
(imyEvolve
Tree
p58
(dp59
g14
I0
sg37
F1.1997862212991812
sg15
I01
sbsg16
I00
sg17
coperator
mul
p60
sbsg16
I00
sg17
g38
sba(imyEvolve
Tree
p61
(dp62
g7
(imyEvolve
Tree
p63
(dp64
g22
(imyEvolve
Tree
p65
(dp66
g22
(imyEvolve
Tree
p67
(dp68
g14
I0
sg37
F0.36826992967050387
sg15
I01
sbsg14
I1
sg29
(imyEvolve
Tree
p69
(dp70
g14
I0
sg37
F4.856780197386492
sg15
I01
sbsg16
I00
sg17
g32
sbsg14
I2
sg29
(imyEvolve
Tree
p71
(dp72
g22
(imyEvolve
Tree
p73
(dp74
g14
I0
sg37
F-0.5563782429086759
sg15
I01
sbsg14
I1
sg29
(imyEvolve
Tree
p75
(dp76
g14
I0
sg37
F3.779247722163099
sg15
I01
sbsg16
I00
sg17
g60
sbsg16
I00
sg17
g32
sbsg14
I3
sg16
I01
sg17
g45
sba(imyEvolve
Tree
p77
(dp78
g7
(imyEvolve
Tree
p79
(dp80
g7
(imyEvolve
Tree
p81
(dp82
g14
I0
sg37
F-1.3706023648151944
sg15
I01
sbsg14
I1
sg16
I01
sg17
g45
sbsg14
I2
sg16
I01
sg17
cmyEvolve
square
p83
sba(imyEvolve
Tree
p84
(dp85
g22
(imyEvolve
Tree
p86
(dp87
g22
(imyEvolve
Tree
p88
(dp89
g7
(imyEvolve
Tree
p90
(dp91
g14
I0
sg15
I00
sbsg14
I1
sg16
I01
sg17
g19
sbsg14
I2
sg29
(imyEvolve
Tree
p92
(dp93
g22
(imyEvolve
Tree
p94
(dp95
g14
I0
sg37
F1.6357787650675082
sg15
I01
sbsg14
I1
sg29
(imyEvolve
Tree
p96
(dp97
g14
I0
sg15
I00
sbsg16
I00
sg17
g32
sbsg16
I00
sg17
g32
sbsg14
I3
sg29
(imyEvolve
Tree
p98
(dp99
g7
(imyEvolve
Tree
p100
(dp101
g22
(imyEvolve
Tree
p102
(dp103
g14
I0
sg37
F-0.9555988417013017
sg15
I01
sbsg14
I1
sg29
(imyEvolve
Tree
p104
(dp105
g14
I0
sg15
I00
sbsg16
I00
sg17
g32
sbsg14
I2
sg16
I01
sg17
g18
sbsg16
I00
sg17
g32
sba(imyEvolve
Tree
p106
(dp107
g7
(imyEvolve
Tree
p108
(dp109
g22
(imyEvolve
Tree
p110
(dp111
g14
I0
sg37
F0.7333504045363748
sg15
I01
sbsg14
I1
sg29
(imyEvolve
Tree
p112
(dp113
g14
I0
sg15
I00
sbsg16
I00
sg17
g60
sbsg14
I2
sg16
I01
sg17
g19
sba(imyEvolve
Tree
p114
(dp115
g7
(imyEvolve
Tree
p116
(dp117
g7
(imyEvolve
Tree
p118
(dp119
g7
(imyEvolve
Tree
p120
(dp121
g22
(imyEvolve
Tree
p122
(dp123
g7
(imyEvolve
Tree
p124
(dp125
g14
I0
sg37
F-1.5266529772187711
sg15
I01
sbsg14
I1
sg16
I01
sg17
g18
sbsg14
I2
sg29
(imyEvolve
Tree
p126
(dp127
g22
(imyEvolve
Tree
p128
(dp129
g14
I0
sg37
F2.490962801265403
sg15
I01
sbsg14
I1
sg29
(imyEvolve
Tree
p130
(dp131
g14
I0
sg15
I00
sbsg16
I00
sg17
g32
sbsg16
I00
sg17
g38
sbsg14
I3
sg16
I01
sg17
g45
sbsg14
I4
sg16
I01
sg17
g19
sbsg14
I5
sg16
I01
sg17
g19
sba(imyEvolve
Tree
p132
(dp133
g7
(imyEvolve
Tree
p134
(dp135
g7
(imyEvolve
Tree
p136
(dp137
g22
(imyEvolve
Tree
p138
(dp139
g14
I0
sg15
I00
sbsg14
I1
sg29
(imyEvolve
Tree
p140
(dp141
g14
I0
sg37
F0.12237748139200111
sg15
I01
sbsg16
I00
sg17
g60
sbsg14
I2
sg16
I01
sg17
g45
sbsg14
I3
sg16
I01
sg17
g19
sba(imyEvolve
Tree
p142
(dp143
g7
(imyEvolve
Tree
p144
(dp145
g14
I1
sg22
(imyEvolve
Tree
p146
(dp147
g14
I0
sg15
I00
sbsg29
(imyEvolve
Tree
p148
(dp149
g14
I0
sg37
F-1.436807227369231
sg15
I01
sbsg16
I00
sg17
g32
sbsg14
I2
sg16
I01
sg17
g19
sba(imyEvolve
Tree
p150
(dp151
g7
(imyEvolve
Tree
p152
(dp153
g7
(imyEvolve
Tree
p154
(dp155
g22
(imyEvolve
Tree
p156
(dp157
g14
I0
sg15
I00
sbsg14
I1
sg29
(imyEvolve
Tree
p158
(dp159
g14
I0
sg37
F3.994219386937745
sg15
I01
sbsg16
I00
sg17
g32
sbsg14
I2
sg16
I01
sg17
g45
sbsg14
I3
sg16
I01
sg17
g83
sba(imyEvolve
Tree
p160
(dp161
g22
(imyEvolve
Tree
p162
(dp163
g22
(imyEvolve
Tree
p164
(dp165
g14
I0
sg37
F-1.2994539351659098
sg15
I01
sbsg14
I1
sg29
(imyEvolve
Tree
p166
(dp167
g14
I0
sg37
F-2.5765781421361975
sg15
I01
sbsg16
I00
sg17
g60
sbsg14
I2
sg29
(imyEvolve
Tree
p168
(dp169
g7
(imyEvolve
Tree
p170
(dp171
g14
I0
sg15
I00
sbsg14
I1
sg16
I01
sg17
g18
sbsg16
I00
sg17
g32
sba(imyEvolve
Tree
p172
(dp173
g14
I3
sg22
(imyEvolve
Tree
p174
(dp175
g14
I2
sg22
(imyEvolve
Tree
p176
(dp177
g7
(imyEvolve
Tree
p178
(dp179
g14
I0
sg15
I00
sbsg14
I1
sg16
I01
sg17
g83
sbsg29
(imyEvolve
Tree
p180
(dp181
g14
I1
sg22
(imyEvolve
Tree
p182
(dp183
g14
I0
sg37
F4.051930313514847
sg15
I01
sbsg29
(imyEvolve
Tree
p184
(dp185
g14
I0
sg37
F-3.924745984409359
sg15
I01
sbsg16
I00
sg17
g38
sbsg16
I00
sg17
g32
sbsg29
(imyEvolve
Tree
p186
(dp187
g7
(imyEvolve
Tree
p188
(dp189
g7
(imyEvolve
Tree
p190
(dp191
g14
I0
sg37
F2.9156035635106416
sg15
I01
sbsg14
I1
sg16
I01
sg17
g19
sbsg14
I2
sg16
I01
sg17
g18
sbsg16
I00
sg17
g38
sba(imyEvolve
Tree
p192
(dp193
g7
(imyEvolve
Tree
p194
(dp195
g7
(imyEvolve
Tree
p196
(dp197
g22
(imyEvolve
Tree
p198
(dp199
g7
(imyEvolve
Tree
p200
(dp201
g7
(imyEvolve
Tree
p202
(dp203
g14
I0
sg15
I00
sbsg14
I1
sg16
I01
sg17
g45
sbsg14
I2
sg16
I01
sg17
g83
sbsg14
I3
sg29
(imyEvolve
Tree
p204
(dp205
g22
(imyEvolve
Tree
p206
(dp207
g7
(imyEvolve
Tree
p208
(dp209
g14
I0
sg37
F-4.496614673175651
sg15
I01
sbsg14
I1
sg16
I01
sg17
g19
sbsg14
I2
sg29
(imyEvolve
Tree
p210
(dp211
g7
(imyEvolve
Tree
p212
(dp213
g14
I0
sg15
I00
sbsg14
I1
sg16
I01
sg17
g19
sbsg16
I00
sg17
g32
sbsg16
I00
sg17
g38
sbsg14
I4
sg16
I01
sg17
g45
sbsg14
I5
sg16
I01
sg17
g19
sba(imyEvolve
Tree
p214
(dp215
g14
I2
sg22
(imyEvolve
Tree
p216
(dp217
g7
(imyEvolve
Tree
p218
(dp219
g14
I0
sg15
I00
sbsg14
I1
sg16
I01
sg17
g19
sbsg29
(imyEvolve
Tree
p220
(dp221
g7
(imyEvolve
Tree
p222
(dp223
g14
I0
sg15
I00
sbsg14
I1
sg16
I01
sg17
g45
sbsg16
I00
sg17
g38
sba(imyEvolve
Tree
p224
(dp225
g7
(imyEvolve
Tree
p226
(dp227
g22
(imyEvolve
Tree
p228
(dp229
g7
(imyEvolve
Tree
p230
(dp231
g7
(imyEvolve
Tree
p232
(dp233
g14
I0
sg37
F4.864363591071934
sg15
I01
sbsg14
I1
sg16
I01
sg17
g18
sbsg14
I2
sg16
I01
sg17
g83
sbsg14
I3
sg29
(imyEvolve
Tree
p234
(dp235
g7
(imyEvolve
Tree
p236
(dp237
g22
(imyEvolve
Tree
p238
(dp239
g14
I0
sg15
I00
sbsg14
I1
sg29
(imyEvolve
Tree
p240
(dp241
g14
I0
sg37
F3.9655982467009014
sg15
I01
sbsg16
I00
sg17
g60
sbsg14
I2
sg16
I01
sg17
g83
sbsg16
I00
sg17
g60
sbsg14
I4
sg16
I01
sg17
g83
sba(imyEvolve
Tree
p242
(dp243
g22
(imyEvolve
Tree
p244
(dp245
g22
(imyEvolve
Tree
p246
(dp247
g7
(imyEvolve
Tree
p248
(dp249
g14
I0
sg37
F-1.5928010025755048
sg15
I01
sbsg14
I1
sg16
I01
sg17
g18
sbsg14
I2
sg29
(imyEvolve
Tree
p250
(dp251
g22
(imyEvolve
Tree
p252
(dp253
g14
I0
sg37
F-0.2856660002625251
sg15
I01
sbsg14
I1
sg29
(imyEvolve
Tree
p254
(dp255
g14
I0
sg37
F4.192145816549843
sg15
I01
sbsg16
I00
sg17
g60
sbsg16
I00
sg17
g32
sbsg14
I3
sg29
(imyEvolve
Tree
p256
(dp257
g22
(imyEvolve
Tree
p258
(dp259
g22
(imyEvolve
Tree
p260
(dp261
g14
I0
sg37
F4.963102354681556
sg15
I01
sbsg14
I1
sg29
(imyEvolve
Tree
p262
(dp263
g14
I0
sg15
I00
sbsg16
I00
sg17
g32
sbsg14
I2
sg29
(imyEvolve
Tree
p264
(dp265
g7
(imyEvolve
Tree
p266
(dp267
g14
I0
sg15
I00
sbsg14
I1
sg16
I01
sg17
g45
sbsg16
I00
sg17
g38
sbsg16
I00
sg17
g38
sba(imyEvolve
Tree
p268
(dp269
g7
(imyEvolve
Tree
p270
(dp271
g14
I3
sg22
(imyEvolve
Tree
p272
(dp273
g7
(imyEvolve
Tree
p274
(dp275
g14
I1
sg22
(imyEvolve
Tree
p276
(dp277
g14
I0
sg37
F1.3004216317164659
sg15
I01
sbsg29
(imyEvolve
Tree
p278
(dp279
g14
I0
sg15
I00
sbsg16
I00
sg17
g60
sbsg14
I2
sg16
I01
sg17
g18
sbsg29
(imyEvolve
Tree
p280
(dp281
g7
(imyEvolve
Tree
p282
(dp283
g7
(imyEvolve
Tree
p284
(dp285
g14
I0
sg37
F-0.2905714901698131
sg15
I01
sbsg14
I1
sg16
I01
sg17
g83
sbsg14
I2
sg16
I01
sg17
g19
sbsg16
I00
sg17
g60
sbsg14
I4
sg16
I01
sg17
g45
sba(imyEvolve
Tree
p286
(dp287
g22
(imyEvolve
Tree
p288
(dp289
g7
(imyEvolve
Tree
p290
(dp291
g22
(imyEvolve
Tree
p292
(dp293
g7
(imyEvolve
Tree
p294
(dp295
g22
(imyEvolve
Tree
p296
(dp297
g14
I0
sg15
I00
sbsg14
I1
sg29
(imyEvolve
Tree
p298
(dp299
g14
I0
sg37
F4.6137419990963995
sg15
I01
sbsg16
I00
sg17
g60
sbsg14
I2
sg16
I01
sg17
g18
sbsg14
I3
sg29
(imyEvolve
Tree
p300
(dp301
g22
(imyEvolve
Tree
p302
(dp303
g22
(imyEvolve
Tree
p304
(dp305
g14
I0
sg37
F4.187754054368021
sg15
I01
sbsg14
I1
sg29
(imyEvolve
Tree
p306
(dp307
g14
I0
sg37
F4.109180833659183
sg15
I01
sbsg16
I00
sg17
g32
sbsg14
I2
sg29
(imyEvolve
Tree
p308
(dp309
g22
(imyEvolve
Tree
p310
(dp311
g14
I0
sg15
I00
sbsg14
I1
sg29
(imyEvolve
Tree
p312
(dp313
g14
I0
sg37
F-0.2965696124342667
sg15
I01
sbsg16
I00
sg17
g60
sbsg16
I00
sg17
g38
sbsg16
I00
sg17
g32
sbsg14
I4
sg16
I01
sg17
g18
sbsg14
I5
sg29
(imyEvolve
Tree
p314
(dp315
g22
(imyEvolve
Tree
p316
(dp317
g22
(imyEvolve
Tree
p318
(dp319
g22
(imyEvolve
Tree
p320
(dp321
g22
(imyEvolve
Tree
p322
(dp323
g14
I0
sg15
I00
sbsg14
I1
sg29
(imyEvolve
Tree
p324
(dp325
g14
I0
sg15
I00
sbsg16
I00
sg17
g32
sbsg14
I2
sg29
(imyEvolve
Tree
p326
(dp327
g7
(imyEvolve
Tree
p328
(dp329
g14
I0
sg15
I00
sbsg14
I1
sg16
I01
sg17
g83
sbsg16
I00
sg17
g38
sbsg14
I3
sg29
(imyEvolve
Tree
p330
(dp331
g7
(imyEvolve
Tree
p332
(dp333
g22
(imyEvolve
Tree
p334
(dp335
g14
I0
sg15
I00
sbsg14
I1
sg29
(imyEvolve
Tree
p336
(dp337
g14
I0
sg15
I00
sbsg16
I00
sg17
g60
sbsg14
I2
sg16
I01
sg17
g19
sbsg16
I00
sg17
g32
sbsg14
I4
sg29
(imyEvolve
Tree
p338
(dp339
g7
(imyEvolve
Tree
p340
(dp341
g22
(imyEvolve
Tree
p342
(dp343
g22
(imyEvolve
Tree
p344
(dp345
g14
I0
sg15
I00
sbsg14
I1
sg29
(imyEvolve
Tree
p346
(dp347
g14
I0
sg15
I00
sbsg16
I00
sg17
g60
sbsg14
I2
sg29
(imyEvolve
Tree
p348
(dp349
g22
(imyEvolve
Tree
p350
(dp351
g14
I0
sg37
F4.0254278823044345
sg15
I01
sbsg14
I1
sg29
(imyEvolve
Tree
p352
(dp353
g14
I0
sg15
I00
sbsg16
I00
sg17
g38
sbsg16
I00
sg17
g32
sbsg14
I3
sg16
I01
sg17
g83
sbsg16
I00
sg17
g60
sbsg16
I00
sg17
g32
sba(imyEvolve
Tree
p354
(dp355
g7
(imyEvolve
Tree
p356
(dp357
g7
(imyEvolve
Tree
p358
(dp359
g7
(imyEvolve
Tree
p360
(dp361
g14
I1
sg22
(imyEvolve
Tree
p362
(dp363
g14
I0
sg15
I00
sbsg29
(imyEvolve
Tree
p364
(dp365
g14
I0
sg15
I00
sbsg16
I00
sg17
g32
sbsg14
I2
sg16
I01
sg17
g45
sbsg14
I3
sg16
I01
sg17
g19
sbsg14
I4
sg16
I01
sg17
g18
sbaa(lp366
(imyEvolve
Tree
p367
(dp368
g22
(imyEvolve
Tree
p369
(dp370
g7
(imyEvolve
Tree
p371
(dp372
g7
(imyEvolve
Tree
p373
(dp374
g7
(imyEvolve
Tree
p375
(dp376
g22
(imyEvolve
Tree
p377
(dp378
g14
I0
sg15
I00
sbsg14
I1
sg29
(imyEvolve
Tree
p379
(dp380
g14
I0
sg37
F1.5111061961564856
sg15
I01
sbsg16
I00
sg17
g38
sbsg14
I2
sg16
I01
sg17
g18
sbsg14
I3
sg16
I01
sg17
g45
sbsg14
I4
sg16
I01
sg17
g83
sbsg14
I5
sg29
(imyEvolve
Tree
p381
(dp382
g7
(imyEvolve
Tree
p383
(dp384
g7
(imyEvolve
Tree
p385
(dp386
g7
(imyEvolve
Tree
p387
(dp388
g7
(imyEvolve
Tree
p389
(dp390
g14
I0
sg37
F3.3487763688746313
sg15
I01
sbsg14
I1
sg16
I01
sg17
g45
sbsg14
I2
sg16
I01
sg17
g45
sbsg14
I3
sg16
I01
sg17
g45
sbsg14
I4
sg16
I01
sg17
g18
sbsg16
I00
sg17
g60
sba(imyEvolve
Tree
p391
(dp392
g7
(imyEvolve
Tree
p393
(dp394
g7
(imyEvolve
Tree
p395
(dp396
g14
I0
sg37
F-2.069169659437957
sg15
I01
sbsg14
I1
sg16
I01
sg17
g18
sbsg14
I2
sg16
I01
sg17
g18
sba(imyEvolve
Tree
p397
(dp398
g22
(imyEvolve
Tree
p399
(dp400
g7
(imyEvolve
Tree
p401
(dp402
g7
(imyEvolve
Tree
p403
(dp404
g14
I0
sg15
I00
sbsg14
I1
sg16
I01
sg17
g19
sbsg14
I2
sg16
I01
sg17
g19
sbsg14
I3
sg29
(imyEvolve
Tree
p405
(dp406
g22
(imyEvolve
Tree
p407
(dp408
g22
(imyEvolve
Tree
p409
(dp410
g14
I0
sg37
F-3.2349969979401108
sg15
I01
sbsg14
I1
sg29
(imyEvolve
Tree
p411
(dp412
g14
I0
sg15
I00
sbsg16
I00
sg17
g32
sbsg14
I2
sg29
(imyEvolve
Tree
p413
(dp414
g22
(imyEvolve
Tree
p415
(dp416
g14
I0
sg37
F3.450323439949136
sg15
I01
sbsg14
I1
sg29
(imyEvolve
Tree
p417
(dp418
g14
I0
sg15
I00
sbsg16
I00
sg17
g38
sbsg16
I00
sg17
g38
sbsg16
I00
sg17
g38
sba(imyEvolve
Tree
p419
(dp420
g7
(imyEvolve
Tree
p421
(dp422
g22
(imyEvolve
Tree
p423
(dp424
g14
I0
sg37
F-0.06766433553183848
sg15
I01
sbsg14
I1
sg29
(imyEvolve
Tree
p425
(dp426
g14
I0
sg15
I00
sbsg16
I00
sg17
g32
sbsg14
I2
sg16
I01
sg17
g83
sba(imyEvolve
Tree
p427
(dp428
g7
(imyEvolve
Tree
p429
(dp430
g7
(imyEvolve
Tree
p431
(dp432
g14
I2
sg22
(imyEvolve
Tree
p433
(dp434
g7
(imyEvolve
Tree
p435
(dp436
g14
I0
sg15
I00
sbsg14
I1
sg16
I01
sg17
g18
sbsg29
(imyEvolve
Tree
p437
(dp438
g7
(imyEvolve
Tree
p439
(dp440
g14
I0
sg15
I00
sbsg14
I1
sg16
I01
sg17
g18
sbsg16
I00
sg17
g60
sbsg14
I3
sg16
I01
sg17
g45
sbsg14
I4
sg16
I01
sg17
g83
sba(imyEvolve
Tree
p441
(dp442
g7
(imyEvolve
Tree
p443
(dp444
g22
(imyEvolve
Tree
p445
(dp446
g22
(imyEvolve
Tree
p447
(dp448
g14
I0
sg37
F-0.1894346779309375
sg15
I01
sbsg14
I1
sg29
(imyEvolve
Tree
p449
(dp450
g14
I0
sg37
F-1.372944929387189
sg15
I01
sbsg16
I00
sg17
g38
sbsg14
I2
sg29
(imyEvolve
Tree
p451
(dp452
g7
(imyEvolve
Tree
p453
(dp454
g14
I0
sg37
F-4.510334855593234
sg15
I01
sbsg14
I1
sg16
I01
sg17
g45
sbsg16
I00
sg17
g32
sbsg14
I3
sg16
I01
sg17
g19
sba(imyEvolve
Tree
p455
(dp456
g22
(imyEvolve
Tree
p457
(dp458
g7
(imyEvolve
Tree
p459
(dp460
g14
I0
sg37
F1.7198692565316556
sg15
I01
sbsg14
I1
sg16
I01
sg17
g45
sbsg14
I2
sg29
(imyEvolve
Tree
p461
(dp462
g7
(imyEvolve
Tree
p463
(dp464
g14
I0
sg37
F2.8804175337243523
sg15
I01
sbsg14
I1
sg16
I01
sg17
g19
sbsg16
I00
sg17
g38
sba(imyEvolve
Tree
p465
(dp466
g7
(imyEvolve
Tree
p467
(dp468
g14
I4
sg22
(imyEvolve
Tree
p469
(dp470
g7
(imyEvolve
Tree
p471
(dp472
g7
(imyEvolve
Tree
p473
(dp474
g7
(imyEvolve
Tree
p475
(dp476
g14
I0
sg37
F1.5866673820803463
sg15
I01
sbsg14
I1
sg16
I01
sg17
g45
sbsg14
I2
sg16
I01
sg17
g18
sbsg14
I3
sg16
I01
sg17
g45
sbsg29
(imyEvolve
Tree
p477
(dp478
g7
(imyEvolve
Tree
p479
(dp480
g14
I2
sg22
(imyEvolve
Tree
p481
(dp482
g7
(imyEvolve
Tree
p483
(dp484
g14
I0
sg37
F1.6880494681307159
sg15
I01
sbsg14
I1
sg16
I01
sg17
g18
sbsg29
(imyEvolve
Tree
p485
(dp486
g14
I1
sg22
(imyEvolve
Tree
p487
(dp488
g14
I0
sg37
F2.1407197108941904
sg15
I01
sbsg29
(imyEvolve
Tree
p489
(dp490
g14
I0
sg15
I00
sbsg16
I00
sg17
g60
sbsg16
I00
sg17
g38
sbsg14
I3
sg16
I01
sg17
g45
sbsg16
I00
sg17
g38
sbsg14
I5
sg16
I01
sg17
g19
sba(imyEvolve
Tree
p491
(dp492
g7
(imyEvolve
Tree
p493
(dp494
g22
(imyEvolve
Tree
p495
(dp496
g22
(imyEvolve
Tree
p497
(dp498
g7
(imyEvolve
Tree
p499
(dp500
g14
I0
sg15
I00
sbsg14
I1
sg16
I01
sg17
g18
sbsg14
I2
sg29
(imyEvolve
Tree
p501
(dp502
g22
(imyEvolve
Tree
p503
(dp504
g14
I0
sg15
I00
sbsg14
I1
sg29
(imyEvolve
Tree
p505
(dp506
g14
I0
sg15
I00
sbsg16
I00
sg17
g60
sbsg16
I00
sg17
g32
sbsg14
I3
sg29
(imyEvolve
Tree
p507
(dp508
g7
(imyEvolve
Tree
p509
(dp510
g7
(imyEvolve
Tree
p511
(dp512
g14
I0
sg15
I00
sbsg14
I1
sg16
I01
sg17
g45
sbsg14
I2
sg16
I01
sg17
g18
sbsg16
I00
sg17
g32
sbsg14
I4
sg16
I01
sg17
g19
sba(imyEvolve
Tree
p513
(dp514
g22
(imyEvolve
Tree
p515
(dp516
g22
(imyEvolve
Tree
p517
(dp518
g7
(imyEvolve
Tree
p519
(dp520
g7
(imyEvolve
Tree
p521
(dp522
g14
I0
sg15
I00
sbsg14
I1
sg16
I01
sg17
g45
sbsg14
I2
sg16
I01
sg17
g19
sbsg14
I3
sg29
(imyEvolve
Tree
p523
(dp524
g22
(imyEvolve
Tree
p525
(dp526
g7
(imyEvolve
Tree
p527
(dp528
g14
I0
sg15
I00
sbsg14
I1
sg16
I01
sg17
g83
sbsg14
I2
sg29
(imyEvolve
Tree
p529
(dp530
g22
(imyEvolve
Tree
p531
(dp532
g14
I0
sg37
F0.5166643911859676
sg15
I01
sbsg14
I1
sg29
(imyEvolve
Tree
p533
(dp534
g14
I0
sg37
F2.545024982440367
sg15
I01
sbsg16
I00
sg17
g32
sbsg16
I00
sg17
g60
sbsg16
I00
sg17
g32
sbsg14
I4
sg29
(imyEvolve
Tree
p535
(dp536
g7
(imyEvolve
Tree
p537
(dp538
g22
(imyEvolve
Tree
p539
(dp540
g22
(imyEvolve
Tree
p541
(dp542
g14
I0
sg37
F3.0789206330565637
sg15
I01
sbsg14
I1
sg29
(imyEvolve
Tree
p543
(dp544
g14
I0
sg37
F0.5934033040547746
sg15
I01
sbsg16
I00
sg17
g32
sbsg14
I2
sg29
(imyEvolve
Tree
p545
(dp546
g7
(imyEvolve
Tree
p547
(dp548
g14
I0
sg15
I00
sbsg14
I1
sg16
I01
sg17
g18
sbsg16
I00
sg17
g32
sbsg14
I3
sg16
I01
sg17
g18
sbsg16
I00
sg17
g32
sba(imyEvolve
Tree
p549
(dp550
g7
(imyEvolve
Tree
p551
(dp552
g7
(imyEvolve
Tree
p553
(dp554
g14
I0
sg37
F-1.9685852368081402
sg15
I01
sbsg14
I1
sg16
I01
sg17
g83
sbsg14
I2
sg16
I01
sg17
g19
sba(imyEvolve
Tree
p555
(dp556
g22
(imyEvolve
Tree
p557
(dp558
g22
(imyEvolve
Tree
p559
(dp560
g7
(imyEvolve
Tree
p561
(dp562
g22
(imyEvolve
Tree
p563
(dp564
g22
(imyEvolve
Tree
p565
(dp566
g14
I0
sg37
F-0.9314163753962585
sg15
I01
sbsg14
I1
sg29
(imyEvolve
Tree
p567
(dp568
g14
I0
sg15
I00
sbsg16
I00
sg17
g60
sbsg14
I2
sg29
(imyEvolve
Tree
p569
(dp570
g22
(imyEvolve
Tree
p571
(dp572
g14
I0
sg15
I00
sbsg14
I1
sg29
(imyEvolve
Tree
p573
(dp574
g14
I0
sg15
I00
sbsg16
I00
sg17
g38
sbsg16
I00
sg17
g60
sbsg14
I3
sg16
I01
sg17
g83
sbsg14
I4
sg29
(imyEvolve
Tree
p575
(dp576
g22
(imyEvolve
Tree
p577
(dp578
g22
(imyEvolve
Tree
p579
(dp580
g7
(imyEvolve
Tree
p581
(dp582
g14
I0
sg15
I00
sbsg14
I1
sg16
I01
sg17
g45
sbsg14
I2
sg29
(imyEvolve
Tree
p583
(dp584
g7
(imyEvolve
Tree
p585
(dp586
g14
I0
sg15
I00
sbsg14
I1
sg16
I01
sg17
g45
sbsg16
I00
sg17
g60
sbsg14
I3
sg29
(imyEvolve
Tree
p587
(dp588
g7
(imyEvolve
Tree
p589
(dp590
g7
(imyEvolve
Tree
p591
(dp592
g14
I0
sg37
F4.468926905194827
sg15
I01
sbsg14
I1
sg16
I01
sg17
g18
sbsg14
I2
sg16
I01
sg17
g83
sbsg16
I00
sg17
g38
sbsg16
I00
sg17
g60
sbsg14
I5
sg29
(imyEvolve
Tree
p593
(dp594
g7
(imyEvolve
Tree
p595
(dp596
g22
(imyEvolve
Tree
p597
(dp598
g7
(imyEvolve
Tree
p599
(dp600
g7
(imyEvolve
Tree
p601
(dp602
g14
I0
sg15
I00
sbsg14
I1
sg16
I01
sg17
g19
sbsg14
I2
sg16
I01
sg17
g18
sbsg14
I3
sg29
(imyEvolve
Tree
p603
(dp604
g7
(imyEvolve
Tree
p605
(dp606
g7
(imyEvolve
Tree
p607
(dp608
g14
I0
sg15
I00
sbsg14
I1
sg16
I01
sg17
g45
sbsg14
I2
sg16
I01
sg17
g45
sbsg16
I00
sg17
g60
sbsg14
I4
sg16
I01
sg17
g45
sbsg16
I00
sg17
g32
sba(imyEvolve
Tree
p609
(dp610
g22
(imyEvolve
Tree
p611
(dp612
g22
(imyEvolve
Tree
p613
(dp614
g22
(imyEvolve
Tree
p615
(dp616
g7
(imyEvolve
Tree
p617
(dp618
g22
(imyEvolve
Tree
p619
(dp620
g14
I0
sg37
F-0.013924324626381157
sg15
I01
sbsg14
I1
sg29
(imyEvolve
Tree
p621
(dp622
g14
I0
sg15
I00
sbsg16
I00
sg17
g32
sbsg14
I2
sg16
I01
sg17
g18
sbsg14
I3
sg29
(imyEvolve
Tree
p623
(dp624
g7
(imyEvolve
Tree
p625
(dp626
g22
(imyEvolve
Tree
p627
(dp628
g14
I0
sg37
F-1.4477807121821251
sg15
I01
sbsg14
I1
sg29
(imyEvolve
Tree
p629
(dp630
g14
I0
sg15
I00
sbsg16
I00
sg17
g38
sbsg14
I2
sg16
I01
sg17
g45
sbsg16
I00
sg17
g32
sbsg14
I4
sg29
(imyEvolve
Tree
p631
(dp632
g22
(imyEvolve
Tree
p633
(dp634
g22
(imyEvolve
Tree
p635
(dp636
g22
(imyEvolve
Tree
p637
(dp638
g14
I0
sg37
F-3.9684167087332645
sg15
I01
sbsg14
I1
sg29
(imyEvolve
Tree
p639
(dp640
g14
I0
sg37
F-1.768354326554602
sg15
I01
sbsg16
I00
sg17
g38
sbsg14
I2
sg29
(imyEvolve
Tree
p641
(dp642
g22
(imyEvolve
Tree
p643
(dp644
g14
I0
sg15
I00
sbsg14
I1
sg29
(imyEvolve
Tree
p645
(dp646
g14
I0
sg15
I00
sbsg16
I00
sg17
g38
sbsg16
I00
sg17
g32
sbsg14
I3
sg29
(imyEvolve
Tree
p647
(dp648
g7
(imyEvolve
Tree
p649
(dp650
g22
(imyEvolve
Tree
p651
(dp652
g14
I0
sg15
I00
sbsg14
I1
sg29
(imyEvolve
Tree
p653
(dp654
g14
I0
sg37
F-4.217186234463686
sg15
I01
sbsg16
I00
sg17
g32
sbsg14
I2
sg16
I01
sg17
g18
sbsg16
I00
sg17
g60
sbsg16
I00
sg17
g38
sbsg14
I5
sg29
(imyEvolve
Tree
p655
(dp656
g7
(imyEvolve
Tree
p657
(dp658
g7
(imyEvolve
Tree
p659
(dp660
g7
(imyEvolve
Tree
p661
(dp662
g22
(imyEvolve
Tree
p663
(dp664
g14
I0
sg37
F-0.7021194204076862
sg15
I01
sbsg14
I1
sg29
(imyEvolve
Tree
p665
(dp666
g14
I0
sg37
F4.772250290562283
sg15
I01
sbsg16
I00
sg17
g32
sbsg14
I2
sg16
I01
sg17
g83
sbsg14
I3
sg16
I01
sg17
g83
sbsg14
I4
sg16
I01
sg17
g45
sbsg16
I00
sg17
g32
sba(imyEvolve
Tree
p667
(dp668
g7
(imyEvolve
Tree
p669
(dp670
g22
(imyEvolve
Tree
p671
(dp672
g7
(imyEvolve
Tree
p673
(dp674
g14
I0
sg15
I00
sbsg14
I1
sg16
I01
sg17
g83
sbsg14
I2
sg29
(imyEvolve
Tree
p675
(dp676
g22
(imyEvolve
Tree
p677
(dp678
g14
I0
sg15
I00
sbsg14
I1
sg29
(imyEvolve
Tree
p679
(dp680
g14
I0
sg37
F-3.74351143126301
sg15
I01
sbsg16
I00
sg17
g60
sbsg16
I00
sg17
g60
sbsg14
I3
sg16
I01
sg17
g19
sba(imyEvolve
Tree
p681
(dp682
g7
(imyEvolve
Tree
p683
(dp684
g7
(imyEvolve
Tree
p685
(dp686
g22
(imyEvolve
Tree
p687
(dp688
g14
I0
sg37
F-0.3723743554197121
sg15
I01
sbsg14
I1
sg29
(imyEvolve
Tree
p689
(dp690
g14
I0
sg37
F-3.974977288558379
sg15
I01
sbsg16
I00
sg17
g60
sbsg14
I2
sg16
I01
sg17
g45
sbsg14
I3
sg16
I01
sg17
g83
sba(imyEvolve
Tree
p691
(dp692
g14
I2
sg22
(imyEvolve
Tree
p693
(dp694
g14
I1
sg22
(imyEvolve
Tree
p695
(dp696
g14
I0
sg15
I00
sbsg29
(imyEvolve
Tree
p697
(dp698
g14
I0
sg37
F1.3180948437665094
sg15
I01
sbsg16
I00
sg17
g60
sbsg29
(imyEvolve
Tree
p699
(dp700
g7
(imyEvolve
Tree
p701
(dp702
g14
I0
sg37
F-2.903856806717301
sg15
I01
sbsg14
I1
sg16
I01
sg17
g19
sbsg16
I00
sg17
g38
sbaasS'alpha'
p703
F0.0012068478921166473
sS'fitness'
p704
cnumpy.core.multiarray
scalar
p705
(cnumpy
dtype
p706
(S'f8'
p707
I0
I1
tp708
Rp709
(I3
S'<'
p710
NNNI-1
I-1
I0
tp711
bS'"\xfd\xf6\x11]\x1d\xe6?'
p712
tp713
Rp714
sS'weightSharing'
p715
(lp716
I01
asS'fitnessValid'
p717
I00
sS'resolution'
p718
I81
sb.