(imyEvolve
Individual
p0
(dp1
S'funcs'
p2
(lp3
(lp4
(imyEvolve
Tree
p5
(dp6
S'depth'
p7
I2
sS'left'
p8
(imyEvolve
Tree
p9
(dp10
S'below'
p11
(imyEvolve
Tree
p12
(dp13
g7
I0
sS'constant'
p14
F4.623683302141568
sS'isConstant'
p15
I01
sbsg7
I1
sS'single'
p16
I01
sS'op'
p17
cmyEvolve
absSqrt
p18
sbsS'right'
p19
(imyEvolve
Tree
p20
(dp21
g7
I1
sg8
(imyEvolve
Tree
p22
(dp23
g7
I0
sg14
F0.8296449320785193
sg15
I01
sbsg19
(imyEvolve
Tree
p24
(dp25
g7
I0
sg14
F0.17049572005433689
sg15
I01
sbsg16
I00
sg17
coperator
sub
p26
sbsg16
I00
sg17
g26
sba(imyEvolve
Tree
p27
(dp28
g11
(imyEvolve
Tree
p29
(dp30
g7
I3
sg8
(imyEvolve
Tree
p31
(dp32
g11
(imyEvolve
Tree
p33
(dp34
g7
I1
sg8
(imyEvolve
Tree
p35
(dp36
g7
I0
sg14
F0.43545799068345836
sg15
I01
sbsg19
(imyEvolve
Tree
p37
(dp38
g7
I0
sg14
F1.1486899708675313
sg15
I01
sbsg16
I00
sg17
g26
sbsg7
I2
sg16
I01
sg17
g18
sbsg19
(imyEvolve
Tree
p39
(dp40
g11
(imyEvolve
Tree
p41
(dp42
g7
I1
sg8
(imyEvolve
Tree
p43
(dp44
g7
I0
sg15
I00
sbsg19
(imyEvolve
Tree
p45
(dp46
g7
I0
sg15
I00
sbsg16
I00
sg17
coperator
mul
p47
sbsg7
I2
sg16
I01
sg17
g18
sbsg16
I00
sg17
g26
sbsg7
I4
sg16
I01
sg17
cmath
sin
p48
sba(imyEvolve
Tree
p49
(dp50
g8
(imyEvolve
Tree
p51
(dp52
g8
(imyEvolve
Tree
p53
(dp54
g11
(imyEvolve
Tree
p55
(dp56
g7
I0
sg15
I00
sbsg7
I1
sg16
I01
sg17
cmyEvolve
square
p57
sbsg7
I2
sg19
(imyEvolve
Tree
p58
(dp59
g8
(imyEvolve
Tree
p60
(dp61
g7
I0
sg14
F-3.032380191598122
sg15
I01
sbsg7
I1
sg19
(imyEvolve
Tree
p62
(dp63
g7
I0
sg15
I00
sbsg16
I00
sg17
coperator
add
p64
sbsg16
I00
sg17
g64
sbsg7
I3
sg19
(imyEvolve
Tree
p65
(dp66
g11
(imyEvolve
Tree
p67
(dp68
g8
(imyEvolve
Tree
p69
(dp70
g7
I0
sg14
F-1.8707328902086218
sg15
I01
sbsg7
I1
sg19
(imyEvolve
Tree
p71
(dp72
g7
I0
sg15
I00
sbsg16
I00
sg17
g47
sbsg7
I2
sg16
I01
sg17
cmath
cos
p73
sbsg16
I00
sg17
g26
sba(imyEvolve
Tree
p74
(dp75
g11
(imyEvolve
Tree
p76
(dp77
g11
(imyEvolve
Tree
p78
(dp79
g7
I0
sg15
I00
sbsg7
I1
sg16
I01
sg17
g48
sbsg7
I2
sg16
I01
sg17
g18
sba(imyEvolve
Tree
p80
(dp81
g11
(imyEvolve
Tree
p82
(dp83
g7
I3
sg8
(imyEvolve
Tree
p84
(dp85
g11
(imyEvolve
Tree
p86
(dp87
g7
I1
sg8
(imyEvolve
Tree
p88
(dp89
g7
I0
sg14
F-2.053831929746571
sg15
I01
sbsg19
(imyEvolve
Tree
p90
(dp91
g7
I0
sg14
F4.949639348426823
sg15
I01
sbsg16
I00
sg17
g47
sbsg7
I2
sg16
I01
sg17
g73
sbsg19
(imyEvolve
Tree
p92
(dp93
g11
(imyEvolve
Tree
p94
(dp95
g7
I1
sg8
(imyEvolve
Tree
p96
(dp97
g7
I0
sg14
F0.8952073513025809
sg15
I01
sbsg19
(imyEvolve
Tree
p98
(dp99
g7
I0
sg14
F3.352391520341371
sg15
I01
sbsg16
I00
sg17
g26
sbsg7
I2
sg16
I01
sg17
g48
sbsg16
I00
sg17
g64
sbsg7
I4
sg16
I01
sg17
g18
sba(imyEvolve
Tree
p100
(dp101
g11
(imyEvolve
Tree
p102
(dp103
g7
I4
sg8
(imyEvolve
Tree
p104
(dp105
g7
I3
sg8
(imyEvolve
Tree
p106
(dp107
g11
(imyEvolve
Tree
p108
(dp109
g7
I1
sg8
(imyEvolve
Tree
p110
(dp111
g7
I0
sg15
I00
sbsg19
(imyEvolve
Tree
p112
(dp113
g7
I0
sg14
F0.10361224638269384
sg15
I01
sbsg16
I00
sg17
g47
sbsg7
I2
sg16
I01
sg17
g73
sbsg19
(imyEvolve
Tree
p114
(dp115
g11
(imyEvolve
Tree
p116
(dp117
g7
I1
sg8
(imyEvolve
Tree
p118
(dp119
g7
I0
sg15
I00
sbsg19
(imyEvolve
Tree
p120
(dp121
g7
I0
sg14
F3.9243507759713925
sg15
I01
sbsg16
I00
sg17
g47
sbsg7
I2
sg16
I01
sg17
g18
sbsg16
I00
sg17
g26
sbsg19
(imyEvolve
Tree
p122
(dp123
g7
I3
sg8
(imyEvolve
Tree
p124
(dp125
g11
(imyEvolve
Tree
p126
(dp127
g11
(imyEvolve
Tree
p128
(dp129
g7
I0
sg14
F-3.499152875766105
sg15
I01
sbsg7
I1
sg16
I01
sg17
g48
sbsg7
I2
sg16
I01
sg17
g73
sbsg19
(imyEvolve
Tree
p130
(dp131
g11
(imyEvolve
Tree
p132
(dp133
g11
(imyEvolve
Tree
p134
(dp135
g7
I0
sg15
I00
sbsg7
I1
sg16
I01
sg17
g73
sbsg7
I2
sg16
I01
sg17
g57
sbsg16
I00
sg17
g26
sbsg16
I00
sg17
g26
sbsg7
I5
sg16
I01
sg17
g18
sba(imyEvolve
Tree
p136
(dp137
g11
(imyEvolve
Tree
p138
(dp139
g8
(imyEvolve
Tree
p140
(dp141
g8
(imyEvolve
Tree
p142
(dp143
g7
I0
sg15
I00
sbsg7
I1
sg19
(imyEvolve
Tree
p144
(dp145
g7
I0
sg14
F-0.0749424781434147
sg15
I01
sbsg16
I00
sg17
g26
sbsg7
I2
sg19
(imyEvolve
Tree
p146
(dp147
g8
(imyEvolve
Tree
p148
(dp149
g7
I0
sg14
F4.875160664368265
sg15
I01
sbsg7
I1
sg19
(imyEvolve
Tree
p150
(dp151
g7
I0
sg15
I00
sbsg16
I00
sg17
g64
sbsg16
I00
sg17
g26
sbsg7
I3
sg16
I01
sg17
g48
sba(imyEvolve
Tree
p152
(dp153
g8
(imyEvolve
Tree
p154
(dp155
g11
(imyEvolve
Tree
p156
(dp157
g11
(imyEvolve
Tree
p158
(dp159
g7
I0
sg15
I00
sbsg7
I1
sg16
I01
sg17
g57
sbsg7
I2
sg16
I01
sg17
g48
sbsg7
I3
sg19
(imyEvolve
Tree
p160
(dp161
g11
(imyEvolve
Tree
p162
(dp163
g8
(imyEvolve
Tree
p164
(dp165
g7
I0
sg15
I00
sbsg7
I1
sg19
(imyEvolve
Tree
p166
(dp167
g7
I0
sg15
I00
sbsg16
I00
sg17
g47
sbsg7
I2
sg16
I01
sg17
g48
sbsg16
I00
sg17
g26
sba(imyEvolve
Tree
p168
(dp169
g8
(imyEvolve
Tree
p170
(dp171
g8
(imyEvolve
Tree
p172
(dp173
g7
I0
sg14
F-0.8599608241347321
sg15
I01
sbsg7
I1
sg19
(imyEvolve
Tree
p174
(dp175
g7
I0
sg14
F-2.8794523240010372
sg15
I01
sbsg16
I00
sg17
g26
sbsg7
I2
sg19
(imyEvolve
Tree
p176
(dp177
g11
(imyEvolve
Tree
p178
(dp179
g7
I0
sg15
I00
sbsg7
I1
sg16
I01
sg17
g18
sbsg16
I00
sg17
g26
sba(imyEvolve
Tree
p180
(dp181
g11
(imyEvolve
Tree
p182
(dp183
g8
(imyEvolve
Tree
p184
(dp185
g11
(imyEvolve
Tree
p186
(dp187
g8
(imyEvolve
Tree
p188
(dp189
g7
I0
sg14
F-3.5783751244498108
sg15
I01
sbsg7
I1
sg19
(imyEvolve
Tree
p190
(dp191
g7
I0
sg14
F2.6726658889832677
sg15
I01
sbsg16
I00
sg17
g47
sbsg7
I2
sg16
I01
sg17
g57
sbsg7
I3
sg19
(imyEvolve
Tree
p192
(dp193
g11
(imyEvolve
Tree
p194
(dp195
g11
(imyEvolve
Tree
p196
(dp197
g7
I0
sg15
I00
sbsg7
I1
sg16
I01
sg17
g18
sbsg7
I2
sg16
I01
sg17
g18
sbsg16
I00
sg17
g26
sbsg7
I4
sg16
I01
sg17
g48
sba(imyEvolve
Tree
p198
(dp199
g11
(imyEvolve
Tree
p200
(dp201
g8
(imyEvolve
Tree
p202
(dp203
g11
(imyEvolve
Tree
p204
(dp205
g8
(imyEvolve
Tree
p206
(dp207
g8
(imyEvolve
Tree
p208
(dp209
g7
I0
sg15
I00
sbsg7
I1
sg19
(imyEvolve
Tree
p210
(dp211
g7
I0
sg14
F-0.06953895828225054
sg15
I01
sbsg16
I00
sg17
g26
sbsg7
I2
sg19
(imyEvolve
Tree
p212
(dp213
g11
(imyEvolve
Tree
p214
(dp215
g7
I0
sg15
I00
sbsg7
I1
sg16
I01
sg17
g48
sbsg16
I00
sg17
g47
sbsg7
I3
sg16
I01
sg17
g57
sbsg7
I4
sg19
(imyEvolve
Tree
p216
(dp217
g11
(imyEvolve
Tree
p218
(dp219
g8
(imyEvolve
Tree
p220
(dp221
g8
(imyEvolve
Tree
p222
(dp223
g7
I0
sg14
F2.48718777464293
sg15
I01
sbsg7
I1
sg19
(imyEvolve
Tree
p224
(dp225
g7
I0
sg14
F2.208156005380709
sg15
I01
sbsg16
I00
sg17
g64
sbsg7
I2
sg19
(imyEvolve
Tree
p226
(dp227
g11
(imyEvolve
Tree
p228
(dp229
g7
I0
sg14
F-1.8756103928723844
sg15
I01
sbsg7
I1
sg16
I01
sg17
g18
sbsg16
I00
sg17
g26
sbsg7
I3
sg16
I01
sg17
g73
sbsg16
I00
sg17
g47
sbsg7
I5
sg16
I01
sg17
g73
sba(imyEvolve
Tree
p230
(dp231
g7
I3
sg8
(imyEvolve
Tree
p232
(dp233
g11
(imyEvolve
Tree
p234
(dp235
g11
(imyEvolve
Tree
p236
(dp237
g7
I0
sg15
I00
sbsg7
I1
sg16
I01
sg17
g73
sbsg7
I2
sg16
I01
sg17
g48
sbsg19
(imyEvolve
Tree
p238
(dp239
g11
(imyEvolve
Tree
p240
(dp241
g11
(imyEvolve
Tree
p242
(dp243
g7
I0
sg15
I00
sbsg7
I1
sg16
I01
sg17
g18
sbsg7
I2
sg16
I01
sg17
g48
sbsg16
I00
sg17
g26
sba(imyEvolve
Tree
p244
(dp245
g8
(imyEvolve
Tree
p246
(dp247
g11
(imyEvolve
Tree
p248
(dp249
g11
(imyEvolve
Tree
p250
(dp251
g11
(imyEvolve
Tree
p252
(dp253
g11
(imyEvolve
Tree
p254
(dp255
g7
I0
sg15
I00
sbsg7
I1
sg16
I01
sg17
g48
sbsg7
I2
sg16
I01
sg17
g18
sbsg7
I3
sg16
I01
sg17
g18
sbsg7
I4
sg16
I01
sg17
g48
sbsg7
I5
sg19
(imyEvolve
Tree
p256
(dp257
g8
(imyEvolve
Tree
p258
(dp259
g8
(imyEvolve
Tree
p260
(dp261
g8
(imyEvolve
Tree
p262
(dp263
g11
(imyEvolve
Tree
p264
(dp265
g7
I0
sg14
F-0.3339038047524001
sg15
I01
sbsg7
I1
sg16
I01
sg17
g57
sbsg7
I2
sg19
(imyEvolve
Tree
p266
(dp267
g11
(imyEvolve
Tree
p268
(dp269
g7
I0
sg15
I00
sbsg7
I1
sg16
I01
sg17
g48
sbsg16
I00
sg17
g26
sbsg7
I3
sg19
(imyEvolve
Tree
p270
(dp271
g11
(imyEvolve
Tree
p272
(dp273
g11
(imyEvolve
Tree
p274
(dp275
g7
I0
sg15
I00
sbsg7
I1
sg16
I01
sg17
g57
sbsg7
I2
sg16
I01
sg17
g57
sbsg16
I00
sg17
g64
sbsg7
I4
sg19
(imyEvolve
Tree
p276
(dp277
g11
(imyEvolve
Tree
p278
(dp279
g8
(imyEvolve
Tree
p280
(dp281
g8
(imyEvolve
Tree
p282
(dp283
g7
I0
sg15
I00
sbsg7
I1
sg19
(imyEvolve
Tree
p284
(dp285
g7
I0
sg15
I00
sbsg16
I00
sg17
g26
sbsg7
I2
sg19
(imyEvolve
Tree
p286
(dp287
g11
(imyEvolve
Tree
p288
(dp289
g7
I0
sg15
I00
sbsg7
I1
sg16
I01
sg17
g18
sbsg16
I00
sg17
g47
sbsg7
I3
sg16
I01
sg17
g48
sbsg16
I00
sg17
g26
sbsg16
I00
sg17
g64
sba(imyEvolve
Tree
p290
(dp291
g11
(imyEvolve
Tree
p292
(dp293
g8
(imyEvolve
Tree
p294
(dp295
g8
(imyEvolve
Tree
p296
(dp297
g11
(imyEvolve
Tree
p298
(dp299
g7
I0
sg15
I00
sbsg7
I1
sg16
I01
sg17
g18
sbsg7
I2
sg19
(imyEvolve
Tree
p300
(dp301
g11
(imyEvolve
Tree
p302
(dp303
g7
I0
sg14
F1.7539509873770154
sg15
I01
sbsg7
I1
sg16
I01
sg17
g57
sbsg16
I00
sg17
g47
sbsg7
I3
sg19
(imyEvolve
Tree
p304
(dp305
g11
(imyEvolve
Tree
p306
(dp307
g8
(imyEvolve
Tree
p308
(dp309
g7
I0
sg15
I00
sbsg7
I1
sg19
(imyEvolve
Tree
p310
(dp311
g7
I0
sg15
I00
sbsg16
I00
sg17
g26
sbsg7
I2
sg16
I01
sg17
g57
sbsg16
I00
sg17
g26
sbsg7
I4
sg16
I01
sg17
g18
sba(imyEvolve
Tree
p312
(dp313
g11
(imyEvolve
Tree
p314
(dp315
g11
(imyEvolve
Tree
p316
(dp317
g11
(imyEvolve
Tree
p318
(dp319
g11
(imyEvolve
Tree
p320
(dp321
g7
I0
sg15
I00
sbsg7
I1
sg16
I01
sg17
g57
sbsg7
I2
sg16
I01
sg17
g73
sbsg7
I3
sg16
I01
sg17
g18
sbsg7
I4
sg16
I01
sg17
g73
sbaa(lp322
(imyEvolve
Tree
p323
(dp324
g8
(imyEvolve
Tree
p325
(dp326
g8
(imyEvolve
Tree
p327
(dp328
g8
(imyEvolve
Tree
p329
(dp330
g11
(imyEvolve
Tree
p331
(dp332
g7
I0
sg15
I00
sbsg7
I1
sg16
I01
sg17
g57
sbsg7
I2
sg19
(imyEvolve
Tree
p333
(dp334
g8
(imyEvolve
Tree
p335
(dp336
g7
I0
sg14
F2.7425479563792976
sg15
I01
sbsg7
I1
sg19
(imyEvolve
Tree
p337
(dp338
g7
I0
sg14
F-3.292245874052284
sg15
I01
sbsg16
I00
sg17
g47
sbsg16
I00
sg17
g47
sbsg7
I3
sg19
(imyEvolve
Tree
p339
(dp340
g8
(imyEvolve
Tree
p341
(dp342
g8
(imyEvolve
Tree
p343
(dp344
g7
I0
sg14
F-0.8385714682470624
sg15
I01
sbsg7
I1
sg19
(imyEvolve
Tree
p345
(dp346
g7
I0
sg15
I00
sbsg16
I00
sg17
g64
sbsg7
I2
sg19
(imyEvolve
Tree
p347
(dp348
g11
(imyEvolve
Tree
p349
(dp350
g7
I0
sg15
I00
sbsg7
I1
sg16
I01
sg17
g48
sbsg16
I00
sg17
g26
sbsg16
I00
sg17
g26
sbsg7
I4
sg19
(imyEvolve
Tree
p351
(dp352
g11
(imyEvolve
Tree
p353
(dp354
g8
(imyEvolve
Tree
p355
(dp356
g8
(imyEvolve
Tree
p357
(dp358
g7
I0
sg15
I00
sbsg7
I1
sg19
(imyEvolve
Tree
p359
(dp360
g7
I0
sg15
I00
sbsg16
I00
sg17
g64
sbsg7
I2
sg19
(imyEvolve
Tree
p361
(dp362
g8
(imyEvolve
Tree
p363
(dp364
g7
I0
sg15
I00
sbsg7
I1
sg19
(imyEvolve
Tree
p365
(dp366
g7
I0
sg14
F3.758704124851013
sg15
I01
sbsg16
I00
sg17
g26
sbsg16
I00
sg17
g26
sbsg7
I3
sg16
I01
sg17
g57
sbsg16
I00
sg17
g64
sba(imyEvolve
Tree
p367
(dp368
g11
(imyEvolve
Tree
p369
(dp370
g11
(imyEvolve
Tree
p371
(dp372
g7
I0
sg14
F4.321177834217041
sg15
I01
sbsg7
I1
sg16
I01
sg17
g48
sbsg7
I2
sg16
I01
sg17
g73
sba(imyEvolve
Tree
p373
(dp374
g11
(imyEvolve
Tree
p375
(dp376
g8
(imyEvolve
Tree
p377
(dp378
g11
(imyEvolve
Tree
p379
(dp380
g11
(imyEvolve
Tree
p381
(dp382
g7
I0
sg15
I00
sbsg7
I1
sg16
I01
sg17
g48
sbsg7
I2
sg16
I01
sg17
g57
sbsg7
I3
sg19
(imyEvolve
Tree
p383
(dp384
g11
(imyEvolve
Tree
p385
(dp386
g11
(imyEvolve
Tree
p387
(dp388
g7
I0
sg15
I00
sbsg7
I1
sg16
I01
sg17
g18
sbsg7
I2
sg16
I01
sg17
g48
sbsg16
I00
sg17
g47
sbsg7
I4
sg16
I01
sg17
g18
sba(imyEvolve
Tree
p389
(dp390
g11
(imyEvolve
Tree
p391
(dp392
g7
I4
sg8
(imyEvolve
Tree
p393
(dp394
g7
I3
sg8
(imyEvolve
Tree
p395
(dp396
g11
(imyEvolve
Tree
p397
(dp398
g11
(imyEvolve
Tree
p399
(dp400
g7
I0
sg14
F0.6024230975439036
sg15
I01
sbsg7
I1
sg16
I01
sg17
g57
sbsg7
I2
sg16
I01
sg17
g48
sbsg19
(imyEvolve
Tree
p401
(dp402
g7
I2
sg8
(imyEvolve
Tree
p403
(dp404
g7
I1
sg8
(imyEvolve
Tree
p405
(dp406
g7
I0
sg14
F-4.749350762036927
sg15
I01
sbsg19
(imyEvolve
Tree
p407
(dp408
g7
I0
sg14
F4.927824673446237
sg15
I01
sbsg16
I00
sg17
g26
sbsg19
(imyEvolve
Tree
p409
(dp410
g11
(imyEvolve
Tree
p411
(dp412
g7
I0
sg15
I00
sbsg7
I1
sg16
I01
sg17
g48
sbsg16
I00
sg17
g26
sbsg16
I00
sg17
g26
sbsg19
(imyEvolve
Tree
p413
(dp414
g7
I3
sg8
(imyEvolve
Tree
p415
(dp416
g7
I2
sg8
(imyEvolve
Tree
p417
(dp418
g7
I1
sg8
(imyEvolve
Tree
p419
(dp420
g7
I0
sg14
F0.6383119379898883
sg15
I01
sbsg19
(imyEvolve
Tree
p421
(dp422
g7
I0
sg14
F0.17451619000200402
sg15
I01
sbsg16
I00
sg17
g26
sbsg19
(imyEvolve
Tree
p423
(dp424
g7
I1
sg8
(imyEvolve
Tree
p425
(dp426
g7
I0
sg15
I00
sbsg19
(imyEvolve
Tree
p427
(dp428
g7
I0
sg15
I00
sbsg16
I00
sg17
g64
sbsg16
I00
sg17
g47
sbsg19
(imyEvolve
Tree
p429
(dp430
g7
I2
sg8
(imyEvolve
Tree
p431
(dp432
g7
I1
sg8
(imyEvolve
Tree
p433
(dp434
g7
I0
sg15
I00
sbsg19
(imyEvolve
Tree
p435
(dp436
g7
I0
sg15
I00
sbsg16
I00
sg17
g64
sbsg19
(imyEvolve
Tree
p437
(dp438
g7
I1
sg8
(imyEvolve
Tree
p439
(dp440
g7
I0
sg14
F0.33949049922422603
sg15
I01
sbsg19
(imyEvolve
Tree
p441
(dp442
g7
I0
sg14
F-3.0663741796898822
sg15
I01
sbsg16
I00
sg17
g26
sbsg16
I00
sg17
g47
sbsg16
I00
sg17
g26
sbsg16
I00
sg17
g47
sbsg7
I5
sg16
I01
sg17
g73
sba(imyEvolve
Tree
p443
(dp444
g7
I5
sg8
(imyEvolve
Tree
p445
(dp446
g11
(imyEvolve
Tree
p447
(dp448
g11
(imyEvolve
Tree
p449
(dp450
g7
I2
sg8
(imyEvolve
Tree
p451
(dp452
g7
I1
sg8
(imyEvolve
Tree
p453
(dp454
g7
I0
sg15
I00
sbsg19
(imyEvolve
Tree
p455
(dp456
g7
I0
sg15
I00
sbsg16
I00
sg17
g64
sbsg19
(imyEvolve
Tree
p457
(dp458
g11
(imyEvolve
Tree
p459
(dp460
g7
I0
sg14
F0.2849197371694858
sg15
I01
sbsg7
I1
sg16
I01
sg17
g48
sbsg16
I00
sg17
g47
sbsg7
I3
sg16
I01
sg17
g48
sbsg7
I4
sg16
I01
sg17
g48
sbsg19
(imyEvolve
Tree
p461
(dp462
g7
I4
sg8
(imyEvolve
Tree
p463
(dp464
g11
(imyEvolve
Tree
p465
(dp466
g7
I2
sg8
(imyEvolve
Tree
p467
(dp468
g7
I1
sg8
(imyEvolve
Tree
p469
(dp470
g7
I0
sg14
F4.157504305308933
sg15
I01
sbsg19
(imyEvolve
Tree
p471
(dp472
g7
I0
sg15
I00
sbsg16
I00
sg17
g26
sbsg19
(imyEvolve
Tree
p473
(dp474
g7
I1
sg8
(imyEvolve
Tree
p475
(dp476
g7
I0
sg15
I00
sbsg19
(imyEvolve
Tree
p477
(dp478
g7
I0
sg14
F-1.0020972601872105
sg15
I01
sbsg16
I00
sg17
g26
sbsg16
I00
sg17
g64
sbsg7
I3
sg16
I01
sg17
g48
sbsg19
(imyEvolve
Tree
p479
(dp480
g7
I3
sg8
(imyEvolve
Tree
p481
(dp482
g11
(imyEvolve
Tree
p483
(dp484
g11
(imyEvolve
Tree
p485
(dp486
g7
I0
sg15
I00
sbsg7
I1
sg16
I01
sg17
g73
sbsg7
I2
sg16
I01
sg17
g73
sbsg19
(imyEvolve
Tree
p487
(dp488
g11
(imyEvolve
Tree
p489
(dp490
g11
(imyEvolve
Tree
p491
(dp492
g7
I0
sg15
I00
sbsg7
I1
sg16
I01
sg17
g48
sbsg7
I2
sg16
I01
sg17
g73
sbsg16
I00
sg17
g64
sbsg16
I00
sg17
g47
sbsg16
I00
sg17
g47
sba(imyEvolve
Tree
p493
(dp494
g11
(imyEvolve
Tree
p495
(dp496
g11
(imyEvolve
Tree
p497
(dp498
g8
(imyEvolve
Tree
p499
(dp500
g11
(imyEvolve
Tree
p501
(dp502
g8
(imyEvolve
Tree
p503
(dp504
g7
I0
sg15
I00
sbsg7
I1
sg19
(imyEvolve
Tree
p505
(dp506
g7
I0
sg15
I00
sbsg16
I00
sg17
g26
sbsg7
I2
sg16
I01
sg17
g48
sbsg7
I3
sg19
(imyEvolve
Tree
p507
(dp508
g11
(imyEvolve
Tree
p509
(dp510
g11
(imyEvolve
Tree
p511
(dp512
g7
I0
sg15
I00
sbsg7
I1
sg16
I01
sg17
g57
sbsg7
I2
sg16
I01
sg17
g48
sbsg16
I00
sg17
g26
sbsg7
I4
sg16
I01
sg17
g18
sbsg7
I5
sg16
I01
sg17
g18
sba(imyEvolve
Tree
p513
(dp514
g8
(imyEvolve
Tree
p515
(dp516
g11
(imyEvolve
Tree
p517
(dp518
g11
(imyEvolve
Tree
p519
(dp520
g7
I0
sg14
F1.1680864695411666
sg15
I01
sbsg7
I1
sg16
I01
sg17
g73
sbsg7
I2
sg16
I01
sg17
g57
sbsg7
I3
sg19
(imyEvolve
Tree
p521
(dp522
g11
(imyEvolve
Tree
p523
(dp524
g11
(imyEvolve
Tree
p525
(dp526
g7
I0
sg15
I00
sbsg7
I1
sg16
I01
sg17
g18
sbsg7
I2
sg16
I01
sg17
g73
sbsg16
I00
sg17
g26
sba(imyEvolve
Tree
p527
(dp528
g11
(imyEvolve
Tree
p529
(dp530
g11
(imyEvolve
Tree
p531
(dp532
g11
(imyEvolve
Tree
p533
(dp534
g7
I1
sg8
(imyEvolve
Tree
p535
(dp536
g7
I0
sg14
F-4.753443888755829
sg15
I01
sbsg19
(imyEvolve
Tree
p537
(dp538
g7
I0
sg14
F-1.2360639869910797
sg15
I01
sbsg16
I00
sg17
g26
sbsg7
I2
sg16
I01
sg17
g57
sbsg7
I3
sg16
I01
sg17
g48
sbsg7
I4
sg16
I01
sg17
g57
sba(imyEvolve
Tree
p539
(dp540
g7
I2
sg8
(imyEvolve
Tree
p541
(dp542
g11
(imyEvolve
Tree
p543
(dp544
g7
I0
sg14
F-3.834671076145609
sg15
I01
sbsg7
I1
sg16
I01
sg17
g57
sbsg19
(imyEvolve
Tree
p545
(dp546
g7
I1
sg8
(imyEvolve
Tree
p547
(dp548
g7
I0
sg14
F4.822993841907415
sg15
I01
sbsg19
(imyEvolve
Tree
p549
(dp550
g7
I0
sg14
F-0.021696720745874032
sg15
I01
sbsg16
I00
sg17
g64
sbsg16
I00
sg17
g26
sba(imyEvolve
Tree
p551
(dp552
g8
(imyEvolve
Tree
p553
(dp554
g8
(imyEvolve
Tree
p555
(dp556
g8
(imyEvolve
Tree
p557
(dp558
g11
(imyEvolve
Tree
p559
(dp560
g7
I0
sg15
I00
sbsg7
I1
sg16
I01
sg17
g57
sbsg7
I2
sg19
(imyEvolve
Tree
p561
(dp562
g11
(imyEvolve
Tree
p563
(dp564
g7
I0
sg15
I00
sbsg7
I1
sg16
I01
sg17
g48
sbsg16
I00
sg17
g64
sbsg7
I3
sg19
(imyEvolve
Tree
p565
(dp566
g8
(imyEvolve
Tree
p567
(dp568
g8
(imyEvolve
Tree
p569
(dp570
g7
I0
sg14
F4.589783532565184
sg15
I01
sbsg7
I1
sg19
(imyEvolve
Tree
p571
(dp572
g7
I0
sg14
F4.506355044068233
sg15
I01
sbsg16
I00
sg17
g26
sbsg7
I2
sg19
(imyEvolve
Tree
p573
(dp574
g8
(imyEvolve
Tree
p575
(dp576
g7
I0
sg14
F0.3966439209885406
sg15
I01
sbsg7
I1
sg19
(imyEvolve
Tree
p577
(dp578
g7
I0
sg14
F-1.1413834172911197
sg15
I01
sbsg16
I00
sg17
g26
sbsg16
I00
sg17
g26
sbsg16
I00
sg17
g26
sbsg7
I4
sg19
(imyEvolve
Tree
p579
(dp580
g11
(imyEvolve
Tree
p581
(dp582
g8
(imyEvolve
Tree
p583
(dp584
g8
(imyEvolve
Tree
p585
(dp586
g7
I0
sg15
I00
sbsg7
I1
sg19
(imyEvolve
Tree
p587
(dp588
g7
I0
sg15
I00
sbsg16
I00
sg17
g64
sbsg7
I2
sg19
(imyEvolve
Tree
p589
(dp590
g8
(imyEvolve
Tree
p591
(dp592
g7
I0
sg14
F-4.176226819191146
sg15
I01
sbsg7
I1
sg19
(imyEvolve
Tree
p593
(dp594
g7
I0
sg14
F-3.072843717746844
sg15
I01
sbsg16
I00
sg17
g64
sbsg16
I00
sg17
g64
sbsg7
I3
sg16
I01
sg17
g57
sbsg16
I00
sg17
g47
sba(imyEvolve
Tree
p595
(dp596
g11
(imyEvolve
Tree
p597
(dp598
g11
(imyEvolve
Tree
p599
(dp600
g7
I1
sg8
(imyEvolve
Tree
p601
(dp602
g7
I0
sg14
F4.794949650168597
sg15
I01
sbsg19
(imyEvolve
Tree
p603
(dp604
g7
I0
sg14
F-1.4931112069285546
sg15
I01
sbsg16
I00
sg17
g64
sbsg7
I2
sg16
I01
sg17
g57
sbsg7
I3
sg16
I01
sg17
g73
sba(imyEvolve
Tree
p605
(dp606
g8
(imyEvolve
Tree
p607
(dp608
g11
(imyEvolve
Tree
p609
(dp610
g8
(imyEvolve
Tree
p611
(dp612
g7
I0
sg14
F2.321494126619731
sg15
I01
sbsg7
I1
sg19
(imyEvolve
Tree
p613
(dp614
g7
I0
sg15
I00
sbsg16
I00
sg17
g47
sbsg7
I2
sg16
I01
sg17
g57
sbsg7
I3
sg19
(imyEvolve
Tree
p615
(dp616
g8
(imyEvolve
Tree
p617
(dp618
g8
(imyEvolve
Tree
p619
(dp620
g7
I0
sg14
F4.146970879339333
sg15
I01
sbsg7
I1
sg19
(imyEvolve
Tree
p621
(dp622
g7
I0
sg15
I00
sbsg16
I00
sg17
g26
sbsg7
I2
sg19
(imyEvolve
Tree
p623
(dp624
g8
(imyEvolve
Tree
p625
(dp626
g7
I0
sg15
I00
sbsg7
I1
sg19
(imyEvolve
Tree
p627
(dp628
g7
I0
sg15
I00
sbsg16
I00
sg17
g64
sbsg16
I00
sg17
g64
sbsg16
I00
sg17
g47
sba(imyEvolve
Tree
p629
(dp630
g11
(imyEvolve
Tree
p631
(dp632
g8
(imyEvolve
Tree
p633
(dp634
g11
(imyEvolve
Tree
p635
(dp636
g8
(imyEvolve
Tree
p637
(dp638
g8
(imyEvolve
Tree
p639
(dp640
g7
I0
sg14
F0.5511436931047857
sg15
I01
sbsg7
I1
sg19
(imyEvolve
Tree
p641
(dp642
g7
I0
sg14
F-2.5696910390620054
sg15
I01
sbsg16
I00
sg17
g26
sbsg7
I2
sg19
(imyEvolve
Tree
p643
(dp644
g11
(imyEvolve
Tree
p645
(dp646
g7
I0
sg14
F-0.5505085284148006
sg15
I01
sbsg7
I1
sg16
I01
sg17
g57
sbsg16
I00
sg17
g26
sbsg7
I3
sg16
I01
sg17
g57
sbsg7
I4
sg19
(imyEvolve
Tree
p647
(dp648
g11
(imyEvolve
Tree
p649
(dp650
g8
(imyEvolve
Tree
p651
(dp652
g8
(imyEvolve
Tree
p653
(dp654
g7
I0
sg15
I00
sbsg7
I1
sg19
(imyEvolve
Tree
p655
(dp656
g7
I0
sg14
F1.4226051635491297
sg15
I01
sbsg16
I00
sg17
g26
sbsg7
I2
sg19
(imyEvolve
Tree
p657
(dp658
g11
(imyEvolve
Tree
p659
(dp660
g7
I0
sg14
F-0.5949524360961753
sg15
I01
sbsg7
I1
sg16
I01
sg17
g18
sbsg16
I00
sg17
g64
sbsg7
I3
sg16
I01
sg17
g73
sbsg16
I00
sg17
g64
sbsg7
I5
sg16
I01
sg17
g73
sba(imyEvolve
Tree
p661
(dp662
g11
(imyEvolve
Tree
p663
(dp664
g11
(imyEvolve
Tree
p665
(dp666
g8
(imyEvolve
Tree
p667
(dp668
g11
(imyEvolve
Tree
p669
(dp670
g11
(imyEvolve
Tree
p671
(dp672
g7
I0
sg14
F-4.505645658621526
sg15
I01
sbsg7
I1
sg16
I01
sg17
g18
sbsg7
I2
sg16
I01
sg17
g73
sbsg7
I3
sg19
(imyEvolve
Tree
p673
(dp674
g11
(imyEvolve
Tree
p675
(dp676
g11
(imyEvolve
Tree
p677
(dp678
g7
I0
sg14
F1.5873823350209388
sg15
I01
sbsg7
I1
sg16
I01
sg17
g57
sbsg7
I2
sg16
I01
sg17
g18
sbsg16
I00
sg17
g47
sbsg7
I4
sg16
I01
sg17
g18
sbsg7
I5
sg16
I01
sg17
g73
sba(imyEvolve
Tree
p679
(dp680
g11
(imyEvolve
Tree
p681
(dp682
g7
I2
sg8
(imyEvolve
Tree
p683
(dp684
g11
(imyEvolve
Tree
p685
(dp686
g7
I0
sg15
I00
sbsg7
I1
sg16
I01
sg17
g73
sbsg19
(imyEvolve
Tree
p687
(dp688
g11
(imyEvolve
Tree
p689
(dp690
g7
I0
sg14
F2.3722069836714264
sg15
I01
sbsg7
I1
sg16
I01
sg17
g57
sbsg16
I00
sg17
g26
sbsg7
I3
sg16
I01
sg17
g57
sba(imyEvolve
Tree
p691
(dp692
g11
(imyEvolve
Tree
p693
(dp694
g11
(imyEvolve
Tree
p695
(dp696
g11
(imyEvolve
Tree
p697
(dp698
g7
I1
sg8
(imyEvolve
Tree
p699
(dp700
g7
I0
sg14
F-1.374825342724736
sg15
I01
sbsg19
(imyEvolve
Tree
p701
(dp702
g7
I0
sg14
F1.590753343968502
sg15
I01
sbsg16
I00
sg17
g64
sbsg7
I2
sg16
I01
sg17
g57
sbsg7
I3
sg16
I01
sg17
g48
sbsg7
I4
sg16
I01
sg17
g73
sbaa(lp703
(imyEvolve
Tree
p704
(dp705
g11
(imyEvolve
Tree
p706
(dp707
g8
(imyEvolve
Tree
p708
(dp709
g7
I0
sg15
I00
sbsg7
I1
sg19
(imyEvolve
Tree
p710
(dp711
g7
I0
sg14
F-3.143835399766617
sg15
I01
sbsg16
I00
sg17
g64
sbsg7
I2
sg16
I01
sg17
g57
sba(imyEvolve
Tree
p712
(dp713
g8
(imyEvolve
Tree
p714
(dp715
g8
(imyEvolve
Tree
p716
(dp717
g11
(imyEvolve
Tree
p718
(dp719
g8
(imyEvolve
Tree
p720
(dp721
g7
I0
sg14
F4.823466157757888
sg15
I01
sbsg7
I1
sg19
(imyEvolve
Tree
p722
(dp723
g7
I0
sg14
F3.8941421413643713
sg15
I01
sbsg16
I00
sg17
g26
sbsg7
I2
sg16
I01
sg17
g57
sbsg7
I3
sg19
(imyEvolve
Tree
p724
(dp725
g8
(imyEvolve
Tree
p726
(dp727
g8
(imyEvolve
Tree
p728
(dp729
g7
I0
sg14
F1.6769526554327472
sg15
I01
sbsg7
I1
sg19
(imyEvolve
Tree
p730
(dp731
g7
I0
sg15
I00
sbsg16
I00
sg17
g47
sbsg7
I2
sg19
(imyEvolve
Tree
p732
(dp733
g8
(imyEvolve
Tree
p734
(dp735
g7
I0
sg14
F-4.316563486242328
sg15
I01
sbsg7
I1
sg19
(imyEvolve
Tree
p736
(dp737
g7
I0
sg15
I00
sbsg16
I00
sg17
g26
sbsg16
I00
sg17
g47
sbsg16
I00
sg17
g26
sbsg7
I4
sg19
(imyEvolve
Tree
p738
(dp739
g8
(imyEvolve
Tree
p740
(dp741
g11
(imyEvolve
Tree
p742
(dp743
g11
(imyEvolve
Tree
p744
(dp745
g7
I0
sg14
F0.02888294946121661
sg15
I01
sbsg7
I1
sg16
I01
sg17
g73
sbsg7
I2
sg16
I01
sg17
g18
sbsg7
I3
sg19
(imyEvolve
Tree
p746
(dp747
g8
(imyEvolve
Tree
p748
(dp749
g11
(imyEvolve
Tree
p750
(dp751
g7
I0
sg15
I00
sbsg7
I1
sg16
I01
sg17
g73
sbsg7
I2
sg19
(imyEvolve
Tree
p752
(dp753
g8
(imyEvolve
Tree
p754
(dp755
g7
I0
sg14
F4.457041230329866
sg15
I01
sbsg7
I1
sg19
(imyEvolve
Tree
p756
(dp757
g7
I0
sg14
F-4.75218491494917
sg15
I01
sbsg16
I00
sg17
g64
sbsg16
I00
sg17
g26
sbsg16
I00
sg17
g47
sbsg16
I00
sg17
g26
sba(imyEvolve
Tree
p758
(dp759
g8
(imyEvolve
Tree
p760
(dp761
g8
(imyEvolve
Tree
p762
(dp763
g8
(imyEvolve
Tree
p764
(dp765
g11
(imyEvolve
Tree
p766
(dp767
g7
I0
sg15
I00
sbsg7
I1
sg16
I01
sg17
g57
sbsg7
I2
sg19
(imyEvolve
Tree
p768
(dp769
g8
(imyEvolve
Tree
p770
(dp771
g7
I0
sg14
F-1.8699062492470464
sg15
I01
sbsg7
I1
sg19
(imyEvolve
Tree
p772
(dp773
g7
I0
sg15
I00
sbsg16
I00
sg17
g47
sbsg16
I00
sg17
g64
sbsg7
I3
sg19
(imyEvolve
Tree
p774
(dp775
g8
(imyEvolve
Tree
p776
(dp777
g11
(imyEvolve
Tree
p778
(dp779
g7
I0
sg14
F-0.9706739731235059
sg15
I01
sbsg7
I1
sg16
I01
sg17
g48
sbsg7
I2
sg19
(imyEvolve
Tree
p780
(dp781
g8
(imyEvolve
Tree
p782
(dp783
g7
I0
sg14
F-1.2260746446701107
sg15
I01
sbsg7
I1
sg19
(imyEvolve
Tree
p784
(dp785
g7
I0
sg15
I00
sbsg16
I00
sg17
g64
sbsg16
I00
sg17
g47
sbsg16
I00
sg17
g64
sbsg7
I4
sg19
(imyEvolve
Tree
p786
(dp787
g8
(imyEvolve
Tree
p788
(dp789
g8
(imyEvolve
Tree
p790
(dp791
g11
(imyEvolve
Tree
p792
(dp793
g7
I0
sg14
F-4.53896893297225
sg15
I01
sbsg7
I1
sg16
I01
sg17
g73
sbsg7
I2
sg19
(imyEvolve
Tree
p794
(dp795
g8
(imyEvolve
Tree
p796
(dp797
g7
I0
sg14
F3.450327230920987
sg15
I01
sbsg7
I1
sg19
(imyEvolve
Tree
p798
(dp799
g7
I0
sg15
I00
sbsg16
I00
sg17
g26
sbsg16
I00
sg17
g47
sbsg7
I3
sg19
(imyEvolve
Tree
p800
(dp801
g11
(imyEvolve
Tree
p802
(dp803
g8
(imyEvolve
Tree
p804
(dp805
g7
I0
sg15
I00
sbsg7
I1
sg19
(imyEvolve
Tree
p806
(dp807
g7
I0
sg14
F-2.9796109169103016
sg15
I01
sbsg16
I00
sg17
g26
sbsg7
I2
sg16
I01
sg17
g18
sbsg16
I00
sg17
g47
sbsg16
I00
sg17
g64
sba(imyEvolve
Tree
p808
(dp809
g11
(imyEvolve
Tree
p810
(dp811
g11
(imyEvolve
Tree
p812
(dp813
g8
(imyEvolve
Tree
p814
(dp815
g11
(imyEvolve
Tree
p816
(dp817
g7
I0
sg14
F-4.2858587952288785
sg15
I01
sbsg7
I1
sg16
I01
sg17
g48
sbsg7
I2
sg19
(imyEvolve
Tree
p818
(dp819
g11
(imyEvolve
Tree
p820
(dp821
g7
I0
sg14
F-3.0562177345982713
sg15
I01
sbsg7
I1
sg16
I01
sg17
g48
sbsg16
I00
sg17
g26
sbsg7
I3
sg16
I01
sg17
g48
sbsg7
I4
sg16
I01
sg17
g57
sba(imyEvolve
Tree
p822
(dp823
g8
(imyEvolve
Tree
p824
(dp825
g11
(imyEvolve
Tree
p826
(dp827
g11
(imyEvolve
Tree
p828
(dp829
g8
(imyEvolve
Tree
p830
(dp831
g11
(imyEvolve
Tree
p832
(dp833
g7
I0
sg14
F-2.4735955829724277
sg15
I01
sbsg7
I1
sg16
I01
sg17
g57
sbsg7
I2
sg19
(imyEvolve
Tree
p834
(dp835
g11
(imyEvolve
Tree
p836
(dp837
g7
I0
sg15
I00
sbsg7
I1
sg16
I01
sg17
g57
sbsg16
I00
sg17
g26
sbsg7
I3
sg16
I01
sg17
g73
sbsg7
I4
sg16
I01
sg17
g73
sbsg7
I5
sg19
(imyEvolve
Tree
p838
(dp839
g8
(imyEvolve
Tree
p840
(dp841
g11
(imyEvolve
Tree
p842
(dp843
g11
(imyEvolve
Tree
p844
(dp845
g8
(imyEvolve
Tree
p846
(dp847
g7
I0
sg15
I00
sbsg7
I1
sg19
(imyEvolve
Tree
p848
(dp849
g7
I0
sg15
I00
sbsg16
I00
sg17
g26
sbsg7
I2
sg16
I01
sg17
g18
sbsg7
I3
sg16
I01
sg17
g18
sbsg7
I4
sg19
(imyEvolve
Tree
p850
(dp851
g11
(imyEvolve
Tree
p852
(dp853
g11
(imyEvolve
Tree
p854
(dp855
g11
(imyEvolve
Tree
p856
(dp857
g7
I0
sg15
I00
sbsg7
I1
sg16
I01
sg17
g73
sbsg7
I2
sg16
I01
sg17
g18
sbsg7
I3
sg16
I01
sg17
g73
sbsg16
I00
sg17
g64
sbsg16
I00
sg17
g64
sba(imyEvolve
Tree
p858
(dp859
g11
(imyEvolve
Tree
p860
(dp861
g11
(imyEvolve
Tree
p862
(dp863
g8
(imyEvolve
Tree
p864
(dp865
g8
(imyEvolve
Tree
p866
(dp867
g11
(imyEvolve
Tree
p868
(dp869
g7
I0
sg15
I00
sbsg7
I1
sg16
I01
sg17
g48
sbsg7
I2
sg19
(imyEvolve
Tree
p870
(dp871
g8
(imyEvolve
Tree
p872
(dp873
g7
I0
sg15
I00
sbsg7
I1
sg19
(imyEvolve
Tree
p874
(dp875
g7
I0
sg14
F0.729164685032603
sg15
I01
sbsg16
I00
sg17
g47
sbsg16
I00
sg17
g47
sbsg7
I3
sg19
(imyEvolve
Tree
p876
(dp877
g8
(imyEvolve
Tree
p878
(dp879
g8
(imyEvolve
Tree
p880
(dp881
g7
I0
sg15
I00
sbsg7
I1
sg19
(imyEvolve
Tree
p882
(dp883
g7
I0
sg14
F-1.5172239541471209
sg15
I01
sbsg16
I00
sg17
g64
sbsg7
I2
sg19
(imyEvolve
Tree
p884
(dp885
g8
(imyEvolve
Tree
p886
(dp887
g7
I0
sg15
I00
sbsg7
I1
sg19
(imyEvolve
Tree
p888
(dp889
g7
I0
sg15
I00
sbsg16
I00
sg17
g64
sbsg16
I00
sg17
g26
sbsg16
I00
sg17
g64
sbsg7
I4
sg16
I01
sg17
g18
sbsg7
I5
sg16
I01
sg17
g18
sba(imyEvolve
Tree
p890
(dp891
g7
I4
sg8
(imyEvolve
Tree
p892
(dp893
g7
I3
sg8
(imyEvolve
Tree
p894
(dp895
g7
I2
sg8
(imyEvolve
Tree
p896
(dp897
g11
(imyEvolve
Tree
p898
(dp899
g7
I0
sg14
F-1.2021929237459905
sg15
I01
sbsg7
I1
sg16
I01
sg17
g73
sbsg19
(imyEvolve
Tree
p900
(dp901
g7
I1
sg8
(imyEvolve
Tree
p902
(dp903
g7
I0
sg14
F3.432624770949378
sg15
I01
sbsg19
(imyEvolve
Tree
p904
(dp905
g7
I0
sg15
I00
sbsg16
I00
sg17
g26
sbsg16
I00
sg17
g47
sbsg19
(imyEvolve
Tree
p906
(dp907
g7
I2
sg8
(imyEvolve
Tree
p908
(dp909
g7
I1
sg8
(imyEvolve
Tree
p910
(dp911
g7
I0
sg14
F-2.556207079886171
sg15
I01
sbsg19
(imyEvolve
Tree
p912
(dp913
g7
I0
sg14
F-4.543189559797299
sg15
I01
sbsg16
I00
sg17
g47
sbsg19
(imyEvolve
Tree
p914
(dp915
g11
(imyEvolve
Tree
p916
(dp917
g7
I0
sg14
F-1.1423839943009098
sg15
I01
sbsg7
I1
sg16
I01
sg17
g48
sbsg16
I00
sg17
g64
sbsg16
I00
sg17
g26
sbsg19
(imyEvolve
Tree
p918
(dp919
g7
I3
sg8
(imyEvolve
Tree
p920
(dp921
g7
I2
sg8
(imyEvolve
Tree
p922
(dp923
g11
(imyEvolve
Tree
p924
(dp925
g7
I0
sg15
I00
sbsg7
I1
sg16
I01
sg17
g48
sbsg19
(imyEvolve
Tree
p926
(dp927
g7
I1
sg8
(imyEvolve
Tree
p928
(dp929
g7
I0
sg15
I00
sbsg19
(imyEvolve
Tree
p930
(dp931
g7
I0
sg15
I00
sbsg16
I00
sg17
g64
sbsg16
I00
sg17
g47
sbsg19
(imyEvolve
Tree
p932
(dp933
g11
(imyEvolve
Tree
p934
(dp935
g11
(imyEvolve
Tree
p936
(dp937
g7
I0
sg14
F3.8388957159528356
sg15
I01
sbsg7
I1
sg16
I01
sg17
g48
sbsg7
I2
sg16
I01
sg17
g48
sbsg16
I00
sg17
g47
sbsg16
I00
sg17
g64
sba(imyEvolve
Tree
p938
(dp939
g11
(imyEvolve
Tree
p940
(dp941
g8
(imyEvolve
Tree
p942
(dp943
g8
(imyEvolve
Tree
p944
(dp945
g8
(imyEvolve
Tree
p946
(dp947
g8
(imyEvolve
Tree
p948
(dp949
g7
I0
sg15
I00
sbsg7
I1
sg19
(imyEvolve
Tree
p950
(dp951
g7
I0
sg15
I00
sbsg16
I00
sg17
g64
sbsg7
I2
sg19
(imyEvolve
Tree
p952
(dp953
g11
(imyEvolve
Tree
p954
(dp955
g7
I0
sg14
F-0.1266730618161951
sg15
I01
sbsg7
I1
sg16
I01
sg17
g73
sbsg16
I00
sg17
g47
sbsg7
I3
sg19
(imyEvolve
Tree
p956
(dp957
g8
(imyEvolve
Tree
p958
(dp959
g11
(imyEvolve
Tree
p960
(dp961
g7
I0
sg15
I00
sbsg7
I1
sg16
I01
sg17
g48
sbsg7
I2
sg19
(imyEvolve
Tree
p962
(dp963
g11
(imyEvolve
Tree
p964
(dp965
g7
I0
sg15
I00
sbsg7
I1
sg16
I01
sg17
g18
sbsg16
I00
sg17
g26
sbsg16
I00
sg17
g47
sbsg7
I4
sg19
(imyEvolve
Tree
p966
(dp967
g11
(imyEvolve
Tree
p968
(dp969
g8
(imyEvolve
Tree
p970
(dp971
g8
(imyEvolve
Tree
p972
(dp973
g7
I0
sg14
F3.382179438546544
sg15
I01
sbsg7
I1
sg19
(imyEvolve
Tree
p974
(dp975
g7
I0
sg15
I00
sbsg16
I00
sg17
g26
sbsg7
I2
sg19
(imyEvolve
Tree
p976
(dp977
g11
(imyEvolve
Tree
p978
(dp979
g7
I0
sg15
I00
sbsg7
I1
sg16
I01
sg17
g57
sbsg16
I00
sg17
g26
sbsg7
I3
sg16
I01
sg17
g57
sbsg16
I00
sg17
g26
sbsg7
I5
sg16
I01
sg17
g57
sba(imyEvolve
Tree
p980
(dp981
g11
(imyEvolve
Tree
p982
(dp983
g11
(imyEvolve
Tree
p984
(dp985
g7
I0
sg14
F-3.798805150816894
sg15
I01
sbsg7
I1
sg16
I01
sg17
g57
sbsg7
I2
sg16
I01
sg17
g18
sba(imyEvolve
Tree
p986
(dp987
g11
(imyEvolve
Tree
p988
(dp989
g8
(imyEvolve
Tree
p990
(dp991
g8
(imyEvolve
Tree
p992
(dp993
g8
(imyEvolve
Tree
p994
(dp995
g7
I0
sg14
F-2.2020377599557364
sg15
I01
sbsg7
I1
sg19
(imyEvolve
Tree
p996
(dp997
g7
I0
sg14
F-3.6271580895520272
sg15
I01
sbsg16
I00
sg17
g47
sbsg7
I2
sg19
(imyEvolve
Tree
p998
(dp999
g11
(imyEvolve
Tree
p1000
(dp1001
g7
I0
sg14
F-2.5733513684643325
sg15
I01
sbsg7
I1
sg16
I01
sg17
g48
sbsg16
I00
sg17
g26
sbsg7
I3
sg19
(imyEvolve
Tree
p1002
(dp1003
g11
(imyEvolve
Tree
p1004
(dp1005
g11
(imyEvolve
Tree
p1006
(dp1007
g7
I0
sg15
I00
sbsg7
I1
sg16
I01
sg17
g48
sbsg7
I2
sg16
I01
sg17
g48
sbsg16
I00
sg17
g47
sbsg7
I4
sg16
I01
sg17
g18
sba(imyEvolve
Tree
p1008
(dp1009
g8
(imyEvolve
Tree
p1010
(dp1011
g8
(imyEvolve
Tree
p1012
(dp1013
g11
(imyEvolve
Tree
p1014
(dp1015
g11
(imyEvolve
Tree
p1016
(dp1017
g8
(imyEvolve
Tree
p1018
(dp1019
g7
I0
sg15
I00
sbsg7
I1
sg19
(imyEvolve
Tree
p1020
(dp1021
g7
I0
sg14
F1.6948851448311286
sg15
I01
sbsg16
I00
sg17
g26
sbsg7
I2
sg16
I01
sg17
g73
sbsg7
I3
sg16
I01
sg17
g73
sbsg7
I4
sg19
(imyEvolve
Tree
p1022
(dp1023
g11
(imyEvolve
Tree
p1024
(dp1025
g8
(imyEvolve
Tree
p1026
(dp1027
g8
(imyEvolve
Tree
p1028
(dp1029
g7
I0
sg15
I00
sbsg7
I1
sg19
(imyEvolve
Tree
p1030
(dp1031
g7
I0
sg14
F2.8962963575390654
sg15
I01
sbsg16
I00
sg17
g47
sbsg7
I2
sg19
(imyEvolve
Tree
p1032
(dp1033
g11
(imyEvolve
Tree
p1034
(dp1035
g7
I0
sg15
I00
sbsg7
I1
sg16
I01
sg17
g73
sbsg16
I00
sg17
g47
sbsg7
I3
sg16
I01
sg17
g57
sbsg16
I00
sg17
g64
sbsg7
I5
sg19
(imyEvolve
Tree
p1036
(dp1037
g11
(imyEvolve
Tree
p1038
(dp1039
g11
(imyEvolve
Tree
p1040
(dp1041
g11
(imyEvolve
Tree
p1042
(dp1043
g8
(imyEvolve
Tree
p1044
(dp1045
g7
I0
sg15
I00
sbsg7
I1
sg19
(imyEvolve
Tree
p1046
(dp1047
g7
I0
sg14
F-0.700644468669327
sg15
I01
sbsg16
I00
sg17
g47
sbsg7
I2
sg16
I01
sg17
g57
sbsg7
I3
sg16
I01
sg17
g18
sbsg7
I4
sg16
I01
sg17
g18
sbsg16
I00
sg17
g64
sba(imyEvolve
Tree
p1048
(dp1049
g8
(imyEvolve
Tree
p1050
(dp1051
g8
(imyEvolve
Tree
p1052
(dp1053
g11
(imyEvolve
Tree
p1054
(dp1055
g11
(imyEvolve
Tree
p1056
(dp1057
g8
(imyEvolve
Tree
p1058
(dp1059
g7
I0
sg14
F-2.2569961067032542
sg15
I01
sbsg7
I1
sg19
(imyEvolve
Tree
p1060
(dp1061
g7
I0
sg14
F0.983202839378766
sg15
I01
sbsg16
I00
sg17
g47
sbsg7
I2
sg16
I01
sg17
g57
sbsg7
I3
sg16
I01
sg17
g48
sbsg7
I4
sg19
(imyEvolve
Tree
p1062
(dp1063
g8
(imyEvolve
Tree
p1064
(dp1065
g11
(imyEvolve
Tree
p1066
(dp1067
g8
(imyEvolve
Tree
p1068
(dp1069
g7
I0
sg15
I00
sbsg7
I1
sg19
(imyEvolve
Tree
p1070
(dp1071
g7
I0
sg14
F-4.167047866100276
sg15
I01
sbsg16
I00
sg17
g64
sbsg7
I2
sg16
I01
sg17
g48
sbsg7
I3
sg19
(imyEvolve
Tree
p1072
(dp1073
g8
(imyEvolve
Tree
p1074
(dp1075
g11
(imyEvolve
Tree
p1076
(dp1077
g7
I0
sg15
I00
sbsg7
I1
sg16
I01
sg17
g73
sbsg7
I2
sg19
(imyEvolve
Tree
p1078
(dp1079
g8
(imyEvolve
Tree
p1080
(dp1081
g7
I0
sg15
I00
sbsg7
I1
sg19
(imyEvolve
Tree
p1082
(dp1083
g7
I0
sg15
I00
sbsg16
I00
sg17
g64
sbsg16
I00
sg17
g47
sbsg16
I00
sg17
g47
sbsg16
I00
sg17
g26
sbsg7
I5
sg19
(imyEvolve
Tree
p1084
(dp1085
g11
(imyEvolve
Tree
p1086
(dp1087
g8
(imyEvolve
Tree
p1088
(dp1089
g8
(imyEvolve
Tree
p1090
(dp1091
g8
(imyEvolve
Tree
p1092
(dp1093
g7
I0
sg15
I00
sbsg7
I1
sg19
(imyEvolve
Tree
p1094
(dp1095
g7
I0
sg14
F0.6559586929472481
sg15
I01
sbsg16
I00
sg17
g47
sbsg7
I2
sg19
(imyEvolve
Tree
p1096
(dp1097
g11
(imyEvolve
Tree
p1098
(dp1099
g7
I0
sg15
I00
sbsg7
I1
sg16
I01
sg17
g48
sbsg16
I00
sg17
g26
sbsg7
I3
sg19
(imyEvolve
Tree
p1100
(dp1101
g8
(imyEvolve
Tree
p1102
(dp1103
g11
(imyEvolve
Tree
p1104
(dp1105
g7
I0
sg15
I00
sbsg7
I1
sg16
I01
sg17
g57
sbsg7
I2
sg19
(imyEvolve
Tree
p1106
(dp1107
g11
(imyEvolve
Tree
p1108
(dp1109
g7
I0
sg15
I00
sbsg7
I1
sg16
I01
sg17
g57
sbsg16
I00
sg17
g47
sbsg16
I00
sg17
g64
sbsg7
I4
sg16
I01
sg17
g73
sbsg16
I00
sg17
g64
sba(imyEvolve
Tree
p1110
(dp1111
g11
(imyEvolve
Tree
p1112
(dp1113
g11
(imyEvolve
Tree
p1114
(dp1115
g8
(imyEvolve
Tree
p1116
(dp1117
g7
I0
sg14
F2.650198664160575
sg15
I01
sbsg7
I1
sg19
(imyEvolve
Tree
p1118
(dp1119
g7
I0
sg14
F1.7648769827781745
sg15
I01
sbsg16
I00
sg17
g26
sbsg7
I2
sg16
I01
sg17
g57
sbsg7
I3
sg16
I01
sg17
g57
sbaasS'alpha'
p1120
F0.006081428776862099
sS'fitness'
p1121
cnumpy.core.multiarray
scalar
p1122
(cnumpy
dtype
p1123
(S'f8'
p1124
I0
I1
tp1125
Rp1126
(I3
S'<'
p1127
NNNI-1
I-1
I0
tp1128
bS'\x00\xf8(\\\x1f#K?'
p1129
tp1130
Rp1131
sS'weightSharing'
p1132
(lp1133
I00
asS'fitnessValid'
p1134
I00
sS'resolution'
p1135
I100
sb.