(imyEvolve
Individual
p0
(dp1
S'funcs'
p2
(lp3
(lp4
(imyEvolve
Tree
p5
(dp6
S'below'
p7
(imyEvolve
Tree
p8
(dp9
g7
(imyEvolve
Tree
p10
(dp11
S'depth'
p12
I0
sS'isConstant'
p13
I00
sbsg12
I1
sS'single'
p14
I01
sS'op'
p15
cmyEvolve
square
p16
sbsg12
I2
sg14
I01
sg15
cmyEvolve
absSqrt
p17
sba(imyEvolve
Tree
p18
(dp19
g7
(imyEvolve
Tree
p20
(dp21
g12
I3
sS'left'
p22
(imyEvolve
Tree
p23
(dp24
g12
I2
sg22
(imyEvolve
Tree
p25
(dp26
g12
I1
sg22
(imyEvolve
Tree
p27
(dp28
g12
I0
sS'constant'
p29
F1.9076940281493169
sg13
I01
sbsS'right'
p30
(imyEvolve
Tree
p31
(dp32
g12
I0
sg13
I00
sbsg14
I00
sg15
coperator
sub
p33
sbsg30
(imyEvolve
Tree
p34
(dp35
g12
I1
sg22
(imyEvolve
Tree
p36
(dp37
g12
I0
sg13
I00
sbsg30
(imyEvolve
Tree
p38
(dp39
g12
I0
sg13
I00
sbsg14
I00
sg15
g33
sbsg14
I00
sg15
coperator
add
p40
sbsg30
(imyEvolve
Tree
p41
(dp42
g7
(imyEvolve
Tree
p43
(dp44
g12
I1
sg22
(imyEvolve
Tree
p45
(dp46
g12
I0
sg13
I00
sbsg30
(imyEvolve
Tree
p47
(dp48
g12
I0
sg29
F4.354774951966702
sg13
I01
sbsg14
I00
sg15
g40
sbsg12
I2
sg14
I01
sg15
g16
sbsg14
I00
sg15
g33
sbsg12
I4
sg14
I01
sg15
g16
sba(imyEvolve
Tree
p49
(dp50
g7
(imyEvolve
Tree
p51
(dp52
g12
I1
sg22
(imyEvolve
Tree
p53
(dp54
g12
I0
sg29
F-0.8441973371337772
sg13
I01
sbsg30
(imyEvolve
Tree
p55
(dp56
g12
I0
sg13
I00
sbsg14
I00
sg15
g40
sbsg12
I2
sg14
I01
sg15
g17
sba(imyEvolve
Tree
p57
(dp58
g7
(imyEvolve
Tree
p59
(dp60
g7
(imyEvolve
Tree
p61
(dp62
g7
(imyEvolve
Tree
p63
(dp64
g12
I0
sg29
F4.5634638214569545
sg13
I01
sbsg12
I1
sg14
I01
sg15
cmath
sin
p65
sbsg12
I2
sg14
I01
sg15
g16
sbsg12
I3
sg14
I01
sg15
g65
sba(imyEvolve
Tree
p66
(dp67
g12
I3
sg22
(imyEvolve
Tree
p68
(dp69
g12
I2
sg22
(imyEvolve
Tree
p70
(dp71
g12
I1
sg22
(imyEvolve
Tree
p72
(dp73
g12
I0
sg29
F4.469544834022809
sg13
I01
sbsg30
(imyEvolve
Tree
p74
(dp75
g12
I0
sg13
I00
sbsg14
I00
sg15
coperator
mul
p76
sbsg30
(imyEvolve
Tree
p77
(dp78
g12
I1
sg22
(imyEvolve
Tree
p79
(dp80
g12
I0
sg29
F-4.715075346540182
sg13
I01
sbsg30
(imyEvolve
Tree
p81
(dp82
g12
I0
sg29
F4.630528720311572
sg13
I01
sbsg14
I00
sg15
g40
sbsg14
I00
sg15
g76
sbsg30
(imyEvolve
Tree
p83
(dp84
g7
(imyEvolve
Tree
p85
(dp86
g7
(imyEvolve
Tree
p87
(dp88
g12
I0
sg29
F-4.9554031879498295
sg13
I01
sbsg12
I1
sg14
I01
sg15
g65
sbsg12
I2
sg14
I01
sg15
cmath
cos
p89
sbsg14
I00
sg15
g40
sba(imyEvolve
Tree
p90
(dp91
g12
I5
sg22
(imyEvolve
Tree
p92
(dp93
g12
I4
sg22
(imyEvolve
Tree
p94
(dp95
g7
(imyEvolve
Tree
p96
(dp97
g7
(imyEvolve
Tree
p98
(dp99
g12
I1
sg22
(imyEvolve
Tree
p100
(dp101
g12
I0
sg13
I00
sbsg30
(imyEvolve
Tree
p102
(dp103
g12
I0
sg13
I00
sbsg14
I00
sg15
g33
sbsg12
I2
sg14
I01
sg15
g17
sbsg12
I3
sg14
I01
sg15
g17
sbsg30
(imyEvolve
Tree
p104
(dp105
g12
I3
sg22
(imyEvolve
Tree
p106
(dp107
g12
I2
sg22
(imyEvolve
Tree
p108
(dp109
g7
(imyEvolve
Tree
p110
(dp111
g12
I0
sg29
F-2.952213646788908
sg13
I01
sbsg12
I1
sg14
I01
sg15
g65
sbsg30
(imyEvolve
Tree
p112
(dp113
g7
(imyEvolve
Tree
p114
(dp115
g12
I0
sg29
F1.6458383611334924
sg13
I01
sbsg12
I1
sg14
I01
sg15
g17
sbsg14
I00
sg15
g76
sbsg30
(imyEvolve
Tree
p116
(dp117
g12
I2
sg22
(imyEvolve
Tree
p118
(dp119
g7
(imyEvolve
Tree
p120
(dp121
g12
I0
sg13
I00
sbsg12
I1
sg14
I01
sg15
g65
sbsg30
(imyEvolve
Tree
p122
(dp123
g12
I1
sg22
(imyEvolve
Tree
p124
(dp125
g12
I0
sg29
F-2.302237617066453
sg13
I01
sbsg30
(imyEvolve
Tree
p126
(dp127
g12
I0
sg29
F-0.09137637306861102
sg13
I01
sbsg14
I00
sg15
g40
sbsg14
I00
sg15
g40
sbsg14
I00
sg15
g33
sbsg14
I00
sg15
g40
sbsg30
(imyEvolve
Tree
p128
(dp129
g12
I4
sg22
(imyEvolve
Tree
p130
(dp131
g12
I3
sg22
(imyEvolve
Tree
p132
(dp133
g7
(imyEvolve
Tree
p134
(dp135
g7
(imyEvolve
Tree
p136
(dp137
g12
I0
sg13
I00
sbsg12
I1
sg14
I01
sg15
g89
sbsg12
I2
sg14
I01
sg15
g16
sbsg30
(imyEvolve
Tree
p138
(dp139
g7
(imyEvolve
Tree
p140
(dp141
g7
(imyEvolve
Tree
p142
(dp143
g12
I0
sg29
F3.9115119755496757
sg13
I01
sbsg12
I1
sg14
I01
sg15
g89
sbsg12
I2
sg14
I01
sg15
g65
sbsg14
I00
sg15
g33
sbsg30
(imyEvolve
Tree
p144
(dp145
g12
I3
sg22
(imyEvolve
Tree
p146
(dp147
g12
I2
sg22
(imyEvolve
Tree
p148
(dp149
g12
I1
sg22
(imyEvolve
Tree
p150
(dp151
g12
I0
sg29
F2.8892423395046185
sg13
I01
sbsg30
(imyEvolve
Tree
p152
(dp153
g12
I0
sg13
I00
sbsg14
I00
sg15
g33
sbsg30
(imyEvolve
Tree
p154
(dp155
g12
I1
sg22
(imyEvolve
Tree
p156
(dp157
g12
I0
sg13
I00
sbsg30
(imyEvolve
Tree
p158
(dp159
g12
I0
sg29
F1.747579944103732
sg13
I01
sbsg14
I00
sg15
g76
sbsg14
I00
sg15
g76
sbsg30
(imyEvolve
Tree
p160
(dp161
g12
I2
sg22
(imyEvolve
Tree
p162
(dp163
g12
I1
sg22
(imyEvolve
Tree
p164
(dp165
g12
I0
sg29
F4.677472651934828
sg13
I01
sbsg30
(imyEvolve
Tree
p166
(dp167
g12
I0
sg29
F3.6222496636919406
sg13
I01
sbsg14
I00
sg15
g76
sbsg30
(imyEvolve
Tree
p168
(dp169
g7
(imyEvolve
Tree
p170
(dp171
g12
I0
sg13
I00
sbsg12
I1
sg14
I01
sg15
g17
sbsg14
I00
sg15
g33
sbsg14
I00
sg15
g40
sbsg14
I00
sg15
g40
sbsg14
I00
sg15
g33
sba(imyEvolve
Tree
p172
(dp173
g12
I3
sg22
(imyEvolve
Tree
p174
(dp175
g12
I2
sg22
(imyEvolve
Tree
p176
(dp177
g12
I1
sg22
(imyEvolve
Tree
p178
(dp179
g12
I0
sg13
I00
sbsg30
(imyEvolve
Tree
p180
(dp181
g12
I0
sg29
F-4.241467078385382
sg13
I01
sbsg14
I00
sg15
g33
sbsg30
(imyEvolve
Tree
p182
(dp183
g12
I1
sg22
(imyEvolve
Tree
p184
(dp185
g12
I0
sg29
F2.37971949809367
sg13
I01
sbsg30
(imyEvolve
Tree
p186
(dp187
g12
I0
sg13
I00
sbsg14
I00
sg15
g40
sbsg14
I00
sg15
g33
sbsg30
(imyEvolve
Tree
p188
(dp189
g7
(imyEvolve
Tree
p190
(dp191
g7
(imyEvolve
Tree
p192
(dp193
g12
I0
sg29
F-1.2777390988333934
sg13
I01
sbsg12
I1
sg14
I01
sg15
g89
sbsg12
I2
sg14
I01
sg15
g16
sbsg14
I00
sg15
g76
sba(imyEvolve
Tree
p194
(dp195
g7
(imyEvolve
Tree
p196
(dp197
g7
(imyEvolve
Tree
p198
(dp199
g12
I0
sg13
I00
sbsg12
I1
sg14
I01
sg15
g89
sbsg12
I2
sg14
I01
sg15
g65
sba(imyEvolve
Tree
p200
(dp201
g12
I4
sg22
(imyEvolve
Tree
p202
(dp203
g7
(imyEvolve
Tree
p204
(dp205
g7
(imyEvolve
Tree
p206
(dp207
g12
I1
sg22
(imyEvolve
Tree
p208
(dp209
g12
I0
sg13
I00
sbsg30
(imyEvolve
Tree
p210
(dp211
g12
I0
sg13
I00
sbsg14
I00
sg15
g33
sbsg12
I2
sg14
I01
sg15
g89
sbsg12
I3
sg14
I01
sg15
g89
sbsg30
(imyEvolve
Tree
p212
(dp213
g7
(imyEvolve
Tree
p214
(dp215
g7
(imyEvolve
Tree
p216
(dp217
g12
I1
sg22
(imyEvolve
Tree
p218
(dp219
g12
I0
sg29
F2.95484038766305
sg13
I01
sbsg30
(imyEvolve
Tree
p220
(dp221
g12
I0
sg13
I00
sbsg14
I00
sg15
g33
sbsg12
I2
sg14
I01
sg15
g16
sbsg12
I3
sg14
I01
sg15
g89
sbsg14
I00
sg15
g33
sba(imyEvolve
Tree
p222
(dp223
g12
I5
sg22
(imyEvolve
Tree
p224
(dp225
g12
I4
sg22
(imyEvolve
Tree
p226
(dp227
g7
(imyEvolve
Tree
p228
(dp229
g12
I2
sg22
(imyEvolve
Tree
p230
(dp231
g7
(imyEvolve
Tree
p232
(dp233
g12
I0
sg29
F-0.6568418238065643
sg13
I01
sbsg12
I1
sg14
I01
sg15
g65
sbsg30
(imyEvolve
Tree
p234
(dp235
g12
I1
sg22
(imyEvolve
Tree
p236
(dp237
g12
I0
sg29
F1.6074221593552203
sg13
I01
sbsg30
(imyEvolve
Tree
p238
(dp239
g12
I0
sg29
F1.193395837759848
sg13
I01
sbsg14
I00
sg15
g40
sbsg14
I00
sg15
g33
sbsg12
I3
sg14
I01
sg15
g16
sbsg30
(imyEvolve
Tree
p240
(dp241
g12
I3
sg22
(imyEvolve
Tree
p242
(dp243
g12
I2
sg22
(imyEvolve
Tree
p244
(dp245
g12
I1
sg22
(imyEvolve
Tree
p246
(dp247
g12
I0
sg13
I00
sbsg30
(imyEvolve
Tree
p248
(dp249
g12
I0
sg29
F-1.0102779116608218
sg13
I01
sbsg14
I00
sg15
g33
sbsg30
(imyEvolve
Tree
p250
(dp251
g7
(imyEvolve
Tree
p252
(dp253
g12
I0
sg29
F1.6236706331832877
sg13
I01
sbsg12
I1
sg14
I01
sg15
g65
sbsg14
I00
sg15
g76
sbsg30
(imyEvolve
Tree
p254
(dp255
g12
I2
sg22
(imyEvolve
Tree
p256
(dp257
g7
(imyEvolve
Tree
p258
(dp259
g12
I0
sg29
F3.3836855034298488
sg13
I01
sbsg12
I1
sg14
I01
sg15
g16
sbsg30
(imyEvolve
Tree
p260
(dp261
g12
I1
sg22
(imyEvolve
Tree
p262
(dp263
g12
I0
sg29
F-4.495432373552907
sg13
I01
sbsg30
(imyEvolve
Tree
p264
(dp265
g12
I0
sg13
I00
sbsg14
I00
sg15
g40
sbsg14
I00
sg15
g33
sbsg14
I00
sg15
g76
sbsg14
I00
sg15
g76
sbsg30
(imyEvolve
Tree
p266
(dp267
g7
(imyEvolve
Tree
p268
(dp269
g12
I3
sg22
(imyEvolve
Tree
p270
(dp271
g7
(imyEvolve
Tree
p272
(dp273
g7
(imyEvolve
Tree
p274
(dp275
g12
I0
sg13
I00
sbsg12
I1
sg14
I01
sg15
g16
sbsg12
I2
sg14
I01
sg15
g16
sbsg30
(imyEvolve
Tree
p276
(dp277
g7
(imyEvolve
Tree
p278
(dp279
g12
I1
sg22
(imyEvolve
Tree
p280
(dp281
g12
I0
sg13
I00
sbsg30
(imyEvolve
Tree
p282
(dp283
g12
I0
sg13
I00
sbsg14
I00
sg15
g40
sbsg12
I2
sg14
I01
sg15
g17
sbsg14
I00
sg15
g40
sbsg12
I4
sg14
I01
sg15
g17
sbsg14
I00
sg15
g33
sba(imyEvolve
Tree
p284
(dp285
g7
(imyEvolve
Tree
p286
(dp287
g7
(imyEvolve
Tree
p288
(dp289
g12
I0
sg13
I00
sbsg12
I1
sg14
I01
sg15
g16
sbsg12
I2
sg14
I01
sg15
g17
sba(imyEvolve
Tree
p290
(dp291
g12
I3
sg22
(imyEvolve
Tree
p292
(dp293
g7
(imyEvolve
Tree
p294
(dp295
g12
I1
sg22
(imyEvolve
Tree
p296
(dp297
g12
I0
sg29
F-3.817336426144421
sg13
I01
sbsg30
(imyEvolve
Tree
p298
(dp299
g12
I0
sg13
I00
sbsg14
I00
sg15
g33
sbsg12
I2
sg14
I01
sg15
g89
sbsg30
(imyEvolve
Tree
p300
(dp301
g12
I2
sg22
(imyEvolve
Tree
p302
(dp303
g12
I1
sg22
(imyEvolve
Tree
p304
(dp305
g12
I0
sg13
I00
sbsg30
(imyEvolve
Tree
p306
(dp307
g12
I0
sg29
F3.018380030191288
sg13
I01
sbsg14
I00
sg15
g76
sbsg30
(imyEvolve
Tree
p308
(dp309
g12
I1
sg22
(imyEvolve
Tree
p310
(dp311
g12
I0
sg29
F0.8769052636292187
sg13
I01
sbsg30
(imyEvolve
Tree
p312
(dp313
g12
I0
sg29
F0.8184182358307677
sg13
I01
sbsg14
I00
sg15
g33
sbsg14
I00
sg15
g76
sbsg14
I00
sg15
g76
sba(imyEvolve
Tree
p314
(dp315
g12
I2
sg22
(imyEvolve
Tree
p316
(dp317
g7
(imyEvolve
Tree
p318
(dp319
g12
I0
sg13
I00
sbsg12
I1
sg14
I01
sg15
g16
sbsg30
(imyEvolve
Tree
p320
(dp321
g12
I1
sg22
(imyEvolve
Tree
p322
(dp323
g12
I0
sg29
F4.578003429194704
sg13
I01
sbsg30
(imyEvolve
Tree
p324
(dp325
g12
I0
sg29
F4.173123582811595
sg13
I01
sbsg14
I00
sg15
g33
sbsg14
I00
sg15
g33
sba(imyEvolve
Tree
p326
(dp327
g12
I3
sg22
(imyEvolve
Tree
p328
(dp329
g7
(imyEvolve
Tree
p330
(dp331
g7
(imyEvolve
Tree
p332
(dp333
g12
I0
sg13
I00
sbsg12
I1
sg14
I01
sg15
g17
sbsg12
I2
sg14
I01
sg15
g16
sbsg30
(imyEvolve
Tree
p334
(dp335
g12
I2
sg22
(imyEvolve
Tree
p336
(dp337
g7
(imyEvolve
Tree
p338
(dp339
g12
I0
sg29
F-4.305888599686037
sg13
I01
sbsg12
I1
sg14
I01
sg15
g89
sbsg30
(imyEvolve
Tree
p340
(dp341
g12
I1
sg22
(imyEvolve
Tree
p342
(dp343
g12
I0
sg29
F3.4464528268996997
sg13
I01
sbsg30
(imyEvolve
Tree
p344
(dp345
g12
I0
sg29
F-2.9640556602107795
sg13
I01
sbsg14
I00
sg15
g76
sbsg14
I00
sg15
g76
sbsg14
I00
sg15
g40
sba(imyEvolve
Tree
p346
(dp347
g12
I3
sg22
(imyEvolve
Tree
p348
(dp349
g7
(imyEvolve
Tree
p350
(dp351
g12
I1
sg22
(imyEvolve
Tree
p352
(dp353
g12
I0
sg13
I00
sbsg30
(imyEvolve
Tree
p354
(dp355
g12
I0
sg29
F-3.8982849670884647
sg13
I01
sbsg14
I00
sg15
g76
sbsg12
I2
sg14
I01
sg15
g89
sbsg30
(imyEvolve
Tree
p356
(dp357
g12
I2
sg22
(imyEvolve
Tree
p358
(dp359
g12
I1
sg22
(imyEvolve
Tree
p360
(dp361
g12
I0
sg13
I00
sbsg30
(imyEvolve
Tree
p362
(dp363
g12
I0
sg29
F-2.092358117797083
sg13
I01
sbsg14
I00
sg15
g76
sbsg30
(imyEvolve
Tree
p364
(dp365
g7
(imyEvolve
Tree
p366
(dp367
g12
I0
sg29
F-3.755582194023517
sg13
I01
sbsg12
I1
sg14
I01
sg15
g89
sbsg14
I00
sg15
g33
sbsg14
I00
sg15
g76
sba(imyEvolve
Tree
p368
(dp369
g7
(imyEvolve
Tree
p370
(dp371
g12
I4
sg22
(imyEvolve
Tree
p372
(dp373
g12
I3
sg22
(imyEvolve
Tree
p374
(dp375
g7
(imyEvolve
Tree
p376
(dp377
g12
I1
sg22
(imyEvolve
Tree
p378
(dp379
g12
I0
sg29
F-1.3140616718720532
sg13
I01
sbsg30
(imyEvolve
Tree
p380
(dp381
g12
I0
sg13
I00
sbsg14
I00
sg15
g76
sbsg12
I2
sg14
I01
sg15
g89
sbsg30
(imyEvolve
Tree
p382
(dp383
g12
I2
sg22
(imyEvolve
Tree
p384
(dp385
g7
(imyEvolve
Tree
p386
(dp387
g12
I0
sg29
F4.362133604654089
sg13
I01
sbsg12
I1
sg14
I01
sg15
g17
sbsg30
(imyEvolve
Tree
p388
(dp389
g12
I1
sg22
(imyEvolve
Tree
p390
(dp391
g12
I0
sg13
I00
sbsg30
(imyEvolve
Tree
p392
(dp393
g12
I0
sg29
F2.4417497561112427
sg13
I01
sbsg14
I00
sg15
g40
sbsg14
I00
sg15
g33
sbsg14
I00
sg15
g76
sbsg30
(imyEvolve
Tree
p394
(dp395
g12
I3
sg22
(imyEvolve
Tree
p396
(dp397
g7
(imyEvolve
Tree
p398
(dp399
g12
I1
sg22
(imyEvolve
Tree
p400
(dp401
g12
I0
sg13
I00
sbsg30
(imyEvolve
Tree
p402
(dp403
g12
I0
sg29
F1.2885591671940633
sg13
I01
sbsg14
I00
sg15
g33
sbsg12
I2
sg14
I01
sg15
g65
sbsg30
(imyEvolve
Tree
p404
(dp405
g12
I2
sg22
(imyEvolve
Tree
p406
(dp407
g12
I1
sg22
(imyEvolve
Tree
p408
(dp409
g12
I0
sg29
F4.467801370108797
sg13
I01
sbsg30
(imyEvolve
Tree
p410
(dp411
g12
I0
sg29
F-4.057655391341184
sg13
I01
sbsg14
I00
sg15
g40
sbsg30
(imyEvolve
Tree
p412
(dp413
g7
(imyEvolve
Tree
p414
(dp415
g12
I0
sg29
F0.6364217951663695
sg13
I01
sbsg12
I1
sg14
I01
sg15
g89
sbsg14
I00
sg15
g76
sbsg14
I00
sg15
g33
sbsg14
I00
sg15
g33
sbsg12
I5
sg14
I01
sg15
g16
sba(imyEvolve
Tree
p416
(dp417
g12
I5
sg22
(imyEvolve
Tree
p418
(dp419
g12
I4
sg22
(imyEvolve
Tree
p420
(dp421
g12
I3
sg22
(imyEvolve
Tree
p422
(dp423
g7
(imyEvolve
Tree
p424
(dp425
g12
I1
sg22
(imyEvolve
Tree
p426
(dp427
g12
I0
sg29
F-4.647254897840611
sg13
I01
sbsg30
(imyEvolve
Tree
p428
(dp429
g12
I0
sg13
I00
sbsg14
I00
sg15
g33
sbsg12
I2
sg14
I01
sg15
g89
sbsg30
(imyEvolve
Tree
p430
(dp431
g7
(imyEvolve
Tree
p432
(dp433
g7
(imyEvolve
Tree
p434
(dp435
g12
I0
sg13
I00
sbsg12
I1
sg14
I01
sg15
g16
sbsg12
I2
sg14
I01
sg15
g17
sbsg14
I00
sg15
g40
sbsg30
(imyEvolve
Tree
p436
(dp437
g7
(imyEvolve
Tree
p438
(dp439
g12
I2
sg22
(imyEvolve
Tree
p440
(dp441
g7
(imyEvolve
Tree
p442
(dp443
g12
I0
sg29
F-0.12350875163236097
sg13
I01
sbsg12
I1
sg14
I01
sg15
g89
sbsg30
(imyEvolve
Tree
p444
(dp445
g12
I1
sg22
(imyEvolve
Tree
p446
(dp447
g12
I0
sg29
F4.214579152742608
sg13
I01
sbsg30
(imyEvolve
Tree
p448
(dp449
g12
I0
sg29
F3.0733839056185825
sg13
I01
sbsg14
I00
sg15
g40
sbsg14
I00
sg15
g33
sbsg12
I3
sg14
I01
sg15
g16
sbsg14
I00
sg15
g76
sbsg30
(imyEvolve
Tree
p450
(dp451
g12
I4
sg22
(imyEvolve
Tree
p452
(dp453
g12
I3
sg22
(imyEvolve
Tree
p454
(dp455
g7
(imyEvolve
Tree
p456
(dp457
g12
I1
sg22
(imyEvolve
Tree
p458
(dp459
g12
I0
sg29
F0.15749200637126481
sg13
I01
sbsg30
(imyEvolve
Tree
p460
(dp461
g12
I0
sg13
I00
sbsg14
I00
sg15
g40
sbsg12
I2
sg14
I01
sg15
g16
sbsg30
(imyEvolve
Tree
p462
(dp463
g12
I2
sg22
(imyEvolve
Tree
p464
(dp465
g12
I1
sg22
(imyEvolve
Tree
p466
(dp467
g12
I0
sg29
F3.008288357449075
sg13
I01
sbsg30
(imyEvolve
Tree
p468
(dp469
g12
I0
sg13
I00
sbsg14
I00
sg15
g76
sbsg30
(imyEvolve
Tree
p470
(dp471
g7
(imyEvolve
Tree
p472
(dp473
g12
I0
sg13
I00
sbsg12
I1
sg14
I01
sg15
g65
sbsg14
I00
sg15
g76
sbsg14
I00
sg15
g40
sbsg30
(imyEvolve
Tree
p474
(dp475
g7
(imyEvolve
Tree
p476
(dp477
g7
(imyEvolve
Tree
p478
(dp479
g12
I1
sg22
(imyEvolve
Tree
p480
(dp481
g12
I0
sg29
F-1.4838822180041467
sg13
I01
sbsg30
(imyEvolve
Tree
p482
(dp483
g12
I0
sg29
F4.845858369367189
sg13
I01
sbsg14
I00
sg15
g76
sbsg12
I2
sg14
I01
sg15
g16
sbsg12
I3
sg14
I01
sg15
g65
sbsg14
I00
sg15
g76
sbsg14
I00
sg15
g33
sbaa(lp484
(imyEvolve
Tree
p485
(dp486
g7
(imyEvolve
Tree
p487
(dp488
g7
(imyEvolve
Tree
p489
(dp490
g12
I0
sg13
I00
sbsg12
I1
sg14
I01
sg15
g17
sbsg12
I2
sg14
I01
sg15
g16
sba(imyEvolve
Tree
p491
(dp492
g7
(imyEvolve
Tree
p493
(dp494
g7
(imyEvolve
Tree
p495
(dp496
g12
I0
sg29
F-4.781638124651969
sg13
I01
sbsg12
I1
sg14
I01
sg15
g17
sbsg12
I2
sg14
I01
sg15
g16
sba(imyEvolve
Tree
p497
(dp498
g7
(imyEvolve
Tree
p499
(dp500
g12
I2
sg22
(imyEvolve
Tree
p501
(dp502
g7
(imyEvolve
Tree
p503
(dp504
g12
I0
sg29
F0.6121570026809886
sg13
I01
sbsg12
I1
sg14
I01
sg15
g89
sbsg30
(imyEvolve
Tree
p505
(dp506
g12
I1
sg22
(imyEvolve
Tree
p507
(dp508
g12
I0
sg13
I00
sbsg30
(imyEvolve
Tree
p509
(dp510
g12
I0
sg13
I00
sbsg14
I00
sg15
g40
sbsg14
I00
sg15
g40
sbsg12
I3
sg14
I01
sg15
g65
sba(imyEvolve
Tree
p511
(dp512
g12
I4
sg22
(imyEvolve
Tree
p513
(dp514
g12
I3
sg22
(imyEvolve
Tree
p515
(dp516
g12
I2
sg22
(imyEvolve
Tree
p517
(dp518
g12
I1
sg22
(imyEvolve
Tree
p519
(dp520
g12
I0
sg29
F2.274083692147607
sg13
I01
sbsg30
(imyEvolve
Tree
p521
(dp522
g12
I0
sg29
F2.9337647242751235
sg13
I01
sbsg14
I00
sg15
g76
sbsg30
(imyEvolve
Tree
p523
(dp524
g12
I1
sg22
(imyEvolve
Tree
p525
(dp526
g12
I0
sg13
I00
sbsg30
(imyEvolve
Tree
p527
(dp528
g12
I0
sg13
I00
sbsg14
I00
sg15
g40
sbsg14
I00
sg15
g40
sbsg30
(imyEvolve
Tree
p529
(dp530
g12
I2
sg22
(imyEvolve
Tree
p531
(dp532
g12
I1
sg22
(imyEvolve
Tree
p533
(dp534
g12
I0
sg13
I00
sbsg30
(imyEvolve
Tree
p535
(dp536
g12
I0
sg29
F-1.0737364905022462
sg13
I01
sbsg14
I00
sg15
g33
sbsg30
(imyEvolve
Tree
p537
(dp538
g7
(imyEvolve
Tree
p539
(dp540
g12
I0
sg13
I00
sbsg12
I1
sg14
I01
sg15
g16
sbsg14
I00
sg15
g76
sbsg14
I00
sg15
g40
sbsg30
(imyEvolve
Tree
p541
(dp542
g7
(imyEvolve
Tree
p543
(dp544
g7
(imyEvolve
Tree
p545
(dp546
g7
(imyEvolve
Tree
p547
(dp548
g12
I0
sg29
F-3.334806173026826
sg13
I01
sbsg12
I1
sg14
I01
sg15
g89
sbsg12
I2
sg14
I01
sg15
g16
sbsg12
I3
sg14
I01
sg15
g65
sbsg14
I00
sg15
g76
sba(imyEvolve
Tree
p549
(dp550
g7
(imyEvolve
Tree
p551
(dp552
g12
I3
sg22
(imyEvolve
Tree
p553
(dp554
g7
(imyEvolve
Tree
p555
(dp556
g12
I1
sg22
(imyEvolve
Tree
p557
(dp558
g12
I0
sg29
F0.0017528848593881818
sg13
I01
sbsg30
(imyEvolve
Tree
p559
(dp560
g12
I0
sg29
F2.5177699685243926
sg13
I01
sbsg14
I00
sg15
g33
sbsg12
I2
sg14
I01
sg15
g16
sbsg30
(imyEvolve
Tree
p561
(dp562
g12
I2
sg22
(imyEvolve
Tree
p563
(dp564
g12
I1
sg22
(imyEvolve
Tree
p565
(dp566
g12
I0
sg29
F1.8878575289331962
sg13
I01
sbsg30
(imyEvolve
Tree
p567
(dp568
g12
I0
sg29
F3.4395752094385994
sg13
I01
sbsg14
I00
sg15
g33
sbsg30
(imyEvolve
Tree
p569
(dp570
g7
(imyEvolve
Tree
p571
(dp572
g12
I0
sg13
I00
sbsg12
I1
sg14
I01
sg15
g89
sbsg14
I00
sg15
g33
sbsg14
I00
sg15
g40
sbsg12
I4
sg14
I01
sg15
g89
sba(imyEvolve
Tree
p573
(dp574
g12
I2
sg22
(imyEvolve
Tree
p575
(dp576
g7
(imyEvolve
Tree
p577
(dp578
g12
I0
sg29
F-0.4375404528905493
sg13
I01
sbsg12
I1
sg14
I01
sg15
g17
sbsg30
(imyEvolve
Tree
p579
(dp580
g12
I1
sg22
(imyEvolve
Tree
p581
(dp582
g12
I0
sg13
I00
sbsg30
(imyEvolve
Tree
p583
(dp584
g12
I0
sg29
F0.15538323134471899
sg13
I01
sbsg14
I00
sg15
g33
sbsg14
I00
sg15
g33
sba(imyEvolve
Tree
p585
(dp586
g12
I2
sg22
(imyEvolve
Tree
p587
(dp588
g12
I1
sg22
(imyEvolve
Tree
p589
(dp590
g12
I0
sg29
F-0.22506514581721948
sg13
I01
sbsg30
(imyEvolve
Tree
p591
(dp592
g12
I0
sg13
I00
sbsg14
I00
sg15
g40
sbsg30
(imyEvolve
Tree
p593
(dp594
g12
I1
sg22
(imyEvolve
Tree
p595
(dp596
g12
I0
sg29
F0.2397515773398018
sg13
I01
sbsg30
(imyEvolve
Tree
p597
(dp598
g12
I0
sg13
I00
sbsg14
I00
sg15
g76
sbsg14
I00
sg15
g76
sba(imyEvolve
Tree
p599
(dp600
g7
(imyEvolve
Tree
p601
(dp602
g7
(imyEvolve
Tree
p603
(dp604
g7
(imyEvolve
Tree
p605
(dp606
g12
I0
sg13
I00
sbsg12
I1
sg14
I01
sg15
g65
sbsg12
I2
sg14
I01
sg15
g16
sbsg12
I3
sg14
I01
sg15
g17
sba(imyEvolve
Tree
p607
(dp608
g7
(imyEvolve
Tree
p609
(dp610
g12
I3
sg22
(imyEvolve
Tree
p611
(dp612
g12
I2
sg22
(imyEvolve
Tree
p613
(dp614
g12
I1
sg22
(imyEvolve
Tree
p615
(dp616
g12
I0
sg29
F1.5628631114936997
sg13
I01
sbsg30
(imyEvolve
Tree
p617
(dp618
g12
I0
sg13
I00
sbsg14
I00
sg15
g40
sbsg30
(imyEvolve
Tree
p619
(dp620
g12
I1
sg22
(imyEvolve
Tree
p621
(dp622
g12
I0
sg13
I00
sbsg30
(imyEvolve
Tree
p623
(dp624
g12
I0
sg29
F-2.059558695460184
sg13
I01
sbsg14
I00
sg15
g40
sbsg14
I00
sg15
g40
sbsg30
(imyEvolve
Tree
p625
(dp626
g7
(imyEvolve
Tree
p627
(dp628
g12
I1
sg22
(imyEvolve
Tree
p629
(dp630
g12
I0
sg29
F1.1202658319028913
sg13
I01
sbsg30
(imyEvolve
Tree
p631
(dp632
g12
I0
sg13
I00
sbsg14
I00
sg15
g33
sbsg12
I2
sg14
I01
sg15
g65
sbsg14
I00
sg15
g76
sbsg12
I4
sg14
I01
sg15
g16
sbaasS'weightSharing'
p633
(lp634
I00
aI00
asS'fitnessValid'
p635
I00
sS'fitness'
p636
cnumpy.core.multiarray
scalar
p637
(cnumpy
dtype
p638
(S'f8'
p639
I0
I1
tp640
Rp641
(I3
S'<'
p642
NNNI-1
I-1
I0
tp643
bS'4\xa2\xb4_\xb6-\xe6?'
p644
tp645
Rp646
sS'alpha'
p647
F0.0063129106163755545
sS'resolution'
p648
I41
sb.