(imyEvolve
Individual
p0
(dp1
S'funcs'
p2
(lp3
(lp4
(imyEvolve
Tree
p5
(dp6
S'below'
p7
(imyEvolve
Tree
p8
(dp9
g7
(imyEvolve
Tree
p10
(dp11
S'depth'
p12
I1
sS'left'
p13
(imyEvolve
Tree
p14
(dp15
g12
I0
sS'isConstant'
p16
I00
sbsS'right'
p17
(imyEvolve
Tree
p18
(dp19
g12
I0
sS'constant'
p20
F-0.5019071612012374
sg16
I01
sbsS'single'
p21
I00
sS'op'
p22
coperator
add
p23
sbsg12
I2
sg21
I01
sg22
cmyEvolve
absSqrt
p24
sbsg12
I3
sg21
I01
sg22
cmyEvolve
square
p25
sba(imyEvolve
Tree
p26
(dp27
g13
(imyEvolve
Tree
p28
(dp29
g7
(imyEvolve
Tree
p30
(dp31
g13
(imyEvolve
Tree
p32
(dp33
g12
I0
sg20
F0.23403116206035524
sg16
I01
sbsg12
I1
sg17
(imyEvolve
Tree
p34
(dp35
g12
I0
sg16
I00
sbsg21
I00
sg22
coperator
sub
p36
sbsg12
I2
sg21
I01
sg22
g25
sbsg12
I3
sg17
(imyEvolve
Tree
p37
(dp38
g13
(imyEvolve
Tree
p39
(dp40
g13
(imyEvolve
Tree
p41
(dp42
g12
I0
sg20
F3.5569515997570402
sg16
I01
sbsg12
I1
sg17
(imyEvolve
Tree
p43
(dp44
g12
I0
sg20
F2.219843764454441
sg16
I01
sbsg21
I00
sg22
coperator
mul
p45
sbsg12
I2
sg17
(imyEvolve
Tree
p46
(dp47
g7
(imyEvolve
Tree
p48
(dp49
g12
I0
sg16
I00
sbsg12
I1
sg21
I01
sg22
cmath
sin
p50
sbsg21
I00
sg22
g23
sbsg21
I00
sg22
g36
sba(imyEvolve
Tree
p51
(dp52
g13
(imyEvolve
Tree
p53
(dp54
g13
(imyEvolve
Tree
p55
(dp56
g12
I0
sg16
I00
sbsg12
I1
sg17
(imyEvolve
Tree
p57
(dp58
g12
I0
sg16
I00
sbsg21
I00
sg22
g36
sbsg12
I2
sg17
(imyEvolve
Tree
p59
(dp60
g13
(imyEvolve
Tree
p61
(dp62
g12
I0
sg16
I00
sbsg12
I1
sg17
(imyEvolve
Tree
p63
(dp64
g12
I0
sg20
F1.1997862212991812
sg16
I01
sbsg21
I00
sg22
g45
sbsg21
I00
sg22
g23
sba(imyEvolve
Tree
p65
(dp66
g12
I3
sg13
(imyEvolve
Tree
p67
(dp68
g12
I2
sg13
(imyEvolve
Tree
p69
(dp70
g12
I1
sg13
(imyEvolve
Tree
p71
(dp72
g12
I0
sg16
I00
sbsg17
(imyEvolve
Tree
p73
(dp74
g12
I0
sg16
I00
sbsg21
I00
sg22
g23
sbsg17
(imyEvolve
Tree
p75
(dp76
g12
I1
sg13
(imyEvolve
Tree
p77
(dp78
g12
I0
sg20
F3.19022354078969
sg16
I01
sbsg17
(imyEvolve
Tree
p79
(dp80
g12
I0
sg16
I00
sbsg21
I00
sg22
g36
sbsg21
I00
sg22
g45
sbsg17
(imyEvolve
Tree
p81
(dp82
g7
(imyEvolve
Tree
p83
(dp84
g12
I1
sg13
(imyEvolve
Tree
p85
(dp86
g12
I0
sg20
F-0.9002286496329814
sg16
I01
sbsg17
(imyEvolve
Tree
p87
(dp88
g12
I0
sg20
F-0.34595919719872903
sg16
I01
sbsg21
I00
sg22
g36
sbsg12
I2
sg21
I01
sg22
g25
sbsg21
I00
sg22
g23
sba(imyEvolve
Tree
p89
(dp90
g7
(imyEvolve
Tree
p91
(dp92
g7
(imyEvolve
Tree
p93
(dp94
g12
I0
sg20
F-1.3706023648151944
sg16
I01
sbsg12
I1
sg21
I01
sg22
g50
sbsg12
I2
sg21
I01
sg22
g25
sba(imyEvolve
Tree
p95
(dp96
g13
(imyEvolve
Tree
p97
(dp98
g13
(imyEvolve
Tree
p99
(dp100
g7
(imyEvolve
Tree
p101
(dp102
g12
I0
sg16
I00
sbsg12
I1
sg21
I01
sg22
g24
sbsg12
I2
sg17
(imyEvolve
Tree
p103
(dp104
g13
(imyEvolve
Tree
p105
(dp106
g12
I0
sg20
F1.6357787650675082
sg16
I01
sbsg12
I1
sg17
(imyEvolve
Tree
p107
(dp108
g12
I0
sg16
I00
sbsg21
I00
sg22
g36
sbsg21
I00
sg22
g36
sbsg12
I3
sg17
(imyEvolve
Tree
p109
(dp110
g7
(imyEvolve
Tree
p111
(dp112
g13
(imyEvolve
Tree
p113
(dp114
g12
I0
sg20
F-0.9555988417013017
sg16
I01
sbsg12
I1
sg17
(imyEvolve
Tree
p115
(dp116
g12
I0
sg16
I00
sbsg21
I00
sg22
g36
sbsg12
I2
sg21
I01
sg22
cmath
cos
p117
sbsg21
I00
sg22
g36
sba(imyEvolve
Tree
p118
(dp119
g12
I3
sg13
(imyEvolve
Tree
p120
(dp121
g12
I2
sg13
(imyEvolve
Tree
p122
(dp123
g7
(imyEvolve
Tree
p124
(dp125
g12
I0
sg20
F1.6234861051440763
sg16
I01
sbsg12
I1
sg21
I01
sg22
g24
sbsg17
(imyEvolve
Tree
p126
(dp127
g12
I1
sg13
(imyEvolve
Tree
p128
(dp129
g12
I0
sg20
F4.630939647592594
sg16
I01
sbsg17
(imyEvolve
Tree
p130
(dp131
g12
I0
sg20
F-3.9093490397631547
sg16
I01
sbsg21
I00
sg22
g36
sbsg21
I00
sg22
g45
sbsg17
(imyEvolve
Tree
p132
(dp133
g7
(imyEvolve
Tree
p134
(dp135
g7
(imyEvolve
Tree
p136
(dp137
g12
I0
sg16
I00
sbsg12
I1
sg21
I01
sg22
g24
sbsg12
I2
sg21
I01
sg22
g25
sbsg21
I00
sg22
g36
sba(imyEvolve
Tree
p138
(dp139
g7
(imyEvolve
Tree
p140
(dp141
g7
(imyEvolve
Tree
p142
(dp143
g7
(imyEvolve
Tree
p144
(dp145
g13
(imyEvolve
Tree
p146
(dp147
g7
(imyEvolve
Tree
p148
(dp149
g12
I0
sg20
F-1.5266529772187711
sg16
I01
sbsg12
I1
sg21
I01
sg22
g117
sbsg12
I2
sg17
(imyEvolve
Tree
p150
(dp151
g13
(imyEvolve
Tree
p152
(dp153
g12
I0
sg20
F2.490962801265403
sg16
I01
sbsg12
I1
sg17
(imyEvolve
Tree
p154
(dp155
g12
I0
sg16
I00
sbsg21
I00
sg22
g36
sbsg21
I00
sg22
g23
sbsg12
I3
sg21
I01
sg22
g50
sbsg12
I4
sg21
I01
sg22
g24
sbsg12
I5
sg21
I01
sg22
g24
sba(imyEvolve
Tree
p156
(dp157
g7
(imyEvolve
Tree
p158
(dp159
g7
(imyEvolve
Tree
p160
(dp161
g13
(imyEvolve
Tree
p162
(dp163
g12
I0
sg16
I00
sbsg12
I1
sg17
(imyEvolve
Tree
p164
(dp165
g12
I0
sg20
F0.12237748139200111
sg16
I01
sbsg21
I00
sg22
g45
sbsg12
I2
sg21
I01
sg22
g50
sbsg12
I3
sg21
I01
sg22
g24
sba(imyEvolve
Tree
p166
(dp167
g7
(imyEvolve
Tree
p168
(dp169
g7
(imyEvolve
Tree
p170
(dp171
g7
(imyEvolve
Tree
p172
(dp173
g7
(imyEvolve
Tree
p174
(dp175
g7
(imyEvolve
Tree
p176
(dp177
g12
I0
sg16
I00
sbsg12
I1
sg21
I01
sg22
g117
sbsg12
I2
sg21
I01
sg22
g24
sbsg12
I3
sg21
I01
sg22
g50
sbsg12
I4
sg21
I01
sg22
g24
sbsg12
I5
sg21
I01
sg22
g24
sba(imyEvolve
Tree
p178
(dp179
g7
(imyEvolve
Tree
p180
(dp181
g7
(imyEvolve
Tree
p182
(dp183
g13
(imyEvolve
Tree
p184
(dp185
g12
I0
sg16
I00
sbsg12
I1
sg17
(imyEvolve
Tree
p186
(dp187
g12
I0
sg20
F3.994219386937745
sg16
I01
sbsg21
I00
sg22
g36
sbsg12
I2
sg21
I01
sg22
g50
sbsg12
I3
sg21
I01
sg22
g25
sba(imyEvolve
Tree
p188
(dp189
g13
(imyEvolve
Tree
p190
(dp191
g13
(imyEvolve
Tree
p192
(dp193
g12
I0
sg20
F-1.2994539351659098
sg16
I01
sbsg12
I1
sg17
(imyEvolve
Tree
p194
(dp195
g12
I0
sg20
F-2.5765781421361975
sg16
I01
sbsg21
I00
sg22
g45
sbsg12
I2
sg17
(imyEvolve
Tree
p196
(dp197
g7
(imyEvolve
Tree
p198
(dp199
g12
I0
sg16
I00
sbsg12
I1
sg21
I01
sg22
g117
sbsg21
I00
sg22
g36
sba(imyEvolve
Tree
p200
(dp201
g13
(imyEvolve
Tree
p202
(dp203
g7
(imyEvolve
Tree
p204
(dp205
g7
(imyEvolve
Tree
p206
(dp207
g13
(imyEvolve
Tree
p208
(dp209
g13
(imyEvolve
Tree
p210
(dp211
g12
I0
sg16
I00
sbsg12
I1
sg17
(imyEvolve
Tree
p212
(dp213
g12
I0
sg16
I00
sbsg21
I00
sg22
g36
sbsg12
I2
sg17
(imyEvolve
Tree
p214
(dp215
g13
(imyEvolve
Tree
p216
(dp217
g12
I0
sg20
F4.633644690498791
sg16
I01
sbsg12
I1
sg17
(imyEvolve
Tree
p218
(dp219
g12
I0
sg20
F-1.3904863030402037
sg16
I01
sbsg21
I00
sg22
g45
sbsg21
I00
sg22
g45
sbsg12
I3
sg21
I01
sg22
g50
sbsg12
I4
sg21
I01
sg22
g25
sbsg12
I5
sg17
(imyEvolve
Tree
p220
(dp221
g13
(imyEvolve
Tree
p222
(dp223
g7
(imyEvolve
Tree
p224
(dp225
g7
(imyEvolve
Tree
p226
(dp227
g13
(imyEvolve
Tree
p228
(dp229
g12
I0
sg16
I00
sbsg12
I1
sg17
(imyEvolve
Tree
p230
(dp231
g12
I0
sg16
I00
sbsg21
I00
sg22
g45
sbsg12
I2
sg21
I01
sg22
g24
sbsg12
I3
sg21
I01
sg22
g50
sbsg12
I4
sg17
(imyEvolve
Tree
p232
(dp233
g13
(imyEvolve
Tree
p234
(dp235
g7
(imyEvolve
Tree
p236
(dp237
g7
(imyEvolve
Tree
p238
(dp239
g12
I0
sg20
F2.548957050353157
sg16
I01
sbsg12
I1
sg21
I01
sg22
g50
sbsg12
I2
sg21
I01
sg22
g50
sbsg12
I3
sg17
(imyEvolve
Tree
p240
(dp241
g13
(imyEvolve
Tree
p242
(dp243
g7
(imyEvolve
Tree
p244
(dp245
g12
I0
sg20
F-0.19701794788683635
sg16
I01
sbsg12
I1
sg21
I01
sg22
g25
sbsg12
I2
sg17
(imyEvolve
Tree
p246
(dp247
g13
(imyEvolve
Tree
p248
(dp249
g12
I0
sg16
I00
sbsg12
I1
sg17
(imyEvolve
Tree
p250
(dp251
g12
I0
sg20
F-2.619881128855911
sg16
I01
sbsg21
I00
sg22
g23
sbsg21
I00
sg22
g45
sbsg21
I00
sg22
g45
sbsg21
I00
sg22
g23
sbsg21
I00
sg22
g23
sba(imyEvolve
Tree
p252
(dp253
g7
(imyEvolve
Tree
p254
(dp255
g7
(imyEvolve
Tree
p256
(dp257
g13
(imyEvolve
Tree
p258
(dp259
g7
(imyEvolve
Tree
p260
(dp261
g7
(imyEvolve
Tree
p262
(dp263
g12
I0
sg16
I00
sbsg12
I1
sg21
I01
sg22
g50
sbsg12
I2
sg21
I01
sg22
g25
sbsg12
I3
sg17
(imyEvolve
Tree
p264
(dp265
g13
(imyEvolve
Tree
p266
(dp267
g7
(imyEvolve
Tree
p268
(dp269
g12
I0
sg20
F-4.496614673175651
sg16
I01
sbsg12
I1
sg21
I01
sg22
g24
sbsg12
I2
sg17
(imyEvolve
Tree
p270
(dp271
g7
(imyEvolve
Tree
p272
(dp273
g12
I0
sg16
I00
sbsg12
I1
sg21
I01
sg22
g24
sbsg21
I00
sg22
g36
sbsg21
I00
sg22
g23
sbsg12
I4
sg21
I01
sg22
g50
sbsg12
I5
sg21
I01
sg22
g24
sba(imyEvolve
Tree
p274
(dp275
g13
(imyEvolve
Tree
p276
(dp277
g13
(imyEvolve
Tree
p278
(dp279
g7
(imyEvolve
Tree
p280
(dp281
g13
(imyEvolve
Tree
p282
(dp283
g7
(imyEvolve
Tree
p284
(dp285
g12
I0
sg16
I00
sbsg12
I1
sg21
I01
sg22
g117
sbsg12
I2
sg17
(imyEvolve
Tree
p286
(dp287
g13
(imyEvolve
Tree
p288
(dp289
g12
I0
sg20
F-0.32993897016716645
sg16
I01
sbsg12
I1
sg17
(imyEvolve
Tree
p290
(dp291
g12
I0
sg20
F-2.76741041531153
sg16
I01
sbsg21
I00
sg22
g23
sbsg21
I00
sg22
g23
sbsg12
I3
sg21
I01
sg22
g117
sbsg12
I4
sg17
(imyEvolve
Tree
p292
(dp293
g13
(imyEvolve
Tree
p294
(dp295
g7
(imyEvolve
Tree
p296
(dp297
g7
(imyEvolve
Tree
p298
(dp299
g12
I0
sg16
I00
sbsg12
I1
sg21
I01
sg22
g24
sbsg12
I2
sg21
I01
sg22
g24
sbsg12
I3
sg17
(imyEvolve
Tree
p300
(dp301
g7
(imyEvolve
Tree
p302
(dp303
g7
(imyEvolve
Tree
p304
(dp305
g12
I0
sg20
F0.6165397513670925
sg16
I01
sbsg12
I1
sg21
I01
sg22
g50
sbsg12
I2
sg21
I01
sg22
g24
sbsg21
I00
sg22
g23
sbsg21
I00
sg22
g45
sbsg12
I5
sg17
(imyEvolve
Tree
p306
(dp307
g13
(imyEvolve
Tree
p308
(dp309
g7
(imyEvolve
Tree
p310
(dp311
g13
(imyEvolve
Tree
p312
(dp313
g13
(imyEvolve
Tree
p314
(dp315
g12
I0
sg20
F1.1722639674977833
sg16
I01
sbsg12
I1
sg17
(imyEvolve
Tree
p316
(dp317
g12
I0
sg16
I00
sbsg21
I00
sg22
g36
sbsg12
I2
sg17
(imyEvolve
Tree
p318
(dp319
g13
(imyEvolve
Tree
p320
(dp321
g12
I0
sg20
F-2.5237432323124565
sg16
I01
sbsg12
I1
sg17
(imyEvolve
Tree
p322
(dp323
g12
I0
sg20
F-0.9374002308326759
sg16
I01
sbsg21
I00
sg22
g45
sbsg21
I00
sg22
g23
sbsg12
I3
sg21
I01
sg22
g25
sbsg12
I4
sg17
(imyEvolve
Tree
p324
(dp325
g7
(imyEvolve
Tree
p326
(dp327
g13
(imyEvolve
Tree
p328
(dp329
g7
(imyEvolve
Tree
p330
(dp331
g12
I0
sg20
F-3.9657103343705313
sg16
I01
sbsg12
I1
sg21
I01
sg22
g50
sbsg12
I2
sg17
(imyEvolve
Tree
p332
(dp333
g13
(imyEvolve
Tree
p334
(dp335
g12
I0
sg20
F-4.129501668406897
sg16
I01
sbsg12
I1
sg17
(imyEvolve
Tree
p336
(dp337
g12
I0
sg16
I00
sbsg21
I00
sg22
g36
sbsg21
I00
sg22
g45
sbsg12
I3
sg21
I01
sg22
g25
sbsg21
I00
sg22
g36
sbsg21
I00
sg22
g36
sba(imyEvolve
Tree
p338
(dp339
g7
(imyEvolve
Tree
p340
(dp341
g13
(imyEvolve
Tree
p342
(dp343
g7
(imyEvolve
Tree
p344
(dp345
g7
(imyEvolve
Tree
p346
(dp347
g12
I0
sg20
F4.864363591071934
sg16
I01
sbsg12
I1
sg21
I01
sg22
g117
sbsg12
I2
sg21
I01
sg22
g25
sbsg12
I3
sg17
(imyEvolve
Tree
p348
(dp349
g7
(imyEvolve
Tree
p350
(dp351
g13
(imyEvolve
Tree
p352
(dp353
g12
I0
sg16
I00
sbsg12
I1
sg17
(imyEvolve
Tree
p354
(dp355
g12
I0
sg20
F3.9655982467009014
sg16
I01
sbsg21
I00
sg22
g45
sbsg12
I2
sg21
I01
sg22
g25
sbsg21
I00
sg22
g45
sbsg12
I4
sg21
I01
sg22
g25
sba(imyEvolve
Tree
p356
(dp357
g13
(imyEvolve
Tree
p358
(dp359
g13
(imyEvolve
Tree
p360
(dp361
g7
(imyEvolve
Tree
p362
(dp363
g12
I0
sg20
F-1.5928010025755048
sg16
I01
sbsg12
I1
sg21
I01
sg22
g117
sbsg12
I2
sg17
(imyEvolve
Tree
p364
(dp365
g13
(imyEvolve
Tree
p366
(dp367
g12
I0
sg20
F-0.2856660002625251
sg16
I01
sbsg12
I1
sg17
(imyEvolve
Tree
p368
(dp369
g12
I0
sg20
F4.192145816549843
sg16
I01
sbsg21
I00
sg22
g45
sbsg21
I00
sg22
g36
sbsg12
I3
sg17
(imyEvolve
Tree
p370
(dp371
g13
(imyEvolve
Tree
p372
(dp373
g13
(imyEvolve
Tree
p374
(dp375
g12
I0
sg20
F4.963102354681556
sg16
I01
sbsg12
I1
sg17
(imyEvolve
Tree
p376
(dp377
g12
I0
sg16
I00
sbsg21
I00
sg22
g36
sbsg12
I2
sg17
(imyEvolve
Tree
p378
(dp379
g7
(imyEvolve
Tree
p380
(dp381
g12
I0
sg16
I00
sbsg12
I1
sg21
I01
sg22
g50
sbsg21
I00
sg22
g23
sbsg21
I00
sg22
g23
sba(imyEvolve
Tree
p382
(dp383
g13
(imyEvolve
Tree
p384
(dp385
g13
(imyEvolve
Tree
p386
(dp387
g7
(imyEvolve
Tree
p388
(dp389
g12
I0
sg16
I00
sbsg12
I1
sg21
I01
sg22
g50
sbsg12
I2
sg17
(imyEvolve
Tree
p390
(dp391
g13
(imyEvolve
Tree
p392
(dp393
g12
I0
sg20
F4.1338905392528975
sg16
I01
sbsg12
I1
sg17
(imyEvolve
Tree
p394
(dp395
g12
I0
sg20
F-3.429864847490137
sg16
I01
sbsg21
I00
sg22
g23
sbsg21
I00
sg22
g36
sbsg12
I3
sg17
(imyEvolve
Tree
p396
(dp397
g13
(imyEvolve
Tree
p398
(dp399
g7
(imyEvolve
Tree
p400
(dp401
g12
I0
sg16
I00
sbsg12
I1
sg21
I01
sg22
g25
sbsg12
I2
sg17
(imyEvolve
Tree
p402
(dp403
g13
(imyEvolve
Tree
p404
(dp405
g12
I0
sg16
I00
sbsg12
I1
sg17
(imyEvolve
Tree
p406
(dp407
g12
I0
sg16
I00
sbsg21
I00
sg22
g36
sbsg21
I00
sg22
g36
sbsg21
I00
sg22
g45
sba(imyEvolve
Tree
p408
(dp409
g13
(imyEvolve
Tree
p410
(dp411
g7
(imyEvolve
Tree
p412
(dp413
g13
(imyEvolve
Tree
p414
(dp415
g7
(imyEvolve
Tree
p416
(dp417
g13
(imyEvolve
Tree
p418
(dp419
g12
I0
sg16
I00
sbsg12
I1
sg17
(imyEvolve
Tree
p420
(dp421
g12
I0
sg20
F4.6137419990963995
sg16
I01
sbsg21
I00
sg22
g45
sbsg12
I2
sg21
I01
sg22
g117
sbsg12
I3
sg17
(imyEvolve
Tree
p422
(dp423
g13
(imyEvolve
Tree
p424
(dp425
g13
(imyEvolve
Tree
p426
(dp427
g12
I0
sg20
F4.187754054368021
sg16
I01
sbsg12
I1
sg17
(imyEvolve
Tree
p428
(dp429
g12
I0
sg20
F4.109180833659183
sg16
I01
sbsg21
I00
sg22
g36
sbsg12
I2
sg17
(imyEvolve
Tree
p430
(dp431
g13
(imyEvolve
Tree
p432
(dp433
g12
I0
sg16
I00
sbsg12
I1
sg17
(imyEvolve
Tree
p434
(dp435
g12
I0
sg20
F-0.2965696124342667
sg16
I01
sbsg21
I00
sg22
g45
sbsg21
I00
sg22
g23
sbsg21
I00
sg22
g36
sbsg12
I4
sg21
I01
sg22
g117
sbsg12
I5
sg17
(imyEvolve
Tree
p436
(dp437
g13
(imyEvolve
Tree
p438
(dp439
g13
(imyEvolve
Tree
p440
(dp441
g13
(imyEvolve
Tree
p442
(dp443
g13
(imyEvolve
Tree
p444
(dp445
g12
I0
sg16
I00
sbsg12
I1
sg17
(imyEvolve
Tree
p446
(dp447
g12
I0
sg16
I00
sbsg21
I00
sg22
g36
sbsg12
I2
sg17
(imyEvolve
Tree
p448
(dp449
g7
(imyEvolve
Tree
p450
(dp451
g12
I0
sg16
I00
sbsg12
I1
sg21
I01
sg22
g25
sbsg21
I00
sg22
g23
sbsg12
I3
sg17
(imyEvolve
Tree
p452
(dp453
g7
(imyEvolve
Tree
p454
(dp455
g13
(imyEvolve
Tree
p456
(dp457
g12
I0
sg16
I00
sbsg12
I1
sg17
(imyEvolve
Tree
p458
(dp459
g12
I0
sg16
I00
sbsg21
I00
sg22
g45
sbsg12
I2
sg21
I01
sg22
g24
sbsg21
I00
sg22
g36
sbsg12
I4
sg17
(imyEvolve
Tree
p460
(dp461
g7
(imyEvolve
Tree
p462
(dp463
g13
(imyEvolve
Tree
p464
(dp465
g13
(imyEvolve
Tree
p466
(dp467
g12
I0
sg16
I00
sbsg12
I1
sg17
(imyEvolve
Tree
p468
(dp469
g12
I0
sg16
I00
sbsg21
I00
sg22
g45
sbsg12
I2
sg17
(imyEvolve
Tree
p470
(dp471
g13
(imyEvolve
Tree
p472
(dp473
g12
I0
sg20
F4.0254278823044345
sg16
I01
sbsg12
I1
sg17
(imyEvolve
Tree
p474
(dp475
g12
I0
sg16
I00
sbsg21
I00
sg22
g23
sbsg21
I00
sg22
g36
sbsg12
I3
sg21
I01
sg22
g25
sbsg21
I00
sg22
g45
sbsg21
I00
sg22
g36
sbaa(lp476
(imyEvolve
Tree
p477
(dp478
g13
(imyEvolve
Tree
p479
(dp480
g7
(imyEvolve
Tree
p481
(dp482
g7
(imyEvolve
Tree
p483
(dp484
g7
(imyEvolve
Tree
p485
(dp486
g13
(imyEvolve
Tree
p487
(dp488
g12
I0
sg16
I00
sbsg12
I1
sg17
(imyEvolve
Tree
p489
(dp490
g12
I0
sg20
F1.5111061961564856
sg16
I01
sbsg21
I00
sg22
g23
sbsg12
I2
sg21
I01
sg22
g117
sbsg12
I3
sg21
I01
sg22
g50
sbsg12
I4
sg21
I01
sg22
g25
sbsg12
I5
sg17
(imyEvolve
Tree
p491
(dp492
g7
(imyEvolve
Tree
p493
(dp494
g7
(imyEvolve
Tree
p495
(dp496
g7
(imyEvolve
Tree
p497
(dp498
g7
(imyEvolve
Tree
p499
(dp500
g12
I0
sg20
F3.3487763688746313
sg16
I01
sbsg12
I1
sg21
I01
sg22
g50
sbsg12
I2
sg21
I01
sg22
g50
sbsg12
I3
sg21
I01
sg22
g50
sbsg12
I4
sg21
I01
sg22
g117
sbsg21
I00
sg22
g45
sba(imyEvolve
Tree
p501
(dp502
g13
(imyEvolve
Tree
p503
(dp504
g7
(imyEvolve
Tree
p505
(dp506
g12
I0
sg20
F3.6303689249808784
sg16
I01
sbsg12
I1
sg21
I01
sg22
g24
sbsg12
I2
sg17
(imyEvolve
Tree
p507
(dp508
g7
(imyEvolve
Tree
p509
(dp510
g12
I0
sg16
I00
sbsg12
I1
sg21
I01
sg22
g24
sbsg21
I00
sg22
g36
sba(imyEvolve
Tree
p511
(dp512
g13
(imyEvolve
Tree
p513
(dp514
g7
(imyEvolve
Tree
p515
(dp516
g7
(imyEvolve
Tree
p517
(dp518
g12
I0
sg16
I00
sbsg12
I1
sg21
I01
sg22
g24
sbsg12
I2
sg21
I01
sg22
g24
sbsg12
I3
sg17
(imyEvolve
Tree
p519
(dp520
g13
(imyEvolve
Tree
p521
(dp522
g13
(imyEvolve
Tree
p523
(dp524
g12
I0
sg20
F-3.2349969979401108
sg16
I01
sbsg12
I1
sg17
(imyEvolve
Tree
p525
(dp526
g12
I0
sg16
I00
sbsg21
I00
sg22
g36
sbsg12
I2
sg17
(imyEvolve
Tree
p527
(dp528
g13
(imyEvolve
Tree
p529
(dp530
g12
I0
sg20
F3.450323439949136
sg16
I01
sbsg12
I1
sg17
(imyEvolve
Tree
p531
(dp532
g12
I0
sg16
I00
sbsg21
I00
sg22
g23
sbsg21
I00
sg22
g23
sbsg21
I00
sg22
g23
sba(imyEvolve
Tree
p533
(dp534
g7
(imyEvolve
Tree
p535
(dp536
g13
(imyEvolve
Tree
p537
(dp538
g12
I0
sg20
F-0.06766433553183848
sg16
I01
sbsg12
I1
sg17
(imyEvolve
Tree
p539
(dp540
g12
I0
sg16
I00
sbsg21
I00
sg22
g36
sbsg12
I2
sg21
I01
sg22
g25
sba(imyEvolve
Tree
p541
(dp542
g7
(imyEvolve
Tree
p543
(dp544
g7
(imyEvolve
Tree
p545
(dp546
g13
(imyEvolve
Tree
p547
(dp548
g7
(imyEvolve
Tree
p549
(dp550
g12
I0
sg20
F1.079034952624581
sg16
I01
sbsg12
I1
sg21
I01
sg22
g24
sbsg12
I2
sg17
(imyEvolve
Tree
p551
(dp552
g7
(imyEvolve
Tree
p553
(dp554
g12
I0
sg16
I00
sbsg12
I1
sg21
I01
sg22
g50
sbsg21
I00
sg22
g45
sbsg12
I3
sg21
I01
sg22
g24
sbsg12
I4
sg21
I01
sg22
g117
sba(imyEvolve
Tree
p555
(dp556
g7
(imyEvolve
Tree
p557
(dp558
g7
(imyEvolve
Tree
p559
(dp560
g12
I3
sg13
(imyEvolve
Tree
p561
(dp562
g12
I2
sg13
(imyEvolve
Tree
p563
(dp564
g7
(imyEvolve
Tree
p565
(dp566
g12
I0
sg16
I00
sbsg12
I1
sg21
I01
sg22
g25
sbsg17
(imyEvolve
Tree
p567
(dp568
g7
(imyEvolve
Tree
p569
(dp570
g12
I0
sg20
F4.537820069647415
sg16
I01
sbsg12
I1
sg21
I01
sg22
g50
sbsg21
I00
sg22
g45
sbsg17
(imyEvolve
Tree
p571
(dp572
g12
I2
sg13
(imyEvolve
Tree
p573
(dp574
g12
I1
sg13
(imyEvolve
Tree
p575
(dp576
g12
I0
sg20
F2.149028208818603
sg16
I01
sbsg17
(imyEvolve
Tree
p577
(dp578
g12
I0
sg20
F1.03585190203325
sg16
I01
sbsg21
I00
sg22
g45
sbsg17
(imyEvolve
Tree
p579
(dp580
g7
(imyEvolve
Tree
p581
(dp582
g12
I0
sg20
F-2.5340055280152374
sg16
I01
sbsg12
I1
sg21
I01
sg22
g117
sbsg21
I00
sg22
g23
sbsg21
I00
sg22
g23
sbsg12
I4
sg21
I01
sg22
g24
sbsg12
I5
sg21
I01
sg22
g117
sba(imyEvolve
Tree
p583
(dp584
g13
(imyEvolve
Tree
p585
(dp586
g7
(imyEvolve
Tree
p587
(dp588
g12
I0
sg20
F1.7198692565316556
sg16
I01
sbsg12
I1
sg21
I01
sg22
g50
sbsg12
I2
sg17
(imyEvolve
Tree
p589
(dp590
g7
(imyEvolve
Tree
p591
(dp592
g12
I0
sg20
F2.8804175337243523
sg16
I01
sbsg12
I1
sg21
I01
sg22
g24
sbsg21
I00
sg22
g23
sba(imyEvolve
Tree
p593
(dp594
g12
I2
sg13
(imyEvolve
Tree
p595
(dp596
g12
I1
sg13
(imyEvolve
Tree
p597
(dp598
g12
I0
sg16
I00
sbsg17
(imyEvolve
Tree
p599
(dp600
g12
I0
sg16
I00
sbsg21
I00
sg22
g45
sbsg17
(imyEvolve
Tree
p601
(dp602
g12
I1
sg13
(imyEvolve
Tree
p603
(dp604
g12
I0
sg20
F-3.823735331950023
sg16
I01
sbsg17
(imyEvolve
Tree
p605
(dp606
g12
I0
sg16
I00
sbsg21
I00
sg22
g45
sbsg21
I00
sg22
g23
sba(imyEvolve
Tree
p607
(dp608
g7
(imyEvolve
Tree
p609
(dp610
g13
(imyEvolve
Tree
p611
(dp612
g13
(imyEvolve
Tree
p613
(dp614
g7
(imyEvolve
Tree
p615
(dp616
g12
I0
sg16
I00
sbsg12
I1
sg21
I01
sg22
g117
sbsg12
I2
sg17
(imyEvolve
Tree
p617
(dp618
g13
(imyEvolve
Tree
p619
(dp620
g12
I0
sg16
I00
sbsg12
I1
sg17
(imyEvolve
Tree
p621
(dp622
g12
I0
sg16
I00
sbsg21
I00
sg22
g45
sbsg21
I00
sg22
g36
sbsg12
I3
sg17
(imyEvolve
Tree
p623
(dp624
g7
(imyEvolve
Tree
p625
(dp626
g7
(imyEvolve
Tree
p627
(dp628
g12
I0
sg16
I00
sbsg12
I1
sg21
I01
sg22
g50
sbsg12
I2
sg21
I01
sg22
g117
sbsg21
I00
sg22
g36
sbsg12
I4
sg21
I01
sg22
g24
sba(imyEvolve
Tree
p629
(dp630
g13
(imyEvolve
Tree
p631
(dp632
g13
(imyEvolve
Tree
p633
(dp634
g7
(imyEvolve
Tree
p635
(dp636
g7
(imyEvolve
Tree
p637
(dp638
g12
I0
sg16
I00
sbsg12
I1
sg21
I01
sg22
g50
sbsg12
I2
sg21
I01
sg22
g24
sbsg12
I3
sg17
(imyEvolve
Tree
p639
(dp640
g13
(imyEvolve
Tree
p641
(dp642
g7
(imyEvolve
Tree
p643
(dp644
g12
I0
sg16
I00
sbsg12
I1
sg21
I01
sg22
g25
sbsg12
I2
sg17
(imyEvolve
Tree
p645
(dp646
g13
(imyEvolve
Tree
p647
(dp648
g12
I0
sg20
F0.5166643911859676
sg16
I01
sbsg12
I1
sg17
(imyEvolve
Tree
p649
(dp650
g12
I0
sg20
F2.545024982440367
sg16
I01
sbsg21
I00
sg22
g36
sbsg21
I00
sg22
g45
sbsg21
I00
sg22
g36
sbsg12
I4
sg17
(imyEvolve
Tree
p651
(dp652
g7
(imyEvolve
Tree
p653
(dp654
g13
(imyEvolve
Tree
p655
(dp656
g13
(imyEvolve
Tree
p657
(dp658
g12
I0
sg20
F3.0789206330565637
sg16
I01
sbsg12
I1
sg17
(imyEvolve
Tree
p659
(dp660
g12
I0
sg20
F0.5934033040547746
sg16
I01
sbsg21
I00
sg22
g36
sbsg12
I2
sg17
(imyEvolve
Tree
p661
(dp662
g7
(imyEvolve
Tree
p663
(dp664
g12
I0
sg16
I00
sbsg12
I1
sg21
I01
sg22
g117
sbsg21
I00
sg22
g36
sbsg12
I3
sg21
I01
sg22
g117
sbsg21
I00
sg22
g36
sba(imyEvolve
Tree
p665
(dp666
g7
(imyEvolve
Tree
p667
(dp668
g7
(imyEvolve
Tree
p669
(dp670
g13
(imyEvolve
Tree
p671
(dp672
g12
I0
sg20
F1.5540374423131
sg16
I01
sbsg12
I1
sg17
(imyEvolve
Tree
p673
(dp674
g12
I0
sg20
F-1.6027916877869708
sg16
I01
sbsg21
I00
sg22
g45
sbsg12
I2
sg21
I01
sg22
g50
sbsg12
I3
sg21
I01
sg22
g117
sba(imyEvolve
Tree
p675
(dp676
g13
(imyEvolve
Tree
p677
(dp678
g13
(imyEvolve
Tree
p679
(dp680
g7
(imyEvolve
Tree
p681
(dp682
g13
(imyEvolve
Tree
p683
(dp684
g13
(imyEvolve
Tree
p685
(dp686
g12
I0
sg20
F-0.9314163753962585
sg16
I01
sbsg12
I1
sg17
(imyEvolve
Tree
p687
(dp688
g12
I0
sg16
I00
sbsg21
I00
sg22
g45
sbsg12
I2
sg17
(imyEvolve
Tree
p689
(dp690
g13
(imyEvolve
Tree
p691
(dp692
g12
I0
sg16
I00
sbsg12
I1
sg17
(imyEvolve
Tree
p693
(dp694
g12
I0
sg16
I00
sbsg21
I00
sg22
g23
sbsg21
I00
sg22
g45
sbsg12
I3
sg21
I01
sg22
g25
sbsg12
I4
sg17
(imyEvolve
Tree
p695
(dp696
g13
(imyEvolve
Tree
p697
(dp698
g13
(imyEvolve
Tree
p699
(dp700
g7
(imyEvolve
Tree
p701
(dp702
g12
I0
sg16
I00
sbsg12
I1
sg21
I01
sg22
g50
sbsg12
I2
sg17
(imyEvolve
Tree
p703
(dp704
g7
(imyEvolve
Tree
p705
(dp706
g12
I0
sg16
I00
sbsg12
I1
sg21
I01
sg22
g50
sbsg21
I00
sg22
g45
sbsg12
I3
sg17
(imyEvolve
Tree
p707
(dp708
g7
(imyEvolve
Tree
p709
(dp710
g7
(imyEvolve
Tree
p711
(dp712
g12
I0
sg20
F4.468926905194827
sg16
I01
sbsg12
I1
sg21
I01
sg22
g117
sbsg12
I2
sg21
I01
sg22
g25
sbsg21
I00
sg22
g23
sbsg21
I00
sg22
g45
sbsg12
I5
sg17
(imyEvolve
Tree
p713
(dp714
g7
(imyEvolve
Tree
p715
(dp716
g13
(imyEvolve
Tree
p717
(dp718
g7
(imyEvolve
Tree
p719
(dp720
g7
(imyEvolve
Tree
p721
(dp722
g12
I0
sg16
I00
sbsg12
I1
sg21
I01
sg22
g24
sbsg12
I2
sg21
I01
sg22
g117
sbsg12
I3
sg17
(imyEvolve
Tree
p723
(dp724
g7
(imyEvolve
Tree
p725
(dp726
g7
(imyEvolve
Tree
p727
(dp728
g12
I0
sg16
I00
sbsg12
I1
sg21
I01
sg22
g50
sbsg12
I2
sg21
I01
sg22
g50
sbsg21
I00
sg22
g45
sbsg12
I4
sg21
I01
sg22
g50
sbsg21
I00
sg22
g36
sba(imyEvolve
Tree
p729
(dp730
g13
(imyEvolve
Tree
p731
(dp732
g13
(imyEvolve
Tree
p733
(dp734
g13
(imyEvolve
Tree
p735
(dp736
g7
(imyEvolve
Tree
p737
(dp738
g13
(imyEvolve
Tree
p739
(dp740
g12
I0
sg20
F-0.013924324626381157
sg16
I01
sbsg12
I1
sg17
(imyEvolve
Tree
p741
(dp742
g12
I0
sg16
I00
sbsg21
I00
sg22
g36
sbsg12
I2
sg21
I01
sg22
g117
sbsg12
I3
sg17
(imyEvolve
Tree
p743
(dp744
g7
(imyEvolve
Tree
p745
(dp746
g13
(imyEvolve
Tree
p747
(dp748
g12
I0
sg20
F-1.4477807121821251
sg16
I01
sbsg12
I1
sg17
(imyEvolve
Tree
p749
(dp750
g12
I0
sg16
I00
sbsg21
I00
sg22
g23
sbsg12
I2
sg21
I01
sg22
g50
sbsg21
I00
sg22
g36
sbsg12
I4
sg17
(imyEvolve
Tree
p751
(dp752
g13
(imyEvolve
Tree
p753
(dp754
g13
(imyEvolve
Tree
p755
(dp756
g13
(imyEvolve
Tree
p757
(dp758
g12
I0
sg20
F-3.9684167087332645
sg16
I01
sbsg12
I1
sg17
(imyEvolve
Tree
p759
(dp760
g12
I0
sg20
F-1.768354326554602
sg16
I01
sbsg21
I00
sg22
g23
sbsg12
I2
sg17
(imyEvolve
Tree
p761
(dp762
g13
(imyEvolve
Tree
p763
(dp764
g12
I0
sg16
I00
sbsg12
I1
sg17
(imyEvolve
Tree
p765
(dp766
g12
I0
sg16
I00
sbsg21
I00
sg22
g23
sbsg21
I00
sg22
g36
sbsg12
I3
sg17
(imyEvolve
Tree
p767
(dp768
g7
(imyEvolve
Tree
p769
(dp770
g13
(imyEvolve
Tree
p771
(dp772
g12
I0
sg16
I00
sbsg12
I1
sg17
(imyEvolve
Tree
p773
(dp774
g12
I0
sg20
F-4.217186234463686
sg16
I01
sbsg21
I00
sg22
g36
sbsg12
I2
sg21
I01
sg22
g117
sbsg21
I00
sg22
g45
sbsg21
I00
sg22
g23
sbsg12
I5
sg17
(imyEvolve
Tree
p775
(dp776
g7
(imyEvolve
Tree
p777
(dp778
g7
(imyEvolve
Tree
p779
(dp780
g7
(imyEvolve
Tree
p781
(dp782
g13
(imyEvolve
Tree
p783
(dp784
g12
I0
sg20
F-0.7021194204076862
sg16
I01
sbsg12
I1
sg17
(imyEvolve
Tree
p785
(dp786
g12
I0
sg20
F4.772250290562283
sg16
I01
sbsg21
I00
sg22
g36
sbsg12
I2
sg21
I01
sg22
g25
sbsg12
I3
sg21
I01
sg22
g25
sbsg12
I4
sg21
I01
sg22
g50
sbsg21
I00
sg22
g36
sba(imyEvolve
Tree
p787
(dp788
g7
(imyEvolve
Tree
p789
(dp790
g13
(imyEvolve
Tree
p791
(dp792
g7
(imyEvolve
Tree
p793
(dp794
g12
I0
sg16
I00
sbsg12
I1
sg21
I01
sg22
g25
sbsg12
I2
sg17
(imyEvolve
Tree
p795
(dp796
g13
(imyEvolve
Tree
p797
(dp798
g12
I0
sg16
I00
sbsg12
I1
sg17
(imyEvolve
Tree
p799
(dp800
g12
I0
sg20
F-3.74351143126301
sg16
I01
sbsg21
I00
sg22
g45
sbsg21
I00
sg22
g45
sbsg12
I3
sg21
I01
sg22
g24
sba(imyEvolve
Tree
p801
(dp802
g7
(imyEvolve
Tree
p803
(dp804
g7
(imyEvolve
Tree
p805
(dp806
g13
(imyEvolve
Tree
p807
(dp808
g12
I0
sg20
F-0.3723743554197121
sg16
I01
sbsg12
I1
sg17
(imyEvolve
Tree
p809
(dp810
g12
I0
sg20
F-3.974977288558379
sg16
I01
sbsg21
I00
sg22
g45
sbsg12
I2
sg21
I01
sg22
g50
sbsg12
I3
sg21
I01
sg22
g25
sba(imyEvolve
Tree
p811
(dp812
g7
(imyEvolve
Tree
p813
(dp814
g7
(imyEvolve
Tree
p815
(dp816
g12
I1
sg13
(imyEvolve
Tree
p817
(dp818
g12
I0
sg20
F1.663930173705202
sg16
I01
sbsg17
(imyEvolve
Tree
p819
(dp820
g12
I0
sg20
F3.197107879584152
sg16
I01
sbsg21
I00
sg22
g23
sbsg12
I2
sg21
I01
sg22
g24
sbsg12
I3
sg21
I01
sg22
g117
sba(imyEvolve
Tree
p821
(dp822
g12
I5
sg13
(imyEvolve
Tree
p823
(dp824
g7
(imyEvolve
Tree
p825
(dp826
g7
(imyEvolve
Tree
p827
(dp828
g7
(imyEvolve
Tree
p829
(dp830
g12
I1
sg13
(imyEvolve
Tree
p831
(dp832
g12
I0
sg20
F-3.9336676846234573
sg16
I01
sbsg17
(imyEvolve
Tree
p833
(dp834
g12
I0
sg20
F-0.8458269967078333
sg16
I01
sbsg21
I00
sg22
g45
sbsg12
I2
sg21
I01
sg22
g24
sbsg12
I3
sg21
I01
sg22
g25
sbsg12
I4
sg21
I01
sg22
g25
sbsg17
(imyEvolve
Tree
p835
(dp836
g7
(imyEvolve
Tree
p837
(dp838
g12
I3
sg13
(imyEvolve
Tree
p839
(dp840
g12
I2
sg13
(imyEvolve
Tree
p841
(dp842
g12
I1
sg13
(imyEvolve
Tree
p843
(dp844
g12
I0
sg20
F3.773081675215863
sg16
I01
sbsg17
(imyEvolve
Tree
p845
(dp846
g12
I0
sg20
F-4.864177745119696
sg16
I01
sbsg21
I00
sg22
g45
sbsg17
(imyEvolve
Tree
p847
(dp848
g7
(imyEvolve
Tree
p849
(dp850
g12
I0
sg16
I00
sbsg12
I1
sg21
I01
sg22
g24
sbsg21
I00
sg22
g36
sbsg17
(imyEvolve
Tree
p851
(dp852
g7
(imyEvolve
Tree
p853
(dp854
g12
I1
sg13
(imyEvolve
Tree
p855
(dp856
g12
I0
sg20
F3.6838371187852346
sg16
I01
sbsg17
(imyEvolve
Tree
p857
(dp858
g12
I0
sg20
F4.850455593688505
sg16
I01
sbsg21
I00
sg22
g45
sbsg12
I2
sg21
I01
sg22
g24
sbsg21
I00
sg22
g36
sbsg12
I4
sg21
I01
sg22
g50
sbsg21
I00
sg22
g36
sbaasS'alpha'
p859
F0.0012068478921166473
sS'fitness'
p860
cnumpy.core.multiarray
scalar
p861
(cnumpy
dtype
p862
(S'f8'
p863
I0
I1
tp864
Rp865
(I3
S'<'
p866
NNNI-1
I-1
I0
tp867
bS'\x96!\x8e\xf8\xc3\x1d\xe6?'
p868
tp869
Rp870
sS'weightSharing'
p871
(lp872
I00
asS'fitnessValid'
p873
I00
sS'resolution'
p874
I81
sb.