(imyEvolve
Individual
p0
(dp1
S'funcs'
p2
(lp3
(lp4
(imyEvolve
Tree
p5
(dp6
S'below'
p7
(imyEvolve
Tree
p8
(dp9
S'depth'
p10
I2
sS'left'
p11
(imyEvolve
Tree
p12
(dp13
g7
(imyEvolve
Tree
p14
(dp15
g10
I0
sS'constant'
p16
F2.782065713375336
sS'isConstant'
p17
I01
sbsg10
I1
sS'single'
p18
I01
sS'op'
p19
cmath
cos
p20
sbsS'right'
p21
(imyEvolve
Tree
p22
(dp23
g7
(imyEvolve
Tree
p24
(dp25
g10
I0
sg16
F-1.575431179063762
sg17
I01
sbsg10
I1
sg18
I01
sg19
cmyEvolve
square
p26
sbsg18
I00
sg19
coperator
mul
p27
sbsg10
I3
sg18
I01
sg19
g26
sba(imyEvolve
Tree
p28
(dp29
g10
I4
sg11
(imyEvolve
Tree
p30
(dp31
g7
(imyEvolve
Tree
p32
(dp33
g10
I2
sg11
(imyEvolve
Tree
p34
(dp35
g10
I1
sg11
(imyEvolve
Tree
p36
(dp37
g10
I0
sg17
I00
sbsg21
(imyEvolve
Tree
p38
(dp39
g10
I0
sg16
F0.7098938985174268
sg17
I01
sbsg18
I00
sg19
coperator
sub
p40
sbsg21
(imyEvolve
Tree
p41
(dp42
g7
(imyEvolve
Tree
p43
(dp44
g10
I0
sg16
F-3.324503266376758
sg17
I01
sbsg10
I1
sg18
I01
sg19
cmyEvolve
absSqrt
p45
sbsg18
I00
sg19
coperator
add
p46
sbsg10
I3
sg18
I01
sg19
cmath
sin
p47
sbsg21
(imyEvolve
Tree
p48
(dp49
g7
(imyEvolve
Tree
p50
(dp51
g10
I2
sg11
(imyEvolve
Tree
p52
(dp53
g7
(imyEvolve
Tree
p54
(dp55
g10
I0
sg16
F0.31488105463639293
sg17
I01
sbsg10
I1
sg18
I01
sg19
g45
sbsg21
(imyEvolve
Tree
p56
(dp57
g10
I1
sg11
(imyEvolve
Tree
p58
(dp59
g10
I0
sg17
I00
sbsg21
(imyEvolve
Tree
p60
(dp61
g10
I0
sg16
F0.13448815933623237
sg17
I01
sbsg18
I00
sg19
g40
sbsg18
I00
sg19
g40
sbsg10
I3
sg18
I01
sg19
g20
sbsg18
I00
sg19
g27
sba(imyEvolve
Tree
p62
(dp63
g7
(imyEvolve
Tree
p64
(dp65
g10
I4
sg11
(imyEvolve
Tree
p66
(dp67
g7
(imyEvolve
Tree
p68
(dp69
g10
I2
sg11
(imyEvolve
Tree
p70
(dp71
g10
I1
sg11
(imyEvolve
Tree
p72
(dp73
g10
I0
sg17
I00
sbsg21
(imyEvolve
Tree
p74
(dp75
g10
I0
sg16
F-2.7766325406414536
sg17
I01
sbsg18
I00
sg19
g46
sbsg21
(imyEvolve
Tree
p76
(dp77
g10
I1
sg11
(imyEvolve
Tree
p78
(dp79
g10
I0
sg16
F-2.955774426475993
sg17
I01
sbsg21
(imyEvolve
Tree
p80
(dp81
g10
I0
sg16
F-0.44699414063430076
sg17
I01
sbsg18
I00
sg19
g27
sbsg18
I00
sg19
g40
sbsg10
I3
sg18
I01
sg19
g47
sbsg21
(imyEvolve
Tree
p82
(dp83
g10
I3
sg11
(imyEvolve
Tree
p84
(dp85
g10
I2
sg11
(imyEvolve
Tree
p86
(dp87
g10
I1
sg11
(imyEvolve
Tree
p88
(dp89
g10
I0
sg16
F-2.564862309949879
sg17
I01
sbsg21
(imyEvolve
Tree
p90
(dp91
g10
I0
sg17
I00
sbsg18
I00
sg19
g40
sbsg21
(imyEvolve
Tree
p92
(dp93
g10
I1
sg11
(imyEvolve
Tree
p94
(dp95
g10
I0
sg16
F1.204541803566535
sg17
I01
sbsg21
(imyEvolve
Tree
p96
(dp97
g10
I0
sg16
F3.6303566582170284
sg17
I01
sbsg18
I00
sg19
g46
sbsg18
I00
sg19
g40
sbsg21
(imyEvolve
Tree
p98
(dp99
g7
(imyEvolve
Tree
p100
(dp101
g10
I1
sg11
(imyEvolve
Tree
p102
(dp103
g10
I0
sg17
I00
sbsg21
(imyEvolve
Tree
p104
(dp105
g10
I0
sg16
F3.8438398015485777
sg17
I01
sbsg18
I00
sg19
g27
sbsg10
I2
sg18
I01
sg19
g20
sbsg18
I00
sg19
g27
sbsg18
I00
sg19
g40
sbsg10
I5
sg18
I01
sg19
g26
sba(imyEvolve
Tree
p106
(dp107
g10
I3
sg11
(imyEvolve
Tree
p108
(dp109
g7
(imyEvolve
Tree
p110
(dp111
g10
I1
sg11
(imyEvolve
Tree
p112
(dp113
g10
I0
sg16
F4.617804090126295
sg17
I01
sbsg21
(imyEvolve
Tree
p114
(dp115
g10
I0
sg16
F1.26613452376949
sg17
I01
sbsg18
I00
sg19
g27
sbsg10
I2
sg18
I01
sg19
g26
sbsg21
(imyEvolve
Tree
p116
(dp117
g7
(imyEvolve
Tree
p118
(dp119
g10
I1
sg11
(imyEvolve
Tree
p120
(dp121
g10
I0
sg17
I00
sbsg21
(imyEvolve
Tree
p122
(dp123
g10
I0
sg16
F-0.18011125977822218
sg17
I01
sbsg18
I00
sg19
g27
sbsg10
I2
sg18
I01
sg19
g20
sbsg18
I00
sg19
g40
sba(imyEvolve
Tree
p124
(dp125
g10
I4
sg11
(imyEvolve
Tree
p126
(dp127
g7
(imyEvolve
Tree
p128
(dp129
g7
(imyEvolve
Tree
p130
(dp131
g7
(imyEvolve
Tree
p132
(dp133
g10
I0
sg17
I00
sbsg10
I1
sg18
I01
sg19
g45
sbsg10
I2
sg18
I01
sg19
g47
sbsg10
I3
sg18
I01
sg19
g47
sbsg21
(imyEvolve
Tree
p134
(dp135
g10
I3
sg11
(imyEvolve
Tree
p136
(dp137
g7
(imyEvolve
Tree
p138
(dp139
g7
(imyEvolve
Tree
p140
(dp141
g10
I0
sg16
F1.8132790060485702
sg17
I01
sbsg10
I1
sg18
I01
sg19
g47
sbsg10
I2
sg18
I01
sg19
g26
sbsg21
(imyEvolve
Tree
p142
(dp143
g10
I2
sg11
(imyEvolve
Tree
p144
(dp145
g7
(imyEvolve
Tree
p146
(dp147
g10
I0
sg16
F-4.8995729106996695
sg17
I01
sbsg10
I1
sg18
I01
sg19
g20
sbsg21
(imyEvolve
Tree
p148
(dp149
g7
(imyEvolve
Tree
p150
(dp151
g10
I0
sg17
I00
sbsg10
I1
sg18
I01
sg19
g20
sbsg18
I00
sg19
g46
sbsg18
I00
sg19
g27
sbsg18
I00
sg19
g40
sba(imyEvolve
Tree
p152
(dp153
g10
I5
sg11
(imyEvolve
Tree
p154
(dp155
g10
I4
sg11
(imyEvolve
Tree
p156
(dp157
g10
I3
sg11
(imyEvolve
Tree
p158
(dp159
g10
I2
sg11
(imyEvolve
Tree
p160
(dp161
g10
I1
sg11
(imyEvolve
Tree
p162
(dp163
g10
I0
sg17
I00
sbsg21
(imyEvolve
Tree
p164
(dp165
g10
I0
sg17
I00
sbsg18
I00
sg19
g46
sbsg21
(imyEvolve
Tree
p166
(dp167
g7
(imyEvolve
Tree
p168
(dp169
g10
I0
sg16
F0.7334378709061866
sg17
I01
sbsg10
I1
sg18
I01
sg19
g47
sbsg18
I00
sg19
g40
sbsg21
(imyEvolve
Tree
p170
(dp171
g7
(imyEvolve
Tree
p172
(dp173
g7
(imyEvolve
Tree
p174
(dp175
g10
I0
sg17
I00
sbsg10
I1
sg18
I01
sg19
g20
sbsg10
I2
sg18
I01
sg19
g20
sbsg18
I00
sg19
g40
sbsg21
(imyEvolve
Tree
p176
(dp177
g10
I3
sg11
(imyEvolve
Tree
p178
(dp179
g7
(imyEvolve
Tree
p180
(dp181
g10
I1
sg11
(imyEvolve
Tree
p182
(dp183
g10
I0
sg16
F-0.7302945440617057
sg17
I01
sbsg21
(imyEvolve
Tree
p184
(dp185
g10
I0
sg16
F3.429054385044349
sg17
I01
sbsg18
I00
sg19
g27
sbsg10
I2
sg18
I01
sg19
g47
sbsg21
(imyEvolve
Tree
p186
(dp187
g7
(imyEvolve
Tree
p188
(dp189
g7
(imyEvolve
Tree
p190
(dp191
g10
I0
sg17
I00
sbsg10
I1
sg18
I01
sg19
g45
sbsg10
I2
sg18
I01
sg19
g45
sbsg18
I00
sg19
g27
sbsg18
I00
sg19
g27
sbsg21
(imyEvolve
Tree
p192
(dp193
g7
(imyEvolve
Tree
p194
(dp195
g10
I3
sg11
(imyEvolve
Tree
p196
(dp197
g10
I2
sg11
(imyEvolve
Tree
p198
(dp199
g10
I1
sg11
(imyEvolve
Tree
p200
(dp201
g10
I0
sg16
F3.8055795350406054
sg17
I01
sbsg21
(imyEvolve
Tree
p202
(dp203
g10
I0
sg17
I00
sbsg18
I00
sg19
g40
sbsg21
(imyEvolve
Tree
p204
(dp205
g10
I1
sg11
(imyEvolve
Tree
p206
(dp207
g10
I0
sg17
I00
sbsg21
(imyEvolve
Tree
p208
(dp209
g10
I0
sg17
I00
sbsg18
I00
sg19
g46
sbsg18
I00
sg19
g46
sbsg21
(imyEvolve
Tree
p210
(dp211
g7
(imyEvolve
Tree
p212
(dp213
g10
I1
sg11
(imyEvolve
Tree
p214
(dp215
g10
I0
sg17
I00
sbsg21
(imyEvolve
Tree
p216
(dp217
g10
I0
sg16
F2.4852845613420396
sg17
I01
sbsg18
I00
sg19
g40
sbsg10
I2
sg18
I01
sg19
g20
sbsg18
I00
sg19
g40
sbsg10
I4
sg18
I01
sg19
g20
sbsg18
I00
sg19
g40
sba(imyEvolve
Tree
p218
(dp219
g10
I3
sg11
(imyEvolve
Tree
p220
(dp221
g10
I2
sg11
(imyEvolve
Tree
p222
(dp223
g10
I1
sg11
(imyEvolve
Tree
p224
(dp225
g10
I0
sg17
I00
sbsg21
(imyEvolve
Tree
p226
(dp227
g10
I0
sg17
I00
sbsg18
I00
sg19
g27
sbsg21
(imyEvolve
Tree
p228
(dp229
g10
I1
sg11
(imyEvolve
Tree
p230
(dp231
g10
I0
sg16
F3.4434360208734205
sg17
I01
sbsg21
(imyEvolve
Tree
p232
(dp233
g10
I0
sg16
F4.506616103215331
sg17
I01
sbsg18
I00
sg19
g27
sbsg18
I00
sg19
g46
sbsg21
(imyEvolve
Tree
p234
(dp235
g7
(imyEvolve
Tree
p236
(dp237
g10
I1
sg11
(imyEvolve
Tree
p238
(dp239
g10
I0
sg16
F-3.1054057684420866
sg17
I01
sbsg21
(imyEvolve
Tree
p240
(dp241
g10
I0
sg16
F0.21517371037411603
sg17
I01
sbsg18
I00
sg19
g27
sbsg10
I2
sg18
I01
sg19
g47
sbsg18
I00
sg19
g27
sba(imyEvolve
Tree
p242
(dp243
g10
I5
sg11
(imyEvolve
Tree
p244
(dp245
g7
(imyEvolve
Tree
p246
(dp247
g10
I3
sg11
(imyEvolve
Tree
p248
(dp249
g10
I2
sg11
(imyEvolve
Tree
p250
(dp251
g10
I1
sg11
(imyEvolve
Tree
p252
(dp253
g10
I0
sg16
F-1.5568617221113987
sg17
I01
sbsg21
(imyEvolve
Tree
p254
(dp255
g10
I0
sg16
F-3.3917953808463697
sg17
I01
sbsg18
I00
sg19
g46
sbsg21
(imyEvolve
Tree
p256
(dp257
g10
I1
sg11
(imyEvolve
Tree
p258
(dp259
g10
I0
sg16
F1.575683051166953
sg17
I01
sbsg21
(imyEvolve
Tree
p260
(dp261
g10
I0
sg17
I00
sbsg18
I00
sg19
g27
sbsg18
I00
sg19
g40
sbsg21
(imyEvolve
Tree
p262
(dp263
g7
(imyEvolve
Tree
p264
(dp265
g7
(imyEvolve
Tree
p266
(dp267
g10
I0
sg17
I00
sbsg10
I1
sg18
I01
sg19
g26
sbsg10
I2
sg18
I01
sg19
g45
sbsg18
I00
sg19
g27
sbsg10
I4
sg18
I01
sg19
g45
sbsg21
(imyEvolve
Tree
p268
(dp269
g7
(imyEvolve
Tree
p270
(dp271
g10
I3
sg11
(imyEvolve
Tree
p272
(dp273
g7
(imyEvolve
Tree
p274
(dp275
g7
(imyEvolve
Tree
p276
(dp277
g10
I0
sg17
I00
sbsg10
I1
sg18
I01
sg19
g47
sbsg10
I2
sg18
I01
sg19
g20
sbsg21
(imyEvolve
Tree
p278
(dp279
g7
(imyEvolve
Tree
p280
(dp281
g10
I1
sg11
(imyEvolve
Tree
p282
(dp283
g10
I0
sg16
F-0.7693403796814096
sg17
I01
sbsg21
(imyEvolve
Tree
p284
(dp285
g10
I0
sg16
F-0.42816538009719984
sg17
I01
sbsg18
I00
sg19
g27
sbsg10
I2
sg18
I01
sg19
g45
sbsg18
I00
sg19
g27
sbsg10
I4
sg18
I01
sg19
g45
sbsg18
I00
sg19
g27
sba(imyEvolve
Tree
p286
(dp287
g7
(imyEvolve
Tree
p288
(dp289
g7
(imyEvolve
Tree
p290
(dp291
g10
I0
sg17
I00
sbsg10
I1
sg18
I01
sg19
g45
sbsg10
I2
sg18
I01
sg19
g47
sbaa(lp292
(imyEvolve
Tree
p293
(dp294
g7
(imyEvolve
Tree
p295
(dp296
g10
I2
sg11
(imyEvolve
Tree
p297
(dp298
g10
I1
sg11
(imyEvolve
Tree
p299
(dp300
g10
I0
sg17
I00
sbsg21
(imyEvolve
Tree
p301
(dp302
g10
I0
sg16
F-1.514336860808715
sg17
I01
sbsg18
I00
sg19
g27
sbsg21
(imyEvolve
Tree
p303
(dp304
g7
(imyEvolve
Tree
p305
(dp306
g10
I0
sg17
I00
sbsg10
I1
sg18
I01
sg19
g26
sbsg18
I00
sg19
g46
sbsg10
I3
sg18
I01
sg19
g20
sba(imyEvolve
Tree
p307
(dp308
g7
(imyEvolve
Tree
p309
(dp310
g7
(imyEvolve
Tree
p311
(dp312
g10
I3
sg11
(imyEvolve
Tree
p313
(dp314
g10
I2
sg11
(imyEvolve
Tree
p315
(dp316
g10
I1
sg11
(imyEvolve
Tree
p317
(dp318
g10
I0
sg16
F-0.6850814195911914
sg17
I01
sbsg21
(imyEvolve
Tree
p319
(dp320
g10
I0
sg16
F-2.0774492887532525
sg17
I01
sbsg18
I00
sg19
g27
sbsg21
(imyEvolve
Tree
p321
(dp322
g7
(imyEvolve
Tree
p323
(dp324
g10
I0
sg17
I00
sbsg10
I1
sg18
I01
sg19
g45
sbsg18
I00
sg19
g40
sbsg21
(imyEvolve
Tree
p325
(dp326
g7
(imyEvolve
Tree
p327
(dp328
g10
I1
sg11
(imyEvolve
Tree
p329
(dp330
g10
I0
sg17
I00
sbsg21
(imyEvolve
Tree
p331
(dp332
g10
I0
sg17
I00
sbsg18
I00
sg19
g46
sbsg10
I2
sg18
I01
sg19
g20
sbsg18
I00
sg19
g40
sbsg10
I4
sg18
I01
sg19
g45
sbsg10
I5
sg18
I01
sg19
g47
sba(imyEvolve
Tree
p333
(dp334
g10
I2
sg11
(imyEvolve
Tree
p335
(dp336
g10
I1
sg11
(imyEvolve
Tree
p337
(dp338
g10
I0
sg17
I00
sbsg21
(imyEvolve
Tree
p339
(dp340
g10
I0
sg17
I00
sbsg18
I00
sg19
g46
sbsg21
(imyEvolve
Tree
p341
(dp342
g10
I1
sg11
(imyEvolve
Tree
p343
(dp344
g10
I0
sg17
I00
sbsg21
(imyEvolve
Tree
p345
(dp346
g10
I0
sg17
I00
sbsg18
I00
sg19
g40
sbsg18
I00
sg19
g46
sba(imyEvolve
Tree
p347
(dp348
g10
I5
sg11
(imyEvolve
Tree
p349
(dp350
g10
I4
sg11
(imyEvolve
Tree
p351
(dp352
g10
I3
sg11
(imyEvolve
Tree
p353
(dp354
g10
I2
sg11
(imyEvolve
Tree
p355
(dp356
g7
(imyEvolve
Tree
p357
(dp358
g10
I0
sg16
F-2.195738723590833
sg17
I01
sbsg10
I1
sg18
I01
sg19
g45
sbsg21
(imyEvolve
Tree
p359
(dp360
g7
(imyEvolve
Tree
p361
(dp362
g10
I0
sg16
F-2.1656763886392696
sg17
I01
sbsg10
I1
sg18
I01
sg19
g45
sbsg18
I00
sg19
g46
sbsg21
(imyEvolve
Tree
p363
(dp364
g7
(imyEvolve
Tree
p365
(dp366
g7
(imyEvolve
Tree
p367
(dp368
g10
I0
sg17
I00
sbsg10
I1
sg18
I01
sg19
g26
sbsg10
I2
sg18
I01
sg19
g20
sbsg18
I00
sg19
g27
sbsg21
(imyEvolve
Tree
p369
(dp370
g10
I3
sg11
(imyEvolve
Tree
p371
(dp372
g10
I2
sg11
(imyEvolve
Tree
p373
(dp374
g7
(imyEvolve
Tree
p375
(dp376
g10
I0
sg17
I00
sbsg10
I1
sg18
I01
sg19
g26
sbsg21
(imyEvolve
Tree
p377
(dp378
g10
I1
sg11
(imyEvolve
Tree
p379
(dp380
g10
I0
sg17
I00
sbsg21
(imyEvolve
Tree
p381
(dp382
g10
I0
sg16
F-0.4740900711817897
sg17
I01
sbsg18
I00
sg19
g40
sbsg18
I00
sg19
g40
sbsg21
(imyEvolve
Tree
p383
(dp384
g7
(imyEvolve
Tree
p385
(dp386
g7
(imyEvolve
Tree
p387
(dp388
g10
I0
sg17
I00
sbsg10
I1
sg18
I01
sg19
g26
sbsg10
I2
sg18
I01
sg19
g20
sbsg18
I00
sg19
g27
sbsg18
I00
sg19
g46
sbsg21
(imyEvolve
Tree
p389
(dp390
g10
I4
sg11
(imyEvolve
Tree
p391
(dp392
g10
I3
sg11
(imyEvolve
Tree
p393
(dp394
g10
I2
sg11
(imyEvolve
Tree
p395
(dp396
g7
(imyEvolve
Tree
p397
(dp398
g10
I0
sg17
I00
sbsg10
I1
sg18
I01
sg19
g47
sbsg21
(imyEvolve
Tree
p399
(dp400
g7
(imyEvolve
Tree
p401
(dp402
g10
I0
sg17
I00
sbsg10
I1
sg18
I01
sg19
g20
sbsg18
I00
sg19
g40
sbsg21
(imyEvolve
Tree
p403
(dp404
g7
(imyEvolve
Tree
p405
(dp406
g7
(imyEvolve
Tree
p407
(dp408
g10
I0
sg17
I00
sbsg10
I1
sg18
I01
sg19
g45
sbsg10
I2
sg18
I01
sg19
g45
sbsg18
I00
sg19
g46
sbsg21
(imyEvolve
Tree
p409
(dp410
g10
I3
sg11
(imyEvolve
Tree
p411
(dp412
g7
(imyEvolve
Tree
p413
(dp414
g10
I1
sg11
(imyEvolve
Tree
p415
(dp416
g10
I0
sg17
I00
sbsg21
(imyEvolve
Tree
p417
(dp418
g10
I0
sg17
I00
sbsg18
I00
sg19
g27
sbsg10
I2
sg18
I01
sg19
g47
sbsg21
(imyEvolve
Tree
p419
(dp420
g7
(imyEvolve
Tree
p421
(dp422
g7
(imyEvolve
Tree
p423
(dp424
g10
I0
sg16
F2.5391844024018138
sg17
I01
sbsg10
I1
sg18
I01
sg19
g47
sbsg10
I2
sg18
I01
sg19
g26
sbsg18
I00
sg19
g27
sbsg18
I00
sg19
g27
sbsg18
I00
sg19
g40
sba(imyEvolve
Tree
p425
(dp426
g7
(imyEvolve
Tree
p427
(dp428
g10
I4
sg11
(imyEvolve
Tree
p429
(dp430
g7
(imyEvolve
Tree
p431
(dp432
g7
(imyEvolve
Tree
p433
(dp434
g10
I1
sg11
(imyEvolve
Tree
p435
(dp436
g10
I0
sg17
I00
sbsg21
(imyEvolve
Tree
p437
(dp438
g10
I0
sg16
F-3.5564371294051647
sg17
I01
sbsg18
I00
sg19
g40
sbsg10
I2
sg18
I01
sg19
g47
sbsg10
I3
sg18
I01
sg19
g47
sbsg21
(imyEvolve
Tree
p439
(dp440
g7
(imyEvolve
Tree
p441
(dp442
g7
(imyEvolve
Tree
p443
(dp444
g7
(imyEvolve
Tree
p445
(dp446
g10
I0
sg17
I00
sbsg10
I1
sg18
I01
sg19
g47
sbsg10
I2
sg18
I01
sg19
g45
sbsg10
I3
sg18
I01
sg19
g20
sbsg18
I00
sg19
g46
sbsg10
I5
sg18
I01
sg19
g47
sba(imyEvolve
Tree
p447
(dp448
g10
I5
sg11
(imyEvolve
Tree
p449
(dp450
g7
(imyEvolve
Tree
p451
(dp452
g7
(imyEvolve
Tree
p453
(dp454
g10
I2
sg11
(imyEvolve
Tree
p455
(dp456
g7
(imyEvolve
Tree
p457
(dp458
g10
I0
sg17
I00
sbsg10
I1
sg18
I01
sg19
g26
sbsg21
(imyEvolve
Tree
p459
(dp460
g10
I1
sg11
(imyEvolve
Tree
p461
(dp462
g10
I0
sg17
I00
sbsg21
(imyEvolve
Tree
p463
(dp464
g10
I0
sg16
F0.6298245036274297
sg17
I01
sbsg18
I00
sg19
g27
sbsg18
I00
sg19
g40
sbsg10
I3
sg18
I01
sg19
g20
sbsg10
I4
sg18
I01
sg19
g47
sbsg21
(imyEvolve
Tree
p465
(dp466
g7
(imyEvolve
Tree
p467
(dp468
g10
I3
sg11
(imyEvolve
Tree
p469
(dp470
g7
(imyEvolve
Tree
p471
(dp472
g10
I1
sg11
(imyEvolve
Tree
p473
(dp474
g10
I0
sg17
I00
sbsg21
(imyEvolve
Tree
p475
(dp476
g10
I0
sg16
F2.9687613613869974
sg17
I01
sbsg18
I00
sg19
g27
sbsg10
I2
sg18
I01
sg19
g26
sbsg21
(imyEvolve
Tree
p477
(dp478
g10
I2
sg11
(imyEvolve
Tree
p479
(dp480
g7
(imyEvolve
Tree
p481
(dp482
g10
I0
sg16
F4.097753398003224
sg17
I01
sbsg10
I1
sg18
I01
sg19
g20
sbsg21
(imyEvolve
Tree
p483
(dp484
g7
(imyEvolve
Tree
p485
(dp486
g10
I0
sg16
F3.4343274083354434
sg17
I01
sbsg10
I1
sg18
I01
sg19
g45
sbsg18
I00
sg19
g40
sbsg18
I00
sg19
g46
sbsg10
I4
sg18
I01
sg19
g26
sbsg18
I00
sg19
g40
sba(imyEvolve
Tree
p487
(dp488
g7
(imyEvolve
Tree
p489
(dp490
g10
I2
sg11
(imyEvolve
Tree
p491
(dp492
g7
(imyEvolve
Tree
p493
(dp494
g10
I0
sg17
I00
sbsg10
I1
sg18
I01
sg19
g20
sbsg21
(imyEvolve
Tree
p495
(dp496
g7
(imyEvolve
Tree
p497
(dp498
g10
I0
sg17
I00
sbsg10
I1
sg18
I01
sg19
g45
sbsg18
I00
sg19
g46
sbsg10
I3
sg18
I01
sg19
g47
sba(imyEvolve
Tree
p499
(dp500
g10
I5
sg11
(imyEvolve
Tree
p501
(dp502
g7
(imyEvolve
Tree
p503
(dp504
g7
(imyEvolve
Tree
p505
(dp506
g10
I2
sg11
(imyEvolve
Tree
p507
(dp508
g10
I1
sg11
(imyEvolve
Tree
p509
(dp510
g10
I0
sg16
F-1.9633156065336745
sg17
I01
sbsg21
(imyEvolve
Tree
p511
(dp512
g10
I0
sg17
I00
sbsg18
I00
sg19
g27
sbsg21
(imyEvolve
Tree
p513
(dp514
g10
I1
sg11
(imyEvolve
Tree
p515
(dp516
g10
I0
sg17
I00
sbsg21
(imyEvolve
Tree
p517
(dp518
g10
I0
sg17
I00
sbsg18
I00
sg19
g27
sbsg18
I00
sg19
g46
sbsg10
I3
sg18
I01
sg19
g26
sbsg10
I4
sg18
I01
sg19
g26
sbsg21
(imyEvolve
Tree
p519
(dp520
g10
I4
sg11
(imyEvolve
Tree
p521
(dp522
g10
I3
sg11
(imyEvolve
Tree
p523
(dp524
g10
I2
sg11
(imyEvolve
Tree
p525
(dp526
g7
(imyEvolve
Tree
p527
(dp528
g10
I0
sg17
I00
sbsg10
I1
sg18
I01
sg19
g20
sbsg21
(imyEvolve
Tree
p529
(dp530
g10
I1
sg11
(imyEvolve
Tree
p531
(dp532
g10
I0
sg16
F3.5686549602852953
sg17
I01
sbsg21
(imyEvolve
Tree
p533
(dp534
g10
I0
sg16
F-2.536809197249761
sg17
I01
sbsg18
I00
sg19
g27
sbsg18
I00
sg19
g27
sbsg21
(imyEvolve
Tree
p535
(dp536
g7
(imyEvolve
Tree
p537
(dp538
g10
I1
sg11
(imyEvolve
Tree
p539
(dp540
g10
I0
sg16
F-1.2772525670342363
sg17
I01
sbsg21
(imyEvolve
Tree
p541
(dp542
g10
I0
sg16
F2.0559386303871747
sg17
I01
sbsg18
I00
sg19
g40
sbsg10
I2
sg18
I01
sg19
g20
sbsg18
I00
sg19
g27
sbsg21
(imyEvolve
Tree
p543
(dp544
g7
(imyEvolve
Tree
p545
(dp546
g7
(imyEvolve
Tree
p547
(dp548
g7
(imyEvolve
Tree
p549
(dp550
g10
I0
sg16
F0.9849249731203589
sg17
I01
sbsg10
I1
sg18
I01
sg19
g26
sbsg10
I2
sg18
I01
sg19
g47
sbsg10
I3
sg18
I01
sg19
g45
sbsg18
I00
sg19
g46
sbsg18
I00
sg19
g27
sba(imyEvolve
Tree
p551
(dp552
g7
(imyEvolve
Tree
p553
(dp554
g7
(imyEvolve
Tree
p555
(dp556
g10
I1
sg11
(imyEvolve
Tree
p557
(dp558
g10
I0
sg16
F4.470163236419429
sg17
I01
sbsg21
(imyEvolve
Tree
p559
(dp560
g10
I0
sg16
F0.7772768672210209
sg17
I01
sbsg18
I00
sg19
g40
sbsg10
I2
sg18
I01
sg19
g20
sbsg10
I3
sg18
I01
sg19
g47
sba(imyEvolve
Tree
p561
(dp562
g10
I5
sg11
(imyEvolve
Tree
p563
(dp564
g7
(imyEvolve
Tree
p565
(dp566
g10
I3
sg11
(imyEvolve
Tree
p567
(dp568
g10
I2
sg11
(imyEvolve
Tree
p569
(dp570
g7
(imyEvolve
Tree
p571
(dp572
g10
I0
sg17
I00
sbsg10
I1
sg18
I01
sg19
g47
sbsg21
(imyEvolve
Tree
p573
(dp574
g7
(imyEvolve
Tree
p575
(dp576
g10
I0
sg16
F3.985143049314445
sg17
I01
sbsg10
I1
sg18
I01
sg19
g45
sbsg18
I00
sg19
g40
sbsg21
(imyEvolve
Tree
p577
(dp578
g7
(imyEvolve
Tree
p579
(dp580
g10
I1
sg11
(imyEvolve
Tree
p581
(dp582
g10
I0
sg16
F4.73255540936313
sg17
I01
sbsg21
(imyEvolve
Tree
p583
(dp584
g10
I0
sg17
I00
sbsg18
I00
sg19
g27
sbsg10
I2
sg18
I01
sg19
g20
sbsg18
I00
sg19
g40
sbsg10
I4
sg18
I01
sg19
g20
sbsg21
(imyEvolve
Tree
p585
(dp586
g7
(imyEvolve
Tree
p587
(dp588
g7
(imyEvolve
Tree
p589
(dp590
g7
(imyEvolve
Tree
p591
(dp592
g7
(imyEvolve
Tree
p593
(dp594
g10
I0
sg17
I00
sbsg10
I1
sg18
I01
sg19
g20
sbsg10
I2
sg18
I01
sg19
g47
sbsg10
I3
sg18
I01
sg19
g47
sbsg10
I4
sg18
I01
sg19
g20
sbsg18
I00
sg19
g46
sba(imyEvolve
Tree
p595
(dp596
g7
(imyEvolve
Tree
p597
(dp598
g10
I3
sg11
(imyEvolve
Tree
p599
(dp600
g7
(imyEvolve
Tree
p601
(dp602
g7
(imyEvolve
Tree
p603
(dp604
g10
I0
sg17
I00
sbsg10
I1
sg18
I01
sg19
g47
sbsg10
I2
sg18
I01
sg19
g26
sbsg21
(imyEvolve
Tree
p605
(dp606
g10
I2
sg11
(imyEvolve
Tree
p607
(dp608
g10
I1
sg11
(imyEvolve
Tree
p609
(dp610
g10
I0
sg17
I00
sbsg21
(imyEvolve
Tree
p611
(dp612
g10
I0
sg17
I00
sbsg18
I00
sg19
g27
sbsg21
(imyEvolve
Tree
p613
(dp614
g10
I1
sg11
(imyEvolve
Tree
p615
(dp616
g10
I0
sg16
F-0.0830092478238793
sg17
I01
sbsg21
(imyEvolve
Tree
p617
(dp618
g10
I0
sg16
F-2.02969463635612
sg17
I01
sbsg18
I00
sg19
g40
sbsg18
I00
sg19
g27
sbsg18
I00
sg19
g27
sbsg10
I4
sg18
I01
sg19
g47
sba(imyEvolve
Tree
p619
(dp620
g10
I4
sg11
(imyEvolve
Tree
p621
(dp622
g7
(imyEvolve
Tree
p623
(dp624
g10
I2
sg11
(imyEvolve
Tree
p625
(dp626
g7
(imyEvolve
Tree
p627
(dp628
g10
I0
sg17
I00
sbsg10
I1
sg18
I01
sg19
g20
sbsg21
(imyEvolve
Tree
p629
(dp630
g10
I1
sg11
(imyEvolve
Tree
p631
(dp632
g10
I0
sg17
I00
sbsg21
(imyEvolve
Tree
p633
(dp634
g10
I0
sg16
F-3.469524122976533
sg17
I01
sbsg18
I00
sg19
g40
sbsg18
I00
sg19
g46
sbsg10
I3
sg18
I01
sg19
g20
sbsg21
(imyEvolve
Tree
p635
(dp636
g7
(imyEvolve
Tree
p637
(dp638
g10
I2
sg11
(imyEvolve
Tree
p639
(dp640
g7
(imyEvolve
Tree
p641
(dp642
g10
I0
sg17
I00
sbsg10
I1
sg18
I01
sg19
g45
sbsg21
(imyEvolve
Tree
p643
(dp644
g7
(imyEvolve
Tree
p645
(dp646
g10
I0
sg17
I00
sbsg10
I1
sg18
I01
sg19
g20
sbsg18
I00
sg19
g40
sbsg10
I3
sg18
I01
sg19
g26
sbsg18
I00
sg19
g46
sba(imyEvolve
Tree
p647
(dp648
g10
I4
sg11
(imyEvolve
Tree
p649
(dp650
g10
I3
sg11
(imyEvolve
Tree
p651
(dp652
g7
(imyEvolve
Tree
p653
(dp654
g10
I1
sg11
(imyEvolve
Tree
p655
(dp656
g10
I0
sg17
I00
sbsg21
(imyEvolve
Tree
p657
(dp658
g10
I0
sg17
I00
sbsg18
I00
sg19
g40
sbsg10
I2
sg18
I01
sg19
g45
sbsg21
(imyEvolve
Tree
p659
(dp660
g7
(imyEvolve
Tree
p661
(dp662
g10
I1
sg11
(imyEvolve
Tree
p663
(dp664
g10
I0
sg17
I00
sbsg21
(imyEvolve
Tree
p665
(dp666
g10
I0
sg16
F1.799766599394605
sg17
I01
sbsg18
I00
sg19
g46
sbsg10
I2
sg18
I01
sg19
g26
sbsg18
I00
sg19
g46
sbsg21
(imyEvolve
Tree
p667
(dp668
g10
I3
sg11
(imyEvolve
Tree
p669
(dp670
g7
(imyEvolve
Tree
p671
(dp672
g10
I1
sg11
(imyEvolve
Tree
p673
(dp674
g10
I0
sg17
I00
sbsg21
(imyEvolve
Tree
p675
(dp676
g10
I0
sg16
F0.2697856726199319
sg17
I01
sbsg18
I00
sg19
g27
sbsg10
I2
sg18
I01
sg19
g26
sbsg21
(imyEvolve
Tree
p677
(dp678
g7
(imyEvolve
Tree
p679
(dp680
g7
(imyEvolve
Tree
p681
(dp682
g10
I0
sg17
I00
sbsg10
I1
sg18
I01
sg19
g26
sbsg10
I2
sg18
I01
sg19
g47
sbsg18
I00
sg19
g46
sbsg18
I00
sg19
g46
sba(imyEvolve
Tree
p683
(dp684
g10
I4
sg11
(imyEvolve
Tree
p685
(dp686
g7
(imyEvolve
Tree
p687
(dp688
g7
(imyEvolve
Tree
p689
(dp690
g10
I1
sg11
(imyEvolve
Tree
p691
(dp692
g10
I0
sg17
I00
sbsg21
(imyEvolve
Tree
p693
(dp694
g10
I0
sg17
I00
sbsg18
I00
sg19
g40
sbsg10
I2
sg18
I01
sg19
g26
sbsg10
I3
sg18
I01
sg19
g47
sbsg21
(imyEvolve
Tree
p695
(dp696
g10
I3
sg11
(imyEvolve
Tree
p697
(dp698
g10
I2
sg11
(imyEvolve
Tree
p699
(dp700
g10
I1
sg11
(imyEvolve
Tree
p701
(dp702
g10
I0
sg17
I00
sbsg21
(imyEvolve
Tree
p703
(dp704
g10
I0
sg16
F-3.205485937517063
sg17
I01
sbsg18
I00
sg19
g27
sbsg21
(imyEvolve
Tree
p705
(dp706
g10
I1
sg11
(imyEvolve
Tree
p707
(dp708
g10
I0
sg17
I00
sbsg21
(imyEvolve
Tree
p709
(dp710
g10
I0
sg16
F-2.687345048432548
sg17
I01
sbsg18
I00
sg19
g40
sbsg18
I00
sg19
g40
sbsg21
(imyEvolve
Tree
p711
(dp712
g7
(imyEvolve
Tree
p713
(dp714
g7
(imyEvolve
Tree
p715
(dp716
g10
I0
sg17
I00
sbsg10
I1
sg18
I01
sg19
g20
sbsg10
I2
sg18
I01
sg19
g47
sbsg18
I00
sg19
g40
sbsg18
I00
sg19
g40
sba(imyEvolve
Tree
p717
(dp718
g7
(imyEvolve
Tree
p719
(dp720
g10
I3
sg11
(imyEvolve
Tree
p721
(dp722
g7
(imyEvolve
Tree
p723
(dp724
g10
I1
sg11
(imyEvolve
Tree
p725
(dp726
g10
I0
sg16
F-1.955056602255488
sg17
I01
sbsg21
(imyEvolve
Tree
p727
(dp728
g10
I0
sg16
F-1.3333091956891607
sg17
I01
sbsg18
I00
sg19
g46
sbsg10
I2
sg18
I01
sg19
g26
sbsg21
(imyEvolve
Tree
p729
(dp730
g7
(imyEvolve
Tree
p731
(dp732
g7
(imyEvolve
Tree
p733
(dp734
g10
I0
sg17
I00
sbsg10
I1
sg18
I01
sg19
g47
sbsg10
I2
sg18
I01
sg19
g26
sbsg18
I00
sg19
g46
sbsg10
I4
sg18
I01
sg19
g47
sba(imyEvolve
Tree
p735
(dp736
g7
(imyEvolve
Tree
p737
(dp738
g10
I4
sg11
(imyEvolve
Tree
p739
(dp740
g10
I3
sg11
(imyEvolve
Tree
p741
(dp742
g10
I2
sg11
(imyEvolve
Tree
p743
(dp744
g7
(imyEvolve
Tree
p745
(dp746
g10
I0
sg16
F-1.368187656635269
sg17
I01
sbsg10
I1
sg18
I01
sg19
g20
sbsg21
(imyEvolve
Tree
p747
(dp748
g10
I1
sg11
(imyEvolve
Tree
p749
(dp750
g10
I0
sg17
I00
sbsg21
(imyEvolve
Tree
p751
(dp752
g10
I0
sg16
F1.5959986822661563
sg17
I01
sbsg18
I00
sg19
g27
sbsg18
I00
sg19
g40
sbsg21
(imyEvolve
Tree
p753
(dp754
g7
(imyEvolve
Tree
p755
(dp756
g10
I1
sg11
(imyEvolve
Tree
p757
(dp758
g10
I0
sg17
I00
sbsg21
(imyEvolve
Tree
p759
(dp760
g10
I0
sg16
F-1.6260014194980688
sg17
I01
sbsg18
I00
sg19
g40
sbsg10
I2
sg18
I01
sg19
g26
sbsg18
I00
sg19
g27
sbsg21
(imyEvolve
Tree
p761
(dp762
g7
(imyEvolve
Tree
p763
(dp764
g10
I2
sg11
(imyEvolve
Tree
p765
(dp766
g7
(imyEvolve
Tree
p767
(dp768
g10
I0
sg16
F-4.3312134511487566
sg17
I01
sbsg10
I1
sg18
I01
sg19
g26
sbsg21
(imyEvolve
Tree
p769
(dp770
g10
I1
sg11
(imyEvolve
Tree
p771
(dp772
g10
I0
sg17
I00
sbsg21
(imyEvolve
Tree
p773
(dp774
g10
I0
sg16
F-4.3240111715022325
sg17
I01
sbsg18
I00
sg19
g27
sbsg18
I00
sg19
g27
sbsg10
I3
sg18
I01
sg19
g26
sbsg18
I00
sg19
g40
sbsg10
I5
sg18
I01
sg19
g47
sba(imyEvolve
Tree
p775
(dp776
g7
(imyEvolve
Tree
p777
(dp778
g10
I4
sg11
(imyEvolve
Tree
p779
(dp780
g10
I3
sg11
(imyEvolve
Tree
p781
(dp782
g7
(imyEvolve
Tree
p783
(dp784
g10
I1
sg11
(imyEvolve
Tree
p785
(dp786
g10
I0
sg16
F-0.057055797288452226
sg17
I01
sbsg21
(imyEvolve
Tree
p787
(dp788
g10
I0
sg16
F-2.8577091408155275
sg17
I01
sbsg18
I00
sg19
g46
sbsg10
I2
sg18
I01
sg19
g47
sbsg21
(imyEvolve
Tree
p789
(dp790
g7
(imyEvolve
Tree
p791
(dp792
g10
I1
sg11
(imyEvolve
Tree
p793
(dp794
g10
I0
sg17
I00
sbsg21
(imyEvolve
Tree
p795
(dp796
g10
I0
sg16
F-2.5001728752484818
sg17
I01
sbsg18
I00
sg19
g46
sbsg10
I2
sg18
I01
sg19
g26
sbsg18
I00
sg19
g40
sbsg21
(imyEvolve
Tree
p797
(dp798
g10
I3
sg11
(imyEvolve
Tree
p799
(dp800
g10
I2
sg11
(imyEvolve
Tree
p801
(dp802
g10
I1
sg11
(imyEvolve
Tree
p803
(dp804
g10
I0
sg16
F-2.627073789386545
sg17
I01
sbsg21
(imyEvolve
Tree
p805
(dp806
g10
I0
sg16
F-0.8790471805726128
sg17
I01
sbsg18
I00
sg19
g27
sbsg21
(imyEvolve
Tree
p807
(dp808
g10
I1
sg11
(imyEvolve
Tree
p809
(dp810
g10
I0
sg16
F0.5371650433935313
sg17
I01
sbsg21
(imyEvolve
Tree
p811
(dp812
g10
I0
sg16
F2.9092557459354076
sg17
I01
sbsg18
I00
sg19
g46
sbsg18
I00
sg19
g46
sbsg21
(imyEvolve
Tree
p813
(dp814
g7
(imyEvolve
Tree
p815
(dp816
g10
I1
sg11
(imyEvolve
Tree
p817
(dp818
g10
I0
sg17
I00
sbsg21
(imyEvolve
Tree
p819
(dp820
g10
I0
sg16
F-4.8033558274331325
sg17
I01
sbsg18
I00
sg19
g27
sbsg10
I2
sg18
I01
sg19
g47
sbsg18
I00
sg19
g46
sbsg18
I00
sg19
g40
sbsg10
I5
sg18
I01
sg19
g26
sba(imyEvolve
Tree
p821
(dp822
g10
I4
sg11
(imyEvolve
Tree
p823
(dp824
g10
I3
sg11
(imyEvolve
Tree
p825
(dp826
g10
I2
sg11
(imyEvolve
Tree
p827
(dp828
g7
(imyEvolve
Tree
p829
(dp830
g10
I0
sg17
I00
sbsg10
I1
sg18
I01
sg19
g20
sbsg21
(imyEvolve
Tree
p831
(dp832
g10
I1
sg11
(imyEvolve
Tree
p833
(dp834
g10
I0
sg17
I00
sbsg21
(imyEvolve
Tree
p835
(dp836
g10
I0
sg16
F-0.439081724137381
sg17
I01
sbsg18
I00
sg19
g40
sbsg18
I00
sg19
g46
sbsg21
(imyEvolve
Tree
p837
(dp838
g10
I2
sg11
(imyEvolve
Tree
p839
(dp840
g10
I1
sg11
(imyEvolve
Tree
p841
(dp842
g10
I0
sg16
F-2.176400621715419
sg17
I01
sbsg21
(imyEvolve
Tree
p843
(dp844
g10
I0
sg16
F-1.5139578368345843
sg17
I01
sbsg18
I00
sg19
g40
sbsg21
(imyEvolve
Tree
p845
(dp846
g7
(imyEvolve
Tree
p847
(dp848
g10
I0
sg17
I00
sbsg10
I1
sg18
I01
sg19
g45
sbsg18
I00
sg19
g46
sbsg18
I00
sg19
g46
sbsg21
(imyEvolve
Tree
p849
(dp850
g10
I3
sg11
(imyEvolve
Tree
p851
(dp852
g10
I2
sg11
(imyEvolve
Tree
p853
(dp854
g10
I1
sg11
(imyEvolve
Tree
p855
(dp856
g10
I0
sg17
I00
sbsg21
(imyEvolve
Tree
p857
(dp858
g10
I0
sg16
F-1.3490532380197875
sg17
I01
sbsg18
I00
sg19
g27
sbsg21
(imyEvolve
Tree
p859
(dp860
g7
(imyEvolve
Tree
p861
(dp862
g10
I0
sg17
I00
sbsg10
I1
sg18
I01
sg19
g20
sbsg18
I00
sg19
g46
sbsg21
(imyEvolve
Tree
p863
(dp864
g7
(imyEvolve
Tree
p865
(dp866
g7
(imyEvolve
Tree
p867
(dp868
g10
I0
sg17
I00
sbsg10
I1
sg18
I01
sg19
g45
sbsg10
I2
sg18
I01
sg19
g20
sbsg18
I00
sg19
g40
sbsg18
I00
sg19
g40
sbaa(lp869
(imyEvolve
Tree
p870
(dp871
g10
I4
sg11
(imyEvolve
Tree
p872
(dp873
g7
(imyEvolve
Tree
p874
(dp875
g10
I2
sg11
(imyEvolve
Tree
p876
(dp877
g10
I1
sg11
(imyEvolve
Tree
p878
(dp879
g10
I0
sg16
F2.2031208305081975
sg17
I01
sbsg21
(imyEvolve
Tree
p880
(dp881
g10
I0
sg17
I00
sbsg18
I00
sg19
g40
sbsg21
(imyEvolve
Tree
p882
(dp883
g10
I1
sg11
(imyEvolve
Tree
p884
(dp885
g10
I0
sg16
F-1.7681925069559035
sg17
I01
sbsg21
(imyEvolve
Tree
p886
(dp887
g10
I0
sg17
I00
sbsg18
I00
sg19
g46
sbsg18
I00
sg19
g27
sbsg10
I3
sg18
I01
sg19
g45
sbsg21
(imyEvolve
Tree
p888
(dp889
g10
I3
sg11
(imyEvolve
Tree
p890
(dp891
g7
(imyEvolve
Tree
p892
(dp893
g10
I1
sg11
(imyEvolve
Tree
p894
(dp895
g10
I0
sg16
F-0.02100693057172265
sg17
I01
sbsg21
(imyEvolve
Tree
p896
(dp897
g10
I0
sg16
F1.3039493485916243
sg17
I01
sbsg18
I00
sg19
g46
sbsg10
I2
sg18
I01
sg19
g47
sbsg21
(imyEvolve
Tree
p898
(dp899
g10
I2
sg11
(imyEvolve
Tree
p900
(dp901
g10
I1
sg11
(imyEvolve
Tree
p902
(dp903
g10
I0
sg16
F-2.722869086944446
sg17
I01
sbsg21
(imyEvolve
Tree
p904
(dp905
g10
I0
sg17
I00
sbsg18
I00
sg19
g40
sbsg21
(imyEvolve
Tree
p906
(dp907
g7
(imyEvolve
Tree
p908
(dp909
g10
I0
sg16
F1.8735328987968378
sg17
I01
sbsg10
I1
sg18
I01
sg19
g26
sbsg18
I00
sg19
g46
sbsg18
I00
sg19
g40
sbsg18
I00
sg19
g46
sba(imyEvolve
Tree
p910
(dp911
g7
(imyEvolve
Tree
p912
(dp913
g10
I4
sg11
(imyEvolve
Tree
p914
(dp915
g10
I3
sg11
(imyEvolve
Tree
p916
(dp917
g7
(imyEvolve
Tree
p918
(dp919
g7
(imyEvolve
Tree
p920
(dp921
g10
I0
sg17
I00
sbsg10
I1
sg18
I01
sg19
g47
sbsg10
I2
sg18
I01
sg19
g45
sbsg21
(imyEvolve
Tree
p922
(dp923
g7
(imyEvolve
Tree
p924
(dp925
g10
I1
sg11
(imyEvolve
Tree
p926
(dp927
g10
I0
sg16
F1.2481624415691073
sg17
I01
sbsg21
(imyEvolve
Tree
p928
(dp929
g10
I0
sg17
I00
sbsg18
I00
sg19
g46
sbsg10
I2
sg18
I01
sg19
g45
sbsg18
I00
sg19
g46
sbsg21
(imyEvolve
Tree
p930
(dp931
g10
I3
sg11
(imyEvolve
Tree
p932
(dp933
g10
I2
sg11
(imyEvolve
Tree
p934
(dp935
g10
I1
sg11
(imyEvolve
Tree
p936
(dp937
g10
I0
sg17
I00
sbsg21
(imyEvolve
Tree
p938
(dp939
g10
I0
sg16
F-0.3169876126238824
sg17
I01
sbsg18
I00
sg19
g27
sbsg21
(imyEvolve
Tree
p940
(dp941
g7
(imyEvolve
Tree
p942
(dp943
g10
I0
sg16
F1.2811884920093792
sg17
I01
sbsg10
I1
sg18
I01
sg19
g26
sbsg18
I00
sg19
g27
sbsg21
(imyEvolve
Tree
p944
(dp945
g10
I2
sg11
(imyEvolve
Tree
p946
(dp947
g7
(imyEvolve
Tree
p948
(dp949
g10
I0
sg17
I00
sbsg10
I1
sg18
I01
sg19
g20
sbsg21
(imyEvolve
Tree
p950
(dp951
g7
(imyEvolve
Tree
p952
(dp953
g10
I0
sg16
F-3.5158539294684363
sg17
I01
sbsg10
I1
sg18
I01
sg19
g45
sbsg18
I00
sg19
g46
sbsg18
I00
sg19
g46
sbsg18
I00
sg19
g40
sbsg10
I5
sg18
I01
sg19
g20
sba(imyEvolve
Tree
p954
(dp955
g10
I3
sg11
(imyEvolve
Tree
p956
(dp957
g7
(imyEvolve
Tree
p958
(dp959
g10
I1
sg11
(imyEvolve
Tree
p960
(dp961
g10
I0
sg16
F1.6808447878947295
sg17
I01
sbsg21
(imyEvolve
Tree
p962
(dp963
g10
I0
sg17
I00
sbsg18
I00
sg19
g46
sbsg10
I2
sg18
I01
sg19
g26
sbsg21
(imyEvolve
Tree
p964
(dp965
g7
(imyEvolve
Tree
p966
(dp967
g7
(imyEvolve
Tree
p968
(dp969
g10
I0
sg17
I00
sbsg10
I1
sg18
I01
sg19
g47
sbsg10
I2
sg18
I01
sg19
g26
sbsg18
I00
sg19
g40
sba(imyEvolve
Tree
p970
(dp971
g7
(imyEvolve
Tree
p972
(dp973
g7
(imyEvolve
Tree
p974
(dp975
g10
I3
sg11
(imyEvolve
Tree
p976
(dp977
g7
(imyEvolve
Tree
p978
(dp979
g7
(imyEvolve
Tree
p980
(dp981
g10
I0
sg17
I00
sbsg10
I1
sg18
I01
sg19
g26
sbsg10
I2
sg18
I01
sg19
g20
sbsg21
(imyEvolve
Tree
p982
(dp983
g7
(imyEvolve
Tree
p984
(dp985
g7
(imyEvolve
Tree
p986
(dp987
g10
I0
sg16
F-0.8009604866280551
sg17
I01
sbsg10
I1
sg18
I01
sg19
g45
sbsg10
I2
sg18
I01
sg19
g26
sbsg18
I00
sg19
g46
sbsg10
I4
sg18
I01
sg19
g26
sbsg10
I5
sg18
I01
sg19
g20
sba(imyEvolve
Tree
p988
(dp989
g10
I5
sg11
(imyEvolve
Tree
p990
(dp991
g10
I4
sg11
(imyEvolve
Tree
p992
(dp993
g7
(imyEvolve
Tree
p994
(dp995
g10
I2
sg11
(imyEvolve
Tree
p996
(dp997
g10
I1
sg11
(imyEvolve
Tree
p998
(dp999
g10
I0
sg16
F-4.308053104502543
sg17
I01
sbsg21
(imyEvolve
Tree
p1000
(dp1001
g10
I0
sg16
F4.117509026245163
sg17
I01
sbsg18
I00
sg19
g46
sbsg21
(imyEvolve
Tree
p1002
(dp1003
g7
(imyEvolve
Tree
p1004
(dp1005
g10
I0
sg17
I00
sbsg10
I1
sg18
I01
sg19
g20
sbsg18
I00
sg19
g27
sbsg10
I3
sg18
I01
sg19
g47
sbsg21
(imyEvolve
Tree
p1006
(dp1007
g10
I3
sg11
(imyEvolve
Tree
p1008
(dp1009
g10
I2
sg11
(imyEvolve
Tree
p1010
(dp1011
g10
I1
sg11
(imyEvolve
Tree
p1012
(dp1013
g10
I0
sg17
I00
sbsg21
(imyEvolve
Tree
p1014
(dp1015
g10
I0
sg16
F1.8907749658704907
sg17
I01
sbsg18
I00
sg19
g27
sbsg21
(imyEvolve
Tree
p1016
(dp1017
g7
(imyEvolve
Tree
p1018
(dp1019
g10
I0
sg17
I00
sbsg10
I1
sg18
I01
sg19
g47
sbsg18
I00
sg19
g40
sbsg21
(imyEvolve
Tree
p1020
(dp1021
g7
(imyEvolve
Tree
p1022
(dp1023
g10
I1
sg11
(imyEvolve
Tree
p1024
(dp1025
g10
I0
sg16
F-4.237613858204413
sg17
I01
sbsg21
(imyEvolve
Tree
p1026
(dp1027
g10
I0
sg17
I00
sbsg18
I00
sg19
g46
sbsg10
I2
sg18
I01
sg19
g45
sbsg18
I00
sg19
g27
sbsg18
I00
sg19
g40
sbsg21
(imyEvolve
Tree
p1028
(dp1029
g7
(imyEvolve
Tree
p1030
(dp1031
g7
(imyEvolve
Tree
p1032
(dp1033
g7
(imyEvolve
Tree
p1034
(dp1035
g7
(imyEvolve
Tree
p1036
(dp1037
g10
I0
sg16
F-2.255073711446245
sg17
I01
sbsg10
I1
sg18
I01
sg19
g26
sbsg10
I2
sg18
I01
sg19
g26
sbsg10
I3
sg18
I01
sg19
g20
sbsg10
I4
sg18
I01
sg19
g47
sbsg18
I00
sg19
g46
sba(imyEvolve
Tree
p1038
(dp1039
g7
(imyEvolve
Tree
p1040
(dp1041
g7
(imyEvolve
Tree
p1042
(dp1043
g7
(imyEvolve
Tree
p1044
(dp1045
g10
I0
sg17
I00
sbsg10
I1
sg18
I01
sg19
g26
sbsg10
I2
sg18
I01
sg19
g45
sbsg10
I3
sg18
I01
sg19
g20
sba(imyEvolve
Tree
p1046
(dp1047
g7
(imyEvolve
Tree
p1048
(dp1049
g10
I4
sg11
(imyEvolve
Tree
p1050
(dp1051
g7
(imyEvolve
Tree
p1052
(dp1053
g7
(imyEvolve
Tree
p1054
(dp1055
g10
I1
sg11
(imyEvolve
Tree
p1056
(dp1057
g10
I0
sg17
I00
sbsg21
(imyEvolve
Tree
p1058
(dp1059
g10
I0
sg17
I00
sbsg18
I00
sg19
g40
sbsg10
I2
sg18
I01
sg19
g47
sbsg10
I3
sg18
I01
sg19
g47
sbsg21
(imyEvolve
Tree
p1060
(dp1061
g10
I3
sg11
(imyEvolve
Tree
p1062
(dp1063
g10
I2
sg11
(imyEvolve
Tree
p1064
(dp1065
g10
I1
sg11
(imyEvolve
Tree
p1066
(dp1067
g10
I0
sg17
I00
sbsg21
(imyEvolve
Tree
p1068
(dp1069
g10
I0
sg16
F1.8882378586417925
sg17
I01
sbsg18
I00
sg19
g27
sbsg21
(imyEvolve
Tree
p1070
(dp1071
g7
(imyEvolve
Tree
p1072
(dp1073
g10
I0
sg16
F1.0994885121821536
sg17
I01
sbsg10
I1
sg18
I01
sg19
g20
sbsg18
I00
sg19
g27
sbsg21
(imyEvolve
Tree
p1074
(dp1075
g10
I2
sg11
(imyEvolve
Tree
p1076
(dp1077
g10
I1
sg11
(imyEvolve
Tree
p1078
(dp1079
g10
I0
sg16
F0.8283648589716002
sg17
I01
sbsg21
(imyEvolve
Tree
p1080
(dp1081
g10
I0
sg17
I00
sbsg18
I00
sg19
g40
sbsg21
(imyEvolve
Tree
p1082
(dp1083
g10
I1
sg11
(imyEvolve
Tree
p1084
(dp1085
g10
I0
sg16
F-0.4403188625206056
sg17
I01
sbsg21
(imyEvolve
Tree
p1086
(dp1087
g10
I0
sg17
I00
sbsg18
I00
sg19
g46
sbsg18
I00
sg19
g27
sbsg18
I00
sg19
g40
sbsg18
I00
sg19
g46
sbsg10
I5
sg18
I01
sg19
g45
sba(imyEvolve
Tree
p1088
(dp1089
g7
(imyEvolve
Tree
p1090
(dp1091
g10
I3
sg11
(imyEvolve
Tree
p1092
(dp1093
g10
I2
sg11
(imyEvolve
Tree
p1094
(dp1095
g7
(imyEvolve
Tree
p1096
(dp1097
g10
I0
sg17
I00
sbsg10
I1
sg18
I01
sg19
g26
sbsg21
(imyEvolve
Tree
p1098
(dp1099
g10
I1
sg11
(imyEvolve
Tree
p1100
(dp1101
g10
I0
sg16
F4.324839654126194
sg17
I01
sbsg21
(imyEvolve
Tree
p1102
(dp1103
g10
I0
sg17
I00
sbsg18
I00
sg19
g40
sbsg18
I00
sg19
g27
sbsg21
(imyEvolve
Tree
p1104
(dp1105
g7
(imyEvolve
Tree
p1106
(dp1107
g10
I1
sg11
(imyEvolve
Tree
p1108
(dp1109
g10
I0
sg16
F-2.3947606370857013
sg17
I01
sbsg21
(imyEvolve
Tree
p1110
(dp1111
g10
I0
sg16
F3.645180924854202
sg17
I01
sbsg18
I00
sg19
g46
sbsg10
I2
sg18
I01
sg19
g26
sbsg18
I00
sg19
g27
sbsg10
I4
sg18
I01
sg19
g26
sba(imyEvolve
Tree
p1112
(dp1113
g7
(imyEvolve
Tree
p1114
(dp1115
g10
I3
sg11
(imyEvolve
Tree
p1116
(dp1117
g7
(imyEvolve
Tree
p1118
(dp1119
g7
(imyEvolve
Tree
p1120
(dp1121
g10
I0
sg17
I00
sbsg10
I1
sg18
I01
sg19
g20
sbsg10
I2
sg18
I01
sg19
g45
sbsg21
(imyEvolve
Tree
p1122
(dp1123
g10
I2
sg11
(imyEvolve
Tree
p1124
(dp1125
g7
(imyEvolve
Tree
p1126
(dp1127
g10
I0
sg16
F-0.0797507425187991
sg17
I01
sbsg10
I1
sg18
I01
sg19
g26
sbsg21
(imyEvolve
Tree
p1128
(dp1129
g10
I1
sg11
(imyEvolve
Tree
p1130
(dp1131
g10
I0
sg17
I00
sbsg21
(imyEvolve
Tree
p1132
(dp1133
g10
I0
sg17
I00
sbsg18
I00
sg19
g40
sbsg18
I00
sg19
g40
sbsg18
I00
sg19
g46
sbsg10
I4
sg18
I01
sg19
g26
sba(imyEvolve
Tree
p1134
(dp1135
g7
(imyEvolve
Tree
p1136
(dp1137
g10
I4
sg11
(imyEvolve
Tree
p1138
(dp1139
g10
I3
sg11
(imyEvolve
Tree
p1140
(dp1141
g7
(imyEvolve
Tree
p1142
(dp1143
g10
I1
sg11
(imyEvolve
Tree
p1144
(dp1145
g10
I0
sg17
I00
sbsg21
(imyEvolve
Tree
p1146
(dp1147
g10
I0
sg17
I00
sbsg18
I00
sg19
g46
sbsg10
I2
sg18
I01
sg19
g45
sbsg21
(imyEvolve
Tree
p1148
(dp1149
g7
(imyEvolve
Tree
p1150
(dp1151
g7
(imyEvolve
Tree
p1152
(dp1153
g10
I0
sg17
I00
sbsg10
I1
sg18
I01
sg19
g20
sbsg10
I2
sg18
I01
sg19
g26
sbsg18
I00
sg19
g40
sbsg21
(imyEvolve
Tree
p1154
(dp1155
g10
I3
sg11
(imyEvolve
Tree
p1156
(dp1157
g10
I2
sg11
(imyEvolve
Tree
p1158
(dp1159
g10
I1
sg11
(imyEvolve
Tree
p1160
(dp1161
g10
I0
sg17
I00
sbsg21
(imyEvolve
Tree
p1162
(dp1163
g10
I0
sg17
I00
sbsg18
I00
sg19
g46
sbsg21
(imyEvolve
Tree
p1164
(dp1165
g7
(imyEvolve
Tree
p1166
(dp1167
g10
I0
sg17
I00
sbsg10
I1
sg18
I01
sg19
g26
sbsg18
I00
sg19
g27
sbsg21
(imyEvolve
Tree
p1168
(dp1169
g10
I2
sg11
(imyEvolve
Tree
p1170
(dp1171
g7
(imyEvolve
Tree
p1172
(dp1173
g10
I0
sg16
F1.586141157693027
sg17
I01
sbsg10
I1
sg18
I01
sg19
g26
sbsg21
(imyEvolve
Tree
p1174
(dp1175
g10
I1
sg11
(imyEvolve
Tree
p1176
(dp1177
g10
I0
sg17
I00
sbsg21
(imyEvolve
Tree
p1178
(dp1179
g10
I0
sg17
I00
sbsg18
I00
sg19
g27
sbsg18
I00
sg19
g40
sbsg18
I00
sg19
g40
sbsg18
I00
sg19
g46
sbsg10
I5
sg18
I01
sg19
g26
sba(imyEvolve
Tree
p1180
(dp1181
g10
I3
sg11
(imyEvolve
Tree
p1182
(dp1183
g10
I2
sg11
(imyEvolve
Tree
p1184
(dp1185
g10
I1
sg11
(imyEvolve
Tree
p1186
(dp1187
g10
I0
sg16
F-1.4661072349163815
sg17
I01
sbsg21
(imyEvolve
Tree
p1188
(dp1189
g10
I0
sg17
I00
sbsg18
I00
sg19
g27
sbsg21
(imyEvolve
Tree
p1190
(dp1191
g10
I1
sg11
(imyEvolve
Tree
p1192
(dp1193
g10
I0
sg16
F1.2182712817789776
sg17
I01
sbsg21
(imyEvolve
Tree
p1194
(dp1195
g10
I0
sg16
F-4.328851628731477
sg17
I01
sbsg18
I00
sg19
g27
sbsg18
I00
sg19
g40
sbsg21
(imyEvolve
Tree
p1196
(dp1197
g7
(imyEvolve
Tree
p1198
(dp1199
g7
(imyEvolve
Tree
p1200
(dp1201
g10
I0
sg17
I00
sbsg10
I1
sg18
I01
sg19
g26
sbsg10
I2
sg18
I01
sg19
g20
sbsg18
I00
sg19
g46
sba(imyEvolve
Tree
p1202
(dp1203
g7
(imyEvolve
Tree
p1204
(dp1205
g7
(imyEvolve
Tree
p1206
(dp1207
g7
(imyEvolve
Tree
p1208
(dp1209
g7
(imyEvolve
Tree
p1210
(dp1211
g7
(imyEvolve
Tree
p1212
(dp1213
g10
I0
sg16
F-2.7440082231841636
sg17
I01
sbsg10
I1
sg18
I01
sg19
g47
sbsg10
I2
sg18
I01
sg19
g47
sbsg10
I3
sg18
I01
sg19
g45
sbsg10
I4
sg18
I01
sg19
g26
sbsg10
I5
sg18
I01
sg19
g20
sba(imyEvolve
Tree
p1214
(dp1215
g7
(imyEvolve
Tree
p1216
(dp1217
g7
(imyEvolve
Tree
p1218
(dp1219
g10
I0
sg17
I00
sbsg10
I1
sg18
I01
sg19
g20
sbsg10
I2
sg18
I01
sg19
g45
sba(imyEvolve
Tree
p1220
(dp1221
g7
(imyEvolve
Tree
p1222
(dp1223
g10
I4
sg11
(imyEvolve
Tree
p1224
(dp1225
g10
I3
sg11
(imyEvolve
Tree
p1226
(dp1227
g7
(imyEvolve
Tree
p1228
(dp1229
g7
(imyEvolve
Tree
p1230
(dp1231
g10
I0
sg17
I00
sbsg10
I1
sg18
I01
sg19
g47
sbsg10
I2
sg18
I01
sg19
g45
sbsg21
(imyEvolve
Tree
p1232
(dp1233
g7
(imyEvolve
Tree
p1234
(dp1235
g7
(imyEvolve
Tree
p1236
(dp1237
g10
I0
sg16
F1.046453670231796
sg17
I01
sbsg10
I1
sg18
I01
sg19
g47
sbsg10
I2
sg18
I01
sg19
g45
sbsg18
I00
sg19
g27
sbsg21
(imyEvolve
Tree
p1238
(dp1239
g10
I3
sg11
(imyEvolve
Tree
p1240
(dp1241
g7
(imyEvolve
Tree
p1242
(dp1243
g7
(imyEvolve
Tree
p1244
(dp1245
g10
I0
sg16
F-1.0845495694600826
sg17
I01
sbsg10
I1
sg18
I01
sg19
g47
sbsg10
I2
sg18
I01
sg19
g20
sbsg21
(imyEvolve
Tree
p1246
(dp1247
g10
I2
sg11
(imyEvolve
Tree
p1248
(dp1249
g10
I1
sg11
(imyEvolve
Tree
p1250
(dp1251
g10
I0
sg17
I00
sbsg21
(imyEvolve
Tree
p1252
(dp1253
g10
I0
sg16
F0.02012976776176867
sg17
I01
sbsg18
I00
sg19
g40
sbsg21
(imyEvolve
Tree
p1254
(dp1255
g10
I1
sg11
(imyEvolve
Tree
p1256
(dp1257
g10
I0
sg16
F3.6161627788370243
sg17
I01
sbsg21
(imyEvolve
Tree
p1258
(dp1259
g10
I0
sg17
I00
sbsg18
I00
sg19
g40
sbsg18
I00
sg19
g46
sbsg18
I00
sg19
g40
sbsg18
I00
sg19
g46
sbsg10
I5
sg18
I01
sg19
g26
sba(imyEvolve
Tree
p1260
(dp1261
g10
I5
sg11
(imyEvolve
Tree
p1262
(dp1263
g10
I4
sg11
(imyEvolve
Tree
p1264
(dp1265
g10
I3
sg11
(imyEvolve
Tree
p1266
(dp1267
g10
I2
sg11
(imyEvolve
Tree
p1268
(dp1269
g10
I1
sg11
(imyEvolve
Tree
p1270
(dp1271
g10
I0
sg17
I00
sbsg21
(imyEvolve
Tree
p1272
(dp1273
g10
I0
sg16
F-2.9487584643712528
sg17
I01
sbsg18
I00
sg19
g46
sbsg21
(imyEvolve
Tree
p1274
(dp1275
g10
I1
sg11
(imyEvolve
Tree
p1276
(dp1277
g10
I0
sg17
I00
sbsg21
(imyEvolve
Tree
p1278
(dp1279
g10
I0
sg17
I00
sbsg18
I00
sg19
g40
sbsg18
I00
sg19
g27
sbsg21
(imyEvolve
Tree
p1280
(dp1281
g10
I2
sg11
(imyEvolve
Tree
p1282
(dp1283
g10
I1
sg11
(imyEvolve
Tree
p1284
(dp1285
g10
I0
sg16
F-0.9269099262529457
sg17
I01
sbsg21
(imyEvolve
Tree
p1286
(dp1287
g10
I0
sg17
I00
sbsg18
I00
sg19
g27
sbsg21
(imyEvolve
Tree
p1288
(dp1289
g10
I1
sg11
(imyEvolve
Tree
p1290
(dp1291
g10
I0
sg17
I00
sbsg21
(imyEvolve
Tree
p1292
(dp1293
g10
I0
sg16
F-2.97909891696397
sg17
I01
sbsg18
I00
sg19
g27
sbsg18
I00
sg19
g46
sbsg18
I00
sg19
g46
sbsg21
(imyEvolve
Tree
p1294
(dp1295
g10
I3
sg11
(imyEvolve
Tree
p1296
(dp1297
g7
(imyEvolve
Tree
p1298
(dp1299
g7
(imyEvolve
Tree
p1300
(dp1301
g10
I0
sg16
F-2.7446965184055863
sg17
I01
sbsg10
I1
sg18
I01
sg19
g45
sbsg10
I2
sg18
I01
sg19
g45
sbsg21
(imyEvolve
Tree
p1302
(dp1303
g7
(imyEvolve
Tree
p1304
(dp1305
g10
I1
sg11
(imyEvolve
Tree
p1306
(dp1307
g10
I0
sg16
F1.1816418054094893
sg17
I01
sbsg21
(imyEvolve
Tree
p1308
(dp1309
g10
I0
sg17
I00
sbsg18
I00
sg19
g27
sbsg10
I2
sg18
I01
sg19
g26
sbsg18
I00
sg19
g40
sbsg18
I00
sg19
g27
sbsg21
(imyEvolve
Tree
p1310
(dp1311
g10
I4
sg11
(imyEvolve
Tree
p1312
(dp1313
g10
I3
sg11
(imyEvolve
Tree
p1314
(dp1315
g7
(imyEvolve
Tree
p1316
(dp1317
g7
(imyEvolve
Tree
p1318
(dp1319
g10
I0
sg17
I00
sbsg10
I1
sg18
I01
sg19
g26
sbsg10
I2
sg18
I01
sg19
g20
sbsg21
(imyEvolve
Tree
p1320
(dp1321
g7
(imyEvolve
Tree
p1322
(dp1323
g10
I1
sg11
(imyEvolve
Tree
p1324
(dp1325
g10
I0
sg17
I00
sbsg21
(imyEvolve
Tree
p1326
(dp1327
g10
I0
sg16
F-0.9581486104742165
sg17
I01
sbsg18
I00
sg19
g46
sbsg10
I2
sg18
I01
sg19
g45
sbsg18
I00
sg19
g40
sbsg21
(imyEvolve
Tree
p1328
(dp1329
g10
I3
sg11
(imyEvolve
Tree
p1330
(dp1331
g7
(imyEvolve
Tree
p1332
(dp1333
g7
(imyEvolve
Tree
p1334
(dp1335
g10
I0
sg17
I00
sbsg10
I1
sg18
I01
sg19
g26
sbsg10
I2
sg18
I01
sg19
g26
sbsg21
(imyEvolve
Tree
p1336
(dp1337
g10
I2
sg11
(imyEvolve
Tree
p1338
(dp1339
g10
I1
sg11
(imyEvolve
Tree
p1340
(dp1341
g10
I0
sg16
F1.527542340388787
sg17
I01
sbsg21
(imyEvolve
Tree
p1342
(dp1343
g10
I0
sg16
F4.297918831680509
sg17
I01
sbsg18
I00
sg19
g40
sbsg21
(imyEvolve
Tree
p1344
(dp1345
g10
I1
sg11
(imyEvolve
Tree
p1346
(dp1347
g10
I0
sg17
I00
sbsg21
(imyEvolve
Tree
p1348
(dp1349
g10
I0
sg16
F0.48539600446768816
sg17
I01
sbsg18
I00
sg19
g46
sbsg18
I00
sg19
g40
sbsg18
I00
sg19
g46
sbsg18
I00
sg19
g40
sbsg18
I00
sg19
g46
sba(imyEvolve
Tree
p1350
(dp1351
g10
I2
sg11
(imyEvolve
Tree
p1352
(dp1353
g10
I1
sg11
(imyEvolve
Tree
p1354
(dp1355
g10
I0
sg17
I00
sbsg21
(imyEvolve
Tree
p1356
(dp1357
g10
I0
sg17
I00
sbsg18
I00
sg19
g27
sbsg21
(imyEvolve
Tree
p1358
(dp1359
g7
(imyEvolve
Tree
p1360
(dp1361
g10
I0
sg16
F2.1709274855905374
sg17
I01
sbsg10
I1
sg18
I01
sg19
g26
sbsg18
I00
sg19
g40
sba(imyEvolve
Tree
p1362
(dp1363
g10
I2
sg11
(imyEvolve
Tree
p1364
(dp1365
g7
(imyEvolve
Tree
p1366
(dp1367
g10
I0
sg16
F0.5044209580848893
sg17
I01
sbsg10
I1
sg18
I01
sg19
g47
sbsg21
(imyEvolve
Tree
p1368
(dp1369
g10
I1
sg11
(imyEvolve
Tree
p1370
(dp1371
g10
I0
sg17
I00
sbsg21
(imyEvolve
Tree
p1372
(dp1373
g10
I0
sg16
F0.6630826900726134
sg17
I01
sbsg18
I00
sg19
g40
sbsg18
I00
sg19
g27
sba(imyEvolve
Tree
p1374
(dp1375
g7
(imyEvolve
Tree
p1376
(dp1377
g7
(imyEvolve
Tree
p1378
(dp1379
g10
I2
sg11
(imyEvolve
Tree
p1380
(dp1381
g7
(imyEvolve
Tree
p1382
(dp1383
g10
I0
sg17
I00
sbsg10
I1
sg18
I01
sg19
g45
sbsg21
(imyEvolve
Tree
p1384
(dp1385
g7
(imyEvolve
Tree
p1386
(dp1387
g10
I0
sg16
F-1.333991338518321
sg17
I01
sbsg10
I1
sg18
I01
sg19
g47
sbsg18
I00
sg19
g46
sbsg10
I3
sg18
I01
sg19
g45
sbsg10
I4
sg18
I01
sg19
g20
sbaasS'weightSharing'
p1388
(lp1389
I00
aI00
asS'fitnessValid'
p1390
I00
sS'fitness'
p1391
cnumpy.core.multiarray
scalar
p1392
(cnumpy
dtype
p1393
(S'f8'
p1394
I0
I1
tp1395
Rp1396
(I3
S'<'
p1397
NNNI-1
I-1
I0
tp1398
bS'\x00\xe8H.K\x90M\xbf'
p1399
tp1400
Rp1401
sS'alpha'
p1402
F0.007109326058103012
sS'resolution'
p1403
I94
sb.