(imyEvolve
Individual
p0
(dp1
S'funcs'
p2
(lp3
(lp4
(imyEvolve
Tree
p5
(dp6
S'below'
p7
(imyEvolve
Tree
p8
(dp9
S'left'
p10
(imyEvolve
Tree
p11
(dp12
g7
(imyEvolve
Tree
p13
(dp14
g10
(imyEvolve
Tree
p15
(dp16
g7
(imyEvolve
Tree
p17
(dp18
S'depth'
p19
I0
sS'constant'
p20
F-2.9364946928065008
sS'isConstant'
p21
I01
sbsg19
I1
sS'single'
p22
I01
sS'op'
p23
cmath
cos
p24
sbsg19
I2
sS'right'
p25
(imyEvolve
Tree
p26
(dp27
g7
(imyEvolve
Tree
p28
(dp29
g19
I0
sg20
F-3.572471582026553
sg21
I01
sbsg19
I1
sg22
I01
sg23
g24
sbsg22
I00
sg23
coperator
mul
p30
sbsg19
I3
sg22
I01
sg23
g24
sbsg19
I4
sg25
(imyEvolve
Tree
p31
(dp32
g10
(imyEvolve
Tree
p33
(dp34
g10
(imyEvolve
Tree
p35
(dp36
g10
(imyEvolve
Tree
p37
(dp38
g19
I0
sg21
I00
sbsg19
I1
sg25
(imyEvolve
Tree
p39
(dp40
g19
I0
sg21
I00
sbsg22
I00
sg23
coperator
sub
p41
sbsg19
I2
sg25
(imyEvolve
Tree
p42
(dp43
g7
(imyEvolve
Tree
p44
(dp45
g19
I0
sg20
F2.1304730869402917
sg21
I01
sbsg19
I1
sg22
I01
sg23
cmyEvolve
square
p46
sbsg22
I00
sg23
g30
sbsg19
I3
sg25
(imyEvolve
Tree
p47
(dp48
g7
(imyEvolve
Tree
p49
(dp50
g7
(imyEvolve
Tree
p51
(dp52
g19
I0
sg21
I00
sbsg19
I1
sg22
I01
sg23
g24
sbsg19
I2
sg22
I01
sg23
cmyEvolve
absSqrt
p53
sbsg22
I00
sg23
g30
sbsg22
I00
sg23
coperator
add
p54
sbsg19
I5
sg22
I01
sg23
g24
sba(imyEvolve
Tree
p55
(dp56
g7
(imyEvolve
Tree
p57
(dp58
g10
(imyEvolve
Tree
p59
(dp60
g19
I0
sg21
I00
sbsg19
I1
sg25
(imyEvolve
Tree
p61
(dp62
g19
I0
sg21
I00
sbsg22
I00
sg23
g30
sbsg19
I2
sg22
I01
sg23
g46
sba(imyEvolve
Tree
p63
(dp64
g10
(imyEvolve
Tree
p65
(dp66
g10
(imyEvolve
Tree
p67
(dp68
g7
(imyEvolve
Tree
p69
(dp70
g7
(imyEvolve
Tree
p71
(dp72
g7
(imyEvolve
Tree
p73
(dp74
g19
I0
sg21
I00
sbsg19
I1
sg22
I01
sg23
g46
sbsg19
I2
sg22
I01
sg23
cmath
sin
p75
sbsg19
I3
sg22
I01
sg23
g75
sbsg19
I4
sg25
(imyEvolve
Tree
p76
(dp77
g10
(imyEvolve
Tree
p78
(dp79
g10
(imyEvolve
Tree
p80
(dp81
g7
(imyEvolve
Tree
p82
(dp83
g19
I0
sg20
F-2.194625601492215
sg21
I01
sbsg19
I1
sg22
I01
sg23
g53
sbsg19
I2
sg25
(imyEvolve
Tree
p84
(dp85
g7
(imyEvolve
Tree
p86
(dp87
g19
I0
sg21
I00
sbsg19
I1
sg22
I01
sg23
g53
sbsg22
I00
sg23
g30
sbsg19
I3
sg25
(imyEvolve
Tree
p88
(dp89
g7
(imyEvolve
Tree
p90
(dp91
g10
(imyEvolve
Tree
p92
(dp93
g19
I0
sg20
F-3.0780543946744086
sg21
I01
sbsg19
I1
sg25
(imyEvolve
Tree
p94
(dp95
g19
I0
sg20
F-0.23402464932056333
sg21
I01
sbsg22
I00
sg23
g30
sbsg19
I2
sg22
I01
sg23
g75
sbsg22
I00
sg23
g41
sbsg22
I00
sg23
g54
sbsg19
I5
sg25
(imyEvolve
Tree
p96
(dp97
g7
(imyEvolve
Tree
p98
(dp99
g7
(imyEvolve
Tree
p100
(dp101
g7
(imyEvolve
Tree
p102
(dp103
g7
(imyEvolve
Tree
p104
(dp105
g19
I0
sg21
I00
sbsg19
I1
sg22
I01
sg23
g53
sbsg19
I2
sg22
I01
sg23
g46
sbsg19
I3
sg22
I01
sg23
g24
sbsg19
I4
sg22
I01
sg23
g75
sbsg22
I00
sg23
g30
sba(imyEvolve
Tree
p106
(dp107
g10
(imyEvolve
Tree
p108
(dp109
g7
(imyEvolve
Tree
p110
(dp111
g7
(imyEvolve
Tree
p112
(dp113
g10
(imyEvolve
Tree
p114
(dp115
g10
(imyEvolve
Tree
p116
(dp117
g19
I0
sg21
I00
sbsg19
I1
sg25
(imyEvolve
Tree
p118
(dp119
g19
I0
sg20
F4.0335451256297326
sg21
I01
sbsg22
I00
sg23
g30
sbsg19
I2
sg25
(imyEvolve
Tree
p120
(dp121
g7
(imyEvolve
Tree
p122
(dp123
g19
I0
sg21
I00
sbsg19
I1
sg22
I01
sg23
g24
sbsg22
I00
sg23
g54
sbsg19
I3
sg22
I01
sg23
g53
sbsg19
I4
sg22
I01
sg23
g75
sbsg19
I5
sg25
(imyEvolve
Tree
p124
(dp125
g10
(imyEvolve
Tree
p126
(dp127
g10
(imyEvolve
Tree
p128
(dp129
g10
(imyEvolve
Tree
p130
(dp131
g10
(imyEvolve
Tree
p132
(dp133
g19
I0
sg20
F4.914571258548197
sg21
I01
sbsg19
I1
sg25
(imyEvolve
Tree
p134
(dp135
g19
I0
sg20
F2.958972057203794
sg21
I01
sbsg22
I00
sg23
g54
sbsg19
I2
sg25
(imyEvolve
Tree
p136
(dp137
g10
(imyEvolve
Tree
p138
(dp139
g19
I0
sg21
I00
sbsg19
I1
sg25
(imyEvolve
Tree
p140
(dp141
g19
I0
sg20
F1.6082563923527768
sg21
I01
sbsg22
I00
sg23
g30
sbsg22
I00
sg23
g54
sbsg19
I3
sg25
(imyEvolve
Tree
p142
(dp143
g7
(imyEvolve
Tree
p144
(dp145
g10
(imyEvolve
Tree
p146
(dp147
g19
I0
sg20
F-2.077475977782166
sg21
I01
sbsg19
I1
sg25
(imyEvolve
Tree
p148
(dp149
g19
I0
sg21
I00
sbsg22
I00
sg23
g30
sbsg19
I2
sg22
I01
sg23
g24
sbsg22
I00
sg23
g30
sbsg19
I4
sg25
(imyEvolve
Tree
p150
(dp151
g7
(imyEvolve
Tree
p152
(dp153
g10
(imyEvolve
Tree
p154
(dp155
g10
(imyEvolve
Tree
p156
(dp157
g19
I0
sg20
F4.40289127860782
sg21
I01
sbsg19
I1
sg25
(imyEvolve
Tree
p158
(dp159
g19
I0
sg21
I00
sbsg22
I00
sg23
g30
sbsg19
I2
sg25
(imyEvolve
Tree
p160
(dp161
g7
(imyEvolve
Tree
p162
(dp163
g19
I0
sg21
I00
sbsg19
I1
sg22
I01
sg23
g46
sbsg22
I00
sg23
g41
sbsg19
I3
sg22
I01
sg23
g46
sbsg22
I00
sg23
g41
sbsg22
I00
sg23
g54
sba(imyEvolve
Tree
p164
(dp165
g7
(imyEvolve
Tree
p166
(dp167
g7
(imyEvolve
Tree
p168
(dp169
g10
(imyEvolve
Tree
p170
(dp171
g7
(imyEvolve
Tree
p172
(dp173
g7
(imyEvolve
Tree
p174
(dp175
g19
I0
sg20
F-3.5605797211046495
sg21
I01
sbsg19
I1
sg22
I01
sg23
g46
sbsg19
I2
sg22
I01
sg23
g53
sbsg19
I3
sg25
(imyEvolve
Tree
p176
(dp177
g7
(imyEvolve
Tree
p178
(dp179
g7
(imyEvolve
Tree
p180
(dp181
g19
I0
sg21
I00
sbsg19
I1
sg22
I01
sg23
g53
sbsg19
I2
sg22
I01
sg23
g75
sbsg22
I00
sg23
g41
sbsg19
I4
sg22
I01
sg23
g24
sbsg19
I5
sg22
I01
sg23
g24
sba(imyEvolve
Tree
p182
(dp183
g7
(imyEvolve
Tree
p184
(dp185
g10
(imyEvolve
Tree
p186
(dp187
g19
I0
sg21
I00
sbsg19
I1
sg25
(imyEvolve
Tree
p188
(dp189
g19
I0
sg21
I00
sbsg22
I00
sg23
g41
sbsg19
I2
sg22
I01
sg23
g24
sba(imyEvolve
Tree
p190
(dp191
g7
(imyEvolve
Tree
p192
(dp193
g7
(imyEvolve
Tree
p194
(dp195
g19
I2
sg10
(imyEvolve
Tree
p196
(dp197
g19
I1
sg10
(imyEvolve
Tree
p198
(dp199
g19
I0
sg21
I00
sbsg25
(imyEvolve
Tree
p200
(dp201
g19
I0
sg20
F4.122082755643371
sg21
I01
sbsg22
I00
sg23
g30
sbsg25
(imyEvolve
Tree
p202
(dp203
g19
I1
sg10
(imyEvolve
Tree
p204
(dp205
g19
I0
sg21
I00
sbsg25
(imyEvolve
Tree
p206
(dp207
g19
I0
sg21
I00
sbsg22
I00
sg23
g41
sbsg22
I00
sg23
g54
sbsg19
I3
sg22
I01
sg23
g75
sbsg19
I4
sg22
I01
sg23
g46
sba(imyEvolve
Tree
p208
(dp209
g7
(imyEvolve
Tree
p210
(dp211
g7
(imyEvolve
Tree
p212
(dp213
g7
(imyEvolve
Tree
p214
(dp215
g19
I0
sg21
I00
sbsg19
I1
sg22
I01
sg23
g24
sbsg19
I2
sg22
I01
sg23
g53
sbsg19
I3
sg22
I01
sg23
g46
sba(imyEvolve
Tree
p216
(dp217
g19
I5
sg10
(imyEvolve
Tree
p218
(dp219
g19
I4
sg10
(imyEvolve
Tree
p220
(dp221
g19
I3
sg10
(imyEvolve
Tree
p222
(dp223
g7
(imyEvolve
Tree
p224
(dp225
g19
I1
sg10
(imyEvolve
Tree
p226
(dp227
g19
I0
sg21
I00
sbsg25
(imyEvolve
Tree
p228
(dp229
g19
I0
sg20
F-0.28886880441116425
sg21
I01
sbsg22
I00
sg23
g30
sbsg19
I2
sg22
I01
sg23
g53
sbsg25
(imyEvolve
Tree
p230
(dp231
g19
I2
sg10
(imyEvolve
Tree
p232
(dp233
g7
(imyEvolve
Tree
p234
(dp235
g19
I0
sg20
F3.4080534682153782
sg21
I01
sbsg19
I1
sg22
I01
sg23
g53
sbsg25
(imyEvolve
Tree
p236
(dp237
g7
(imyEvolve
Tree
p238
(dp239
g19
I0
sg20
F-3.7293334405472036
sg21
I01
sbsg19
I1
sg22
I01
sg23
g24
sbsg22
I00
sg23
g54
sbsg22
I00
sg23
g30
sbsg25
(imyEvolve
Tree
p240
(dp241
g7
(imyEvolve
Tree
p242
(dp243
g19
I2
sg10
(imyEvolve
Tree
p244
(dp245
g19
I1
sg10
(imyEvolve
Tree
p246
(dp247
g19
I0
sg21
I00
sbsg25
(imyEvolve
Tree
p248
(dp249
g19
I0
sg21
I00
sbsg22
I00
sg23
g54
sbsg25
(imyEvolve
Tree
p250
(dp251
g7
(imyEvolve
Tree
p252
(dp253
g19
I0
sg21
I00
sbsg19
I1
sg22
I01
sg23
g46
sbsg22
I00
sg23
g41
sbsg19
I3
sg22
I01
sg23
g46
sbsg22
I00
sg23
g41
sbsg25
(imyEvolve
Tree
p254
(dp255
g7
(imyEvolve
Tree
p256
(dp257
g7
(imyEvolve
Tree
p258
(dp259
g7
(imyEvolve
Tree
p260
(dp261
g19
I1
sg10
(imyEvolve
Tree
p262
(dp263
g19
I0
sg21
I00
sbsg25
(imyEvolve
Tree
p264
(dp265
g19
I0
sg20
F3.8355078730590275
sg21
I01
sbsg22
I00
sg23
g41
sbsg19
I2
sg22
I01
sg23
g24
sbsg19
I3
sg22
I01
sg23
g24
sbsg19
I4
sg22
I01
sg23
g46
sbsg22
I00
sg23
g54
sba(imyEvolve
Tree
p266
(dp267
g7
(imyEvolve
Tree
p268
(dp269
g7
(imyEvolve
Tree
p270
(dp271
g7
(imyEvolve
Tree
p272
(dp273
g10
(imyEvolve
Tree
p274
(dp275
g7
(imyEvolve
Tree
p276
(dp277
g19
I0
sg21
I00
sbsg19
I1
sg22
I01
sg23
g75
sbsg19
I2
sg25
(imyEvolve
Tree
p278
(dp279
g10
(imyEvolve
Tree
p280
(dp281
g19
I0
sg21
I00
sbsg19
I1
sg25
(imyEvolve
Tree
p282
(dp283
g19
I0
sg20
F0.8911251189838865
sg21
I01
sbsg22
I00
sg23
g41
sbsg22
I00
sg23
g54
sbsg19
I3
sg22
I01
sg23
g53
sbsg19
I4
sg22
I01
sg23
g46
sbsg19
I5
sg22
I01
sg23
g24
sba(imyEvolve
Tree
p284
(dp285
g10
(imyEvolve
Tree
p286
(dp287
g10
(imyEvolve
Tree
p288
(dp289
g7
(imyEvolve
Tree
p290
(dp291
g7
(imyEvolve
Tree
p292
(dp293
g19
I0
sg21
I00
sbsg19
I1
sg22
I01
sg23
g46
sbsg19
I2
sg22
I01
sg23
g75
sbsg19
I3
sg25
(imyEvolve
Tree
p294
(dp295
g7
(imyEvolve
Tree
p296
(dp297
g10
(imyEvolve
Tree
p298
(dp299
g19
I0
sg21
I00
sbsg19
I1
sg25
(imyEvolve
Tree
p300
(dp301
g19
I0
sg21
I00
sbsg22
I00
sg23
g30
sbsg19
I2
sg22
I01
sg23
g53
sbsg22
I00
sg23
g41
sbsg19
I4
sg25
(imyEvolve
Tree
p302
(dp303
g7
(imyEvolve
Tree
p304
(dp305
g10
(imyEvolve
Tree
p306
(dp307
g10
(imyEvolve
Tree
p308
(dp309
g19
I0
sg20
F-2.8845711841019894
sg21
I01
sbsg19
I1
sg25
(imyEvolve
Tree
p310
(dp311
g19
I0
sg21
I00
sbsg22
I00
sg23
g41
sbsg19
I2
sg25
(imyEvolve
Tree
p312
(dp313
g10
(imyEvolve
Tree
p314
(dp315
g19
I0
sg20
F4.932791729972729
sg21
I01
sbsg19
I1
sg25
(imyEvolve
Tree
p316
(dp317
g19
I0
sg21
I00
sbsg22
I00
sg23
g41
sbsg22
I00
sg23
g41
sbsg19
I3
sg22
I01
sg23
g53
sbsg22
I00
sg23
g30
sba(imyEvolve
Tree
p318
(dp319
g7
(imyEvolve
Tree
p320
(dp321
g10
(imyEvolve
Tree
p322
(dp323
g7
(imyEvolve
Tree
p324
(dp325
g7
(imyEvolve
Tree
p326
(dp327
g19
I0
sg20
F2.0741948645207398
sg21
I01
sbsg19
I1
sg22
I01
sg23
g46
sbsg19
I2
sg22
I01
sg23
g53
sbsg19
I3
sg25
(imyEvolve
Tree
p328
(dp329
g10
(imyEvolve
Tree
p330
(dp331
g10
(imyEvolve
Tree
p332
(dp333
g19
I0
sg21
I00
sbsg19
I1
sg25
(imyEvolve
Tree
p334
(dp335
g19
I0
sg20
F1.6146527970256024
sg21
I01
sbsg22
I00
sg23
g54
sbsg19
I2
sg25
(imyEvolve
Tree
p336
(dp337
g7
(imyEvolve
Tree
p338
(dp339
g19
I0
sg21
I00
sbsg19
I1
sg22
I01
sg23
g24
sbsg22
I00
sg23
g54
sbsg22
I00
sg23
g30
sbsg19
I4
sg22
I01
sg23
g75
sba(imyEvolve
Tree
p340
(dp341
g19
I4
sg10
(imyEvolve
Tree
p342
(dp343
g7
(imyEvolve
Tree
p344
(dp345
g19
I2
sg10
(imyEvolve
Tree
p346
(dp347
g7
(imyEvolve
Tree
p348
(dp349
g19
I0
sg20
F-1.0341327403122644
sg21
I01
sbsg19
I1
sg22
I01
sg23
g24
sbsg25
(imyEvolve
Tree
p350
(dp351
g7
(imyEvolve
Tree
p352
(dp353
g19
I0
sg21
I00
sbsg19
I1
sg22
I01
sg23
g24
sbsg22
I00
sg23
g54
sbsg19
I3
sg22
I01
sg23
g75
sbsg25
(imyEvolve
Tree
p354
(dp355
g7
(imyEvolve
Tree
p356
(dp357
g7
(imyEvolve
Tree
p358
(dp359
g7
(imyEvolve
Tree
p360
(dp361
g19
I0
sg20
F-3.095582608440525
sg21
I01
sbsg19
I1
sg22
I01
sg23
g75
sbsg19
I2
sg22
I01
sg23
g53
sbsg19
I3
sg22
I01
sg23
g46
sbsg22
I00
sg23
g41
sba(imyEvolve
Tree
p362
(dp363
g7
(imyEvolve
Tree
p364
(dp365
g7
(imyEvolve
Tree
p366
(dp367
g19
I0
sg21
I00
sbsg19
I1
sg22
I01
sg23
g53
sbsg19
I2
sg22
I01
sg23
g53
sba(imyEvolve
Tree
p368
(dp369
g10
(imyEvolve
Tree
p370
(dp371
g7
(imyEvolve
Tree
p372
(dp373
g19
I0
sg20
F-0.5873046072918147
sg21
I01
sbsg19
I1
sg22
I01
sg23
g53
sbsg19
I2
sg25
(imyEvolve
Tree
p374
(dp375
g7
(imyEvolve
Tree
p376
(dp377
g19
I0
sg20
F-1.2324085631721218
sg21
I01
sbsg19
I1
sg22
I01
sg23
g53
sbsg22
I00
sg23
g30
sba(imyEvolve
Tree
p378
(dp379
g7
(imyEvolve
Tree
p380
(dp381
g7
(imyEvolve
Tree
p382
(dp383
g7
(imyEvolve
Tree
p384
(dp385
g19
I0
sg21
I00
sbsg19
I1
sg22
I01
sg23
g75
sbsg19
I2
sg22
I01
sg23
g53
sbsg19
I3
sg22
I01
sg23
g46
sba(imyEvolve
Tree
p386
(dp387
g10
(imyEvolve
Tree
p388
(dp389
g7
(imyEvolve
Tree
p390
(dp391
g19
I0
sg21
I00
sbsg19
I1
sg22
I01
sg23
g53
sbsg19
I2
sg25
(imyEvolve
Tree
p392
(dp393
g7
(imyEvolve
Tree
p394
(dp395
g19
I0
sg21
I00
sbsg19
I1
sg22
I01
sg23
g24
sbsg22
I00
sg23
g54
sba(imyEvolve
Tree
p396
(dp397
g7
(imyEvolve
Tree
p398
(dp399
g7
(imyEvolve
Tree
p400
(dp401
g19
I0
sg20
F-4.790618614740372
sg21
I01
sbsg19
I1
sg22
I01
sg23
g24
sbsg19
I2
sg22
I01
sg23
g75
sbaa(lp402
(imyEvolve
Tree
p403
(dp404
g7
(imyEvolve
Tree
p405
(dp406
g19
I2
sg10
(imyEvolve
Tree
p407
(dp408
g7
(imyEvolve
Tree
p409
(dp410
g19
I0
sg21
I00
sbsg19
I1
sg22
I01
sg23
g24
sbsg25
(imyEvolve
Tree
p411
(dp412
g7
(imyEvolve
Tree
p413
(dp414
g19
I0
sg21
I00
sbsg19
I1
sg22
I01
sg23
g75
sbsg22
I00
sg23
g30
sbsg19
I3
sg22
I01
sg23
g46
sba(imyEvolve
Tree
p415
(dp416
g7
(imyEvolve
Tree
p417
(dp418
g7
(imyEvolve
Tree
p419
(dp420
g19
I1
sg10
(imyEvolve
Tree
p421
(dp422
g19
I0
sg21
I00
sbsg25
(imyEvolve
Tree
p423
(dp424
g19
I0
sg21
I00
sbsg22
I00
sg23
g54
sbsg19
I2
sg22
I01
sg23
g53
sbsg19
I3
sg22
I01
sg23
g75
sba(imyEvolve
Tree
p425
(dp426
g10
(imyEvolve
Tree
p427
(dp428
g7
(imyEvolve
Tree
p429
(dp430
g10
(imyEvolve
Tree
p431
(dp432
g10
(imyEvolve
Tree
p433
(dp434
g19
I0
sg20
F3.1394676834238346
sg21
I01
sbsg19
I1
sg25
(imyEvolve
Tree
p435
(dp436
g19
I0
sg21
I00
sbsg22
I00
sg23
g30
sbsg19
I2
sg25
(imyEvolve
Tree
p437
(dp438
g7
(imyEvolve
Tree
p439
(dp440
g19
I0
sg21
I00
sbsg19
I1
sg22
I01
sg23
g75
sbsg22
I00
sg23
g41
sbsg19
I3
sg22
I01
sg23
g46
sbsg19
I4
sg25
(imyEvolve
Tree
p441
(dp442
g7
(imyEvolve
Tree
p443
(dp444
g7
(imyEvolve
Tree
p445
(dp446
g7
(imyEvolve
Tree
p447
(dp448
g19
I0
sg20
F3.7594321066930085
sg21
I01
sbsg19
I1
sg22
I01
sg23
g75
sbsg19
I2
sg22
I01
sg23
g75
sbsg19
I3
sg22
I01
sg23
g46
sbsg22
I00
sg23
g41
sba(imyEvolve
Tree
p449
(dp450
g10
(imyEvolve
Tree
p451
(dp452
g10
(imyEvolve
Tree
p453
(dp454
g10
(imyEvolve
Tree
p455
(dp456
g19
I0
sg21
I00
sbsg19
I1
sg25
(imyEvolve
Tree
p457
(dp458
g19
I0
sg21
I00
sbsg22
I00
sg23
g41
sbsg19
I2
sg25
(imyEvolve
Tree
p459
(dp460
g10
(imyEvolve
Tree
p461
(dp462
g19
I0
sg20
F-1.1848850667596675
sg21
I01
sbsg19
I1
sg25
(imyEvolve
Tree
p463
(dp464
g19
I0
sg21
I00
sbsg22
I00
sg23
g54
sbsg22
I00
sg23
g30
sbsg19
I3
sg25
(imyEvolve
Tree
p465
(dp466
g10
(imyEvolve
Tree
p467
(dp468
g7
(imyEvolve
Tree
p469
(dp470
g19
I0
sg21
I00
sbsg19
I1
sg22
I01
sg23
g75
sbsg19
I2
sg25
(imyEvolve
Tree
p471
(dp472
g7
(imyEvolve
Tree
p473
(dp474
g19
I0
sg21
I00
sbsg19
I1
sg22
I01
sg23
g75
sbsg22
I00
sg23
g41
sbsg22
I00
sg23
g54
sba(imyEvolve
Tree
p475
(dp476
g10
(imyEvolve
Tree
p477
(dp478
g7
(imyEvolve
Tree
p479
(dp480
g7
(imyEvolve
Tree
p481
(dp482
g19
I0
sg21
I00
sbsg19
I1
sg22
I01
sg23
g46
sbsg19
I2
sg22
I01
sg23
g53
sbsg19
I3
sg25
(imyEvolve
Tree
p483
(dp484
g10
(imyEvolve
Tree
p485
(dp486
g7
(imyEvolve
Tree
p487
(dp488
g19
I0
sg21
I00
sbsg19
I1
sg22
I01
sg23
g53
sbsg19
I2
sg25
(imyEvolve
Tree
p489
(dp490
g10
(imyEvolve
Tree
p491
(dp492
g19
I0
sg21
I00
sbsg19
I1
sg25
(imyEvolve
Tree
p493
(dp494
g19
I0
sg20
F-1.1608927083942042
sg21
I01
sbsg22
I00
sg23
g41
sbsg22
I00
sg23
g41
sbsg22
I00
sg23
g30
sba(imyEvolve
Tree
p495
(dp496
g7
(imyEvolve
Tree
p497
(dp498
g19
I3
sg10
(imyEvolve
Tree
p499
(dp500
g7
(imyEvolve
Tree
p501
(dp502
g7
(imyEvolve
Tree
p503
(dp504
g19
I0
sg21
I00
sbsg19
I1
sg22
I01
sg23
g24
sbsg19
I2
sg22
I01
sg23
g53
sbsg25
(imyEvolve
Tree
p505
(dp506
g7
(imyEvolve
Tree
p507
(dp508
g19
I1
sg10
(imyEvolve
Tree
p509
(dp510
g19
I0
sg21
I00
sbsg25
(imyEvolve
Tree
p511
(dp512
g19
I0
sg20
F2.449096091894736
sg21
I01
sbsg22
I00
sg23
g41
sbsg19
I2
sg22
I01
sg23
g46
sbsg22
I00
sg23
g54
sbsg19
I4
sg22
I01
sg23
g75
sba(imyEvolve
Tree
p513
(dp514
g19
I2
sg10
(imyEvolve
Tree
p515
(dp516
g19
I1
sg10
(imyEvolve
Tree
p517
(dp518
g19
I0
sg20
F-1.0840417731905436
sg21
I01
sbsg25
(imyEvolve
Tree
p519
(dp520
g19
I0
sg20
F0.42477018299888947
sg21
I01
sbsg22
I00
sg23
g54
sbsg25
(imyEvolve
Tree
p521
(dp522
g7
(imyEvolve
Tree
p523
(dp524
g19
I0
sg21
I00
sbsg19
I1
sg22
I01
sg23
g53
sbsg22
I00
sg23
g41
sba(imyEvolve
Tree
p525
(dp526
g7
(imyEvolve
Tree
p527
(dp528
g7
(imyEvolve
Tree
p529
(dp530
g10
(imyEvolve
Tree
p531
(dp532
g10
(imyEvolve
Tree
p533
(dp534
g19
I0
sg21
I00
sbsg19
I1
sg25
(imyEvolve
Tree
p535
(dp536
g19
I0
sg21
I00
sbsg22
I00
sg23
g54
sbsg19
I2
sg25
(imyEvolve
Tree
p537
(dp538
g10
(imyEvolve
Tree
p539
(dp540
g19
I0
sg20
F0.9746131049444156
sg21
I01
sbsg19
I1
sg25
(imyEvolve
Tree
p541
(dp542
g19
I0
sg21
I00
sbsg22
I00
sg23
g54
sbsg22
I00
sg23
g54
sbsg19
I3
sg22
I01
sg23
g53
sbsg19
I4
sg22
I01
sg23
g75
sba(imyEvolve
Tree
p543
(dp544
g10
(imyEvolve
Tree
p545
(dp546
g7
(imyEvolve
Tree
p547
(dp548
g10
(imyEvolve
Tree
p549
(dp550
g10
(imyEvolve
Tree
p551
(dp552
g19
I0
sg20
F1.8350864855726314
sg21
I01
sbsg19
I1
sg25
(imyEvolve
Tree
p553
(dp554
g19
I0
sg20
F-3.0034564982267264
sg21
I01
sbsg22
I00
sg23
g54
sbsg19
I2
sg25
(imyEvolve
Tree
p555
(dp556
g10
(imyEvolve
Tree
p557
(dp558
g19
I0
sg20
F-0.46726028503963946
sg21
I01
sbsg19
I1
sg25
(imyEvolve
Tree
p559
(dp560
g19
I0
sg20
F-1.3072025904848958
sg21
I01
sbsg22
I00
sg23
g30
sbsg22
I00
sg23
g30
sbsg19
I3
sg22
I01
sg23
g53
sbsg19
I4
sg25
(imyEvolve
Tree
p561
(dp562
g10
(imyEvolve
Tree
p563
(dp564
g10
(imyEvolve
Tree
p565
(dp566
g7
(imyEvolve
Tree
p567
(dp568
g19
I0
sg20
F-3.047439035591247
sg21
I01
sbsg19
I1
sg22
I01
sg23
g75
sbsg19
I2
sg25
(imyEvolve
Tree
p569
(dp570
g7
(imyEvolve
Tree
p571
(dp572
g19
I0
sg20
F-4.147117588052968
sg21
I01
sbsg19
I1
sg22
I01
sg23
g24
sbsg22
I00
sg23
g54
sbsg19
I3
sg25
(imyEvolve
Tree
p573
(dp574
g10
(imyEvolve
Tree
p575
(dp576
g10
(imyEvolve
Tree
p577
(dp578
g19
I0
sg20
F-2.2769031731218723
sg21
I01
sbsg19
I1
sg25
(imyEvolve
Tree
p579
(dp580
g19
I0
sg21
I00
sbsg22
I00
sg23
g41
sbsg19
I2
sg25
(imyEvolve
Tree
p581
(dp582
g7
(imyEvolve
Tree
p583
(dp584
g19
I0
sg21
I00
sbsg19
I1
sg22
I01
sg23
g46
sbsg22
I00
sg23
g41
sbsg22
I00
sg23
g54
sbsg22
I00
sg23
g30
sba(imyEvolve
Tree
p585
(dp586
g7
(imyEvolve
Tree
p587
(dp588
g7
(imyEvolve
Tree
p589
(dp590
g7
(imyEvolve
Tree
p591
(dp592
g19
I0
sg21
I00
sbsg19
I1
sg22
I01
sg23
g75
sbsg19
I2
sg22
I01
sg23
g53
sbsg19
I3
sg22
I01
sg23
g53
sba(imyEvolve
Tree
p593
(dp594
g7
(imyEvolve
Tree
p595
(dp596
g10
(imyEvolve
Tree
p597
(dp598
g19
I0
sg21
I00
sbsg19
I1
sg25
(imyEvolve
Tree
p599
(dp600
g19
I0
sg21
I00
sbsg22
I00
sg23
g30
sbsg19
I2
sg22
I01
sg23
g75
sba(imyEvolve
Tree
p601
(dp602
g7
(imyEvolve
Tree
p603
(dp604
g7
(imyEvolve
Tree
p605
(dp606
g7
(imyEvolve
Tree
p607
(dp608
g7
(imyEvolve
Tree
p609
(dp610
g19
I0
sg20
F-2.3807552443199063
sg21
I01
sbsg19
I1
sg22
I01
sg23
g53
sbsg19
I2
sg22
I01
sg23
g75
sbsg19
I3
sg22
I01
sg23
g24
sbsg19
I4
sg22
I01
sg23
g75
sba(imyEvolve
Tree
p611
(dp612
g7
(imyEvolve
Tree
p613
(dp614
g7
(imyEvolve
Tree
p615
(dp616
g19
I0
sg20
F-0.6539168139617226
sg21
I01
sbsg19
I1
sg22
I01
sg23
g53
sbsg19
I2
sg22
I01
sg23
g24
sbaa(lp617
(imyEvolve
Tree
p618
(dp619
g7
(imyEvolve
Tree
p620
(dp621
g7
(imyEvolve
Tree
p622
(dp623
g19
I3
sg10
(imyEvolve
Tree
p624
(dp625
g19
I2
sg10
(imyEvolve
Tree
p626
(dp627
g19
I1
sg10
(imyEvolve
Tree
p628
(dp629
g19
I0
sg21
I00
sbsg25
(imyEvolve
Tree
p630
(dp631
g19
I0
sg21
I00
sbsg22
I00
sg23
g41
sbsg25
(imyEvolve
Tree
p632
(dp633
g19
I1
sg10
(imyEvolve
Tree
p634
(dp635
g19
I0
sg20
F1.3418280150925623
sg21
I01
sbsg25
(imyEvolve
Tree
p636
(dp637
g19
I0
sg21
I00
sbsg22
I00
sg23
g30
sbsg22
I00
sg23
g41
sbsg25
(imyEvolve
Tree
p638
(dp639
g7
(imyEvolve
Tree
p640
(dp641
g7
(imyEvolve
Tree
p642
(dp643
g19
I0
sg20
F-2.6467746108860157
sg21
I01
sbsg19
I1
sg22
I01
sg23
g53
sbsg19
I2
sg22
I01
sg23
g24
sbsg22
I00
sg23
g30
sbsg19
I4
sg22
I01
sg23
g46
sbsg19
I5
sg22
I01
sg23
g46
sba(imyEvolve
Tree
p644
(dp645
g7
(imyEvolve
Tree
p646
(dp647
g10
(imyEvolve
Tree
p648
(dp649
g7
(imyEvolve
Tree
p650
(dp651
g7
(imyEvolve
Tree
p652
(dp653
g10
(imyEvolve
Tree
p654
(dp655
g19
I0
sg20
F2.614108993147531
sg21
I01
sbsg19
I1
sg25
(imyEvolve
Tree
p656
(dp657
g19
I0
sg20
F-1.2425068391727434
sg21
I01
sbsg22
I00
sg23
g30
sbsg19
I2
sg22
I01
sg23
g53
sbsg19
I3
sg22
I01
sg23
g75
sbsg19
I4
sg25
(imyEvolve
Tree
p658
(dp659
g7
(imyEvolve
Tree
p660
(dp661
g7
(imyEvolve
Tree
p662
(dp663
g10
(imyEvolve
Tree
p664
(dp665
g19
I0
sg21
I00
sbsg19
I1
sg25
(imyEvolve
Tree
p666
(dp667
g19
I0
sg20
F-4.684047032647596
sg21
I01
sbsg22
I00
sg23
g41
sbsg19
I2
sg22
I01
sg23
g75
sbsg19
I3
sg22
I01
sg23
g53
sbsg22
I00
sg23
g41
sbsg19
I5
sg22
I01
sg23
g75
sba(imyEvolve
Tree
p668
(dp669
g10
(imyEvolve
Tree
p670
(dp671
g10
(imyEvolve
Tree
p672
(dp673
g10
(imyEvolve
Tree
p674
(dp675
g19
I0
sg21
I00
sbsg19
I1
sg25
(imyEvolve
Tree
p676
(dp677
g19
I0
sg20
F2.990293128824457
sg21
I01
sbsg22
I00
sg23
g30
sbsg19
I2
sg25
(imyEvolve
Tree
p678
(dp679
g10
(imyEvolve
Tree
p680
(dp681
g19
I0
sg21
I00
sbsg19
I1
sg25
(imyEvolve
Tree
p682
(dp683
g19
I0
sg20
F4.9090558008745635
sg21
I01
sbsg22
I00
sg23
g30
sbsg22
I00
sg23
g54
sbsg19
I3
sg25
(imyEvolve
Tree
p684
(dp685
g10
(imyEvolve
Tree
p686
(dp687
g7
(imyEvolve
Tree
p688
(dp689
g19
I0
sg20
F1.2555744269221014
sg21
I01
sbsg19
I1
sg22
I01
sg23
g75
sbsg19
I2
sg25
(imyEvolve
Tree
p690
(dp691
g7
(imyEvolve
Tree
p692
(dp693
g19
I0
sg21
I00
sbsg19
I1
sg22
I01
sg23
g75
sbsg22
I00
sg23
g30
sbsg22
I00
sg23
g54
sba(imyEvolve
Tree
p694
(dp695
g7
(imyEvolve
Tree
p696
(dp697
g7
(imyEvolve
Tree
p698
(dp699
g10
(imyEvolve
Tree
p700
(dp701
g19
I0
sg20
F3.4594628217190238
sg21
I01
sbsg19
I1
sg25
(imyEvolve
Tree
p702
(dp703
g19
I0
sg20
F2.727825275691295
sg21
I01
sbsg22
I00
sg23
g30
sbsg19
I2
sg22
I01
sg23
g75
sbsg19
I3
sg22
I01
sg23
g24
sba(imyEvolve
Tree
p704
(dp705
g7
(imyEvolve
Tree
p706
(dp707
g7
(imyEvolve
Tree
p708
(dp709
g7
(imyEvolve
Tree
p710
(dp711
g19
I0
sg21
I00
sbsg19
I1
sg22
I01
sg23
g24
sbsg19
I2
sg22
I01
sg23
g53
sbsg19
I3
sg22
I01
sg23
g53
sba(imyEvolve
Tree
p712
(dp713
g7
(imyEvolve
Tree
p714
(dp715
g7
(imyEvolve
Tree
p716
(dp717
g19
I0
sg21
I00
sbsg19
I1
sg22
I01
sg23
g75
sbsg19
I2
sg22
I01
sg23
g24
sba(imyEvolve
Tree
p718
(dp719
g7
(imyEvolve
Tree
p720
(dp721
g7
(imyEvolve
Tree
p722
(dp723
g7
(imyEvolve
Tree
p724
(dp725
g7
(imyEvolve
Tree
p726
(dp727
g19
I0
sg21
I00
sbsg19
I1
sg22
I01
sg23
g46
sbsg19
I2
sg22
I01
sg23
g46
sbsg19
I3
sg22
I01
sg23
g53
sbsg19
I4
sg22
I01
sg23
g24
sba(imyEvolve
Tree
p728
(dp729
g10
(imyEvolve
Tree
p730
(dp731
g10
(imyEvolve
Tree
p732
(dp733
g10
(imyEvolve
Tree
p734
(dp735
g7
(imyEvolve
Tree
p736
(dp737
g7
(imyEvolve
Tree
p738
(dp739
g19
I0
sg21
I00
sbsg19
I1
sg22
I01
sg23
g75
sbsg19
I2
sg22
I01
sg23
g24
sbsg19
I3
sg25
(imyEvolve
Tree
p740
(dp741
g7
(imyEvolve
Tree
p742
(dp743
g10
(imyEvolve
Tree
p744
(dp745
g19
I0
sg20
F-1.240229286136889
sg21
I01
sbsg19
I1
sg25
(imyEvolve
Tree
p746
(dp747
g19
I0
sg20
F-1.6876441099316963
sg21
I01
sbsg22
I00
sg23
g54
sbsg19
I2
sg22
I01
sg23
g53
sbsg22
I00
sg23
g54
sbsg19
I4
sg25
(imyEvolve
Tree
p748
(dp749
g7
(imyEvolve
Tree
p750
(dp751
g7
(imyEvolve
Tree
p752
(dp753
g10
(imyEvolve
Tree
p754
(dp755
g19
I0
sg20
F2.3178851560157074
sg21
I01
sbsg19
I1
sg25
(imyEvolve
Tree
p756
(dp757
g19
I0
sg20
F3.3761057168468263
sg21
I01
sbsg22
I00
sg23
g41
sbsg19
I2
sg22
I01
sg23
g53
sbsg19
I3
sg22
I01
sg23
g53
sbsg22
I00
sg23
g41
sbsg19
I5
sg25
(imyEvolve
Tree
p758
(dp759
g10
(imyEvolve
Tree
p760
(dp761
g7
(imyEvolve
Tree
p762
(dp763
g7
(imyEvolve
Tree
p764
(dp765
g7
(imyEvolve
Tree
p766
(dp767
g19
I0
sg20
F0.31604404884666515
sg21
I01
sbsg19
I1
sg22
I01
sg23
g24
sbsg19
I2
sg22
I01
sg23
g75
sbsg19
I3
sg22
I01
sg23
g53
sbsg19
I4
sg25
(imyEvolve
Tree
p768
(dp769
g7
(imyEvolve
Tree
p770
(dp771
g7
(imyEvolve
Tree
p772
(dp773
g10
(imyEvolve
Tree
p774
(dp775
g19
I0
sg21
I00
sbsg19
I1
sg25
(imyEvolve
Tree
p776
(dp777
g19
I0
sg21
I00
sbsg22
I00
sg23
g41
sbsg19
I2
sg22
I01
sg23
g53
sbsg19
I3
sg22
I01
sg23
g24
sbsg22
I00
sg23
g41
sbsg22
I00
sg23
g30
sba(imyEvolve
Tree
p778
(dp779
g10
(imyEvolve
Tree
p780
(dp781
g7
(imyEvolve
Tree
p782
(dp783
g19
I0
sg20
F0.5955304716844445
sg21
I01
sbsg19
I1
sg22
I01
sg23
g24
sbsg19
I2
sg25
(imyEvolve
Tree
p784
(dp785
g7
(imyEvolve
Tree
p786
(dp787
g19
I0
sg20
F3.624182451095665
sg21
I01
sbsg19
I1
sg22
I01
sg23
g24
sbsg22
I00
sg23
g41
sba(imyEvolve
Tree
p788
(dp789
g7
(imyEvolve
Tree
p790
(dp791
g10
(imyEvolve
Tree
p792
(dp793
g10
(imyEvolve
Tree
p794
(dp795
g10
(imyEvolve
Tree
p796
(dp797
g7
(imyEvolve
Tree
p798
(dp799
g19
I0
sg20
F3.697586480831692
sg21
I01
sbsg19
I1
sg22
I01
sg23
g53
sbsg19
I2
sg25
(imyEvolve
Tree
p800
(dp801
g10
(imyEvolve
Tree
p802
(dp803
g19
I0
sg20
F0.5143511989658132
sg21
I01
sbsg19
I1
sg25
(imyEvolve
Tree
p804
(dp805
g19
I0
sg21
I00
sbsg22
I00
sg23
g41
sbsg22
I00
sg23
g30
sbsg19
I3
sg25
(imyEvolve
Tree
p806
(dp807
g10
(imyEvolve
Tree
p808
(dp809
g10
(imyEvolve
Tree
p810
(dp811
g19
I0
sg21
I00
sbsg19
I1
sg25
(imyEvolve
Tree
p812
(dp813
g19
I0
sg20
F0.9996839117788863
sg21
I01
sbsg22
I00
sg23
g54
sbsg19
I2
sg25
(imyEvolve
Tree
p814
(dp815
g7
(imyEvolve
Tree
p816
(dp817
g19
I0
sg21
I00
sbsg19
I1
sg22
I01
sg23
g46
sbsg22
I00
sg23
g41
sbsg22
I00
sg23
g54
sbsg19
I4
sg25
(imyEvolve
Tree
p818
(dp819
g7
(imyEvolve
Tree
p820
(dp821
g10
(imyEvolve
Tree
p822
(dp823
g7
(imyEvolve
Tree
p824
(dp825
g19
I0
sg20
F0.07527355194029184
sg21
I01
sbsg19
I1
sg22
I01
sg23
g75
sbsg19
I2
sg25
(imyEvolve
Tree
p826
(dp827
g7
(imyEvolve
Tree
p828
(dp829
g19
I0
sg21
I00
sbsg19
I1
sg22
I01
sg23
g46
sbsg22
I00
sg23
g54
sbsg19
I3
sg22
I01
sg23
g53
sbsg22
I00
sg23
g41
sbsg19
I5
sg22
I01
sg23
g53
sba(imyEvolve
Tree
p830
(dp831
g10
(imyEvolve
Tree
p832
(dp833
g10
(imyEvolve
Tree
p834
(dp835
g7
(imyEvolve
Tree
p836
(dp837
g19
I0
sg21
I00
sbsg19
I1
sg22
I01
sg23
g24
sbsg19
I2
sg25
(imyEvolve
Tree
p838
(dp839
g10
(imyEvolve
Tree
p840
(dp841
g19
I0
sg20
F3.4420438171397425
sg21
I01
sbsg19
I1
sg25
(imyEvolve
Tree
p842
(dp843
g19
I0
sg21
I00
sbsg22
I00
sg23
g41
sbsg22
I00
sg23
g30
sbsg19
I3
sg25
(imyEvolve
Tree
p844
(dp845
g10
(imyEvolve
Tree
p846
(dp847
g10
(imyEvolve
Tree
p848
(dp849
g19
I0
sg21
I00
sbsg19
I1
sg25
(imyEvolve
Tree
p850
(dp851
g19
I0
sg21
I00
sbsg22
I00
sg23
g41
sbsg19
I2
sg25
(imyEvolve
Tree
p852
(dp853
g7
(imyEvolve
Tree
p854
(dp855
g19
I0
sg20
F-3.405643021607742
sg21
I01
sbsg19
I1
sg22
I01
sg23
g24
sbsg22
I00
sg23
g54
sbsg22
I00
sg23
g54
sba(imyEvolve
Tree
p856
(dp857
g7
(imyEvolve
Tree
p858
(dp859
g7
(imyEvolve
Tree
p860
(dp861
g19
I1
sg10
(imyEvolve
Tree
p862
(dp863
g19
I0
sg20
F3.3388889654969027
sg21
I01
sbsg25
(imyEvolve
Tree
p864
(dp865
g19
I0
sg20
F0.6944868194871203
sg21
I01
sbsg22
I00
sg23
g54
sbsg19
I2
sg22
I01
sg23
g46
sbsg19
I3
sg22
I01
sg23
g75
sba(imyEvolve
Tree
p866
(dp867
g19
I3
sg10
(imyEvolve
Tree
p868
(dp869
g19
I2
sg10
(imyEvolve
Tree
p870
(dp871
g7
(imyEvolve
Tree
p872
(dp873
g19
I0
sg21
I00
sbsg19
I1
sg22
I01
sg23
g75
sbsg25
(imyEvolve
Tree
p874
(dp875
g19
I1
sg10
(imyEvolve
Tree
p876
(dp877
g19
I0
sg20
F0.48773982240862246
sg21
I01
sbsg25
(imyEvolve
Tree
p878
(dp879
g19
I0
sg20
F1.600921975395865
sg21
I01
sbsg22
I00
sg23
g54
sbsg22
I00
sg23
g54
sbsg25
(imyEvolve
Tree
p880
(dp881
g7
(imyEvolve
Tree
p882
(dp883
g19
I1
sg10
(imyEvolve
Tree
p884
(dp885
g19
I0
sg20
F-2.665569470320971
sg21
I01
sbsg25
(imyEvolve
Tree
p886
(dp887
g19
I0
sg21
I00
sbsg22
I00
sg23
g54
sbsg19
I2
sg22
I01
sg23
g46
sbsg22
I00
sg23
g30
sba(imyEvolve
Tree
p888
(dp889
g7
(imyEvolve
Tree
p890
(dp891
g7
(imyEvolve
Tree
p892
(dp893
g7
(imyEvolve
Tree
p894
(dp895
g10
(imyEvolve
Tree
p896
(dp897
g7
(imyEvolve
Tree
p898
(dp899
g19
I0
sg20
F-0.9498957414187341
sg21
I01
sbsg19
I1
sg22
I01
sg23
g24
sbsg19
I2
sg25
(imyEvolve
Tree
p900
(dp901
g7
(imyEvolve
Tree
p902
(dp903
g19
I0
sg20
F-2.071042229581983
sg21
I01
sbsg19
I1
sg22
I01
sg23
g75
sbsg22
I00
sg23
g30
sbsg19
I3
sg22
I01
sg23
g24
sbsg19
I4
sg22
I01
sg23
g53
sbsg19
I5
sg22
I01
sg23
g46
sba(imyEvolve
Tree
p904
(dp905
g7
(imyEvolve
Tree
p906
(dp907
g19
I4
sg10
(imyEvolve
Tree
p908
(dp909
g7
(imyEvolve
Tree
p910
(dp911
g7
(imyEvolve
Tree
p912
(dp913
g7
(imyEvolve
Tree
p914
(dp915
g19
I0
sg20
F3.636494992806874
sg21
I01
sbsg19
I1
sg22
I01
sg23
g46
sbsg19
I2
sg22
I01
sg23
g75
sbsg19
I3
sg22
I01
sg23
g46
sbsg25
(imyEvolve
Tree
p916
(dp917
g19
I3
sg10
(imyEvolve
Tree
p918
(dp919
g7
(imyEvolve
Tree
p920
(dp921
g7
(imyEvolve
Tree
p922
(dp923
g19
I0
sg21
I00
sbsg19
I1
sg22
I01
sg23
g46
sbsg19
I2
sg22
I01
sg23
g46
sbsg25
(imyEvolve
Tree
p924
(dp925
g7
(imyEvolve
Tree
p926
(dp927
g7
(imyEvolve
Tree
p928
(dp929
g19
I0
sg21
I00
sbsg19
I1
sg22
I01
sg23
g53
sbsg19
I2
sg22
I01
sg23
g53
sbsg22
I00
sg23
g54
sbsg22
I00
sg23
g41
sbsg19
I5
sg22
I01
sg23
g46
sba(imyEvolve
Tree
p930
(dp931
g7
(imyEvolve
Tree
p932
(dp933
g10
(imyEvolve
Tree
p934
(dp935
g10
(imyEvolve
Tree
p936
(dp937
g10
(imyEvolve
Tree
p938
(dp939
g19
I0
sg21
I00
sbsg19
I1
sg25
(imyEvolve
Tree
p940
(dp941
g19
I0
sg20
F-3.1728552362278517
sg21
I01
sbsg22
I00
sg23
g54
sbsg19
I2
sg25
(imyEvolve
Tree
p942
(dp943
g10
(imyEvolve
Tree
p944
(dp945
g19
I0
sg21
I00
sbsg19
I1
sg25
(imyEvolve
Tree
p946
(dp947
g19
I0
sg20
F1.8388820017201146
sg21
I01
sbsg22
I00
sg23
g30
sbsg22
I00
sg23
g54
sbsg19
I3
sg25
(imyEvolve
Tree
p948
(dp949
g7
(imyEvolve
Tree
p950
(dp951
g10
(imyEvolve
Tree
p952
(dp953
g19
I0
sg21
I00
sbsg19
I1
sg25
(imyEvolve
Tree
p954
(dp955
g19
I0
sg20
F0.5987293816904158
sg21
I01
sbsg22
I00
sg23
g30
sbsg19
I2
sg22
I01
sg23
g75
sbsg22
I00
sg23
g30
sbsg19
I4
sg22
I01
sg23
g75
sba(imyEvolve
Tree
p956
(dp957
g7
(imyEvolve
Tree
p958
(dp959
g7
(imyEvolve
Tree
p960
(dp961
g10
(imyEvolve
Tree
p962
(dp963
g10
(imyEvolve
Tree
p964
(dp965
g7
(imyEvolve
Tree
p966
(dp967
g19
I0
sg21
I00
sbsg19
I1
sg22
I01
sg23
g46
sbsg19
I2
sg25
(imyEvolve
Tree
p968
(dp969
g10
(imyEvolve
Tree
p970
(dp971
g19
I0
sg20
F2.3817589044586738
sg21
I01
sbsg19
I1
sg25
(imyEvolve
Tree
p972
(dp973
g19
I0
sg21
I00
sbsg22
I00
sg23
g54
sbsg22
I00
sg23
g41
sbsg19
I3
sg25
(imyEvolve
Tree
p974
(dp975
g7
(imyEvolve
Tree
p976
(dp977
g10
(imyEvolve
Tree
p978
(dp979
g19
I0
sg21
I00
sbsg19
I1
sg25
(imyEvolve
Tree
p980
(dp981
g19
I0
sg20
F3.6685387771237696
sg21
I01
sbsg22
I00
sg23
g41
sbsg19
I2
sg22
I01
sg23
g75
sbsg22
I00
sg23
g54
sbsg19
I4
sg22
I01
sg23
g24
sbsg19
I5
sg22
I01
sg23
g75
sbaa(lp982
(imyEvolve
Tree
p983
(dp984
g19
I3
sg10
(imyEvolve
Tree
p985
(dp986
g7
(imyEvolve
Tree
p987
(dp988
g19
I1
sg10
(imyEvolve
Tree
p989
(dp990
g19
I0
sg21
I00
sbsg25
(imyEvolve
Tree
p991
(dp992
g19
I0
sg21
I00
sbsg22
I00
sg23
g41
sbsg19
I2
sg22
I01
sg23
g53
sbsg25
(imyEvolve
Tree
p993
(dp994
g7
(imyEvolve
Tree
p995
(dp996
g7
(imyEvolve
Tree
p997
(dp998
g19
I0
sg21
I00
sbsg19
I1
sg22
I01
sg23
g53
sbsg19
I2
sg22
I01
sg23
g53
sbsg22
I00
sg23
g30
sba(imyEvolve
Tree
p999
(dp1000
g7
(imyEvolve
Tree
p1001
(dp1002
g7
(imyEvolve
Tree
p1003
(dp1004
g19
I3
sg10
(imyEvolve
Tree
p1005
(dp1006
g7
(imyEvolve
Tree
p1007
(dp1008
g19
I1
sg10
(imyEvolve
Tree
p1009
(dp1010
g19
I0
sg21
I00
sbsg25
(imyEvolve
Tree
p1011
(dp1012
g19
I0
sg21
I00
sbsg22
I00
sg23
g54
sbsg19
I2
sg22
I01
sg23
g46
sbsg25
(imyEvolve
Tree
p1013
(dp1014
g19
I2
sg10
(imyEvolve
Tree
p1015
(dp1016
g7
(imyEvolve
Tree
p1017
(dp1018
g19
I0
sg20
F-0.8687452460917866
sg21
I01
sbsg19
I1
sg22
I01
sg23
g46
sbsg25
(imyEvolve
Tree
p1019
(dp1020
g19
I1
sg10
(imyEvolve
Tree
p1021
(dp1022
g19
I0
sg20
F-4.229779966247782
sg21
I01
sbsg25
(imyEvolve
Tree
p1023
(dp1024
g19
I0
sg21
I00
sbsg22
I00
sg23
g41
sbsg22
I00
sg23
g54
sbsg22
I00
sg23
g54
sbsg19
I4
sg22
I01
sg23
g24
sbsg19
I5
sg22
I01
sg23
g75
sba(imyEvolve
Tree
p1025
(dp1026
g10
(imyEvolve
Tree
p1027
(dp1028
g7
(imyEvolve
Tree
p1029
(dp1030
g19
I0
sg20
F-1.0895144454311403
sg21
I01
sbsg19
I1
sg22
I01
sg23
g75
sbsg19
I2
sg25
(imyEvolve
Tree
p1031
(dp1032
g7
(imyEvolve
Tree
p1033
(dp1034
g19
I0
sg21
I00
sbsg19
I1
sg22
I01
sg23
g24
sbsg22
I00
sg23
g30
sba(imyEvolve
Tree
p1035
(dp1036
g19
I4
sg10
(imyEvolve
Tree
p1037
(dp1038
g19
I3
sg10
(imyEvolve
Tree
p1039
(dp1040
g7
(imyEvolve
Tree
p1041
(dp1042
g19
I1
sg10
(imyEvolve
Tree
p1043
(dp1044
g19
I0
sg20
F1.4000641477338611
sg21
I01
sbsg25
(imyEvolve
Tree
p1045
(dp1046
g19
I0
sg20
F1.330131822065086
sg21
I01
sbsg22
I00
sg23
g30
sbsg19
I2
sg22
I01
sg23
g53
sbsg25
(imyEvolve
Tree
p1047
(dp1048
g19
I2
sg10
(imyEvolve
Tree
p1049
(dp1050
g19
I1
sg10
(imyEvolve
Tree
p1051
(dp1052
g19
I0
sg20
F-4.85966498397799
sg21
I01
sbsg25
(imyEvolve
Tree
p1053
(dp1054
g19
I0
sg20
F-1.3330981635545625
sg21
I01
sbsg22
I00
sg23
g41
sbsg25
(imyEvolve
Tree
p1055
(dp1056
g19
I1
sg10
(imyEvolve
Tree
p1057
(dp1058
g19
I0
sg21
I00
sbsg25
(imyEvolve
Tree
p1059
(dp1060
g19
I0
sg21
I00
sbsg22
I00
sg23
g54
sbsg22
I00
sg23
g41
sbsg22
I00
sg23
g41
sbsg25
(imyEvolve
Tree
p1061
(dp1062
g7
(imyEvolve
Tree
p1063
(dp1064
g7
(imyEvolve
Tree
p1065
(dp1066
g19
I1
sg10
(imyEvolve
Tree
p1067
(dp1068
g19
I0
sg21
I00
sbsg25
(imyEvolve
Tree
p1069
(dp1070
g19
I0
sg20
F-4.885470848960313
sg21
I01
sbsg22
I00
sg23
g54
sbsg19
I2
sg22
I01
sg23
g75
sbsg19
I3
sg22
I01
sg23
g46
sbsg22
I00
sg23
g54
sba(imyEvolve
Tree
p1071
(dp1072
g7
(imyEvolve
Tree
p1073
(dp1074
g7
(imyEvolve
Tree
p1075
(dp1076
g7
(imyEvolve
Tree
p1077
(dp1078
g7
(imyEvolve
Tree
p1079
(dp1080
g19
I0
sg21
I00
sbsg19
I1
sg22
I01
sg23
g46
sbsg19
I2
sg22
I01
sg23
g24
sbsg19
I3
sg22
I01
sg23
g24
sbsg19
I4
sg22
I01
sg23
g75
sba(imyEvolve
Tree
p1081
(dp1082
g10
(imyEvolve
Tree
p1083
(dp1084
g7
(imyEvolve
Tree
p1085
(dp1086
g7
(imyEvolve
Tree
p1087
(dp1088
g10
(imyEvolve
Tree
p1089
(dp1090
g7
(imyEvolve
Tree
p1091
(dp1092
g19
I0
sg20
F-4.083010619636087
sg21
I01
sbsg19
I1
sg22
I01
sg23
g46
sbsg19
I2
sg25
(imyEvolve
Tree
p1093
(dp1094
g10
(imyEvolve
Tree
p1095
(dp1096
g19
I0
sg20
F-0.09718018710264076
sg21
I01
sbsg19
I1
sg25
(imyEvolve
Tree
p1097
(dp1098
g19
I0
sg20
F-0.2621862515918938
sg21
I01
sbsg22
I00
sg23
g30
sbsg22
I00
sg23
g41
sbsg19
I3
sg22
I01
sg23
g24
sbsg19
I4
sg22
I01
sg23
g75
sbsg19
I5
sg25
(imyEvolve
Tree
p1099
(dp1100
g10
(imyEvolve
Tree
p1101
(dp1102
g10
(imyEvolve
Tree
p1103
(dp1104
g7
(imyEvolve
Tree
p1105
(dp1106
g10
(imyEvolve
Tree
p1107
(dp1108
g19
I0
sg21
I00
sbsg19
I1
sg25
(imyEvolve
Tree
p1109
(dp1110
g19
I0
sg21
I00
sbsg22
I00
sg23
g41
sbsg19
I2
sg22
I01
sg23
g75
sbsg19
I3
sg25
(imyEvolve
Tree
p1111
(dp1112
g10
(imyEvolve
Tree
p1113
(dp1114
g7
(imyEvolve
Tree
p1115
(dp1116
g19
I0
sg21
I00
sbsg19
I1
sg22
I01
sg23
g46
sbsg19
I2
sg25
(imyEvolve
Tree
p1117
(dp1118
g7
(imyEvolve
Tree
p1119
(dp1120
g19
I0
sg20
F1.2627839341203595
sg21
I01
sbsg19
I1
sg22
I01
sg23
g75
sbsg22
I00
sg23
g54
sbsg22
I00
sg23
g41
sbsg19
I4
sg25
(imyEvolve
Tree
p1121
(dp1122
g7
(imyEvolve
Tree
p1123
(dp1124
g10
(imyEvolve
Tree
p1125
(dp1126
g10
(imyEvolve
Tree
p1127
(dp1128
g19
I0
sg21
I00
sbsg19
I1
sg25
(imyEvolve
Tree
p1129
(dp1130
g19
I0
sg20
F2.936507695421838
sg21
I01
sbsg22
I00
sg23
g41
sbsg19
I2
sg25
(imyEvolve
Tree
p1131
(dp1132
g10
(imyEvolve
Tree
p1133
(dp1134
g19
I0
sg21
I00
sbsg19
I1
sg25
(imyEvolve
Tree
p1135
(dp1136
g19
I0
sg21
I00
sbsg22
I00
sg23
g41
sbsg22
I00
sg23
g41
sbsg19
I3
sg22
I01
sg23
g24
sbsg22
I00
sg23
g30
sbsg22
I00
sg23
g41
sba(imyEvolve
Tree
p1137
(dp1138
g10
(imyEvolve
Tree
p1139
(dp1140
g10
(imyEvolve
Tree
p1141
(dp1142
g7
(imyEvolve
Tree
p1143
(dp1144
g10
(imyEvolve
Tree
p1145
(dp1146
g19
I0
sg21
I00
sbsg19
I1
sg25
(imyEvolve
Tree
p1147
(dp1148
g19
I0
sg21
I00
sbsg22
I00
sg23
g54
sbsg19
I2
sg22
I01
sg23
g24
sbsg19
I3
sg25
(imyEvolve
Tree
p1149
(dp1150
g7
(imyEvolve
Tree
p1151
(dp1152
g10
(imyEvolve
Tree
p1153
(dp1154
g19
I0
sg21
I00
sbsg19
I1
sg25
(imyEvolve
Tree
p1155
(dp1156
g19
I0
sg21
I00
sbsg22
I00
sg23
g30
sbsg19
I2
sg22
I01
sg23
g46
sbsg22
I00
sg23
g41
sbsg19
I4
sg25
(imyEvolve
Tree
p1157
(dp1158
g10
(imyEvolve
Tree
p1159
(dp1160
g7
(imyEvolve
Tree
p1161
(dp1162
g10
(imyEvolve
Tree
p1163
(dp1164
g19
I0
sg21
I00
sbsg19
I1
sg25
(imyEvolve
Tree
p1165
(dp1166
g19
I0
sg20
F2.4058283995222665
sg21
I01
sbsg22
I00
sg23
g41
sbsg19
I2
sg22
I01
sg23
g24
sbsg19
I3
sg25
(imyEvolve
Tree
p1167
(dp1168
g7
(imyEvolve
Tree
p1169
(dp1170
g10
(imyEvolve
Tree
p1171
(dp1172
g19
I0
sg20
F1.0828271140064007
sg21
I01
sbsg19
I1
sg25
(imyEvolve
Tree
p1173
(dp1174
g19
I0
sg21
I00
sbsg22
I00
sg23
g30
sbsg19
I2
sg22
I01
sg23
g46
sbsg22
I00
sg23
g41
sbsg22
I00
sg23
g54
sba(imyEvolve
Tree
p1175
(dp1176
g7
(imyEvolve
Tree
p1177
(dp1178
g7
(imyEvolve
Tree
p1179
(dp1180
g7
(imyEvolve
Tree
p1181
(dp1182
g19
I2
sg10
(imyEvolve
Tree
p1183
(dp1184
g7
(imyEvolve
Tree
p1185
(dp1186
g19
I0
sg21
I00
sbsg19
I1
sg22
I01
sg23
g24
sbsg25
(imyEvolve
Tree
p1187
(dp1188
g19
I1
sg10
(imyEvolve
Tree
p1189
(dp1190
g19
I0
sg20
F0.524635166589551
sg21
I01
sbsg25
(imyEvolve
Tree
p1191
(dp1192
g19
I0
sg20
F-0.504658794941669
sg21
I01
sbsg22
I00
sg23
g54
sbsg22
I00
sg23
g54
sbsg19
I3
sg22
I01
sg23
g53
sbsg19
I4
sg22
I01
sg23
g46
sbsg19
I5
sg22
I01
sg23
g53
sba(imyEvolve
Tree
p1193
(dp1194
g10
(imyEvolve
Tree
p1195
(dp1196
g10
(imyEvolve
Tree
p1197
(dp1198
g19
I0
sg20
F0.9518227170328242
sg21
I01
sbsg19
I1
sg25
(imyEvolve
Tree
p1199
(dp1200
g19
I0
sg20
F4.584046267804091
sg21
I01
sbsg22
I00
sg23
g54
sbsg19
I2
sg25
(imyEvolve
Tree
p1201
(dp1202
g7
(imyEvolve
Tree
p1203
(dp1204
g19
I0
sg20
F-1.3794602726212024
sg21
I01
sbsg19
I1
sg22
I01
sg23
g75
sbsg22
I00
sg23
g54
sba(imyEvolve
Tree
p1205
(dp1206
g10
(imyEvolve
Tree
p1207
(dp1208
g10
(imyEvolve
Tree
p1209
(dp1210
g19
I0
sg20
F2.1491065406087726
sg21
I01
sbsg19
I1
sg25
(imyEvolve
Tree
p1211
(dp1212
g19
I0
sg21
I00
sbsg22
I00
sg23
g41
sbsg19
I2
sg25
(imyEvolve
Tree
p1213
(dp1214
g10
(imyEvolve
Tree
p1215
(dp1216
g19
I0
sg20
F-3.348261948098238
sg21
I01
sbsg19
I1
sg25
(imyEvolve
Tree
p1217
(dp1218
g19
I0
sg21
I00
sbsg22
I00
sg23
g41
sbsg22
I00
sg23
g30
sba(imyEvolve
Tree
p1219
(dp1220
g19
I4
sg10
(imyEvolve
Tree
p1221
(dp1222
g7
(imyEvolve
Tree
p1223
(dp1224
g19
I2
sg10
(imyEvolve
Tree
p1225
(dp1226
g19
I1
sg10
(imyEvolve
Tree
p1227
(dp1228
g19
I0
sg20
F-4.123430404290095
sg21
I01
sbsg25
(imyEvolve
Tree
p1229
(dp1230
g19
I0
sg21
I00
sbsg22
I00
sg23
g54
sbsg25
(imyEvolve
Tree
p1231
(dp1232
g7
(imyEvolve
Tree
p1233
(dp1234
g19
I0
sg21
I00
sbsg19
I1
sg22
I01
sg23
g24
sbsg22
I00
sg23
g54
sbsg19
I3
sg22
I01
sg23
g75
sbsg25
(imyEvolve
Tree
p1235
(dp1236
g19
I3
sg10
(imyEvolve
Tree
p1237
(dp1238
g19
I2
sg10
(imyEvolve
Tree
p1239
(dp1240
g7
(imyEvolve
Tree
p1241
(dp1242
g19
I0
sg20
F0.9406221645343136
sg21
I01
sbsg19
I1
sg22
I01
sg23
g75
sbsg25
(imyEvolve
Tree
p1243
(dp1244
g19
I1
sg10
(imyEvolve
Tree
p1245
(dp1246
g19
I0
sg20
F-4.5386130312443616
sg21
I01
sbsg25
(imyEvolve
Tree
p1247
(dp1248
g19
I0
sg20
F-2.5377401079252127
sg21
I01
sbsg22
I00
sg23
g54
sbsg22
I00
sg23
g54
sbsg25
(imyEvolve
Tree
p1249
(dp1250
g19
I2
sg10
(imyEvolve
Tree
p1251
(dp1252
g7
(imyEvolve
Tree
p1253
(dp1254
g19
I0
sg20
F1.0598366244052517
sg21
I01
sbsg19
I1
sg22
I01
sg23
g46
sbsg25
(imyEvolve
Tree
p1255
(dp1256
g7
(imyEvolve
Tree
p1257
(dp1258
g19
I0
sg20
F1.922185938751003
sg21
I01
sbsg19
I1
sg22
I01
sg23
g53
sbsg22
I00
sg23
g54
sbsg22
I00
sg23
g41
sbsg22
I00
sg23
g30
sba(imyEvolve
Tree
p1259
(dp1260
g7
(imyEvolve
Tree
p1261
(dp1262
g7
(imyEvolve
Tree
p1263
(dp1264
g19
I0
sg21
I00
sbsg19
I1
sg22
I01
sg23
g53
sbsg19
I2
sg22
I01
sg23
g53
sba(imyEvolve
Tree
p1265
(dp1266
g10
(imyEvolve
Tree
p1267
(dp1268
g10
(imyEvolve
Tree
p1269
(dp1270
g19
I0
sg20
F-2.9536163258247026
sg21
I01
sbsg19
I1
sg25
(imyEvolve
Tree
p1271
(dp1272
g19
I0
sg20
F-1.6670561860067523
sg21
I01
sbsg22
I00
sg23
g30
sbsg19
I2
sg25
(imyEvolve
Tree
p1273
(dp1274
g7
(imyEvolve
Tree
p1275
(dp1276
g19
I0
sg21
I00
sbsg19
I1
sg22
I01
sg23
g53
sbsg22
I00
sg23
g41
sba(imyEvolve
Tree
p1277
(dp1278
g19
I3
sg10
(imyEvolve
Tree
p1279
(dp1280
g19
I2
sg10
(imyEvolve
Tree
p1281
(dp1282
g19
I1
sg10
(imyEvolve
Tree
p1283
(dp1284
g19
I0
sg20
F-2.730659710527007
sg21
I01
sbsg25
(imyEvolve
Tree
p1285
(dp1286
g19
I0
sg20
F-4.8655094594593535
sg21
I01
sbsg22
I00
sg23
g54
sbsg25
(imyEvolve
Tree
p1287
(dp1288
g7
(imyEvolve
Tree
p1289
(dp1290
g19
I0
sg21
I00
sbsg19
I1
sg22
I01
sg23
g46
sbsg22
I00
sg23
g41
sbsg25
(imyEvolve
Tree
p1291
(dp1292
g19
I2
sg10
(imyEvolve
Tree
p1293
(dp1294
g19
I1
sg10
(imyEvolve
Tree
p1295
(dp1296
g19
I0
sg20
F4.337965638874405
sg21
I01
sbsg25
(imyEvolve
Tree
p1297
(dp1298
g19
I0
sg21
I00
sbsg22
I00
sg23
g30
sbsg25
(imyEvolve
Tree
p1299
(dp1300
g7
(imyEvolve
Tree
p1301
(dp1302
g19
I0
sg20
F-4.579727902569058
sg21
I01
sbsg19
I1
sg22
I01
sg23
g24
sbsg22
I00
sg23
g41
sbsg22
I00
sg23
g54
sba(imyEvolve
Tree
p1303
(dp1304
g10
(imyEvolve
Tree
p1305
(dp1306
g10
(imyEvolve
Tree
p1307
(dp1308
g7
(imyEvolve
Tree
p1309
(dp1310
g19
I0
sg20
F-3.450725471731453
sg21
I01
sbsg19
I1
sg22
I01
sg23
g75
sbsg19
I2
sg25
(imyEvolve
Tree
p1311
(dp1312
g7
(imyEvolve
Tree
p1313
(dp1314
g19
I0
sg21
I00
sbsg19
I1
sg22
I01
sg23
g53
sbsg22
I00
sg23
g54
sbsg19
I3
sg25
(imyEvolve
Tree
p1315
(dp1316
g10
(imyEvolve
Tree
p1317
(dp1318
g10
(imyEvolve
Tree
p1319
(dp1320
g19
I0
sg20
F1.7418202671002163
sg21
I01
sbsg19
I1
sg25
(imyEvolve
Tree
p1321
(dp1322
g19
I0
sg21
I00
sbsg22
I00
sg23
g30
sbsg19
I2
sg25
(imyEvolve
Tree
p1323
(dp1324
g7
(imyEvolve
Tree
p1325
(dp1326
g19
I0
sg21
I00
sbsg19
I1
sg22
I01
sg23
g24
sbsg22
I00
sg23
g30
sbsg22
I00
sg23
g30
sba(imyEvolve
Tree
p1327
(dp1328
g7
(imyEvolve
Tree
p1329
(dp1330
g19
I4
sg10
(imyEvolve
Tree
p1331
(dp1332
g7
(imyEvolve
Tree
p1333
(dp1334
g7
(imyEvolve
Tree
p1335
(dp1336
g7
(imyEvolve
Tree
p1337
(dp1338
g19
I0
sg20
F1.4853211192712177
sg21
I01
sbsg19
I1
sg22
I01
sg23
g46
sbsg19
I2
sg22
I01
sg23
g24
sbsg19
I3
sg22
I01
sg23
g53
sbsg25
(imyEvolve
Tree
p1339
(dp1340
g19
I3
sg10
(imyEvolve
Tree
p1341
(dp1342
g7
(imyEvolve
Tree
p1343
(dp1344
g19
I1
sg10
(imyEvolve
Tree
p1345
(dp1346
g19
I0
sg20
F-4.407686280500547
sg21
I01
sbsg25
(imyEvolve
Tree
p1347
(dp1348
g19
I0
sg20
F-4.174982482560237
sg21
I01
sbsg22
I00
sg23
g41
sbsg19
I2
sg22
I01
sg23
g24
sbsg25
(imyEvolve
Tree
p1349
(dp1350
g19
I2
sg10
(imyEvolve
Tree
p1351
(dp1352
g19
I1
sg10
(imyEvolve
Tree
p1353
(dp1354
g19
I0
sg21
I00
sbsg25
(imyEvolve
Tree
p1355
(dp1356
g19
I0
sg20
F-1.6345985665246388
sg21
I01
sbsg22
I00
sg23
g54
sbsg25
(imyEvolve
Tree
p1357
(dp1358
g7
(imyEvolve
Tree
p1359
(dp1360
g19
I0
sg21
I00
sbsg19
I1
sg22
I01
sg23
g46
sbsg22
I00
sg23
g41
sbsg22
I00
sg23
g41
sbsg22
I00
sg23
g41
sbsg19
I5
sg22
I01
sg23
g46
sbaasS'alpha'
p1361
F0.0036983268320204083
sS'fitness'
p1362
cnumpy.core.multiarray
scalar
p1363
(cnumpy
dtype
p1364
(S'f8'
p1365
I0
I1
tp1366
Rp1367
(I3
S'<'
p1368
NNNI-1
I-1
I0
tp1369
bS'\x14?\xc6\x92\x0b!\xe6?'
p1370
tp1371
Rp1372
sS'weightSharing'
p1373
(lp1374
I00
asS'fitnessValid'
p1375
I00
sS'resolution'
p1376
I65
sb.