(imyEvolve
Individual
p0
(dp1
S'funcs'
p2
(lp3
(lp4
(imyEvolve
Tree
p5
(dp6
S'below'
p7
(imyEvolve
Tree
p8
(dp9
S'left'
p10
(imyEvolve
Tree
p11
(dp12
g7
(imyEvolve
Tree
p13
(dp14
g10
(imyEvolve
Tree
p15
(dp16
g7
(imyEvolve
Tree
p17
(dp18
S'depth'
p19
I0
sS'constant'
p20
F-2.9364946928065008
sS'isConstant'
p21
I01
sbsg19
I1
sS'single'
p22
I01
sS'op'
p23
cmath
cos
p24
sbsg19
I2
sS'right'
p25
(imyEvolve
Tree
p26
(dp27
g7
(imyEvolve
Tree
p28
(dp29
g19
I0
sg20
F-3.572471582026553
sg21
I01
sbsg19
I1
sg22
I01
sg23
g24
sbsg22
I00
sg23
coperator
mul
p30
sbsg19
I3
sg22
I01
sg23
g24
sbsg19
I4
sg25
(imyEvolve
Tree
p31
(dp32
g10
(imyEvolve
Tree
p33
(dp34
g10
(imyEvolve
Tree
p35
(dp36
g10
(imyEvolve
Tree
p37
(dp38
g19
I0
sg21
I00
sbsg19
I1
sg25
(imyEvolve
Tree
p39
(dp40
g19
I0
sg21
I00
sbsg22
I00
sg23
coperator
sub
p41
sbsg19
I2
sg25
(imyEvolve
Tree
p42
(dp43
g7
(imyEvolve
Tree
p44
(dp45
g19
I0
sg20
F2.1304730869402917
sg21
I01
sbsg19
I1
sg22
I01
sg23
cmyEvolve
square
p46
sbsg22
I00
sg23
g30
sbsg19
I3
sg25
(imyEvolve
Tree
p47
(dp48
g7
(imyEvolve
Tree
p49
(dp50
g7
(imyEvolve
Tree
p51
(dp52
g19
I0
sg21
I00
sbsg19
I1
sg22
I01
sg23
g24
sbsg19
I2
sg22
I01
sg23
cmyEvolve
absSqrt
p53
sbsg22
I00
sg23
g30
sbsg22
I00
sg23
coperator
add
p54
sbsg19
I5
sg22
I01
sg23
g24
sba(imyEvolve
Tree
p55
(dp56
g7
(imyEvolve
Tree
p57
(dp58
g10
(imyEvolve
Tree
p59
(dp60
g19
I0
sg21
I00
sbsg19
I1
sg25
(imyEvolve
Tree
p61
(dp62
g19
I0
sg21
I00
sbsg22
I00
sg23
g30
sbsg19
I2
sg22
I01
sg23
g46
sba(imyEvolve
Tree
p63
(dp64
g19
I2
sg10
(imyEvolve
Tree
p65
(dp66
g19
I1
sg10
(imyEvolve
Tree
p67
(dp68
g19
I0
sg20
F4.866207088422042
sg21
I01
sbsg25
(imyEvolve
Tree
p69
(dp70
g19
I0
sg21
I00
sbsg22
I00
sg23
g30
sbsg25
(imyEvolve
Tree
p71
(dp72
g19
I1
sg10
(imyEvolve
Tree
p73
(dp74
g19
I0
sg21
I00
sbsg25
(imyEvolve
Tree
p75
(dp76
g19
I0
sg21
I00
sbsg22
I00
sg23
g41
sbsg22
I00
sg23
g30
sba(imyEvolve
Tree
p77
(dp78
g10
(imyEvolve
Tree
p79
(dp80
g7
(imyEvolve
Tree
p81
(dp82
g7
(imyEvolve
Tree
p83
(dp84
g10
(imyEvolve
Tree
p85
(dp86
g10
(imyEvolve
Tree
p87
(dp88
g19
I0
sg21
I00
sbsg19
I1
sg25
(imyEvolve
Tree
p89
(dp90
g19
I0
sg20
F4.0335451256297326
sg21
I01
sbsg22
I00
sg23
g30
sbsg19
I2
sg25
(imyEvolve
Tree
p91
(dp92
g7
(imyEvolve
Tree
p93
(dp94
g19
I0
sg21
I00
sbsg19
I1
sg22
I01
sg23
g24
sbsg22
I00
sg23
g54
sbsg19
I3
sg22
I01
sg23
g53
sbsg19
I4
sg22
I01
sg23
cmath
sin
p95
sbsg19
I5
sg25
(imyEvolve
Tree
p96
(dp97
g10
(imyEvolve
Tree
p98
(dp99
g10
(imyEvolve
Tree
p100
(dp101
g10
(imyEvolve
Tree
p102
(dp103
g10
(imyEvolve
Tree
p104
(dp105
g19
I0
sg20
F4.914571258548197
sg21
I01
sbsg19
I1
sg25
(imyEvolve
Tree
p106
(dp107
g19
I0
sg20
F2.958972057203794
sg21
I01
sbsg22
I00
sg23
g54
sbsg19
I2
sg25
(imyEvolve
Tree
p108
(dp109
g10
(imyEvolve
Tree
p110
(dp111
g19
I0
sg21
I00
sbsg19
I1
sg25
(imyEvolve
Tree
p112
(dp113
g19
I0
sg20
F1.6082563923527768
sg21
I01
sbsg22
I00
sg23
g30
sbsg22
I00
sg23
g54
sbsg19
I3
sg25
(imyEvolve
Tree
p114
(dp115
g7
(imyEvolve
Tree
p116
(dp117
g10
(imyEvolve
Tree
p118
(dp119
g19
I0
sg20
F-2.077475977782166
sg21
I01
sbsg19
I1
sg25
(imyEvolve
Tree
p120
(dp121
g19
I0
sg21
I00
sbsg22
I00
sg23
g30
sbsg19
I2
sg22
I01
sg23
g24
sbsg22
I00
sg23
g30
sbsg19
I4
sg25
(imyEvolve
Tree
p122
(dp123
g7
(imyEvolve
Tree
p124
(dp125
g10
(imyEvolve
Tree
p126
(dp127
g10
(imyEvolve
Tree
p128
(dp129
g19
I0
sg20
F4.40289127860782
sg21
I01
sbsg19
I1
sg25
(imyEvolve
Tree
p130
(dp131
g19
I0
sg21
I00
sbsg22
I00
sg23
g30
sbsg19
I2
sg25
(imyEvolve
Tree
p132
(dp133
g7
(imyEvolve
Tree
p134
(dp135
g19
I0
sg21
I00
sbsg19
I1
sg22
I01
sg23
g46
sbsg22
I00
sg23
g41
sbsg19
I3
sg22
I01
sg23
g46
sbsg22
I00
sg23
g41
sbsg22
I00
sg23
g54
sba(imyEvolve
Tree
p136
(dp137
g7
(imyEvolve
Tree
p138
(dp139
g7
(imyEvolve
Tree
p140
(dp141
g10
(imyEvolve
Tree
p142
(dp143
g7
(imyEvolve
Tree
p144
(dp145
g7
(imyEvolve
Tree
p146
(dp147
g19
I0
sg20
F-3.5605797211046495
sg21
I01
sbsg19
I1
sg22
I01
sg23
g46
sbsg19
I2
sg22
I01
sg23
g53
sbsg19
I3
sg25
(imyEvolve
Tree
p148
(dp149
g7
(imyEvolve
Tree
p150
(dp151
g7
(imyEvolve
Tree
p152
(dp153
g19
I0
sg21
I00
sbsg19
I1
sg22
I01
sg23
g53
sbsg19
I2
sg22
I01
sg23
g95
sbsg22
I00
sg23
g41
sbsg19
I4
sg22
I01
sg23
g24
sbsg19
I5
sg22
I01
sg23
g24
sba(imyEvolve
Tree
p154
(dp155
g7
(imyEvolve
Tree
p156
(dp157
g10
(imyEvolve
Tree
p158
(dp159
g19
I0
sg21
I00
sbsg19
I1
sg25
(imyEvolve
Tree
p160
(dp161
g19
I0
sg21
I00
sbsg22
I00
sg23
g41
sbsg19
I2
sg22
I01
sg23
g24
sba(imyEvolve
Tree
p162
(dp163
g7
(imyEvolve
Tree
p164
(dp165
g7
(imyEvolve
Tree
p166
(dp167
g7
(imyEvolve
Tree
p168
(dp169
g19
I0
sg21
I00
sbsg19
I1
sg22
I01
sg23
g46
sbsg19
I2
sg22
I01
sg23
g95
sbsg19
I3
sg22
I01
sg23
g46
sba(imyEvolve
Tree
p170
(dp171
g7
(imyEvolve
Tree
p172
(dp173
g7
(imyEvolve
Tree
p174
(dp175
g7
(imyEvolve
Tree
p176
(dp177
g19
I0
sg21
I00
sbsg19
I1
sg22
I01
sg23
g24
sbsg19
I2
sg22
I01
sg23
g53
sbsg19
I3
sg22
I01
sg23
g46
sba(imyEvolve
Tree
p178
(dp179
g10
(imyEvolve
Tree
p180
(dp181
g10
(imyEvolve
Tree
p182
(dp183
g10
(imyEvolve
Tree
p184
(dp185
g7
(imyEvolve
Tree
p186
(dp187
g10
(imyEvolve
Tree
p188
(dp189
g19
I0
sg21
I00
sbsg19
I1
sg25
(imyEvolve
Tree
p190
(dp191
g19
I0
sg20
F-3.1588421602934655
sg21
I01
sbsg22
I00
sg23
g30
sbsg19
I2
sg22
I01
sg23
g24
sbsg19
I3
sg25
(imyEvolve
Tree
p192
(dp193
g10
(imyEvolve
Tree
p194
(dp195
g7
(imyEvolve
Tree
p196
(dp197
g19
I0
sg20
F2.3521657001242726
sg21
I01
sbsg19
I1
sg22
I01
sg23
g46
sbsg19
I2
sg25
(imyEvolve
Tree
p198
(dp199
g10
(imyEvolve
Tree
p200
(dp201
g19
I0
sg21
I00
sbsg19
I1
sg25
(imyEvolve
Tree
p202
(dp203
g19
I0
sg20
F1.687607381302314
sg21
I01
sbsg22
I00
sg23
g41
sbsg22
I00
sg23
g30
sbsg22
I00
sg23
g41
sbsg19
I4
sg25
(imyEvolve
Tree
p204
(dp205
g7
(imyEvolve
Tree
p206
(dp207
g10
(imyEvolve
Tree
p208
(dp209
g7
(imyEvolve
Tree
p210
(dp211
g19
I0
sg21
I00
sbsg19
I1
sg22
I01
sg23
g24
sbsg19
I2
sg25
(imyEvolve
Tree
p212
(dp213
g7
(imyEvolve
Tree
p214
(dp215
g19
I0
sg20
F3.2501511916158012
sg21
I01
sbsg19
I1
sg22
I01
sg23
g53
sbsg22
I00
sg23
g41
sbsg19
I3
sg22
I01
sg23
g53
sbsg22
I00
sg23
g54
sbsg19
I5
sg25
(imyEvolve
Tree
p216
(dp217
g7
(imyEvolve
Tree
p218
(dp219
g10
(imyEvolve
Tree
p220
(dp221
g7
(imyEvolve
Tree
p222
(dp223
g10
(imyEvolve
Tree
p224
(dp225
g19
I0
sg21
I00
sbsg19
I1
sg25
(imyEvolve
Tree
p226
(dp227
g19
I0
sg20
F-0.4971146818405314
sg21
I01
sbsg22
I00
sg23
g54
sbsg19
I2
sg22
I01
sg23
g24
sbsg19
I3
sg25
(imyEvolve
Tree
p228
(dp229
g7
(imyEvolve
Tree
p230
(dp231
g10
(imyEvolve
Tree
p232
(dp233
g19
I0
sg21
I00
sbsg19
I1
sg25
(imyEvolve
Tree
p234
(dp235
g19
I0
sg21
I00
sbsg22
I00
sg23
g30
sbsg19
I2
sg22
I01
sg23
g95
sbsg22
I00
sg23
g41
sbsg19
I4
sg22
I01
sg23
g24
sbsg22
I00
sg23
g41
sba(imyEvolve
Tree
p236
(dp237
g7
(imyEvolve
Tree
p238
(dp239
g7
(imyEvolve
Tree
p240
(dp241
g7
(imyEvolve
Tree
p242
(dp243
g10
(imyEvolve
Tree
p244
(dp245
g7
(imyEvolve
Tree
p246
(dp247
g19
I0
sg21
I00
sbsg19
I1
sg22
I01
sg23
g95
sbsg19
I2
sg25
(imyEvolve
Tree
p248
(dp249
g10
(imyEvolve
Tree
p250
(dp251
g19
I0
sg21
I00
sbsg19
I1
sg25
(imyEvolve
Tree
p252
(dp253
g19
I0
sg20
F0.8911251189838865
sg21
I01
sbsg22
I00
sg23
g41
sbsg22
I00
sg23
g54
sbsg19
I3
sg22
I01
sg23
g53
sbsg19
I4
sg22
I01
sg23
g46
sbsg19
I5
sg22
I01
sg23
g24
sba(imyEvolve
Tree
p254
(dp255
g19
I5
sg10
(imyEvolve
Tree
p256
(dp257
g7
(imyEvolve
Tree
p258
(dp259
g19
I3
sg10
(imyEvolve
Tree
p260
(dp261
g19
I2
sg10
(imyEvolve
Tree
p262
(dp263
g19
I1
sg10
(imyEvolve
Tree
p264
(dp265
g19
I0
sg20
F1.439876997275781
sg21
I01
sbsg25
(imyEvolve
Tree
p266
(dp267
g19
I0
sg21
I00
sbsg22
I00
sg23
g54
sbsg25
(imyEvolve
Tree
p268
(dp269
g19
I1
sg10
(imyEvolve
Tree
p270
(dp271
g19
I0
sg20
F0.6850813060689873
sg21
I01
sbsg25
(imyEvolve
Tree
p272
(dp273
g19
I0
sg21
I00
sbsg22
I00
sg23
g54
sbsg22
I00
sg23
g54
sbsg25
(imyEvolve
Tree
p274
(dp275
g19
I2
sg10
(imyEvolve
Tree
p276
(dp277
g7
(imyEvolve
Tree
p278
(dp279
g19
I0
sg20
F3.2049087502692544
sg21
I01
sbsg19
I1
sg22
I01
sg23
g95
sbsg25
(imyEvolve
Tree
p280
(dp281
g7
(imyEvolve
Tree
p282
(dp283
g19
I0
sg20
F0.4623927667102965
sg21
I01
sbsg19
I1
sg22
I01
sg23
g95
sbsg22
I00
sg23
g30
sbsg22
I00
sg23
g54
sbsg19
I4
sg22
I01
sg23
g53
sbsg25
(imyEvolve
Tree
p284
(dp285
g7
(imyEvolve
Tree
p286
(dp287
g7
(imyEvolve
Tree
p288
(dp289
g19
I2
sg10
(imyEvolve
Tree
p290
(dp291
g7
(imyEvolve
Tree
p292
(dp293
g19
I0
sg20
F-4.4275862148905905
sg21
I01
sbsg19
I1
sg22
I01
sg23
g53
sbsg25
(imyEvolve
Tree
p294
(dp295
g19
I1
sg10
(imyEvolve
Tree
p296
(dp297
g19
I0
sg20
F2.5308644649855117
sg21
I01
sbsg25
(imyEvolve
Tree
p298
(dp299
g19
I0
sg21
I00
sbsg22
I00
sg23
g41
sbsg22
I00
sg23
g41
sbsg19
I3
sg22
I01
sg23
g95
sbsg19
I4
sg22
I01
sg23
g24
sbsg22
I00
sg23
g41
sba(imyEvolve
Tree
p300
(dp301
g7
(imyEvolve
Tree
p302
(dp303
g10
(imyEvolve
Tree
p304
(dp305
g7
(imyEvolve
Tree
p306
(dp307
g7
(imyEvolve
Tree
p308
(dp309
g19
I0
sg20
F2.0741948645207398
sg21
I01
sbsg19
I1
sg22
I01
sg23
g46
sbsg19
I2
sg22
I01
sg23
g53
sbsg19
I3
sg25
(imyEvolve
Tree
p310
(dp311
g10
(imyEvolve
Tree
p312
(dp313
g10
(imyEvolve
Tree
p314
(dp315
g19
I0
sg21
I00
sbsg19
I1
sg25
(imyEvolve
Tree
p316
(dp317
g19
I0
sg20
F1.6146527970256024
sg21
I01
sbsg22
I00
sg23
g54
sbsg19
I2
sg25
(imyEvolve
Tree
p318
(dp319
g7
(imyEvolve
Tree
p320
(dp321
g19
I0
sg21
I00
sbsg19
I1
sg22
I01
sg23
g24
sbsg22
I00
sg23
g54
sbsg22
I00
sg23
g30
sbsg19
I4
sg22
I01
sg23
g95
sba(imyEvolve
Tree
p322
(dp323
g7
(imyEvolve
Tree
p324
(dp325
g7
(imyEvolve
Tree
p326
(dp327
g19
I0
sg20
F3.194390632773045
sg21
I01
sbsg19
I1
sg22
I01
sg23
g24
sbsg19
I2
sg22
I01
sg23
g95
sba(imyEvolve
Tree
p328
(dp329
g7
(imyEvolve
Tree
p330
(dp331
g7
(imyEvolve
Tree
p332
(dp333
g19
I0
sg20
F2.6897504296398678
sg21
I01
sbsg19
I1
sg22
I01
sg23
g46
sbsg19
I2
sg22
I01
sg23
g46
sba(imyEvolve
Tree
p334
(dp335
g10
(imyEvolve
Tree
p336
(dp337
g7
(imyEvolve
Tree
p338
(dp339
g19
I0
sg20
F-0.5873046072918147
sg21
I01
sbsg19
I1
sg22
I01
sg23
g53
sbsg19
I2
sg25
(imyEvolve
Tree
p340
(dp341
g7
(imyEvolve
Tree
p342
(dp343
g19
I0
sg20
F-1.2324085631721218
sg21
I01
sbsg19
I1
sg22
I01
sg23
g53
sbsg22
I00
sg23
g30
sba(imyEvolve
Tree
p344
(dp345
g7
(imyEvolve
Tree
p346
(dp347
g7
(imyEvolve
Tree
p348
(dp349
g7
(imyEvolve
Tree
p350
(dp351
g19
I0
sg21
I00
sbsg19
I1
sg22
I01
sg23
g95
sbsg19
I2
sg22
I01
sg23
g53
sbsg19
I3
sg22
I01
sg23
g46
sba(imyEvolve
Tree
p352
(dp353
g10
(imyEvolve
Tree
p354
(dp355
g7
(imyEvolve
Tree
p356
(dp357
g19
I0
sg21
I00
sbsg19
I1
sg22
I01
sg23
g53
sbsg19
I2
sg25
(imyEvolve
Tree
p358
(dp359
g7
(imyEvolve
Tree
p360
(dp361
g19
I0
sg21
I00
sbsg19
I1
sg22
I01
sg23
g24
sbsg22
I00
sg23
g54
sba(imyEvolve
Tree
p362
(dp363
g7
(imyEvolve
Tree
p364
(dp365
g7
(imyEvolve
Tree
p366
(dp367
g19
I0
sg20
F-4.790618614740372
sg21
I01
sbsg19
I1
sg22
I01
sg23
g24
sbsg19
I2
sg22
I01
sg23
g95
sbaa(lp368
(imyEvolve
Tree
p369
(dp370
g7
(imyEvolve
Tree
p371
(dp372
g10
(imyEvolve
Tree
p373
(dp374
g7
(imyEvolve
Tree
p375
(dp376
g19
I0
sg21
I00
sbsg19
I1
sg22
I01
sg23
g53
sbsg19
I2
sg25
(imyEvolve
Tree
p377
(dp378
g7
(imyEvolve
Tree
p379
(dp380
g19
I0
sg21
I00
sbsg19
I1
sg22
I01
sg23
g95
sbsg22
I00
sg23
g41
sbsg19
I3
sg22
I01
sg23
g53
sba(imyEvolve
Tree
p381
(dp382
g10
(imyEvolve
Tree
p383
(dp384
g10
(imyEvolve
Tree
p385
(dp386
g19
I0
sg21
I00
sbsg19
I1
sg25
(imyEvolve
Tree
p387
(dp388
g19
I0
sg20
F2.094479066317895
sg21
I01
sbsg22
I00
sg23
g54
sbsg19
I2
sg25
(imyEvolve
Tree
p389
(dp390
g10
(imyEvolve
Tree
p391
(dp392
g19
I0
sg20
F-2.436449475619007
sg21
I01
sbsg19
I1
sg25
(imyEvolve
Tree
p393
(dp394
g19
I0
sg21
I00
sbsg22
I00
sg23
g54
sbsg22
I00
sg23
g30
sba(imyEvolve
Tree
p395
(dp396
g19
I4
sg10
(imyEvolve
Tree
p397
(dp398
g7
(imyEvolve
Tree
p399
(dp400
g19
I2
sg10
(imyEvolve
Tree
p401
(dp402
g19
I1
sg10
(imyEvolve
Tree
p403
(dp404
g19
I0
sg20
F1.3104188352764439
sg21
I01
sbsg25
(imyEvolve
Tree
p405
(dp406
g19
I0
sg20
F4.871926429309752
sg21
I01
sbsg22
I00
sg23
g54
sbsg25
(imyEvolve
Tree
p407
(dp408
g7
(imyEvolve
Tree
p409
(dp410
g19
I0
sg20
F-3.9450277637207765
sg21
I01
sbsg19
I1
sg22
I01
sg23
g46
sbsg22
I00
sg23
g41
sbsg19
I3
sg22
I01
sg23
g24
sbsg25
(imyEvolve
Tree
p411
(dp412
g7
(imyEvolve
Tree
p413
(dp414
g7
(imyEvolve
Tree
p415
(dp416
g7
(imyEvolve
Tree
p417
(dp418
g19
I0
sg20
F-1.8818982985767176
sg21
I01
sbsg19
I1
sg22
I01
sg23
g53
sbsg19
I2
sg22
I01
sg23
g46
sbsg19
I3
sg22
I01
sg23
g95
sbsg22
I00
sg23
g30
sba(imyEvolve
Tree
p419
(dp420
g19
I2
sg10
(imyEvolve
Tree
p421
(dp422
g19
I1
sg10
(imyEvolve
Tree
p423
(dp424
g19
I0
sg21
I00
sbsg25
(imyEvolve
Tree
p425
(dp426
g19
I0
sg20
F0.5532197678976916
sg21
I01
sbsg22
I00
sg23
g30
sbsg25
(imyEvolve
Tree
p427
(dp428
g19
I1
sg10
(imyEvolve
Tree
p429
(dp430
g19
I0
sg20
F4.303550609549202
sg21
I01
sbsg25
(imyEvolve
Tree
p431
(dp432
g19
I0
sg20
F4.252978983072973
sg21
I01
sbsg22
I00
sg23
g30
sbsg22
I00
sg23
g54
sba(imyEvolve
Tree
p433
(dp434
g10
(imyEvolve
Tree
p435
(dp436
g7
(imyEvolve
Tree
p437
(dp438
g7
(imyEvolve
Tree
p439
(dp440
g19
I0
sg21
I00
sbsg19
I1
sg22
I01
sg23
g46
sbsg19
I2
sg22
I01
sg23
g53
sbsg19
I3
sg25
(imyEvolve
Tree
p441
(dp442
g10
(imyEvolve
Tree
p443
(dp444
g7
(imyEvolve
Tree
p445
(dp446
g19
I0
sg21
I00
sbsg19
I1
sg22
I01
sg23
g53
sbsg19
I2
sg25
(imyEvolve
Tree
p447
(dp448
g10
(imyEvolve
Tree
p449
(dp450
g19
I0
sg21
I00
sbsg19
I1
sg25
(imyEvolve
Tree
p451
(dp452
g19
I0
sg20
F-1.1608927083942042
sg21
I01
sbsg22
I00
sg23
g41
sbsg22
I00
sg23
g41
sbsg22
I00
sg23
g30
sba(imyEvolve
Tree
p453
(dp454
g19
I4
sg10
(imyEvolve
Tree
p455
(dp456
g19
I3
sg10
(imyEvolve
Tree
p457
(dp458
g19
I2
sg10
(imyEvolve
Tree
p459
(dp460
g19
I1
sg10
(imyEvolve
Tree
p461
(dp462
g19
I0
sg20
F-1.982322845832758
sg21
I01
sbsg25
(imyEvolve
Tree
p463
(dp464
g19
I0
sg21
I00
sbsg22
I00
sg23
g54
sbsg25
(imyEvolve
Tree
p465
(dp466
g7
(imyEvolve
Tree
p467
(dp468
g19
I0
sg21
I00
sbsg19
I1
sg22
I01
sg23
g53
sbsg22
I00
sg23
g30
sbsg25
(imyEvolve
Tree
p469
(dp470
g7
(imyEvolve
Tree
p471
(dp472
g7
(imyEvolve
Tree
p473
(dp474
g19
I0
sg20
F0.5092226183959045
sg21
I01
sbsg19
I1
sg22
I01
sg23
g95
sbsg19
I2
sg22
I01
sg23
g24
sbsg22
I00
sg23
g41
sbsg25
(imyEvolve
Tree
p475
(dp476
g7
(imyEvolve
Tree
p477
(dp478
g7
(imyEvolve
Tree
p479
(dp480
g19
I1
sg10
(imyEvolve
Tree
p481
(dp482
g19
I0
sg20
F-2.9227411262973035
sg21
I01
sbsg25
(imyEvolve
Tree
p483
(dp484
g19
I0
sg20
F4.509828558537784
sg21
I01
sbsg22
I00
sg23
g30
sbsg19
I2
sg22
I01
sg23
g53
sbsg19
I3
sg22
I01
sg23
g95
sbsg22
I00
sg23
g41
sba(imyEvolve
Tree
p485
(dp486
g7
(imyEvolve
Tree
p487
(dp488
g10
(imyEvolve
Tree
p489
(dp490
g10
(imyEvolve
Tree
p491
(dp492
g10
(imyEvolve
Tree
p493
(dp494
g19
I0
sg20
F-3.708706885759232
sg21
I01
sbsg19
I1
sg25
(imyEvolve
Tree
p495
(dp496
g19
I0
sg21
I00
sbsg22
I00
sg23
g54
sbsg19
I2
sg25
(imyEvolve
Tree
p497
(dp498
g10
(imyEvolve
Tree
p499
(dp500
g19
I0
sg21
I00
sbsg19
I1
sg25
(imyEvolve
Tree
p501
(dp502
g19
I0
sg21
I00
sbsg22
I00
sg23
g54
sbsg22
I00
sg23
g30
sbsg19
I3
sg25
(imyEvolve
Tree
p503
(dp504
g7
(imyEvolve
Tree
p505
(dp506
g7
(imyEvolve
Tree
p507
(dp508
g19
I0
sg20
F2.741288991206935
sg21
I01
sbsg19
I1
sg22
I01
sg23
g95
sbsg19
I2
sg22
I01
sg23
g24
sbsg22
I00
sg23
g30
sbsg19
I4
sg22
I01
sg23
g46
sba(imyEvolve
Tree
p509
(dp510
g7
(imyEvolve
Tree
p511
(dp512
g19
I4
sg10
(imyEvolve
Tree
p513
(dp514
g7
(imyEvolve
Tree
p515
(dp516
g7
(imyEvolve
Tree
p517
(dp518
g7
(imyEvolve
Tree
p519
(dp520
g19
I0
sg21
I00
sbsg19
I1
sg22
I01
sg23
g46
sbsg19
I2
sg22
I01
sg23
g95
sbsg19
I3
sg22
I01
sg23
g46
sbsg25
(imyEvolve
Tree
p521
(dp522
g7
(imyEvolve
Tree
p523
(dp524
g7
(imyEvolve
Tree
p525
(dp526
g7
(imyEvolve
Tree
p527
(dp528
g19
I0
sg20
F-4.595873155287148
sg21
I01
sbsg19
I1
sg22
I01
sg23
g46
sbsg19
I2
sg22
I01
sg23
g95
sbsg19
I3
sg22
I01
sg23
g24
sbsg22
I00
sg23
g41
sbsg19
I5
sg22
I01
sg23
g46
sba(imyEvolve
Tree
p529
(dp530
g10
(imyEvolve
Tree
p531
(dp532
g7
(imyEvolve
Tree
p533
(dp534
g10
(imyEvolve
Tree
p535
(dp536
g10
(imyEvolve
Tree
p537
(dp538
g19
I0
sg20
F1.8350864855726314
sg21
I01
sbsg19
I1
sg25
(imyEvolve
Tree
p539
(dp540
g19
I0
sg20
F-3.0034564982267264
sg21
I01
sbsg22
I00
sg23
g54
sbsg19
I2
sg25
(imyEvolve
Tree
p541
(dp542
g10
(imyEvolve
Tree
p543
(dp544
g19
I0
sg20
F-0.46726028503963946
sg21
I01
sbsg19
I1
sg25
(imyEvolve
Tree
p545
(dp546
g19
I0
sg20
F-1.3072025904848958
sg21
I01
sbsg22
I00
sg23
g30
sbsg22
I00
sg23
g30
sbsg19
I3
sg22
I01
sg23
g53
sbsg19
I4
sg25
(imyEvolve
Tree
p547
(dp548
g10
(imyEvolve
Tree
p549
(dp550
g10
(imyEvolve
Tree
p551
(dp552
g7
(imyEvolve
Tree
p553
(dp554
g19
I0
sg20
F-3.047439035591247
sg21
I01
sbsg19
I1
sg22
I01
sg23
g95
sbsg19
I2
sg25
(imyEvolve
Tree
p555
(dp556
g7
(imyEvolve
Tree
p557
(dp558
g19
I0
sg20
F-4.147117588052968
sg21
I01
sbsg19
I1
sg22
I01
sg23
g24
sbsg22
I00
sg23
g54
sbsg19
I3
sg25
(imyEvolve
Tree
p559
(dp560
g10
(imyEvolve
Tree
p561
(dp562
g10
(imyEvolve
Tree
p563
(dp564
g19
I0
sg20
F-2.2769031731218723
sg21
I01
sbsg19
I1
sg25
(imyEvolve
Tree
p565
(dp566
g19
I0
sg21
I00
sbsg22
I00
sg23
g41
sbsg19
I2
sg25
(imyEvolve
Tree
p567
(dp568
g7
(imyEvolve
Tree
p569
(dp570
g19
I0
sg21
I00
sbsg19
I1
sg22
I01
sg23
g46
sbsg22
I00
sg23
g41
sbsg22
I00
sg23
g54
sbsg22
I00
sg23
g30
sba(imyEvolve
Tree
p571
(dp572
g7
(imyEvolve
Tree
p573
(dp574
g19
I2
sg10
(imyEvolve
Tree
p575
(dp576
g19
I1
sg10
(imyEvolve
Tree
p577
(dp578
g19
I0
sg21
I00
sbsg25
(imyEvolve
Tree
p579
(dp580
g19
I0
sg21
I00
sbsg22
I00
sg23
g41
sbsg25
(imyEvolve
Tree
p581
(dp582
g7
(imyEvolve
Tree
p583
(dp584
g19
I0
sg20
F-0.023244882941414247
sg21
I01
sbsg19
I1
sg22
I01
sg23
g53
sbsg22
I00
sg23
g30
sbsg19
I3
sg22
I01
sg23
g53
sba(imyEvolve
Tree
p585
(dp586
g7
(imyEvolve
Tree
p587
(dp588
g7
(imyEvolve
Tree
p589
(dp590
g19
I0
sg20
F-2.968421194043268
sg21
I01
sbsg19
I1
sg22
I01
sg23
g24
sbsg19
I2
sg22
I01
sg23
g95
sba(imyEvolve
Tree
p591
(dp592
g7
(imyEvolve
Tree
p593
(dp594
g7
(imyEvolve
Tree
p595
(dp596
g7
(imyEvolve
Tree
p597
(dp598
g7
(imyEvolve
Tree
p599
(dp600
g19
I0
sg20
F-2.3807552443199063
sg21
I01
sbsg19
I1
sg22
I01
sg23
g53
sbsg19
I2
sg22
I01
sg23
g95
sbsg19
I3
sg22
I01
sg23
g24
sbsg19
I4
sg22
I01
sg23
g95
sba(imyEvolve
Tree
p601
(dp602
g7
(imyEvolve
Tree
p603
(dp604
g7
(imyEvolve
Tree
p605
(dp606
g19
I0
sg20
F-0.6539168139617226
sg21
I01
sbsg19
I1
sg22
I01
sg23
g53
sbsg19
I2
sg22
I01
sg23
g24
sbaa(lp607
(imyEvolve
Tree
p608
(dp609
g10
(imyEvolve
Tree
p610
(dp611
g7
(imyEvolve
Tree
p612
(dp613
g7
(imyEvolve
Tree
p614
(dp615
g10
(imyEvolve
Tree
p616
(dp617
g19
I0
sg20
F-3.146289141146129
sg21
I01
sbsg19
I1
sg25
(imyEvolve
Tree
p618
(dp619
g19
I0
sg21
I00
sbsg22
I00
sg23
g30
sbsg19
I2
sg22
I01
sg23
g95
sbsg19
I3
sg22
I01
sg23
g46
sbsg19
I4
sg25
(imyEvolve
Tree
p620
(dp621
g7
(imyEvolve
Tree
p622
(dp623
g7
(imyEvolve
Tree
p624
(dp625
g10
(imyEvolve
Tree
p626
(dp627
g19
I0
sg20
F2.8422988932532114
sg21
I01
sbsg19
I1
sg25
(imyEvolve
Tree
p628
(dp629
g19
I0
sg21
I00
sbsg22
I00
sg23
g54
sbsg19
I2
sg22
I01
sg23
g46
sbsg19
I3
sg22
I01
sg23
g46
sbsg22
I00
sg23
g30
sba(imyEvolve
Tree
p630
(dp631
g19
I5
sg10
(imyEvolve
Tree
p632
(dp633
g19
I4
sg10
(imyEvolve
Tree
p634
(dp635
g19
I3
sg10
(imyEvolve
Tree
p636
(dp637
g7
(imyEvolve
Tree
p638
(dp639
g7
(imyEvolve
Tree
p640
(dp641
g19
I0
sg20
F-3.1477612081691566
sg21
I01
sbsg19
I1
sg22
I01
sg23
g53
sbsg19
I2
sg22
I01
sg23
g46
sbsg25
(imyEvolve
Tree
p642
(dp643
g7
(imyEvolve
Tree
p644
(dp645
g19
I1
sg10
(imyEvolve
Tree
p646
(dp647
g19
I0
sg21
I00
sbsg25
(imyEvolve
Tree
p648
(dp649
g19
I0
sg20
F3.328740411407775
sg21
I01
sbsg22
I00
sg23
g30
sbsg19
I2
sg22
I01
sg23
g46
sbsg22
I00
sg23
g41
sbsg25
(imyEvolve
Tree
p650
(dp651
g7
(imyEvolve
Tree
p652
(dp653
g19
I2
sg10
(imyEvolve
Tree
p654
(dp655
g19
I1
sg10
(imyEvolve
Tree
p656
(dp657
g19
I0
sg21
I00
sbsg25
(imyEvolve
Tree
p658
(dp659
g19
I0
sg20
F-1.8267064480426711
sg21
I01
sbsg22
I00
sg23
g41
sbsg25
(imyEvolve
Tree
p660
(dp661
g19
I1
sg10
(imyEvolve
Tree
p662
(dp663
g19
I0
sg21
I00
sbsg25
(imyEvolve
Tree
p664
(dp665
g19
I0
sg21
I00
sbsg22
I00
sg23
g30
sbsg22
I00
sg23
g41
sbsg19
I3
sg22
I01
sg23
g24
sbsg22
I00
sg23
g41
sbsg25
(imyEvolve
Tree
p666
(dp667
g19
I4
sg10
(imyEvolve
Tree
p668
(dp669
g19
I3
sg10
(imyEvolve
Tree
p670
(dp671
g19
I2
sg10
(imyEvolve
Tree
p672
(dp673
g19
I1
sg10
(imyEvolve
Tree
p674
(dp675
g19
I0
sg20
F-3.644015253501008
sg21
I01
sbsg25
(imyEvolve
Tree
p676
(dp677
g19
I0
sg21
I00
sbsg22
I00
sg23
g30
sbsg25
(imyEvolve
Tree
p678
(dp679
g7
(imyEvolve
Tree
p680
(dp681
g19
I0
sg21
I00
sbsg19
I1
sg22
I01
sg23
g24
sbsg22
I00
sg23
g30
sbsg25
(imyEvolve
Tree
p682
(dp683
g19
I2
sg10
(imyEvolve
Tree
p684
(dp685
g19
I1
sg10
(imyEvolve
Tree
p686
(dp687
g19
I0
sg21
I00
sbsg25
(imyEvolve
Tree
p688
(dp689
g19
I0
sg21
I00
sbsg22
I00
sg23
g30
sbsg25
(imyEvolve
Tree
p690
(dp691
g7
(imyEvolve
Tree
p692
(dp693
g19
I0
sg21
I00
sbsg19
I1
sg22
I01
sg23
g95
sbsg22
I00
sg23
g30
sbsg22
I00
sg23
g54
sbsg25
(imyEvolve
Tree
p694
(dp695
g7
(imyEvolve
Tree
p696
(dp697
g19
I2
sg10
(imyEvolve
Tree
p698
(dp699
g19
I1
sg10
(imyEvolve
Tree
p700
(dp701
g19
I0
sg20
F4.983734520908365
sg21
I01
sbsg25
(imyEvolve
Tree
p702
(dp703
g19
I0
sg21
I00
sbsg22
I00
sg23
g41
sbsg25
(imyEvolve
Tree
p704
(dp705
g7
(imyEvolve
Tree
p706
(dp707
g19
I0
sg20
F0.7855054813155959
sg21
I01
sbsg19
I1
sg22
I01
sg23
g95
sbsg22
I00
sg23
g41
sbsg19
I3
sg22
I01
sg23
g53
sbsg22
I00
sg23
g30
sbsg22
I00
sg23
g41
sba(imyEvolve
Tree
p708
(dp709
g10
(imyEvolve
Tree
p710
(dp711
g10
(imyEvolve
Tree
p712
(dp713
g10
(imyEvolve
Tree
p714
(dp715
g19
I0
sg21
I00
sbsg19
I1
sg25
(imyEvolve
Tree
p716
(dp717
g19
I0
sg20
F2.990293128824457
sg21
I01
sbsg22
I00
sg23
g30
sbsg19
I2
sg25
(imyEvolve
Tree
p718
(dp719
g10
(imyEvolve
Tree
p720
(dp721
g19
I0
sg21
I00
sbsg19
I1
sg25
(imyEvolve
Tree
p722
(dp723
g19
I0
sg20
F4.9090558008745635
sg21
I01
sbsg22
I00
sg23
g30
sbsg22
I00
sg23
g54
sbsg19
I3
sg25
(imyEvolve
Tree
p724
(dp725
g10
(imyEvolve
Tree
p726
(dp727
g7
(imyEvolve
Tree
p728
(dp729
g19
I0
sg20
F1.2555744269221014
sg21
I01
sbsg19
I1
sg22
I01
sg23
g95
sbsg19
I2
sg25
(imyEvolve
Tree
p730
(dp731
g7
(imyEvolve
Tree
p732
(dp733
g19
I0
sg21
I00
sbsg19
I1
sg22
I01
sg23
g95
sbsg22
I00
sg23
g30
sbsg22
I00
sg23
g54
sba(imyEvolve
Tree
p734
(dp735
g7
(imyEvolve
Tree
p736
(dp737
g7
(imyEvolve
Tree
p738
(dp739
g10
(imyEvolve
Tree
p740
(dp741
g19
I0
sg20
F3.4594628217190238
sg21
I01
sbsg19
I1
sg25
(imyEvolve
Tree
p742
(dp743
g19
I0
sg20
F2.727825275691295
sg21
I01
sbsg22
I00
sg23
g30
sbsg19
I2
sg22
I01
sg23
g95
sbsg19
I3
sg22
I01
sg23
g24
sba(imyEvolve
Tree
p744
(dp745
g19
I2
sg10
(imyEvolve
Tree
p746
(dp747
g19
I1
sg10
(imyEvolve
Tree
p748
(dp749
g19
I0
sg20
F-1.0510773990556102
sg21
I01
sbsg25
(imyEvolve
Tree
p750
(dp751
g19
I0
sg20
F0.02834589801924725
sg21
I01
sbsg22
I00
sg23
g54
sbsg25
(imyEvolve
Tree
p752
(dp753
g7
(imyEvolve
Tree
p754
(dp755
g19
I0
sg20
F-4.400982670029382
sg21
I01
sbsg19
I1
sg22
I01
sg23
g53
sbsg22
I00
sg23
g41
sba(imyEvolve
Tree
p756
(dp757
g7
(imyEvolve
Tree
p758
(dp759
g7
(imyEvolve
Tree
p760
(dp761
g19
I0
sg21
I00
sbsg19
I1
sg22
I01
sg23
g95
sbsg19
I2
sg22
I01
sg23
g24
sba(imyEvolve
Tree
p762
(dp763
g19
I2
sg10
(imyEvolve
Tree
p764
(dp765
g19
I1
sg10
(imyEvolve
Tree
p766
(dp767
g19
I0
sg21
I00
sbsg25
(imyEvolve
Tree
p768
(dp769
g19
I0
sg20
F3.7182790545181934
sg21
I01
sbsg22
I00
sg23
g54
sbsg25
(imyEvolve
Tree
p770
(dp771
g19
I1
sg10
(imyEvolve
Tree
p772
(dp773
g19
I0
sg21
I00
sbsg25
(imyEvolve
Tree
p774
(dp775
g19
I0
sg21
I00
sbsg22
I00
sg23
g54
sbsg22
I00
sg23
g30
sba(imyEvolve
Tree
p776
(dp777
g19
I3
sg10
(imyEvolve
Tree
p778
(dp779
g7
(imyEvolve
Tree
p780
(dp781
g19
I1
sg10
(imyEvolve
Tree
p782
(dp783
g19
I0
sg20
F-4.1170302344378555
sg21
I01
sbsg25
(imyEvolve
Tree
p784
(dp785
g19
I0
sg21
I00
sbsg22
I00
sg23
g41
sbsg19
I2
sg22
I01
sg23
g53
sbsg25
(imyEvolve
Tree
p786
(dp787
g19
I2
sg10
(imyEvolve
Tree
p788
(dp789
g19
I1
sg10
(imyEvolve
Tree
p790
(dp791
g19
I0
sg20
F-1.2837135253042353
sg21
I01
sbsg25
(imyEvolve
Tree
p792
(dp793
g19
I0
sg20
F3.204991641728025
sg21
I01
sbsg22
I00
sg23
g54
sbsg25
(imyEvolve
Tree
p794
(dp795
g19
I1
sg10
(imyEvolve
Tree
p796
(dp797
g19
I0
sg21
I00
sbsg25
(imyEvolve
Tree
p798
(dp799
g19
I0
sg21
I00
sbsg22
I00
sg23
g54
sbsg22
I00
sg23
g41
sbsg22
I00
sg23
g41
sba(imyEvolve
Tree
p800
(dp801
g7
(imyEvolve
Tree
p802
(dp803
g19
I4
sg10
(imyEvolve
Tree
p804
(dp805
g7
(imyEvolve
Tree
p806
(dp807
g19
I2
sg10
(imyEvolve
Tree
p808
(dp809
g19
I1
sg10
(imyEvolve
Tree
p810
(dp811
g19
I0
sg21
I00
sbsg25
(imyEvolve
Tree
p812
(dp813
g19
I0
sg21
I00
sbsg22
I00
sg23
g41
sbsg25
(imyEvolve
Tree
p814
(dp815
g7
(imyEvolve
Tree
p816
(dp817
g19
I0
sg20
F3.939230478501454
sg21
I01
sbsg19
I1
sg22
I01
sg23
g95
sbsg22
I00
sg23
g41
sbsg19
I3
sg22
I01
sg23
g46
sbsg25
(imyEvolve
Tree
p818
(dp819
g19
I3
sg10
(imyEvolve
Tree
p820
(dp821
g19
I2
sg10
(imyEvolve
Tree
p822
(dp823
g19
I1
sg10
(imyEvolve
Tree
p824
(dp825
g19
I0
sg21
I00
sbsg25
(imyEvolve
Tree
p826
(dp827
g19
I0
sg20
F-3.072343356837084
sg21
I01
sbsg22
I00
sg23
g54
sbsg25
(imyEvolve
Tree
p828
(dp829
g19
I1
sg10
(imyEvolve
Tree
p830
(dp831
g19
I0
sg20
F-1.8062200588567157
sg21
I01
sbsg25
(imyEvolve
Tree
p832
(dp833
g19
I0
sg21
I00
sbsg22
I00
sg23
g30
sbsg22
I00
sg23
g54
sbsg25
(imyEvolve
Tree
p834
(dp835
g19
I2
sg10
(imyEvolve
Tree
p836
(dp837
g19
I1
sg10
(imyEvolve
Tree
p838
(dp839
g19
I0
sg21
I00
sbsg25
(imyEvolve
Tree
p840
(dp841
g19
I0
sg20
F-1.3095456480962984
sg21
I01
sbsg22
I00
sg23
g41
sbsg25
(imyEvolve
Tree
p842
(dp843
g19
I1
sg10
(imyEvolve
Tree
p844
(dp845
g19
I0
sg20
F-1.7752122447212093
sg21
I01
sbsg25
(imyEvolve
Tree
p846
(dp847
g19
I0
sg20
F3.6677450609967046
sg21
I01
sbsg22
I00
sg23
g41
sbsg22
I00
sg23
g54
sbsg22
I00
sg23
g30
sbsg22
I00
sg23
g41
sbsg19
I5
sg22
I01
sg23
g53
sba(imyEvolve
Tree
p848
(dp849
g7
(imyEvolve
Tree
p850
(dp851
g19
I3
sg10
(imyEvolve
Tree
p852
(dp853
g19
I2
sg10
(imyEvolve
Tree
p854
(dp855
g7
(imyEvolve
Tree
p856
(dp857
g19
I0
sg20
F-4.230833822926227
sg21
I01
sbsg19
I1
sg22
I01
sg23
g24
sbsg25
(imyEvolve
Tree
p858
(dp859
g7
(imyEvolve
Tree
p860
(dp861
g19
I0
sg20
F-3.5443312467252994
sg21
I01
sbsg19
I1
sg22
I01
sg23
g53
sbsg22
I00
sg23
g54
sbsg25
(imyEvolve
Tree
p862
(dp863
g7
(imyEvolve
Tree
p864
(dp865
g7
(imyEvolve
Tree
p866
(dp867
g19
I0
sg20
F-4.952802754133794
sg21
I01
sbsg19
I1
sg22
I01
sg23
g53
sbsg19
I2
sg22
I01
sg23
g95
sbsg22
I00
sg23
g30
sbsg19
I4
sg22
I01
sg23
g24
sba(imyEvolve
Tree
p868
(dp869
g19
I5
sg10
(imyEvolve
Tree
p870
(dp871
g19
I4
sg10
(imyEvolve
Tree
p872
(dp873
g19
I3
sg10
(imyEvolve
Tree
p874
(dp875
g19
I2
sg10
(imyEvolve
Tree
p876
(dp877
g19
I1
sg10
(imyEvolve
Tree
p878
(dp879
g19
I0
sg20
F2.808015422874818
sg21
I01
sbsg25
(imyEvolve
Tree
p880
(dp881
g19
I0
sg21
I00
sbsg22
I00
sg23
g54
sbsg25
(imyEvolve
Tree
p882
(dp883
g7
(imyEvolve
Tree
p884
(dp885
g19
I0
sg20
F-4.096177499269085
sg21
I01
sbsg19
I1
sg22
I01
sg23
g24
sbsg22
I00
sg23
g54
sbsg25
(imyEvolve
Tree
p886
(dp887
g7
(imyEvolve
Tree
p888
(dp889
g19
I1
sg10
(imyEvolve
Tree
p890
(dp891
g19
I0
sg20
F2.7018619698680633
sg21
I01
sbsg25
(imyEvolve
Tree
p892
(dp893
g19
I0
sg21
I00
sbsg22
I00
sg23
g54
sbsg19
I2
sg22
I01
sg23
g53
sbsg22
I00
sg23
g30
sbsg25
(imyEvolve
Tree
p894
(dp895
g19
I3
sg10
(imyEvolve
Tree
p896
(dp897
g19
I2
sg10
(imyEvolve
Tree
p898
(dp899
g7
(imyEvolve
Tree
p900
(dp901
g19
I0
sg20
F0.830340098283866
sg21
I01
sbsg19
I1
sg22
I01
sg23
g53
sbsg25
(imyEvolve
Tree
p902
(dp903
g7
(imyEvolve
Tree
p904
(dp905
g19
I0
sg21
I00
sbsg19
I1
sg22
I01
sg23
g53
sbsg22
I00
sg23
g54
sbsg25
(imyEvolve
Tree
p906
(dp907
g19
I2
sg10
(imyEvolve
Tree
p908
(dp909
g7
(imyEvolve
Tree
p910
(dp911
g19
I0
sg20
F0.9919490500424777
sg21
I01
sbsg19
I1
sg22
I01
sg23
g53
sbsg25
(imyEvolve
Tree
p912
(dp913
g19
I1
sg10
(imyEvolve
Tree
p914
(dp915
g19
I0
sg20
F1.7025196724283287
sg21
I01
sbsg25
(imyEvolve
Tree
p916
(dp917
g19
I0
sg21
I00
sbsg22
I00
sg23
g41
sbsg22
I00
sg23
g41
sbsg22
I00
sg23
g30
sbsg22
I00
sg23
g41
sbsg25
(imyEvolve
Tree
p918
(dp919
g19
I4
sg10
(imyEvolve
Tree
p920
(dp921
g19
I3
sg10
(imyEvolve
Tree
p922
(dp923
g19
I2
sg10
(imyEvolve
Tree
p924
(dp925
g7
(imyEvolve
Tree
p926
(dp927
g19
I0
sg21
I00
sbsg19
I1
sg22
I01
sg23
g95
sbsg25
(imyEvolve
Tree
p928
(dp929
g7
(imyEvolve
Tree
p930
(dp931
g19
I0
sg21
I00
sbsg19
I1
sg22
I01
sg23
g46
sbsg22
I00
sg23
g30
sbsg25
(imyEvolve
Tree
p932
(dp933
g7
(imyEvolve
Tree
p934
(dp935
g7
(imyEvolve
Tree
p936
(dp937
g19
I0
sg21
I00
sbsg19
I1
sg22
I01
sg23
g53
sbsg19
I2
sg22
I01
sg23
g24
sbsg22
I00
sg23
g54
sbsg25
(imyEvolve
Tree
p938
(dp939
g19
I3
sg10
(imyEvolve
Tree
p940
(dp941
g19
I2
sg10
(imyEvolve
Tree
p942
(dp943
g7
(imyEvolve
Tree
p944
(dp945
g19
I0
sg20
F3.210514994664063
sg21
I01
sbsg19
I1
sg22
I01
sg23
g53
sbsg25
(imyEvolve
Tree
p946
(dp947
g7
(imyEvolve
Tree
p948
(dp949
g19
I0
sg21
I00
sbsg19
I1
sg22
I01
sg23
g24
sbsg22
I00
sg23
g30
sbsg25
(imyEvolve
Tree
p950
(dp951
g19
I2
sg10
(imyEvolve
Tree
p952
(dp953
g7
(imyEvolve
Tree
p954
(dp955
g19
I0
sg21
I00
sbsg19
I1
sg22
I01
sg23
g46
sbsg25
(imyEvolve
Tree
p956
(dp957
g7
(imyEvolve
Tree
p958
(dp959
g19
I0
sg21
I00
sbsg19
I1
sg22
I01
sg23
g95
sbsg22
I00
sg23
g54
sbsg22
I00
sg23
g30
sbsg22
I00
sg23
g54
sbsg22
I00
sg23
g30
sba(imyEvolve
Tree
p960
(dp961
g7
(imyEvolve
Tree
p962
(dp963
g7
(imyEvolve
Tree
p964
(dp965
g7
(imyEvolve
Tree
p966
(dp967
g10
(imyEvolve
Tree
p968
(dp969
g7
(imyEvolve
Tree
p970
(dp971
g19
I0
sg20
F1.562701981123233
sg21
I01
sbsg19
I1
sg22
I01
sg23
g24
sbsg19
I2
sg25
(imyEvolve
Tree
p972
(dp973
g7
(imyEvolve
Tree
p974
(dp975
g19
I0
sg20
F-4.431106215619116
sg21
I01
sbsg19
I1
sg22
I01
sg23
g24
sbsg22
I00
sg23
g30
sbsg19
I3
sg22
I01
sg23
g95
sbsg19
I4
sg22
I01
sg23
g95
sbsg19
I5
sg22
I01
sg23
g53
sba(imyEvolve
Tree
p976
(dp977
g7
(imyEvolve
Tree
p978
(dp979
g19
I4
sg10
(imyEvolve
Tree
p980
(dp981
g19
I3
sg10
(imyEvolve
Tree
p982
(dp983
g19
I2
sg10
(imyEvolve
Tree
p984
(dp985
g19
I1
sg10
(imyEvolve
Tree
p986
(dp987
g19
I0
sg20
F0.8533555480997457
sg21
I01
sbsg25
(imyEvolve
Tree
p988
(dp989
g19
I0
sg21
I00
sbsg22
I00
sg23
g41
sbsg25
(imyEvolve
Tree
p990
(dp991
g7
(imyEvolve
Tree
p992
(dp993
g19
I0
sg20
F4.757668928564666
sg21
I01
sbsg19
I1
sg22
I01
sg23
g46
sbsg22
I00
sg23
g30
sbsg25
(imyEvolve
Tree
p994
(dp995
g19
I2
sg10
(imyEvolve
Tree
p996
(dp997
g19
I1
sg10
(imyEvolve
Tree
p998
(dp999
g19
I0
sg21
I00
sbsg25
(imyEvolve
Tree
p1000
(dp1001
g19
I0
sg21
I00
sbsg22
I00
sg23
g41
sbsg25
(imyEvolve
Tree
p1002
(dp1003
g19
I1
sg10
(imyEvolve
Tree
p1004
(dp1005
g19
I0
sg20
F-0.7295885804372908
sg21
I01
sbsg25
(imyEvolve
Tree
p1006
(dp1007
g19
I0
sg21
I00
sbsg22
I00
sg23
g30
sbsg22
I00
sg23
g30
sbsg22
I00
sg23
g41
sbsg25
(imyEvolve
Tree
p1008
(dp1009
g19
I3
sg10
(imyEvolve
Tree
p1010
(dp1011
g7
(imyEvolve
Tree
p1012
(dp1013
g19
I1
sg10
(imyEvolve
Tree
p1014
(dp1015
g19
I0
sg21
I00
sbsg25
(imyEvolve
Tree
p1016
(dp1017
g19
I0
sg20
F-1.398756234911457
sg21
I01
sbsg22
I00
sg23
g54
sbsg19
I2
sg22
I01
sg23
g46
sbsg25
(imyEvolve
Tree
p1018
(dp1019
g19
I2
sg10
(imyEvolve
Tree
p1020
(dp1021
g19
I1
sg10
(imyEvolve
Tree
p1022
(dp1023
g19
I0
sg21
I00
sbsg25
(imyEvolve
Tree
p1024
(dp1025
g19
I0
sg21
I00
sbsg22
I00
sg23
g54
sbsg25
(imyEvolve
Tree
p1026
(dp1027
g7
(imyEvolve
Tree
p1028
(dp1029
g19
I0
sg20
F4.746390760442512
sg21
I01
sbsg19
I1
sg22
I01
sg23
g24
sbsg22
I00
sg23
g41
sbsg22
I00
sg23
g54
sbsg22
I00
sg23
g30
sbsg19
I5
sg22
I01
sg23
g53
sba(imyEvolve
Tree
p1030
(dp1031
g7
(imyEvolve
Tree
p1032
(dp1033
g7
(imyEvolve
Tree
p1034
(dp1035
g7
(imyEvolve
Tree
p1036
(dp1037
g10
(imyEvolve
Tree
p1038
(dp1039
g7
(imyEvolve
Tree
p1040
(dp1041
g19
I0
sg20
F-0.9498957414187341
sg21
I01
sbsg19
I1
sg22
I01
sg23
g24
sbsg19
I2
sg25
(imyEvolve
Tree
p1042
(dp1043
g7
(imyEvolve
Tree
p1044
(dp1045
g19
I0
sg20
F-2.071042229581983
sg21
I01
sbsg19
I1
sg22
I01
sg23
g95
sbsg22
I00
sg23
g30
sbsg19
I3
sg22
I01
sg23
g24
sbsg19
I4
sg22
I01
sg23
g53
sbsg19
I5
sg22
I01
sg23
g46
sba(imyEvolve
Tree
p1046
(dp1047
g10
(imyEvolve
Tree
p1048
(dp1049
g10
(imyEvolve
Tree
p1050
(dp1051
g7
(imyEvolve
Tree
p1052
(dp1053
g10
(imyEvolve
Tree
p1054
(dp1055
g10
(imyEvolve
Tree
p1056
(dp1057
g19
I0
sg21
I00
sbsg19
I1
sg25
(imyEvolve
Tree
p1058
(dp1059
g19
I0
sg21
I00
sbsg22
I00
sg23
g54
sbsg19
I2
sg25
(imyEvolve
Tree
p1060
(dp1061
g10
(imyEvolve
Tree
p1062
(dp1063
g19
I0
sg21
I00
sbsg19
I1
sg25
(imyEvolve
Tree
p1064
(dp1065
g19
I0
sg21
I00
sbsg22
I00
sg23
g54
sbsg22
I00
sg23
g41
sbsg19
I3
sg22
I01
sg23
g53
sbsg19
I4
sg25
(imyEvolve
Tree
p1066
(dp1067
g10
(imyEvolve
Tree
p1068
(dp1069
g7
(imyEvolve
Tree
p1070
(dp1071
g10
(imyEvolve
Tree
p1072
(dp1073
g19
I0
sg21
I00
sbsg19
I1
sg25
(imyEvolve
Tree
p1074
(dp1075
g19
I0
sg21
I00
sbsg22
I00
sg23
g41
sbsg19
I2
sg22
I01
sg23
g24
sbsg19
I3
sg25
(imyEvolve
Tree
p1076
(dp1077
g10
(imyEvolve
Tree
p1078
(dp1079
g10
(imyEvolve
Tree
p1080
(dp1081
g19
I0
sg20
F-2.4102431878276906
sg21
I01
sbsg19
I1
sg25
(imyEvolve
Tree
p1082
(dp1083
g19
I0
sg21
I00
sbsg22
I00
sg23
g54
sbsg19
I2
sg25
(imyEvolve
Tree
p1084
(dp1085
g10
(imyEvolve
Tree
p1086
(dp1087
g19
I0
sg20
F-3.421561858880505
sg21
I01
sbsg19
I1
sg25
(imyEvolve
Tree
p1088
(dp1089
g19
I0
sg20
F1.5368872836073786
sg21
I01
sbsg22
I00
sg23
g30
sbsg22
I00
sg23
g41
sbsg22
I00
sg23
g54
sbsg22
I00
sg23
g54
sbsg19
I5
sg25
(imyEvolve
Tree
p1090
(dp1091
g7
(imyEvolve
Tree
p1092
(dp1093
g10
(imyEvolve
Tree
p1094
(dp1095
g10
(imyEvolve
Tree
p1096
(dp1097
g7
(imyEvolve
Tree
p1098
(dp1099
g19
I0
sg20
F-2.077716268761888
sg21
I01
sbsg19
I1
sg22
I01
sg23
g95
sbsg19
I2
sg25
(imyEvolve
Tree
p1100
(dp1101
g10
(imyEvolve
Tree
p1102
(dp1103
g19
I0
sg21
I00
sbsg19
I1
sg25
(imyEvolve
Tree
p1104
(dp1105
g19
I0
sg20
F1.6207186343718973
sg21
I01
sbsg22
I00
sg23
g41
sbsg22
I00
sg23
g30
sbsg19
I3
sg25
(imyEvolve
Tree
p1106
(dp1107
g10
(imyEvolve
Tree
p1108
(dp1109
g10
(imyEvolve
Tree
p1110
(dp1111
g19
I0
sg21
I00
sbsg19
I1
sg25
(imyEvolve
Tree
p1112
(dp1113
g19
I0
sg21
I00
sbsg22
I00
sg23
g54
sbsg19
I2
sg25
(imyEvolve
Tree
p1114
(dp1115
g10
(imyEvolve
Tree
p1116
(dp1117
g19
I0
sg21
I00
sbsg19
I1
sg25
(imyEvolve
Tree
p1118
(dp1119
g19
I0
sg20
F-4.089960714817754
sg21
I01
sbsg22
I00
sg23
g54
sbsg22
I00
sg23
g54
sbsg22
I00
sg23
g30
sbsg19
I4
sg22
I01
sg23
g46
sbsg22
I00
sg23
g41
sba(imyEvolve
Tree
p1120
(dp1121
g7
(imyEvolve
Tree
p1122
(dp1123
g10
(imyEvolve
Tree
p1124
(dp1125
g10
(imyEvolve
Tree
p1126
(dp1127
g10
(imyEvolve
Tree
p1128
(dp1129
g19
I0
sg21
I00
sbsg19
I1
sg25
(imyEvolve
Tree
p1130
(dp1131
g19
I0
sg20
F-3.1728552362278517
sg21
I01
sbsg22
I00
sg23
g54
sbsg19
I2
sg25
(imyEvolve
Tree
p1132
(dp1133
g10
(imyEvolve
Tree
p1134
(dp1135
g19
I0
sg21
I00
sbsg19
I1
sg25
(imyEvolve
Tree
p1136
(dp1137
g19
I0
sg20
F1.8388820017201146
sg21
I01
sbsg22
I00
sg23
g30
sbsg22
I00
sg23
g54
sbsg19
I3
sg25
(imyEvolve
Tree
p1138
(dp1139
g7
(imyEvolve
Tree
p1140
(dp1141
g10
(imyEvolve
Tree
p1142
(dp1143
g19
I0
sg21
I00
sbsg19
I1
sg25
(imyEvolve
Tree
p1144
(dp1145
g19
I0
sg20
F0.5987293816904158
sg21
I01
sbsg22
I00
sg23
g30
sbsg19
I2
sg22
I01
sg23
g95
sbsg22
I00
sg23
g30
sbsg19
I4
sg22
I01
sg23
g95
sba(imyEvolve
Tree
p1146
(dp1147
g7
(imyEvolve
Tree
p1148
(dp1149
g19
I2
sg10
(imyEvolve
Tree
p1150
(dp1151
g19
I1
sg10
(imyEvolve
Tree
p1152
(dp1153
g19
I0
sg21
I00
sbsg25
(imyEvolve
Tree
p1154
(dp1155
g19
I0
sg20
F-1.1409593539280571
sg21
I01
sbsg22
I00
sg23
g41
sbsg25
(imyEvolve
Tree
p1156
(dp1157
g7
(imyEvolve
Tree
p1158
(dp1159
g19
I0
sg21
I00
sbsg19
I1
sg22
I01
sg23
g24
sbsg22
I00
sg23
g54
sbsg19
I3
sg22
I01
sg23
g53
sbaa(lp1160
(imyEvolve
Tree
p1161
(dp1162
g7
(imyEvolve
Tree
p1163
(dp1164
g7
(imyEvolve
Tree
p1165
(dp1166
g19
I2
sg10
(imyEvolve
Tree
p1167
(dp1168
g7
(imyEvolve
Tree
p1169
(dp1170
g19
I0
sg20
F-3.693992591672588
sg21
I01
sbsg19
I1
sg22
I01
sg23
g46
sbsg25
(imyEvolve
Tree
p1171
(dp1172
g19
I1
sg10
(imyEvolve
Tree
p1173
(dp1174
g19
I0
sg21
I00
sbsg25
(imyEvolve
Tree
p1175
(dp1176
g19
I0
sg20
F-4.516779962026311
sg21
I01
sbsg22
I00
sg23
g41
sbsg22
I00
sg23
g41
sbsg19
I3
sg22
I01
sg23
g95
sbsg19
I4
sg22
I01
sg23
g53
sba(imyEvolve
Tree
p1177
(dp1178
g7
(imyEvolve
Tree
p1179
(dp1180
g10
(imyEvolve
Tree
p1181
(dp1182
g19
I0
sg21
I00
sbsg19
I1
sg25
(imyEvolve
Tree
p1183
(dp1184
g19
I0
sg20
F-2.831558952170503
sg21
I01
sbsg22
I00
sg23
g30
sbsg19
I2
sg22
I01
sg23
g53
sba(imyEvolve
Tree
p1185
(dp1186
g10
(imyEvolve
Tree
p1187
(dp1188
g7
(imyEvolve
Tree
p1189
(dp1190
g19
I0
sg20
F-1.0895144454311403
sg21
I01
sbsg19
I1
sg22
I01
sg23
g95
sbsg19
I2
sg25
(imyEvolve
Tree
p1191
(dp1192
g7
(imyEvolve
Tree
p1193
(dp1194
g19
I0
sg21
I00
sbsg19
I1
sg22
I01
sg23
g24
sbsg22
I00
sg23
g30
sba(imyEvolve
Tree
p1195
(dp1196
g7
(imyEvolve
Tree
p1197
(dp1198
g7
(imyEvolve
Tree
p1199
(dp1200
g19
I3
sg10
(imyEvolve
Tree
p1201
(dp1202
g19
I2
sg10
(imyEvolve
Tree
p1203
(dp1204
g19
I1
sg10
(imyEvolve
Tree
p1205
(dp1206
g19
I0
sg21
I00
sbsg25
(imyEvolve
Tree
p1207
(dp1208
g19
I0
sg21
I00
sbsg22
I00
sg23
g41
sbsg25
(imyEvolve
Tree
p1209
(dp1210
g19
I1
sg10
(imyEvolve
Tree
p1211
(dp1212
g19
I0
sg20
F1.3368259793360728
sg21
I01
sbsg25
(imyEvolve
Tree
p1213
(dp1214
g19
I0
sg20
F-0.8330780827841178
sg21
I01
sbsg22
I00
sg23
g54
sbsg22
I00
sg23
g54
sbsg25
(imyEvolve
Tree
p1215
(dp1216
g7
(imyEvolve
Tree
p1217
(dp1218
g7
(imyEvolve
Tree
p1219
(dp1220
g19
I0
sg21
I00
sbsg19
I1
sg22
I01
sg23
g95
sbsg19
I2
sg22
I01
sg23
g46
sbsg22
I00
sg23
g41
sbsg19
I4
sg22
I01
sg23
g95
sbsg19
I5
sg22
I01
sg23
g95
sba(imyEvolve
Tree
p1221
(dp1222
g19
I3
sg10
(imyEvolve
Tree
p1223
(dp1224
g7
(imyEvolve
Tree
p1225
(dp1226
g7
(imyEvolve
Tree
p1227
(dp1228
g19
I0
sg21
I00
sbsg19
I1
sg22
I01
sg23
g53
sbsg19
I2
sg22
I01
sg23
g95
sbsg25
(imyEvolve
Tree
p1229
(dp1230
g7
(imyEvolve
Tree
p1231
(dp1232
g19
I1
sg10
(imyEvolve
Tree
p1233
(dp1234
g19
I0
sg21
I00
sbsg25
(imyEvolve
Tree
p1235
(dp1236
g19
I0
sg21
I00
sbsg22
I00
sg23
g30
sbsg19
I2
sg22
I01
sg23
g95
sbsg22
I00
sg23
g30
sba(imyEvolve
Tree
p1237
(dp1238
g19
I4
sg10
(imyEvolve
Tree
p1239
(dp1240
g7
(imyEvolve
Tree
p1241
(dp1242
g7
(imyEvolve
Tree
p1243
(dp1244
g19
I1
sg10
(imyEvolve
Tree
p1245
(dp1246
g19
I0
sg21
I00
sbsg25
(imyEvolve
Tree
p1247
(dp1248
g19
I0
sg21
I00
sbsg22
I00
sg23
g41
sbsg19
I2
sg22
I01
sg23
g46
sbsg19
I3
sg22
I01
sg23
g53
sbsg25
(imyEvolve
Tree
p1249
(dp1250
g19
I3
sg10
(imyEvolve
Tree
p1251
(dp1252
g19
I2
sg10
(imyEvolve
Tree
p1253
(dp1254
g19
I1
sg10
(imyEvolve
Tree
p1255
(dp1256
g19
I0
sg21
I00
sbsg25
(imyEvolve
Tree
p1257
(dp1258
g19
I0
sg21
I00
sbsg22
I00
sg23
g54
sbsg25
(imyEvolve
Tree
p1259
(dp1260
g7
(imyEvolve
Tree
p1261
(dp1262
g19
I0
sg21
I00
sbsg19
I1
sg22
I01
sg23
g95
sbsg22
I00
sg23
g41
sbsg25
(imyEvolve
Tree
p1263
(dp1264
g7
(imyEvolve
Tree
p1265
(dp1266
g19
I1
sg10
(imyEvolve
Tree
p1267
(dp1268
g19
I0
sg21
I00
sbsg25
(imyEvolve
Tree
p1269
(dp1270
g19
I0
sg21
I00
sbsg22
I00
sg23
g30
sbsg19
I2
sg22
I01
sg23
g95
sbsg22
I00
sg23
g30
sbsg22
I00
sg23
g30
sba(imyEvolve
Tree
p1271
(dp1272
g10
(imyEvolve
Tree
p1273
(dp1274
g7
(imyEvolve
Tree
p1275
(dp1276
g10
(imyEvolve
Tree
p1277
(dp1278
g10
(imyEvolve
Tree
p1279
(dp1280
g19
I0
sg20
F-4.793533076644307
sg21
I01
sbsg19
I1
sg25
(imyEvolve
Tree
p1281
(dp1282
g19
I0
sg21
I00
sbsg22
I00
sg23
g54
sbsg19
I2
sg25
(imyEvolve
Tree
p1283
(dp1284
g10
(imyEvolve
Tree
p1285
(dp1286
g19
I0
sg21
I00
sbsg19
I1
sg25
(imyEvolve
Tree
p1287
(dp1288
g19
I0
sg20
F0.10807504635459964
sg21
I01
sbsg22
I00
sg23
g41
sbsg22
I00
sg23
g41
sbsg19
I3
sg22
I01
sg23
g24
sbsg19
I4
sg25
(imyEvolve
Tree
p1289
(dp1290
g10
(imyEvolve
Tree
p1291
(dp1292
g10
(imyEvolve
Tree
p1293
(dp1294
g10
(imyEvolve
Tree
p1295
(dp1296
g19
I0
sg20
F-3.7765587349647456
sg21
I01
sbsg19
I1
sg25
(imyEvolve
Tree
p1297
(dp1298
g19
I0
sg21
I00
sbsg22
I00
sg23
g41
sbsg19
I2
sg25
(imyEvolve
Tree
p1299
(dp1300
g7
(imyEvolve
Tree
p1301
(dp1302
g19
I0
sg20
F-4.065546622945709
sg21
I01
sbsg19
I1
sg22
I01
sg23
g95
sbsg22
I00
sg23
g41
sbsg19
I3
sg25
(imyEvolve
Tree
p1303
(dp1304
g7
(imyEvolve
Tree
p1305
(dp1306
g7
(imyEvolve
Tree
p1307
(dp1308
g19
I0
sg20
F2.9336722802778903
sg21
I01
sbsg19
I1
sg22
I01
sg23
g46
sbsg19
I2
sg22
I01
sg23
g95
sbsg22
I00
sg23
g41
sbsg22
I00
sg23
g54
sba(imyEvolve
Tree
p1309
(dp1310
g7
(imyEvolve
Tree
p1311
(dp1312
g7
(imyEvolve
Tree
p1313
(dp1314
g7
(imyEvolve
Tree
p1315
(dp1316
g7
(imyEvolve
Tree
p1317
(dp1318
g19
I0
sg21
I00
sbsg19
I1
sg22
I01
sg23
g24
sbsg19
I2
sg22
I01
sg23
g46
sbsg19
I3
sg22
I01
sg23
g24
sbsg19
I4
sg22
I01
sg23
g95
sba(imyEvolve
Tree
p1319
(dp1320
g10
(imyEvolve
Tree
p1321
(dp1322
g10
(imyEvolve
Tree
p1323
(dp1324
g19
I0
sg21
I00
sbsg19
I1
sg25
(imyEvolve
Tree
p1325
(dp1326
g19
I0
sg21
I00
sbsg22
I00
sg23
g41
sbsg19
I2
sg25
(imyEvolve
Tree
p1327
(dp1328
g7
(imyEvolve
Tree
p1329
(dp1330
g19
I0
sg20
F2.573320952615356
sg21
I01
sbsg19
I1
sg22
I01
sg23
g53
sbsg22
I00
sg23
g41
sba(imyEvolve
Tree
p1331
(dp1332
g10
(imyEvolve
Tree
p1333
(dp1334
g10
(imyEvolve
Tree
p1335
(dp1336
g19
I0
sg20
F0.9518227170328242
sg21
I01
sbsg19
I1
sg25
(imyEvolve
Tree
p1337
(dp1338
g19
I0
sg20
F4.584046267804091
sg21
I01
sbsg22
I00
sg23
g54
sbsg19
I2
sg25
(imyEvolve
Tree
p1339
(dp1340
g7
(imyEvolve
Tree
p1341
(dp1342
g19
I0
sg20
F-1.3794602726212024
sg21
I01
sbsg19
I1
sg22
I01
sg23
g95
sbsg22
I00
sg23
g54
sba(imyEvolve
Tree
p1343
(dp1344
g10
(imyEvolve
Tree
p1345
(dp1346
g10
(imyEvolve
Tree
p1347
(dp1348
g19
I0
sg20
F2.1491065406087726
sg21
I01
sbsg19
I1
sg25
(imyEvolve
Tree
p1349
(dp1350
g19
I0
sg21
I00
sbsg22
I00
sg23
g41
sbsg19
I2
sg25
(imyEvolve
Tree
p1351
(dp1352
g10
(imyEvolve
Tree
p1353
(dp1354
g19
I0
sg20
F-3.348261948098238
sg21
I01
sbsg19
I1
sg25
(imyEvolve
Tree
p1355
(dp1356
g19
I0
sg21
I00
sbsg22
I00
sg23
g41
sbsg22
I00
sg23
g30
sba(imyEvolve
Tree
p1357
(dp1358
g10
(imyEvolve
Tree
p1359
(dp1360
g7
(imyEvolve
Tree
p1361
(dp1362
g10
(imyEvolve
Tree
p1363
(dp1364
g7
(imyEvolve
Tree
p1365
(dp1366
g7
(imyEvolve
Tree
p1367
(dp1368
g19
I0
sg21
I00
sbsg19
I1
sg22
I01
sg23
g24
sbsg19
I2
sg22
I01
sg23
g95
sbsg19
I3
sg25
(imyEvolve
Tree
p1369
(dp1370
g7
(imyEvolve
Tree
p1371
(dp1372
g7
(imyEvolve
Tree
p1373
(dp1374
g19
I0
sg21
I00
sbsg19
I1
sg22
I01
sg23
g46
sbsg19
I2
sg22
I01
sg23
g53
sbsg22
I00
sg23
g30
sbsg19
I4
sg22
I01
sg23
g24
sbsg19
I5
sg25
(imyEvolve
Tree
p1375
(dp1376
g10
(imyEvolve
Tree
p1377
(dp1378
g7
(imyEvolve
Tree
p1379
(dp1380
g7
(imyEvolve
Tree
p1381
(dp1382
g7
(imyEvolve
Tree
p1383
(dp1384
g19
I0
sg20
F3.2600198604411155
sg21
I01
sbsg19
I1
sg22
I01
sg23
g46
sbsg19
I2
sg22
I01
sg23
g95
sbsg19
I3
sg22
I01
sg23
g95
sbsg19
I4
sg25
(imyEvolve
Tree
p1385
(dp1386
g10
(imyEvolve
Tree
p1387
(dp1388
g7
(imyEvolve
Tree
p1389
(dp1390
g10
(imyEvolve
Tree
p1391
(dp1392
g19
I0
sg21
I00
sbsg19
I1
sg25
(imyEvolve
Tree
p1393
(dp1394
g19
I0
sg21
I00
sbsg22
I00
sg23
g30
sbsg19
I2
sg22
I01
sg23
g24
sbsg19
I3
sg25
(imyEvolve
Tree
p1395
(dp1396
g10
(imyEvolve
Tree
p1397
(dp1398
g7
(imyEvolve
Tree
p1399
(dp1400
g19
I0
sg20
F-4.612824562255577
sg21
I01
sbsg19
I1
sg22
I01
sg23
g24
sbsg19
I2
sg25
(imyEvolve
Tree
p1401
(dp1402
g10
(imyEvolve
Tree
p1403
(dp1404
g19
I0
sg20
F0.1635481450091527
sg21
I01
sbsg19
I1
sg25
(imyEvolve
Tree
p1405
(dp1406
g19
I0
sg21
I00
sbsg22
I00
sg23
g54
sbsg22
I00
sg23
g41
sbsg22
I00
sg23
g41
sbsg22
I00
sg23
g30
sbsg22
I00
sg23
g54
sba(imyEvolve
Tree
p1407
(dp1408
g7
(imyEvolve
Tree
p1409
(dp1410
g19
I4
sg10
(imyEvolve
Tree
p1411
(dp1412
g19
I3
sg10
(imyEvolve
Tree
p1413
(dp1414
g19
I2
sg10
(imyEvolve
Tree
p1415
(dp1416
g19
I1
sg10
(imyEvolve
Tree
p1417
(dp1418
g19
I0
sg21
I00
sbsg25
(imyEvolve
Tree
p1419
(dp1420
g19
I0
sg21
I00
sbsg22
I00
sg23
g41
sbsg25
(imyEvolve
Tree
p1421
(dp1422
g19
I1
sg10
(imyEvolve
Tree
p1423
(dp1424
g19
I0
sg20
F-3.0703202254649575
sg21
I01
sbsg25
(imyEvolve
Tree
p1425
(dp1426
g19
I0
sg20
F-1.7941534184726917
sg21
I01
sbsg22
I00
sg23
g54
sbsg22
I00
sg23
g30
sbsg25
(imyEvolve
Tree
p1427
(dp1428
g19
I2
sg10
(imyEvolve
Tree
p1429
(dp1430
g7
(imyEvolve
Tree
p1431
(dp1432
g19
I0
sg20
F1.0395830879730674
sg21
I01
sbsg19
I1
sg22
I01
sg23
g95
sbsg25
(imyEvolve
Tree
p1433
(dp1434
g19
I1
sg10
(imyEvolve
Tree
p1435
(dp1436
g19
I0
sg20
F0.7569009577626451
sg21
I01
sbsg25
(imyEvolve
Tree
p1437
(dp1438
g19
I0
sg21
I00
sbsg22
I00
sg23
g30
sbsg22
I00
sg23
g54
sbsg22
I00
sg23
g54
sbsg25
(imyEvolve
Tree
p1439
(dp1440
g7
(imyEvolve
Tree
p1441
(dp1442
g7
(imyEvolve
Tree
p1443
(dp1444
g7
(imyEvolve
Tree
p1445
(dp1446
g19
I0
sg21
I00
sbsg19
I1
sg22
I01
sg23
g95
sbsg19
I2
sg22
I01
sg23
g24
sbsg19
I3
sg22
I01
sg23
g24
sbsg22
I00
sg23
g54
sbsg19
I5
sg22
I01
sg23
g24
sba(imyEvolve
Tree
p1447
(dp1448
g10
(imyEvolve
Tree
p1449
(dp1450
g10
(imyEvolve
Tree
p1451
(dp1452
g19
I0
sg20
F-2.9536163258247026
sg21
I01
sbsg19
I1
sg25
(imyEvolve
Tree
p1453
(dp1454
g19
I0
sg20
F-1.6670561860067523
sg21
I01
sbsg22
I00
sg23
g30
sbsg19
I2
sg25
(imyEvolve
Tree
p1455
(dp1456
g7
(imyEvolve
Tree
p1457
(dp1458
g19
I0
sg21
I00
sbsg19
I1
sg22
I01
sg23
g53
sbsg22
I00
sg23
g41
sba(imyEvolve
Tree
p1459
(dp1460
g7
(imyEvolve
Tree
p1461
(dp1462
g19
I3
sg10
(imyEvolve
Tree
p1463
(dp1464
g7
(imyEvolve
Tree
p1465
(dp1466
g7
(imyEvolve
Tree
p1467
(dp1468
g19
I0
sg20
F4.054014375784421
sg21
I01
sbsg19
I1
sg22
I01
sg23
g24
sbsg19
I2
sg22
I01
sg23
g95
sbsg25
(imyEvolve
Tree
p1469
(dp1470
g19
I2
sg10
(imyEvolve
Tree
p1471
(dp1472
g19
I1
sg10
(imyEvolve
Tree
p1473
(dp1474
g19
I0
sg20
F-4.6755865393316
sg21
I01
sbsg25
(imyEvolve
Tree
p1475
(dp1476
g19
I0
sg21
I00
sbsg22
I00
sg23
g54
sbsg25
(imyEvolve
Tree
p1477
(dp1478
g7
(imyEvolve
Tree
p1479
(dp1480
g19
I0
sg20
F3.0544777991334673
sg21
I01
sbsg19
I1
sg22
I01
sg23
g46
sbsg22
I00
sg23
g41
sbsg22
I00
sg23
g54
sbsg19
I4
sg22
I01
sg23
g53
sba(imyEvolve
Tree
p1481
(dp1482
g10
(imyEvolve
Tree
p1483
(dp1484
g10
(imyEvolve
Tree
p1485
(dp1486
g7
(imyEvolve
Tree
p1487
(dp1488
g19
I0
sg20
F-3.450725471731453
sg21
I01
sbsg19
I1
sg22
I01
sg23
g95
sbsg19
I2
sg25
(imyEvolve
Tree
p1489
(dp1490
g7
(imyEvolve
Tree
p1491
(dp1492
g19
I0
sg21
I00
sbsg19
I1
sg22
I01
sg23
g53
sbsg22
I00
sg23
g54
sbsg19
I3
sg25
(imyEvolve
Tree
p1493
(dp1494
g10
(imyEvolve
Tree
p1495
(dp1496
g10
(imyEvolve
Tree
p1497
(dp1498
g19
I0
sg20
F1.7418202671002163
sg21
I01
sbsg19
I1
sg25
(imyEvolve
Tree
p1499
(dp1500
g19
I0
sg21
I00
sbsg22
I00
sg23
g30
sbsg19
I2
sg25
(imyEvolve
Tree
p1501
(dp1502
g7
(imyEvolve
Tree
p1503
(dp1504
g19
I0
sg21
I00
sbsg19
I1
sg22
I01
sg23
g24
sbsg22
I00
sg23
g30
sbsg22
I00
sg23
g30
sba(imyEvolve
Tree
p1505
(dp1506
g10
(imyEvolve
Tree
p1507
(dp1508
g10
(imyEvolve
Tree
p1509
(dp1510
g10
(imyEvolve
Tree
p1511
(dp1512
g7
(imyEvolve
Tree
p1513
(dp1514
g19
I0
sg20
F2.8048389280797714
sg21
I01
sbsg19
I1
sg22
I01
sg23
g46
sbsg19
I2
sg25
(imyEvolve
Tree
p1515
(dp1516
g10
(imyEvolve
Tree
p1517
(dp1518
g19
I0
sg20
F1.0378444848066
sg21
I01
sbsg19
I1
sg25
(imyEvolve
Tree
p1519
(dp1520
g19
I0
sg20
F2.2369877367530977
sg21
I01
sbsg22
I00
sg23
g30
sbsg22
I00
sg23
g41
sbsg19
I3
sg25
(imyEvolve
Tree
p1521
(dp1522
g10
(imyEvolve
Tree
p1523
(dp1524
g7
(imyEvolve
Tree
p1525
(dp1526
g19
I0
sg20
F-4.7118949049670364
sg21
I01
sbsg19
I1
sg22
I01
sg23
g53
sbsg19
I2
sg25
(imyEvolve
Tree
p1527
(dp1528
g10
(imyEvolve
Tree
p1529
(dp1530
g19
I0
sg20
F-0.04402812613342455
sg21
I01
sbsg19
I1
sg25
(imyEvolve
Tree
p1531
(dp1532
g19
I0
sg20
F-1.6790409857239643
sg21
I01
sbsg22
I00
sg23
g54
sbsg22
I00
sg23
g30
sbsg22
I00
sg23
g54
sbsg19
I4
sg25
(imyEvolve
Tree
p1533
(dp1534
g7
(imyEvolve
Tree
p1535
(dp1536
g10
(imyEvolve
Tree
p1537
(dp1538
g10
(imyEvolve
Tree
p1539
(dp1540
g19
I0
sg20
F-2.484365699439417
sg21
I01
sbsg19
I1
sg25
(imyEvolve
Tree
p1541
(dp1542
g19
I0
sg21
I00
sbsg22
I00
sg23
g30
sbsg19
I2
sg25
(imyEvolve
Tree
p1543
(dp1544
g10
(imyEvolve
Tree
p1545
(dp1546
g19
I0
sg21
I00
sbsg19
I1
sg25
(imyEvolve
Tree
p1547
(dp1548
g19
I0
sg20
F-1.8522587652902702
sg21
I01
sbsg22
I00
sg23
g30
sbsg22
I00
sg23
g30
sbsg19
I3
sg22
I01
sg23
g53
sbsg22
I00
sg23
g41
sbaa(lp1549
(imyEvolve
Tree
p1550
(dp1551
g19
I4
sg10
(imyEvolve
Tree
p1552
(dp1553
g19
I3
sg10
(imyEvolve
Tree
p1554
(dp1555
g19
I2
sg10
(imyEvolve
Tree
p1556
(dp1557
g7
(imyEvolve
Tree
p1558
(dp1559
g19
I0
sg21
I00
sbsg19
I1
sg22
I01
sg23
g53
sbsg25
(imyEvolve
Tree
p1560
(dp1561
g19
I1
sg10
(imyEvolve
Tree
p1562
(dp1563
g19
I0
sg21
I00
sbsg25
(imyEvolve
Tree
p1564
(dp1565
g19
I0
sg20
F-3.4240468313842287
sg21
I01
sbsg22
I00
sg23
g41
sbsg22
I00
sg23
g41
sbsg25
(imyEvolve
Tree
p1566
(dp1567
g19
I2
sg10
(imyEvolve
Tree
p1568
(dp1569
g19
I1
sg10
(imyEvolve
Tree
p1570
(dp1571
g19
I0
sg20
F-4.189595800922406
sg21
I01
sbsg25
(imyEvolve
Tree
p1572
(dp1573
g19
I0
sg21
I00
sbsg22
I00
sg23
g30
sbsg25
(imyEvolve
Tree
p1574
(dp1575
g19
I1
sg10
(imyEvolve
Tree
p1576
(dp1577
g19
I0
sg20
F1.2180583749509255
sg21
I01
sbsg25
(imyEvolve
Tree
p1578
(dp1579
g19
I0
sg21
I00
sbsg22
I00
sg23
g54
sbsg22
I00
sg23
g30
sbsg22
I00
sg23
g30
sbsg25
(imyEvolve
Tree
p1580
(dp1581
g7
(imyEvolve
Tree
p1582
(dp1583
g19
I2
sg10
(imyEvolve
Tree
p1584
(dp1585
g19
I1
sg10
(imyEvolve
Tree
p1586
(dp1587
g19
I0
sg21
I00
sbsg25
(imyEvolve
Tree
p1588
(dp1589
g19
I0
sg21
I00
sbsg22
I00
sg23
g41
sbsg25
(imyEvolve
Tree
p1590
(dp1591
g7
(imyEvolve
Tree
p1592
(dp1593
g19
I0
sg20
F-2.2564217686759305
sg21
I01
sbsg19
I1
sg22
I01
sg23
g95
sbsg22
I00
sg23
g54
sbsg19
I3
sg22
I01
sg23
g46
sbsg22
I00
sg23
g41
sba(imyEvolve
Tree
p1594
(dp1595
g7
(imyEvolve
Tree
p1596
(dp1597
g7
(imyEvolve
Tree
p1598
(dp1599
g19
I1
sg10
(imyEvolve
Tree
p1600
(dp1601
g19
I0
sg21
I00
sbsg25
(imyEvolve
Tree
p1602
(dp1603
g19
I0
sg21
I00
sbsg22
I00
sg23
g30
sbsg19
I2
sg22
I01
sg23
g95
sbsg19
I3
sg22
I01
sg23
g24
sba(imyEvolve
Tree
p1604
(dp1605
g7
(imyEvolve
Tree
p1606
(dp1607
g7
(imyEvolve
Tree
p1608
(dp1609
g19
I1
sg10
(imyEvolve
Tree
p1610
(dp1611
g19
I0
sg20
F-3.538295858569387
sg21
I01
sbsg25
(imyEvolve
Tree
p1612
(dp1613
g19
I0
sg20
F-4.822323859195432
sg21
I01
sbsg22
I00
sg23
g30
sbsg19
I2
sg22
I01
sg23
g46
sbsg19
I3
sg22
I01
sg23
g46
sba(imyEvolve
Tree
p1614
(dp1615
g7
(imyEvolve
Tree
p1616
(dp1617
g19
I2
sg10
(imyEvolve
Tree
p1618
(dp1619
g19
I1
sg10
(imyEvolve
Tree
p1620
(dp1621
g19
I0
sg21
I00
sbsg25
(imyEvolve
Tree
p1622
(dp1623
g19
I0
sg20
F-1.0493375411734651
sg21
I01
sbsg22
I00
sg23
g30
sbsg25
(imyEvolve
Tree
p1624
(dp1625
g7
(imyEvolve
Tree
p1626
(dp1627
g19
I0
sg20
F4.042452108713377
sg21
I01
sbsg19
I1
sg22
I01
sg23
g24
sbsg22
I00
sg23
g54
sbsg19
I3
sg22
I01
sg23
g53
sba(imyEvolve
Tree
p1628
(dp1629
g19
I2
sg10
(imyEvolve
Tree
p1630
(dp1631
g7
(imyEvolve
Tree
p1632
(dp1633
g19
I0
sg21
I00
sbsg19
I1
sg22
I01
sg23
g95
sbsg25
(imyEvolve
Tree
p1634
(dp1635
g7
(imyEvolve
Tree
p1636
(dp1637
g19
I0
sg21
I00
sbsg19
I1
sg22
I01
sg23
g24
sbsg22
I00
sg23
g54
sba(imyEvolve
Tree
p1638
(dp1639
g19
I2
sg10
(imyEvolve
Tree
p1640
(dp1641
g7
(imyEvolve
Tree
p1642
(dp1643
g19
I0
sg21
I00
sbsg19
I1
sg22
I01
sg23
g95
sbsg25
(imyEvolve
Tree
p1644
(dp1645
g19
I1
sg10
(imyEvolve
Tree
p1646
(dp1647
g19
I0
sg21
I00
sbsg25
(imyEvolve
Tree
p1648
(dp1649
g19
I0
sg20
F-4.014475605450451
sg21
I01
sbsg22
I00
sg23
g41
sbsg22
I00
sg23
g30
sba(imyEvolve
Tree
p1650
(dp1651
g7
(imyEvolve
Tree
p1652
(dp1653
g7
(imyEvolve
Tree
p1654
(dp1655
g19
I3
sg10
(imyEvolve
Tree
p1656
(dp1657
g7
(imyEvolve
Tree
p1658
(dp1659
g19
I1
sg10
(imyEvolve
Tree
p1660
(dp1661
g19
I0
sg21
I00
sbsg25
(imyEvolve
Tree
p1662
(dp1663
g19
I0
sg20
F-4.838602160545392
sg21
I01
sbsg22
I00
sg23
g41
sbsg19
I2
sg22
I01
sg23
g46
sbsg25
(imyEvolve
Tree
p1664
(dp1665
g19
I2
sg10
(imyEvolve
Tree
p1666
(dp1667
g19
I1
sg10
(imyEvolve
Tree
p1668
(dp1669
g19
I0
sg21
I00
sbsg25
(imyEvolve
Tree
p1670
(dp1671
g19
I0
sg21
I00
sbsg22
I00
sg23
g54
sbsg25
(imyEvolve
Tree
p1672
(dp1673
g19
I1
sg10
(imyEvolve
Tree
p1674
(dp1675
g19
I0
sg21
I00
sbsg25
(imyEvolve
Tree
p1676
(dp1677
g19
I0
sg20
F3.321842527168922
sg21
I01
sbsg22
I00
sg23
g41
sbsg22
I00
sg23
g41
sbsg22
I00
sg23
g30
sbsg19
I4
sg22
I01
sg23
g53
sbsg19
I5
sg22
I01
sg23
g46
sba(imyEvolve
Tree
p1678
(dp1679
g7
(imyEvolve
Tree
p1680
(dp1681
g19
I2
sg10
(imyEvolve
Tree
p1682
(dp1683
g7
(imyEvolve
Tree
p1684
(dp1685
g19
I0
sg21
I00
sbsg19
I1
sg22
I01
sg23
g95
sbsg25
(imyEvolve
Tree
p1686
(dp1687
g19
I1
sg10
(imyEvolve
Tree
p1688
(dp1689
g19
I0
sg20
F-3.540223854088975
sg21
I01
sbsg25
(imyEvolve
Tree
p1690
(dp1691
g19
I0
sg21
I00
sbsg22
I00
sg23
g41
sbsg22
I00
sg23
g30
sbsg19
I3
sg22
I01
sg23
g46
sba(imyEvolve
Tree
p1692
(dp1693
g19
I4
sg10
(imyEvolve
Tree
p1694
(dp1695
g19
I3
sg10
(imyEvolve
Tree
p1696
(dp1697
g19
I2
sg10
(imyEvolve
Tree
p1698
(dp1699
g7
(imyEvolve
Tree
p1700
(dp1701
g19
I0
sg20
F4.187865819060116
sg21
I01
sbsg19
I1
sg22
I01
sg23
g53
sbsg25
(imyEvolve
Tree
p1702
(dp1703
g19
I1
sg10
(imyEvolve
Tree
p1704
(dp1705
g19
I0
sg20
F4.807712224152137
sg21
I01
sbsg25
(imyEvolve
Tree
p1706
(dp1707
g19
I0
sg20
F-2.1627063916461853
sg21
I01
sbsg22
I00
sg23
g54
sbsg22
I00
sg23
g41
sbsg25
(imyEvolve
Tree
p1708
(dp1709
g7
(imyEvolve
Tree
p1710
(dp1711
g7
(imyEvolve
Tree
p1712
(dp1713
g19
I0
sg21
I00
sbsg19
I1
sg22
I01
sg23
g95
sbsg19
I2
sg22
I01
sg23
g53
sbsg22
I00
sg23
g54
sbsg25
(imyEvolve
Tree
p1714
(dp1715
g7
(imyEvolve
Tree
p1716
(dp1717
g19
I2
sg10
(imyEvolve
Tree
p1718
(dp1719
g19
I1
sg10
(imyEvolve
Tree
p1720
(dp1721
g19
I0
sg20
F1.0076007400796563
sg21
I01
sbsg25
(imyEvolve
Tree
p1722
(dp1723
g19
I0
sg21
I00
sbsg22
I00
sg23
g30
sbsg25
(imyEvolve
Tree
p1724
(dp1725
g7
(imyEvolve
Tree
p1726
(dp1727
g19
I0
sg20
F-1.3321642583399171
sg21
I01
sbsg19
I1
sg22
I01
sg23
g24
sbsg22
I00
sg23
g54
sbsg19
I3
sg22
I01
sg23
g95
sbsg22
I00
sg23
g30
sba(imyEvolve
Tree
p1728
(dp1729
g7
(imyEvolve
Tree
p1730
(dp1731
g7
(imyEvolve
Tree
p1732
(dp1733
g19
I0
sg21
I00
sbsg19
I1
sg22
I01
sg23
g24
sbsg19
I2
sg22
I01
sg23
g95
sba(imyEvolve
Tree
p1734
(dp1735
g19
I3
sg10
(imyEvolve
Tree
p1736
(dp1737
g7
(imyEvolve
Tree
p1738
(dp1739
g7
(imyEvolve
Tree
p1740
(dp1741
g19
I0
sg20
F-0.9725791168321134
sg21
I01
sbsg19
I1
sg22
I01
sg23
g53
sbsg19
I2
sg22
I01
sg23
g53
sbsg25
(imyEvolve
Tree
p1742
(dp1743
g7
(imyEvolve
Tree
p1744
(dp1745
g7
(imyEvolve
Tree
p1746
(dp1747
g19
I0
sg21
I00
sbsg19
I1
sg22
I01
sg23
g24
sbsg19
I2
sg22
I01
sg23
g95
sbsg22
I00
sg23
g41
sba(imyEvolve
Tree
p1748
(dp1749
g19
I2
sg10
(imyEvolve
Tree
p1750
(dp1751
g19
I1
sg10
(imyEvolve
Tree
p1752
(dp1753
g19
I0
sg20
F-4.3800308290688665
sg21
I01
sbsg25
(imyEvolve
Tree
p1754
(dp1755
g19
I0
sg20
F-3.7213503041040563
sg21
I01
sbsg22
I00
sg23
g54
sbsg25
(imyEvolve
Tree
p1756
(dp1757
g19
I1
sg10
(imyEvolve
Tree
p1758
(dp1759
g19
I0
sg20
F-1.5859734271810133
sg21
I01
sbsg25
(imyEvolve
Tree
p1760
(dp1761
g19
I0
sg21
I00
sbsg22
I00
sg23
g30
sbsg22
I00
sg23
g30
sba(imyEvolve
Tree
p1762
(dp1763
g19
I5
sg10
(imyEvolve
Tree
p1764
(dp1765
g19
I4
sg10
(imyEvolve
Tree
p1766
(dp1767
g7
(imyEvolve
Tree
p1768
(dp1769
g19
I2
sg10
(imyEvolve
Tree
p1770
(dp1771
g19
I1
sg10
(imyEvolve
Tree
p1772
(dp1773
g19
I0
sg20
F0.12617120147029226
sg21
I01
sbsg25
(imyEvolve
Tree
p1774
(dp1775
g19
I0
sg21
I00
sbsg22
I00
sg23
g54
sbsg25
(imyEvolve
Tree
p1776
(dp1777
g7
(imyEvolve
Tree
p1778
(dp1779
g19
I0
sg21
I00
sbsg19
I1
sg22
I01
sg23
g46
sbsg22
I00
sg23
g41
sbsg19
I3
sg22
I01
sg23
g95
sbsg25
(imyEvolve
Tree
p1780
(dp1781
g7
(imyEvolve
Tree
p1782
(dp1783
g19
I2
sg10
(imyEvolve
Tree
p1784
(dp1785
g7
(imyEvolve
Tree
p1786
(dp1787
g19
I0
sg20
F-0.5918571268124246
sg21
I01
sbsg19
I1
sg22
I01
sg23
g46
sbsg25
(imyEvolve
Tree
p1788
(dp1789
g19
I1
sg10
(imyEvolve
Tree
p1790
(dp1791
g19
I0
sg21
I00
sbsg25
(imyEvolve
Tree
p1792
(dp1793
g19
I0
sg21
I00
sbsg22
I00
sg23
g30
sbsg22
I00
sg23
g54
sbsg19
I3
sg22
I01
sg23
g53
sbsg22
I00
sg23
g30
sbsg25
(imyEvolve
Tree
p1794
(dp1795
g7
(imyEvolve
Tree
p1796
(dp1797
g19
I3
sg10
(imyEvolve
Tree
p1798
(dp1799
g7
(imyEvolve
Tree
p1800
(dp1801
g7
(imyEvolve
Tree
p1802
(dp1803
g19
I0
sg20
F-4.221209721213269
sg21
I01
sbsg19
I1
sg22
I01
sg23
g95
sbsg19
I2
sg22
I01
sg23
g53
sbsg25
(imyEvolve
Tree
p1804
(dp1805
g7
(imyEvolve
Tree
p1806
(dp1807
g7
(imyEvolve
Tree
p1808
(dp1809
g19
I0
sg21
I00
sbsg19
I1
sg22
I01
sg23
g95
sbsg19
I2
sg22
I01
sg23
g95
sbsg22
I00
sg23
g54
sbsg19
I4
sg22
I01
sg23
g53
sbsg22
I00
sg23
g30
sba(imyEvolve
Tree
p1810
(dp1811
g7
(imyEvolve
Tree
p1812
(dp1813
g19
I3
sg10
(imyEvolve
Tree
p1814
(dp1815
g19
I2
sg10
(imyEvolve
Tree
p1816
(dp1817
g19
I1
sg10
(imyEvolve
Tree
p1818
(dp1819
g19
I0
sg21
I00
sbsg25
(imyEvolve
Tree
p1820
(dp1821
g19
I0
sg21
I00
sbsg22
I00
sg23
g30
sbsg25
(imyEvolve
Tree
p1822
(dp1823
g19
I1
sg10
(imyEvolve
Tree
p1824
(dp1825
g19
I0
sg21
I00
sbsg25
(imyEvolve
Tree
p1826
(dp1827
g19
I0
sg20
F-1.1211280386202196
sg21
I01
sbsg22
I00
sg23
g41
sbsg22
I00
sg23
g41
sbsg25
(imyEvolve
Tree
p1828
(dp1829
g19
I2
sg10
(imyEvolve
Tree
p1830
(dp1831
g19
I1
sg10
(imyEvolve
Tree
p1832
(dp1833
g19
I0
sg21
I00
sbsg25
(imyEvolve
Tree
p1834
(dp1835
g19
I0
sg20
F2.9225068747694234
sg21
I01
sbsg22
I00
sg23
g30
sbsg25
(imyEvolve
Tree
p1836
(dp1837
g7
(imyEvolve
Tree
p1838
(dp1839
g19
I0
sg21
I00
sbsg19
I1
sg22
I01
sg23
g95
sbsg22
I00
sg23
g41
sbsg22
I00
sg23
g54
sbsg19
I4
sg22
I01
sg23
g53
sba(imyEvolve
Tree
p1840
(dp1841
g19
I3
sg10
(imyEvolve
Tree
p1842
(dp1843
g19
I2
sg10
(imyEvolve
Tree
p1844
(dp1845
g7
(imyEvolve
Tree
p1846
(dp1847
g19
I0
sg21
I00
sbsg19
I1
sg22
I01
sg23
g53
sbsg25
(imyEvolve
Tree
p1848
(dp1849
g19
I1
sg10
(imyEvolve
Tree
p1850
(dp1851
g19
I0
sg20
F1.406501046372016
sg21
I01
sbsg25
(imyEvolve
Tree
p1852
(dp1853
g19
I0
sg20
F2.3427618831992145
sg21
I01
sbsg22
I00
sg23
g41
sbsg22
I00
sg23
g54
sbsg25
(imyEvolve
Tree
p1854
(dp1855
g7
(imyEvolve
Tree
p1856
(dp1857
g19
I1
sg10
(imyEvolve
Tree
p1858
(dp1859
g19
I0
sg21
I00
sbsg25
(imyEvolve
Tree
p1860
(dp1861
g19
I0
sg21
I00
sbsg22
I00
sg23
g41
sbsg19
I2
sg22
I01
sg23
g24
sbsg22
I00
sg23
g54
sba(imyEvolve
Tree
p1862
(dp1863
g7
(imyEvolve
Tree
p1864
(dp1865
g7
(imyEvolve
Tree
p1866
(dp1867
g7
(imyEvolve
Tree
p1868
(dp1869
g7
(imyEvolve
Tree
p1870
(dp1871
g7
(imyEvolve
Tree
p1872
(dp1873
g19
I0
sg21
I00
sbsg19
I1
sg22
I01
sg23
g95
sbsg19
I2
sg22
I01
sg23
g46
sbsg19
I3
sg22
I01
sg23
g46
sbsg19
I4
sg22
I01
sg23
g46
sbsg19
I5
sg22
I01
sg23
g95
sba(imyEvolve
Tree
p1874
(dp1875
g7
(imyEvolve
Tree
p1876
(dp1877
g7
(imyEvolve
Tree
p1878
(dp1879
g19
I2
sg10
(imyEvolve
Tree
p1880
(dp1881
g19
I1
sg10
(imyEvolve
Tree
p1882
(dp1883
g19
I0
sg20
F2.9644625639443722
sg21
I01
sbsg25
(imyEvolve
Tree
p1884
(dp1885
g19
I0
sg21
I00
sbsg22
I00
sg23
g54
sbsg25
(imyEvolve
Tree
p1886
(dp1887
g7
(imyEvolve
Tree
p1888
(dp1889
g19
I0
sg21
I00
sbsg19
I1
sg22
I01
sg23
g24
sbsg22
I00
sg23
g30
sbsg19
I3
sg22
I01
sg23
g24
sbsg19
I4
sg22
I01
sg23
g46
sba(imyEvolve
Tree
p1890
(dp1891
g7
(imyEvolve
Tree
p1892
(dp1893
g7
(imyEvolve
Tree
p1894
(dp1895
g7
(imyEvolve
Tree
p1896
(dp1897
g19
I0
sg20
F-2.7231186362224244
sg21
I01
sbsg19
I1
sg22
I01
sg23
g46
sbsg19
I2
sg22
I01
sg23
g95
sbsg19
I3
sg22
I01
sg23
g46
sba(imyEvolve
Tree
p1898
(dp1899
g19
I3
sg10
(imyEvolve
Tree
p1900
(dp1901
g19
I2
sg10
(imyEvolve
Tree
p1902
(dp1903
g7
(imyEvolve
Tree
p1904
(dp1905
g19
I0
sg21
I00
sbsg19
I1
sg22
I01
sg23
g53
sbsg25
(imyEvolve
Tree
p1906
(dp1907
g19
I1
sg10
(imyEvolve
Tree
p1908
(dp1909
g19
I0
sg21
I00
sbsg25
(imyEvolve
Tree
p1910
(dp1911
g19
I0
sg21
I00
sbsg22
I00
sg23
g41
sbsg22
I00
sg23
g41
sbsg25
(imyEvolve
Tree
p1912
(dp1913
g19
I2
sg10
(imyEvolve
Tree
p1914
(dp1915
g19
I1
sg10
(imyEvolve
Tree
p1916
(dp1917
g19
I0
sg21
I00
sbsg25
(imyEvolve
Tree
p1918
(dp1919
g19
I0
sg20
F-3.669118539502417
sg21
I01
sbsg22
I00
sg23
g54
sbsg25
(imyEvolve
Tree
p1920
(dp1921
g19
I1
sg10
(imyEvolve
Tree
p1922
(dp1923
g19
I0
sg21
I00
sbsg25
(imyEvolve
Tree
p1924
(dp1925
g19
I0
sg20
F-3.0600547760731134
sg21
I01
sbsg22
I00
sg23
g54
sbsg22
I00
sg23
g54
sbsg22
I00
sg23
g54
sbaasS'alpha'
p1926
F0.0036983268320204083
sS'fitness'
p1927
cnumpy.core.multiarray
scalar
p1928
(cnumpy
dtype
p1929
(S'f8'
p1930
I0
I1
tp1931
Rp1932
(I3
S'<'
p1933
NNNI-1
I-1
I0
tp1934
bS"\xbb'\x0f\x93`\x1c\xe6?"
p1935
tp1936
Rp1937
sS'weightSharing'
p1938
(lp1939
I00
asS'fitnessValid'
p1940
I00
sS'resolution'
p1941
I64
sb.