(imyEvolve
Individual
p0
(dp1
S'funcs'
p2
(lp3
(lp4
(imyEvolve
Tree
p5
(dp6
S'below'
p7
(imyEvolve
Tree
p8
(dp9
S'left'
p10
(imyEvolve
Tree
p11
(dp12
g7
(imyEvolve
Tree
p13
(dp14
g10
(imyEvolve
Tree
p15
(dp16
g7
(imyEvolve
Tree
p17
(dp18
S'depth'
p19
I0
sS'constant'
p20
F-2.9364946928065008
sS'isConstant'
p21
I01
sbsg19
I1
sS'single'
p22
I01
sS'op'
p23
cmath
cos
p24
sbsg19
I2
sS'right'
p25
(imyEvolve
Tree
p26
(dp27
g7
(imyEvolve
Tree
p28
(dp29
g19
I0
sg20
F-3.572471582026553
sg21
I01
sbsg19
I1
sg22
I01
sg23
g24
sbsg22
I00
sg23
coperator
mul
p30
sbsg19
I3
sg22
I01
sg23
g24
sbsg19
I4
sg25
(imyEvolve
Tree
p31
(dp32
g10
(imyEvolve
Tree
p33
(dp34
g10
(imyEvolve
Tree
p35
(dp36
g10
(imyEvolve
Tree
p37
(dp38
g19
I0
sg21
I00
sbsg19
I1
sg25
(imyEvolve
Tree
p39
(dp40
g19
I0
sg21
I00
sbsg22
I00
sg23
coperator
sub
p41
sbsg19
I2
sg25
(imyEvolve
Tree
p42
(dp43
g7
(imyEvolve
Tree
p44
(dp45
g19
I0
sg20
F2.1304730869402917
sg21
I01
sbsg19
I1
sg22
I01
sg23
cmyEvolve
square
p46
sbsg22
I00
sg23
g30
sbsg19
I3
sg25
(imyEvolve
Tree
p47
(dp48
g7
(imyEvolve
Tree
p49
(dp50
g7
(imyEvolve
Tree
p51
(dp52
g19
I0
sg21
I00
sbsg19
I1
sg22
I01
sg23
g24
sbsg19
I2
sg22
I01
sg23
cmyEvolve
absSqrt
p53
sbsg22
I00
sg23
g30
sbsg22
I00
sg23
coperator
add
p54
sbsg19
I5
sg22
I01
sg23
g24
sba(imyEvolve
Tree
p55
(dp56
g7
(imyEvolve
Tree
p57
(dp58
g19
I2
sg10
(imyEvolve
Tree
p59
(dp60
g7
(imyEvolve
Tree
p61
(dp62
g19
I0
sg21
I00
sbsg19
I1
sg22
I01
sg23
g24
sbsg25
(imyEvolve
Tree
p63
(dp64
g19
I1
sg10
(imyEvolve
Tree
p65
(dp66
g19
I0
sg21
I00
sbsg25
(imyEvolve
Tree
p67
(dp68
g19
I0
sg21
I00
sbsg22
I00
sg23
g41
sbsg22
I00
sg23
g41
sbsg19
I3
sg22
I01
sg23
g24
sba(imyEvolve
Tree
p69
(dp70
g10
(imyEvolve
Tree
p71
(dp72
g10
(imyEvolve
Tree
p73
(dp74
g7
(imyEvolve
Tree
p75
(dp76
g7
(imyEvolve
Tree
p77
(dp78
g7
(imyEvolve
Tree
p79
(dp80
g19
I0
sg21
I00
sbsg19
I1
sg22
I01
sg23
g46
sbsg19
I2
sg22
I01
sg23
cmath
sin
p81
sbsg19
I3
sg22
I01
sg23
g81
sbsg19
I4
sg25
(imyEvolve
Tree
p82
(dp83
g10
(imyEvolve
Tree
p84
(dp85
g10
(imyEvolve
Tree
p86
(dp87
g7
(imyEvolve
Tree
p88
(dp89
g19
I0
sg20
F-2.194625601492215
sg21
I01
sbsg19
I1
sg22
I01
sg23
g53
sbsg19
I2
sg25
(imyEvolve
Tree
p90
(dp91
g7
(imyEvolve
Tree
p92
(dp93
g19
I0
sg21
I00
sbsg19
I1
sg22
I01
sg23
g53
sbsg22
I00
sg23
g30
sbsg19
I3
sg25
(imyEvolve
Tree
p94
(dp95
g7
(imyEvolve
Tree
p96
(dp97
g10
(imyEvolve
Tree
p98
(dp99
g19
I0
sg20
F-3.0780543946744086
sg21
I01
sbsg19
I1
sg25
(imyEvolve
Tree
p100
(dp101
g19
I0
sg20
F-0.23402464932056333
sg21
I01
sbsg22
I00
sg23
g30
sbsg19
I2
sg22
I01
sg23
g81
sbsg22
I00
sg23
g41
sbsg22
I00
sg23
g54
sbsg19
I5
sg25
(imyEvolve
Tree
p102
(dp103
g7
(imyEvolve
Tree
p104
(dp105
g7
(imyEvolve
Tree
p106
(dp107
g7
(imyEvolve
Tree
p108
(dp109
g7
(imyEvolve
Tree
p110
(dp111
g19
I0
sg21
I00
sbsg19
I1
sg22
I01
sg23
g53
sbsg19
I2
sg22
I01
sg23
g46
sbsg19
I3
sg22
I01
sg23
g24
sbsg19
I4
sg22
I01
sg23
g81
sbsg22
I00
sg23
g30
sba(imyEvolve
Tree
p112
(dp113
g10
(imyEvolve
Tree
p114
(dp115
g7
(imyEvolve
Tree
p116
(dp117
g7
(imyEvolve
Tree
p118
(dp119
g10
(imyEvolve
Tree
p120
(dp121
g10
(imyEvolve
Tree
p122
(dp123
g19
I0
sg21
I00
sbsg19
I1
sg25
(imyEvolve
Tree
p124
(dp125
g19
I0
sg20
F4.0335451256297326
sg21
I01
sbsg22
I00
sg23
g30
sbsg19
I2
sg25
(imyEvolve
Tree
p126
(dp127
g7
(imyEvolve
Tree
p128
(dp129
g19
I0
sg21
I00
sbsg19
I1
sg22
I01
sg23
g24
sbsg22
I00
sg23
g54
sbsg19
I3
sg22
I01
sg23
g53
sbsg19
I4
sg22
I01
sg23
g81
sbsg19
I5
sg25
(imyEvolve
Tree
p130
(dp131
g10
(imyEvolve
Tree
p132
(dp133
g10
(imyEvolve
Tree
p134
(dp135
g10
(imyEvolve
Tree
p136
(dp137
g10
(imyEvolve
Tree
p138
(dp139
g19
I0
sg20
F4.914571258548197
sg21
I01
sbsg19
I1
sg25
(imyEvolve
Tree
p140
(dp141
g19
I0
sg20
F2.958972057203794
sg21
I01
sbsg22
I00
sg23
g54
sbsg19
I2
sg25
(imyEvolve
Tree
p142
(dp143
g10
(imyEvolve
Tree
p144
(dp145
g19
I0
sg21
I00
sbsg19
I1
sg25
(imyEvolve
Tree
p146
(dp147
g19
I0
sg20
F1.6082563923527768
sg21
I01
sbsg22
I00
sg23
g30
sbsg22
I00
sg23
g54
sbsg19
I3
sg25
(imyEvolve
Tree
p148
(dp149
g7
(imyEvolve
Tree
p150
(dp151
g10
(imyEvolve
Tree
p152
(dp153
g19
I0
sg20
F-2.077475977782166
sg21
I01
sbsg19
I1
sg25
(imyEvolve
Tree
p154
(dp155
g19
I0
sg21
I00
sbsg22
I00
sg23
g30
sbsg19
I2
sg22
I01
sg23
g24
sbsg22
I00
sg23
g30
sbsg19
I4
sg25
(imyEvolve
Tree
p156
(dp157
g7
(imyEvolve
Tree
p158
(dp159
g10
(imyEvolve
Tree
p160
(dp161
g10
(imyEvolve
Tree
p162
(dp163
g19
I0
sg20
F4.40289127860782
sg21
I01
sbsg19
I1
sg25
(imyEvolve
Tree
p164
(dp165
g19
I0
sg21
I00
sbsg22
I00
sg23
g30
sbsg19
I2
sg25
(imyEvolve
Tree
p166
(dp167
g7
(imyEvolve
Tree
p168
(dp169
g19
I0
sg21
I00
sbsg19
I1
sg22
I01
sg23
g46
sbsg22
I00
sg23
g41
sbsg19
I3
sg22
I01
sg23
g46
sbsg22
I00
sg23
g41
sbsg22
I00
sg23
g54
sba(imyEvolve
Tree
p170
(dp171
g7
(imyEvolve
Tree
p172
(dp173
g7
(imyEvolve
Tree
p174
(dp175
g10
(imyEvolve
Tree
p176
(dp177
g7
(imyEvolve
Tree
p178
(dp179
g7
(imyEvolve
Tree
p180
(dp181
g19
I0
sg20
F-3.5605797211046495
sg21
I01
sbsg19
I1
sg22
I01
sg23
g46
sbsg19
I2
sg22
I01
sg23
g53
sbsg19
I3
sg25
(imyEvolve
Tree
p182
(dp183
g7
(imyEvolve
Tree
p184
(dp185
g7
(imyEvolve
Tree
p186
(dp187
g19
I0
sg21
I00
sbsg19
I1
sg22
I01
sg23
g53
sbsg19
I2
sg22
I01
sg23
g81
sbsg22
I00
sg23
g41
sbsg19
I4
sg22
I01
sg23
g24
sbsg19
I5
sg22
I01
sg23
g24
sba(imyEvolve
Tree
p188
(dp189
g7
(imyEvolve
Tree
p190
(dp191
g10
(imyEvolve
Tree
p192
(dp193
g19
I0
sg21
I00
sbsg19
I1
sg25
(imyEvolve
Tree
p194
(dp195
g19
I0
sg21
I00
sbsg22
I00
sg23
g41
sbsg19
I2
sg22
I01
sg23
g24
sba(imyEvolve
Tree
p196
(dp197
g19
I3
sg10
(imyEvolve
Tree
p198
(dp199
g7
(imyEvolve
Tree
p200
(dp201
g7
(imyEvolve
Tree
p202
(dp203
g19
I0
sg20
F4.004536124745222
sg21
I01
sbsg19
I1
sg22
I01
sg23
g81
sbsg19
I2
sg22
I01
sg23
g81
sbsg25
(imyEvolve
Tree
p204
(dp205
g19
I2
sg10
(imyEvolve
Tree
p206
(dp207
g7
(imyEvolve
Tree
p208
(dp209
g19
I0
sg21
I00
sbsg19
I1
sg22
I01
sg23
g53
sbsg25
(imyEvolve
Tree
p210
(dp211
g7
(imyEvolve
Tree
p212
(dp213
g19
I0
sg21
I00
sbsg19
I1
sg22
I01
sg23
g53
sbsg22
I00
sg23
g30
sbsg22
I00
sg23
g54
sba(imyEvolve
Tree
p214
(dp215
g7
(imyEvolve
Tree
p216
(dp217
g7
(imyEvolve
Tree
p218
(dp219
g7
(imyEvolve
Tree
p220
(dp221
g19
I0
sg21
I00
sbsg19
I1
sg22
I01
sg23
g24
sbsg19
I2
sg22
I01
sg23
g53
sbsg19
I3
sg22
I01
sg23
g46
sba(imyEvolve
Tree
p222
(dp223
g10
(imyEvolve
Tree
p224
(dp225
g10
(imyEvolve
Tree
p226
(dp227
g10
(imyEvolve
Tree
p228
(dp229
g7
(imyEvolve
Tree
p230
(dp231
g10
(imyEvolve
Tree
p232
(dp233
g19
I0
sg21
I00
sbsg19
I1
sg25
(imyEvolve
Tree
p234
(dp235
g19
I0
sg20
F-3.1588421602934655
sg21
I01
sbsg22
I00
sg23
g30
sbsg19
I2
sg22
I01
sg23
g24
sbsg19
I3
sg25
(imyEvolve
Tree
p236
(dp237
g10
(imyEvolve
Tree
p238
(dp239
g7
(imyEvolve
Tree
p240
(dp241
g19
I0
sg20
F2.3521657001242726
sg21
I01
sbsg19
I1
sg22
I01
sg23
g46
sbsg19
I2
sg25
(imyEvolve
Tree
p242
(dp243
g10
(imyEvolve
Tree
p244
(dp245
g19
I0
sg21
I00
sbsg19
I1
sg25
(imyEvolve
Tree
p246
(dp247
g19
I0
sg20
F1.687607381302314
sg21
I01
sbsg22
I00
sg23
g41
sbsg22
I00
sg23
g30
sbsg22
I00
sg23
g41
sbsg19
I4
sg25
(imyEvolve
Tree
p248
(dp249
g7
(imyEvolve
Tree
p250
(dp251
g10
(imyEvolve
Tree
p252
(dp253
g7
(imyEvolve
Tree
p254
(dp255
g19
I0
sg21
I00
sbsg19
I1
sg22
I01
sg23
g24
sbsg19
I2
sg25
(imyEvolve
Tree
p256
(dp257
g7
(imyEvolve
Tree
p258
(dp259
g19
I0
sg20
F3.2501511916158012
sg21
I01
sbsg19
I1
sg22
I01
sg23
g53
sbsg22
I00
sg23
g41
sbsg19
I3
sg22
I01
sg23
g53
sbsg22
I00
sg23
g54
sbsg19
I5
sg25
(imyEvolve
Tree
p260
(dp261
g7
(imyEvolve
Tree
p262
(dp263
g10
(imyEvolve
Tree
p264
(dp265
g7
(imyEvolve
Tree
p266
(dp267
g10
(imyEvolve
Tree
p268
(dp269
g19
I0
sg21
I00
sbsg19
I1
sg25
(imyEvolve
Tree
p270
(dp271
g19
I0
sg20
F-0.4971146818405314
sg21
I01
sbsg22
I00
sg23
g54
sbsg19
I2
sg22
I01
sg23
g24
sbsg19
I3
sg25
(imyEvolve
Tree
p272
(dp273
g7
(imyEvolve
Tree
p274
(dp275
g10
(imyEvolve
Tree
p276
(dp277
g19
I0
sg21
I00
sbsg19
I1
sg25
(imyEvolve
Tree
p278
(dp279
g19
I0
sg21
I00
sbsg22
I00
sg23
g30
sbsg19
I2
sg22
I01
sg23
g81
sbsg22
I00
sg23
g41
sbsg19
I4
sg22
I01
sg23
g24
sbsg22
I00
sg23
g41
sba(imyEvolve
Tree
p280
(dp281
g7
(imyEvolve
Tree
p282
(dp283
g7
(imyEvolve
Tree
p284
(dp285
g7
(imyEvolve
Tree
p286
(dp287
g10
(imyEvolve
Tree
p288
(dp289
g7
(imyEvolve
Tree
p290
(dp291
g19
I0
sg21
I00
sbsg19
I1
sg22
I01
sg23
g81
sbsg19
I2
sg25
(imyEvolve
Tree
p292
(dp293
g10
(imyEvolve
Tree
p294
(dp295
g19
I0
sg21
I00
sbsg19
I1
sg25
(imyEvolve
Tree
p296
(dp297
g19
I0
sg20
F0.8911251189838865
sg21
I01
sbsg22
I00
sg23
g41
sbsg22
I00
sg23
g54
sbsg19
I3
sg22
I01
sg23
g53
sbsg19
I4
sg22
I01
sg23
g46
sbsg19
I5
sg22
I01
sg23
g24
sba(imyEvolve
Tree
p298
(dp299
g10
(imyEvolve
Tree
p300
(dp301
g10
(imyEvolve
Tree
p302
(dp303
g7
(imyEvolve
Tree
p304
(dp305
g7
(imyEvolve
Tree
p306
(dp307
g19
I0
sg21
I00
sbsg19
I1
sg22
I01
sg23
g46
sbsg19
I2
sg22
I01
sg23
g81
sbsg19
I3
sg25
(imyEvolve
Tree
p308
(dp309
g7
(imyEvolve
Tree
p310
(dp311
g10
(imyEvolve
Tree
p312
(dp313
g19
I0
sg21
I00
sbsg19
I1
sg25
(imyEvolve
Tree
p314
(dp315
g19
I0
sg21
I00
sbsg22
I00
sg23
g30
sbsg19
I2
sg22
I01
sg23
g53
sbsg22
I00
sg23
g41
sbsg19
I4
sg25
(imyEvolve
Tree
p316
(dp317
g7
(imyEvolve
Tree
p318
(dp319
g10
(imyEvolve
Tree
p320
(dp321
g10
(imyEvolve
Tree
p322
(dp323
g19
I0
sg20
F-2.8845711841019894
sg21
I01
sbsg19
I1
sg25
(imyEvolve
Tree
p324
(dp325
g19
I0
sg21
I00
sbsg22
I00
sg23
g41
sbsg19
I2
sg25
(imyEvolve
Tree
p326
(dp327
g10
(imyEvolve
Tree
p328
(dp329
g19
I0
sg20
F4.932791729972729
sg21
I01
sbsg19
I1
sg25
(imyEvolve
Tree
p330
(dp331
g19
I0
sg21
I00
sbsg22
I00
sg23
g41
sbsg22
I00
sg23
g41
sbsg19
I3
sg22
I01
sg23
g53
sbsg22
I00
sg23
g30
sba(imyEvolve
Tree
p332
(dp333
g7
(imyEvolve
Tree
p334
(dp335
g10
(imyEvolve
Tree
p336
(dp337
g7
(imyEvolve
Tree
p338
(dp339
g7
(imyEvolve
Tree
p340
(dp341
g19
I0
sg20
F2.0741948645207398
sg21
I01
sbsg19
I1
sg22
I01
sg23
g46
sbsg19
I2
sg22
I01
sg23
g53
sbsg19
I3
sg25
(imyEvolve
Tree
p342
(dp343
g10
(imyEvolve
Tree
p344
(dp345
g10
(imyEvolve
Tree
p346
(dp347
g19
I0
sg21
I00
sbsg19
I1
sg25
(imyEvolve
Tree
p348
(dp349
g19
I0
sg20
F1.6146527970256024
sg21
I01
sbsg22
I00
sg23
g54
sbsg19
I2
sg25
(imyEvolve
Tree
p350
(dp351
g7
(imyEvolve
Tree
p352
(dp353
g19
I0
sg21
I00
sbsg19
I1
sg22
I01
sg23
g24
sbsg22
I00
sg23
g54
sbsg22
I00
sg23
g30
sbsg19
I4
sg22
I01
sg23
g81
sba(imyEvolve
Tree
p354
(dp355
g7
(imyEvolve
Tree
p356
(dp357
g7
(imyEvolve
Tree
p358
(dp359
g19
I0
sg20
F3.194390632773045
sg21
I01
sbsg19
I1
sg22
I01
sg23
g24
sbsg19
I2
sg22
I01
sg23
g81
sba(imyEvolve
Tree
p360
(dp361
g7
(imyEvolve
Tree
p362
(dp363
g7
(imyEvolve
Tree
p364
(dp365
g19
I0
sg20
F2.6897504296398678
sg21
I01
sbsg19
I1
sg22
I01
sg23
g46
sbsg19
I2
sg22
I01
sg23
g46
sba(imyEvolve
Tree
p366
(dp367
g10
(imyEvolve
Tree
p368
(dp369
g7
(imyEvolve
Tree
p370
(dp371
g19
I0
sg20
F-0.5873046072918147
sg21
I01
sbsg19
I1
sg22
I01
sg23
g53
sbsg19
I2
sg25
(imyEvolve
Tree
p372
(dp373
g7
(imyEvolve
Tree
p374
(dp375
g19
I0
sg20
F-1.2324085631721218
sg21
I01
sbsg19
I1
sg22
I01
sg23
g53
sbsg22
I00
sg23
g30
sba(imyEvolve
Tree
p376
(dp377
g7
(imyEvolve
Tree
p378
(dp379
g19
I1
sg10
(imyEvolve
Tree
p380
(dp381
g19
I0
sg21
I00
sbsg25
(imyEvolve
Tree
p382
(dp383
g19
I0
sg20
F3.529062200461354
sg21
I01
sbsg22
I00
sg23
g30
sbsg19
I2
sg22
I01
sg23
g46
sba(imyEvolve
Tree
p384
(dp385
g10
(imyEvolve
Tree
p386
(dp387
g7
(imyEvolve
Tree
p388
(dp389
g19
I0
sg21
I00
sbsg19
I1
sg22
I01
sg23
g53
sbsg19
I2
sg25
(imyEvolve
Tree
p390
(dp391
g7
(imyEvolve
Tree
p392
(dp393
g19
I0
sg21
I00
sbsg19
I1
sg22
I01
sg23
g24
sbsg22
I00
sg23
g54
sba(imyEvolve
Tree
p394
(dp395
g7
(imyEvolve
Tree
p396
(dp397
g7
(imyEvolve
Tree
p398
(dp399
g19
I0
sg20
F-4.790618614740372
sg21
I01
sbsg19
I1
sg22
I01
sg23
g24
sbsg19
I2
sg22
I01
sg23
g81
sbaa(lp400
(imyEvolve
Tree
p401
(dp402
g10
(imyEvolve
Tree
p403
(dp404
g7
(imyEvolve
Tree
p405
(dp406
g7
(imyEvolve
Tree
p407
(dp408
g10
(imyEvolve
Tree
p409
(dp410
g19
I0
sg20
F-3.146289141146129
sg21
I01
sbsg19
I1
sg25
(imyEvolve
Tree
p411
(dp412
g19
I0
sg21
I00
sbsg22
I00
sg23
g30
sbsg19
I2
sg22
I01
sg23
g81
sbsg19
I3
sg22
I01
sg23
g46
sbsg19
I4
sg25
(imyEvolve
Tree
p413
(dp414
g7
(imyEvolve
Tree
p415
(dp416
g7
(imyEvolve
Tree
p417
(dp418
g10
(imyEvolve
Tree
p419
(dp420
g19
I0
sg20
F2.8422988932532114
sg21
I01
sbsg19
I1
sg25
(imyEvolve
Tree
p421
(dp422
g19
I0
sg21
I00
sbsg22
I00
sg23
g54
sbsg19
I2
sg22
I01
sg23
g46
sbsg19
I3
sg22
I01
sg23
g46
sbsg22
I00
sg23
g30
sba(imyEvolve
Tree
p423
(dp424
g7
(imyEvolve
Tree
p425
(dp426
g10
(imyEvolve
Tree
p427
(dp428
g7
(imyEvolve
Tree
p429
(dp430
g7
(imyEvolve
Tree
p431
(dp432
g10
(imyEvolve
Tree
p433
(dp434
g19
I0
sg20
F2.614108993147531
sg21
I01
sbsg19
I1
sg25
(imyEvolve
Tree
p435
(dp436
g19
I0
sg20
F-1.2425068391727434
sg21
I01
sbsg22
I00
sg23
g30
sbsg19
I2
sg22
I01
sg23
g53
sbsg19
I3
sg22
I01
sg23
g81
sbsg19
I4
sg25
(imyEvolve
Tree
p437
(dp438
g7
(imyEvolve
Tree
p439
(dp440
g7
(imyEvolve
Tree
p441
(dp442
g10
(imyEvolve
Tree
p443
(dp444
g19
I0
sg21
I00
sbsg19
I1
sg25
(imyEvolve
Tree
p445
(dp446
g19
I0
sg20
F-4.684047032647596
sg21
I01
sbsg22
I00
sg23
g41
sbsg19
I2
sg22
I01
sg23
g81
sbsg19
I3
sg22
I01
sg23
g53
sbsg22
I00
sg23
g41
sbsg19
I5
sg22
I01
sg23
g81
sba(imyEvolve
Tree
p447
(dp448
g10
(imyEvolve
Tree
p449
(dp450
g10
(imyEvolve
Tree
p451
(dp452
g10
(imyEvolve
Tree
p453
(dp454
g19
I0
sg21
I00
sbsg19
I1
sg25
(imyEvolve
Tree
p455
(dp456
g19
I0
sg20
F2.990293128824457
sg21
I01
sbsg22
I00
sg23
g30
sbsg19
I2
sg25
(imyEvolve
Tree
p457
(dp458
g10
(imyEvolve
Tree
p459
(dp460
g19
I0
sg21
I00
sbsg19
I1
sg25
(imyEvolve
Tree
p461
(dp462
g19
I0
sg20
F4.9090558008745635
sg21
I01
sbsg22
I00
sg23
g30
sbsg22
I00
sg23
g54
sbsg19
I3
sg25
(imyEvolve
Tree
p463
(dp464
g10
(imyEvolve
Tree
p465
(dp466
g7
(imyEvolve
Tree
p467
(dp468
g19
I0
sg20
F1.2555744269221014
sg21
I01
sbsg19
I1
sg22
I01
sg23
g81
sbsg19
I2
sg25
(imyEvolve
Tree
p469
(dp470
g7
(imyEvolve
Tree
p471
(dp472
g19
I0
sg21
I00
sbsg19
I1
sg22
I01
sg23
g81
sbsg22
I00
sg23
g30
sbsg22
I00
sg23
g54
sba(imyEvolve
Tree
p473
(dp474
g7
(imyEvolve
Tree
p475
(dp476
g7
(imyEvolve
Tree
p477
(dp478
g10
(imyEvolve
Tree
p479
(dp480
g19
I0
sg20
F3.4594628217190238
sg21
I01
sbsg19
I1
sg25
(imyEvolve
Tree
p481
(dp482
g19
I0
sg20
F2.727825275691295
sg21
I01
sbsg22
I00
sg23
g30
sbsg19
I2
sg22
I01
sg23
g81
sbsg19
I3
sg22
I01
sg23
g24
sba(imyEvolve
Tree
p483
(dp484
g7
(imyEvolve
Tree
p485
(dp486
g7
(imyEvolve
Tree
p487
(dp488
g7
(imyEvolve
Tree
p489
(dp490
g19
I0
sg21
I00
sbsg19
I1
sg22
I01
sg23
g24
sbsg19
I2
sg22
I01
sg23
g53
sbsg19
I3
sg22
I01
sg23
g53
sba(imyEvolve
Tree
p491
(dp492
g7
(imyEvolve
Tree
p493
(dp494
g7
(imyEvolve
Tree
p495
(dp496
g19
I0
sg21
I00
sbsg19
I1
sg22
I01
sg23
g81
sbsg19
I2
sg22
I01
sg23
g24
sba(imyEvolve
Tree
p497
(dp498
g7
(imyEvolve
Tree
p499
(dp500
g7
(imyEvolve
Tree
p501
(dp502
g7
(imyEvolve
Tree
p503
(dp504
g7
(imyEvolve
Tree
p505
(dp506
g19
I0
sg21
I00
sbsg19
I1
sg22
I01
sg23
g46
sbsg19
I2
sg22
I01
sg23
g46
sbsg19
I3
sg22
I01
sg23
g53
sbsg19
I4
sg22
I01
sg23
g24
sba(imyEvolve
Tree
p507
(dp508
g10
(imyEvolve
Tree
p509
(dp510
g10
(imyEvolve
Tree
p511
(dp512
g10
(imyEvolve
Tree
p513
(dp514
g7
(imyEvolve
Tree
p515
(dp516
g7
(imyEvolve
Tree
p517
(dp518
g19
I0
sg21
I00
sbsg19
I1
sg22
I01
sg23
g81
sbsg19
I2
sg22
I01
sg23
g24
sbsg19
I3
sg25
(imyEvolve
Tree
p519
(dp520
g7
(imyEvolve
Tree
p521
(dp522
g10
(imyEvolve
Tree
p523
(dp524
g19
I0
sg20
F-1.240229286136889
sg21
I01
sbsg19
I1
sg25
(imyEvolve
Tree
p525
(dp526
g19
I0
sg20
F-1.6876441099316963
sg21
I01
sbsg22
I00
sg23
g54
sbsg19
I2
sg22
I01
sg23
g53
sbsg22
I00
sg23
g54
sbsg19
I4
sg25
(imyEvolve
Tree
p527
(dp528
g7
(imyEvolve
Tree
p529
(dp530
g7
(imyEvolve
Tree
p531
(dp532
g10
(imyEvolve
Tree
p533
(dp534
g19
I0
sg20
F2.3178851560157074
sg21
I01
sbsg19
I1
sg25
(imyEvolve
Tree
p535
(dp536
g19
I0
sg20
F3.3761057168468263
sg21
I01
sbsg22
I00
sg23
g41
sbsg19
I2
sg22
I01
sg23
g53
sbsg19
I3
sg22
I01
sg23
g53
sbsg22
I00
sg23
g41
sbsg19
I5
sg25
(imyEvolve
Tree
p537
(dp538
g10
(imyEvolve
Tree
p539
(dp540
g7
(imyEvolve
Tree
p541
(dp542
g7
(imyEvolve
Tree
p543
(dp544
g7
(imyEvolve
Tree
p545
(dp546
g19
I0
sg20
F0.31604404884666515
sg21
I01
sbsg19
I1
sg22
I01
sg23
g24
sbsg19
I2
sg22
I01
sg23
g81
sbsg19
I3
sg22
I01
sg23
g53
sbsg19
I4
sg25
(imyEvolve
Tree
p547
(dp548
g7
(imyEvolve
Tree
p549
(dp550
g7
(imyEvolve
Tree
p551
(dp552
g10
(imyEvolve
Tree
p553
(dp554
g19
I0
sg21
I00
sbsg19
I1
sg25
(imyEvolve
Tree
p555
(dp556
g19
I0
sg21
I00
sbsg22
I00
sg23
g41
sbsg19
I2
sg22
I01
sg23
g53
sbsg19
I3
sg22
I01
sg23
g24
sbsg22
I00
sg23
g41
sbsg22
I00
sg23
g30
sba(imyEvolve
Tree
p557
(dp558
g10
(imyEvolve
Tree
p559
(dp560
g7
(imyEvolve
Tree
p561
(dp562
g19
I0
sg20
F0.5955304716844445
sg21
I01
sbsg19
I1
sg22
I01
sg23
g24
sbsg19
I2
sg25
(imyEvolve
Tree
p563
(dp564
g7
(imyEvolve
Tree
p565
(dp566
g19
I0
sg20
F3.624182451095665
sg21
I01
sbsg19
I1
sg22
I01
sg23
g24
sbsg22
I00
sg23
g41
sba(imyEvolve
Tree
p567
(dp568
g7
(imyEvolve
Tree
p569
(dp570
g10
(imyEvolve
Tree
p571
(dp572
g10
(imyEvolve
Tree
p573
(dp574
g10
(imyEvolve
Tree
p575
(dp576
g7
(imyEvolve
Tree
p577
(dp578
g19
I0
sg20
F3.697586480831692
sg21
I01
sbsg19
I1
sg22
I01
sg23
g53
sbsg19
I2
sg25
(imyEvolve
Tree
p579
(dp580
g10
(imyEvolve
Tree
p581
(dp582
g19
I0
sg20
F0.5143511989658132
sg21
I01
sbsg19
I1
sg25
(imyEvolve
Tree
p583
(dp584
g19
I0
sg21
I00
sbsg22
I00
sg23
g41
sbsg22
I00
sg23
g30
sbsg19
I3
sg25
(imyEvolve
Tree
p585
(dp586
g10
(imyEvolve
Tree
p587
(dp588
g10
(imyEvolve
Tree
p589
(dp590
g19
I0
sg21
I00
sbsg19
I1
sg25
(imyEvolve
Tree
p591
(dp592
g19
I0
sg20
F0.9996839117788863
sg21
I01
sbsg22
I00
sg23
g54
sbsg19
I2
sg25
(imyEvolve
Tree
p593
(dp594
g7
(imyEvolve
Tree
p595
(dp596
g19
I0
sg21
I00
sbsg19
I1
sg22
I01
sg23
g46
sbsg22
I00
sg23
g41
sbsg22
I00
sg23
g54
sbsg19
I4
sg25
(imyEvolve
Tree
p597
(dp598
g7
(imyEvolve
Tree
p599
(dp600
g10
(imyEvolve
Tree
p601
(dp602
g7
(imyEvolve
Tree
p603
(dp604
g19
I0
sg20
F0.07527355194029184
sg21
I01
sbsg19
I1
sg22
I01
sg23
g81
sbsg19
I2
sg25
(imyEvolve
Tree
p605
(dp606
g7
(imyEvolve
Tree
p607
(dp608
g19
I0
sg21
I00
sbsg19
I1
sg22
I01
sg23
g46
sbsg22
I00
sg23
g54
sbsg19
I3
sg22
I01
sg23
g53
sbsg22
I00
sg23
g41
sbsg19
I5
sg22
I01
sg23
g53
sba(imyEvolve
Tree
p609
(dp610
g10
(imyEvolve
Tree
p611
(dp612
g10
(imyEvolve
Tree
p613
(dp614
g7
(imyEvolve
Tree
p615
(dp616
g19
I0
sg21
I00
sbsg19
I1
sg22
I01
sg23
g24
sbsg19
I2
sg25
(imyEvolve
Tree
p617
(dp618
g10
(imyEvolve
Tree
p619
(dp620
g19
I0
sg20
F3.4420438171397425
sg21
I01
sbsg19
I1
sg25
(imyEvolve
Tree
p621
(dp622
g19
I0
sg21
I00
sbsg22
I00
sg23
g41
sbsg22
I00
sg23
g30
sbsg19
I3
sg25
(imyEvolve
Tree
p623
(dp624
g10
(imyEvolve
Tree
p625
(dp626
g10
(imyEvolve
Tree
p627
(dp628
g19
I0
sg21
I00
sbsg19
I1
sg25
(imyEvolve
Tree
p629
(dp630
g19
I0
sg21
I00
sbsg22
I00
sg23
g41
sbsg19
I2
sg25
(imyEvolve
Tree
p631
(dp632
g7
(imyEvolve
Tree
p633
(dp634
g19
I0
sg20
F-3.405643021607742
sg21
I01
sbsg19
I1
sg22
I01
sg23
g24
sbsg22
I00
sg23
g54
sbsg22
I00
sg23
g54
sba(imyEvolve
Tree
p635
(dp636
g7
(imyEvolve
Tree
p637
(dp638
g7
(imyEvolve
Tree
p639
(dp640
g7
(imyEvolve
Tree
p641
(dp642
g10
(imyEvolve
Tree
p643
(dp644
g7
(imyEvolve
Tree
p645
(dp646
g19
I0
sg20
F1.562701981123233
sg21
I01
sbsg19
I1
sg22
I01
sg23
g24
sbsg19
I2
sg25
(imyEvolve
Tree
p647
(dp648
g7
(imyEvolve
Tree
p649
(dp650
g19
I0
sg20
F-4.431106215619116
sg21
I01
sbsg19
I1
sg22
I01
sg23
g24
sbsg22
I00
sg23
g30
sbsg19
I3
sg22
I01
sg23
g81
sbsg19
I4
sg22
I01
sg23
g81
sbsg19
I5
sg22
I01
sg23
g53
sba(imyEvolve
Tree
p651
(dp652
g7
(imyEvolve
Tree
p653
(dp654
g10
(imyEvolve
Tree
p655
(dp656
g10
(imyEvolve
Tree
p657
(dp658
g7
(imyEvolve
Tree
p659
(dp660
g19
I0
sg21
I00
sbsg19
I1
sg22
I01
sg23
g46
sbsg19
I2
sg25
(imyEvolve
Tree
p661
(dp662
g7
(imyEvolve
Tree
p663
(dp664
g19
I0
sg20
F-1.4685759705920698
sg21
I01
sbsg19
I1
sg22
I01
sg23
g24
sbsg22
I00
sg23
g54
sbsg19
I3
sg25
(imyEvolve
Tree
p665
(dp666
g7
(imyEvolve
Tree
p667
(dp668
g10
(imyEvolve
Tree
p669
(dp670
g19
I0
sg21
I00
sbsg19
I1
sg25
(imyEvolve
Tree
p671
(dp672
g19
I0
sg20
F1.4144764119125695
sg21
I01
sbsg22
I00
sg23
g41
sbsg19
I2
sg22
I01
sg23
g24
sbsg22
I00
sg23
g54
sbsg19
I4
sg22
I01
sg23
g46
sba(imyEvolve
Tree
p673
(dp674
g7
(imyEvolve
Tree
p675
(dp676
g7
(imyEvolve
Tree
p677
(dp678
g7
(imyEvolve
Tree
p679
(dp680
g10
(imyEvolve
Tree
p681
(dp682
g7
(imyEvolve
Tree
p683
(dp684
g19
I0
sg20
F-0.9498957414187341
sg21
I01
sbsg19
I1
sg22
I01
sg23
g24
sbsg19
I2
sg25
(imyEvolve
Tree
p685
(dp686
g7
(imyEvolve
Tree
p687
(dp688
g19
I0
sg20
F-2.071042229581983
sg21
I01
sbsg19
I1
sg22
I01
sg23
g81
sbsg22
I00
sg23
g30
sbsg19
I3
sg22
I01
sg23
g24
sbsg19
I4
sg22
I01
sg23
g53
sbsg19
I5
sg22
I01
sg23
g46
sba(imyEvolve
Tree
p689
(dp690
g7
(imyEvolve
Tree
p691
(dp692
g19
I2
sg10
(imyEvolve
Tree
p693
(dp694
g19
I1
sg10
(imyEvolve
Tree
p695
(dp696
g19
I0
sg21
I00
sbsg25
(imyEvolve
Tree
p697
(dp698
g19
I0
sg21
I00
sbsg22
I00
sg23
g54
sbsg25
(imyEvolve
Tree
p699
(dp700
g7
(imyEvolve
Tree
p701
(dp702
g19
I0
sg20
F-2.9675939223875467
sg21
I01
sbsg19
I1
sg22
I01
sg23
g24
sbsg22
I00
sg23
g54
sbsg19
I3
sg22
I01
sg23
g24
sba(imyEvolve
Tree
p703
(dp704
g7
(imyEvolve
Tree
p705
(dp706
g19
I1
sg10
(imyEvolve
Tree
p707
(dp708
g19
I0
sg21
I00
sbsg25
(imyEvolve
Tree
p709
(dp710
g19
I0
sg21
I00
sbsg22
I00
sg23
g41
sbsg19
I2
sg22
I01
sg23
g24
sba(imyEvolve
Tree
p711
(dp712
g7
(imyEvolve
Tree
p713
(dp714
g7
(imyEvolve
Tree
p715
(dp716
g7
(imyEvolve
Tree
p717
(dp718
g19
I0
sg20
F2.1489382953294562
sg21
I01
sbsg19
I1
sg22
I01
sg23
g24
sbsg19
I2
sg22
I01
sg23
g24
sbsg19
I3
sg22
I01
sg23
g46
sbaa(lp719
(imyEvolve
Tree
p720
(dp721
g10
(imyEvolve
Tree
p722
(dp723
g10
(imyEvolve
Tree
p724
(dp725
g19
I0
sg20
F-0.5843394252735781
sg21
I01
sbsg19
I1
sg25
(imyEvolve
Tree
p726
(dp727
g19
I0
sg21
I00
sbsg22
I00
sg23
g30
sbsg19
I2
sg25
(imyEvolve
Tree
p728
(dp729
g7
(imyEvolve
Tree
p730
(dp731
g19
I0
sg21
I00
sbsg19
I1
sg22
I01
sg23
g81
sbsg22
I00
sg23
g54
sba(imyEvolve
Tree
p732
(dp733
g7
(imyEvolve
Tree
p734
(dp735
g10
(imyEvolve
Tree
p736
(dp737
g19
I0
sg21
I00
sbsg19
I1
sg25
(imyEvolve
Tree
p738
(dp739
g19
I0
sg20
F-2.831558952170503
sg21
I01
sbsg22
I00
sg23
g30
sbsg19
I2
sg22
I01
sg23
g53
sba(imyEvolve
Tree
p740
(dp741
g10
(imyEvolve
Tree
p742
(dp743
g7
(imyEvolve
Tree
p744
(dp745
g19
I0
sg20
F-1.0895144454311403
sg21
I01
sbsg19
I1
sg22
I01
sg23
g81
sbsg19
I2
sg25
(imyEvolve
Tree
p746
(dp747
g7
(imyEvolve
Tree
p748
(dp749
g19
I0
sg21
I00
sbsg19
I1
sg22
I01
sg23
g24
sbsg22
I00
sg23
g30
sba(imyEvolve
Tree
p750
(dp751
g19
I3
sg10
(imyEvolve
Tree
p752
(dp753
g19
I2
sg10
(imyEvolve
Tree
p754
(dp755
g7
(imyEvolve
Tree
p756
(dp757
g19
I0
sg20
F-2.187577459584266
sg21
I01
sbsg19
I1
sg22
I01
sg23
g53
sbsg25
(imyEvolve
Tree
p758
(dp759
g7
(imyEvolve
Tree
p760
(dp761
g19
I0
sg21
I00
sbsg19
I1
sg22
I01
sg23
g46
sbsg22
I00
sg23
g30
sbsg25
(imyEvolve
Tree
p762
(dp763
g7
(imyEvolve
Tree
p764
(dp765
g19
I1
sg10
(imyEvolve
Tree
p766
(dp767
g19
I0
sg21
I00
sbsg25
(imyEvolve
Tree
p768
(dp769
g19
I0
sg21
I00
sbsg22
I00
sg23
g30
sbsg19
I2
sg22
I01
sg23
g81
sbsg22
I00
sg23
g54
sba(imyEvolve
Tree
p770
(dp771
g7
(imyEvolve
Tree
p772
(dp773
g7
(imyEvolve
Tree
p774
(dp775
g10
(imyEvolve
Tree
p776
(dp777
g10
(imyEvolve
Tree
p778
(dp779
g7
(imyEvolve
Tree
p780
(dp781
g19
I0
sg20
F2.5926218817362425
sg21
I01
sbsg19
I1
sg22
I01
sg23
g46
sbsg19
I2
sg25
(imyEvolve
Tree
p782
(dp783
g7
(imyEvolve
Tree
p784
(dp785
g19
I0
sg20
F-0.45959643209134704
sg21
I01
sbsg19
I1
sg22
I01
sg23
g46
sbsg22
I00
sg23
g30
sbsg19
I3
sg25
(imyEvolve
Tree
p786
(dp787
g10
(imyEvolve
Tree
p788
(dp789
g10
(imyEvolve
Tree
p790
(dp791
g19
I0
sg20
F-4.361364717395535
sg21
I01
sbsg19
I1
sg25
(imyEvolve
Tree
p792
(dp793
g19
I0
sg20
F1.7752490353528056
sg21
I01
sbsg22
I00
sg23
g30
sbsg19
I2
sg25
(imyEvolve
Tree
p794
(dp795
g10
(imyEvolve
Tree
p796
(dp797
g19
I0
sg20
F0.43599663260302624
sg21
I01
sbsg19
I1
sg25
(imyEvolve
Tree
p798
(dp799
g19
I0
sg20
F0.44715213863757786
sg21
I01
sbsg22
I00
sg23
g41
sbsg22
I00
sg23
g41
sbsg22
I00
sg23
g41
sbsg19
I4
sg22
I01
sg23
g53
sbsg19
I5
sg22
I01
sg23
g81
sba(imyEvolve
Tree
p800
(dp801
g10
(imyEvolve
Tree
p802
(dp803
g7
(imyEvolve
Tree
p804
(dp805
g7
(imyEvolve
Tree
p806
(dp807
g10
(imyEvolve
Tree
p808
(dp809
g7
(imyEvolve
Tree
p810
(dp811
g19
I0
sg20
F-4.083010619636087
sg21
I01
sbsg19
I1
sg22
I01
sg23
g46
sbsg19
I2
sg25
(imyEvolve
Tree
p812
(dp813
g10
(imyEvolve
Tree
p814
(dp815
g19
I0
sg20
F-0.09718018710264076
sg21
I01
sbsg19
I1
sg25
(imyEvolve
Tree
p816
(dp817
g19
I0
sg20
F-0.2621862515918938
sg21
I01
sbsg22
I00
sg23
g30
sbsg22
I00
sg23
g41
sbsg19
I3
sg22
I01
sg23
g24
sbsg19
I4
sg22
I01
sg23
g81
sbsg19
I5
sg25
(imyEvolve
Tree
p818
(dp819
g10
(imyEvolve
Tree
p820
(dp821
g10
(imyEvolve
Tree
p822
(dp823
g7
(imyEvolve
Tree
p824
(dp825
g10
(imyEvolve
Tree
p826
(dp827
g19
I0
sg21
I00
sbsg19
I1
sg25
(imyEvolve
Tree
p828
(dp829
g19
I0
sg21
I00
sbsg22
I00
sg23
g41
sbsg19
I2
sg22
I01
sg23
g81
sbsg19
I3
sg25
(imyEvolve
Tree
p830
(dp831
g10
(imyEvolve
Tree
p832
(dp833
g7
(imyEvolve
Tree
p834
(dp835
g19
I0
sg21
I00
sbsg19
I1
sg22
I01
sg23
g46
sbsg19
I2
sg25
(imyEvolve
Tree
p836
(dp837
g7
(imyEvolve
Tree
p838
(dp839
g19
I0
sg20
F1.2627839341203595
sg21
I01
sbsg19
I1
sg22
I01
sg23
g81
sbsg22
I00
sg23
g54
sbsg22
I00
sg23
g41
sbsg19
I4
sg25
(imyEvolve
Tree
p840
(dp841
g7
(imyEvolve
Tree
p842
(dp843
g10
(imyEvolve
Tree
p844
(dp845
g10
(imyEvolve
Tree
p846
(dp847
g19
I0
sg21
I00
sbsg19
I1
sg25
(imyEvolve
Tree
p848
(dp849
g19
I0
sg20
F2.936507695421838
sg21
I01
sbsg22
I00
sg23
g41
sbsg19
I2
sg25
(imyEvolve
Tree
p850
(dp851
g10
(imyEvolve
Tree
p852
(dp853
g19
I0
sg21
I00
sbsg19
I1
sg25
(imyEvolve
Tree
p854
(dp855
g19
I0
sg21
I00
sbsg22
I00
sg23
g41
sbsg22
I00
sg23
g41
sbsg19
I3
sg22
I01
sg23
g24
sbsg22
I00
sg23
g30
sbsg22
I00
sg23
g41
sba(imyEvolve
Tree
p856
(dp857
g10
(imyEvolve
Tree
p858
(dp859
g7
(imyEvolve
Tree
p860
(dp861
g10
(imyEvolve
Tree
p862
(dp863
g10
(imyEvolve
Tree
p864
(dp865
g19
I0
sg20
F-4.793533076644307
sg21
I01
sbsg19
I1
sg25
(imyEvolve
Tree
p866
(dp867
g19
I0
sg21
I00
sbsg22
I00
sg23
g54
sbsg19
I2
sg25
(imyEvolve
Tree
p868
(dp869
g10
(imyEvolve
Tree
p870
(dp871
g19
I0
sg21
I00
sbsg19
I1
sg25
(imyEvolve
Tree
p872
(dp873
g19
I0
sg20
F0.10807504635459964
sg21
I01
sbsg22
I00
sg23
g41
sbsg22
I00
sg23
g41
sbsg19
I3
sg22
I01
sg23
g24
sbsg19
I4
sg25
(imyEvolve
Tree
p874
(dp875
g10
(imyEvolve
Tree
p876
(dp877
g10
(imyEvolve
Tree
p878
(dp879
g10
(imyEvolve
Tree
p880
(dp881
g19
I0
sg20
F-3.7765587349647456
sg21
I01
sbsg19
I1
sg25
(imyEvolve
Tree
p882
(dp883
g19
I0
sg21
I00
sbsg22
I00
sg23
g41
sbsg19
I2
sg25
(imyEvolve
Tree
p884
(dp885
g7
(imyEvolve
Tree
p886
(dp887
g19
I0
sg20
F-4.065546622945709
sg21
I01
sbsg19
I1
sg22
I01
sg23
g81
sbsg22
I00
sg23
g41
sbsg19
I3
sg25
(imyEvolve
Tree
p888
(dp889
g7
(imyEvolve
Tree
p890
(dp891
g7
(imyEvolve
Tree
p892
(dp893
g19
I0
sg20
F2.9336722802778903
sg21
I01
sbsg19
I1
sg22
I01
sg23
g46
sbsg19
I2
sg22
I01
sg23
g81
sbsg22
I00
sg23
g41
sbsg22
I00
sg23
g54
sba(imyEvolve
Tree
p894
(dp895
g7
(imyEvolve
Tree
p896
(dp897
g7
(imyEvolve
Tree
p898
(dp899
g19
I1
sg10
(imyEvolve
Tree
p900
(dp901
g19
I0
sg20
F4.834190936723077
sg21
I01
sbsg25
(imyEvolve
Tree
p902
(dp903
g19
I0
sg20
F-0.4674336345269561
sg21
I01
sbsg22
I00
sg23
g30
sbsg19
I2
sg22
I01
sg23
g24
sbsg19
I3
sg22
I01
sg23
g46
sba(imyEvolve
Tree
p904
(dp905
g19
I2
sg10
(imyEvolve
Tree
p906
(dp907
g7
(imyEvolve
Tree
p908
(dp909
g19
I0
sg21
I00
sbsg19
I1
sg22
I01
sg23
g24
sbsg25
(imyEvolve
Tree
p910
(dp911
g7
(imyEvolve
Tree
p912
(dp913
g19
I0
sg21
I00
sbsg19
I1
sg22
I01
sg23
g46
sbsg22
I00
sg23
g54
sba(imyEvolve
Tree
p914
(dp915
g10
(imyEvolve
Tree
p916
(dp917
g10
(imyEvolve
Tree
p918
(dp919
g19
I0
sg20
F0.9518227170328242
sg21
I01
sbsg19
I1
sg25
(imyEvolve
Tree
p920
(dp921
g19
I0
sg20
F4.584046267804091
sg21
I01
sbsg22
I00
sg23
g54
sbsg19
I2
sg25
(imyEvolve
Tree
p922
(dp923
g7
(imyEvolve
Tree
p924
(dp925
g19
I0
sg20
F-1.3794602726212024
sg21
I01
sbsg19
I1
sg22
I01
sg23
g81
sbsg22
I00
sg23
g54
sba(imyEvolve
Tree
p926
(dp927
g10
(imyEvolve
Tree
p928
(dp929
g10
(imyEvolve
Tree
p930
(dp931
g19
I0
sg20
F2.1491065406087726
sg21
I01
sbsg19
I1
sg25
(imyEvolve
Tree
p932
(dp933
g19
I0
sg21
I00
sbsg22
I00
sg23
g41
sbsg19
I2
sg25
(imyEvolve
Tree
p934
(dp935
g10
(imyEvolve
Tree
p936
(dp937
g19
I0
sg20
F-3.348261948098238
sg21
I01
sbsg19
I1
sg25
(imyEvolve
Tree
p938
(dp939
g19
I0
sg21
I00
sbsg22
I00
sg23
g41
sbsg22
I00
sg23
g30
sba(imyEvolve
Tree
p940
(dp941
g7
(imyEvolve
Tree
p942
(dp943
g7
(imyEvolve
Tree
p944
(dp945
g7
(imyEvolve
Tree
p946
(dp947
g19
I0
sg21
I00
sbsg19
I1
sg22
I01
sg23
g81
sbsg19
I2
sg22
I01
sg23
g81
sbsg19
I3
sg22
I01
sg23
g81
sba(imyEvolve
Tree
p948
(dp949
g19
I4
sg10
(imyEvolve
Tree
p950
(dp951
g19
I3
sg10
(imyEvolve
Tree
p952
(dp953
g19
I2
sg10
(imyEvolve
Tree
p954
(dp955
g19
I1
sg10
(imyEvolve
Tree
p956
(dp957
g19
I0
sg20
F-3.5589745290431396
sg21
I01
sbsg25
(imyEvolve
Tree
p958
(dp959
g19
I0
sg20
F-3.038151367716544
sg21
I01
sbsg22
I00
sg23
g41
sbsg25
(imyEvolve
Tree
p960
(dp961
g19
I1
sg10
(imyEvolve
Tree
p962
(dp963
g19
I0
sg21
I00
sbsg25
(imyEvolve
Tree
p964
(dp965
g19
I0
sg20
F-1.3492495356731213
sg21
I01
sbsg22
I00
sg23
g54
sbsg22
I00
sg23
g41
sbsg25
(imyEvolve
Tree
p966
(dp967
g19
I2
sg10
(imyEvolve
Tree
p968
(dp969
g19
I1
sg10
(imyEvolve
Tree
p970
(dp971
g19
I0
sg21
I00
sbsg25
(imyEvolve
Tree
p972
(dp973
g19
I0
sg21
I00
sbsg22
I00
sg23
g41
sbsg25
(imyEvolve
Tree
p974
(dp975
g19
I1
sg10
(imyEvolve
Tree
p976
(dp977
g19
I0
sg20
F-3.814341821294703
sg21
I01
sbsg25
(imyEvolve
Tree
p978
(dp979
g19
I0
sg21
I00
sbsg22
I00
sg23
g41
sbsg22
I00
sg23
g54
sbsg22
I00
sg23
g30
sbsg25
(imyEvolve
Tree
p980
(dp981
g7
(imyEvolve
Tree
p982
(dp983
g7
(imyEvolve
Tree
p984
(dp985
g7
(imyEvolve
Tree
p986
(dp987
g19
I0
sg21
I00
sbsg19
I1
sg22
I01
sg23
g46
sbsg19
I2
sg22
I01
sg23
g46
sbsg19
I3
sg22
I01
sg23
g81
sbsg22
I00
sg23
g54
sba(imyEvolve
Tree
p988
(dp989
g7
(imyEvolve
Tree
p990
(dp991
g19
I2
sg10
(imyEvolve
Tree
p992
(dp993
g19
I1
sg10
(imyEvolve
Tree
p994
(dp995
g19
I0
sg21
I00
sbsg25
(imyEvolve
Tree
p996
(dp997
g19
I0
sg20
F0.2578089363533316
sg21
I01
sbsg22
I00
sg23
g30
sbsg25
(imyEvolve
Tree
p998
(dp999
g7
(imyEvolve
Tree
p1000
(dp1001
g19
I0
sg20
F-1.8258621774025698
sg21
I01
sbsg19
I1
sg22
I01
sg23
g24
sbsg22
I00
sg23
g41
sbsg19
I3
sg22
I01
sg23
g24
sba(imyEvolve
Tree
p1002
(dp1003
g10
(imyEvolve
Tree
p1004
(dp1005
g7
(imyEvolve
Tree
p1006
(dp1007
g10
(imyEvolve
Tree
p1008
(dp1009
g19
I0
sg21
I00
sbsg19
I1
sg25
(imyEvolve
Tree
p1010
(dp1011
g19
I0
sg20
F-0.02834982059538227
sg21
I01
sbsg22
I00
sg23
g41
sbsg19
I2
sg22
I01
sg23
g24
sbsg19
I3
sg25
(imyEvolve
Tree
p1012
(dp1013
g10
(imyEvolve
Tree
p1014
(dp1015
g7
(imyEvolve
Tree
p1016
(dp1017
g19
I0
sg21
I00
sbsg19
I1
sg22
I01
sg23
g81
sbsg19
I2
sg25
(imyEvolve
Tree
p1018
(dp1019
g10
(imyEvolve
Tree
p1020
(dp1021
g19
I0
sg21
I00
sbsg19
I1
sg25
(imyEvolve
Tree
p1022
(dp1023
g19
I0
sg20
F2.3351014017462726
sg21
I01
sbsg22
I00
sg23
g41
sbsg22
I00
sg23
g41
sbsg22
I00
sg23
g41
sba(imyEvolve
Tree
p1024
(dp1025
g10
(imyEvolve
Tree
p1026
(dp1027
g10
(imyEvolve
Tree
p1028
(dp1029
g7
(imyEvolve
Tree
p1030
(dp1031
g19
I0
sg20
F-3.450725471731453
sg21
I01
sbsg19
I1
sg22
I01
sg23
g81
sbsg19
I2
sg25
(imyEvolve
Tree
p1032
(dp1033
g7
(imyEvolve
Tree
p1034
(dp1035
g19
I0
sg21
I00
sbsg19
I1
sg22
I01
sg23
g53
sbsg22
I00
sg23
g54
sbsg19
I3
sg25
(imyEvolve
Tree
p1036
(dp1037
g10
(imyEvolve
Tree
p1038
(dp1039
g10
(imyEvolve
Tree
p1040
(dp1041
g19
I0
sg20
F1.7418202671002163
sg21
I01
sbsg19
I1
sg25
(imyEvolve
Tree
p1042
(dp1043
g19
I0
sg21
I00
sbsg22
I00
sg23
g30
sbsg19
I2
sg25
(imyEvolve
Tree
p1044
(dp1045
g7
(imyEvolve
Tree
p1046
(dp1047
g19
I0
sg21
I00
sbsg19
I1
sg22
I01
sg23
g24
sbsg22
I00
sg23
g30
sbsg22
I00
sg23
g30
sba(imyEvolve
Tree
p1048
(dp1049
g19
I2
sg10
(imyEvolve
Tree
p1050
(dp1051
g7
(imyEvolve
Tree
p1052
(dp1053
g19
I0
sg20
F-0.3051713349542684
sg21
I01
sbsg19
I1
sg22
I01
sg23
g46
sbsg25
(imyEvolve
Tree
p1054
(dp1055
g7
(imyEvolve
Tree
p1056
(dp1057
g19
I0
sg20
F-4.522631039971997
sg21
I01
sbsg19
I1
sg22
I01
sg23
g46
sbsg22
I00
sg23
g41
sbaasS'alpha'
p1058
F0.0036983268320204083
sS'fitness'
p1059
cnumpy.core.multiarray
scalar
p1060
(cnumpy
dtype
p1061
(S'f8'
p1062
I0
I1
tp1063
Rp1064
(I3
S'<'
p1065
NNNI-1
I-1
I0
tp1066
bS'\xf0\x85\xc9\xae\x95,\xe6?'
p1067
tp1068
Rp1069
sS'weightSharing'
p1070
(lp1071
I00
asS'fitnessValid'
p1072
I00
sS'resolution'
p1073
I65
sb.