(imyEvolve
Individual
p0
(dp1
S'funcs'
p2
(lp3
(lp4
(imyEvolve
Tree
p5
(dp6
S'below'
p7
(imyEvolve
Tree
p8
(dp9
S'left'
p10
(imyEvolve
Tree
p11
(dp12
g7
(imyEvolve
Tree
p13
(dp14
S'depth'
p15
I0
sS'isConstant'
p16
I00
sbsg15
I1
sS'single'
p17
I01
sS'op'
p18
cmyEvolve
absSqrt
p19
sbsg15
I2
sS'right'
p20
(imyEvolve
Tree
p21
(dp22
g7
(imyEvolve
Tree
p23
(dp24
g15
I0
sg16
I00
sbsg15
I1
sg17
I01
sg18
cmath
sin
p25
sbsg17
I00
sg18
coperator
sub
p26
sbsg15
I3
sg17
I01
sg18
g19
sba(imyEvolve
Tree
p27
(dp28
g10
(imyEvolve
Tree
p29
(dp30
g10
(imyEvolve
Tree
p31
(dp32
g15
I0
sg16
I00
sbsg15
I1
sg20
(imyEvolve
Tree
p33
(dp34
g15
I0
sS'constant'
p35
F2.094479066317895
sg16
I01
sbsg17
I00
sg18
coperator
add
p36
sbsg15
I2
sg20
(imyEvolve
Tree
p37
(dp38
g10
(imyEvolve
Tree
p39
(dp40
g15
I0
sg35
F-2.436449475619007
sg16
I01
sbsg15
I1
sg20
(imyEvolve
Tree
p41
(dp42
g15
I0
sg16
I00
sbsg17
I00
sg18
g36
sbsg17
I00
sg18
coperator
mul
p43
sba(imyEvolve
Tree
p44
(dp45
g7
(imyEvolve
Tree
p46
(dp47
g15
I2
sg10
(imyEvolve
Tree
p48
(dp49
g15
I1
sg10
(imyEvolve
Tree
p50
(dp51
g15
I0
sg16
I00
sbsg20
(imyEvolve
Tree
p52
(dp53
g15
I0
sg35
F-4.412862169563806
sg16
I01
sbsg17
I00
sg18
g26
sbsg20
(imyEvolve
Tree
p54
(dp55
g7
(imyEvolve
Tree
p56
(dp57
g15
I0
sg35
F-2.127157832431359
sg16
I01
sbsg15
I1
sg17
I01
sg18
g25
sbsg17
I00
sg18
g26
sbsg15
I3
sg17
I01
sg18
cmath
cos
p58
sba(imyEvolve
Tree
p59
(dp60
g10
(imyEvolve
Tree
p61
(dp62
g10
(imyEvolve
Tree
p63
(dp64
g10
(imyEvolve
Tree
p65
(dp66
g15
I0
sg16
I00
sbsg15
I1
sg20
(imyEvolve
Tree
p67
(dp68
g15
I0
sg16
I00
sbsg17
I00
sg18
g26
sbsg15
I2
sg20
(imyEvolve
Tree
p69
(dp70
g10
(imyEvolve
Tree
p71
(dp72
g15
I0
sg35
F-1.1848850667596675
sg16
I01
sbsg15
I1
sg20
(imyEvolve
Tree
p73
(dp74
g15
I0
sg16
I00
sbsg17
I00
sg18
g36
sbsg17
I00
sg18
g43
sbsg15
I3
sg20
(imyEvolve
Tree
p75
(dp76
g10
(imyEvolve
Tree
p77
(dp78
g7
(imyEvolve
Tree
p79
(dp80
g15
I0
sg16
I00
sbsg15
I1
sg17
I01
sg18
g25
sbsg15
I2
sg20
(imyEvolve
Tree
p81
(dp82
g7
(imyEvolve
Tree
p83
(dp84
g15
I0
sg16
I00
sbsg15
I1
sg17
I01
sg18
g25
sbsg17
I00
sg18
g26
sbsg17
I00
sg18
g36
sba(imyEvolve
Tree
p85
(dp86
g10
(imyEvolve
Tree
p87
(dp88
g7
(imyEvolve
Tree
p89
(dp90
g7
(imyEvolve
Tree
p91
(dp92
g15
I0
sg16
I00
sbsg15
I1
sg17
I01
sg18
cmyEvolve
square
p93
sbsg15
I2
sg17
I01
sg18
g19
sbsg15
I3
sg20
(imyEvolve
Tree
p94
(dp95
g10
(imyEvolve
Tree
p96
(dp97
g7
(imyEvolve
Tree
p98
(dp99
g15
I0
sg16
I00
sbsg15
I1
sg17
I01
sg18
g19
sbsg15
I2
sg20
(imyEvolve
Tree
p100
(dp101
g10
(imyEvolve
Tree
p102
(dp103
g15
I0
sg16
I00
sbsg15
I1
sg20
(imyEvolve
Tree
p104
(dp105
g15
I0
sg35
F-1.1608927083942042
sg16
I01
sbsg17
I00
sg18
g26
sbsg17
I00
sg18
g26
sbsg17
I00
sg18
g43
sba(imyEvolve
Tree
p106
(dp107
g7
(imyEvolve
Tree
p108
(dp109
g10
(imyEvolve
Tree
p110
(dp111
g10
(imyEvolve
Tree
p112
(dp113
g7
(imyEvolve
Tree
p114
(dp115
g7
(imyEvolve
Tree
p116
(dp117
g15
I0
sg35
F-0.21640550541881964
sg16
I01
sbsg15
I1
sg17
I01
sg18
g58
sbsg15
I2
sg17
I01
sg18
g19
sbsg15
I3
sg20
(imyEvolve
Tree
p118
(dp119
g7
(imyEvolve
Tree
p120
(dp121
g7
(imyEvolve
Tree
p122
(dp123
g15
I0
sg35
F4.189804943670252
sg16
I01
sbsg15
I1
sg17
I01
sg18
g19
sbsg15
I2
sg17
I01
sg18
g58
sbsg17
I00
sg18
g36
sbsg15
I4
sg20
(imyEvolve
Tree
p124
(dp125
g7
(imyEvolve
Tree
p126
(dp127
g10
(imyEvolve
Tree
p128
(dp129
g10
(imyEvolve
Tree
p130
(dp131
g15
I0
sg35
F-0.42110337692014443
sg16
I01
sbsg15
I1
sg20
(imyEvolve
Tree
p132
(dp133
g15
I0
sg16
I00
sbsg17
I00
sg18
g43
sbsg15
I2
sg20
(imyEvolve
Tree
p134
(dp135
g10
(imyEvolve
Tree
p136
(dp137
g15
I0
sg35
F2.174813463627099
sg16
I01
sbsg15
I1
sg20
(imyEvolve
Tree
p138
(dp139
g15
I0
sg16
I00
sbsg17
I00
sg18
g36
sbsg17
I00
sg18
g36
sbsg15
I3
sg17
I01
sg18
g93
sbsg17
I00
sg18
g43
sbsg15
I5
sg17
I01
sg18
g19
sba(imyEvolve
Tree
p140
(dp141
g7
(imyEvolve
Tree
p142
(dp143
g10
(imyEvolve
Tree
p144
(dp145
g10
(imyEvolve
Tree
p146
(dp147
g10
(imyEvolve
Tree
p148
(dp149
g15
I0
sg35
F-3.708706885759232
sg16
I01
sbsg15
I1
sg20
(imyEvolve
Tree
p150
(dp151
g15
I0
sg16
I00
sbsg17
I00
sg18
g36
sbsg15
I2
sg20
(imyEvolve
Tree
p152
(dp153
g10
(imyEvolve
Tree
p154
(dp155
g15
I0
sg16
I00
sbsg15
I1
sg20
(imyEvolve
Tree
p156
(dp157
g15
I0
sg16
I00
sbsg17
I00
sg18
g36
sbsg17
I00
sg18
g43
sbsg15
I3
sg20
(imyEvolve
Tree
p158
(dp159
g7
(imyEvolve
Tree
p160
(dp161
g7
(imyEvolve
Tree
p162
(dp163
g15
I0
sg35
F2.741288991206935
sg16
I01
sbsg15
I1
sg17
I01
sg18
g25
sbsg15
I2
sg17
I01
sg18
g58
sbsg17
I00
sg18
g43
sbsg15
I4
sg17
I01
sg18
g93
sba(imyEvolve
Tree
p164
(dp165
g7
(imyEvolve
Tree
p166
(dp167
g7
(imyEvolve
Tree
p168
(dp169
g7
(imyEvolve
Tree
p170
(dp171
g7
(imyEvolve
Tree
p172
(dp173
g15
I0
sg16
I00
sbsg15
I1
sg17
I01
sg18
g93
sbsg15
I2
sg17
I01
sg18
g25
sbsg15
I3
sg17
I01
sg18
g25
sbsg15
I4
sg17
I01
sg18
g58
sba(imyEvolve
Tree
p174
(dp175
g10
(imyEvolve
Tree
p176
(dp177
g7
(imyEvolve
Tree
p178
(dp179
g10
(imyEvolve
Tree
p180
(dp181
g10
(imyEvolve
Tree
p182
(dp183
g15
I0
sg35
F1.8350864855726314
sg16
I01
sbsg15
I1
sg20
(imyEvolve
Tree
p184
(dp185
g15
I0
sg35
F-3.0034564982267264
sg16
I01
sbsg17
I00
sg18
g36
sbsg15
I2
sg20
(imyEvolve
Tree
p186
(dp187
g10
(imyEvolve
Tree
p188
(dp189
g15
I0
sg35
F-0.46726028503963946
sg16
I01
sbsg15
I1
sg20
(imyEvolve
Tree
p190
(dp191
g15
I0
sg35
F-1.3072025904848958
sg16
I01
sbsg17
I00
sg18
g43
sbsg17
I00
sg18
g43
sbsg15
I3
sg17
I01
sg18
g19
sbsg15
I4
sg20
(imyEvolve
Tree
p192
(dp193
g10
(imyEvolve
Tree
p194
(dp195
g10
(imyEvolve
Tree
p196
(dp197
g7
(imyEvolve
Tree
p198
(dp199
g15
I0
sg35
F-3.047439035591247
sg16
I01
sbsg15
I1
sg17
I01
sg18
g25
sbsg15
I2
sg20
(imyEvolve
Tree
p200
(dp201
g7
(imyEvolve
Tree
p202
(dp203
g15
I0
sg35
F-4.147117588052968
sg16
I01
sbsg15
I1
sg17
I01
sg18
g58
sbsg17
I00
sg18
g36
sbsg15
I3
sg20
(imyEvolve
Tree
p204
(dp205
g10
(imyEvolve
Tree
p206
(dp207
g10
(imyEvolve
Tree
p208
(dp209
g15
I0
sg35
F-2.2769031731218723
sg16
I01
sbsg15
I1
sg20
(imyEvolve
Tree
p210
(dp211
g15
I0
sg16
I00
sbsg17
I00
sg18
g26
sbsg15
I2
sg20
(imyEvolve
Tree
p212
(dp213
g7
(imyEvolve
Tree
p214
(dp215
g15
I0
sg16
I00
sbsg15
I1
sg17
I01
sg18
g93
sbsg17
I00
sg18
g26
sbsg17
I00
sg18
g36
sbsg17
I00
sg18
g43
sba(imyEvolve
Tree
p216
(dp217
g7
(imyEvolve
Tree
p218
(dp219
g7
(imyEvolve
Tree
p220
(dp221
g7
(imyEvolve
Tree
p222
(dp223
g15
I0
sg16
I00
sbsg15
I1
sg17
I01
sg18
g25
sbsg15
I2
sg17
I01
sg18
g19
sbsg15
I3
sg17
I01
sg18
g19
sba(imyEvolve
Tree
p224
(dp225
g7
(imyEvolve
Tree
p226
(dp227
g10
(imyEvolve
Tree
p228
(dp229
g15
I0
sg16
I00
sbsg15
I1
sg20
(imyEvolve
Tree
p230
(dp231
g15
I0
sg16
I00
sbsg17
I00
sg18
g43
sbsg15
I2
sg17
I01
sg18
g25
sba(imyEvolve
Tree
p232
(dp233
g7
(imyEvolve
Tree
p234
(dp235
g7
(imyEvolve
Tree
p236
(dp237
g7
(imyEvolve
Tree
p238
(dp239
g7
(imyEvolve
Tree
p240
(dp241
g15
I0
sg35
F-2.3807552443199063
sg16
I01
sbsg15
I1
sg17
I01
sg18
g19
sbsg15
I2
sg17
I01
sg18
g25
sbsg15
I3
sg17
I01
sg18
g58
sbsg15
I4
sg17
I01
sg18
g25
sba(imyEvolve
Tree
p242
(dp243
g7
(imyEvolve
Tree
p244
(dp245
g7
(imyEvolve
Tree
p246
(dp247
g15
I0
sg35
F-0.6539168139617226
sg16
I01
sbsg15
I1
sg17
I01
sg18
g19
sbsg15
I2
sg17
I01
sg18
g58
sbaa(lp248
(imyEvolve
Tree
p249
(dp250
g7
(imyEvolve
Tree
p251
(dp252
g15
I3
sg10
(imyEvolve
Tree
p253
(dp254
g15
I2
sg10
(imyEvolve
Tree
p255
(dp256
g15
I1
sg10
(imyEvolve
Tree
p257
(dp258
g15
I0
sg16
I00
sbsg20
(imyEvolve
Tree
p259
(dp260
g15
I0
sg16
I00
sbsg17
I00
sg18
g43
sbsg20
(imyEvolve
Tree
p261
(dp262
g15
I1
sg10
(imyEvolve
Tree
p263
(dp264
g15
I0
sg16
I00
sbsg20
(imyEvolve
Tree
p265
(dp266
g15
I0
sg16
I00
sbsg17
I00
sg18
g43
sbsg17
I00
sg18
g43
sbsg20
(imyEvolve
Tree
p267
(dp268
g7
(imyEvolve
Tree
p269
(dp270
g15
I1
sg10
(imyEvolve
Tree
p271
(dp272
g15
I0
sg16
I00
sbsg20
(imyEvolve
Tree
p273
(dp274
g15
I0
sg35
F3.5623386097290286
sg16
I01
sbsg17
I00
sg18
g43
sbsg15
I2
sg17
I01
sg18
g19
sbsg17
I00
sg18
g36
sbsg15
I4
sg17
I01
sg18
g58
sba(imyEvolve
Tree
p275
(dp276
g7
(imyEvolve
Tree
p277
(dp278
g10
(imyEvolve
Tree
p279
(dp280
g7
(imyEvolve
Tree
p281
(dp282
g7
(imyEvolve
Tree
p283
(dp284
g10
(imyEvolve
Tree
p285
(dp286
g15
I0
sg35
F2.614108993147531
sg16
I01
sbsg15
I1
sg20
(imyEvolve
Tree
p287
(dp288
g15
I0
sg35
F-1.2425068391727434
sg16
I01
sbsg17
I00
sg18
g43
sbsg15
I2
sg17
I01
sg18
g19
sbsg15
I3
sg17
I01
sg18
g25
sbsg15
I4
sg20
(imyEvolve
Tree
p289
(dp290
g7
(imyEvolve
Tree
p291
(dp292
g7
(imyEvolve
Tree
p293
(dp294
g10
(imyEvolve
Tree
p295
(dp296
g15
I0
sg16
I00
sbsg15
I1
sg20
(imyEvolve
Tree
p297
(dp298
g15
I0
sg35
F-4.684047032647596
sg16
I01
sbsg17
I00
sg18
g26
sbsg15
I2
sg17
I01
sg18
g25
sbsg15
I3
sg17
I01
sg18
g19
sbsg17
I00
sg18
g26
sbsg15
I5
sg17
I01
sg18
g25
sba(imyEvolve
Tree
p299
(dp300
g10
(imyEvolve
Tree
p301
(dp302
g10
(imyEvolve
Tree
p303
(dp304
g10
(imyEvolve
Tree
p305
(dp306
g15
I0
sg16
I00
sbsg15
I1
sg20
(imyEvolve
Tree
p307
(dp308
g15
I0
sg35
F2.990293128824457
sg16
I01
sbsg17
I00
sg18
g43
sbsg15
I2
sg20
(imyEvolve
Tree
p309
(dp310
g10
(imyEvolve
Tree
p311
(dp312
g15
I0
sg16
I00
sbsg15
I1
sg20
(imyEvolve
Tree
p313
(dp314
g15
I0
sg35
F4.9090558008745635
sg16
I01
sbsg17
I00
sg18
g43
sbsg17
I00
sg18
g36
sbsg15
I3
sg20
(imyEvolve
Tree
p315
(dp316
g10
(imyEvolve
Tree
p317
(dp318
g7
(imyEvolve
Tree
p319
(dp320
g15
I0
sg35
F1.2555744269221014
sg16
I01
sbsg15
I1
sg17
I01
sg18
g25
sbsg15
I2
sg20
(imyEvolve
Tree
p321
(dp322
g7
(imyEvolve
Tree
p323
(dp324
g15
I0
sg16
I00
sbsg15
I1
sg17
I01
sg18
g25
sbsg17
I00
sg18
g43
sbsg17
I00
sg18
g36
sba(imyEvolve
Tree
p325
(dp326
g7
(imyEvolve
Tree
p327
(dp328
g7
(imyEvolve
Tree
p329
(dp330
g7
(imyEvolve
Tree
p331
(dp332
g15
I2
sg10
(imyEvolve
Tree
p333
(dp334
g7
(imyEvolve
Tree
p335
(dp336
g15
I0
sg16
I00
sbsg15
I1
sg17
I01
sg18
g58
sbsg20
(imyEvolve
Tree
p337
(dp338
g7
(imyEvolve
Tree
p339
(dp340
g15
I0
sg16
I00
sbsg15
I1
sg17
I01
sg18
g25
sbsg17
I00
sg18
g43
sbsg15
I3
sg17
I01
sg18
g93
sbsg15
I4
sg17
I01
sg18
g25
sbsg15
I5
sg17
I01
sg18
g93
sba(imyEvolve
Tree
p341
(dp342
g7
(imyEvolve
Tree
p343
(dp344
g7
(imyEvolve
Tree
p345
(dp346
g7
(imyEvolve
Tree
p347
(dp348
g15
I0
sg16
I00
sbsg15
I1
sg17
I01
sg18
g58
sbsg15
I2
sg17
I01
sg18
g19
sbsg15
I3
sg17
I01
sg18
g19
sba(imyEvolve
Tree
p349
(dp350
g7
(imyEvolve
Tree
p351
(dp352
g15
I2
sg10
(imyEvolve
Tree
p353
(dp354
g7
(imyEvolve
Tree
p355
(dp356
g15
I0
sg35
F-0.831976521207193
sg16
I01
sbsg15
I1
sg17
I01
sg18
g19
sbsg20
(imyEvolve
Tree
p357
(dp358
g7
(imyEvolve
Tree
p359
(dp360
g15
I0
sg35
F0.41298664989264644
sg16
I01
sbsg15
I1
sg17
I01
sg18
g19
sbsg17
I00
sg18
g36
sbsg15
I3
sg17
I01
sg18
g58
sba(imyEvolve
Tree
p361
(dp362
g7
(imyEvolve
Tree
p363
(dp364
g7
(imyEvolve
Tree
p365
(dp366
g7
(imyEvolve
Tree
p367
(dp368
g15
I0
sg16
I00
sbsg15
I1
sg17
I01
sg18
g25
sbsg15
I2
sg17
I01
sg18
g19
sbsg15
I3
sg17
I01
sg18
g25
sba(imyEvolve
Tree
p369
(dp370
g10
(imyEvolve
Tree
p371
(dp372
g10
(imyEvolve
Tree
p373
(dp374
g10
(imyEvolve
Tree
p375
(dp376
g7
(imyEvolve
Tree
p377
(dp378
g7
(imyEvolve
Tree
p379
(dp380
g15
I0
sg16
I00
sbsg15
I1
sg17
I01
sg18
g25
sbsg15
I2
sg17
I01
sg18
g58
sbsg15
I3
sg20
(imyEvolve
Tree
p381
(dp382
g7
(imyEvolve
Tree
p383
(dp384
g10
(imyEvolve
Tree
p385
(dp386
g15
I0
sg35
F-1.240229286136889
sg16
I01
sbsg15
I1
sg20
(imyEvolve
Tree
p387
(dp388
g15
I0
sg35
F-1.6876441099316963
sg16
I01
sbsg17
I00
sg18
g36
sbsg15
I2
sg17
I01
sg18
g19
sbsg17
I00
sg18
g36
sbsg15
I4
sg20
(imyEvolve
Tree
p389
(dp390
g7
(imyEvolve
Tree
p391
(dp392
g7
(imyEvolve
Tree
p393
(dp394
g10
(imyEvolve
Tree
p395
(dp396
g15
I0
sg35
F2.3178851560157074
sg16
I01
sbsg15
I1
sg20
(imyEvolve
Tree
p397
(dp398
g15
I0
sg35
F3.3761057168468263
sg16
I01
sbsg17
I00
sg18
g26
sbsg15
I2
sg17
I01
sg18
g19
sbsg15
I3
sg17
I01
sg18
g19
sbsg17
I00
sg18
g26
sbsg15
I5
sg20
(imyEvolve
Tree
p399
(dp400
g10
(imyEvolve
Tree
p401
(dp402
g7
(imyEvolve
Tree
p403
(dp404
g7
(imyEvolve
Tree
p405
(dp406
g7
(imyEvolve
Tree
p407
(dp408
g15
I0
sg35
F0.31604404884666515
sg16
I01
sbsg15
I1
sg17
I01
sg18
g58
sbsg15
I2
sg17
I01
sg18
g25
sbsg15
I3
sg17
I01
sg18
g19
sbsg15
I4
sg20
(imyEvolve
Tree
p409
(dp410
g7
(imyEvolve
Tree
p411
(dp412
g7
(imyEvolve
Tree
p413
(dp414
g10
(imyEvolve
Tree
p415
(dp416
g15
I0
sg16
I00
sbsg15
I1
sg20
(imyEvolve
Tree
p417
(dp418
g15
I0
sg16
I00
sbsg17
I00
sg18
g26
sbsg15
I2
sg17
I01
sg18
g19
sbsg15
I3
sg17
I01
sg18
g58
sbsg17
I00
sg18
g26
sbsg17
I00
sg18
g43
sba(imyEvolve
Tree
p419
(dp420
g10
(imyEvolve
Tree
p421
(dp422
g7
(imyEvolve
Tree
p423
(dp424
g15
I0
sg35
F0.5955304716844445
sg16
I01
sbsg15
I1
sg17
I01
sg18
g58
sbsg15
I2
sg20
(imyEvolve
Tree
p425
(dp426
g7
(imyEvolve
Tree
p427
(dp428
g15
I0
sg35
F3.624182451095665
sg16
I01
sbsg15
I1
sg17
I01
sg18
g58
sbsg17
I00
sg18
g26
sba(imyEvolve
Tree
p429
(dp430
g7
(imyEvolve
Tree
p431
(dp432
g10
(imyEvolve
Tree
p433
(dp434
g10
(imyEvolve
Tree
p435
(dp436
g10
(imyEvolve
Tree
p437
(dp438
g7
(imyEvolve
Tree
p439
(dp440
g15
I0
sg35
F3.697586480831692
sg16
I01
sbsg15
I1
sg17
I01
sg18
g19
sbsg15
I2
sg20
(imyEvolve
Tree
p441
(dp442
g10
(imyEvolve
Tree
p443
(dp444
g15
I0
sg35
F0.5143511989658132
sg16
I01
sbsg15
I1
sg20
(imyEvolve
Tree
p445
(dp446
g15
I0
sg16
I00
sbsg17
I00
sg18
g26
sbsg17
I00
sg18
g43
sbsg15
I3
sg20
(imyEvolve
Tree
p447
(dp448
g10
(imyEvolve
Tree
p449
(dp450
g10
(imyEvolve
Tree
p451
(dp452
g15
I0
sg16
I00
sbsg15
I1
sg20
(imyEvolve
Tree
p453
(dp454
g15
I0
sg35
F0.9996839117788863
sg16
I01
sbsg17
I00
sg18
g36
sbsg15
I2
sg20
(imyEvolve
Tree
p455
(dp456
g7
(imyEvolve
Tree
p457
(dp458
g15
I0
sg16
I00
sbsg15
I1
sg17
I01
sg18
g93
sbsg17
I00
sg18
g26
sbsg17
I00
sg18
g36
sbsg15
I4
sg20
(imyEvolve
Tree
p459
(dp460
g7
(imyEvolve
Tree
p461
(dp462
g10
(imyEvolve
Tree
p463
(dp464
g7
(imyEvolve
Tree
p465
(dp466
g15
I0
sg35
F0.07527355194029184
sg16
I01
sbsg15
I1
sg17
I01
sg18
g25
sbsg15
I2
sg20
(imyEvolve
Tree
p467
(dp468
g7
(imyEvolve
Tree
p469
(dp470
g15
I0
sg16
I00
sbsg15
I1
sg17
I01
sg18
g93
sbsg17
I00
sg18
g36
sbsg15
I3
sg17
I01
sg18
g19
sbsg17
I00
sg18
g26
sbsg15
I5
sg17
I01
sg18
g19
sba(imyEvolve
Tree
p471
(dp472
g10
(imyEvolve
Tree
p473
(dp474
g10
(imyEvolve
Tree
p475
(dp476
g7
(imyEvolve
Tree
p477
(dp478
g15
I0
sg16
I00
sbsg15
I1
sg17
I01
sg18
g58
sbsg15
I2
sg20
(imyEvolve
Tree
p479
(dp480
g10
(imyEvolve
Tree
p481
(dp482
g15
I0
sg35
F3.4420438171397425
sg16
I01
sbsg15
I1
sg20
(imyEvolve
Tree
p483
(dp484
g15
I0
sg16
I00
sbsg17
I00
sg18
g26
sbsg17
I00
sg18
g43
sbsg15
I3
sg20
(imyEvolve
Tree
p485
(dp486
g10
(imyEvolve
Tree
p487
(dp488
g10
(imyEvolve
Tree
p489
(dp490
g15
I0
sg16
I00
sbsg15
I1
sg20
(imyEvolve
Tree
p491
(dp492
g15
I0
sg16
I00
sbsg17
I00
sg18
g26
sbsg15
I2
sg20
(imyEvolve
Tree
p493
(dp494
g7
(imyEvolve
Tree
p495
(dp496
g15
I0
sg35
F-3.405643021607742
sg16
I01
sbsg15
I1
sg17
I01
sg18
g58
sbsg17
I00
sg18
g36
sbsg17
I00
sg18
g36
sba(imyEvolve
Tree
p497
(dp498
g15
I2
sg10
(imyEvolve
Tree
p499
(dp500
g7
(imyEvolve
Tree
p501
(dp502
g15
I0
sg35
F-1.8839214692057626
sg16
I01
sbsg15
I1
sg17
I01
sg18
g19
sbsg20
(imyEvolve
Tree
p503
(dp504
g15
I1
sg10
(imyEvolve
Tree
p505
(dp506
g15
I0
sg35
F4.616819218742025
sg16
I01
sbsg20
(imyEvolve
Tree
p507
(dp508
g15
I0
sg16
I00
sbsg17
I00
sg18
g43
sbsg17
I00
sg18
g43
sba(imyEvolve
Tree
p509
(dp510
g7
(imyEvolve
Tree
p511
(dp512
g10
(imyEvolve
Tree
p513
(dp514
g10
(imyEvolve
Tree
p515
(dp516
g7
(imyEvolve
Tree
p517
(dp518
g15
I0
sg16
I00
sbsg15
I1
sg17
I01
sg18
g93
sbsg15
I2
sg20
(imyEvolve
Tree
p519
(dp520
g7
(imyEvolve
Tree
p521
(dp522
g15
I0
sg35
F-1.4685759705920698
sg16
I01
sbsg15
I1
sg17
I01
sg18
g58
sbsg17
I00
sg18
g36
sbsg15
I3
sg20
(imyEvolve
Tree
p523
(dp524
g7
(imyEvolve
Tree
p525
(dp526
g10
(imyEvolve
Tree
p527
(dp528
g15
I0
sg16
I00
sbsg15
I1
sg20
(imyEvolve
Tree
p529
(dp530
g15
I0
sg35
F1.4144764119125695
sg16
I01
sbsg17
I00
sg18
g26
sbsg15
I2
sg17
I01
sg18
g58
sbsg17
I00
sg18
g36
sbsg15
I4
sg17
I01
sg18
g93
sba(imyEvolve
Tree
p531
(dp532
g7
(imyEvolve
Tree
p533
(dp534
g7
(imyEvolve
Tree
p535
(dp536
g7
(imyEvolve
Tree
p537
(dp538
g10
(imyEvolve
Tree
p539
(dp540
g7
(imyEvolve
Tree
p541
(dp542
g15
I0
sg35
F-0.9498957414187341
sg16
I01
sbsg15
I1
sg17
I01
sg18
g58
sbsg15
I2
sg20
(imyEvolve
Tree
p543
(dp544
g7
(imyEvolve
Tree
p545
(dp546
g15
I0
sg35
F-2.071042229581983
sg16
I01
sbsg15
I1
sg17
I01
sg18
g25
sbsg17
I00
sg18
g43
sbsg15
I3
sg17
I01
sg18
g58
sbsg15
I4
sg17
I01
sg18
g19
sbsg15
I5
sg17
I01
sg18
g93
sba(imyEvolve
Tree
p547
(dp548
g10
(imyEvolve
Tree
p549
(dp550
g10
(imyEvolve
Tree
p551
(dp552
g7
(imyEvolve
Tree
p553
(dp554
g10
(imyEvolve
Tree
p555
(dp556
g10
(imyEvolve
Tree
p557
(dp558
g15
I0
sg16
I00
sbsg15
I1
sg20
(imyEvolve
Tree
p559
(dp560
g15
I0
sg16
I00
sbsg17
I00
sg18
g36
sbsg15
I2
sg20
(imyEvolve
Tree
p561
(dp562
g10
(imyEvolve
Tree
p563
(dp564
g15
I0
sg16
I00
sbsg15
I1
sg20
(imyEvolve
Tree
p565
(dp566
g15
I0
sg16
I00
sbsg17
I00
sg18
g36
sbsg17
I00
sg18
g26
sbsg15
I3
sg17
I01
sg18
g19
sbsg15
I4
sg20
(imyEvolve
Tree
p567
(dp568
g10
(imyEvolve
Tree
p569
(dp570
g7
(imyEvolve
Tree
p571
(dp572
g10
(imyEvolve
Tree
p573
(dp574
g15
I0
sg16
I00
sbsg15
I1
sg20
(imyEvolve
Tree
p575
(dp576
g15
I0
sg16
I00
sbsg17
I00
sg18
g26
sbsg15
I2
sg17
I01
sg18
g58
sbsg15
I3
sg20
(imyEvolve
Tree
p577
(dp578
g10
(imyEvolve
Tree
p579
(dp580
g10
(imyEvolve
Tree
p581
(dp582
g15
I0
sg35
F-2.4102431878276906
sg16
I01
sbsg15
I1
sg20
(imyEvolve
Tree
p583
(dp584
g15
I0
sg16
I00
sbsg17
I00
sg18
g36
sbsg15
I2
sg20
(imyEvolve
Tree
p585
(dp586
g10
(imyEvolve
Tree
p587
(dp588
g15
I0
sg35
F-3.421561858880505
sg16
I01
sbsg15
I1
sg20
(imyEvolve
Tree
p589
(dp590
g15
I0
sg35
F1.5368872836073786
sg16
I01
sbsg17
I00
sg18
g43
sbsg17
I00
sg18
g26
sbsg17
I00
sg18
g36
sbsg17
I00
sg18
g36
sbsg15
I5
sg20
(imyEvolve
Tree
p591
(dp592
g7
(imyEvolve
Tree
p593
(dp594
g10
(imyEvolve
Tree
p595
(dp596
g10
(imyEvolve
Tree
p597
(dp598
g7
(imyEvolve
Tree
p599
(dp600
g15
I0
sg35
F-2.077716268761888
sg16
I01
sbsg15
I1
sg17
I01
sg18
g25
sbsg15
I2
sg20
(imyEvolve
Tree
p601
(dp602
g10
(imyEvolve
Tree
p603
(dp604
g15
I0
sg16
I00
sbsg15
I1
sg20
(imyEvolve
Tree
p605
(dp606
g15
I0
sg35
F1.6207186343718973
sg16
I01
sbsg17
I00
sg18
g26
sbsg17
I00
sg18
g43
sbsg15
I3
sg20
(imyEvolve
Tree
p607
(dp608
g10
(imyEvolve
Tree
p609
(dp610
g10
(imyEvolve
Tree
p611
(dp612
g15
I0
sg16
I00
sbsg15
I1
sg20
(imyEvolve
Tree
p613
(dp614
g15
I0
sg16
I00
sbsg17
I00
sg18
g36
sbsg15
I2
sg20
(imyEvolve
Tree
p615
(dp616
g10
(imyEvolve
Tree
p617
(dp618
g15
I0
sg16
I00
sbsg15
I1
sg20
(imyEvolve
Tree
p619
(dp620
g15
I0
sg35
F-4.089960714817754
sg16
I01
sbsg17
I00
sg18
g36
sbsg17
I00
sg18
g36
sbsg17
I00
sg18
g43
sbsg15
I4
sg17
I01
sg18
g93
sbsg17
I00
sg18
g26
sba(imyEvolve
Tree
p621
(dp622
g7
(imyEvolve
Tree
p623
(dp624
g10
(imyEvolve
Tree
p625
(dp626
g10
(imyEvolve
Tree
p627
(dp628
g10
(imyEvolve
Tree
p629
(dp630
g15
I0
sg16
I00
sbsg15
I1
sg20
(imyEvolve
Tree
p631
(dp632
g15
I0
sg35
F-3.1728552362278517
sg16
I01
sbsg17
I00
sg18
g36
sbsg15
I2
sg20
(imyEvolve
Tree
p633
(dp634
g10
(imyEvolve
Tree
p635
(dp636
g15
I0
sg16
I00
sbsg15
I1
sg20
(imyEvolve
Tree
p637
(dp638
g15
I0
sg35
F1.8388820017201146
sg16
I01
sbsg17
I00
sg18
g43
sbsg17
I00
sg18
g36
sbsg15
I3
sg20
(imyEvolve
Tree
p639
(dp640
g7
(imyEvolve
Tree
p641
(dp642
g10
(imyEvolve
Tree
p643
(dp644
g15
I0
sg16
I00
sbsg15
I1
sg20
(imyEvolve
Tree
p645
(dp646
g15
I0
sg35
F0.5987293816904158
sg16
I01
sbsg17
I00
sg18
g43
sbsg15
I2
sg17
I01
sg18
g25
sbsg17
I00
sg18
g43
sbsg15
I4
sg17
I01
sg18
g25
sba(imyEvolve
Tree
p647
(dp648
g7
(imyEvolve
Tree
p649
(dp650
g7
(imyEvolve
Tree
p651
(dp652
g10
(imyEvolve
Tree
p653
(dp654
g10
(imyEvolve
Tree
p655
(dp656
g7
(imyEvolve
Tree
p657
(dp658
g15
I0
sg16
I00
sbsg15
I1
sg17
I01
sg18
g93
sbsg15
I2
sg20
(imyEvolve
Tree
p659
(dp660
g10
(imyEvolve
Tree
p661
(dp662
g15
I0
sg35
F2.3817589044586738
sg16
I01
sbsg15
I1
sg20
(imyEvolve
Tree
p663
(dp664
g15
I0
sg16
I00
sbsg17
I00
sg18
g36
sbsg17
I00
sg18
g26
sbsg15
I3
sg20
(imyEvolve
Tree
p665
(dp666
g7
(imyEvolve
Tree
p667
(dp668
g10
(imyEvolve
Tree
p669
(dp670
g15
I0
sg16
I00
sbsg15
I1
sg20
(imyEvolve
Tree
p671
(dp672
g15
I0
sg35
F3.6685387771237696
sg16
I01
sbsg17
I00
sg18
g26
sbsg15
I2
sg17
I01
sg18
g25
sbsg17
I00
sg18
g36
sbsg15
I4
sg17
I01
sg18
g58
sbsg15
I5
sg17
I01
sg18
g25
sbaa(lp673
(imyEvolve
Tree
p674
(dp675
g10
(imyEvolve
Tree
p676
(dp677
g10
(imyEvolve
Tree
p678
(dp679
g15
I0
sg35
F-0.5843394252735781
sg16
I01
sbsg15
I1
sg20
(imyEvolve
Tree
p680
(dp681
g15
I0
sg16
I00
sbsg17
I00
sg18
g43
sbsg15
I2
sg20
(imyEvolve
Tree
p682
(dp683
g7
(imyEvolve
Tree
p684
(dp685
g15
I0
sg16
I00
sbsg15
I1
sg17
I01
sg18
g25
sbsg17
I00
sg18
g36
sba(imyEvolve
Tree
p686
(dp687
g7
(imyEvolve
Tree
p688
(dp689
g10
(imyEvolve
Tree
p690
(dp691
g15
I0
sg16
I00
sbsg15
I1
sg20
(imyEvolve
Tree
p692
(dp693
g15
I0
sg35
F-2.831558952170503
sg16
I01
sbsg17
I00
sg18
g43
sbsg15
I2
sg17
I01
sg18
g19
sba(imyEvolve
Tree
p694
(dp695
g15
I5
sg10
(imyEvolve
Tree
p696
(dp697
g7
(imyEvolve
Tree
p698
(dp699
g7
(imyEvolve
Tree
p700
(dp701
g7
(imyEvolve
Tree
p702
(dp703
g15
I1
sg10
(imyEvolve
Tree
p704
(dp705
g15
I0
sg35
F-2.5845702416936014
sg16
I01
sbsg20
(imyEvolve
Tree
p706
(dp707
g15
I0
sg16
I00
sbsg17
I00
sg18
g26
sbsg15
I2
sg17
I01
sg18
g19
sbsg15
I3
sg17
I01
sg18
g25
sbsg15
I4
sg17
I01
sg18
g58
sbsg20
(imyEvolve
Tree
p708
(dp709
g7
(imyEvolve
Tree
p710
(dp711
g7
(imyEvolve
Tree
p712
(dp713
g15
I2
sg10
(imyEvolve
Tree
p714
(dp715
g15
I1
sg10
(imyEvolve
Tree
p716
(dp717
g15
I0
sg35
F3.7065072813450524
sg16
I01
sbsg20
(imyEvolve
Tree
p718
(dp719
g15
I0
sg16
I00
sbsg17
I00
sg18
g26
sbsg20
(imyEvolve
Tree
p720
(dp721
g7
(imyEvolve
Tree
p722
(dp723
g15
I0
sg35
F0.5994755670382617
sg16
I01
sbsg15
I1
sg17
I01
sg18
g93
sbsg17
I00
sg18
g26
sbsg15
I3
sg17
I01
sg18
g25
sbsg15
I4
sg17
I01
sg18
g93
sbsg17
I00
sg18
g43
sba(imyEvolve
Tree
p724
(dp725
g10
(imyEvolve
Tree
p726
(dp727
g7
(imyEvolve
Tree
p728
(dp729
g15
I0
sg35
F4.947777101668791
sg16
I01
sbsg15
I1
sg17
I01
sg18
g25
sbsg15
I2
sg20
(imyEvolve
Tree
p730
(dp731
g10
(imyEvolve
Tree
p732
(dp733
g15
I0
sg16
I00
sbsg15
I1
sg20
(imyEvolve
Tree
p734
(dp735
g15
I0
sg35
F2.4518456031410647
sg16
I01
sbsg17
I00
sg18
g43
sbsg17
I00
sg18
g36
sba(imyEvolve
Tree
p736
(dp737
g7
(imyEvolve
Tree
p738
(dp739
g7
(imyEvolve
Tree
p740
(dp741
g10
(imyEvolve
Tree
p742
(dp743
g10
(imyEvolve
Tree
p744
(dp745
g7
(imyEvolve
Tree
p746
(dp747
g15
I0
sg35
F2.5926218817362425
sg16
I01
sbsg15
I1
sg17
I01
sg18
g93
sbsg15
I2
sg20
(imyEvolve
Tree
p748
(dp749
g7
(imyEvolve
Tree
p750
(dp751
g15
I0
sg35
F-0.45959643209134704
sg16
I01
sbsg15
I1
sg17
I01
sg18
g93
sbsg17
I00
sg18
g43
sbsg15
I3
sg20
(imyEvolve
Tree
p752
(dp753
g10
(imyEvolve
Tree
p754
(dp755
g10
(imyEvolve
Tree
p756
(dp757
g15
I0
sg35
F-4.361364717395535
sg16
I01
sbsg15
I1
sg20
(imyEvolve
Tree
p758
(dp759
g15
I0
sg35
F1.7752490353528056
sg16
I01
sbsg17
I00
sg18
g43
sbsg15
I2
sg20
(imyEvolve
Tree
p760
(dp761
g10
(imyEvolve
Tree
p762
(dp763
g15
I0
sg35
F0.43599663260302624
sg16
I01
sbsg15
I1
sg20
(imyEvolve
Tree
p764
(dp765
g15
I0
sg35
F0.44715213863757786
sg16
I01
sbsg17
I00
sg18
g26
sbsg17
I00
sg18
g26
sbsg17
I00
sg18
g26
sbsg15
I4
sg17
I01
sg18
g19
sbsg15
I5
sg17
I01
sg18
g25
sba(imyEvolve
Tree
p766
(dp767
g10
(imyEvolve
Tree
p768
(dp769
g7
(imyEvolve
Tree
p770
(dp771
g7
(imyEvolve
Tree
p772
(dp773
g10
(imyEvolve
Tree
p774
(dp775
g7
(imyEvolve
Tree
p776
(dp777
g15
I0
sg35
F-4.083010619636087
sg16
I01
sbsg15
I1
sg17
I01
sg18
g93
sbsg15
I2
sg20
(imyEvolve
Tree
p778
(dp779
g10
(imyEvolve
Tree
p780
(dp781
g15
I0
sg35
F-0.09718018710264076
sg16
I01
sbsg15
I1
sg20
(imyEvolve
Tree
p782
(dp783
g15
I0
sg35
F-0.2621862515918938
sg16
I01
sbsg17
I00
sg18
g43
sbsg17
I00
sg18
g26
sbsg15
I3
sg17
I01
sg18
g58
sbsg15
I4
sg17
I01
sg18
g25
sbsg15
I5
sg20
(imyEvolve
Tree
p784
(dp785
g10
(imyEvolve
Tree
p786
(dp787
g10
(imyEvolve
Tree
p788
(dp789
g7
(imyEvolve
Tree
p790
(dp791
g10
(imyEvolve
Tree
p792
(dp793
g15
I0
sg16
I00
sbsg15
I1
sg20
(imyEvolve
Tree
p794
(dp795
g15
I0
sg16
I00
sbsg17
I00
sg18
g26
sbsg15
I2
sg17
I01
sg18
g25
sbsg15
I3
sg20
(imyEvolve
Tree
p796
(dp797
g10
(imyEvolve
Tree
p798
(dp799
g7
(imyEvolve
Tree
p800
(dp801
g15
I0
sg16
I00
sbsg15
I1
sg17
I01
sg18
g93
sbsg15
I2
sg20
(imyEvolve
Tree
p802
(dp803
g7
(imyEvolve
Tree
p804
(dp805
g15
I0
sg35
F1.2627839341203595
sg16
I01
sbsg15
I1
sg17
I01
sg18
g25
sbsg17
I00
sg18
g36
sbsg17
I00
sg18
g26
sbsg15
I4
sg20
(imyEvolve
Tree
p806
(dp807
g7
(imyEvolve
Tree
p808
(dp809
g10
(imyEvolve
Tree
p810
(dp811
g10
(imyEvolve
Tree
p812
(dp813
g15
I0
sg16
I00
sbsg15
I1
sg20
(imyEvolve
Tree
p814
(dp815
g15
I0
sg35
F2.936507695421838
sg16
I01
sbsg17
I00
sg18
g26
sbsg15
I2
sg20
(imyEvolve
Tree
p816
(dp817
g10
(imyEvolve
Tree
p818
(dp819
g15
I0
sg16
I00
sbsg15
I1
sg20
(imyEvolve
Tree
p820
(dp821
g15
I0
sg16
I00
sbsg17
I00
sg18
g26
sbsg17
I00
sg18
g26
sbsg15
I3
sg17
I01
sg18
g58
sbsg17
I00
sg18
g43
sbsg17
I00
sg18
g26
sba(imyEvolve
Tree
p822
(dp823
g10
(imyEvolve
Tree
p824
(dp825
g7
(imyEvolve
Tree
p826
(dp827
g10
(imyEvolve
Tree
p828
(dp829
g10
(imyEvolve
Tree
p830
(dp831
g15
I0
sg35
F-4.793533076644307
sg16
I01
sbsg15
I1
sg20
(imyEvolve
Tree
p832
(dp833
g15
I0
sg16
I00
sbsg17
I00
sg18
g36
sbsg15
I2
sg20
(imyEvolve
Tree
p834
(dp835
g10
(imyEvolve
Tree
p836
(dp837
g15
I0
sg16
I00
sbsg15
I1
sg20
(imyEvolve
Tree
p838
(dp839
g15
I0
sg35
F0.10807504635459964
sg16
I01
sbsg17
I00
sg18
g26
sbsg17
I00
sg18
g26
sbsg15
I3
sg17
I01
sg18
g58
sbsg15
I4
sg20
(imyEvolve
Tree
p840
(dp841
g10
(imyEvolve
Tree
p842
(dp843
g10
(imyEvolve
Tree
p844
(dp845
g10
(imyEvolve
Tree
p846
(dp847
g15
I0
sg35
F-3.7765587349647456
sg16
I01
sbsg15
I1
sg20
(imyEvolve
Tree
p848
(dp849
g15
I0
sg16
I00
sbsg17
I00
sg18
g26
sbsg15
I2
sg20
(imyEvolve
Tree
p850
(dp851
g7
(imyEvolve
Tree
p852
(dp853
g15
I0
sg35
F-4.065546622945709
sg16
I01
sbsg15
I1
sg17
I01
sg18
g25
sbsg17
I00
sg18
g26
sbsg15
I3
sg20
(imyEvolve
Tree
p854
(dp855
g7
(imyEvolve
Tree
p856
(dp857
g7
(imyEvolve
Tree
p858
(dp859
g15
I0
sg35
F2.9336722802778903
sg16
I01
sbsg15
I1
sg17
I01
sg18
g93
sbsg15
I2
sg17
I01
sg18
g25
sbsg17
I00
sg18
g26
sbsg17
I00
sg18
g36
sba(imyEvolve
Tree
p860
(dp861
g10
(imyEvolve
Tree
p862
(dp863
g10
(imyEvolve
Tree
p864
(dp865
g7
(imyEvolve
Tree
p866
(dp867
g10
(imyEvolve
Tree
p868
(dp869
g15
I0
sg16
I00
sbsg15
I1
sg20
(imyEvolve
Tree
p870
(dp871
g15
I0
sg16
I00
sbsg17
I00
sg18
g36
sbsg15
I2
sg17
I01
sg18
g58
sbsg15
I3
sg20
(imyEvolve
Tree
p872
(dp873
g7
(imyEvolve
Tree
p874
(dp875
g10
(imyEvolve
Tree
p876
(dp877
g15
I0
sg16
I00
sbsg15
I1
sg20
(imyEvolve
Tree
p878
(dp879
g15
I0
sg16
I00
sbsg17
I00
sg18
g43
sbsg15
I2
sg17
I01
sg18
g93
sbsg17
I00
sg18
g26
sbsg15
I4
sg20
(imyEvolve
Tree
p880
(dp881
g10
(imyEvolve
Tree
p882
(dp883
g7
(imyEvolve
Tree
p884
(dp885
g10
(imyEvolve
Tree
p886
(dp887
g15
I0
sg16
I00
sbsg15
I1
sg20
(imyEvolve
Tree
p888
(dp889
g15
I0
sg35
F2.4058283995222665
sg16
I01
sbsg17
I00
sg18
g26
sbsg15
I2
sg17
I01
sg18
g58
sbsg15
I3
sg20
(imyEvolve
Tree
p890
(dp891
g7
(imyEvolve
Tree
p892
(dp893
g10
(imyEvolve
Tree
p894
(dp895
g15
I0
sg35
F1.0828271140064007
sg16
I01
sbsg15
I1
sg20
(imyEvolve
Tree
p896
(dp897
g15
I0
sg16
I00
sbsg17
I00
sg18
g43
sbsg15
I2
sg17
I01
sg18
g93
sbsg17
I00
sg18
g26
sbsg17
I00
sg18
g36
sba(imyEvolve
Tree
p898
(dp899
g10
(imyEvolve
Tree
p900
(dp901
g10
(imyEvolve
Tree
p902
(dp903
g15
I0
sg16
I00
sbsg15
I1
sg20
(imyEvolve
Tree
p904
(dp905
g15
I0
sg16
I00
sbsg17
I00
sg18
g26
sbsg15
I2
sg20
(imyEvolve
Tree
p906
(dp907
g7
(imyEvolve
Tree
p908
(dp909
g15
I0
sg35
F2.573320952615356
sg16
I01
sbsg15
I1
sg17
I01
sg18
g19
sbsg17
I00
sg18
g26
sba(imyEvolve
Tree
p910
(dp911
g10
(imyEvolve
Tree
p912
(dp913
g10
(imyEvolve
Tree
p914
(dp915
g15
I0
sg35
F0.9518227170328242
sg16
I01
sbsg15
I1
sg20
(imyEvolve
Tree
p916
(dp917
g15
I0
sg35
F4.584046267804091
sg16
I01
sbsg17
I00
sg18
g36
sbsg15
I2
sg20
(imyEvolve
Tree
p918
(dp919
g7
(imyEvolve
Tree
p920
(dp921
g15
I0
sg35
F-1.3794602726212024
sg16
I01
sbsg15
I1
sg17
I01
sg18
g25
sbsg17
I00
sg18
g36
sba(imyEvolve
Tree
p922
(dp923
g7
(imyEvolve
Tree
p924
(dp925
g7
(imyEvolve
Tree
p926
(dp927
g15
I2
sg10
(imyEvolve
Tree
p928
(dp929
g15
I1
sg10
(imyEvolve
Tree
p930
(dp931
g15
I0
sg16
I00
sbsg20
(imyEvolve
Tree
p932
(dp933
g15
I0
sg16
I00
sbsg17
I00
sg18
g36
sbsg20
(imyEvolve
Tree
p934
(dp935
g7
(imyEvolve
Tree
p936
(dp937
g15
I0
sg16
I00
sbsg15
I1
sg17
I01
sg18
g58
sbsg17
I00
sg18
g36
sbsg15
I3
sg17
I01
sg18
g25
sbsg15
I4
sg17
I01
sg18
g58
sba(imyEvolve
Tree
p938
(dp939
g15
I2
sg10
(imyEvolve
Tree
p940
(dp941
g7
(imyEvolve
Tree
p942
(dp943
g15
I0
sg16
I00
sbsg15
I1
sg17
I01
sg18
g58
sbsg20
(imyEvolve
Tree
p944
(dp945
g7
(imyEvolve
Tree
p946
(dp947
g15
I0
sg16
I00
sbsg15
I1
sg17
I01
sg18
g58
sbsg17
I00
sg18
g26
sba(imyEvolve
Tree
p948
(dp949
g7
(imyEvolve
Tree
p950
(dp951
g7
(imyEvolve
Tree
p952
(dp953
g15
I0
sg16
I00
sbsg15
I1
sg17
I01
sg18
g19
sbsg15
I2
sg17
I01
sg18
g19
sba(imyEvolve
Tree
p954
(dp955
g10
(imyEvolve
Tree
p956
(dp957
g10
(imyEvolve
Tree
p958
(dp959
g15
I0
sg35
F-2.9536163258247026
sg16
I01
sbsg15
I1
sg20
(imyEvolve
Tree
p960
(dp961
g15
I0
sg35
F-1.6670561860067523
sg16
I01
sbsg17
I00
sg18
g43
sbsg15
I2
sg20
(imyEvolve
Tree
p962
(dp963
g7
(imyEvolve
Tree
p964
(dp965
g15
I0
sg16
I00
sbsg15
I1
sg17
I01
sg18
g19
sbsg17
I00
sg18
g26
sba(imyEvolve
Tree
p966
(dp967
g15
I4
sg10
(imyEvolve
Tree
p968
(dp969
g7
(imyEvolve
Tree
p970
(dp971
g15
I2
sg10
(imyEvolve
Tree
p972
(dp973
g7
(imyEvolve
Tree
p974
(dp975
g15
I0
sg35
F4.361163748692844
sg16
I01
sbsg15
I1
sg17
I01
sg18
g93
sbsg20
(imyEvolve
Tree
p976
(dp977
g7
(imyEvolve
Tree
p978
(dp979
g15
I0
sg35
F-1.1913215540575983
sg16
I01
sbsg15
I1
sg17
I01
sg18
g58
sbsg17
I00
sg18
g26
sbsg15
I3
sg17
I01
sg18
g93
sbsg20
(imyEvolve
Tree
p980
(dp981
g7
(imyEvolve
Tree
p982
(dp983
g15
I2
sg10
(imyEvolve
Tree
p984
(dp985
g7
(imyEvolve
Tree
p986
(dp987
g15
I0
sg16
I00
sbsg15
I1
sg17
I01
sg18
g19
sbsg20
(imyEvolve
Tree
p988
(dp989
g7
(imyEvolve
Tree
p990
(dp991
g15
I0
sg35
F3.066528149912928
sg16
I01
sbsg15
I1
sg17
I01
sg18
g25
sbsg17
I00
sg18
g36
sbsg15
I3
sg17
I01
sg18
g19
sbsg17
I00
sg18
g43
sba(imyEvolve
Tree
p992
(dp993
g10
(imyEvolve
Tree
p994
(dp995
g10
(imyEvolve
Tree
p996
(dp997
g7
(imyEvolve
Tree
p998
(dp999
g15
I0
sg35
F-3.450725471731453
sg16
I01
sbsg15
I1
sg17
I01
sg18
g25
sbsg15
I2
sg20
(imyEvolve
Tree
p1000
(dp1001
g7
(imyEvolve
Tree
p1002
(dp1003
g15
I0
sg16
I00
sbsg15
I1
sg17
I01
sg18
g19
sbsg17
I00
sg18
g36
sbsg15
I3
sg20
(imyEvolve
Tree
p1004
(dp1005
g10
(imyEvolve
Tree
p1006
(dp1007
g10
(imyEvolve
Tree
p1008
(dp1009
g15
I0
sg35
F1.7418202671002163
sg16
I01
sbsg15
I1
sg20
(imyEvolve
Tree
p1010
(dp1011
g15
I0
sg16
I00
sbsg17
I00
sg18
g43
sbsg15
I2
sg20
(imyEvolve
Tree
p1012
(dp1013
g7
(imyEvolve
Tree
p1014
(dp1015
g15
I0
sg16
I00
sbsg15
I1
sg17
I01
sg18
g58
sbsg17
I00
sg18
g43
sbsg17
I00
sg18
g43
sba(imyEvolve
Tree
p1016
(dp1017
g7
(imyEvolve
Tree
p1018
(dp1019
g7
(imyEvolve
Tree
p1020
(dp1021
g7
(imyEvolve
Tree
p1022
(dp1023
g15
I2
sg10
(imyEvolve
Tree
p1024
(dp1025
g15
I1
sg10
(imyEvolve
Tree
p1026
(dp1027
g15
I0
sg35
F-1.1118080449751178
sg16
I01
sbsg20
(imyEvolve
Tree
p1028
(dp1029
g15
I0
sg16
I00
sbsg17
I00
sg18
g43
sbsg20
(imyEvolve
Tree
p1030
(dp1031
g7
(imyEvolve
Tree
p1032
(dp1033
g15
I0
sg16
I00
sbsg15
I1
sg17
I01
sg18
g19
sbsg17
I00
sg18
g26
sbsg15
I3
sg17
I01
sg18
g19
sbsg15
I4
sg17
I01
sg18
g58
sbsg15
I5
sg17
I01
sg18
g19
sbaasS'alpha'
p1034
F0.0036983268320204083
sS'fitness'
p1035
cnumpy.core.multiarray
scalar
p1036
(cnumpy
dtype
p1037
(S'f8'
p1038
I0
I1
tp1039
Rp1040
(I3
S'<'
p1041
NNNI-1
I-1
I0
tp1042
bS'\xa7\xe8HN\x9d\x1f\xe6?'
p1043
tp1044
Rp1045
sS'weightSharing'
p1046
(lp1047
I00
asS'fitnessValid'
p1048
I00
sS'resolution'
p1049
I70
sb.