(imyEvolve
Individual
p0
(dp1
S'funcs'
p2
(lp3
(lp4
(imyEvolve
Tree
p5
(dp6
S'depth'
p7
I3
sS'left'
p8
(imyEvolve
Tree
p9
(dp10
S'below'
p11
(imyEvolve
Tree
p12
(dp13
g11
(imyEvolve
Tree
p14
(dp15
g7
I0
sS'constant'
p16
F-1.6930420381073255
sS'isConstant'
p17
I01
sbsg7
I1
sS'single'
p18
I01
sS'op'
p19
cmyEvolve
square
p20
sbsg7
I2
sg18
I01
sg19
cmath
cos
p21
sbsS'right'
p22
(imyEvolve
Tree
p23
(dp24
g11
(imyEvolve
Tree
p25
(dp26
g11
(imyEvolve
Tree
p27
(dp28
g7
I0
sg17
I00
sbsg7
I1
sg18
I01
sg19
g20
sbsg7
I2
sg18
I01
sg19
cmath
sin
p29
sbsg18
I00
sg19
coperator
add
p30
sba(imyEvolve
Tree
p31
(dp32
g7
I5
sg8
(imyEvolve
Tree
p33
(dp34
g11
(imyEvolve
Tree
p35
(dp36
g11
(imyEvolve
Tree
p37
(dp38
g7
I2
sg8
(imyEvolve
Tree
p39
(dp40
g11
(imyEvolve
Tree
p41
(dp42
g7
I0
sg16
F0.22254740074500567
sg17
I01
sbsg7
I1
sg18
I01
sg19
g21
sbsg22
(imyEvolve
Tree
p43
(dp44
g7
I1
sg8
(imyEvolve
Tree
p45
(dp46
g7
I0
sg16
F-1.815829188209558
sg17
I01
sbsg22
(imyEvolve
Tree
p47
(dp48
g7
I0
sg17
I00
sbsg18
I00
sg19
coperator
mul
p49
sbsg18
I00
sg19
coperator
sub
p50
sbsg7
I3
sg18
I01
sg19
g29
sbsg7
I4
sg18
I01
sg19
g29
sbsg22
(imyEvolve
Tree
p51
(dp52
g7
I4
sg8
(imyEvolve
Tree
p53
(dp54
g7
I3
sg8
(imyEvolve
Tree
p55
(dp56
g7
I2
sg8
(imyEvolve
Tree
p57
(dp58
g11
(imyEvolve
Tree
p59
(dp60
g7
I0
sg17
I00
sbsg7
I1
sg18
I01
sg19
cmyEvolve
absSqrt
p61
sbsg22
(imyEvolve
Tree
p62
(dp63
g11
(imyEvolve
Tree
p64
(dp65
g7
I0
sg17
I00
sbsg7
I1
sg18
I01
sg19
g20
sbsg18
I00
sg19
g50
sbsg22
(imyEvolve
Tree
p66
(dp67
g11
(imyEvolve
Tree
p68
(dp69
g7
I1
sg8
(imyEvolve
Tree
p70
(dp71
g7
I0
sg16
F0.7301052192467292
sg17
I01
sbsg22
(imyEvolve
Tree
p72
(dp73
g7
I0
sg17
I00
sbsg18
I00
sg19
g50
sbsg7
I2
sg18
I01
sg19
g21
sbsg18
I00
sg19
g49
sbsg22
(imyEvolve
Tree
p74
(dp75
g7
I3
sg8
(imyEvolve
Tree
p76
(dp77
g7
I2
sg8
(imyEvolve
Tree
p78
(dp79
g7
I1
sg8
(imyEvolve
Tree
p80
(dp81
g7
I0
sg16
F1.2763612055273068
sg17
I01
sbsg22
(imyEvolve
Tree
p82
(dp83
g7
I0
sg17
I00
sbsg18
I00
sg19
g30
sbsg22
(imyEvolve
Tree
p84
(dp85
g7
I1
sg8
(imyEvolve
Tree
p86
(dp87
g7
I0
sg17
I00
sbsg22
(imyEvolve
Tree
p88
(dp89
g7
I0
sg16
F-3.3346193879091923
sg17
I01
sbsg18
I00
sg19
g49
sbsg18
I00
sg19
g50
sbsg22
(imyEvolve
Tree
p90
(dp91
g11
(imyEvolve
Tree
p92
(dp93
g7
I1
sg8
(imyEvolve
Tree
p94
(dp95
g7
I0
sg17
I00
sbsg22
(imyEvolve
Tree
p96
(dp97
g7
I0
sg17
I00
sbsg18
I00
sg19
g30
sbsg7
I2
sg18
I01
sg19
g21
sbsg18
I00
sg19
g50
sbsg18
I00
sg19
g49
sbsg18
I00
sg19
g30
sba(imyEvolve
Tree
p98
(dp99
g11
(imyEvolve
Tree
p100
(dp101
g7
I1
sg8
(imyEvolve
Tree
p102
(dp103
g7
I0
sg16
F-0.47088440260005004
sg17
I01
sbsg22
(imyEvolve
Tree
p104
(dp105
g7
I0
sg17
I00
sbsg18
I00
sg19
g50
sbsg7
I2
sg18
I01
sg19
g20
sba(imyEvolve
Tree
p106
(dp107
g7
I2
sg8
(imyEvolve
Tree
p108
(dp109
g7
I1
sg8
(imyEvolve
Tree
p110
(dp111
g7
I0
sg16
F-4.629356724377178
sg17
I01
sbsg22
(imyEvolve
Tree
p112
(dp113
g7
I0
sg17
I00
sbsg18
I00
sg19
g30
sbsg22
(imyEvolve
Tree
p114
(dp115
g11
(imyEvolve
Tree
p116
(dp117
g7
I0
sg17
I00
sbsg7
I1
sg18
I01
sg19
g20
sbsg18
I00
sg19
g50
sba(imyEvolve
Tree
p118
(dp119
g7
I2
sg8
(imyEvolve
Tree
p120
(dp121
g11
(imyEvolve
Tree
p122
(dp123
g7
I0
sg17
I00
sbsg7
I1
sg18
I01
sg19
g61
sbsg22
(imyEvolve
Tree
p124
(dp125
g7
I1
sg8
(imyEvolve
Tree
p126
(dp127
g7
I0
sg17
I00
sbsg22
(imyEvolve
Tree
p128
(dp129
g7
I0
sg17
I00
sbsg18
I00
sg19
g50
sbsg18
I00
sg19
g50
sba(imyEvolve
Tree
p130
(dp131
g11
(imyEvolve
Tree
p132
(dp133
g7
I3
sg8
(imyEvolve
Tree
p134
(dp135
g7
I2
sg8
(imyEvolve
Tree
p136
(dp137
g7
I1
sg8
(imyEvolve
Tree
p138
(dp139
g7
I0
sg16
F4.978811871062803
sg17
I01
sbsg22
(imyEvolve
Tree
p140
(dp141
g7
I0
sg17
I00
sbsg18
I00
sg19
g30
sbsg22
(imyEvolve
Tree
p142
(dp143
g11
(imyEvolve
Tree
p144
(dp145
g7
I0
sg17
I00
sbsg7
I1
sg18
I01
sg19
g20
sbsg18
I00
sg19
g30
sbsg22
(imyEvolve
Tree
p146
(dp147
g11
(imyEvolve
Tree
p148
(dp149
g7
I1
sg8
(imyEvolve
Tree
p150
(dp151
g7
I0
sg16
F0.28880831809584606
sg17
I01
sbsg22
(imyEvolve
Tree
p152
(dp153
g7
I0
sg17
I00
sbsg18
I00
sg19
g49
sbsg7
I2
sg18
I01
sg19
g29
sbsg18
I00
sg19
g50
sbsg7
I4
sg18
I01
sg19
g21
sba(imyEvolve
Tree
p154
(dp155
g11
(imyEvolve
Tree
p156
(dp157
g7
I3
sg8
(imyEvolve
Tree
p158
(dp159
g11
(imyEvolve
Tree
p160
(dp161
g7
I1
sg8
(imyEvolve
Tree
p162
(dp163
g7
I0
sg17
I00
sbsg22
(imyEvolve
Tree
p164
(dp165
g7
I0
sg16
F4.761820842064379
sg17
I01
sbsg18
I00
sg19
g30
sbsg7
I2
sg18
I01
sg19
g20
sbsg22
(imyEvolve
Tree
p166
(dp167
g11
(imyEvolve
Tree
p168
(dp169
g7
I1
sg8
(imyEvolve
Tree
p170
(dp171
g7
I0
sg16
F0.5536929115800335
sg17
I01
sbsg22
(imyEvolve
Tree
p172
(dp173
g7
I0
sg17
I00
sbsg18
I00
sg19
g50
sbsg7
I2
sg18
I01
sg19
g29
sbsg18
I00
sg19
g30
sbsg7
I4
sg18
I01
sg19
g61
sba(imyEvolve
Tree
p174
(dp175
g11
(imyEvolve
Tree
p176
(dp177
g7
I3
sg8
(imyEvolve
Tree
p178
(dp179
g11
(imyEvolve
Tree
p180
(dp181
g11
(imyEvolve
Tree
p182
(dp183
g7
I0
sg16
F-2.7741124860400634
sg17
I01
sbsg7
I1
sg18
I01
sg19
g21
sbsg7
I2
sg18
I01
sg19
g61
sbsg22
(imyEvolve
Tree
p184
(dp185
g11
(imyEvolve
Tree
p186
(dp187
g11
(imyEvolve
Tree
p188
(dp189
g7
I0
sg16
F-2.998907055149631
sg17
I01
sbsg7
I1
sg18
I01
sg19
g20
sbsg7
I2
sg18
I01
sg19
g21
sbsg18
I00
sg19
g30
sbsg7
I4
sg18
I01
sg19
g61
sba(imyEvolve
Tree
p190
(dp191
g11
(imyEvolve
Tree
p192
(dp193
g11
(imyEvolve
Tree
p194
(dp195
g7
I0
sg17
I00
sbsg7
I1
sg18
I01
sg19
g20
sbsg7
I2
sg18
I01
sg19
g29
sba(imyEvolve
Tree
p196
(dp197
g7
I3
sg8
(imyEvolve
Tree
p198
(dp199
g7
I2
sg8
(imyEvolve
Tree
p200
(dp201
g11
(imyEvolve
Tree
p202
(dp203
g7
I0
sg17
I00
sbsg7
I1
sg18
I01
sg19
g21
sbsg22
(imyEvolve
Tree
p204
(dp205
g7
I1
sg8
(imyEvolve
Tree
p206
(dp207
g7
I0
sg16
F2.2336743001770287
sg17
I01
sbsg22
(imyEvolve
Tree
p208
(dp209
g7
I0
sg17
I00
sbsg18
I00
sg19
g30
sbsg18
I00
sg19
g50
sbsg22
(imyEvolve
Tree
p210
(dp211
g11
(imyEvolve
Tree
p212
(dp213
g7
I1
sg8
(imyEvolve
Tree
p214
(dp215
g7
I0
sg16
F-3.116242663597326
sg17
I01
sbsg22
(imyEvolve
Tree
p216
(dp217
g7
I0
sg16
F-4.5878943345941545
sg17
I01
sbsg18
I00
sg19
g49
sbsg7
I2
sg18
I01
sg19
g61
sbsg18
I00
sg19
g49
sba(imyEvolve
Tree
p218
(dp219
g11
(imyEvolve
Tree
p220
(dp221
g7
I3
sg8
(imyEvolve
Tree
p222
(dp223
g7
I2
sg8
(imyEvolve
Tree
p224
(dp225
g11
(imyEvolve
Tree
p226
(dp227
g7
I0
sg16
F4.19977770988408
sg17
I01
sbsg7
I1
sg18
I01
sg19
g61
sbsg22
(imyEvolve
Tree
p228
(dp229
g7
I1
sg8
(imyEvolve
Tree
p230
(dp231
g7
I0
sg16
F3.9379821075670147
sg17
I01
sbsg22
(imyEvolve
Tree
p232
(dp233
g7
I0
sg16
F2.867165813544802
sg17
I01
sbsg18
I00
sg19
g30
sbsg18
I00
sg19
g50
sbsg22
(imyEvolve
Tree
p234
(dp235
g7
I2
sg8
(imyEvolve
Tree
p236
(dp237
g11
(imyEvolve
Tree
p238
(dp239
g7
I0
sg16
F1.6954450616608057
sg17
I01
sbsg7
I1
sg18
I01
sg19
g61
sbsg22
(imyEvolve
Tree
p240
(dp241
g7
I1
sg8
(imyEvolve
Tree
p242
(dp243
g7
I0
sg16
F-3.5538121870502035
sg17
I01
sbsg22
(imyEvolve
Tree
p244
(dp245
g7
I0
sg16
F3.6528237216223634
sg17
I01
sbsg18
I00
sg19
g49
sbsg18
I00
sg19
g49
sbsg18
I00
sg19
g50
sbsg7
I4
sg18
I01
sg19
g21
sbaasS'weightSharing'
p246
(lp247
I01
aI00
aI00
aI00
aI00
aI00
aI00
aI00
aI00
aI00
aI00
aI00
aI00
aI00
aI00
aI00
aI00
aI00
aI00
aI00
aI00
aI00
aI00
asS'fitnessValid'
p248
I00
sS'fitness'
p249
cnumpy.core.multiarray
scalar
p250
(cnumpy
dtype
p251
(S'f8'
p252
I0
I1
tp253
Rp254
(I3
S'<'
p255
NNNI-1
I-1
I0
tp256
bS'\x00\x98n\x12CKM\xbf'
p257
tp258
Rp259
sS'alpha'
p260
F0.0021027181664855276
sS'resolution'
p261
I40
sb.