(imyEvolve
Individual
p0
(dp1
S'funcs'
p2
(lp3
(lp4
(imyEvolve
Tree
p5
(dp6
S'left'
p7
(imyEvolve
Tree
p8
(dp9
S'below'
p10
(imyEvolve
Tree
p11
(dp12
g10
(imyEvolve
Tree
p13
(dp14
g10
(imyEvolve
Tree
p15
(dp16
S'depth'
p17
I0
sS'constant'
p18
F2.7867354145230667
sS'isConstant'
p19
I01
sbsg17
I1
sS'single'
p20
I01
sS'op'
p21
cmath
cos
p22
sbsg17
I2
sg20
I01
sg21
cmyEvolve
square
p23
sbsg17
I3
sg20
I01
sg21
g23
sbsg17
I4
sS'right'
p24
(imyEvolve
Tree
p25
(dp26
g7
(imyEvolve
Tree
p27
(dp28
g10
(imyEvolve
Tree
p29
(dp30
g10
(imyEvolve
Tree
p31
(dp32
g17
I0
sg18
F-1.777116949784583
sg19
I01
sbsg17
I1
sg20
I01
sg21
cmath
sin
p33
sbsg17
I2
sg20
I01
sg21
g33
sbsg17
I3
sg24
(imyEvolve
Tree
p34
(dp35
g10
(imyEvolve
Tree
p36
(dp37
g7
(imyEvolve
Tree
p38
(dp39
g17
I0
sg18
F2.3026721170063347
sg19
I01
sbsg17
I1
sg24
(imyEvolve
Tree
p40
(dp41
g17
I0
sg19
I00
sbsg20
I00
sg21
coperator
sub
p42
sbsg17
I2
sg20
I01
sg21
g23
sbsg20
I00
sg21
g42
sbsg20
I00
sg21
coperator
mul
p43
sba(imyEvolve
Tree
p44
(dp45
g10
(imyEvolve
Tree
p46
(dp47
g7
(imyEvolve
Tree
p48
(dp49
g10
(imyEvolve
Tree
p50
(dp51
g7
(imyEvolve
Tree
p52
(dp53
g17
I0
sg19
I00
sbsg17
I1
sg24
(imyEvolve
Tree
p54
(dp55
g17
I0
sg18
F-2.9381924687223426
sg19
I01
sbsg20
I00
sg21
coperator
add
p56
sbsg17
I2
sg20
I01
sg21
cmyEvolve
absSqrt
p57
sbsg17
I3
sg24
(imyEvolve
Tree
p58
(dp59
g7
(imyEvolve
Tree
p60
(dp61
g7
(imyEvolve
Tree
p62
(dp63
g17
I0
sg19
I00
sbsg17
I1
sg24
(imyEvolve
Tree
p64
(dp65
g17
I0
sg18
F-3.2630981291832994
sg19
I01
sbsg20
I00
sg21
g43
sbsg17
I2
sg24
(imyEvolve
Tree
p66
(dp67
g10
(imyEvolve
Tree
p68
(dp69
g17
I0
sg18
F4.503871533589578
sg19
I01
sbsg17
I1
sg20
I01
sg21
g57
sbsg20
I00
sg21
g43
sbsg20
I00
sg21
g42
sbsg17
I4
sg20
I01
sg21
g33
sba(imyEvolve
Tree
p70
(dp71
g10
(imyEvolve
Tree
p72
(dp73
g10
(imyEvolve
Tree
p74
(dp75
g10
(imyEvolve
Tree
p76
(dp77
g10
(imyEvolve
Tree
p78
(dp79
g17
I0
sg19
I00
sbsg17
I1
sg20
I01
sg21
g23
sbsg17
I2
sg20
I01
sg21
g57
sbsg17
I3
sg20
I01
sg21
g33
sbsg17
I4
sg20
I01
sg21
g23
sba(imyEvolve
Tree
p80
(dp81
g7
(imyEvolve
Tree
p82
(dp83
g7
(imyEvolve
Tree
p84
(dp85
g17
I0
sg19
I00
sbsg17
I1
sg24
(imyEvolve
Tree
p86
(dp87
g17
I0
sg18
F-2.2925754211799045
sg19
I01
sbsg20
I00
sg21
g56
sbsg17
I2
sg24
(imyEvolve
Tree
p88
(dp89
g7
(imyEvolve
Tree
p90
(dp91
g17
I0
sg18
F-1.7579629441638875
sg19
I01
sbsg17
I1
sg24
(imyEvolve
Tree
p92
(dp93
g17
I0
sg19
I00
sbsg20
I00
sg21
g56
sbsg20
I00
sg21
g56
sba(imyEvolve
Tree
p94
(dp95
g10
(imyEvolve
Tree
p96
(dp97
g10
(imyEvolve
Tree
p98
(dp99
g7
(imyEvolve
Tree
p100
(dp101
g7
(imyEvolve
Tree
p102
(dp103
g10
(imyEvolve
Tree
p104
(dp105
g17
I0
sg19
I00
sbsg17
I1
sg20
I01
sg21
g57
sbsg17
I2
sg24
(imyEvolve
Tree
p106
(dp107
g7
(imyEvolve
Tree
p108
(dp109
g17
I0
sg19
I00
sbsg17
I1
sg24
(imyEvolve
Tree
p110
(dp111
g17
I0
sg18
F-3.6278149255916956
sg19
I01
sbsg20
I00
sg21
g56
sbsg20
I00
sg21
g42
sbsg17
I3
sg24
(imyEvolve
Tree
p112
(dp113
g7
(imyEvolve
Tree
p114
(dp115
g7
(imyEvolve
Tree
p116
(dp117
g17
I0
sg18
F2.946853823456255
sg19
I01
sbsg17
I1
sg24
(imyEvolve
Tree
p118
(dp119
g17
I0
sg18
F0.24897250191702547
sg19
I01
sbsg20
I00
sg21
g43
sbsg17
I2
sg24
(imyEvolve
Tree
p120
(dp121
g10
(imyEvolve
Tree
p122
(dp123
g17
I0
sg19
I00
sbsg17
I1
sg20
I01
sg21
g23
sbsg20
I00
sg21
g43
sbsg20
I00
sg21
g42
sbsg17
I4
sg20
I01
sg21
g57
sbsg17
I5
sg20
I01
sg21
g22
sba(imyEvolve
Tree
p124
(dp125
g7
(imyEvolve
Tree
p126
(dp127
g10
(imyEvolve
Tree
p128
(dp129
g10
(imyEvolve
Tree
p130
(dp131
g17
I0
sg18
F-3.155081892346719
sg19
I01
sbsg17
I1
sg20
I01
sg21
g57
sbsg17
I2
sg20
I01
sg21
g57
sbsg17
I3
sg24
(imyEvolve
Tree
p132
(dp133
g7
(imyEvolve
Tree
p134
(dp135
g10
(imyEvolve
Tree
p136
(dp137
g17
I0
sg18
F2.270386074894308
sg19
I01
sbsg17
I1
sg20
I01
sg21
g22
sbsg17
I2
sg24
(imyEvolve
Tree
p138
(dp139
g7
(imyEvolve
Tree
p140
(dp141
g17
I0
sg18
F-2.606526421882507
sg19
I01
sbsg17
I1
sg24
(imyEvolve
Tree
p142
(dp143
g17
I0
sg19
I00
sbsg20
I00
sg21
g42
sbsg20
I00
sg21
g42
sbsg20
I00
sg21
g43
sba(imyEvolve
Tree
p144
(dp145
g10
(imyEvolve
Tree
p146
(dp147
g10
(imyEvolve
Tree
p148
(dp149
g17
I0
sg18
F-0.9403324617953404
sg19
I01
sbsg17
I1
sg20
I01
sg21
g57
sbsg17
I2
sg20
I01
sg21
g33
sba(imyEvolve
Tree
p150
(dp151
g10
(imyEvolve
Tree
p152
(dp153
g17
I2
sg7
(imyEvolve
Tree
p154
(dp155
g10
(imyEvolve
Tree
p156
(dp157
g17
I0
sg18
F-0.7528714044979843
sg19
I01
sbsg17
I1
sg20
I01
sg21
g23
sbsg24
(imyEvolve
Tree
p158
(dp159
g10
(imyEvolve
Tree
p160
(dp161
g17
I0
sg19
I00
sbsg17
I1
sg20
I01
sg21
g33
sbsg20
I00
sg21
g43
sbsg17
I3
sg20
I01
sg21
g33
sba(imyEvolve
Tree
p162
(dp163
g10
(imyEvolve
Tree
p164
(dp165
g7
(imyEvolve
Tree
p166
(dp167
g17
I0
sg18
F2.6926617232902217
sg19
I01
sbsg17
I1
sg24
(imyEvolve
Tree
p168
(dp169
g17
I0
sg18
F-4.572341640681811
sg19
I01
sbsg20
I00
sg21
g42
sbsg17
I2
sg20
I01
sg21
g23
sba(imyEvolve
Tree
p170
(dp171
g10
(imyEvolve
Tree
p172
(dp173
g10
(imyEvolve
Tree
p174
(dp175
g7
(imyEvolve
Tree
p176
(dp177
g7
(imyEvolve
Tree
p178
(dp179
g17
I0
sg18
F-1.8543753197426383
sg19
I01
sbsg17
I1
sg24
(imyEvolve
Tree
p180
(dp181
g17
I0
sg18
F-4.460626241498259
sg19
I01
sbsg20
I00
sg21
g56
sbsg17
I2
sg24
(imyEvolve
Tree
p182
(dp183
g10
(imyEvolve
Tree
p184
(dp185
g17
I0
sg19
I00
sbsg17
I1
sg20
I01
sg21
g33
sbsg20
I00
sg21
g56
sbsg17
I3
sg20
I01
sg21
g23
sbsg17
I4
sg20
I01
sg21
g23
sba(imyEvolve
Tree
p186
(dp187
g7
(imyEvolve
Tree
p188
(dp189
g10
(imyEvolve
Tree
p190
(dp191
g10
(imyEvolve
Tree
p192
(dp193
g17
I0
sg18
F-3.0543762612069503
sg19
I01
sbsg17
I1
sg20
I01
sg21
g22
sbsg17
I2
sg20
I01
sg21
g57
sbsg17
I3
sg24
(imyEvolve
Tree
p194
(dp195
g10
(imyEvolve
Tree
p196
(dp197
g7
(imyEvolve
Tree
p198
(dp199
g17
I0
sg18
F4.1174977866222005
sg19
I01
sbsg17
I1
sg24
(imyEvolve
Tree
p200
(dp201
g17
I0
sg19
I00
sbsg20
I00
sg21
g42
sbsg17
I2
sg20
I01
sg21
g22
sbsg20
I00
sg21
g42
sba(imyEvolve
Tree
p202
(dp203
g10
(imyEvolve
Tree
p204
(dp205
g10
(imyEvolve
Tree
p206
(dp207
g17
I0
sg19
I00
sbsg17
I1
sg20
I01
sg21
g33
sbsg17
I2
sg20
I01
sg21
g57
sba(imyEvolve
Tree
p208
(dp209
g10
(imyEvolve
Tree
p210
(dp211
g7
(imyEvolve
Tree
p212
(dp213
g10
(imyEvolve
Tree
p214
(dp215
g7
(imyEvolve
Tree
p216
(dp217
g17
I0
sg19
I00
sbsg17
I1
sg24
(imyEvolve
Tree
p218
(dp219
g17
I0
sg18
F-0.5314247984387972
sg19
I01
sbsg20
I00
sg21
g56
sbsg17
I2
sg20
I01
sg21
g23
sbsg17
I3
sg24
(imyEvolve
Tree
p220
(dp221
g7
(imyEvolve
Tree
p222
(dp223
g10
(imyEvolve
Tree
p224
(dp225
g17
I0
sg19
I00
sbsg17
I1
sg20
I01
sg21
g23
sbsg17
I2
sg24
(imyEvolve
Tree
p226
(dp227
g7
(imyEvolve
Tree
p228
(dp229
g17
I0
sg19
I00
sbsg17
I1
sg24
(imyEvolve
Tree
p230
(dp231
g17
I0
sg18
F0.5559625963953287
sg19
I01
sbsg20
I00
sg21
g42
sbsg20
I00
sg21
g42
sbsg20
I00
sg21
g42
sbsg17
I4
sg20
I01
sg21
g57
sba(imyEvolve
Tree
p232
(dp233
g10
(imyEvolve
Tree
p234
(dp235
g17
I4
sg7
(imyEvolve
Tree
p236
(dp237
g17
I3
sg7
(imyEvolve
Tree
p238
(dp239
g17
I2
sg7
(imyEvolve
Tree
p240
(dp241
g10
(imyEvolve
Tree
p242
(dp243
g17
I0
sg19
I00
sbsg17
I1
sg20
I01
sg21
g57
sbsg24
(imyEvolve
Tree
p244
(dp245
g17
I1
sg7
(imyEvolve
Tree
p246
(dp247
g17
I0
sg18
F-1.1901953220798367
sg19
I01
sbsg24
(imyEvolve
Tree
p248
(dp249
g17
I0
sg18
F1.027404319484849
sg19
I01
sbsg20
I00
sg21
g43
sbsg20
I00
sg21
g42
sbsg24
(imyEvolve
Tree
p250
(dp251
g10
(imyEvolve
Tree
p252
(dp253
g17
I1
sg7
(imyEvolve
Tree
p254
(dp255
g17
I0
sg19
I00
sbsg24
(imyEvolve
Tree
p256
(dp257
g17
I0
sg19
I00
sbsg20
I00
sg21
g56
sbsg17
I2
sg20
I01
sg21
g23
sbsg20
I00
sg21
g56
sbsg24
(imyEvolve
Tree
p258
(dp259
g17
I3
sg7
(imyEvolve
Tree
p260
(dp261
g10
(imyEvolve
Tree
p262
(dp263
g17
I1
sg7
(imyEvolve
Tree
p264
(dp265
g17
I0
sg19
I00
sbsg24
(imyEvolve
Tree
p266
(dp267
g17
I0
sg19
I00
sbsg20
I00
sg21
g43
sbsg17
I2
sg20
I01
sg21
g33
sbsg24
(imyEvolve
Tree
p268
(dp269
g10
(imyEvolve
Tree
p270
(dp271
g17
I1
sg7
(imyEvolve
Tree
p272
(dp273
g17
I0
sg18
F2.601119799462481
sg19
I01
sbsg24
(imyEvolve
Tree
p274
(dp275
g17
I0
sg18
F-2.100405307628667
sg19
I01
sbsg20
I00
sg21
g43
sbsg17
I2
sg20
I01
sg21
g22
sbsg20
I00
sg21
g42
sbsg20
I00
sg21
g42
sbsg17
I5
sg20
I01
sg21
g23
sba(imyEvolve
Tree
p276
(dp277
g7
(imyEvolve
Tree
p278
(dp279
g7
(imyEvolve
Tree
p280
(dp281
g17
I0
sg19
I00
sbsg17
I1
sg24
(imyEvolve
Tree
p282
(dp283
g17
I0
sg18
F0.5652147425077692
sg19
I01
sbsg20
I00
sg21
g56
sbsg17
I2
sg24
(imyEvolve
Tree
p284
(dp285
g7
(imyEvolve
Tree
p286
(dp287
g17
I0
sg19
I00
sbsg17
I1
sg24
(imyEvolve
Tree
p288
(dp289
g17
I0
sg19
I00
sbsg20
I00
sg21
g42
sbsg20
I00
sg21
g56
sba(imyEvolve
Tree
p290
(dp291
g10
(imyEvolve
Tree
p292
(dp293
g7
(imyEvolve
Tree
p294
(dp295
g10
(imyEvolve
Tree
p296
(dp297
g7
(imyEvolve
Tree
p298
(dp299
g10
(imyEvolve
Tree
p300
(dp301
g17
I0
sg18
F-2.7242486135304578
sg19
I01
sbsg17
I1
sg20
I01
sg21
g23
sbsg17
I2
sg24
(imyEvolve
Tree
p302
(dp303
g7
(imyEvolve
Tree
p304
(dp305
g17
I0
sg18
F1.5985790411431129
sg19
I01
sbsg17
I1
sg24
(imyEvolve
Tree
p306
(dp307
g17
I0
sg18
F-1.2222975064129713
sg19
I01
sbsg20
I00
sg21
g42
sbsg20
I00
sg21
g56
sbsg17
I3
sg20
I01
sg21
g23
sbsg17
I4
sg24
(imyEvolve
Tree
p308
(dp309
g10
(imyEvolve
Tree
p310
(dp311
g7
(imyEvolve
Tree
p312
(dp313
g7
(imyEvolve
Tree
p314
(dp315
g17
I0
sg19
I00
sbsg17
I1
sg24
(imyEvolve
Tree
p316
(dp317
g17
I0
sg18
F-3.9996517532675524
sg19
I01
sbsg20
I00
sg21
g43
sbsg17
I2
sg24
(imyEvolve
Tree
p318
(dp319
g7
(imyEvolve
Tree
p320
(dp321
g17
I0
sg18
F-0.30244116444470226
sg19
I01
sbsg17
I1
sg24
(imyEvolve
Tree
p322
(dp323
g17
I0
sg19
I00
sbsg20
I00
sg21
g43
sbsg20
I00
sg21
g56
sbsg17
I3
sg20
I01
sg21
g22
sbsg20
I00
sg21
g56
sbsg17
I5
sg20
I01
sg21
g33
sba(imyEvolve
Tree
p324
(dp325
g7
(imyEvolve
Tree
p326
(dp327
g7
(imyEvolve
Tree
p328
(dp329
g17
I0
sg18
F-0.35038495678464976
sg19
I01
sbsg17
I1
sg24
(imyEvolve
Tree
p330
(dp331
g17
I0
sg19
I00
sbsg20
I00
sg21
g42
sbsg17
I2
sg24
(imyEvolve
Tree
p332
(dp333
g7
(imyEvolve
Tree
p334
(dp335
g17
I0
sg18
F0.9690842013861118
sg19
I01
sbsg17
I1
sg24
(imyEvolve
Tree
p336
(dp337
g17
I0
sg18
F1.7077105221802817
sg19
I01
sbsg20
I00
sg21
g43
sbsg20
I00
sg21
g42
sbaa(lp338
(imyEvolve
Tree
p339
(dp340
g10
(imyEvolve
Tree
p341
(dp342
g7
(imyEvolve
Tree
p343
(dp344
g7
(imyEvolve
Tree
p345
(dp346
g17
I0
sg19
I00
sbsg17
I1
sg24
(imyEvolve
Tree
p347
(dp348
g17
I0
sg19
I00
sbsg20
I00
sg21
g42
sbsg17
I2
sg24
(imyEvolve
Tree
p349
(dp350
g10
(imyEvolve
Tree
p351
(dp352
g17
I0
sg18
F-4.789349525133587
sg19
I01
sbsg17
I1
sg20
I01
sg21
g23
sbsg20
I00
sg21
g42
sbsg17
I3
sg20
I01
sg21
g57
sba(imyEvolve
Tree
p353
(dp354
g7
(imyEvolve
Tree
p355
(dp356
g10
(imyEvolve
Tree
p357
(dp358
g17
I0
sg18
F-0.5147510905500576
sg19
I01
sbsg17
I1
sg20
I01
sg21
g23
sbsg17
I2
sg24
(imyEvolve
Tree
p359
(dp360
g10
(imyEvolve
Tree
p361
(dp362
g17
I0
sg18
F-2.6558443641875726
sg19
I01
sbsg17
I1
sg20
I01
sg21
g22
sbsg20
I00
sg21
g56
sba(imyEvolve
Tree
p363
(dp364
g7
(imyEvolve
Tree
p365
(dp366
g7
(imyEvolve
Tree
p367
(dp368
g7
(imyEvolve
Tree
p369
(dp370
g17
I0
sg19
I00
sbsg17
I1
sg24
(imyEvolve
Tree
p371
(dp372
g17
I0
sg19
I00
sbsg20
I00
sg21
g42
sbsg17
I2
sg24
(imyEvolve
Tree
p373
(dp374
g7
(imyEvolve
Tree
p375
(dp376
g17
I0
sg19
I00
sbsg17
I1
sg24
(imyEvolve
Tree
p377
(dp378
g17
I0
sg18
F-3.7822111859558016
sg19
I01
sbsg20
I00
sg21
g43
sbsg20
I00
sg21
g42
sbsg17
I3
sg24
(imyEvolve
Tree
p379
(dp380
g10
(imyEvolve
Tree
p381
(dp382
g10
(imyEvolve
Tree
p383
(dp384
g17
I0
sg19
I00
sbsg17
I1
sg20
I01
sg21
g22
sbsg17
I2
sg20
I01
sg21
g23
sbsg20
I00
sg21
g42
sba(imyEvolve
Tree
p385
(dp386
g10
(imyEvolve
Tree
p387
(dp388
g10
(imyEvolve
Tree
p389
(dp390
g17
I0
sg18
F-1.7372898852877352
sg19
I01
sbsg17
I1
sg20
I01
sg21
g22
sbsg17
I2
sg20
I01
sg21
g57
sba(imyEvolve
Tree
p391
(dp392
g17
I4
sg7
(imyEvolve
Tree
p393
(dp394
g17
I3
sg7
(imyEvolve
Tree
p395
(dp396
g10
(imyEvolve
Tree
p397
(dp398
g17
I1
sg7
(imyEvolve
Tree
p399
(dp400
g17
I0
sg18
F0.9565475334497258
sg19
I01
sbsg24
(imyEvolve
Tree
p401
(dp402
g17
I0
sg19
I00
sbsg20
I00
sg21
g42
sbsg17
I2
sg20
I01
sg21
g33
sbsg24
(imyEvolve
Tree
p403
(dp404
g17
I2
sg7
(imyEvolve
Tree
p405
(dp406
g10
(imyEvolve
Tree
p407
(dp408
g17
I0
sg18
F-3.5581440243680884
sg19
I01
sbsg17
I1
sg20
I01
sg21
g33
sbsg24
(imyEvolve
Tree
p409
(dp410
g10
(imyEvolve
Tree
p411
(dp412
g17
I0
sg19
I00
sbsg17
I1
sg20
I01
sg21
g33
sbsg20
I00
sg21
g56
sbsg20
I00
sg21
g43
sbsg24
(imyEvolve
Tree
p413
(dp414
g17
I3
sg7
(imyEvolve
Tree
p415
(dp416
g17
I2
sg7
(imyEvolve
Tree
p417
(dp418
g17
I1
sg7
(imyEvolve
Tree
p419
(dp420
g17
I0
sg19
I00
sbsg24
(imyEvolve
Tree
p421
(dp422
g17
I0
sg19
I00
sbsg20
I00
sg21
g56
sbsg24
(imyEvolve
Tree
p423
(dp424
g17
I1
sg7
(imyEvolve
Tree
p425
(dp426
g17
I0
sg19
I00
sbsg24
(imyEvolve
Tree
p427
(dp428
g17
I0
sg18
F3.3090298155275004
sg19
I01
sbsg20
I00
sg21
g56
sbsg20
I00
sg21
g56
sbsg24
(imyEvolve
Tree
p429
(dp430
g17
I2
sg7
(imyEvolve
Tree
p431
(dp432
g17
I1
sg7
(imyEvolve
Tree
p433
(dp434
g17
I0
sg18
F4.309123646843206
sg19
I01
sbsg24
(imyEvolve
Tree
p435
(dp436
g17
I0
sg19
I00
sbsg20
I00
sg21
g56
sbsg24
(imyEvolve
Tree
p437
(dp438
g17
I1
sg7
(imyEvolve
Tree
p439
(dp440
g17
I0
sg19
I00
sbsg24
(imyEvolve
Tree
p441
(dp442
g17
I0
sg18
F3.235093321267369
sg19
I01
sbsg20
I00
sg21
g56
sbsg20
I00
sg21
g56
sbsg20
I00
sg21
g56
sbsg20
I00
sg21
g43
sba(imyEvolve
Tree
p443
(dp444
g7
(imyEvolve
Tree
p445
(dp446
g10
(imyEvolve
Tree
p447
(dp448
g10
(imyEvolve
Tree
p449
(dp450
g17
I0
sg18
F4.661295087852402
sg19
I01
sbsg17
I1
sg20
I01
sg21
g23
sbsg17
I2
sg20
I01
sg21
g22
sbsg17
I3
sg24
(imyEvolve
Tree
p451
(dp452
g10
(imyEvolve
Tree
p453
(dp454
g10
(imyEvolve
Tree
p455
(dp456
g17
I0
sg19
I00
sbsg17
I1
sg20
I01
sg21
g23
sbsg17
I2
sg20
I01
sg21
g57
sbsg20
I00
sg21
g42
sba(imyEvolve
Tree
p457
(dp458
g10
(imyEvolve
Tree
p459
(dp460
g10
(imyEvolve
Tree
p461
(dp462
g7
(imyEvolve
Tree
p463
(dp464
g7
(imyEvolve
Tree
p465
(dp466
g17
I0
sg18
F-2.137667433961922
sg19
I01
sbsg17
I1
sg24
(imyEvolve
Tree
p467
(dp468
g17
I0
sg19
I00
sbsg20
I00
sg21
g42
sbsg17
I2
sg24
(imyEvolve
Tree
p469
(dp470
g10
(imyEvolve
Tree
p471
(dp472
g17
I0
sg19
I00
sbsg17
I1
sg20
I01
sg21
g33
sbsg20
I00
sg21
g42
sbsg17
I3
sg20
I01
sg21
g23
sbsg17
I4
sg20
I01
sg21
g57
sba(imyEvolve
Tree
p473
(dp474
g7
(imyEvolve
Tree
p475
(dp476
g7
(imyEvolve
Tree
p477
(dp478
g17
I0
sg18
F-3.8455145590888415
sg19
I01
sbsg17
I1
sg24
(imyEvolve
Tree
p479
(dp480
g17
I0
sg18
F2.516194924136218
sg19
I01
sbsg20
I00
sg21
g56
sbsg17
I2
sg24
(imyEvolve
Tree
p481
(dp482
g10
(imyEvolve
Tree
p483
(dp484
g17
I0
sg19
I00
sbsg17
I1
sg20
I01
sg21
g33
sbsg20
I00
sg21
g43
sba(imyEvolve
Tree
p485
(dp486
g10
(imyEvolve
Tree
p487
(dp488
g17
I3
sg7
(imyEvolve
Tree
p489
(dp490
g10
(imyEvolve
Tree
p491
(dp492
g17
I1
sg7
(imyEvolve
Tree
p493
(dp494
g17
I0
sg18
F2.0404039120947477
sg19
I01
sbsg24
(imyEvolve
Tree
p495
(dp496
g17
I0
sg19
I00
sbsg20
I00
sg21
g56
sbsg17
I2
sg20
I01
sg21
g23
sbsg24
(imyEvolve
Tree
p497
(dp498
g10
(imyEvolve
Tree
p499
(dp500
g17
I1
sg7
(imyEvolve
Tree
p501
(dp502
g17
I0
sg19
I00
sbsg24
(imyEvolve
Tree
p503
(dp504
g17
I0
sg19
I00
sbsg20
I00
sg21
g43
sbsg17
I2
sg20
I01
sg21
g57
sbsg20
I00
sg21
g56
sbsg17
I4
sg20
I01
sg21
g23
sba(imyEvolve
Tree
p505
(dp506
g10
(imyEvolve
Tree
p507
(dp508
g17
I2
sg7
(imyEvolve
Tree
p509
(dp510
g17
I1
sg7
(imyEvolve
Tree
p511
(dp512
g17
I0
sg19
I00
sbsg24
(imyEvolve
Tree
p513
(dp514
g17
I0
sg19
I00
sbsg20
I00
sg21
g43
sbsg24
(imyEvolve
Tree
p515
(dp516
g17
I1
sg7
(imyEvolve
Tree
p517
(dp518
g17
I0
sg18
F2.857663730263978
sg19
I01
sbsg24
(imyEvolve
Tree
p519
(dp520
g17
I0
sg19
I00
sbsg20
I00
sg21
g56
sbsg20
I00
sg21
g43
sbsg17
I3
sg20
I01
sg21
g57
sba(imyEvolve
Tree
p521
(dp522
g7
(imyEvolve
Tree
p523
(dp524
g7
(imyEvolve
Tree
p525
(dp526
g17
I0
sg19
I00
sbsg17
I1
sg24
(imyEvolve
Tree
p527
(dp528
g17
I0
sg19
I00
sbsg20
I00
sg21
g43
sbsg17
I2
sg24
(imyEvolve
Tree
p529
(dp530
g10
(imyEvolve
Tree
p531
(dp532
g17
I0
sg18
F3.512412084437541
sg19
I01
sbsg17
I1
sg20
I01
sg21
g23
sbsg20
I00
sg21
g42
sba(imyEvolve
Tree
p533
(dp534
g10
(imyEvolve
Tree
p535
(dp536
g7
(imyEvolve
Tree
p537
(dp538
g7
(imyEvolve
Tree
p539
(dp540
g7
(imyEvolve
Tree
p541
(dp542
g17
I0
sg19
I00
sbsg17
I1
sg24
(imyEvolve
Tree
p543
(dp544
g17
I0
sg19
I00
sbsg20
I00
sg21
g43
sbsg17
I2
sg24
(imyEvolve
Tree
p545
(dp546
g10
(imyEvolve
Tree
p547
(dp548
g17
I0
sg18
F-3.8329573267585637
sg19
I01
sbsg17
I1
sg20
I01
sg21
g33
sbsg20
I00
sg21
g42
sbsg17
I3
sg24
(imyEvolve
Tree
p549
(dp550
g7
(imyEvolve
Tree
p551
(dp552
g7
(imyEvolve
Tree
p553
(dp554
g17
I0
sg18
F-1.8141090824516914
sg19
I01
sbsg17
I1
sg24
(imyEvolve
Tree
p555
(dp556
g17
I0
sg18
F-1.689692895622131
sg19
I01
sbsg20
I00
sg21
g56
sbsg17
I2
sg24
(imyEvolve
Tree
p557
(dp558
g7
(imyEvolve
Tree
p559
(dp560
g17
I0
sg19
I00
sbsg17
I1
sg24
(imyEvolve
Tree
p561
(dp562
g17
I0
sg18
F-0.039579292777424335
sg19
I01
sbsg20
I00
sg21
g56
sbsg20
I00
sg21
g43
sbsg20
I00
sg21
g42
sbsg17
I4
sg20
I01
sg21
g57
sba(imyEvolve
Tree
p563
(dp564
g17
I2
sg7
(imyEvolve
Tree
p565
(dp566
g10
(imyEvolve
Tree
p567
(dp568
g17
I0
sg19
I00
sbsg17
I1
sg20
I01
sg21
g23
sbsg24
(imyEvolve
Tree
p569
(dp570
g10
(imyEvolve
Tree
p571
(dp572
g17
I0
sg19
I00
sbsg17
I1
sg20
I01
sg21
g22
sbsg20
I00
sg21
g56
sba(imyEvolve
Tree
p573
(dp574
g10
(imyEvolve
Tree
p575
(dp576
g10
(imyEvolve
Tree
p577
(dp578
g10
(imyEvolve
Tree
p579
(dp580
g7
(imyEvolve
Tree
p581
(dp582
g10
(imyEvolve
Tree
p583
(dp584
g17
I0
sg19
I00
sbsg17
I1
sg20
I01
sg21
g33
sbsg17
I2
sg24
(imyEvolve
Tree
p585
(dp586
g7
(imyEvolve
Tree
p587
(dp588
g17
I0
sg18
F1.3068629937859395
sg19
I01
sbsg17
I1
sg24
(imyEvolve
Tree
p589
(dp590
g17
I0
sg18
F-3.5286024351034015
sg19
I01
sbsg20
I00
sg21
g56
sbsg20
I00
sg21
g42
sbsg17
I3
sg20
I01
sg21
g22
sbsg17
I4
sg20
I01
sg21
g22
sbsg17
I5
sg20
I01
sg21
g33
sbaa(lp591
(imyEvolve
Tree
p592
(dp593
g17
I3
sg7
(imyEvolve
Tree
p594
(dp595
g10
(imyEvolve
Tree
p596
(dp597
g10
(imyEvolve
Tree
p598
(dp599
g17
I0
sg18
F3.4041483525916654
sg19
I01
sbsg17
I1
sg20
I01
sg21
g23
sbsg17
I2
sg20
I01
sg21
g57
sbsg24
(imyEvolve
Tree
p600
(dp601
g17
I2
sg7
(imyEvolve
Tree
p602
(dp603
g10
(imyEvolve
Tree
p604
(dp605
g17
I0
sg18
F1.0582084590386263
sg19
I01
sbsg17
I1
sg20
I01
sg21
g22
sbsg24
(imyEvolve
Tree
p606
(dp607
g17
I1
sg7
(imyEvolve
Tree
p608
(dp609
g17
I0
sg18
F0.5845241663559708
sg19
I01
sbsg24
(imyEvolve
Tree
p610
(dp611
g17
I0
sg18
F1.384185825850385
sg19
I01
sbsg20
I00
sg21
g42
sbsg20
I00
sg21
g43
sbsg20
I00
sg21
g43
sba(imyEvolve
Tree
p612
(dp613
g7
(imyEvolve
Tree
p614
(dp615
g10
(imyEvolve
Tree
p616
(dp617
g10
(imyEvolve
Tree
p618
(dp619
g7
(imyEvolve
Tree
p620
(dp621
g7
(imyEvolve
Tree
p622
(dp623
g17
I0
sg18
F-1.0219906376127117
sg19
I01
sbsg17
I1
sg24
(imyEvolve
Tree
p624
(dp625
g17
I0
sg18
F-0.29420054214707303
sg19
I01
sbsg20
I00
sg21
g42
sbsg17
I2
sg24
(imyEvolve
Tree
p626
(dp627
g7
(imyEvolve
Tree
p628
(dp629
g17
I0
sg19
I00
sbsg17
I1
sg24
(imyEvolve
Tree
p630
(dp631
g17
I0
sg18
F-4.4933270520412405
sg19
I01
sbsg20
I00
sg21
g42
sbsg20
I00
sg21
g42
sbsg17
I3
sg20
I01
sg21
g33
sbsg17
I4
sg20
I01
sg21
g57
sbsg17
I5
sg24
(imyEvolve
Tree
p632
(dp633
g7
(imyEvolve
Tree
p634
(dp635
g7
(imyEvolve
Tree
p636
(dp637
g7
(imyEvolve
Tree
p638
(dp639
g10
(imyEvolve
Tree
p640
(dp641
g17
I0
sg19
I00
sbsg17
I1
sg20
I01
sg21
g57
sbsg17
I2
sg24
(imyEvolve
Tree
p642
(dp643
g7
(imyEvolve
Tree
p644
(dp645
g17
I0
sg19
I00
sbsg17
I1
sg24
(imyEvolve
Tree
p646
(dp647
g17
I0
sg19
I00
sbsg20
I00
sg21
g42
sbsg20
I00
sg21
g43
sbsg17
I3
sg24
(imyEvolve
Tree
p648
(dp649
g7
(imyEvolve
Tree
p650
(dp651
g10
(imyEvolve
Tree
p652
(dp653
g17
I0
sg18
F-3.4194969181621007
sg19
I01
sbsg17
I1
sg20
I01
sg21
g22
sbsg17
I2
sg24
(imyEvolve
Tree
p654
(dp655
g10
(imyEvolve
Tree
p656
(dp657
g17
I0
sg19
I00
sbsg17
I1
sg20
I01
sg21
g57
sbsg20
I00
sg21
g42
sbsg20
I00
sg21
g42
sbsg17
I4
sg24
(imyEvolve
Tree
p658
(dp659
g7
(imyEvolve
Tree
p660
(dp661
g7
(imyEvolve
Tree
p662
(dp663
g10
(imyEvolve
Tree
p664
(dp665
g17
I0
sg18
F-1.673442536430556
sg19
I01
sbsg17
I1
sg20
I01
sg21
g33
sbsg17
I2
sg24
(imyEvolve
Tree
p666
(dp667
g10
(imyEvolve
Tree
p668
(dp669
g17
I0
sg18
F2.230397015063824
sg19
I01
sbsg17
I1
sg20
I01
sg21
g23
sbsg20
I00
sg21
g42
sbsg17
I3
sg24
(imyEvolve
Tree
p670
(dp671
g7
(imyEvolve
Tree
p672
(dp673
g7
(imyEvolve
Tree
p674
(dp675
g17
I0
sg19
I00
sbsg17
I1
sg24
(imyEvolve
Tree
p676
(dp677
g17
I0
sg18
F-2.5835363400552938
sg19
I01
sbsg20
I00
sg21
g43
sbsg17
I2
sg24
(imyEvolve
Tree
p678
(dp679
g10
(imyEvolve
Tree
p680
(dp681
g17
I0
sg19
I00
sbsg17
I1
sg20
I01
sg21
g22
sbsg20
I00
sg21
g43
sbsg20
I00
sg21
g56
sbsg20
I00
sg21
g42
sbsg20
I00
sg21
g56
sba(imyEvolve
Tree
p682
(dp683
g17
I2
sg7
(imyEvolve
Tree
p684
(dp685
g17
I1
sg7
(imyEvolve
Tree
p686
(dp687
g17
I0
sg18
F-3.480874752789913
sg19
I01
sbsg24
(imyEvolve
Tree
p688
(dp689
g17
I0
sg19
I00
sbsg20
I00
sg21
g56
sbsg24
(imyEvolve
Tree
p690
(dp691
g17
I1
sg7
(imyEvolve
Tree
p692
(dp693
g17
I0
sg19
I00
sbsg24
(imyEvolve
Tree
p694
(dp695
g17
I0
sg19
I00
sbsg20
I00
sg21
g56
sbsg20
I00
sg21
g56
sba(imyEvolve
Tree
p696
(dp697
g10
(imyEvolve
Tree
p698
(dp699
g10
(imyEvolve
Tree
p700
(dp701
g10
(imyEvolve
Tree
p702
(dp703
g7
(imyEvolve
Tree
p704
(dp705
g7
(imyEvolve
Tree
p706
(dp707
g17
I0
sg19
I00
sbsg17
I1
sg24
(imyEvolve
Tree
p708
(dp709
g17
I0
sg19
I00
sbsg20
I00
sg21
g56
sbsg17
I2
sg24
(imyEvolve
Tree
p710
(dp711
g7
(imyEvolve
Tree
p712
(dp713
g17
I0
sg18
F-1.9945142511667493
sg19
I01
sbsg17
I1
sg24
(imyEvolve
Tree
p714
(dp715
g17
I0
sg19
I00
sbsg20
I00
sg21
g42
sbsg20
I00
sg21
g42
sbsg17
I3
sg20
I01
sg21
g22
sbsg17
I4
sg20
I01
sg21
g33
sbsg17
I5
sg20
I01
sg21
g57
sba(imyEvolve
Tree
p716
(dp717
g10
(imyEvolve
Tree
p718
(dp719
g17
I2
sg7
(imyEvolve
Tree
p720
(dp721
g17
I1
sg7
(imyEvolve
Tree
p722
(dp723
g17
I0
sg19
I00
sbsg24
(imyEvolve
Tree
p724
(dp725
g17
I0
sg18
F0.6545080116686695
sg19
I01
sbsg20
I00
sg21
g42
sbsg24
(imyEvolve
Tree
p726
(dp727
g17
I1
sg7
(imyEvolve
Tree
p728
(dp729
g17
I0
sg19
I00
sbsg24
(imyEvolve
Tree
p730
(dp731
g17
I0
sg18
F4.200686742985859
sg19
I01
sbsg20
I00
sg21
g42
sbsg20
I00
sg21
g42
sbsg17
I3
sg20
I01
sg21
g22
sba(imyEvolve
Tree
p732
(dp733
g17
I2
sg7
(imyEvolve
Tree
p734
(dp735
g17
I1
sg7
(imyEvolve
Tree
p736
(dp737
g17
I0
sg19
I00
sbsg24
(imyEvolve
Tree
p738
(dp739
g17
I0
sg19
I00
sbsg20
I00
sg21
g43
sbsg24
(imyEvolve
Tree
p740
(dp741
g10
(imyEvolve
Tree
p742
(dp743
g17
I0
sg18
F2.684125273075879
sg19
I01
sbsg17
I1
sg20
I01
sg21
g22
sbsg20
I00
sg21
g56
sba(imyEvolve
Tree
p744
(dp745
g10
(imyEvolve
Tree
p746
(dp747
g7
(imyEvolve
Tree
p748
(dp749
g10
(imyEvolve
Tree
p750
(dp751
g17
I0
sg19
I00
sbsg17
I1
sg20
I01
sg21
g22
sbsg17
I2
sg24
(imyEvolve
Tree
p752
(dp753
g10
(imyEvolve
Tree
p754
(dp755
g17
I0
sg18
F3.9102557848664006
sg19
I01
sbsg17
I1
sg20
I01
sg21
g57
sbsg20
I00
sg21
g56
sbsg17
I3
sg20
I01
sg21
g22
sba(imyEvolve
Tree
p756
(dp757
g10
(imyEvolve
Tree
p758
(dp759
g10
(imyEvolve
Tree
p760
(dp761
g7
(imyEvolve
Tree
p762
(dp763
g17
I0
sg18
F-3.040320738481358
sg19
I01
sbsg17
I1
sg24
(imyEvolve
Tree
p764
(dp765
g17
I0
sg19
I00
sbsg20
I00
sg21
g42
sbsg17
I2
sg20
I01
sg21
g23
sbsg17
I3
sg20
I01
sg21
g22
sba(imyEvolve
Tree
p766
(dp767
g10
(imyEvolve
Tree
p768
(dp769
g10
(imyEvolve
Tree
p770
(dp771
g10
(imyEvolve
Tree
p772
(dp773
g17
I2
sg7
(imyEvolve
Tree
p774
(dp775
g17
I1
sg7
(imyEvolve
Tree
p776
(dp777
g17
I0
sg19
I00
sbsg24
(imyEvolve
Tree
p778
(dp779
g17
I0
sg18
F-4.894506938823971
sg19
I01
sbsg20
I00
sg21
g43
sbsg24
(imyEvolve
Tree
p780
(dp781
g10
(imyEvolve
Tree
p782
(dp783
g17
I0
sg18
F0.5733957513113186
sg19
I01
sbsg17
I1
sg20
I01
sg21
g33
sbsg20
I00
sg21
g43
sbsg17
I3
sg20
I01
sg21
g23
sbsg17
I4
sg20
I01
sg21
g57
sbsg17
I5
sg20
I01
sg21
g33
sba(imyEvolve
Tree
p784
(dp785
g7
(imyEvolve
Tree
p786
(dp787
g7
(imyEvolve
Tree
p788
(dp789
g7
(imyEvolve
Tree
p790
(dp791
g10
(imyEvolve
Tree
p792
(dp793
g17
I0
sg19
I00
sbsg17
I1
sg20
I01
sg21
g22
sbsg17
I2
sg24
(imyEvolve
Tree
p794
(dp795
g7
(imyEvolve
Tree
p796
(dp797
g17
I0
sg19
I00
sbsg17
I1
sg24
(imyEvolve
Tree
p798
(dp799
g17
I0
sg18
F3.538850364472598
sg19
I01
sbsg20
I00
sg21
g43
sbsg20
I00
sg21
g56
sbsg17
I3
sg24
(imyEvolve
Tree
p800
(dp801
g10
(imyEvolve
Tree
p802
(dp803
g10
(imyEvolve
Tree
p804
(dp805
g17
I0
sg19
I00
sbsg17
I1
sg20
I01
sg21
g57
sbsg17
I2
sg20
I01
sg21
g57
sbsg20
I00
sg21
g43
sbsg17
I4
sg24
(imyEvolve
Tree
p806
(dp807
g7
(imyEvolve
Tree
p808
(dp809
g10
(imyEvolve
Tree
p810
(dp811
g10
(imyEvolve
Tree
p812
(dp813
g17
I0
sg19
I00
sbsg17
I1
sg20
I01
sg21
g22
sbsg17
I2
sg20
I01
sg21
g33
sbsg17
I3
sg24
(imyEvolve
Tree
p814
(dp815
g10
(imyEvolve
Tree
p816
(dp817
g7
(imyEvolve
Tree
p818
(dp819
g17
I0
sg19
I00
sbsg17
I1
sg24
(imyEvolve
Tree
p820
(dp821
g17
I0
sg18
F-4.6576406498942475
sg19
I01
sbsg20
I00
sg21
g43
sbsg17
I2
sg20
I01
sg21
g33
sbsg20
I00
sg21
g56
sbsg20
I00
sg21
g43
sba(imyEvolve
Tree
p822
(dp823
g10
(imyEvolve
Tree
p824
(dp825
g10
(imyEvolve
Tree
p826
(dp827
g17
I0
sg18
F4.6116743833301115
sg19
I01
sbsg17
I1
sg20
I01
sg21
g22
sbsg17
I2
sg20
I01
sg21
g33
sba(imyEvolve
Tree
p828
(dp829
g7
(imyEvolve
Tree
p830
(dp831
g7
(imyEvolve
Tree
p832
(dp833
g10
(imyEvolve
Tree
p834
(dp835
g17
I0
sg19
I00
sbsg17
I1
sg20
I01
sg21
g57
sbsg17
I2
sg24
(imyEvolve
Tree
p836
(dp837
g7
(imyEvolve
Tree
p838
(dp839
g17
I0
sg18
F0.6979622571137023
sg19
I01
sbsg17
I1
sg24
(imyEvolve
Tree
p840
(dp841
g17
I0
sg19
I00
sbsg20
I00
sg21
g56
sbsg20
I00
sg21
g56
sbsg17
I3
sg24
(imyEvolve
Tree
p842
(dp843
g7
(imyEvolve
Tree
p844
(dp845
g7
(imyEvolve
Tree
p846
(dp847
g17
I0
sg18
F-0.5350305079944961
sg19
I01
sbsg17
I1
sg24
(imyEvolve
Tree
p848
(dp849
g17
I0
sg19
I00
sbsg20
I00
sg21
g43
sbsg17
I2
sg24
(imyEvolve
Tree
p850
(dp851
g7
(imyEvolve
Tree
p852
(dp853
g17
I0
sg18
F-2.414883800739206
sg19
I01
sbsg17
I1
sg24
(imyEvolve
Tree
p854
(dp855
g17
I0
sg18
F4.975841378138821
sg19
I01
sbsg20
I00
sg21
g43
sbsg20
I00
sg21
g56
sbsg20
I00
sg21
g56
sbaa(lp856
(imyEvolve
Tree
p857
(dp858
g7
(imyEvolve
Tree
p859
(dp860
g7
(imyEvolve
Tree
p861
(dp862
g10
(imyEvolve
Tree
p863
(dp864
g17
I0
sg18
F3.5054068188841594
sg19
I01
sbsg17
I1
sg20
I01
sg21
g22
sbsg17
I2
sg24
(imyEvolve
Tree
p865
(dp866
g7
(imyEvolve
Tree
p867
(dp868
g17
I0
sg18
F0.6262576309711054
sg19
I01
sbsg17
I1
sg24
(imyEvolve
Tree
p869
(dp870
g17
I0
sg19
I00
sbsg20
I00
sg21
g42
sbsg20
I00
sg21
g43
sbsg17
I3
sg24
(imyEvolve
Tree
p871
(dp872
g10
(imyEvolve
Tree
p873
(dp874
g10
(imyEvolve
Tree
p875
(dp876
g17
I0
sg19
I00
sbsg17
I1
sg20
I01
sg21
g22
sbsg17
I2
sg20
I01
sg21
g33
sbsg20
I00
sg21
g43
sba(imyEvolve
Tree
p877
(dp878
g7
(imyEvolve
Tree
p879
(dp880
g10
(imyEvolve
Tree
p881
(dp882
g10
(imyEvolve
Tree
p883
(dp884
g17
I0
sg18
F-2.6986055737969283
sg19
I01
sbsg17
I1
sg20
I01
sg21
g22
sbsg17
I2
sg20
I01
sg21
g57
sbsg17
I3
sg24
(imyEvolve
Tree
p885
(dp886
g7
(imyEvolve
Tree
p887
(dp888
g7
(imyEvolve
Tree
p889
(dp890
g17
I0
sg18
F-1.377881429574912
sg19
I01
sbsg17
I1
sg24
(imyEvolve
Tree
p891
(dp892
g17
I0
sg19
I00
sbsg20
I00
sg21
g56
sbsg17
I2
sg24
(imyEvolve
Tree
p893
(dp894
g10
(imyEvolve
Tree
p895
(dp896
g17
I0
sg19
I00
sbsg17
I1
sg20
I01
sg21
g57
sbsg20
I00
sg21
g42
sbsg20
I00
sg21
g42
sba(imyEvolve
Tree
p897
(dp898
g10
(imyEvolve
Tree
p899
(dp900
g17
I1
sg7
(imyEvolve
Tree
p901
(dp902
g17
I0
sg18
F4.332415184797643
sg19
I01
sbsg24
(imyEvolve
Tree
p903
(dp904
g17
I0
sg19
I00
sbsg20
I00
sg21
g56
sbsg17
I2
sg20
I01
sg21
g23
sba(imyEvolve
Tree
p905
(dp906
g10
(imyEvolve
Tree
p907
(dp908
g10
(imyEvolve
Tree
p909
(dp910
g17
I2
sg7
(imyEvolve
Tree
p911
(dp912
g17
I1
sg7
(imyEvolve
Tree
p913
(dp914
g17
I0
sg18
F4.498315017216047
sg19
I01
sbsg24
(imyEvolve
Tree
p915
(dp916
g17
I0
sg18
F3.092511277952939
sg19
I01
sbsg20
I00
sg21
g56
sbsg24
(imyEvolve
Tree
p917
(dp918
g10
(imyEvolve
Tree
p919
(dp920
g17
I0
sg18
F-2.376263332875989
sg19
I01
sbsg17
I1
sg20
I01
sg21
g33
sbsg20
I00
sg21
g43
sbsg17
I3
sg20
I01
sg21
g57
sbsg17
I4
sg20
I01
sg21
g57
sba(imyEvolve
Tree
p921
(dp922
g10
(imyEvolve
Tree
p923
(dp924
g17
I2
sg7
(imyEvolve
Tree
p925
(dp926
g17
I1
sg7
(imyEvolve
Tree
p927
(dp928
g17
I0
sg18
F4.074345342256093
sg19
I01
sbsg24
(imyEvolve
Tree
p929
(dp930
g17
I0
sg18
F-0.6861801366770184
sg19
I01
sbsg20
I00
sg21
g42
sbsg24
(imyEvolve
Tree
p931
(dp932
g10
(imyEvolve
Tree
p933
(dp934
g17
I0
sg19
I00
sbsg17
I1
sg20
I01
sg21
g23
sbsg20
I00
sg21
g43
sbsg17
I3
sg20
I01
sg21
g33
sba(imyEvolve
Tree
p935
(dp936
g7
(imyEvolve
Tree
p937
(dp938
g7
(imyEvolve
Tree
p939
(dp940
g7
(imyEvolve
Tree
p941
(dp942
g10
(imyEvolve
Tree
p943
(dp944
g10
(imyEvolve
Tree
p945
(dp946
g17
I0
sg19
I00
sbsg17
I1
sg20
I01
sg21
g23
sbsg17
I2
sg20
I01
sg21
g22
sbsg17
I3
sg24
(imyEvolve
Tree
p947
(dp948
g10
(imyEvolve
Tree
p949
(dp950
g7
(imyEvolve
Tree
p951
(dp952
g17
I0
sg19
I00
sbsg17
I1
sg24
(imyEvolve
Tree
p953
(dp954
g17
I0
sg19
I00
sbsg20
I00
sg21
g43
sbsg17
I2
sg20
I01
sg21
g57
sbsg20
I00
sg21
g56
sbsg17
I4
sg24
(imyEvolve
Tree
p955
(dp956
g7
(imyEvolve
Tree
p957
(dp958
g7
(imyEvolve
Tree
p959
(dp960
g7
(imyEvolve
Tree
p961
(dp962
g17
I0
sg19
I00
sbsg17
I1
sg24
(imyEvolve
Tree
p963
(dp964
g17
I0
sg18
F2.6586616501568594
sg19
I01
sbsg20
I00
sg21
g43
sbsg17
I2
sg24
(imyEvolve
Tree
p965
(dp966
g7
(imyEvolve
Tree
p967
(dp968
g17
I0
sg19
I00
sbsg17
I1
sg24
(imyEvolve
Tree
p969
(dp970
g17
I0
sg19
I00
sbsg20
I00
sg21
g43
sbsg20
I00
sg21
g56
sbsg17
I3
sg24
(imyEvolve
Tree
p971
(dp972
g10
(imyEvolve
Tree
p973
(dp974
g7
(imyEvolve
Tree
p975
(dp976
g17
I0
sg18
F-3.01115895555872
sg19
I01
sbsg17
I1
sg24
(imyEvolve
Tree
p977
(dp978
g17
I0
sg18
F-4.459676237411595
sg19
I01
sbsg20
I00
sg21
g56
sbsg17
I2
sg20
I01
sg21
g22
sbsg20
I00
sg21
g43
sbsg20
I00
sg21
g56
sbsg17
I5
sg24
(imyEvolve
Tree
p979
(dp980
g7
(imyEvolve
Tree
p981
(dp982
g7
(imyEvolve
Tree
p983
(dp984
g10
(imyEvolve
Tree
p985
(dp986
g10
(imyEvolve
Tree
p987
(dp988
g17
I0
sg18
F2.3202691221587006
sg19
I01
sbsg17
I1
sg20
I01
sg21
g57
sbsg17
I2
sg20
I01
sg21
g23
sbsg17
I3
sg24
(imyEvolve
Tree
p989
(dp990
g7
(imyEvolve
Tree
p991
(dp992
g7
(imyEvolve
Tree
p993
(dp994
g17
I0
sg18
F3.7685427123499267
sg19
I01
sbsg17
I1
sg24
(imyEvolve
Tree
p995
(dp996
g17
I0
sg19
I00
sbsg20
I00
sg21
g56
sbsg17
I2
sg24
(imyEvolve
Tree
p997
(dp998
g7
(imyEvolve
Tree
p999
(dp1000
g17
I0
sg18
F0.19825187232827535
sg19
I01
sbsg17
I1
sg24
(imyEvolve
Tree
p1001
(dp1002
g17
I0
sg19
I00
sbsg20
I00
sg21
g42
sbsg20
I00
sg21
g43
sbsg20
I00
sg21
g42
sbsg17
I4
sg24
(imyEvolve
Tree
p1003
(dp1004
g7
(imyEvolve
Tree
p1005
(dp1006
g10
(imyEvolve
Tree
p1007
(dp1008
g7
(imyEvolve
Tree
p1009
(dp1010
g17
I0
sg18
F-3.5392911466354935
sg19
I01
sbsg17
I1
sg24
(imyEvolve
Tree
p1011
(dp1012
g17
I0
sg19
I00
sbsg20
I00
sg21
g56
sbsg17
I2
sg20
I01
sg21
g57
sbsg17
I3
sg24
(imyEvolve
Tree
p1013
(dp1014
g7
(imyEvolve
Tree
p1015
(dp1016
g7
(imyEvolve
Tree
p1017
(dp1018
g17
I0
sg18
F-4.308028690453016
sg19
I01
sbsg17
I1
sg24
(imyEvolve
Tree
p1019
(dp1020
g17
I0
sg19
I00
sbsg20
I00
sg21
g43
sbsg17
I2
sg24
(imyEvolve
Tree
p1021
(dp1022
g10
(imyEvolve
Tree
p1023
(dp1024
g17
I0
sg18
F-1.2210852721992724
sg19
I01
sbsg17
I1
sg20
I01
sg21
g23
sbsg20
I00
sg21
g42
sbsg20
I00
sg21
g42
sbsg20
I00
sg21
g43
sbsg20
I00
sg21
g43
sba(imyEvolve
Tree
p1025
(dp1026
g10
(imyEvolve
Tree
p1027
(dp1028
g10
(imyEvolve
Tree
p1029
(dp1030
g10
(imyEvolve
Tree
p1031
(dp1032
g17
I1
sg7
(imyEvolve
Tree
p1033
(dp1034
g17
I0
sg18
F-3.68414294629416
sg19
I01
sbsg24
(imyEvolve
Tree
p1035
(dp1036
g17
I0
sg18
F0.6804482852868121
sg19
I01
sbsg20
I00
sg21
g56
sbsg17
I2
sg20
I01
sg21
g23
sbsg17
I3
sg20
I01
sg21
g22
sbsg17
I4
sg20
I01
sg21
g22
sba(imyEvolve
Tree
p1037
(dp1038
g10
(imyEvolve
Tree
p1039
(dp1040
g10
(imyEvolve
Tree
p1041
(dp1042
g10
(imyEvolve
Tree
p1043
(dp1044
g10
(imyEvolve
Tree
p1045
(dp1046
g10
(imyEvolve
Tree
p1047
(dp1048
g17
I0
sg18
F-2.5712273494561035
sg19
I01
sbsg17
I1
sg20
I01
sg21
g33
sbsg17
I2
sg20
I01
sg21
g33
sbsg17
I3
sg20
I01
sg21
g22
sbsg17
I4
sg20
I01
sg21
g57
sbsg17
I5
sg20
I01
sg21
g57
sba(imyEvolve
Tree
p1049
(dp1050
g10
(imyEvolve
Tree
p1051
(dp1052
g17
I1
sg7
(imyEvolve
Tree
p1053
(dp1054
g17
I0
sg19
I00
sbsg24
(imyEvolve
Tree
p1055
(dp1056
g17
I0
sg19
I00
sbsg20
I00
sg21
g56
sbsg17
I2
sg20
I01
sg21
g23
sba(imyEvolve
Tree
p1057
(dp1058
g10
(imyEvolve
Tree
p1059
(dp1060
g10
(imyEvolve
Tree
p1061
(dp1062
g10
(imyEvolve
Tree
p1063
(dp1064
g7
(imyEvolve
Tree
p1065
(dp1066
g17
I0
sg19
I00
sbsg17
I1
sg24
(imyEvolve
Tree
p1067
(dp1068
g17
I0
sg19
I00
sbsg20
I00
sg21
g42
sbsg17
I2
sg20
I01
sg21
g22
sbsg17
I3
sg20
I01
sg21
g57
sbsg17
I4
sg20
I01
sg21
g33
sba(imyEvolve
Tree
p1069
(dp1070
g17
I2
sg7
(imyEvolve
Tree
p1071
(dp1072
g10
(imyEvolve
Tree
p1073
(dp1074
g17
I0
sg19
I00
sbsg17
I1
sg20
I01
sg21
g33
sbsg24
(imyEvolve
Tree
p1075
(dp1076
g17
I1
sg7
(imyEvolve
Tree
p1077
(dp1078
g17
I0
sg18
F1.2727712127237805
sg19
I01
sbsg24
(imyEvolve
Tree
p1079
(dp1080
g17
I0
sg18
F0.4507740526637569
sg19
I01
sbsg20
I00
sg21
g42
sbsg20
I00
sg21
g43
sba(imyEvolve
Tree
p1081
(dp1082
g7
(imyEvolve
Tree
p1083
(dp1084
g10
(imyEvolve
Tree
p1085
(dp1086
g7
(imyEvolve
Tree
p1087
(dp1088
g17
I0
sg19
I00
sbsg17
I1
sg24
(imyEvolve
Tree
p1089
(dp1090
g17
I0
sg19
I00
sbsg20
I00
sg21
g42
sbsg17
I2
sg20
I01
sg21
g33
sbsg17
I3
sg24
(imyEvolve
Tree
p1091
(dp1092
g10
(imyEvolve
Tree
p1093
(dp1094
g10
(imyEvolve
Tree
p1095
(dp1096
g17
I0
sg18
F4.268384079059334
sg19
I01
sbsg17
I1
sg20
I01
sg21
g57
sbsg17
I2
sg20
I01
sg21
g57
sbsg20
I00
sg21
g42
sba(imyEvolve
Tree
p1097
(dp1098
g17
I4
sg7
(imyEvolve
Tree
p1099
(dp1100
g10
(imyEvolve
Tree
p1101
(dp1102
g17
I2
sg7
(imyEvolve
Tree
p1103
(dp1104
g10
(imyEvolve
Tree
p1105
(dp1106
g17
I0
sg19
I00
sbsg17
I1
sg20
I01
sg21
g22
sbsg24
(imyEvolve
Tree
p1107
(dp1108
g10
(imyEvolve
Tree
p1109
(dp1110
g17
I0
sg18
F-3.717151736803894
sg19
I01
sbsg17
I1
sg20
I01
sg21
g22
sbsg20
I00
sg21
g56
sbsg17
I3
sg20
I01
sg21
g23
sbsg24
(imyEvolve
Tree
p1111
(dp1112
g10
(imyEvolve
Tree
p1113
(dp1114
g17
I2
sg7
(imyEvolve
Tree
p1115
(dp1116
g17
I1
sg7
(imyEvolve
Tree
p1117
(dp1118
g17
I0
sg19
I00
sbsg24
(imyEvolve
Tree
p1119
(dp1120
g17
I0
sg19
I00
sbsg20
I00
sg21
g56
sbsg24
(imyEvolve
Tree
p1121
(dp1122
g10
(imyEvolve
Tree
p1123
(dp1124
g17
I0
sg19
I00
sbsg17
I1
sg20
I01
sg21
g23
sbsg20
I00
sg21
g42
sbsg17
I3
sg20
I01
sg21
g33
sbsg20
I00
sg21
g42
sba(imyEvolve
Tree
p1125
(dp1126
g10
(imyEvolve
Tree
p1127
(dp1128
g10
(imyEvolve
Tree
p1129
(dp1130
g17
I0
sg18
F-2.3102449011677595
sg19
I01
sbsg17
I1
sg20
I01
sg21
g33
sbsg17
I2
sg20
I01
sg21
g33
sba(imyEvolve
Tree
p1131
(dp1132
g10
(imyEvolve
Tree
p1133
(dp1134
g7
(imyEvolve
Tree
p1135
(dp1136
g10
(imyEvolve
Tree
p1137
(dp1138
g10
(imyEvolve
Tree
p1139
(dp1140
g17
I0
sg19
I00
sbsg17
I1
sg20
I01
sg21
g33
sbsg17
I2
sg20
I01
sg21
g22
sbsg17
I3
sg24
(imyEvolve
Tree
p1141
(dp1142
g7
(imyEvolve
Tree
p1143
(dp1144
g10
(imyEvolve
Tree
p1145
(dp1146
g17
I0
sg19
I00
sbsg17
I1
sg20
I01
sg21
g57
sbsg17
I2
sg24
(imyEvolve
Tree
p1147
(dp1148
g10
(imyEvolve
Tree
p1149
(dp1150
g17
I0
sg18
F0.8760424691493345
sg19
I01
sbsg17
I1
sg20
I01
sg21
g57
sbsg20
I00
sg21
g56
sbsg20
I00
sg21
g56
sbsg17
I4
sg20
I01
sg21
g23
sba(imyEvolve
Tree
p1151
(dp1152
g10
(imyEvolve
Tree
p1153
(dp1154
g10
(imyEvolve
Tree
p1155
(dp1156
g17
I0
sg19
I00
sbsg17
I1
sg20
I01
sg21
g23
sbsg17
I2
sg20
I01
sg21
g33
sbaa(lp1157
(imyEvolve
Tree
p1158
(dp1159
g10
(imyEvolve
Tree
p1160
(dp1161
g10
(imyEvolve
Tree
p1162
(dp1163
g10
(imyEvolve
Tree
p1164
(dp1165
g10
(imyEvolve
Tree
p1166
(dp1167
g7
(imyEvolve
Tree
p1168
(dp1169
g17
I0
sg19
I00
sbsg17
I1
sg24
(imyEvolve
Tree
p1170
(dp1171
g17
I0
sg19
I00
sbsg20
I00
sg21
g43
sbsg17
I2
sg20
I01
sg21
g57
sbsg17
I3
sg20
I01
sg21
g33
sbsg17
I4
sg20
I01
sg21
g22
sbsg17
I5
sg20
I01
sg21
g22
sba(imyEvolve
Tree
p1172
(dp1173
g10
(imyEvolve
Tree
p1174
(dp1175
g17
I1
sg7
(imyEvolve
Tree
p1176
(dp1177
g17
I0
sg18
F2.0010459025902128
sg19
I01
sbsg24
(imyEvolve
Tree
p1178
(dp1179
g17
I0
sg19
I00
sbsg20
I00
sg21
g43
sbsg17
I2
sg20
I01
sg21
g22
sba(imyEvolve
Tree
p1180
(dp1181
g7
(imyEvolve
Tree
p1182
(dp1183
g10
(imyEvolve
Tree
p1184
(dp1185
g10
(imyEvolve
Tree
p1186
(dp1187
g10
(imyEvolve
Tree
p1188
(dp1189
g10
(imyEvolve
Tree
p1190
(dp1191
g17
I0
sg18
F-2.0535236785655284
sg19
I01
sbsg17
I1
sg20
I01
sg21
g33
sbsg17
I2
sg20
I01
sg21
g57
sbsg17
I3
sg20
I01
sg21
g23
sbsg17
I4
sg20
I01
sg21
g57
sbsg17
I5
sg24
(imyEvolve
Tree
p1192
(dp1193
g7
(imyEvolve
Tree
p1194
(dp1195
g10
(imyEvolve
Tree
p1196
(dp1197
g7
(imyEvolve
Tree
p1198
(dp1199
g10
(imyEvolve
Tree
p1200
(dp1201
g17
I0
sg19
I00
sbsg17
I1
sg20
I01
sg21
g57
sbsg17
I2
sg24
(imyEvolve
Tree
p1202
(dp1203
g10
(imyEvolve
Tree
p1204
(dp1205
g17
I0
sg19
I00
sbsg17
I1
sg20
I01
sg21
g57
sbsg20
I00
sg21
g56
sbsg17
I3
sg20
I01
sg21
g23
sbsg17
I4
sg24
(imyEvolve
Tree
p1206
(dp1207
g7
(imyEvolve
Tree
p1208
(dp1209
g10
(imyEvolve
Tree
p1210
(dp1211
g7
(imyEvolve
Tree
p1212
(dp1213
g17
I0
sg18
F3.2778553545503204
sg19
I01
sbsg17
I1
sg24
(imyEvolve
Tree
p1214
(dp1215
g17
I0
sg18
F1.3259549856298323
sg19
I01
sbsg20
I00
sg21
g43
sbsg17
I2
sg20
I01
sg21
g22
sbsg17
I3
sg24
(imyEvolve
Tree
p1216
(dp1217
g10
(imyEvolve
Tree
p1218
(dp1219
g7
(imyEvolve
Tree
p1220
(dp1221
g17
I0
sg18
F0.7166694701182603
sg19
I01
sbsg17
I1
sg24
(imyEvolve
Tree
p1222
(dp1223
g17
I0
sg19
I00
sbsg20
I00
sg21
g43
sbsg17
I2
sg20
I01
sg21
g33
sbsg20
I00
sg21
g42
sbsg20
I00
sg21
g43
sbsg20
I00
sg21
g42
sba(imyEvolve
Tree
p1224
(dp1225
g7
(imyEvolve
Tree
p1226
(dp1227
g7
(imyEvolve
Tree
p1228
(dp1229
g7
(imyEvolve
Tree
p1230
(dp1231
g7
(imyEvolve
Tree
p1232
(dp1233
g17
I0
sg19
I00
sbsg17
I1
sg24
(imyEvolve
Tree
p1234
(dp1235
g17
I0
sg18
F2.5668564158758143
sg19
I01
sbsg20
I00
sg21
g43
sbsg17
I2
sg24
(imyEvolve
Tree
p1236
(dp1237
g7
(imyEvolve
Tree
p1238
(dp1239
g17
I0
sg18
F3.4232980728301516
sg19
I01
sbsg17
I1
sg24
(imyEvolve
Tree
p1240
(dp1241
g17
I0
sg18
F-4.760597559671432
sg19
I01
sbsg20
I00
sg21
g42
sbsg20
I00
sg21
g56
sbsg17
I3
sg24
(imyEvolve
Tree
p1242
(dp1243
g10
(imyEvolve
Tree
p1244
(dp1245
g7
(imyEvolve
Tree
p1246
(dp1247
g17
I0
sg19
I00
sbsg17
I1
sg24
(imyEvolve
Tree
p1248
(dp1249
g17
I0
sg18
F4.866482724498072
sg19
I01
sbsg20
I00
sg21
g43
sbsg17
I2
sg20
I01
sg21
g22
sbsg20
I00
sg21
g42
sbsg17
I4
sg24
(imyEvolve
Tree
p1250
(dp1251
g7
(imyEvolve
Tree
p1252
(dp1253
g10
(imyEvolve
Tree
p1254
(dp1255
g10
(imyEvolve
Tree
p1256
(dp1257
g17
I0
sg19
I00
sbsg17
I1
sg20
I01
sg21
g23
sbsg17
I2
sg20
I01
sg21
g23
sbsg17
I3
sg24
(imyEvolve
Tree
p1258
(dp1259
g10
(imyEvolve
Tree
p1260
(dp1261
g10
(imyEvolve
Tree
p1262
(dp1263
g17
I0
sg19
I00
sbsg17
I1
sg20
I01
sg21
g33
sbsg17
I2
sg20
I01
sg21
g33
sbsg20
I00
sg21
g42
sbsg20
I00
sg21
g56
sba(imyEvolve
Tree
p1264
(dp1265
g7
(imyEvolve
Tree
p1266
(dp1267
g10
(imyEvolve
Tree
p1268
(dp1269
g10
(imyEvolve
Tree
p1270
(dp1271
g17
I0
sg19
I00
sbsg17
I1
sg20
I01
sg21
g57
sbsg17
I2
sg20
I01
sg21
g33
sbsg17
I3
sg24
(imyEvolve
Tree
p1272
(dp1273
g10
(imyEvolve
Tree
p1274
(dp1275
g10
(imyEvolve
Tree
p1276
(dp1277
g17
I0
sg19
I00
sbsg17
I1
sg20
I01
sg21
g23
sbsg17
I2
sg20
I01
sg21
g22
sbsg20
I00
sg21
g56
sba(imyEvolve
Tree
p1278
(dp1279
g10
(imyEvolve
Tree
p1280
(dp1281
g10
(imyEvolve
Tree
p1282
(dp1283
g7
(imyEvolve
Tree
p1284
(dp1285
g17
I0
sg18
F-1.1030434326499607
sg19
I01
sbsg17
I1
sg24
(imyEvolve
Tree
p1286
(dp1287
g17
I0
sg18
F1.228012950190144
sg19
I01
sbsg20
I00
sg21
g56
sbsg17
I2
sg20
I01
sg21
g23
sbsg17
I3
sg20
I01
sg21
g22
sba(imyEvolve
Tree
p1288
(dp1289
g7
(imyEvolve
Tree
p1290
(dp1291
g10
(imyEvolve
Tree
p1292
(dp1293
g10
(imyEvolve
Tree
p1294
(dp1295
g17
I0
sg18
F0.12951811867115737
sg19
I01
sbsg17
I1
sg20
I01
sg21
g22
sbsg17
I2
sg20
I01
sg21
g22
sbsg17
I3
sg24
(imyEvolve
Tree
p1296
(dp1297
g10
(imyEvolve
Tree
p1298
(dp1299
g10
(imyEvolve
Tree
p1300
(dp1301
g17
I0
sg19
I00
sbsg17
I1
sg20
I01
sg21
g23
sbsg17
I2
sg20
I01
sg21
g57
sbsg20
I00
sg21
g56
sba(imyEvolve
Tree
p1302
(dp1303
g17
I3
sg7
(imyEvolve
Tree
p1304
(dp1305
g17
I2
sg7
(imyEvolve
Tree
p1306
(dp1307
g10
(imyEvolve
Tree
p1308
(dp1309
g17
I0
sg18
F1.4352506779642846
sg19
I01
sbsg17
I1
sg20
I01
sg21
g57
sbsg24
(imyEvolve
Tree
p1310
(dp1311
g17
I1
sg7
(imyEvolve
Tree
p1312
(dp1313
g17
I0
sg19
I00
sbsg24
(imyEvolve
Tree
p1314
(dp1315
g17
I0
sg18
F-1.931143725366037
sg19
I01
sbsg20
I00
sg21
g42
sbsg20
I00
sg21
g43
sbsg24
(imyEvolve
Tree
p1316
(dp1317
g10
(imyEvolve
Tree
p1318
(dp1319
g10
(imyEvolve
Tree
p1320
(dp1321
g17
I0
sg19
I00
sbsg17
I1
sg20
I01
sg21
g22
sbsg17
I2
sg20
I01
sg21
g23
sbsg20
I00
sg21
g42
sba(imyEvolve
Tree
p1322
(dp1323
g7
(imyEvolve
Tree
p1324
(dp1325
g10
(imyEvolve
Tree
p1326
(dp1327
g7
(imyEvolve
Tree
p1328
(dp1329
g7
(imyEvolve
Tree
p1330
(dp1331
g7
(imyEvolve
Tree
p1332
(dp1333
g17
I0
sg18
F1.4116389407382615
sg19
I01
sbsg17
I1
sg24
(imyEvolve
Tree
p1334
(dp1335
g17
I0
sg19
I00
sbsg20
I00
sg21
g43
sbsg17
I2
sg24
(imyEvolve
Tree
p1336
(dp1337
g7
(imyEvolve
Tree
p1338
(dp1339
g17
I0
sg18
F-1.0873645725111656
sg19
I01
sbsg17
I1
sg24
(imyEvolve
Tree
p1340
(dp1341
g17
I0
sg18
F3.04871460478285
sg19
I01
sbsg20
I00
sg21
g42
sbsg20
I00
sg21
g43
sbsg17
I3
sg24
(imyEvolve
Tree
p1342
(dp1343
g10
(imyEvolve
Tree
p1344
(dp1345
g10
(imyEvolve
Tree
p1346
(dp1347
g17
I0
sg19
I00
sbsg17
I1
sg20
I01
sg21
g57
sbsg17
I2
sg20
I01
sg21
g23
sbsg20
I00
sg21
g56
sbsg17
I4
sg20
I01
sg21
g57
sbsg17
I5
sg24
(imyEvolve
Tree
p1348
(dp1349
g7
(imyEvolve
Tree
p1350
(dp1351
g10
(imyEvolve
Tree
p1352
(dp1353
g10
(imyEvolve
Tree
p1354
(dp1355
g7
(imyEvolve
Tree
p1356
(dp1357
g17
I0
sg18
F-1.4086109620731415
sg19
I01
sbsg17
I1
sg24
(imyEvolve
Tree
p1358
(dp1359
g17
I0
sg19
I00
sbsg20
I00
sg21
g42
sbsg17
I2
sg20
I01
sg21
g22
sbsg17
I3
sg20
I01
sg21
g23
sbsg17
I4
sg24
(imyEvolve
Tree
p1360
(dp1361
g10
(imyEvolve
Tree
p1362
(dp1363
g10
(imyEvolve
Tree
p1364
(dp1365
g7
(imyEvolve
Tree
p1366
(dp1367
g17
I0
sg18
F-1.1104984481577382
sg19
I01
sbsg17
I1
sg24
(imyEvolve
Tree
p1368
(dp1369
g17
I0
sg18
F-2.0689089456161436
sg19
I01
sbsg20
I00
sg21
g56
sbsg17
I2
sg20
I01
sg21
g57
sbsg17
I3
sg20
I01
sg21
g33
sbsg20
I00
sg21
g56
sbsg20
I00
sg21
g42
sba(imyEvolve
Tree
p1370
(dp1371
g7
(imyEvolve
Tree
p1372
(dp1373
g10
(imyEvolve
Tree
p1374
(dp1375
g10
(imyEvolve
Tree
p1376
(dp1377
g7
(imyEvolve
Tree
p1378
(dp1379
g7
(imyEvolve
Tree
p1380
(dp1381
g17
I0
sg19
I00
sbsg17
I1
sg24
(imyEvolve
Tree
p1382
(dp1383
g17
I0
sg18
F-3.527276896939975
sg19
I01
sbsg20
I00
sg21
g56
sbsg17
I2
sg24
(imyEvolve
Tree
p1384
(dp1385
g7
(imyEvolve
Tree
p1386
(dp1387
g17
I0
sg18
F-0.9328692905495632
sg19
I01
sbsg17
I1
sg24
(imyEvolve
Tree
p1388
(dp1389
g17
I0
sg18
F-4.172451690390131
sg19
I01
sbsg20
I00
sg21
g43
sbsg20
I00
sg21
g43
sbsg17
I3
sg20
I01
sg21
g57
sbsg17
I4
sg20
I01
sg21
g22
sbsg17
I5
sg24
(imyEvolve
Tree
p1390
(dp1391
g10
(imyEvolve
Tree
p1392
(dp1393
g7
(imyEvolve
Tree
p1394
(dp1395
g10
(imyEvolve
Tree
p1396
(dp1397
g7
(imyEvolve
Tree
p1398
(dp1399
g17
I0
sg19
I00
sbsg17
I1
sg24
(imyEvolve
Tree
p1400
(dp1401
g17
I0
sg18
F1.0685724340679101
sg19
I01
sbsg20
I00
sg21
g42
sbsg17
I2
sg20
I01
sg21
g23
sbsg17
I3
sg24
(imyEvolve
Tree
p1402
(dp1403
g7
(imyEvolve
Tree
p1404
(dp1405
g10
(imyEvolve
Tree
p1406
(dp1407
g17
I0
sg18
F1.8844263729819888
sg19
I01
sbsg17
I1
sg20
I01
sg21
g23
sbsg17
I2
sg24
(imyEvolve
Tree
p1408
(dp1409
g7
(imyEvolve
Tree
p1410
(dp1411
g17
I0
sg19
I00
sbsg17
I1
sg24
(imyEvolve
Tree
p1412
(dp1413
g17
I0
sg18
F-1.983303008879914
sg19
I01
sbsg20
I00
sg21
g56
sbsg20
I00
sg21
g42
sbsg20
I00
sg21
g56
sbsg17
I4
sg20
I01
sg21
g57
sbsg20
I00
sg21
g56
sba(imyEvolve
Tree
p1414
(dp1415
g10
(imyEvolve
Tree
p1416
(dp1417
g10
(imyEvolve
Tree
p1418
(dp1419
g10
(imyEvolve
Tree
p1420
(dp1421
g17
I0
sg18
F4.170452359029376
sg19
I01
sbsg17
I1
sg20
I01
sg21
g33
sbsg17
I2
sg20
I01
sg21
g57
sbsg17
I3
sg20
I01
sg21
g23
sba(imyEvolve
Tree
p1422
(dp1423
g10
(imyEvolve
Tree
p1424
(dp1425
g10
(imyEvolve
Tree
p1426
(dp1427
g7
(imyEvolve
Tree
p1428
(dp1429
g17
I0
sg18
F-4.3586380433050245
sg19
I01
sbsg17
I1
sg24
(imyEvolve
Tree
p1430
(dp1431
g17
I0
sg18
F-2.6966810752846717
sg19
I01
sbsg20
I00
sg21
g43
sbsg17
I2
sg20
I01
sg21
g57
sbsg17
I3
sg20
I01
sg21
g23
sba(imyEvolve
Tree
p1432
(dp1433
g17
I5
sg7
(imyEvolve
Tree
p1434
(dp1435
g10
(imyEvolve
Tree
p1436
(dp1437
g17
I3
sg7
(imyEvolve
Tree
p1438
(dp1439
g10
(imyEvolve
Tree
p1440
(dp1441
g17
I1
sg7
(imyEvolve
Tree
p1442
(dp1443
g17
I0
sg18
F2.0182598892802117
sg19
I01
sbsg24
(imyEvolve
Tree
p1444
(dp1445
g17
I0
sg18
F-0.6815055302108419
sg19
I01
sbsg20
I00
sg21
g42
sbsg17
I2
sg20
I01
sg21
g57
sbsg24
(imyEvolve
Tree
p1446
(dp1447
g17
I2
sg7
(imyEvolve
Tree
p1448
(dp1449
g17
I1
sg7
(imyEvolve
Tree
p1450
(dp1451
g17
I0
sg18
F0.987800766893292
sg19
I01
sbsg24
(imyEvolve
Tree
p1452
(dp1453
g17
I0
sg19
I00
sbsg20
I00
sg21
g43
sbsg24
(imyEvolve
Tree
p1454
(dp1455
g10
(imyEvolve
Tree
p1456
(dp1457
g17
I0
sg18
F-4.372264894270918
sg19
I01
sbsg17
I1
sg20
I01
sg21
g23
sbsg20
I00
sg21
g56
sbsg20
I00
sg21
g42
sbsg17
I4
sg20
I01
sg21
g23
sbsg24
(imyEvolve
Tree
p1458
(dp1459
g17
I4
sg7
(imyEvolve
Tree
p1460
(dp1461
g17
I3
sg7
(imyEvolve
Tree
p1462
(dp1463
g10
(imyEvolve
Tree
p1464
(dp1465
g17
I1
sg7
(imyEvolve
Tree
p1466
(dp1467
g17
I0
sg19
I00
sbsg24
(imyEvolve
Tree
p1468
(dp1469
g17
I0
sg19
I00
sbsg20
I00
sg21
g43
sbsg17
I2
sg20
I01
sg21
g22
sbsg24
(imyEvolve
Tree
p1470
(dp1471
g10
(imyEvolve
Tree
p1472
(dp1473
g10
(imyEvolve
Tree
p1474
(dp1475
g17
I0
sg18
F3.781626519726922
sg19
I01
sbsg17
I1
sg20
I01
sg21
g22
sbsg17
I2
sg20
I01
sg21
g33
sbsg20
I00
sg21
g56
sbsg24
(imyEvolve
Tree
p1476
(dp1477
g10
(imyEvolve
Tree
p1478
(dp1479
g10
(imyEvolve
Tree
p1480
(dp1481
g17
I1
sg7
(imyEvolve
Tree
p1482
(dp1483
g17
I0
sg19
I00
sbsg24
(imyEvolve
Tree
p1484
(dp1485
g17
I0
sg19
I00
sbsg20
I00
sg21
g56
sbsg17
I2
sg20
I01
sg21
g23
sbsg17
I3
sg20
I01
sg21
g33
sbsg20
I00
sg21
g42
sbsg20
I00
sg21
g42
sba(imyEvolve
Tree
p1486
(dp1487
g10
(imyEvolve
Tree
p1488
(dp1489
g10
(imyEvolve
Tree
p1490
(dp1491
g17
I3
sg7
(imyEvolve
Tree
p1492
(dp1493
g10
(imyEvolve
Tree
p1494
(dp1495
g10
(imyEvolve
Tree
p1496
(dp1497
g17
I0
sg18
F-3.450210854715503
sg19
I01
sbsg17
I1
sg20
I01
sg21
g23
sbsg17
I2
sg20
I01
sg21
g23
sbsg24
(imyEvolve
Tree
p1498
(dp1499
g17
I2
sg7
(imyEvolve
Tree
p1500
(dp1501
g17
I1
sg7
(imyEvolve
Tree
p1502
(dp1503
g17
I0
sg19
I00
sbsg24
(imyEvolve
Tree
p1504
(dp1505
g17
I0
sg19
I00
sbsg20
I00
sg21
g43
sbsg24
(imyEvolve
Tree
p1506
(dp1507
g10
(imyEvolve
Tree
p1508
(dp1509
g17
I0
sg18
F-2.5893731070852697
sg19
I01
sbsg17
I1
sg20
I01
sg21
g33
sbsg20
I00
sg21
g43
sbsg20
I00
sg21
g43
sbsg17
I4
sg20
I01
sg21
g33
sbsg17
I5
sg20
I01
sg21
g23
sbaasS'alpha'
p1510
F0.007694606804776494
sS'fitness'
p1511
cnumpy.core.multiarray
scalar
p1512
(cnumpy
dtype
p1513
(S'f8'
p1514
I0
I1
tp1515
Rp1516
(I3
S'<'
p1517
NNNI-1
I-1
I0
tp1518
bS'\x00\t\xac\x1c\r\tk?'
p1519
tp1520
Rp1521
sS'weightSharing'
p1522
(lp1523
I00
aI00
asS'fitnessValid'
p1524
I00
sS'resolution'
p1525
I84
sb.