(imyEvolve
Individual
p0
(dp1
S'funcs'
p2
(lp3
(lp4
(imyEvolve
Tree
p5
(dp6
S'below'
p7
(imyEvolve
Tree
p8
(dp9
g7
(imyEvolve
Tree
p10
(dp11
S'depth'
p12
I0
sS'isConstant'
p13
I00
sbsg12
I1
sS'single'
p14
I01
sS'op'
p15
cmath
cos
p16
sbsg12
I2
sg14
I01
sg15
cmath
sin
p17
sba(imyEvolve
Tree
p18
(dp19
g12
I2
sS'left'
p20
(imyEvolve
Tree
p21
(dp22
g12
I1
sg20
(imyEvolve
Tree
p23
(dp24
g12
I0
sg13
I00
sbsS'right'
p25
(imyEvolve
Tree
p26
(dp27
g12
I0
sg13
I00
sbsg14
I00
sg15
coperator
add
p28
sbsg25
(imyEvolve
Tree
p29
(dp30
g7
(imyEvolve
Tree
p31
(dp32
g12
I0
sg13
I00
sbsg12
I1
sg14
I01
sg15
g17
sbsg14
I00
sg15
coperator
mul
p33
sba(imyEvolve
Tree
p34
(dp35
g12
I3
sg20
(imyEvolve
Tree
p36
(dp37
g7
(imyEvolve
Tree
p38
(dp39
g12
I1
sg20
(imyEvolve
Tree
p40
(dp41
g12
I0
sS'constant'
p42
F-2.3755046796891555
sg13
I01
sbsg25
(imyEvolve
Tree
p43
(dp44
g12
I0
sg13
I00
sbsg14
I00
sg15
g28
sbsg12
I2
sg14
I01
sg15
g16
sbsg25
(imyEvolve
Tree
p45
(dp46
g7
(imyEvolve
Tree
p47
(dp48
g12
I1
sg20
(imyEvolve
Tree
p49
(dp50
g12
I0
sg42
F4.497692999716961
sg13
I01
sbsg25
(imyEvolve
Tree
p51
(dp52
g12
I0
sg42
F-3.955079454690954
sg13
I01
sbsg14
I00
sg15
g33
sbsg12
I2
sg14
I01
sg15
cmyEvolve
absSqrt
p53
sbsg14
I00
sg15
g28
sba(imyEvolve
Tree
p54
(dp55
g7
(imyEvolve
Tree
p56
(dp57
g7
(imyEvolve
Tree
p58
(dp59
g12
I0
sg42
F0.6711135946314704
sg13
I01
sbsg12
I1
sg14
I01
sg15
g53
sbsg12
I2
sg14
I01
sg15
g53
sba(imyEvolve
Tree
p60
(dp61
g7
(imyEvolve
Tree
p62
(dp63
g7
(imyEvolve
Tree
p64
(dp65
g12
I2
sg20
(imyEvolve
Tree
p66
(dp67
g7
(imyEvolve
Tree
p68
(dp69
g12
I0
sg13
I00
sbsg12
I1
sg14
I01
sg15
g17
sbsg25
(imyEvolve
Tree
p70
(dp71
g12
I1
sg20
(imyEvolve
Tree
p72
(dp73
g12
I0
sg13
I00
sbsg25
(imyEvolve
Tree
p74
(dp75
g12
I0
sg42
F-3.653863236418815
sg13
I01
sbsg14
I00
sg15
coperator
sub
p76
sbsg14
I00
sg15
g76
sbsg12
I3
sg14
I01
sg15
g53
sbsg12
I4
sg14
I01
sg15
cmyEvolve
square
p77
sba(imyEvolve
Tree
p78
(dp79
g12
I2
sg20
(imyEvolve
Tree
p80
(dp81
g7
(imyEvolve
Tree
p82
(dp83
g12
I0
sg42
F-3.877658888944777
sg13
I01
sbsg12
I1
sg14
I01
sg15
g17
sbsg25
(imyEvolve
Tree
p84
(dp85
g12
I1
sg20
(imyEvolve
Tree
p86
(dp87
g12
I0
sg13
I00
sbsg25
(imyEvolve
Tree
p88
(dp89
g12
I0
sg42
F2.8336170116339368
sg13
I01
sbsg14
I00
sg15
g76
sbsg14
I00
sg15
g28
sba(imyEvolve
Tree
p90
(dp91
g7
(imyEvolve
Tree
p92
(dp93
g12
I1
sg20
(imyEvolve
Tree
p94
(dp95
g12
I0
sg42
F-0.9176410071201957
sg13
I01
sbsg25
(imyEvolve
Tree
p96
(dp97
g12
I0
sg13
I00
sbsg14
I00
sg15
g28
sbsg12
I2
sg14
I01
sg15
g17
sba(imyEvolve
Tree
p98
(dp99
g12
I4
sg20
(imyEvolve
Tree
p100
(dp101
g7
(imyEvolve
Tree
p102
(dp103
g7
(imyEvolve
Tree
p104
(dp105
g7
(imyEvolve
Tree
p106
(dp107
g12
I0
sg42
F-0.010779968397108597
sg13
I01
sbsg12
I1
sg14
I01
sg15
g53
sbsg12
I2
sg14
I01
sg15
g16
sbsg12
I3
sg14
I01
sg15
g16
sbsg25
(imyEvolve
Tree
p108
(dp109
g12
I3
sg20
(imyEvolve
Tree
p110
(dp111
g7
(imyEvolve
Tree
p112
(dp113
g7
(imyEvolve
Tree
p114
(dp115
g12
I0
sg13
I00
sbsg12
I1
sg14
I01
sg15
g16
sbsg12
I2
sg14
I01
sg15
g53
sbsg25
(imyEvolve
Tree
p116
(dp117
g12
I2
sg20
(imyEvolve
Tree
p118
(dp119
g12
I1
sg20
(imyEvolve
Tree
p120
(dp121
g12
I0
sg13
I00
sbsg25
(imyEvolve
Tree
p122
(dp123
g12
I0
sg42
F-0.10632354709577108
sg13
I01
sbsg14
I00
sg15
g33
sbsg25
(imyEvolve
Tree
p124
(dp125
g12
I1
sg20
(imyEvolve
Tree
p126
(dp127
g12
I0
sg42
F-1.013564953275119
sg13
I01
sbsg25
(imyEvolve
Tree
p128
(dp129
g12
I0
sg13
I00
sbsg14
I00
sg15
g33
sbsg14
I00
sg15
g28
sbsg14
I00
sg15
g76
sbsg14
I00
sg15
g33
sba(imyEvolve
Tree
p130
(dp131
g12
I2
sg20
(imyEvolve
Tree
p132
(dp133
g7
(imyEvolve
Tree
p134
(dp135
g12
I0
sg13
I00
sbsg12
I1
sg14
I01
sg15
g17
sbsg25
(imyEvolve
Tree
p136
(dp137
g12
I1
sg20
(imyEvolve
Tree
p138
(dp139
g12
I0
sg13
I00
sbsg25
(imyEvolve
Tree
p140
(dp141
g12
I0
sg13
I00
sbsg14
I00
sg15
g76
sbsg14
I00
sg15
g33
sba(imyEvolve
Tree
p142
(dp143
g7
(imyEvolve
Tree
p144
(dp145
g12
I1
sg20
(imyEvolve
Tree
p146
(dp147
g12
I0
sg13
I00
sbsg25
(imyEvolve
Tree
p148
(dp149
g12
I0
sg42
F0.08804194448027491
sg13
I01
sbsg14
I00
sg15
g76
sbsg12
I2
sg14
I01
sg15
g53
sba(imyEvolve
Tree
p150
(dp151
g7
(imyEvolve
Tree
p152
(dp153
g7
(imyEvolve
Tree
p154
(dp155
g7
(imyEvolve
Tree
p156
(dp157
g7
(imyEvolve
Tree
p158
(dp159
g12
I0
sg13
I00
sbsg12
I1
sg14
I01
sg15
g77
sbsg12
I2
sg14
I01
sg15
g16
sbsg12
I3
sg14
I01
sg15
g77
sbsg12
I4
sg14
I01
sg15
g53
sba(imyEvolve
Tree
p160
(dp161
g7
(imyEvolve
Tree
p162
(dp163
g12
I1
sg20
(imyEvolve
Tree
p164
(dp165
g12
I0
sg13
I00
sbsg25
(imyEvolve
Tree
p166
(dp167
g12
I0
sg42
F-1.8749238644449537
sg13
I01
sbsg14
I00
sg15
g76
sbsg12
I2
sg14
I01
sg15
g77
sba(imyEvolve
Tree
p168
(dp169
g7
(imyEvolve
Tree
p170
(dp171
g7
(imyEvolve
Tree
p172
(dp173
g12
I0
sg42
F-4.924523545463905
sg13
I01
sbsg12
I1
sg14
I01
sg15
g17
sbsg12
I2
sg14
I01
sg15
g53
sba(imyEvolve
Tree
p174
(dp175
g7
(imyEvolve
Tree
p176
(dp177
g12
I1
sg20
(imyEvolve
Tree
p178
(dp179
g12
I0
sg13
I00
sbsg25
(imyEvolve
Tree
p180
(dp181
g12
I0
sg42
F1.388317032773707
sg13
I01
sbsg14
I00
sg15
g33
sbsg12
I2
sg14
I01
sg15
g17
sba(imyEvolve
Tree
p182
(dp183
g12
I2
sg20
(imyEvolve
Tree
p184
(dp185
g12
I1
sg20
(imyEvolve
Tree
p186
(dp187
g12
I0
sg42
F-4.6703807540928635
sg13
I01
sbsg25
(imyEvolve
Tree
p188
(dp189
g12
I0
sg13
I00
sbsg14
I00
sg15
g28
sbsg25
(imyEvolve
Tree
p190
(dp191
g7
(imyEvolve
Tree
p192
(dp193
g12
I0
sg42
F1.6032627059302706
sg13
I01
sbsg12
I1
sg14
I01
sg15
g16
sbsg14
I00
sg15
g33
sba(imyEvolve
Tree
p194
(dp195
g12
I3
sg20
(imyEvolve
Tree
p196
(dp197
g12
I2
sg20
(imyEvolve
Tree
p198
(dp199
g7
(imyEvolve
Tree
p200
(dp201
g12
I0
sg42
F-3.689593286620779
sg13
I01
sbsg12
I1
sg14
I01
sg15
g16
sbsg25
(imyEvolve
Tree
p202
(dp203
g7
(imyEvolve
Tree
p204
(dp205
g12
I0
sg13
I00
sbsg12
I1
sg14
I01
sg15
g17
sbsg14
I00
sg15
g76
sbsg25
(imyEvolve
Tree
p206
(dp207
g12
I2
sg20
(imyEvolve
Tree
p208
(dp209
g7
(imyEvolve
Tree
p210
(dp211
g12
I0
sg13
I00
sbsg12
I1
sg14
I01
sg15
g53
sbsg25
(imyEvolve
Tree
p212
(dp213
g12
I1
sg20
(imyEvolve
Tree
p214
(dp215
g12
I0
sg42
F4.086560792093163
sg13
I01
sbsg25
(imyEvolve
Tree
p216
(dp217
g12
I0
sg42
F4.764956773939291
sg13
I01
sbsg14
I00
sg15
g28
sbsg14
I00
sg15
g33
sbsg14
I00
sg15
g33
sba(imyEvolve
Tree
p218
(dp219
g7
(imyEvolve
Tree
p220
(dp221
g12
I3
sg20
(imyEvolve
Tree
p222
(dp223
g12
I2
sg20
(imyEvolve
Tree
p224
(dp225
g12
I1
sg20
(imyEvolve
Tree
p226
(dp227
g12
I0
sg42
F-2.4503151444989357
sg13
I01
sbsg25
(imyEvolve
Tree
p228
(dp229
g12
I0
sg42
F-4.4698227419566985
sg13
I01
sbsg14
I00
sg15
g28
sbsg25
(imyEvolve
Tree
p230
(dp231
g7
(imyEvolve
Tree
p232
(dp233
g12
I0
sg13
I00
sbsg12
I1
sg14
I01
sg15
g17
sbsg14
I00
sg15
g76
sbsg25
(imyEvolve
Tree
p234
(dp235
g7
(imyEvolve
Tree
p236
(dp237
g12
I1
sg20
(imyEvolve
Tree
p238
(dp239
g12
I0
sg42
F0.04282104062643821
sg13
I01
sbsg25
(imyEvolve
Tree
p240
(dp241
g12
I0
sg42
F-1.1541287543801806
sg13
I01
sbsg14
I00
sg15
g28
sbsg12
I2
sg14
I01
sg15
g17
sbsg14
I00
sg15
g33
sbsg12
I4
sg14
I01
sg15
g53
sba(imyEvolve
Tree
p242
(dp243
g12
I3
sg20
(imyEvolve
Tree
p244
(dp245
g12
I2
sg20
(imyEvolve
Tree
p246
(dp247
g12
I1
sg20
(imyEvolve
Tree
p248
(dp249
g12
I0
sg13
I00
sbsg25
(imyEvolve
Tree
p250
(dp251
g12
I0
sg13
I00
sbsg14
I00
sg15
g28
sbsg25
(imyEvolve
Tree
p252
(dp253
g7
(imyEvolve
Tree
p254
(dp255
g12
I0
sg42
F-2.7162176529690027
sg13
I01
sbsg12
I1
sg14
I01
sg15
g53
sbsg14
I00
sg15
g28
sbsg25
(imyEvolve
Tree
p256
(dp257
g12
I2
sg20
(imyEvolve
Tree
p258
(dp259
g12
I1
sg20
(imyEvolve
Tree
p260
(dp261
g12
I0
sg42
F-1.5369536305600828
sg13
I01
sbsg25
(imyEvolve
Tree
p262
(dp263
g12
I0
sg13
I00
sbsg14
I00
sg15
g76
sbsg25
(imyEvolve
Tree
p264
(dp265
g7
(imyEvolve
Tree
p266
(dp267
g12
I0
sg42
F-2.373365239029156
sg13
I01
sbsg12
I1
sg14
I01
sg15
g53
sbsg14
I00
sg15
g76
sbsg14
I00
sg15
g33
sbaa(lp268
(imyEvolve
Tree
p269
(dp270
g7
(imyEvolve
Tree
p271
(dp272
g7
(imyEvolve
Tree
p273
(dp274
g7
(imyEvolve
Tree
p275
(dp276
g12
I0
sg42
F-3.5084594571635517
sg13
I01
sbsg12
I1
sg14
I01
sg15
g16
sbsg12
I2
sg14
I01
sg15
g16
sbsg12
I3
sg14
I01
sg15
g77
sba(imyEvolve
Tree
p277
(dp278
g12
I5
sg20
(imyEvolve
Tree
p279
(dp280
g7
(imyEvolve
Tree
p281
(dp282
g12
I3
sg20
(imyEvolve
Tree
p283
(dp284
g7
(imyEvolve
Tree
p285
(dp286
g12
I1
sg20
(imyEvolve
Tree
p287
(dp288
g12
I0
sg42
F3.93393545007031
sg13
I01
sbsg25
(imyEvolve
Tree
p289
(dp290
g12
I0
sg13
I00
sbsg14
I00
sg15
g33
sbsg12
I2
sg14
I01
sg15
g53
sbsg25
(imyEvolve
Tree
p291
(dp292
g7
(imyEvolve
Tree
p293
(dp294
g12
I1
sg20
(imyEvolve
Tree
p295
(dp296
g12
I0
sg42
F1.8763601369150953
sg13
I01
sbsg25
(imyEvolve
Tree
p297
(dp298
g12
I0
sg13
I00
sbsg14
I00
sg15
g28
sbsg12
I2
sg14
I01
sg15
g17
sbsg14
I00
sg15
g33
sbsg12
I4
sg14
I01
sg15
g77
sbsg25
(imyEvolve
Tree
p299
(dp300
g12
I4
sg20
(imyEvolve
Tree
p301
(dp302
g7
(imyEvolve
Tree
p303
(dp304
g7
(imyEvolve
Tree
p305
(dp306
g7
(imyEvolve
Tree
p307
(dp308
g12
I0
sg13
I00
sbsg12
I1
sg14
I01
sg15
g17
sbsg12
I2
sg14
I01
sg15
g77
sbsg12
I3
sg14
I01
sg15
g53
sbsg25
(imyEvolve
Tree
p309
(dp310
g7
(imyEvolve
Tree
p311
(dp312
g12
I2
sg20
(imyEvolve
Tree
p313
(dp314
g7
(imyEvolve
Tree
p315
(dp316
g12
I0
sg42
F3.1275390054677494
sg13
I01
sbsg12
I1
sg14
I01
sg15
g16
sbsg25
(imyEvolve
Tree
p317
(dp318
g7
(imyEvolve
Tree
p319
(dp320
g12
I0
sg42
F-3.4502053182836123
sg13
I01
sbsg12
I1
sg14
I01
sg15
g17
sbsg14
I00
sg15
g28
sbsg12
I3
sg14
I01
sg15
g77
sbsg14
I00
sg15
g33
sbsg14
I00
sg15
g28
sba(imyEvolve
Tree
p321
(dp322
g7
(imyEvolve
Tree
p323
(dp324
g7
(imyEvolve
Tree
p325
(dp326
g7
(imyEvolve
Tree
p327
(dp328
g12
I2
sg20
(imyEvolve
Tree
p329
(dp330
g7
(imyEvolve
Tree
p331
(dp332
g12
I0
sg42
F2.9591846001966724
sg13
I01
sbsg12
I1
sg14
I01
sg15
g77
sbsg25
(imyEvolve
Tree
p333
(dp334
g12
I1
sg20
(imyEvolve
Tree
p335
(dp336
g12
I0
sg42
F3.533350561621095
sg13
I01
sbsg25
(imyEvolve
Tree
p337
(dp338
g12
I0
sg13
I00
sbsg14
I00
sg15
g33
sbsg14
I00
sg15
g33
sbsg12
I3
sg14
I01
sg15
g53
sbsg12
I4
sg14
I01
sg15
g77
sbsg12
I5
sg14
I01
sg15
g16
sba(imyEvolve
Tree
p339
(dp340
g12
I5
sg20
(imyEvolve
Tree
p341
(dp342
g7
(imyEvolve
Tree
p343
(dp344
g7
(imyEvolve
Tree
p345
(dp346
g7
(imyEvolve
Tree
p347
(dp348
g7
(imyEvolve
Tree
p349
(dp350
g12
I0
sg42
F2.7328304035801416
sg13
I01
sbsg12
I1
sg14
I01
sg15
g53
sbsg12
I2
sg14
I01
sg15
g77
sbsg12
I3
sg14
I01
sg15
g16
sbsg12
I4
sg14
I01
sg15
g17
sbsg25
(imyEvolve
Tree
p351
(dp352
g12
I4
sg20
(imyEvolve
Tree
p353
(dp354
g12
I3
sg20
(imyEvolve
Tree
p355
(dp356
g12
I2
sg20
(imyEvolve
Tree
p357
(dp358
g12
I1
sg20
(imyEvolve
Tree
p359
(dp360
g12
I0
sg13
I00
sbsg25
(imyEvolve
Tree
p361
(dp362
g12
I0
sg13
I00
sbsg14
I00
sg15
g33
sbsg25
(imyEvolve
Tree
p363
(dp364
g7
(imyEvolve
Tree
p365
(dp366
g12
I0
sg13
I00
sbsg12
I1
sg14
I01
sg15
g16
sbsg14
I00
sg15
g28
sbsg25
(imyEvolve
Tree
p367
(dp368
g7
(imyEvolve
Tree
p369
(dp370
g12
I1
sg20
(imyEvolve
Tree
p371
(dp372
g12
I0
sg42
F-2.538612453437824
sg13
I01
sbsg25
(imyEvolve
Tree
p373
(dp374
g12
I0
sg13
I00
sbsg14
I00
sg15
g28
sbsg12
I2
sg14
I01
sg15
g53
sbsg14
I00
sg15
g76
sbsg25
(imyEvolve
Tree
p375
(dp376
g12
I3
sg20
(imyEvolve
Tree
p377
(dp378
g12
I2
sg20
(imyEvolve
Tree
p379
(dp380
g12
I1
sg20
(imyEvolve
Tree
p381
(dp382
g12
I0
sg13
I00
sbsg25
(imyEvolve
Tree
p383
(dp384
g12
I0
sg13
I00
sbsg14
I00
sg15
g76
sbsg25
(imyEvolve
Tree
p385
(dp386
g7
(imyEvolve
Tree
p387
(dp388
g12
I0
sg13
I00
sbsg12
I1
sg14
I01
sg15
g16
sbsg14
I00
sg15
g33
sbsg25
(imyEvolve
Tree
p389
(dp390
g12
I2
sg20
(imyEvolve
Tree
p391
(dp392
g12
I1
sg20
(imyEvolve
Tree
p393
(dp394
g12
I0
sg42
F0.4064548258491474
sg13
I01
sbsg25
(imyEvolve
Tree
p395
(dp396
g12
I0
sg42
F-0.64632655657058
sg13
I01
sbsg14
I00
sg15
g76
sbsg25
(imyEvolve
Tree
p397
(dp398
g7
(imyEvolve
Tree
p399
(dp400
g12
I0
sg13
I00
sbsg12
I1
sg14
I01
sg15
g77
sbsg14
I00
sg15
g28
sbsg14
I00
sg15
g33
sbsg14
I00
sg15
g76
sbsg14
I00
sg15
g76
sba(imyEvolve
Tree
p401
(dp402
g12
I2
sg20
(imyEvolve
Tree
p403
(dp404
g7
(imyEvolve
Tree
p405
(dp406
g12
I0
sg13
I00
sbsg12
I1
sg14
I01
sg15
g77
sbsg25
(imyEvolve
Tree
p407
(dp408
g12
I1
sg20
(imyEvolve
Tree
p409
(dp410
g12
I0
sg42
F1.35440299016551
sg13
I01
sbsg25
(imyEvolve
Tree
p411
(dp412
g12
I0
sg42
F2.711872121708768
sg13
I01
sbsg14
I00
sg15
g28
sbsg14
I00
sg15
g33
sba(imyEvolve
Tree
p413
(dp414
g7
(imyEvolve
Tree
p415
(dp416
g7
(imyEvolve
Tree
p417
(dp418
g7
(imyEvolve
Tree
p419
(dp420
g12
I2
sg20
(imyEvolve
Tree
p421
(dp422
g7
(imyEvolve
Tree
p423
(dp424
g12
I0
sg13
I00
sbsg12
I1
sg14
I01
sg15
g53
sbsg25
(imyEvolve
Tree
p425
(dp426
g12
I1
sg20
(imyEvolve
Tree
p427
(dp428
g12
I0
sg42
F0.4418509470313934
sg13
I01
sbsg25
(imyEvolve
Tree
p429
(dp430
g12
I0
sg13
I00
sbsg14
I00
sg15
g76
sbsg14
I00
sg15
g33
sbsg12
I3
sg14
I01
sg15
g53
sbsg12
I4
sg14
I01
sg15
g16
sbsg12
I5
sg14
I01
sg15
g53
sba(imyEvolve
Tree
p431
(dp432
g7
(imyEvolve
Tree
p433
(dp434
g7
(imyEvolve
Tree
p435
(dp436
g7
(imyEvolve
Tree
p437
(dp438
g12
I2
sg20
(imyEvolve
Tree
p439
(dp440
g7
(imyEvolve
Tree
p441
(dp442
g12
I0
sg13
I00
sbsg12
I1
sg14
I01
sg15
g17
sbsg25
(imyEvolve
Tree
p443
(dp444
g7
(imyEvolve
Tree
p445
(dp446
g12
I0
sg42
F2.198626840645936
sg13
I01
sbsg12
I1
sg14
I01
sg15
g17
sbsg14
I00
sg15
g33
sbsg12
I3
sg14
I01
sg15
g53
sbsg12
I4
sg14
I01
sg15
g17
sbsg12
I5
sg14
I01
sg15
g53
sba(imyEvolve
Tree
p447
(dp448
g12
I4
sg20
(imyEvolve
Tree
p449
(dp450
g7
(imyEvolve
Tree
p451
(dp452
g12
I2
sg20
(imyEvolve
Tree
p453
(dp454
g7
(imyEvolve
Tree
p455
(dp456
g12
I0
sg42
F-4.0980892176317045
sg13
I01
sbsg12
I1
sg14
I01
sg15
g16
sbsg25
(imyEvolve
Tree
p457
(dp458
g7
(imyEvolve
Tree
p459
(dp460
g12
I0
sg42
F1.0977324540689501
sg13
I01
sbsg12
I1
sg14
I01
sg15
g77
sbsg14
I00
sg15
g28
sbsg12
I3
sg14
I01
sg15
g77
sbsg25
(imyEvolve
Tree
p461
(dp462
g12
I3
sg20
(imyEvolve
Tree
p463
(dp464
g7
(imyEvolve
Tree
p465
(dp466
g12
I1
sg20
(imyEvolve
Tree
p467
(dp468
g12
I0
sg13
I00
sbsg25
(imyEvolve
Tree
p469
(dp470
g12
I0
sg42
F0.5581169168720779
sg13
I01
sbsg14
I00
sg15
g28
sbsg12
I2
sg14
I01
sg15
g16
sbsg25
(imyEvolve
Tree
p471
(dp472
g12
I2
sg20
(imyEvolve
Tree
p473
(dp474
g12
I1
sg20
(imyEvolve
Tree
p475
(dp476
g12
I0
sg13
I00
sbsg25
(imyEvolve
Tree
p477
(dp478
g12
I0
sg13
I00
sbsg14
I00
sg15
g28
sbsg25
(imyEvolve
Tree
p479
(dp480
g12
I1
sg20
(imyEvolve
Tree
p481
(dp482
g12
I0
sg42
F0.15721326356095044
sg13
I01
sbsg25
(imyEvolve
Tree
p483
(dp484
g12
I0
sg13
I00
sbsg14
I00
sg15
g33
sbsg14
I00
sg15
g76
sbsg14
I00
sg15
g28
sbsg14
I00
sg15
g28
sba(imyEvolve
Tree
p485
(dp486
g12
I4
sg20
(imyEvolve
Tree
p487
(dp488
g12
I3
sg20
(imyEvolve
Tree
p489
(dp490
g12
I2
sg20
(imyEvolve
Tree
p491
(dp492
g12
I1
sg20
(imyEvolve
Tree
p493
(dp494
g12
I0
sg42
F4.52802797373295
sg13
I01
sbsg25
(imyEvolve
Tree
p495
(dp496
g12
I0
sg42
F-4.78618088117968
sg13
I01
sbsg14
I00
sg15
g28
sbsg25
(imyEvolve
Tree
p497
(dp498
g12
I1
sg20
(imyEvolve
Tree
p499
(dp500
g12
I0
sg13
I00
sbsg25
(imyEvolve
Tree
p501
(dp502
g12
I0
sg42
F0.8577890276373754
sg13
I01
sbsg14
I00
sg15
g28
sbsg14
I00
sg15
g28
sbsg25
(imyEvolve
Tree
p503
(dp504
g12
I2
sg20
(imyEvolve
Tree
p505
(dp506
g12
I1
sg20
(imyEvolve
Tree
p507
(dp508
g12
I0
sg42
F1.6087770465928877
sg13
I01
sbsg25
(imyEvolve
Tree
p509
(dp510
g12
I0
sg42
F0.1583774336035484
sg13
I01
sbsg14
I00
sg15
g33
sbsg25
(imyEvolve
Tree
p511
(dp512
g12
I1
sg20
(imyEvolve
Tree
p513
(dp514
g12
I0
sg42
F0.014576032625428503
sg13
I01
sbsg25
(imyEvolve
Tree
p515
(dp516
g12
I0
sg42
F1.6458923827419998
sg13
I01
sbsg14
I00
sg15
g28
sbsg14
I00
sg15
g76
sbsg14
I00
sg15
g28
sbsg25
(imyEvolve
Tree
p517
(dp518
g12
I3
sg20
(imyEvolve
Tree
p519
(dp520
g12
I2
sg20
(imyEvolve
Tree
p521
(dp522
g7
(imyEvolve
Tree
p523
(dp524
g12
I0
sg42
F-1.6339514658113785
sg13
I01
sbsg12
I1
sg14
I01
sg15
g53
sbsg25
(imyEvolve
Tree
p525
(dp526
g7
(imyEvolve
Tree
p527
(dp528
g12
I0
sg42
F0.8358394307597239
sg13
I01
sbsg12
I1
sg14
I01
sg15
g17
sbsg14
I00
sg15
g33
sbsg25
(imyEvolve
Tree
p529
(dp530
g12
I2
sg20
(imyEvolve
Tree
p531
(dp532
g12
I1
sg20
(imyEvolve
Tree
p533
(dp534
g12
I0
sg42
F-1.5623996001153206
sg13
I01
sbsg25
(imyEvolve
Tree
p535
(dp536
g12
I0
sg42
F0.702694826583727
sg13
I01
sbsg14
I00
sg15
g28
sbsg25
(imyEvolve
Tree
p537
(dp538
g12
I1
sg20
(imyEvolve
Tree
p539
(dp540
g12
I0
sg42
F4.853170665468552
sg13
I01
sbsg25
(imyEvolve
Tree
p541
(dp542
g12
I0
sg13
I00
sbsg14
I00
sg15
g28
sbsg14
I00
sg15
g33
sbsg14
I00
sg15
g33
sbsg14
I00
sg15
g76
sba(imyEvolve
Tree
p543
(dp544
g7
(imyEvolve
Tree
p545
(dp546
g7
(imyEvolve
Tree
p547
(dp548
g7
(imyEvolve
Tree
p549
(dp550
g7
(imyEvolve
Tree
p551
(dp552
g7
(imyEvolve
Tree
p553
(dp554
g12
I0
sg13
I00
sbsg12
I1
sg14
I01
sg15
g17
sbsg12
I2
sg14
I01
sg15
g53
sbsg12
I3
sg14
I01
sg15
g16
sbsg12
I4
sg14
I01
sg15
g16
sbsg12
I5
sg14
I01
sg15
g17
sba(imyEvolve
Tree
p555
(dp556
g7
(imyEvolve
Tree
p557
(dp558
g12
I2
sg20
(imyEvolve
Tree
p559
(dp560
g12
I1
sg20
(imyEvolve
Tree
p561
(dp562
g12
I0
sg42
F-0.2910965332271189
sg13
I01
sbsg25
(imyEvolve
Tree
p563
(dp564
g12
I0
sg42
F-2.7614290555983123
sg13
I01
sbsg14
I00
sg15
g33
sbsg25
(imyEvolve
Tree
p565
(dp566
g7
(imyEvolve
Tree
p567
(dp568
g12
I0
sg42
F3.5169166778657903
sg13
I01
sbsg12
I1
sg14
I01
sg15
g16
sbsg14
I00
sg15
g76
sbsg12
I3
sg14
I01
sg15
g53
sbaa(lp569
(imyEvolve
Tree
p570
(dp571
g7
(imyEvolve
Tree
p572
(dp573
g12
I3
sg20
(imyEvolve
Tree
p574
(dp575
g7
(imyEvolve
Tree
p576
(dp577
g7
(imyEvolve
Tree
p578
(dp579
g12
I0
sg13
I00
sbsg12
I1
sg14
I01
sg15
g16
sbsg12
I2
sg14
I01
sg15
g16
sbsg25
(imyEvolve
Tree
p580
(dp581
g7
(imyEvolve
Tree
p582
(dp583
g7
(imyEvolve
Tree
p584
(dp585
g12
I0
sg42
F-0.8417353233424665
sg13
I01
sbsg12
I1
sg14
I01
sg15
g53
sbsg12
I2
sg14
I01
sg15
g77
sbsg14
I00
sg15
g76
sbsg12
I4
sg14
I01
sg15
g16
sba(imyEvolve
Tree
p586
(dp587
g7
(imyEvolve
Tree
p588
(dp589
g7
(imyEvolve
Tree
p590
(dp591
g7
(imyEvolve
Tree
p592
(dp593
g7
(imyEvolve
Tree
p594
(dp595
g12
I0
sg13
I00
sbsg12
I1
sg14
I01
sg15
g17
sbsg12
I2
sg14
I01
sg15
g53
sbsg12
I3
sg14
I01
sg15
g16
sbsg12
I4
sg14
I01
sg15
g16
sba(imyEvolve
Tree
p596
(dp597
g7
(imyEvolve
Tree
p598
(dp599
g7
(imyEvolve
Tree
p600
(dp601
g7
(imyEvolve
Tree
p602
(dp603
g12
I1
sg20
(imyEvolve
Tree
p604
(dp605
g12
I0
sg13
I00
sbsg25
(imyEvolve
Tree
p606
(dp607
g12
I0
sg13
I00
sbsg14
I00
sg15
g33
sbsg12
I2
sg14
I01
sg15
g17
sbsg12
I3
sg14
I01
sg15
g77
sbsg12
I4
sg14
I01
sg15
g17
sba(imyEvolve
Tree
p608
(dp609
g12
I5
sg20
(imyEvolve
Tree
p610
(dp611
g12
I4
sg20
(imyEvolve
Tree
p612
(dp613
g7
(imyEvolve
Tree
p614
(dp615
g7
(imyEvolve
Tree
p616
(dp617
g7
(imyEvolve
Tree
p618
(dp619
g12
I0
sg42
F-1.1613995787050513
sg13
I01
sbsg12
I1
sg14
I01
sg15
g53
sbsg12
I2
sg14
I01
sg15
g16
sbsg12
I3
sg14
I01
sg15
g53
sbsg25
(imyEvolve
Tree
p620
(dp621
g7
(imyEvolve
Tree
p622
(dp623
g12
I2
sg20
(imyEvolve
Tree
p624
(dp625
g12
I1
sg20
(imyEvolve
Tree
p626
(dp627
g12
I0
sg42
F-2.9539780485645872
sg13
I01
sbsg25
(imyEvolve
Tree
p628
(dp629
g12
I0
sg42
F-3.89868298883685
sg13
I01
sbsg14
I00
sg15
g28
sbsg25
(imyEvolve
Tree
p630
(dp631
g12
I1
sg20
(imyEvolve
Tree
p632
(dp633
g12
I0
sg42
F-4.409248090728576
sg13
I01
sbsg25
(imyEvolve
Tree
p634
(dp635
g12
I0
sg42
F-1.2504269698949075
sg13
I01
sbsg14
I00
sg15
g76
sbsg14
I00
sg15
g33
sbsg12
I3
sg14
I01
sg15
g77
sbsg14
I00
sg15
g33
sbsg25
(imyEvolve
Tree
p636
(dp637
g7
(imyEvolve
Tree
p638
(dp639
g7
(imyEvolve
Tree
p640
(dp641
g7
(imyEvolve
Tree
p642
(dp643
g7
(imyEvolve
Tree
p644
(dp645
g12
I0
sg42
F3.5616343707705536
sg13
I01
sbsg12
I1
sg14
I01
sg15
g17
sbsg12
I2
sg14
I01
sg15
g16
sbsg12
I3
sg14
I01
sg15
g53
sbsg12
I4
sg14
I01
sg15
g77
sbsg14
I00
sg15
g76
sba(imyEvolve
Tree
p646
(dp647
g12
I2
sg20
(imyEvolve
Tree
p648
(dp649
g12
I1
sg20
(imyEvolve
Tree
p650
(dp651
g12
I0
sg13
I00
sbsg25
(imyEvolve
Tree
p652
(dp653
g12
I0
sg13
I00
sbsg14
I00
sg15
g28
sbsg25
(imyEvolve
Tree
p654
(dp655
g7
(imyEvolve
Tree
p656
(dp657
g12
I0
sg42
F2.0659962685194566
sg13
I01
sbsg12
I1
sg14
I01
sg15
g16
sbsg14
I00
sg15
g76
sba(imyEvolve
Tree
p658
(dp659
g7
(imyEvolve
Tree
p660
(dp661
g12
I3
sg20
(imyEvolve
Tree
p662
(dp663
g7
(imyEvolve
Tree
p664
(dp665
g12
I1
sg20
(imyEvolve
Tree
p666
(dp667
g12
I0
sg42
F3.1391420009204047
sg13
I01
sbsg25
(imyEvolve
Tree
p668
(dp669
g12
I0
sg13
I00
sbsg14
I00
sg15
g76
sbsg12
I2
sg14
I01
sg15
g17
sbsg25
(imyEvolve
Tree
p670
(dp671
g12
I2
sg20
(imyEvolve
Tree
p672
(dp673
g7
(imyEvolve
Tree
p674
(dp675
g12
I0
sg42
F-4.693733404818814
sg13
I01
sbsg12
I1
sg14
I01
sg15
g17
sbsg25
(imyEvolve
Tree
p676
(dp677
g12
I1
sg20
(imyEvolve
Tree
p678
(dp679
g12
I0
sg13
I00
sbsg25
(imyEvolve
Tree
p680
(dp681
g12
I0
sg13
I00
sbsg14
I00
sg15
g28
sbsg14
I00
sg15
g76
sbsg14
I00
sg15
g76
sbsg12
I4
sg14
I01
sg15
g53
sba(imyEvolve
Tree
p682
(dp683
g7
(imyEvolve
Tree
p684
(dp685
g12
I1
sg20
(imyEvolve
Tree
p686
(dp687
g12
I0
sg13
I00
sbsg25
(imyEvolve
Tree
p688
(dp689
g12
I0
sg42
F-1.709909092143742
sg13
I01
sbsg14
I00
sg15
g33
sbsg12
I2
sg14
I01
sg15
g53
sba(imyEvolve
Tree
p690
(dp691
g12
I2
sg20
(imyEvolve
Tree
p692
(dp693
g7
(imyEvolve
Tree
p694
(dp695
g12
I0
sg13
I00
sbsg12
I1
sg14
I01
sg15
g77
sbsg25
(imyEvolve
Tree
p696
(dp697
g7
(imyEvolve
Tree
p698
(dp699
g12
I0
sg42
F3.088312680619696
sg13
I01
sbsg12
I1
sg14
I01
sg15
g17
sbsg14
I00
sg15
g28
sba(imyEvolve
Tree
p700
(dp701
g7
(imyEvolve
Tree
p702
(dp703
g12
I1
sg20
(imyEvolve
Tree
p704
(dp705
g12
I0
sg13
I00
sbsg25
(imyEvolve
Tree
p706
(dp707
g12
I0
sg42
F2.712303139930782
sg13
I01
sbsg14
I00
sg15
g76
sbsg12
I2
sg14
I01
sg15
g53
sbaasS'weightSharing'
p708
(lp709
I00
asS'fitnessValid'
p710
I00
sS'fitness'
p711
cnumpy.core.multiarray
scalar
p712
(cnumpy
dtype
p713
(S'f8'
p714
I0
I1
tp715
Rp716
(I3
S'<'
p717
NNNI-1
I-1
I0
tp718
bS'\xca2\xc4\xcc\x03"\xe6?'
p719
tp720
Rp721
sS'alpha'
p722
F0.007971852646985205
sS'resolution'
p723
I41
sb.