(imyEvolve
Individual
p0
(dp1
S'funcs'
p2
(lp3
(lp4
(imyEvolve
Tree
p5
(dp6
S'depth'
p7
I5
sS'left'
p8
(imyEvolve
Tree
p9
(dp10
S'below'
p11
(imyEvolve
Tree
p12
(dp13
g7
I3
sg8
(imyEvolve
Tree
p14
(dp15
g11
(imyEvolve
Tree
p16
(dp17
g7
I1
sg8
(imyEvolve
Tree
p18
(dp19
g7
I0
sS'isConstant'
p20
I00
sbsS'right'
p21
(imyEvolve
Tree
p22
(dp23
g7
I0
sg20
I00
sbsS'single'
p24
I00
sS'op'
p25
coperator
mul
p26
sbsg7
I2
sg24
I01
sg25
cmyEvolve
square
p27
sbsg21
(imyEvolve
Tree
p28
(dp29
g7
I2
sg8
(imyEvolve
Tree
p30
(dp31
g7
I1
sg8
(imyEvolve
Tree
p32
(dp33
g7
I0
sg20
I00
sbsg21
(imyEvolve
Tree
p34
(dp35
g7
I0
sS'constant'
p36
F-4.202368777826716
sg20
I01
sbsg24
I00
sg25
coperator
sub
p37
sbsg21
(imyEvolve
Tree
p38
(dp39
g11
(imyEvolve
Tree
p40
(dp41
g7
I0
sg36
F-1.4231025036190958
sg20
I01
sbsg7
I1
sg24
I01
sg25
g27
sbsg24
I00
sg25
g26
sbsg24
I00
sg25
g37
sbsg7
I4
sg24
I01
sg25
cmyEvolve
absSqrt
p42
sbsg21
(imyEvolve
Tree
p43
(dp44
g11
(imyEvolve
Tree
p45
(dp46
g7
I3
sg8
(imyEvolve
Tree
p47
(dp48
g11
(imyEvolve
Tree
p49
(dp50
g7
I1
sg8
(imyEvolve
Tree
p51
(dp52
g7
I0
sg36
F-4.141635903674254
sg20
I01
sbsg21
(imyEvolve
Tree
p53
(dp54
g7
I0
sg20
I00
sbsg24
I00
sg25
g37
sbsg7
I2
sg24
I01
sg25
g42
sbsg21
(imyEvolve
Tree
p55
(dp56
g11
(imyEvolve
Tree
p57
(dp58
g7
I1
sg8
(imyEvolve
Tree
p59
(dp60
g7
I0
sg20
I00
sbsg21
(imyEvolve
Tree
p61
(dp62
g7
I0
sg36
F-0.7811930517472776
sg20
I01
sbsg24
I00
sg25
coperator
add
p63
sbsg7
I2
sg24
I01
sg25
g27
sbsg24
I00
sg25
g26
sbsg7
I4
sg24
I01
sg25
g42
sbsg24
I00
sg25
g37
sba(imyEvolve
Tree
p64
(dp65
g11
(imyEvolve
Tree
p66
(dp67
g8
(imyEvolve
Tree
p68
(dp69
g11
(imyEvolve
Tree
p70
(dp71
g7
I0
sg36
F-0.7573524128027485
sg20
I01
sbsg7
I1
sg24
I01
sg25
cmath
sin
p72
sbsg7
I2
sg21
(imyEvolve
Tree
p73
(dp74
g8
(imyEvolve
Tree
p75
(dp76
g7
I0
sg36
F-0.4033370162106902
sg20
I01
sbsg7
I1
sg21
(imyEvolve
Tree
p77
(dp78
g7
I0
sg36
F0.9046919294210376
sg20
I01
sbsg24
I00
sg25
g26
sbsg24
I00
sg25
g63
sbsg7
I3
sg24
I01
sg25
g72
sba(imyEvolve
Tree
p79
(dp80
g11
(imyEvolve
Tree
p81
(dp82
g11
(imyEvolve
Tree
p83
(dp84
g11
(imyEvolve
Tree
p85
(dp86
g7
I1
sg8
(imyEvolve
Tree
p87
(dp88
g7
I0
sg20
I00
sbsg21
(imyEvolve
Tree
p89
(dp90
g7
I0
sg36
F3.6095455257528712
sg20
I01
sbsg24
I00
sg25
g63
sbsg7
I2
sg24
I01
sg25
g42
sbsg7
I3
sg24
I01
sg25
g27
sbsg7
I4
sg24
I01
sg25
cmath
cos
p91
sba(imyEvolve
Tree
p92
(dp93
g8
(imyEvolve
Tree
p94
(dp95
g8
(imyEvolve
Tree
p96
(dp97
g11
(imyEvolve
Tree
p98
(dp99
g8
(imyEvolve
Tree
p100
(dp101
g11
(imyEvolve
Tree
p102
(dp103
g7
I0
sg36
F-1.4627284152354947
sg20
I01
sbsg7
I1
sg24
I01
sg25
g42
sbsg7
I2
sg21
(imyEvolve
Tree
p104
(dp105
g8
(imyEvolve
Tree
p106
(dp107
g7
I0
sg20
I00
sbsg7
I1
sg21
(imyEvolve
Tree
p108
(dp109
g7
I0
sg20
I00
sbsg24
I00
sg25
g26
sbsg24
I00
sg25
g26
sbsg7
I3
sg24
I01
sg25
g42
sbsg7
I4
sg21
(imyEvolve
Tree
p110
(dp111
g11
(imyEvolve
Tree
p112
(dp113
g8
(imyEvolve
Tree
p114
(dp115
g11
(imyEvolve
Tree
p116
(dp117
g7
I0
sg36
F-4.178526413143969
sg20
I01
sbsg7
I1
sg24
I01
sg25
g42
sbsg7
I2
sg21
(imyEvolve
Tree
p118
(dp119
g8
(imyEvolve
Tree
p120
(dp121
g7
I0
sg36
F-0.3947798601193728
sg20
I01
sbsg7
I1
sg21
(imyEvolve
Tree
p122
(dp123
g7
I0
sg36
F-3.688284187974149
sg20
I01
sbsg24
I00
sg25
g26
sbsg24
I00
sg25
g26
sbsg7
I3
sg24
I01
sg25
g72
sbsg24
I00
sg25
g37
sbsg7
I5
sg21
(imyEvolve
Tree
p124
(dp125
g8
(imyEvolve
Tree
p126
(dp127
g11
(imyEvolve
Tree
p128
(dp129
g8
(imyEvolve
Tree
p130
(dp131
g11
(imyEvolve
Tree
p132
(dp133
g7
I0
sg20
I00
sbsg7
I1
sg24
I01
sg25
g27
sbsg7
I2
sg21
(imyEvolve
Tree
p134
(dp135
g8
(imyEvolve
Tree
p136
(dp137
g7
I0
sg20
I00
sbsg7
I1
sg21
(imyEvolve
Tree
p138
(dp139
g7
I0
sg20
I00
sbsg24
I00
sg25
g26
sbsg24
I00
sg25
g63
sbsg7
I3
sg24
I01
sg25
g27
sbsg7
I4
sg21
(imyEvolve
Tree
p140
(dp141
g8
(imyEvolve
Tree
p142
(dp143
g11
(imyEvolve
Tree
p144
(dp145
g8
(imyEvolve
Tree
p146
(dp147
g7
I0
sg36
F3.435970457466368
sg20
I01
sbsg7
I1
sg21
(imyEvolve
Tree
p148
(dp149
g7
I0
sg36
F-1.8967526745248176
sg20
I01
sbsg24
I00
sg25
g37
sbsg7
I2
sg24
I01
sg25
g91
sbsg7
I3
sg21
(imyEvolve
Tree
p150
(dp151
g8
(imyEvolve
Tree
p152
(dp153
g8
(imyEvolve
Tree
p154
(dp155
g7
I0
sg20
I00
sbsg7
I1
sg21
(imyEvolve
Tree
p156
(dp157
g7
I0
sg20
I00
sbsg24
I00
sg25
g63
sbsg7
I2
sg21
(imyEvolve
Tree
p158
(dp159
g8
(imyEvolve
Tree
p160
(dp161
g7
I0
sg36
F-4.261280436482378
sg20
I01
sbsg7
I1
sg21
(imyEvolve
Tree
p162
(dp163
g7
I0
sg20
I00
sbsg24
I00
sg25
g63
sbsg24
I00
sg25
g26
sbsg24
I00
sg25
g37
sbsg24
I00
sg25
g63
sbsg24
I00
sg25
g37
sba(imyEvolve
Tree
p164
(dp165
g11
(imyEvolve
Tree
p166
(dp167
g7
I1
sg8
(imyEvolve
Tree
p168
(dp169
g7
I0
sg20
I00
sbsg21
(imyEvolve
Tree
p170
(dp171
g7
I0
sg20
I00
sbsg24
I00
sg25
g37
sbsg7
I2
sg24
I01
sg25
g42
sba(imyEvolve
Tree
p172
(dp173
g11
(imyEvolve
Tree
p174
(dp175
g8
(imyEvolve
Tree
p176
(dp177
g11
(imyEvolve
Tree
p178
(dp179
g7
I0
sg20
I00
sbsg7
I1
sg24
I01
sg25
g42
sbsg7
I2
sg21
(imyEvolve
Tree
p180
(dp181
g8
(imyEvolve
Tree
p182
(dp183
g7
I0
sg36
F-3.4731268840405005
sg20
I01
sbsg7
I1
sg21
(imyEvolve
Tree
p184
(dp185
g7
I0
sg36
F0.7724480232484101
sg20
I01
sbsg24
I00
sg25
g63
sbsg24
I00
sg25
g26
sbsg7
I3
sg24
I01
sg25
g91
sba(imyEvolve
Tree
p186
(dp187
g8
(imyEvolve
Tree
p188
(dp189
g11
(imyEvolve
Tree
p190
(dp191
g8
(imyEvolve
Tree
p192
(dp193
g11
(imyEvolve
Tree
p194
(dp195
g8
(imyEvolve
Tree
p196
(dp197
g7
I0
sg20
I00
sbsg7
I1
sg21
(imyEvolve
Tree
p198
(dp199
g7
I0
sg36
F-3.280107237908949
sg20
I01
sbsg24
I00
sg25
g63
sbsg7
I2
sg24
I01
sg25
g27
sbsg7
I3
sg21
(imyEvolve
Tree
p200
(dp201
g8
(imyEvolve
Tree
p202
(dp203
g11
(imyEvolve
Tree
p204
(dp205
g7
I0
sg20
I00
sbsg7
I1
sg24
I01
sg25
g42
sbsg7
I2
sg21
(imyEvolve
Tree
p206
(dp207
g11
(imyEvolve
Tree
p208
(dp209
g7
I0
sg20
I00
sbsg7
I1
sg24
I01
sg25
g27
sbsg24
I00
sg25
g63
sbsg24
I00
sg25
g63
sbsg7
I4
sg24
I01
sg25
g27
sbsg7
I5
sg21
(imyEvolve
Tree
p210
(dp211
g8
(imyEvolve
Tree
p212
(dp213
g8
(imyEvolve
Tree
p214
(dp215
g11
(imyEvolve
Tree
p216
(dp217
g11
(imyEvolve
Tree
p218
(dp219
g7
I0
sg36
F0.21132415384433134
sg20
I01
sbsg7
I1
sg24
I01
sg25
g42
sbsg7
I2
sg24
I01
sg25
g91
sbsg7
I3
sg21
(imyEvolve
Tree
p220
(dp221
g8
(imyEvolve
Tree
p222
(dp223
g8
(imyEvolve
Tree
p224
(dp225
g7
I0
sg20
I00
sbsg7
I1
sg21
(imyEvolve
Tree
p226
(dp227
g7
I0
sg20
I00
sbsg24
I00
sg25
g26
sbsg7
I2
sg21
(imyEvolve
Tree
p228
(dp229
g8
(imyEvolve
Tree
p230
(dp231
g7
I0
sg20
I00
sbsg7
I1
sg21
(imyEvolve
Tree
p232
(dp233
g7
I0
sg20
I00
sbsg24
I00
sg25
g26
sbsg24
I00
sg25
g63
sbsg24
I00
sg25
g63
sbsg7
I4
sg21
(imyEvolve
Tree
p234
(dp235
g11
(imyEvolve
Tree
p236
(dp237
g11
(imyEvolve
Tree
p238
(dp239
g8
(imyEvolve
Tree
p240
(dp241
g7
I0
sg20
I00
sbsg7
I1
sg21
(imyEvolve
Tree
p242
(dp243
g7
I0
sg20
I00
sbsg24
I00
sg25
g37
sbsg7
I2
sg24
I01
sg25
g91
sbsg7
I3
sg24
I01
sg25
g91
sbsg24
I00
sg25
g37
sbsg24
I00
sg25
g26
sba(imyEvolve
Tree
p244
(dp245
g11
(imyEvolve
Tree
p246
(dp247
g11
(imyEvolve
Tree
p248
(dp249
g7
I0
sg36
F0.2913606689884407
sg20
I01
sbsg7
I1
sg24
I01
sg25
g42
sbsg7
I2
sg24
I01
sg25
g91
sba(imyEvolve
Tree
p250
(dp251
g11
(imyEvolve
Tree
p252
(dp253
g11
(imyEvolve
Tree
p254
(dp255
g8
(imyEvolve
Tree
p256
(dp257
g8
(imyEvolve
Tree
p258
(dp259
g7
I0
sg36
F-2.029690646546981
sg20
I01
sbsg7
I1
sg21
(imyEvolve
Tree
p260
(dp261
g7
I0
sg36
F3.739655075523169
sg20
I01
sbsg24
I00
sg25
g63
sbsg7
I2
sg21
(imyEvolve
Tree
p262
(dp263
g8
(imyEvolve
Tree
p264
(dp265
g7
I0
sg20
I00
sbsg7
I1
sg21
(imyEvolve
Tree
p266
(dp267
g7
I0
sg20
I00
sbsg24
I00
sg25
g26
sbsg24
I00
sg25
g63
sbsg7
I3
sg24
I01
sg25
g91
sbsg7
I4
sg24
I01
sg25
g72
sba(imyEvolve
Tree
p268
(dp269
g11
(imyEvolve
Tree
p270
(dp271
g11
(imyEvolve
Tree
p272
(dp273
g8
(imyEvolve
Tree
p274
(dp275
g8
(imyEvolve
Tree
p276
(dp277
g7
I0
sg20
I00
sbsg7
I1
sg21
(imyEvolve
Tree
p278
(dp279
g7
I0
sg20
I00
sbsg24
I00
sg25
g63
sbsg7
I2
sg21
(imyEvolve
Tree
p280
(dp281
g11
(imyEvolve
Tree
p282
(dp283
g7
I0
sg20
I00
sbsg7
I1
sg24
I01
sg25
g42
sbsg24
I00
sg25
g37
sbsg7
I3
sg24
I01
sg25
g72
sbsg7
I4
sg24
I01
sg25
g72
sba(imyEvolve
Tree
p284
(dp285
g8
(imyEvolve
Tree
p286
(dp287
g8
(imyEvolve
Tree
p288
(dp289
g7
I0
sg20
I00
sbsg7
I1
sg21
(imyEvolve
Tree
p290
(dp291
g7
I0
sg20
I00
sbsg24
I00
sg25
g26
sbsg7
I2
sg21
(imyEvolve
Tree
p292
(dp293
g11
(imyEvolve
Tree
p294
(dp295
g7
I0
sg20
I00
sbsg7
I1
sg24
I01
sg25
g91
sbsg24
I00
sg25
g26
sba(imyEvolve
Tree
p296
(dp297
g7
I3
sg8
(imyEvolve
Tree
p298
(dp299
g7
I2
sg8
(imyEvolve
Tree
p300
(dp301
g7
I1
sg8
(imyEvolve
Tree
p302
(dp303
g7
I0
sg36
F0.6598898259079764
sg20
I01
sbsg21
(imyEvolve
Tree
p304
(dp305
g7
I0
sg20
I00
sbsg24
I00
sg25
g26
sbsg21
(imyEvolve
Tree
p306
(dp307
g11
(imyEvolve
Tree
p308
(dp309
g7
I0
sg36
F-1.7186496601932397
sg20
I01
sbsg7
I1
sg24
I01
sg25
g27
sbsg24
I00
sg25
g37
sbsg21
(imyEvolve
Tree
p310
(dp311
g11
(imyEvolve
Tree
p312
(dp313
g11
(imyEvolve
Tree
p314
(dp315
g7
I0
sg36
F-3.373776621097159
sg20
I01
sbsg7
I1
sg24
I01
sg25
g72
sbsg7
I2
sg24
I01
sg25
g27
sbsg24
I00
sg25
g37
sba(imyEvolve
Tree
p316
(dp317
g11
(imyEvolve
Tree
p318
(dp319
g11
(imyEvolve
Tree
p320
(dp321
g8
(imyEvolve
Tree
p322
(dp323
g7
I0
sg36
F0.9814768532098928
sg20
I01
sbsg7
I1
sg21
(imyEvolve
Tree
p324
(dp325
g7
I0
sg20
I00
sbsg24
I00
sg25
g37
sbsg7
I2
sg24
I01
sg25
g27
sbsg7
I3
sg24
I01
sg25
g91
sba(imyEvolve
Tree
p326
(dp327
g8
(imyEvolve
Tree
p328
(dp329
g11
(imyEvolve
Tree
p330
(dp331
g11
(imyEvolve
Tree
p332
(dp333
g8
(imyEvolve
Tree
p334
(dp335
g7
I0
sg20
I00
sbsg7
I1
sg21
(imyEvolve
Tree
p336
(dp337
g7
I0
sg36
F-4.2658845076695435
sg20
I01
sbsg24
I00
sg25
g63
sbsg7
I2
sg24
I01
sg25
g42
sbsg7
I3
sg24
I01
sg25
g91
sbsg7
I4
sg21
(imyEvolve
Tree
p338
(dp339
g8
(imyEvolve
Tree
p340
(dp341
g8
(imyEvolve
Tree
p342
(dp343
g11
(imyEvolve
Tree
p344
(dp345
g7
I0
sg36
F-0.7151891930270349
sg20
I01
sbsg7
I1
sg24
I01
sg25
g72
sbsg7
I2
sg21
(imyEvolve
Tree
p346
(dp347
g8
(imyEvolve
Tree
p348
(dp349
g7
I0
sg20
I00
sbsg7
I1
sg21
(imyEvolve
Tree
p350
(dp351
g7
I0
sg20
I00
sbsg24
I00
sg25
g37
sbsg24
I00
sg25
g63
sbsg7
I3
sg21
(imyEvolve
Tree
p352
(dp353
g8
(imyEvolve
Tree
p354
(dp355
g8
(imyEvolve
Tree
p356
(dp357
g7
I0
sg20
I00
sbsg7
I1
sg21
(imyEvolve
Tree
p358
(dp359
g7
I0
sg20
I00
sbsg24
I00
sg25
g37
sbsg7
I2
sg21
(imyEvolve
Tree
p360
(dp361
g11
(imyEvolve
Tree
p362
(dp363
g7
I0
sg20
I00
sbsg7
I1
sg24
I01
sg25
g42
sbsg24
I00
sg25
g26
sbsg24
I00
sg25
g63
sbsg24
I00
sg25
g37
sba(imyEvolve
Tree
p364
(dp365
g11
(imyEvolve
Tree
p366
(dp367
g8
(imyEvolve
Tree
p368
(dp369
g11
(imyEvolve
Tree
p370
(dp371
g7
I0
sg20
I00
sbsg7
I1
sg24
I01
sg25
g72
sbsg7
I2
sg21
(imyEvolve
Tree
p372
(dp373
g8
(imyEvolve
Tree
p374
(dp375
g7
I0
sg20
I00
sbsg7
I1
sg21
(imyEvolve
Tree
p376
(dp377
g7
I0
sg20
I00
sbsg24
I00
sg25
g37
sbsg24
I00
sg25
g37
sbsg7
I3
sg24
I01
sg25
g42
sba(imyEvolve
Tree
p378
(dp379
g11
(imyEvolve
Tree
p380
(dp381
g11
(imyEvolve
Tree
p382
(dp383
g7
I0
sg20
I00
sbsg7
I1
sg24
I01
sg25
g91
sbsg7
I2
sg24
I01
sg25
g42
sba(imyEvolve
Tree
p384
(dp385
g11
(imyEvolve
Tree
p386
(dp387
g11
(imyEvolve
Tree
p388
(dp389
g11
(imyEvolve
Tree
p390
(dp391
g7
I1
sg8
(imyEvolve
Tree
p392
(dp393
g7
I0
sg36
F0.2368614484669651
sg20
I01
sbsg21
(imyEvolve
Tree
p394
(dp395
g7
I0
sg20
I00
sbsg24
I00
sg25
g26
sbsg7
I2
sg24
I01
sg25
g72
sbsg7
I3
sg24
I01
sg25
g27
sbsg7
I4
sg24
I01
sg25
g91
sba(imyEvolve
Tree
p396
(dp397
g8
(imyEvolve
Tree
p398
(dp399
g8
(imyEvolve
Tree
p400
(dp401
g7
I0
sg36
F3.178338160170977
sg20
I01
sbsg7
I1
sg21
(imyEvolve
Tree
p402
(dp403
g7
I0
sg20
I00
sbsg24
I00
sg25
g37
sbsg7
I2
sg21
(imyEvolve
Tree
p404
(dp405
g8
(imyEvolve
Tree
p406
(dp407
g7
I0
sg36
F4.65916394773997
sg20
I01
sbsg7
I1
sg21
(imyEvolve
Tree
p408
(dp409
g7
I0
sg20
I00
sbsg24
I00
sg25
g63
sbsg24
I00
sg25
g26
sbaa(lp410
(imyEvolve
Tree
p411
(dp412
g11
(imyEvolve
Tree
p413
(dp414
g8
(imyEvolve
Tree
p415
(dp416
g8
(imyEvolve
Tree
p417
(dp418
g7
I0
sg20
I00
sbsg7
I1
sg21
(imyEvolve
Tree
p419
(dp420
g7
I0
sg20
I00
sbsg24
I00
sg25
g63
sbsg7
I2
sg21
(imyEvolve
Tree
p421
(dp422
g11
(imyEvolve
Tree
p423
(dp424
g7
I0
sg20
I00
sbsg7
I1
sg24
I01
sg25
g42
sbsg24
I00
sg25
g37
sbsg7
I3
sg24
I01
sg25
g27
sba(imyEvolve
Tree
p425
(dp426
g11
(imyEvolve
Tree
p427
(dp428
g7
I3
sg8
(imyEvolve
Tree
p429
(dp430
g7
I2
sg8
(imyEvolve
Tree
p431
(dp432
g7
I1
sg8
(imyEvolve
Tree
p433
(dp434
g7
I0
sg36
F-4.277189971266209
sg20
I01
sbsg21
(imyEvolve
Tree
p435
(dp436
g7
I0
sg20
I00
sbsg24
I00
sg25
g63
sbsg21
(imyEvolve
Tree
p437
(dp438
g7
I1
sg8
(imyEvolve
Tree
p439
(dp440
g7
I0
sg36
F-0.5918889108137959
sg20
I01
sbsg21
(imyEvolve
Tree
p441
(dp442
g7
I0
sg36
F2.4819311676894866
sg20
I01
sbsg24
I00
sg25
g26
sbsg24
I00
sg25
g26
sbsg21
(imyEvolve
Tree
p443
(dp444
g7
I2
sg8
(imyEvolve
Tree
p445
(dp446
g7
I1
sg8
(imyEvolve
Tree
p447
(dp448
g7
I0
sg36
F3.699763557512428
sg20
I01
sbsg21
(imyEvolve
Tree
p449
(dp450
g7
I0
sg36
F1.5433689151634908
sg20
I01
sbsg24
I00
sg25
g63
sbsg21
(imyEvolve
Tree
p451
(dp452
g11
(imyEvolve
Tree
p453
(dp454
g7
I0
sg36
F-4.823576041616739
sg20
I01
sbsg7
I1
sg24
I01
sg25
g42
sbsg24
I00
sg25
g63
sbsg24
I00
sg25
g63
sbsg7
I4
sg24
I01
sg25
g91
sba(imyEvolve
Tree
p455
(dp456
g8
(imyEvolve
Tree
p457
(dp458
g11
(imyEvolve
Tree
p459
(dp460
g11
(imyEvolve
Tree
p461
(dp462
g11
(imyEvolve
Tree
p463
(dp464
g11
(imyEvolve
Tree
p465
(dp466
g7
I0
sg20
I00
sbsg7
I1
sg24
I01
sg25
g27
sbsg7
I2
sg24
I01
sg25
g72
sbsg7
I3
sg24
I01
sg25
g42
sbsg7
I4
sg24
I01
sg25
g42
sbsg7
I5
sg21
(imyEvolve
Tree
p467
(dp468
g11
(imyEvolve
Tree
p469
(dp470
g8
(imyEvolve
Tree
p471
(dp472
g11
(imyEvolve
Tree
p473
(dp474
g11
(imyEvolve
Tree
p475
(dp476
g7
I0
sg20
I00
sbsg7
I1
sg24
I01
sg25
g27
sbsg7
I2
sg24
I01
sg25
g91
sbsg7
I3
sg21
(imyEvolve
Tree
p477
(dp478
g11
(imyEvolve
Tree
p479
(dp480
g8
(imyEvolve
Tree
p481
(dp482
g7
I0
sg36
F0.7053577025429858
sg20
I01
sbsg7
I1
sg21
(imyEvolve
Tree
p483
(dp484
g7
I0
sg20
I00
sbsg24
I00
sg25
g37
sbsg7
I2
sg24
I01
sg25
g72
sbsg24
I00
sg25
g63
sbsg7
I4
sg24
I01
sg25
g91
sbsg24
I00
sg25
g63
sba(imyEvolve
Tree
p485
(dp486
g8
(imyEvolve
Tree
p487
(dp488
g8
(imyEvolve
Tree
p489
(dp490
g7
I0
sg36
F-3.0558260228894008
sg20
I01
sbsg7
I1
sg21
(imyEvolve
Tree
p491
(dp492
g7
I0
sg20
I00
sbsg24
I00
sg25
g63
sbsg7
I2
sg21
(imyEvolve
Tree
p493
(dp494
g8
(imyEvolve
Tree
p495
(dp496
g7
I0
sg36
F-1.4200020506221467
sg20
I01
sbsg7
I1
sg21
(imyEvolve
Tree
p497
(dp498
g7
I0
sg20
I00
sbsg24
I00
sg25
g26
sbsg24
I00
sg25
g63
sba(imyEvolve
Tree
p499
(dp500
g8
(imyEvolve
Tree
p501
(dp502
g8
(imyEvolve
Tree
p503
(dp504
g11
(imyEvolve
Tree
p505
(dp506
g11
(imyEvolve
Tree
p507
(dp508
g7
I0
sg20
I00
sbsg7
I1
sg24
I01
sg25
g72
sbsg7
I2
sg24
I01
sg25
g27
sbsg7
I3
sg21
(imyEvolve
Tree
p509
(dp510
g11
(imyEvolve
Tree
p511
(dp512
g11
(imyEvolve
Tree
p513
(dp514
g7
I0
sg36
F1.0001772943947085
sg20
I01
sbsg7
I1
sg24
I01
sg25
g72
sbsg7
I2
sg24
I01
sg25
g91
sbsg24
I00
sg25
g63
sbsg7
I4
sg21
(imyEvolve
Tree
p515
(dp516
g8
(imyEvolve
Tree
p517
(dp518
g8
(imyEvolve
Tree
p519
(dp520
g8
(imyEvolve
Tree
p521
(dp522
g7
I0
sg20
I00
sbsg7
I1
sg21
(imyEvolve
Tree
p523
(dp524
g7
I0
sg36
F-4.020805249285849
sg20
I01
sbsg24
I00
sg25
g37
sbsg7
I2
sg21
(imyEvolve
Tree
p525
(dp526
g11
(imyEvolve
Tree
p527
(dp528
g7
I0
sg36
F1.3094354558865309
sg20
I01
sbsg7
I1
sg24
I01
sg25
g42
sbsg24
I00
sg25
g37
sbsg7
I3
sg21
(imyEvolve
Tree
p529
(dp530
g11
(imyEvolve
Tree
p531
(dp532
g8
(imyEvolve
Tree
p533
(dp534
g7
I0
sg36
F-3.0168504602466117
sg20
I01
sbsg7
I1
sg21
(imyEvolve
Tree
p535
(dp536
g7
I0
sg36
F0.044594014025860496
sg20
I01
sbsg24
I00
sg25
g26
sbsg7
I2
sg24
I01
sg25
g27
sbsg24
I00
sg25
g26
sbsg24
I00
sg25
g26
sba(imyEvolve
Tree
p537
(dp538
g11
(imyEvolve
Tree
p539
(dp540
g11
(imyEvolve
Tree
p541
(dp542
g11
(imyEvolve
Tree
p543
(dp544
g8
(imyEvolve
Tree
p545
(dp546
g11
(imyEvolve
Tree
p547
(dp548
g7
I0
sg36
F-3.982236252416792
sg20
I01
sbsg7
I1
sg24
I01
sg25
g91
sbsg7
I2
sg21
(imyEvolve
Tree
p549
(dp550
g8
(imyEvolve
Tree
p551
(dp552
g7
I0
sg20
I00
sbsg7
I1
sg21
(imyEvolve
Tree
p553
(dp554
g7
I0
sg36
F-0.7219055781401007
sg20
I01
sbsg24
I00
sg25
g26
sbsg24
I00
sg25
g63
sbsg7
I3
sg24
I01
sg25
g72
sbsg7
I4
sg24
I01
sg25
g27
sbsg7
I5
sg24
I01
sg25
g91
sba(imyEvolve
Tree
p555
(dp556
g8
(imyEvolve
Tree
p557
(dp558
g11
(imyEvolve
Tree
p559
(dp560
g7
I0
sg36
F-1.8765376310571802
sg20
I01
sbsg7
I1
sg24
I01
sg25
g91
sbsg7
I2
sg21
(imyEvolve
Tree
p561
(dp562
g8
(imyEvolve
Tree
p563
(dp564
g7
I0
sg36
F-4.3464385475649445
sg20
I01
sbsg7
I1
sg21
(imyEvolve
Tree
p565
(dp566
g7
I0
sg36
F-2.5143004447572515
sg20
I01
sbsg24
I00
sg25
g63
sbsg24
I00
sg25
g26
sba(imyEvolve
Tree
p567
(dp568
g11
(imyEvolve
Tree
p569
(dp570
g11
(imyEvolve
Tree
p571
(dp572
g8
(imyEvolve
Tree
p573
(dp574
g11
(imyEvolve
Tree
p575
(dp576
g8
(imyEvolve
Tree
p577
(dp578
g7
I0
sg36
F4.724329071510255
sg20
I01
sbsg7
I1
sg21
(imyEvolve
Tree
p579
(dp580
g7
I0
sg20
I00
sbsg24
I00
sg25
g26
sbsg7
I2
sg24
I01
sg25
g27
sbsg7
I3
sg21
(imyEvolve
Tree
p581
(dp582
g8
(imyEvolve
Tree
p583
(dp584
g11
(imyEvolve
Tree
p585
(dp586
g7
I0
sg36
F3.1712726919715237
sg20
I01
sbsg7
I1
sg24
I01
sg25
g27
sbsg7
I2
sg21
(imyEvolve
Tree
p587
(dp588
g11
(imyEvolve
Tree
p589
(dp590
g7
I0
sg36
F-2.4378044028652592
sg20
I01
sbsg7
I1
sg24
I01
sg25
g27
sbsg24
I00
sg25
g37
sbsg24
I00
sg25
g37
sbsg7
I4
sg24
I01
sg25
g72
sbsg7
I5
sg24
I01
sg25
g42
sba(imyEvolve
Tree
p591
(dp592
g11
(imyEvolve
Tree
p593
(dp594
g11
(imyEvolve
Tree
p595
(dp596
g8
(imyEvolve
Tree
p597
(dp598
g8
(imyEvolve
Tree
p599
(dp600
g7
I0
sg36
F-0.9638951237623434
sg20
I01
sbsg7
I1
sg21
(imyEvolve
Tree
p601
(dp602
g7
I0
sg20
I00
sbsg24
I00
sg25
g26
sbsg7
I2
sg21
(imyEvolve
Tree
p603
(dp604
g8
(imyEvolve
Tree
p605
(dp606
g7
I0
sg36
F0.9251340411452533
sg20
I01
sbsg7
I1
sg21
(imyEvolve
Tree
p607
(dp608
g7
I0
sg36
F4.627826208692214
sg20
I01
sbsg24
I00
sg25
g37
sbsg24
I00
sg25
g37
sbsg7
I3
sg24
I01
sg25
g91
sbsg7
I4
sg24
I01
sg25
g27
sba(imyEvolve
Tree
p609
(dp610
g8
(imyEvolve
Tree
p611
(dp612
g8
(imyEvolve
Tree
p613
(dp614
g11
(imyEvolve
Tree
p615
(dp616
g11
(imyEvolve
Tree
p617
(dp618
g7
I0
sg36
F2.493071552530779
sg20
I01
sbsg7
I1
sg24
I01
sg25
g27
sbsg7
I2
sg24
I01
sg25
g42
sbsg7
I3
sg21
(imyEvolve
Tree
p619
(dp620
g11
(imyEvolve
Tree
p621
(dp622
g8
(imyEvolve
Tree
p623
(dp624
g7
I0
sg36
F-1.9688625640355184
sg20
I01
sbsg7
I1
sg21
(imyEvolve
Tree
p625
(dp626
g7
I0
sg36
F0.8183637529579553
sg20
I01
sbsg24
I00
sg25
g37
sbsg7
I2
sg24
I01
sg25
g42
sbsg24
I00
sg25
g63
sbsg7
I4
sg21
(imyEvolve
Tree
p627
(dp628
g8
(imyEvolve
Tree
p629
(dp630
g11
(imyEvolve
Tree
p631
(dp632
g8
(imyEvolve
Tree
p633
(dp634
g7
I0
sg36
F-2.2051375433970644
sg20
I01
sbsg7
I1
sg21
(imyEvolve
Tree
p635
(dp636
g7
I0
sg20
I00
sbsg24
I00
sg25
g63
sbsg7
I2
sg24
I01
sg25
g91
sbsg7
I3
sg21
(imyEvolve
Tree
p637
(dp638
g8
(imyEvolve
Tree
p639
(dp640
g8
(imyEvolve
Tree
p641
(dp642
g7
I0
sg36
F2.904198862706444
sg20
I01
sbsg7
I1
sg21
(imyEvolve
Tree
p643
(dp644
g7
I0
sg20
I00
sbsg24
I00
sg25
g63
sbsg7
I2
sg21
(imyEvolve
Tree
p645
(dp646
g8
(imyEvolve
Tree
p647
(dp648
g7
I0
sg20
I00
sbsg7
I1
sg21
(imyEvolve
Tree
p649
(dp650
g7
I0
sg20
I00
sbsg24
I00
sg25
g63
sbsg24
I00
sg25
g26
sbsg24
I00
sg25
g26
sbsg24
I00
sg25
g37
sba(imyEvolve
Tree
p651
(dp652
g11
(imyEvolve
Tree
p653
(dp654
g11
(imyEvolve
Tree
p655
(dp656
g8
(imyEvolve
Tree
p657
(dp658
g8
(imyEvolve
Tree
p659
(dp660
g7
I0
sg36
F1.6054879235135502
sg20
I01
sbsg7
I1
sg21
(imyEvolve
Tree
p661
(dp662
g7
I0
sg20
I00
sbsg24
I00
sg25
g63
sbsg7
I2
sg21
(imyEvolve
Tree
p663
(dp664
g11
(imyEvolve
Tree
p665
(dp666
g7
I0
sg36
F-0.1047063834828057
sg20
I01
sbsg7
I1
sg24
I01
sg25
g72
sbsg24
I00
sg25
g37
sbsg7
I3
sg24
I01
sg25
g91
sbsg7
I4
sg24
I01
sg25
g42
sba(imyEvolve
Tree
p667
(dp668
g8
(imyEvolve
Tree
p669
(dp670
g8
(imyEvolve
Tree
p671
(dp672
g11
(imyEvolve
Tree
p673
(dp674
g7
I0
sg36
F-4.214676492199663
sg20
I01
sbsg7
I1
sg24
I01
sg25
g42
sbsg7
I2
sg21
(imyEvolve
Tree
p675
(dp676
g11
(imyEvolve
Tree
p677
(dp678
g7
I0
sg20
I00
sbsg7
I1
sg24
I01
sg25
g27
sbsg24
I00
sg25
g37
sbsg7
I3
sg21
(imyEvolve
Tree
p679
(dp680
g8
(imyEvolve
Tree
p681
(dp682
g11
(imyEvolve
Tree
p683
(dp684
g7
I0
sg36
F-1.3479012570209257
sg20
I01
sbsg7
I1
sg24
I01
sg25
g27
sbsg7
I2
sg21
(imyEvolve
Tree
p685
(dp686
g8
(imyEvolve
Tree
p687
(dp688
g7
I0
sg36
F-0.5293546841931214
sg20
I01
sbsg7
I1
sg21
(imyEvolve
Tree
p689
(dp690
g7
I0
sg20
I00
sbsg24
I00
sg25
g63
sbsg24
I00
sg25
g63
sbsg24
I00
sg25
g63
sba(imyEvolve
Tree
p691
(dp692
g11
(imyEvolve
Tree
p693
(dp694
g11
(imyEvolve
Tree
p695
(dp696
g7
I0
sg36
F4.467544528962547
sg20
I01
sbsg7
I1
sg24
I01
sg25
g42
sbsg7
I2
sg24
I01
sg25
g42
sba(imyEvolve
Tree
p697
(dp698
g7
I2
sg8
(imyEvolve
Tree
p699
(dp700
g7
I1
sg8
(imyEvolve
Tree
p701
(dp702
g7
I0
sg36
F0.5292803482858224
sg20
I01
sbsg21
(imyEvolve
Tree
p703
(dp704
g7
I0
sg20
I00
sbsg24
I00
sg25
g37
sbsg21
(imyEvolve
Tree
p705
(dp706
g7
I1
sg8
(imyEvolve
Tree
p707
(dp708
g7
I0
sg36
F-4.523976066557845
sg20
I01
sbsg21
(imyEvolve
Tree
p709
(dp710
g7
I0
sg36
F-0.5018508244221973
sg20
I01
sbsg24
I00
sg25
g26
sbsg24
I00
sg25
g26
sba(imyEvolve
Tree
p711
(dp712
g11
(imyEvolve
Tree
p713
(dp714
g11
(imyEvolve
Tree
p715
(dp716
g7
I3
sg8
(imyEvolve
Tree
p717
(dp718
g7
I2
sg8
(imyEvolve
Tree
p719
(dp720
g11
(imyEvolve
Tree
p721
(dp722
g7
I0
sg36
F3.2573416712859924
sg20
I01
sbsg7
I1
sg24
I01
sg25
g27
sbsg21
(imyEvolve
Tree
p723
(dp724
g11
(imyEvolve
Tree
p725
(dp726
g7
I0
sg20
I00
sbsg7
I1
sg24
I01
sg25
g91
sbsg24
I00
sg25
g63
sbsg21
(imyEvolve
Tree
p727
(dp728
g11
(imyEvolve
Tree
p729
(dp730
g11
(imyEvolve
Tree
p731
(dp732
g7
I0
sg20
I00
sbsg7
I1
sg24
I01
sg25
g27
sbsg7
I2
sg24
I01
sg25
g91
sbsg24
I00
sg25
g26
sbsg7
I4
sg24
I01
sg25
g42
sbsg7
I5
sg24
I01
sg25
g27
sba(imyEvolve
Tree
p733
(dp734
g8
(imyEvolve
Tree
p735
(dp736
g11
(imyEvolve
Tree
p737
(dp738
g7
I0
sg20
I00
sbsg7
I1
sg24
I01
sg25
g27
sbsg7
I2
sg21
(imyEvolve
Tree
p739
(dp740
g11
(imyEvolve
Tree
p741
(dp742
g7
I0
sg36
F4.337476903860351
sg20
I01
sbsg7
I1
sg24
I01
sg25
g72
sbsg24
I00
sg25
g26
sba(imyEvolve
Tree
p743
(dp744
g7
I3
sg8
(imyEvolve
Tree
p745
(dp746
g11
(imyEvolve
Tree
p747
(dp748
g11
(imyEvolve
Tree
p749
(dp750
g7
I0
sg36
F-3.966007991134232
sg20
I01
sbsg7
I1
sg24
I01
sg25
g42
sbsg7
I2
sg24
I01
sg25
g72
sbsg21
(imyEvolve
Tree
p751
(dp752
g11
(imyEvolve
Tree
p753
(dp754
g11
(imyEvolve
Tree
p755
(dp756
g7
I0
sg36
F2.551736982952397
sg20
I01
sbsg7
I1
sg24
I01
sg25
g72
sbsg7
I2
sg24
I01
sg25
g91
sbsg24
I00
sg25
g26
sba(imyEvolve
Tree
p757
(dp758
g7
I3
sg8
(imyEvolve
Tree
p759
(dp760
g11
(imyEvolve
Tree
p761
(dp762
g7
I1
sg8
(imyEvolve
Tree
p763
(dp764
g7
I0
sg36
F-0.28183252934892433
sg20
I01
sbsg21
(imyEvolve
Tree
p765
(dp766
g7
I0
sg20
I00
sbsg24
I00
sg25
g26
sbsg7
I2
sg24
I01
sg25
g91
sbsg21
(imyEvolve
Tree
p767
(dp768
g7
I2
sg8
(imyEvolve
Tree
p769
(dp770
g7
I1
sg8
(imyEvolve
Tree
p771
(dp772
g7
I0
sg20
I00
sbsg21
(imyEvolve
Tree
p773
(dp774
g7
I0
sg20
I00
sbsg24
I00
sg25
g63
sbsg21
(imyEvolve
Tree
p775
(dp776
g7
I1
sg8
(imyEvolve
Tree
p777
(dp778
g7
I0
sg36
F-3.2237436803814177
sg20
I01
sbsg21
(imyEvolve
Tree
p779
(dp780
g7
I0
sg20
I00
sbsg24
I00
sg25
g37
sbsg24
I00
sg25
g63
sbsg24
I00
sg25
g37
sba(imyEvolve
Tree
p781
(dp782
g8
(imyEvolve
Tree
p783
(dp784
g11
(imyEvolve
Tree
p785
(dp786
g7
I0
sg20
I00
sbsg7
I1
sg24
I01
sg25
g27
sbsg7
I2
sg21
(imyEvolve
Tree
p787
(dp788
g8
(imyEvolve
Tree
p789
(dp790
g7
I0
sg20
I00
sbsg7
I1
sg21
(imyEvolve
Tree
p791
(dp792
g7
I0
sg20
I00
sbsg24
I00
sg25
g63
sbsg24
I00
sg25
g37
sbaasS'alpha'
p793
F0.0025506773862888268
sS'fitness'
p794
cnumpy.core.multiarray
scalar
p795
(cnumpy
dtype
p796
(S'f8'
p797
I0
I1
tp798
Rp799
(I3
S'<'
p800
NNNI-1
I-1
I0
tp801
bS'j\xbct\x8cw\x1c\xe6?'
p802
tp803
Rp804
sS'weightSharing'
p805
(lp806
I01
asS'fitnessValid'
p807
I00
sS'resolution'
p808
I78
sb.