(imyEvolve
Individual
p0
(dp1
S'funcs'
p2
(lp3
(lp4
(imyEvolve
Tree
p5
(dp6
S'below'
p7
(imyEvolve
Tree
p8
(dp9
g7
(imyEvolve
Tree
p10
(dp11
S'depth'
p12
I0
sS'constant'
p13
F-4.563250153380672
sS'isConstant'
p14
I01
sbsg12
I1
sS'single'
p15
I01
sS'op'
p16
cmyEvolve
square
p17
sbsg12
I2
sg15
I01
sg16
cmath
cos
p18
sba(imyEvolve
Tree
p19
(dp20
S'left'
p21
(imyEvolve
Tree
p22
(dp23
g21
(imyEvolve
Tree
p24
(dp25
g7
(imyEvolve
Tree
p26
(dp27
g21
(imyEvolve
Tree
p28
(dp29
g21
(imyEvolve
Tree
p30
(dp31
g12
I0
sg14
I00
sbsg12
I1
sS'right'
p32
(imyEvolve
Tree
p33
(dp34
g12
I0
sg13
F2.4842166545595843
sg14
I01
sbsg15
I00
sg16
coperator
add
p35
sbsg12
I2
sg32
(imyEvolve
Tree
p36
(dp37
g7
(imyEvolve
Tree
p38
(dp39
g12
I0
sg13
F-0.48789877059713405
sg14
I01
sbsg12
I1
sg15
I01
sg16
cmyEvolve
absSqrt
p40
sbsg15
I00
sg16
coperator
mul
p41
sbsg12
I3
sg15
I01
sg16
cmath
sin
p42
sbsg12
I4
sg32
(imyEvolve
Tree
p43
(dp44
g7
(imyEvolve
Tree
p45
(dp46
g21
(imyEvolve
Tree
p47
(dp48
g21
(imyEvolve
Tree
p49
(dp50
g12
I0
sg13
F4.612358454702882
sg14
I01
sbsg12
I1
sg32
(imyEvolve
Tree
p51
(dp52
g12
I0
sg14
I00
sbsg15
I00
sg16
coperator
sub
p53
sbsg12
I2
sg32
(imyEvolve
Tree
p54
(dp55
g21
(imyEvolve
Tree
p56
(dp57
g12
I0
sg13
F-4.035936047316724
sg14
I01
sbsg12
I1
sg32
(imyEvolve
Tree
p58
(dp59
g12
I0
sg13
F-1.9665436658018445
sg14
I01
sbsg15
I00
sg16
g35
sbsg15
I00
sg16
g53
sbsg12
I3
sg15
I01
sg16
g17
sbsg15
I00
sg16
g35
sbsg12
I5
sg32
(imyEvolve
Tree
p60
(dp61
g21
(imyEvolve
Tree
p62
(dp63
g21
(imyEvolve
Tree
p64
(dp65
g21
(imyEvolve
Tree
p66
(dp67
g21
(imyEvolve
Tree
p68
(dp69
g12
I0
sg13
F-0.35254300800329297
sg14
I01
sbsg12
I1
sg32
(imyEvolve
Tree
p70
(dp71
g12
I0
sg14
I00
sbsg15
I00
sg16
g35
sbsg12
I2
sg32
(imyEvolve
Tree
p72
(dp73
g7
(imyEvolve
Tree
p74
(dp75
g12
I0
sg13
F0.30344584753323645
sg14
I01
sbsg12
I1
sg15
I01
sg16
g18
sbsg15
I00
sg16
g35
sbsg12
I3
sg32
(imyEvolve
Tree
p76
(dp77
g7
(imyEvolve
Tree
p78
(dp79
g21
(imyEvolve
Tree
p80
(dp81
g12
I0
sg13
F3.4034702550952165
sg14
I01
sbsg12
I1
sg32
(imyEvolve
Tree
p82
(dp83
g12
I0
sg14
I00
sbsg15
I00
sg16
g53
sbsg12
I2
sg15
I01
sg16
g40
sbsg15
I00
sg16
g53
sbsg12
I4
sg32
(imyEvolve
Tree
p84
(dp85
g7
(imyEvolve
Tree
p86
(dp87
g21
(imyEvolve
Tree
p88
(dp89
g7
(imyEvolve
Tree
p90
(dp91
g12
I0
sg13
F-0.7304050358150027
sg14
I01
sbsg12
I1
sg15
I01
sg16
g40
sbsg12
I2
sg32
(imyEvolve
Tree
p92
(dp93
g21
(imyEvolve
Tree
p94
(dp95
g12
I0
sg13
F-2.8963907036153023
sg14
I01
sbsg12
I1
sg32
(imyEvolve
Tree
p96
(dp97
g12
I0
sg14
I00
sbsg15
I00
sg16
g35
sbsg15
I00
sg16
g53
sbsg12
I3
sg15
I01
sg16
g17
sbsg15
I00
sg16
g35
sbsg15
I00
sg16
g35
sba(imyEvolve
Tree
p98
(dp99
g7
(imyEvolve
Tree
p100
(dp101
g12
I3
sg21
(imyEvolve
Tree
p102
(dp103
g12
I2
sg21
(imyEvolve
Tree
p104
(dp105
g7
(imyEvolve
Tree
p106
(dp107
g12
I0
sg13
F-0.6759775383916402
sg14
I01
sbsg12
I1
sg15
I01
sg16
g17
sbsg32
(imyEvolve
Tree
p108
(dp109
g7
(imyEvolve
Tree
p110
(dp111
g12
I0
sg14
I00
sbsg12
I1
sg15
I01
sg16
g18
sbsg15
I00
sg16
g35
sbsg32
(imyEvolve
Tree
p112
(dp113
g12
I2
sg21
(imyEvolve
Tree
p114
(dp115
g7
(imyEvolve
Tree
p116
(dp117
g12
I0
sg13
F2.042313388254046
sg14
I01
sbsg12
I1
sg15
I01
sg16
g40
sbsg32
(imyEvolve
Tree
p118
(dp119
g12
I1
sg21
(imyEvolve
Tree
p120
(dp121
g12
I0
sg14
I00
sbsg32
(imyEvolve
Tree
p122
(dp123
g12
I0
sg14
I00
sbsg15
I00
sg16
g53
sbsg15
I00
sg16
g53
sbsg15
I00
sg16
g53
sbsg12
I4
sg15
I01
sg16
g18
sba(imyEvolve
Tree
p124
(dp125
g7
(imyEvolve
Tree
p126
(dp127
g12
I3
sg21
(imyEvolve
Tree
p128
(dp129
g7
(imyEvolve
Tree
p130
(dp131
g7
(imyEvolve
Tree
p132
(dp133
g12
I0
sg13
F-1.4307663244230184
sg14
I01
sbsg12
I1
sg15
I01
sg16
g40
sbsg12
I2
sg15
I01
sg16
g18
sbsg32
(imyEvolve
Tree
p134
(dp135
g12
I2
sg21
(imyEvolve
Tree
p136
(dp137
g12
I1
sg21
(imyEvolve
Tree
p138
(dp139
g12
I0
sg13
F0.1390028799382108
sg14
I01
sbsg32
(imyEvolve
Tree
p140
(dp141
g12
I0
sg13
F-2.035640780055006
sg14
I01
sbsg15
I00
sg16
g35
sbsg32
(imyEvolve
Tree
p142
(dp143
g7
(imyEvolve
Tree
p144
(dp145
g12
I0
sg14
I00
sbsg12
I1
sg15
I01
sg16
g42
sbsg15
I00
sg16
g41
sbsg15
I00
sg16
g35
sbsg12
I4
sg15
I01
sg16
g40
sba(imyEvolve
Tree
p146
(dp147
g7
(imyEvolve
Tree
p148
(dp149
g7
(imyEvolve
Tree
p150
(dp151
g7
(imyEvolve
Tree
p152
(dp153
g21
(imyEvolve
Tree
p154
(dp155
g21
(imyEvolve
Tree
p156
(dp157
g12
I0
sg14
I00
sbsg12
I1
sg32
(imyEvolve
Tree
p158
(dp159
g12
I0
sg13
F0.304838521791857
sg14
I01
sbsg15
I00
sg16
g35
sbsg12
I2
sg32
(imyEvolve
Tree
p160
(dp161
g7
(imyEvolve
Tree
p162
(dp163
g12
I0
sg13
F-1.5030482224032724
sg14
I01
sbsg12
I1
sg15
I01
sg16
g40
sbsg15
I00
sg16
g53
sbsg12
I3
sg15
I01
sg16
g40
sbsg12
I4
sg15
I01
sg16
g40
sbsg12
I5
sg15
I01
sg16
g17
sba(imyEvolve
Tree
p164
(dp165
g7
(imyEvolve
Tree
p166
(dp167
g12
I4
sg21
(imyEvolve
Tree
p168
(dp169
g7
(imyEvolve
Tree
p170
(dp171
g7
(imyEvolve
Tree
p172
(dp173
g12
I1
sg21
(imyEvolve
Tree
p174
(dp175
g12
I0
sg14
I00
sbsg32
(imyEvolve
Tree
p176
(dp177
g12
I0
sg14
I00
sbsg15
I00
sg16
g53
sbsg12
I2
sg15
I01
sg16
g42
sbsg12
I3
sg15
I01
sg16
g40
sbsg32
(imyEvolve
Tree
p178
(dp179
g12
I3
sg21
(imyEvolve
Tree
p180
(dp181
g12
I2
sg21
(imyEvolve
Tree
p182
(dp183
g12
I1
sg21
(imyEvolve
Tree
p184
(dp185
g12
I0
sg14
I00
sbsg32
(imyEvolve
Tree
p186
(dp187
g12
I0
sg14
I00
sbsg15
I00
sg16
g53
sbsg32
(imyEvolve
Tree
p188
(dp189
g7
(imyEvolve
Tree
p190
(dp191
g12
I0
sg14
I00
sbsg12
I1
sg15
I01
sg16
g42
sbsg15
I00
sg16
g35
sbsg32
(imyEvolve
Tree
p192
(dp193
g7
(imyEvolve
Tree
p194
(dp195
g12
I1
sg21
(imyEvolve
Tree
p196
(dp197
g12
I0
sg14
I00
sbsg32
(imyEvolve
Tree
p198
(dp199
g12
I0
sg14
I00
sbsg15
I00
sg16
g53
sbsg12
I2
sg15
I01
sg16
g18
sbsg15
I00
sg16
g53
sbsg15
I00
sg16
g53
sbsg12
I5
sg15
I01
sg16
g40
sba(imyEvolve
Tree
p200
(dp201
g21
(imyEvolve
Tree
p202
(dp203
g21
(imyEvolve
Tree
p204
(dp205
g12
I0
sg14
I00
sbsg12
I1
sg32
(imyEvolve
Tree
p206
(dp207
g12
I0
sg13
F0.7498203774778833
sg14
I01
sbsg15
I00
sg16
g35
sbsg12
I2
sg32
(imyEvolve
Tree
p208
(dp209
g7
(imyEvolve
Tree
p210
(dp211
g12
I0
sg13
F2.3500615334230233
sg14
I01
sbsg12
I1
sg15
I01
sg16
g42
sbsg15
I00
sg16
g41
sba(imyEvolve
Tree
p212
(dp213
g7
(imyEvolve
Tree
p214
(dp215
g7
(imyEvolve
Tree
p216
(dp217
g7
(imyEvolve
Tree
p218
(dp219
g12
I0
sg14
I00
sbsg12
I1
sg15
I01
sg16
g42
sbsg12
I2
sg15
I01
sg16
g42
sbsg12
I3
sg15
I01
sg16
g40
sba(imyEvolve
Tree
p220
(dp221
g7
(imyEvolve
Tree
p222
(dp223
g7
(imyEvolve
Tree
p224
(dp225
g12
I2
sg21
(imyEvolve
Tree
p226
(dp227
g12
I1
sg21
(imyEvolve
Tree
p228
(dp229
g12
I0
sg14
I00
sbsg32
(imyEvolve
Tree
p230
(dp231
g12
I0
sg14
I00
sbsg15
I00
sg16
g41
sbsg32
(imyEvolve
Tree
p232
(dp233
g12
I1
sg21
(imyEvolve
Tree
p234
(dp235
g12
I0
sg14
I00
sbsg32
(imyEvolve
Tree
p236
(dp237
g12
I0
sg14
I00
sbsg15
I00
sg16
g53
sbsg15
I00
sg16
g53
sbsg12
I3
sg15
I01
sg16
g42
sbsg12
I4
sg15
I01
sg16
g42
sba(imyEvolve
Tree
p238
(dp239
g12
I5
sg21
(imyEvolve
Tree
p240
(dp241
g7
(imyEvolve
Tree
p242
(dp243
g7
(imyEvolve
Tree
p244
(dp245
g12
I2
sg21
(imyEvolve
Tree
p246
(dp247
g12
I1
sg21
(imyEvolve
Tree
p248
(dp249
g12
I0
sg14
I00
sbsg32
(imyEvolve
Tree
p250
(dp251
g12
I0
sg14
I00
sbsg15
I00
sg16
g53
sbsg32
(imyEvolve
Tree
p252
(dp253
g12
I1
sg21
(imyEvolve
Tree
p254
(dp255
g12
I0
sg13
F-0.9665699515129234
sg14
I01
sbsg32
(imyEvolve
Tree
p256
(dp257
g12
I0
sg13
F-0.6784236635511487
sg14
I01
sbsg15
I00
sg16
g41
sbsg15
I00
sg16
g35
sbsg12
I3
sg15
I01
sg16
g40
sbsg12
I4
sg15
I01
sg16
g17
sbsg32
(imyEvolve
Tree
p258
(dp259
g12
I4
sg21
(imyEvolve
Tree
p260
(dp261
g7
(imyEvolve
Tree
p262
(dp263
g12
I2
sg21
(imyEvolve
Tree
p264
(dp265
g12
I1
sg21
(imyEvolve
Tree
p266
(dp267
g12
I0
sg13
F3.4676810995700347
sg14
I01
sbsg32
(imyEvolve
Tree
p268
(dp269
g12
I0
sg13
F1.9079234093163961
sg14
I01
sbsg15
I00
sg16
g53
sbsg32
(imyEvolve
Tree
p270
(dp271
g12
I1
sg21
(imyEvolve
Tree
p272
(dp273
g12
I0
sg13
F-2.874630655928377
sg14
I01
sbsg32
(imyEvolve
Tree
p274
(dp275
g12
I0
sg13
F-3.3328184189069407
sg14
I01
sbsg15
I00
sg16
g53
sbsg15
I00
sg16
g53
sbsg12
I3
sg15
I01
sg16
g42
sbsg32
(imyEvolve
Tree
p276
(dp277
g7
(imyEvolve
Tree
p278
(dp279
g7
(imyEvolve
Tree
p280
(dp281
g7
(imyEvolve
Tree
p282
(dp283
g12
I0
sg13
F2.42572583674386
sg14
I01
sbsg12
I1
sg15
I01
sg16
g18
sbsg12
I2
sg15
I01
sg16
g17
sbsg12
I3
sg15
I01
sg16
g17
sbsg15
I00
sg16
g41
sbsg15
I00
sg16
g53
sba(imyEvolve
Tree
p284
(dp285
g21
(imyEvolve
Tree
p286
(dp287
g7
(imyEvolve
Tree
p288
(dp289
g12
I0
sg13
F-2.730835104919187
sg14
I01
sbsg12
I1
sg15
I01
sg16
g42
sbsg12
I2
sg32
(imyEvolve
Tree
p290
(dp291
g21
(imyEvolve
Tree
p292
(dp293
g12
I0
sg14
I00
sbsg12
I1
sg32
(imyEvolve
Tree
p294
(dp295
g12
I0
sg14
I00
sbsg15
I00
sg16
g35
sbsg15
I00
sg16
g53
sba(imyEvolve
Tree
p296
(dp297
g12
I2
sg21
(imyEvolve
Tree
p298
(dp299
g7
(imyEvolve
Tree
p300
(dp301
g12
I0
sg13
F1.3291209257745509
sg14
I01
sbsg12
I1
sg15
I01
sg16
g17
sbsg32
(imyEvolve
Tree
p302
(dp303
g12
I1
sg21
(imyEvolve
Tree
p304
(dp305
g12
I0
sg14
I00
sbsg32
(imyEvolve
Tree
p306
(dp307
g12
I0
sg14
I00
sbsg15
I00
sg16
g41
sbsg15
I00
sg16
g35
sba(imyEvolve
Tree
p308
(dp309
g7
(imyEvolve
Tree
p310
(dp311
g7
(imyEvolve
Tree
p312
(dp313
g7
(imyEvolve
Tree
p314
(dp315
g7
(imyEvolve
Tree
p316
(dp317
g12
I0
sg14
I00
sbsg12
I1
sg15
I01
sg16
g40
sbsg12
I2
sg15
I01
sg16
g40
sbsg12
I3
sg15
I01
sg16
g40
sbsg12
I4
sg15
I01
sg16
g42
sba(imyEvolve
Tree
p318
(dp319
g7
(imyEvolve
Tree
p320
(dp321
g21
(imyEvolve
Tree
p322
(dp323
g7
(imyEvolve
Tree
p324
(dp325
g7
(imyEvolve
Tree
p326
(dp327
g12
I0
sg14
I00
sbsg12
I1
sg15
I01
sg16
g42
sbsg12
I2
sg15
I01
sg16
g42
sbsg12
I3
sg32
(imyEvolve
Tree
p328
(dp329
g7
(imyEvolve
Tree
p330
(dp331
g7
(imyEvolve
Tree
p332
(dp333
g12
I0
sg14
I00
sbsg12
I1
sg15
I01
sg16
g18
sbsg12
I2
sg15
I01
sg16
g18
sbsg15
I00
sg16
g35
sbsg12
I4
sg15
I01
sg16
g17
sba(imyEvolve
Tree
p334
(dp335
g7
(imyEvolve
Tree
p336
(dp337
g21
(imyEvolve
Tree
p338
(dp339
g7
(imyEvolve
Tree
p340
(dp341
g7
(imyEvolve
Tree
p342
(dp343
g12
I0
sg13
F1.2673741460726085
sg14
I01
sbsg12
I1
sg15
I01
sg16
g42
sbsg12
I2
sg15
I01
sg16
g17
sbsg12
I3
sg32
(imyEvolve
Tree
p344
(dp345
g21
(imyEvolve
Tree
p346
(dp347
g21
(imyEvolve
Tree
p348
(dp349
g12
I0
sg14
I00
sbsg12
I1
sg32
(imyEvolve
Tree
p350
(dp351
g12
I0
sg13
F1.1813954358826475
sg14
I01
sbsg15
I00
sg16
g53
sbsg12
I2
sg32
(imyEvolve
Tree
p352
(dp353
g7
(imyEvolve
Tree
p354
(dp355
g12
I0
sg13
F1.9851409186653566
sg14
I01
sbsg12
I1
sg15
I01
sg16
g18
sbsg15
I00
sg16
g41
sbsg15
I00
sg16
g41
sbsg12
I4
sg15
I01
sg16
g40
sba(imyEvolve
Tree
p356
(dp357
g7
(imyEvolve
Tree
p358
(dp359
g21
(imyEvolve
Tree
p360
(dp361
g12
I0
sg14
I00
sbsg12
I1
sg32
(imyEvolve
Tree
p362
(dp363
g12
I0
sg13
F-3.5713627831542105
sg14
I01
sbsg15
I00
sg16
g41
sbsg12
I2
sg15
I01
sg16
g40
sba(imyEvolve
Tree
p364
(dp365
g7
(imyEvolve
Tree
p366
(dp367
g21
(imyEvolve
Tree
p368
(dp369
g7
(imyEvolve
Tree
p370
(dp371
g7
(imyEvolve
Tree
p372
(dp373
g12
I0
sg13
F4.621639351528035
sg14
I01
sbsg12
I1
sg15
I01
sg16
g17
sbsg12
I2
sg15
I01
sg16
g17
sbsg12
I3
sg32
(imyEvolve
Tree
p374
(dp375
g7
(imyEvolve
Tree
p376
(dp377
g21
(imyEvolve
Tree
p378
(dp379
g12
I0
sg14
I00
sbsg12
I1
sg32
(imyEvolve
Tree
p380
(dp381
g12
I0
sg14
I00
sbsg15
I00
sg16
g41
sbsg12
I2
sg15
I01
sg16
g18
sbsg15
I00
sg16
g53
sbsg12
I4
sg15
I01
sg16
g18
sba(imyEvolve
Tree
p382
(dp383
g21
(imyEvolve
Tree
p384
(dp385
g7
(imyEvolve
Tree
p386
(dp387
g21
(imyEvolve
Tree
p388
(dp389
g21
(imyEvolve
Tree
p390
(dp391
g12
I0
sg13
F-2.333072058415188
sg14
I01
sbsg12
I1
sg32
(imyEvolve
Tree
p392
(dp393
g12
I0
sg14
I00
sbsg15
I00
sg16
g41
sbsg12
I2
sg32
(imyEvolve
Tree
p394
(dp395
g7
(imyEvolve
Tree
p396
(dp397
g12
I0
sg14
I00
sbsg12
I1
sg15
I01
sg16
g18
sbsg15
I00
sg16
g53
sbsg12
I3
sg15
I01
sg16
g18
sbsg12
I4
sg32
(imyEvolve
Tree
p398
(dp399
g21
(imyEvolve
Tree
p400
(dp401
g7
(imyEvolve
Tree
p402
(dp403
g7
(imyEvolve
Tree
p404
(dp405
g12
I0
sg14
I00
sbsg12
I1
sg15
I01
sg16
g18
sbsg12
I2
sg15
I01
sg16
g17
sbsg12
I3
sg32
(imyEvolve
Tree
p406
(dp407
g21
(imyEvolve
Tree
p408
(dp409
g7
(imyEvolve
Tree
p410
(dp411
g12
I0
sg13
F-1.1860108469205057
sg14
I01
sbsg12
I1
sg15
I01
sg16
g42
sbsg12
I2
sg32
(imyEvolve
Tree
p412
(dp413
g21
(imyEvolve
Tree
p414
(dp415
g12
I0
sg14
I00
sbsg12
I1
sg32
(imyEvolve
Tree
p416
(dp417
g12
I0
sg14
I00
sbsg15
I00
sg16
g41
sbsg15
I00
sg16
g41
sbsg15
I00
sg16
g41
sbsg15
I00
sg16
g53
sba(imyEvolve
Tree
p418
(dp419
g21
(imyEvolve
Tree
p420
(dp421
g21
(imyEvolve
Tree
p422
(dp423
g21
(imyEvolve
Tree
p424
(dp425
g21
(imyEvolve
Tree
p426
(dp427
g12
I0
sg13
F-1.3856725040700613
sg14
I01
sbsg12
I1
sg32
(imyEvolve
Tree
p428
(dp429
g12
I0
sg13
F-2.6666571928058036
sg14
I01
sbsg15
I00
sg16
g53
sbsg12
I2
sg32
(imyEvolve
Tree
p430
(dp431
g21
(imyEvolve
Tree
p432
(dp433
g12
I0
sg13
F4.74265453836958
sg14
I01
sbsg12
I1
sg32
(imyEvolve
Tree
p434
(dp435
g12
I0
sg14
I00
sbsg15
I00
sg16
g35
sbsg15
I00
sg16
g53
sbsg12
I3
sg32
(imyEvolve
Tree
p436
(dp437
g21
(imyEvolve
Tree
p438
(dp439
g21
(imyEvolve
Tree
p440
(dp441
g12
I0
sg13
F-4.571888899603472
sg14
I01
sbsg12
I1
sg32
(imyEvolve
Tree
p442
(dp443
g12
I0
sg14
I00
sbsg15
I00
sg16
g41
sbsg12
I2
sg32
(imyEvolve
Tree
p444
(dp445
g21
(imyEvolve
Tree
p446
(dp447
g12
I0
sg14
I00
sbsg12
I1
sg32
(imyEvolve
Tree
p448
(dp449
g12
I0
sg13
F-4.238122781513663
sg14
I01
sbsg15
I00
sg16
g53
sbsg15
I00
sg16
g35
sbsg15
I00
sg16
g53
sbsg12
I4
sg32
(imyEvolve
Tree
p450
(dp451
g7
(imyEvolve
Tree
p452
(dp453
g21
(imyEvolve
Tree
p454
(dp455
g7
(imyEvolve
Tree
p456
(dp457
g12
I0
sg13
F-4.899822936894786
sg14
I01
sbsg12
I1
sg15
I01
sg16
g18
sbsg12
I2
sg32
(imyEvolve
Tree
p458
(dp459
g7
(imyEvolve
Tree
p460
(dp461
g12
I0
sg13
F0.8133443715456803
sg14
I01
sbsg12
I1
sg15
I01
sg16
g18
sbsg15
I00
sg16
g41
sbsg12
I3
sg15
I01
sg16
g18
sbsg15
I00
sg16
g35
sbaa(lp462
(imyEvolve
Tree
p463
(dp464
g7
(imyEvolve
Tree
p465
(dp466
g21
(imyEvolve
Tree
p467
(dp468
g21
(imyEvolve
Tree
p469
(dp470
g7
(imyEvolve
Tree
p471
(dp472
g12
I0
sg13
F-0.5177396789217017
sg14
I01
sbsg12
I1
sg15
I01
sg16
g40
sbsg12
I2
sg32
(imyEvolve
Tree
p473
(dp474
g7
(imyEvolve
Tree
p475
(dp476
g12
I0
sg13
F-2.9952610245265
sg14
I01
sbsg12
I1
sg15
I01
sg16
g40
sbsg15
I00
sg16
g41
sbsg12
I3
sg32
(imyEvolve
Tree
p477
(dp478
g21
(imyEvolve
Tree
p479
(dp480
g7
(imyEvolve
Tree
p481
(dp482
g12
I0
sg13
F4.85832124502879
sg14
I01
sbsg12
I1
sg15
I01
sg16
g42
sbsg12
I2
sg32
(imyEvolve
Tree
p483
(dp484
g7
(imyEvolve
Tree
p485
(dp486
g12
I0
sg14
I00
sbsg12
I1
sg15
I01
sg16
g17
sbsg15
I00
sg16
g53
sbsg15
I00
sg16
g53
sbsg12
I4
sg15
I01
sg16
g40
sba(imyEvolve
Tree
p487
(dp488
g21
(imyEvolve
Tree
p489
(dp490
g7
(imyEvolve
Tree
p491
(dp492
g12
I0
sg13
F-4.102018097452792
sg14
I01
sbsg12
I1
sg15
I01
sg16
g42
sbsg12
I2
sg32
(imyEvolve
Tree
p493
(dp494
g7
(imyEvolve
Tree
p495
(dp496
g12
I0
sg13
F-1.103799335200696
sg14
I01
sbsg12
I1
sg15
I01
sg16
g17
sbsg15
I00
sg16
g53
sba(imyEvolve
Tree
p497
(dp498
g12
I3
sg21
(imyEvolve
Tree
p499
(dp500
g12
I2
sg21
(imyEvolve
Tree
p501
(dp502
g7
(imyEvolve
Tree
p503
(dp504
g12
I0
sg14
I00
sbsg12
I1
sg15
I01
sg16
g40
sbsg32
(imyEvolve
Tree
p505
(dp506
g12
I1
sg21
(imyEvolve
Tree
p507
(dp508
g12
I0
sg13
F-2.434633719887006
sg14
I01
sbsg32
(imyEvolve
Tree
p509
(dp510
g12
I0
sg14
I00
sbsg15
I00
sg16
g41
sbsg15
I00
sg16
g35
sbsg32
(imyEvolve
Tree
p511
(dp512
g7
(imyEvolve
Tree
p513
(dp514
g7
(imyEvolve
Tree
p515
(dp516
g12
I0
sg14
I00
sbsg12
I1
sg15
I01
sg16
g17
sbsg12
I2
sg15
I01
sg16
g42
sbsg15
I00
sg16
g35
sba(imyEvolve
Tree
p517
(dp518
g21
(imyEvolve
Tree
p519
(dp520
g7
(imyEvolve
Tree
p521
(dp522
g21
(imyEvolve
Tree
p523
(dp524
g7
(imyEvolve
Tree
p525
(dp526
g12
I0
sg14
I00
sbsg12
I1
sg15
I01
sg16
g40
sbsg12
I2
sg32
(imyEvolve
Tree
p527
(dp528
g21
(imyEvolve
Tree
p529
(dp530
g12
I0
sg13
F-1.3856565181639366
sg14
I01
sbsg12
I1
sg32
(imyEvolve
Tree
p531
(dp532
g12
I0
sg14
I00
sbsg15
I00
sg16
g41
sbsg15
I00
sg16
g53
sbsg12
I3
sg15
I01
sg16
g42
sbsg12
I4
sg32
(imyEvolve
Tree
p533
(dp534
g21
(imyEvolve
Tree
p535
(dp536
g7
(imyEvolve
Tree
p537
(dp538
g7
(imyEvolve
Tree
p539
(dp540
g12
I0
sg13
F-4.664571699332604
sg14
I01
sbsg12
I1
sg15
I01
sg16
g17
sbsg12
I2
sg15
I01
sg16
g18
sbsg12
I3
sg32
(imyEvolve
Tree
p541
(dp542
g21
(imyEvolve
Tree
p543
(dp544
g21
(imyEvolve
Tree
p545
(dp546
g12
I0
sg14
I00
sbsg12
I1
sg32
(imyEvolve
Tree
p547
(dp548
g12
I0
sg13
F4.061115404924191
sg14
I01
sbsg15
I00
sg16
g53
sbsg12
I2
sg32
(imyEvolve
Tree
p549
(dp550
g21
(imyEvolve
Tree
p551
(dp552
g12
I0
sg14
I00
sbsg12
I1
sg32
(imyEvolve
Tree
p553
(dp554
g12
I0
sg13
F-0.8345457042793845
sg14
I01
sbsg15
I00
sg16
g35
sbsg15
I00
sg16
g35
sbsg15
I00
sg16
g35
sbsg15
I00
sg16
g35
sba(imyEvolve
Tree
p555
(dp556
g21
(imyEvolve
Tree
p557
(dp558
g21
(imyEvolve
Tree
p559
(dp560
g7
(imyEvolve
Tree
p561
(dp562
g21
(imyEvolve
Tree
p563
(dp564
g7
(imyEvolve
Tree
p565
(dp566
g12
I0
sg14
I00
sbsg12
I1
sg15
I01
sg16
g42
sbsg12
I2
sg32
(imyEvolve
Tree
p567
(dp568
g7
(imyEvolve
Tree
p569
(dp570
g12
I0
sg13
F-1.495007676420422
sg14
I01
sbsg12
I1
sg15
I01
sg16
g17
sbsg15
I00
sg16
g35
sbsg12
I3
sg15
I01
sg16
g18
sbsg12
I4
sg32
(imyEvolve
Tree
p571
(dp572
g21
(imyEvolve
Tree
p573
(dp574
g7
(imyEvolve
Tree
p575
(dp576
g7
(imyEvolve
Tree
p577
(dp578
g12
I0
sg13
F-1.0584899895778257
sg14
I01
sbsg12
I1
sg15
I01
sg16
g18
sbsg12
I2
sg15
I01
sg16
g42
sbsg12
I3
sg32
(imyEvolve
Tree
p579
(dp580
g7
(imyEvolve
Tree
p581
(dp582
g21
(imyEvolve
Tree
p583
(dp584
g12
I0
sg14
I00
sbsg12
I1
sg32
(imyEvolve
Tree
p585
(dp586
g12
I0
sg14
I00
sbsg15
I00
sg16
g53
sbsg12
I2
sg15
I01
sg16
g42
sbsg15
I00
sg16
g53
sbsg15
I00
sg16
g53
sbsg12
I5
sg32
(imyEvolve
Tree
p587
(dp588
g21
(imyEvolve
Tree
p589
(dp590
g7
(imyEvolve
Tree
p591
(dp592
g7
(imyEvolve
Tree
p593
(dp594
g21
(imyEvolve
Tree
p595
(dp596
g12
I0
sg13
F-4.053300571933121
sg14
I01
sbsg12
I1
sg32
(imyEvolve
Tree
p597
(dp598
g12
I0
sg14
I00
sbsg15
I00
sg16
g41
sbsg12
I2
sg15
I01
sg16
g40
sbsg12
I3
sg15
I01
sg16
g17
sbsg12
I4
sg32
(imyEvolve
Tree
p599
(dp600
g21
(imyEvolve
Tree
p601
(dp602
g21
(imyEvolve
Tree
p603
(dp604
g7
(imyEvolve
Tree
p605
(dp606
g12
I0
sg14
I00
sbsg12
I1
sg15
I01
sg16
g18
sbsg12
I2
sg32
(imyEvolve
Tree
p607
(dp608
g7
(imyEvolve
Tree
p609
(dp610
g12
I0
sg13
F-1.716418313909621
sg14
I01
sbsg12
I1
sg15
I01
sg16
g42
sbsg15
I00
sg16
g53
sbsg12
I3
sg32
(imyEvolve
Tree
p611
(dp612
g21
(imyEvolve
Tree
p613
(dp614
g21
(imyEvolve
Tree
p615
(dp616
g12
I0
sg13
F4.600271725428852
sg14
I01
sbsg12
I1
sg32
(imyEvolve
Tree
p617
(dp618
g12
I0
sg13
F1.686821794750771
sg14
I01
sbsg15
I00
sg16
g41
sbsg12
I2
sg32
(imyEvolve
Tree
p619
(dp620
g7
(imyEvolve
Tree
p621
(dp622
g12
I0
sg13
F4.459644316834634
sg14
I01
sbsg12
I1
sg15
I01
sg16
g18
sbsg15
I00
sg16
g41
sbsg15
I00
sg16
g41
sbsg15
I00
sg16
g41
sbsg15
I00
sg16
g35
sba(imyEvolve
Tree
p623
(dp624
g21
(imyEvolve
Tree
p625
(dp626
g21
(imyEvolve
Tree
p627
(dp628
g7
(imyEvolve
Tree
p629
(dp630
g12
I0
sg14
I00
sbsg12
I1
sg15
I01
sg16
g42
sbsg12
I2
sg32
(imyEvolve
Tree
p631
(dp632
g7
(imyEvolve
Tree
p633
(dp634
g12
I0
sg13
F-2.714371031844326
sg14
I01
sbsg12
I1
sg15
I01
sg16
g17
sbsg15
I00
sg16
g41
sbsg12
I3
sg32
(imyEvolve
Tree
p635
(dp636
g7
(imyEvolve
Tree
p637
(dp638
g7
(imyEvolve
Tree
p639
(dp640
g12
I0
sg13
F-0.4915607658529506
sg14
I01
sbsg12
I1
sg15
I01
sg16
g17
sbsg12
I2
sg15
I01
sg16
g18
sbsg15
I00
sg16
g41
sba(imyEvolve
Tree
p641
(dp642
g21
(imyEvolve
Tree
p643
(dp644
g21
(imyEvolve
Tree
p645
(dp646
g7
(imyEvolve
Tree
p647
(dp648
g21
(imyEvolve
Tree
p649
(dp650
g21
(imyEvolve
Tree
p651
(dp652
g12
I0
sg13
F-4.316295892362173
sg14
I01
sbsg12
I1
sg32
(imyEvolve
Tree
p653
(dp654
g12
I0
sg13
F1.1680017252663797
sg14
I01
sbsg15
I00
sg16
g35
sbsg12
I2
sg32
(imyEvolve
Tree
p655
(dp656
g7
(imyEvolve
Tree
p657
(dp658
g12
I0
sg14
I00
sbsg12
I1
sg15
I01
sg16
g42
sbsg15
I00
sg16
g53
sbsg12
I3
sg15
I01
sg16
g42
sbsg12
I4
sg32
(imyEvolve
Tree
p659
(dp660
g7
(imyEvolve
Tree
p661
(dp662
g7
(imyEvolve
Tree
p663
(dp664
g7
(imyEvolve
Tree
p665
(dp666
g12
I0
sg13
F-4.170120426647075
sg14
I01
sbsg12
I1
sg15
I01
sg16
g17
sbsg12
I2
sg15
I01
sg16
g40
sbsg12
I3
sg15
I01
sg16
g17
sbsg15
I00
sg16
g35
sbsg12
I5
sg32
(imyEvolve
Tree
p667
(dp668
g21
(imyEvolve
Tree
p669
(dp670
g21
(imyEvolve
Tree
p671
(dp672
g21
(imyEvolve
Tree
p673
(dp674
g21
(imyEvolve
Tree
p675
(dp676
g12
I0
sg13
F0.7549396622476987
sg14
I01
sbsg12
I1
sg32
(imyEvolve
Tree
p677
(dp678
g12
I0
sg14
I00
sbsg15
I00
sg16
g53
sbsg12
I2
sg32
(imyEvolve
Tree
p679
(dp680
g21
(imyEvolve
Tree
p681
(dp682
g12
I0
sg14
I00
sbsg12
I1
sg32
(imyEvolve
Tree
p683
(dp684
g12
I0
sg13
F-3.6292086562857993
sg14
I01
sbsg15
I00
sg16
g41
sbsg15
I00
sg16
g35
sbsg12
I3
sg32
(imyEvolve
Tree
p685
(dp686
g21
(imyEvolve
Tree
p687
(dp688
g21
(imyEvolve
Tree
p689
(dp690
g12
I0
sg14
I00
sbsg12
I1
sg32
(imyEvolve
Tree
p691
(dp692
g12
I0
sg13
F1.1552142192433
sg14
I01
sbsg15
I00
sg16
g53
sbsg12
I2
sg32
(imyEvolve
Tree
p693
(dp694
g7
(imyEvolve
Tree
p695
(dp696
g12
I0
sg13
F3.7330980110057848
sg14
I01
sbsg12
I1
sg15
I01
sg16
g42
sbsg15
I00
sg16
g53
sbsg15
I00
sg16
g41
sbsg12
I4
sg32
(imyEvolve
Tree
p697
(dp698
g21
(imyEvolve
Tree
p699
(dp700
g7
(imyEvolve
Tree
p701
(dp702
g21
(imyEvolve
Tree
p703
(dp704
g12
I0
sg14
I00
sbsg12
I1
sg32
(imyEvolve
Tree
p705
(dp706
g12
I0
sg13
F2.7514455130405118
sg14
I01
sbsg15
I00
sg16
g35
sbsg12
I2
sg15
I01
sg16
g17
sbsg12
I3
sg32
(imyEvolve
Tree
p707
(dp708
g21
(imyEvolve
Tree
p709
(dp710
g21
(imyEvolve
Tree
p711
(dp712
g12
I0
sg13
F2.775957724469177
sg14
I01
sbsg12
I1
sg32
(imyEvolve
Tree
p713
(dp714
g12
I0
sg13
F-2.975232514732633
sg14
I01
sbsg15
I00
sg16
g35
sbsg12
I2
sg32
(imyEvolve
Tree
p715
(dp716
g21
(imyEvolve
Tree
p717
(dp718
g12
I0
sg14
I00
sbsg12
I1
sg32
(imyEvolve
Tree
p719
(dp720
g12
I0
sg14
I00
sbsg15
I00
sg16
g35
sbsg15
I00
sg16
g41
sbsg15
I00
sg16
g41
sbsg15
I00
sg16
g53
sbsg15
I00
sg16
g41
sba(imyEvolve
Tree
p721
(dp722
g21
(imyEvolve
Tree
p723
(dp724
g7
(imyEvolve
Tree
p725
(dp726
g21
(imyEvolve
Tree
p727
(dp728
g21
(imyEvolve
Tree
p729
(dp730
g7
(imyEvolve
Tree
p731
(dp732
g12
I0
sg13
F0.07053482830773916
sg14
I01
sbsg12
I1
sg15
I01
sg16
g42
sbsg12
I2
sg32
(imyEvolve
Tree
p733
(dp734
g21
(imyEvolve
Tree
p735
(dp736
g12
I0
sg14
I00
sbsg12
I1
sg32
(imyEvolve
Tree
p737
(dp738
g12
I0
sg14
I00
sbsg15
I00
sg16
g35
sbsg15
I00
sg16
g35
sbsg12
I3
sg32
(imyEvolve
Tree
p739
(dp740
g21
(imyEvolve
Tree
p741
(dp742
g21
(imyEvolve
Tree
p743
(dp744
g12
I0
sg14
I00
sbsg12
I1
sg32
(imyEvolve
Tree
p745
(dp746
g12
I0
sg14
I00
sbsg15
I00
sg16
g35
sbsg12
I2
sg32
(imyEvolve
Tree
p747
(dp748
g21
(imyEvolve
Tree
p749
(dp750
g12
I0
sg14
I00
sbsg12
I1
sg32
(imyEvolve
Tree
p751
(dp752
g12
I0
sg14
I00
sbsg15
I00
sg16
g41
sbsg15
I00
sg16
g53
sbsg15
I00
sg16
g53
sbsg12
I4
sg15
I01
sg16
g18
sbsg12
I5
sg32
(imyEvolve
Tree
p753
(dp754
g7
(imyEvolve
Tree
p755
(dp756
g21
(imyEvolve
Tree
p757
(dp758
g21
(imyEvolve
Tree
p759
(dp760
g21
(imyEvolve
Tree
p761
(dp762
g12
I0
sg14
I00
sbsg12
I1
sg32
(imyEvolve
Tree
p763
(dp764
g12
I0
sg14
I00
sbsg15
I00
sg16
g41
sbsg12
I2
sg32
(imyEvolve
Tree
p765
(dp766
g21
(imyEvolve
Tree
p767
(dp768
g12
I0
sg13
F3.051346654255127
sg14
I01
sbsg12
I1
sg32
(imyEvolve
Tree
p769
(dp770
g12
I0
sg14
I00
sbsg15
I00
sg16
g35
sbsg15
I00
sg16
g41
sbsg12
I3
sg32
(imyEvolve
Tree
p771
(dp772
g21
(imyEvolve
Tree
p773
(dp774
g21
(imyEvolve
Tree
p775
(dp776
g12
I0
sg14
I00
sbsg12
I1
sg32
(imyEvolve
Tree
p777
(dp778
g12
I0
sg14
I00
sbsg15
I00
sg16
g53
sbsg12
I2
sg32
(imyEvolve
Tree
p779
(dp780
g7
(imyEvolve
Tree
p781
(dp782
g12
I0
sg14
I00
sbsg12
I1
sg15
I01
sg16
g40
sbsg15
I00
sg16
g35
sbsg15
I00
sg16
g35
sbsg12
I4
sg15
I01
sg16
g42
sbsg15
I00
sg16
g35
sba(imyEvolve
Tree
p783
(dp784
g12
I5
sg21
(imyEvolve
Tree
p785
(dp786
g12
I4
sg21
(imyEvolve
Tree
p787
(dp788
g12
I3
sg21
(imyEvolve
Tree
p789
(dp790
g12
I2
sg21
(imyEvolve
Tree
p791
(dp792
g12
I1
sg21
(imyEvolve
Tree
p793
(dp794
g12
I0
sg14
I00
sbsg32
(imyEvolve
Tree
p795
(dp796
g12
I0
sg14
I00
sbsg15
I00
sg16
g41
sbsg32
(imyEvolve
Tree
p797
(dp798
g7
(imyEvolve
Tree
p799
(dp800
g12
I0
sg13
F-3.5091744792281956
sg14
I01
sbsg12
I1
sg15
I01
sg16
g18
sbsg15
I00
sg16
g41
sbsg32
(imyEvolve
Tree
p801
(dp802
g12
I2
sg21
(imyEvolve
Tree
p803
(dp804
g7
(imyEvolve
Tree
p805
(dp806
g12
I0
sg14
I00
sbsg12
I1
sg15
I01
sg16
g40
sbsg32
(imyEvolve
Tree
p807
(dp808
g7
(imyEvolve
Tree
p809
(dp810
g12
I0
sg13
F-1.3571086023382373
sg14
I01
sbsg12
I1
sg15
I01
sg16
g40
sbsg15
I00
sg16
g41
sbsg15
I00
sg16
g35
sbsg32
(imyEvolve
Tree
p811
(dp812
g7
(imyEvolve
Tree
p813
(dp814
g7
(imyEvolve
Tree
p815
(dp816
g7
(imyEvolve
Tree
p817
(dp818
g12
I0
sg14
I00
sbsg12
I1
sg15
I01
sg16
g17
sbsg12
I2
sg15
I01
sg16
g17
sbsg12
I3
sg15
I01
sg16
g40
sbsg15
I00
sg16
g41
sbsg32
(imyEvolve
Tree
p819
(dp820
g12
I4
sg21
(imyEvolve
Tree
p821
(dp822
g12
I3
sg21
(imyEvolve
Tree
p823
(dp824
g12
I2
sg21
(imyEvolve
Tree
p825
(dp826
g12
I1
sg21
(imyEvolve
Tree
p827
(dp828
g12
I0
sg13
F4.250916237785459
sg14
I01
sbsg32
(imyEvolve
Tree
p829
(dp830
g12
I0
sg14
I00
sbsg15
I00
sg16
g35
sbsg32
(imyEvolve
Tree
p831
(dp832
g12
I1
sg21
(imyEvolve
Tree
p833
(dp834
g12
I0
sg14
I00
sbsg32
(imyEvolve
Tree
p835
(dp836
g12
I0
sg13
F3.708213544411617
sg14
I01
sbsg15
I00
sg16
g35
sbsg15
I00
sg16
g35
sbsg32
(imyEvolve
Tree
p837
(dp838
g7
(imyEvolve
Tree
p839
(dp840
g7
(imyEvolve
Tree
p841
(dp842
g12
I0
sg13
F1.1003475601858828
sg14
I01
sbsg12
I1
sg15
I01
sg16
g42
sbsg12
I2
sg15
I01
sg16
g42
sbsg15
I00
sg16
g41
sbsg32
(imyEvolve
Tree
p843
(dp844
g7
(imyEvolve
Tree
p845
(dp846
g12
I2
sg21
(imyEvolve
Tree
p847
(dp848
g12
I1
sg21
(imyEvolve
Tree
p849
(dp850
g12
I0
sg14
I00
sbsg32
(imyEvolve
Tree
p851
(dp852
g12
I0
sg13
F2.337691428923687
sg14
I01
sbsg15
I00
sg16
g35
sbsg32
(imyEvolve
Tree
p853
(dp854
g7
(imyEvolve
Tree
p855
(dp856
g12
I0
sg13
F-3.7046271583898416
sg14
I01
sbsg12
I1
sg15
I01
sg16
g18
sbsg15
I00
sg16
g53
sbsg12
I3
sg15
I01
sg16
g17
sbsg15
I00
sg16
g41
sbsg15
I00
sg16
g53
sba(imyEvolve
Tree
p857
(dp858
g7
(imyEvolve
Tree
p859
(dp860
g7
(imyEvolve
Tree
p861
(dp862
g7
(imyEvolve
Tree
p863
(dp864
g21
(imyEvolve
Tree
p865
(dp866
g12
I0
sg13
F4.004720502461838
sg14
I01
sbsg12
I1
sg32
(imyEvolve
Tree
p867
(dp868
g12
I0
sg14
I00
sbsg15
I00
sg16
g41
sbsg12
I2
sg15
I01
sg16
g42
sbsg12
I3
sg15
I01
sg16
g40
sbsg12
I4
sg15
I01
sg16
g17
sba(imyEvolve
Tree
p869
(dp870
g12
I5
sg21
(imyEvolve
Tree
p871
(dp872
g7
(imyEvolve
Tree
p873
(dp874
g12
I3
sg21
(imyEvolve
Tree
p875
(dp876
g12
I2
sg21
(imyEvolve
Tree
p877
(dp878
g7
(imyEvolve
Tree
p879
(dp880
g12
I0
sg13
F3.086040783758568
sg14
I01
sbsg12
I1
sg15
I01
sg16
g17
sbsg32
(imyEvolve
Tree
p881
(dp882
g7
(imyEvolve
Tree
p883
(dp884
g12
I0
sg14
I00
sbsg12
I1
sg15
I01
sg16
g17
sbsg15
I00
sg16
g41
sbsg32
(imyEvolve
Tree
p885
(dp886
g12
I2
sg21
(imyEvolve
Tree
p887
(dp888
g12
I1
sg21
(imyEvolve
Tree
p889
(dp890
g12
I0
sg13
F2.199329752620173
sg14
I01
sbsg32
(imyEvolve
Tree
p891
(dp892
g12
I0
sg14
I00
sbsg15
I00
sg16
g53
sbsg32
(imyEvolve
Tree
p893
(dp894
g12
I1
sg21
(imyEvolve
Tree
p895
(dp896
g12
I0
sg13
F-3.5092360781903196
sg14
I01
sbsg32
(imyEvolve
Tree
p897
(dp898
g12
I0
sg13
F-0.6517763438974526
sg14
I01
sbsg15
I00
sg16
g53
sbsg15
I00
sg16
g41
sbsg15
I00
sg16
g41
sbsg12
I4
sg15
I01
sg16
g40
sbsg32
(imyEvolve
Tree
p899
(dp900
g12
I4
sg21
(imyEvolve
Tree
p901
(dp902
g12
I3
sg21
(imyEvolve
Tree
p903
(dp904
g7
(imyEvolve
Tree
p905
(dp906
g7
(imyEvolve
Tree
p907
(dp908
g12
I0
sg13
F-4.715914011950839
sg14
I01
sbsg12
I1
sg15
I01
sg16
g42
sbsg12
I2
sg15
I01
sg16
g40
sbsg32
(imyEvolve
Tree
p909
(dp910
g12
I2
sg21
(imyEvolve
Tree
p911
(dp912
g7
(imyEvolve
Tree
p913
(dp914
g12
I0
sg13
F2.456658218531479
sg14
I01
sbsg12
I1
sg15
I01
sg16
g42
sbsg32
(imyEvolve
Tree
p915
(dp916
g7
(imyEvolve
Tree
p917
(dp918
g12
I0
sg13
F2.626367464551466
sg14
I01
sbsg12
I1
sg15
I01
sg16
g42
sbsg15
I00
sg16
g41
sbsg15
I00
sg16
g41
sbsg32
(imyEvolve
Tree
p919
(dp920
g7
(imyEvolve
Tree
p921
(dp922
g7
(imyEvolve
Tree
p923
(dp924
g7
(imyEvolve
Tree
p925
(dp926
g12
I0
sg13
F0.8716113009405122
sg14
I01
sbsg12
I1
sg15
I01
sg16
g18
sbsg12
I2
sg15
I01
sg16
g40
sbsg12
I3
sg15
I01
sg16
g42
sbsg15
I00
sg16
g53
sbsg15
I00
sg16
g41
sba(imyEvolve
Tree
p927
(dp928
g7
(imyEvolve
Tree
p929
(dp930
g7
(imyEvolve
Tree
p931
(dp932
g12
I0
sg13
F-1.6400894503718777
sg14
I01
sbsg12
I1
sg15
I01
sg16
g17
sbsg12
I2
sg15
I01
sg16
g18
sba(imyEvolve
Tree
p933
(dp934
g7
(imyEvolve
Tree
p935
(dp936
g21
(imyEvolve
Tree
p937
(dp938
g12
I0
sg13
F0.5924679435789333
sg14
I01
sbsg12
I1
sg32
(imyEvolve
Tree
p939
(dp940
g12
I0
sg14
I00
sbsg15
I00
sg16
g41
sbsg12
I2
sg15
I01
sg16
g18
sba(imyEvolve
Tree
p941
(dp942
g12
I3
sg21
(imyEvolve
Tree
p943
(dp944
g7
(imyEvolve
Tree
p945
(dp946
g7
(imyEvolve
Tree
p947
(dp948
g12
I0
sg14
I00
sbsg12
I1
sg15
I01
sg16
g40
sbsg12
I2
sg15
I01
sg16
g17
sbsg32
(imyEvolve
Tree
p949
(dp950
g12
I2
sg21
(imyEvolve
Tree
p951
(dp952
g7
(imyEvolve
Tree
p953
(dp954
g12
I0
sg13
F2.536859951799901
sg14
I01
sbsg12
I1
sg15
I01
sg16
g42
sbsg32
(imyEvolve
Tree
p955
(dp956
g12
I1
sg21
(imyEvolve
Tree
p957
(dp958
g12
I0
sg14
I00
sbsg32
(imyEvolve
Tree
p959
(dp960
g12
I0
sg13
F1.966265763382598
sg14
I01
sbsg15
I00
sg16
g41
sbsg15
I00
sg16
g53
sbsg15
I00
sg16
g53
sba(imyEvolve
Tree
p961
(dp962
g21
(imyEvolve
Tree
p963
(dp964
g21
(imyEvolve
Tree
p965
(dp966
g21
(imyEvolve
Tree
p967
(dp968
g7
(imyEvolve
Tree
p969
(dp970
g12
I0
sg13
F3.110522686969542
sg14
I01
sbsg12
I1
sg15
I01
sg16
g40
sbsg12
I2
sg32
(imyEvolve
Tree
p971
(dp972
g21
(imyEvolve
Tree
p973
(dp974
g12
I0
sg13
F3.5497262842872743
sg14
I01
sbsg12
I1
sg32
(imyEvolve
Tree
p975
(dp976
g12
I0
sg13
F4.287766952472632
sg14
I01
sbsg15
I00
sg16
g53
sbsg15
I00
sg16
g53
sbsg12
I3
sg32
(imyEvolve
Tree
p977
(dp978
g7
(imyEvolve
Tree
p979
(dp980
g21
(imyEvolve
Tree
p981
(dp982
g12
I0
sg13
F2.819410729463386
sg14
I01
sbsg12
I1
sg32
(imyEvolve
Tree
p983
(dp984
g12
I0
sg13
F-1.1342960213841713
sg14
I01
sbsg15
I00
sg16
g41
sbsg12
I2
sg15
I01
sg16
g17
sbsg15
I00
sg16
g35
sbsg12
I4
sg32
(imyEvolve
Tree
p985
(dp986
g7
(imyEvolve
Tree
p987
(dp988
g7
(imyEvolve
Tree
p989
(dp990
g7
(imyEvolve
Tree
p991
(dp992
g12
I0
sg14
I00
sbsg12
I1
sg15
I01
sg16
g40
sbsg12
I2
sg15
I01
sg16
g17
sbsg12
I3
sg15
I01
sg16
g42
sbsg15
I00
sg16
g53
sba(imyEvolve
Tree
p993
(dp994
g12
I3
sg21
(imyEvolve
Tree
p995
(dp996
g7
(imyEvolve
Tree
p997
(dp998
g12
I1
sg21
(imyEvolve
Tree
p999
(dp1000
g12
I0
sg13
F2.6950223140745644
sg14
I01
sbsg32
(imyEvolve
Tree
p1001
(dp1002
g12
I0
sg13
F3.69021560148267
sg14
I01
sbsg15
I00
sg16
g35
sbsg12
I2
sg15
I01
sg16
g18
sbsg32
(imyEvolve
Tree
p1003
(dp1004
g7
(imyEvolve
Tree
p1005
(dp1006
g7
(imyEvolve
Tree
p1007
(dp1008
g12
I0
sg13
F-3.197504855526966
sg14
I01
sbsg12
I1
sg15
I01
sg16
g17
sbsg12
I2
sg15
I01
sg16
g18
sbsg15
I00
sg16
g53
sba(imyEvolve
Tree
p1009
(dp1010
g12
I3
sg21
(imyEvolve
Tree
p1011
(dp1012
g7
(imyEvolve
Tree
p1013
(dp1014
g7
(imyEvolve
Tree
p1015
(dp1016
g12
I0
sg14
I00
sbsg12
I1
sg15
I01
sg16
g40
sbsg12
I2
sg15
I01
sg16
g18
sbsg32
(imyEvolve
Tree
p1017
(dp1018
g7
(imyEvolve
Tree
p1019
(dp1020
g12
I1
sg21
(imyEvolve
Tree
p1021
(dp1022
g12
I0
sg13
F0.5741343162371528
sg14
I01
sbsg32
(imyEvolve
Tree
p1023
(dp1024
g12
I0
sg14
I00
sbsg15
I00
sg16
g53
sbsg12
I2
sg15
I01
sg16
g17
sbsg15
I00
sg16
g41
sbaa(lp1025
(imyEvolve
Tree
p1026
(dp1027
g7
(imyEvolve
Tree
p1028
(dp1029
g7
(imyEvolve
Tree
p1030
(dp1031
g7
(imyEvolve
Tree
p1032
(dp1033
g12
I2
sg21
(imyEvolve
Tree
p1034
(dp1035
g12
I1
sg21
(imyEvolve
Tree
p1036
(dp1037
g12
I0
sg13
F2.4087432290377677
sg14
I01
sbsg32
(imyEvolve
Tree
p1038
(dp1039
g12
I0
sg13
F-0.9394748177793346
sg14
I01
sbsg15
I00
sg16
g41
sbsg32
(imyEvolve
Tree
p1040
(dp1041
g12
I1
sg21
(imyEvolve
Tree
p1042
(dp1043
g12
I0
sg13
F-3.155207600800214
sg14
I01
sbsg32
(imyEvolve
Tree
p1044
(dp1045
g12
I0
sg13
F-2.3046848685192813
sg14
I01
sbsg15
I00
sg16
g41
sbsg15
I00
sg16
g41
sbsg12
I3
sg15
I01
sg16
g17
sbsg12
I4
sg15
I01
sg16
g17
sbsg12
I5
sg15
I01
sg16
g40
sba(imyEvolve
Tree
p1046
(dp1047
g21
(imyEvolve
Tree
p1048
(dp1049
g21
(imyEvolve
Tree
p1050
(dp1051
g7
(imyEvolve
Tree
p1052
(dp1053
g21
(imyEvolve
Tree
p1054
(dp1055
g7
(imyEvolve
Tree
p1056
(dp1057
g12
I0
sg14
I00
sbsg12
I1
sg15
I01
sg16
g17
sbsg12
I2
sg32
(imyEvolve
Tree
p1058
(dp1059
g21
(imyEvolve
Tree
p1060
(dp1061
g12
I0
sg14
I00
sbsg12
I1
sg32
(imyEvolve
Tree
p1062
(dp1063
g12
I0
sg14
I00
sbsg15
I00
sg16
g35
sbsg15
I00
sg16
g35
sbsg12
I3
sg15
I01
sg16
g18
sbsg12
I4
sg32
(imyEvolve
Tree
p1064
(dp1065
g7
(imyEvolve
Tree
p1066
(dp1067
g21
(imyEvolve
Tree
p1068
(dp1069
g21
(imyEvolve
Tree
p1070
(dp1071
g12
I0
sg13
F0.032535151273632934
sg14
I01
sbsg12
I1
sg32
(imyEvolve
Tree
p1072
(dp1073
g12
I0
sg13
F-4.010705466895673
sg14
I01
sbsg15
I00
sg16
g41
sbsg12
I2
sg32
(imyEvolve
Tree
p1074
(dp1075
g21
(imyEvolve
Tree
p1076
(dp1077
g12
I0
sg14
I00
sbsg12
I1
sg32
(imyEvolve
Tree
p1078
(dp1079
g12
I0
sg13
F3.0567870152411345
sg14
I01
sbsg15
I00
sg16
g41
sbsg15
I00
sg16
g35
sbsg12
I3
sg15
I01
sg16
g40
sbsg15
I00
sg16
g53
sbsg12
I5
sg32
(imyEvolve
Tree
p1080
(dp1081
g7
(imyEvolve
Tree
p1082
(dp1083
g7
(imyEvolve
Tree
p1084
(dp1085
g21
(imyEvolve
Tree
p1086
(dp1087
g21
(imyEvolve
Tree
p1088
(dp1089
g12
I0
sg13
F1.3566357771950122
sg14
I01
sbsg12
I1
sg32
(imyEvolve
Tree
p1090
(dp1091
g12
I0
sg13
F-1.7038694910070817
sg14
I01
sbsg15
I00
sg16
g53
sbsg12
I2
sg32
(imyEvolve
Tree
p1092
(dp1093
g21
(imyEvolve
Tree
p1094
(dp1095
g12
I0
sg13
F-4.805202609685566
sg14
I01
sbsg12
I1
sg32
(imyEvolve
Tree
p1096
(dp1097
g12
I0
sg14
I00
sbsg15
I00
sg16
g41
sbsg15
I00
sg16
g35
sbsg12
I3
sg15
I01
sg16
g42
sbsg12
I4
sg15
I01
sg16
g40
sbsg15
I00
sg16
g41
sba(imyEvolve
Tree
p1098
(dp1099
g12
I3
sg21
(imyEvolve
Tree
p1100
(dp1101
g12
I2
sg21
(imyEvolve
Tree
p1102
(dp1103
g12
I1
sg21
(imyEvolve
Tree
p1104
(dp1105
g12
I0
sg14
I00
sbsg32
(imyEvolve
Tree
p1106
(dp1107
g12
I0
sg13
F-3.4744586580625114
sg14
I01
sbsg15
I00
sg16
g53
sbsg32
(imyEvolve
Tree
p1108
(dp1109
g7
(imyEvolve
Tree
p1110
(dp1111
g12
I0
sg14
I00
sbsg12
I1
sg15
I01
sg16
g42
sbsg15
I00
sg16
g53
sbsg32
(imyEvolve
Tree
p1112
(dp1113
g7
(imyEvolve
Tree
p1114
(dp1115
g12
I1
sg21
(imyEvolve
Tree
p1116
(dp1117
g12
I0
sg14
I00
sbsg32
(imyEvolve
Tree
p1118
(dp1119
g12
I0
sg13
F2.724156810703418
sg14
I01
sbsg15
I00
sg16
g41
sbsg12
I2
sg15
I01
sg16
g40
sbsg15
I00
sg16
g35
sba(imyEvolve
Tree
p1120
(dp1121
g12
I3
sg21
(imyEvolve
Tree
p1122
(dp1123
g7
(imyEvolve
Tree
p1124
(dp1125
g7
(imyEvolve
Tree
p1126
(dp1127
g12
I0
sg13
F3.5564651331130577
sg14
I01
sbsg12
I1
sg15
I01
sg16
g17
sbsg12
I2
sg15
I01
sg16
g17
sbsg32
(imyEvolve
Tree
p1128
(dp1129
g7
(imyEvolve
Tree
p1130
(dp1131
g12
I1
sg21
(imyEvolve
Tree
p1132
(dp1133
g12
I0
sg14
I00
sbsg32
(imyEvolve
Tree
p1134
(dp1135
g12
I0
sg13
F-3.646231255243192
sg14
I01
sbsg15
I00
sg16
g41
sbsg12
I2
sg15
I01
sg16
g42
sbsg15
I00
sg16
g41
sba(imyEvolve
Tree
p1136
(dp1137
g7
(imyEvolve
Tree
p1138
(dp1139
g7
(imyEvolve
Tree
p1140
(dp1141
g21
(imyEvolve
Tree
p1142
(dp1143
g7
(imyEvolve
Tree
p1144
(dp1145
g12
I0
sg13
F1.2792557121007562
sg14
I01
sbsg12
I1
sg15
I01
sg16
g42
sbsg12
I2
sg32
(imyEvolve
Tree
p1146
(dp1147
g21
(imyEvolve
Tree
p1148
(dp1149
g12
I0
sg14
I00
sbsg12
I1
sg32
(imyEvolve
Tree
p1150
(dp1151
g12
I0
sg13
F-1.933007594728763
sg14
I01
sbsg15
I00
sg16
g53
sbsg15
I00
sg16
g35
sbsg12
I3
sg15
I01
sg16
g40
sbsg12
I4
sg15
I01
sg16
g42
sba(imyEvolve
Tree
p1152
(dp1153
g7
(imyEvolve
Tree
p1154
(dp1155
g7
(imyEvolve
Tree
p1156
(dp1157
g7
(imyEvolve
Tree
p1158
(dp1159
g21
(imyEvolve
Tree
p1160
(dp1161
g7
(imyEvolve
Tree
p1162
(dp1163
g12
I0
sg13
F0.4238345021920109
sg14
I01
sbsg12
I1
sg15
I01
sg16
g42
sbsg12
I2
sg32
(imyEvolve
Tree
p1164
(dp1165
g21
(imyEvolve
Tree
p1166
(dp1167
g12
I0
sg13
F-4.0424621588014755
sg14
I01
sbsg12
I1
sg32
(imyEvolve
Tree
p1168
(dp1169
g12
I0
sg13
F-0.5251291177365509
sg14
I01
sbsg15
I00
sg16
g35
sbsg15
I00
sg16
g41
sbsg12
I3
sg15
I01
sg16
g42
sbsg12
I4
sg15
I01
sg16
g42
sbsg12
I5
sg15
I01
sg16
g40
sba(imyEvolve
Tree
p1170
(dp1171
g12
I2
sg21
(imyEvolve
Tree
p1172
(dp1173
g7
(imyEvolve
Tree
p1174
(dp1175
g12
I0
sg13
F-3.8934317925197606
sg14
I01
sbsg12
I1
sg15
I01
sg16
g17
sbsg32
(imyEvolve
Tree
p1176
(dp1177
g12
I1
sg21
(imyEvolve
Tree
p1178
(dp1179
g12
I0
sg13
F-1.72388174717506
sg14
I01
sbsg32
(imyEvolve
Tree
p1180
(dp1181
g12
I0
sg14
I00
sbsg15
I00
sg16
g41
sbsg15
I00
sg16
g41
sba(imyEvolve
Tree
p1182
(dp1183
g21
(imyEvolve
Tree
p1184
(dp1185
g21
(imyEvolve
Tree
p1186
(dp1187
g12
I0
sg13
F1.909221571340999
sg14
I01
sbsg12
I1
sg32
(imyEvolve
Tree
p1188
(dp1189
g12
I0
sg13
F0.1717035768885724
sg14
I01
sbsg15
I00
sg16
g35
sbsg12
I2
sg32
(imyEvolve
Tree
p1190
(dp1191
g7
(imyEvolve
Tree
p1192
(dp1193
g12
I0
sg13
F-1.1466521072567781
sg14
I01
sbsg12
I1
sg15
I01
sg16
g42
sbsg15
I00
sg16
g35
sba(imyEvolve
Tree
p1194
(dp1195
g21
(imyEvolve
Tree
p1196
(dp1197
g7
(imyEvolve
Tree
p1198
(dp1199
g12
I0
sg13
F2.0040809612078325
sg14
I01
sbsg12
I1
sg15
I01
sg16
g40
sbsg12
I2
sg32
(imyEvolve
Tree
p1200
(dp1201
g7
(imyEvolve
Tree
p1202
(dp1203
g12
I0
sg13
F-1.5210632673941293
sg14
I01
sbsg12
I1
sg15
I01
sg16
g18
sbsg15
I00
sg16
g41
sba(imyEvolve
Tree
p1204
(dp1205
g7
(imyEvolve
Tree
p1206
(dp1207
g21
(imyEvolve
Tree
p1208
(dp1209
g12
I0
sg14
I00
sbsg12
I1
sg32
(imyEvolve
Tree
p1210
(dp1211
g12
I0
sg13
F-0.5790312302945075
sg14
I01
sbsg15
I00
sg16
g53
sbsg12
I2
sg15
I01
sg16
g42
sba(imyEvolve
Tree
p1212
(dp1213
g21
(imyEvolve
Tree
p1214
(dp1215
g7
(imyEvolve
Tree
p1216
(dp1217
g12
I0
sg14
I00
sbsg12
I1
sg15
I01
sg16
g42
sbsg12
I2
sg32
(imyEvolve
Tree
p1218
(dp1219
g21
(imyEvolve
Tree
p1220
(dp1221
g12
I0
sg13
F3.1974177695709685
sg14
I01
sbsg12
I1
sg32
(imyEvolve
Tree
p1222
(dp1223
g12
I0
sg13
F-3.6392771285584944
sg14
I01
sbsg15
I00
sg16
g35
sbsg15
I00
sg16
g35
sba(imyEvolve
Tree
p1224
(dp1225
g21
(imyEvolve
Tree
p1226
(dp1227
g7
(imyEvolve
Tree
p1228
(dp1229
g21
(imyEvolve
Tree
p1230
(dp1231
g7
(imyEvolve
Tree
p1232
(dp1233
g12
I0
sg14
I00
sbsg12
I1
sg15
I01
sg16
g42
sbsg12
I2
sg32
(imyEvolve
Tree
p1234
(dp1235
g7
(imyEvolve
Tree
p1236
(dp1237
g12
I0
sg14
I00
sbsg12
I1
sg15
I01
sg16
g17
sbsg15
I00
sg16
g41
sbsg12
I3
sg15
I01
sg16
g17
sbsg12
I4
sg32
(imyEvolve
Tree
p1238
(dp1239
g21
(imyEvolve
Tree
p1240
(dp1241
g21
(imyEvolve
Tree
p1242
(dp1243
g21
(imyEvolve
Tree
p1244
(dp1245
g12
I0
sg14
I00
sbsg12
I1
sg32
(imyEvolve
Tree
p1246
(dp1247
g12
I0
sg14
I00
sbsg15
I00
sg16
g41
sbsg12
I2
sg32
(imyEvolve
Tree
p1248
(dp1249
g21
(imyEvolve
Tree
p1250
(dp1251
g12
I0
sg14
I00
sbsg12
I1
sg32
(imyEvolve
Tree
p1252
(dp1253
g12
I0
sg13
F-4.292855173402083
sg14
I01
sbsg15
I00
sg16
g41
sbsg15
I00
sg16
g35
sbsg12
I3
sg32
(imyEvolve
Tree
p1254
(dp1255
g21
(imyEvolve
Tree
p1256
(dp1257
g21
(imyEvolve
Tree
p1258
(dp1259
g12
I0
sg13
F0.9988886356081705
sg14
I01
sbsg12
I1
sg32
(imyEvolve
Tree
p1260
(dp1261
g12
I0
sg14
I00
sbsg15
I00
sg16
g41
sbsg12
I2
sg32
(imyEvolve
Tree
p1262
(dp1263
g21
(imyEvolve
Tree
p1264
(dp1265
g12
I0
sg13
F4.1500390802141
sg14
I01
sbsg12
I1
sg32
(imyEvolve
Tree
p1266
(dp1267
g12
I0
sg14
I00
sbsg15
I00
sg16
g41
sbsg15
I00
sg16
g53
sbsg15
I00
sg16
g35
sbsg15
I00
sg16
g41
sbaa(lp1268
(imyEvolve
Tree
p1269
(dp1270
g21
(imyEvolve
Tree
p1271
(dp1272
g21
(imyEvolve
Tree
p1273
(dp1274
g21
(imyEvolve
Tree
p1275
(dp1276
g21
(imyEvolve
Tree
p1277
(dp1278
g7
(imyEvolve
Tree
p1279
(dp1280
g12
I0
sg14
I00
sbsg12
I1
sg15
I01
sg16
g18
sbsg12
I2
sg32
(imyEvolve
Tree
p1281
(dp1282
g21
(imyEvolve
Tree
p1283
(dp1284
g12
I0
sg13
F-2.743911455839384
sg14
I01
sbsg12
I1
sg32
(imyEvolve
Tree
p1285
(dp1286
g12
I0
sg13
F-1.7772390996308953
sg14
I01
sbsg15
I00
sg16
g53
sbsg15
I00
sg16
g35
sbsg12
I3
sg32
(imyEvolve
Tree
p1287
(dp1288
g7
(imyEvolve
Tree
p1289
(dp1290
g21
(imyEvolve
Tree
p1291
(dp1292
g12
I0
sg13
F1.1383517873787063
sg14
I01
sbsg12
I1
sg32
(imyEvolve
Tree
p1293
(dp1294
g12
I0
sg13
F-4.877651328175979
sg14
I01
sbsg15
I00
sg16
g35
sbsg12
I2
sg15
I01
sg16
g40
sbsg15
I00
sg16
g53
sbsg12
I4
sg32
(imyEvolve
Tree
p1295
(dp1296
g21
(imyEvolve
Tree
p1297
(dp1298
g7
(imyEvolve
Tree
p1299
(dp1300
g7
(imyEvolve
Tree
p1301
(dp1302
g12
I0
sg14
I00
sbsg12
I1
sg15
I01
sg16
g40
sbsg12
I2
sg15
I01
sg16
g40
sbsg12
I3
sg32
(imyEvolve
Tree
p1303
(dp1304
g21
(imyEvolve
Tree
p1305
(dp1306
g7
(imyEvolve
Tree
p1307
(dp1308
g12
I0
sg14
I00
sbsg12
I1
sg15
I01
sg16
g18
sbsg12
I2
sg32
(imyEvolve
Tree
p1309
(dp1310
g7
(imyEvolve
Tree
p1311
(dp1312
g12
I0
sg14
I00
sbsg12
I1
sg15
I01
sg16
g18
sbsg15
I00
sg16
g35
sbsg15
I00
sg16
g35
sbsg15
I00
sg16
g35
sbsg12
I5
sg32
(imyEvolve
Tree
p1313
(dp1314
g7
(imyEvolve
Tree
p1315
(dp1316
g7
(imyEvolve
Tree
p1317
(dp1318
g7
(imyEvolve
Tree
p1319
(dp1320
g7
(imyEvolve
Tree
p1321
(dp1322
g12
I0
sg14
I00
sbsg12
I1
sg15
I01
sg16
g18
sbsg12
I2
sg15
I01
sg16
g18
sbsg12
I3
sg15
I01
sg16
g40
sbsg12
I4
sg15
I01
sg16
g18
sbsg15
I00
sg16
g53
sba(imyEvolve
Tree
p1323
(dp1324
g12
I3
sg21
(imyEvolve
Tree
p1325
(dp1326
g7
(imyEvolve
Tree
p1327
(dp1328
g12
I1
sg21
(imyEvolve
Tree
p1329
(dp1330
g12
I0
sg14
I00
sbsg32
(imyEvolve
Tree
p1331
(dp1332
g12
I0
sg14
I00
sbsg15
I00
sg16
g35
sbsg12
I2
sg15
I01
sg16
g17
sbsg32
(imyEvolve
Tree
p1333
(dp1334
g12
I2
sg21
(imyEvolve
Tree
p1335
(dp1336
g12
I1
sg21
(imyEvolve
Tree
p1337
(dp1338
g12
I0
sg14
I00
sbsg32
(imyEvolve
Tree
p1339
(dp1340
g12
I0
sg14
I00
sbsg15
I00
sg16
g53
sbsg32
(imyEvolve
Tree
p1341
(dp1342
g12
I1
sg21
(imyEvolve
Tree
p1343
(dp1344
g12
I0
sg13
F2.4800179883746933
sg14
I01
sbsg32
(imyEvolve
Tree
p1345
(dp1346
g12
I0
sg13
F0.9186777254857157
sg14
I01
sbsg15
I00
sg16
g35
sbsg15
I00
sg16
g41
sbsg15
I00
sg16
g35
sba(imyEvolve
Tree
p1347
(dp1348
g7
(imyEvolve
Tree
p1349
(dp1350
g7
(imyEvolve
Tree
p1351
(dp1352
g21
(imyEvolve
Tree
p1353
(dp1354
g21
(imyEvolve
Tree
p1355
(dp1356
g21
(imyEvolve
Tree
p1357
(dp1358
g12
I0
sg14
I00
sbsg12
I1
sg32
(imyEvolve
Tree
p1359
(dp1360
g12
I0
sg13
F-0.6433655500260986
sg14
I01
sbsg15
I00
sg16
g41
sbsg12
I2
sg32
(imyEvolve
Tree
p1361
(dp1362
g21
(imyEvolve
Tree
p1363
(dp1364
g12
I0
sg14
I00
sbsg12
I1
sg32
(imyEvolve
Tree
p1365
(dp1366
g12
I0
sg14
I00
sbsg15
I00
sg16
g41
sbsg15
I00
sg16
g35
sbsg12
I3
sg32
(imyEvolve
Tree
p1367
(dp1368
g7
(imyEvolve
Tree
p1369
(dp1370
g21
(imyEvolve
Tree
p1371
(dp1372
g12
I0
sg14
I00
sbsg12
I1
sg32
(imyEvolve
Tree
p1373
(dp1374
g12
I0
sg13
F2.94861295901791
sg14
I01
sbsg15
I00
sg16
g35
sbsg12
I2
sg15
I01
sg16
g42
sbsg15
I00
sg16
g41
sbsg12
I4
sg15
I01
sg16
g18
sbsg12
I5
sg15
I01
sg16
g42
sba(imyEvolve
Tree
p1375
(dp1376
g7
(imyEvolve
Tree
p1377
(dp1378
g7
(imyEvolve
Tree
p1379
(dp1380
g7
(imyEvolve
Tree
p1381
(dp1382
g21
(imyEvolve
Tree
p1383
(dp1384
g12
I0
sg13
F-3.5981690464944216
sg14
I01
sbsg12
I1
sg32
(imyEvolve
Tree
p1385
(dp1386
g12
I0
sg14
I00
sbsg15
I00
sg16
g35
sbsg12
I2
sg15
I01
sg16
g18
sbsg12
I3
sg15
I01
sg16
g17
sbsg12
I4
sg15
I01
sg16
g40
sba(imyEvolve
Tree
p1387
(dp1388
g7
(imyEvolve
Tree
p1389
(dp1390
g12
I4
sg21
(imyEvolve
Tree
p1391
(dp1392
g7
(imyEvolve
Tree
p1393
(dp1394
g7
(imyEvolve
Tree
p1395
(dp1396
g12
I1
sg21
(imyEvolve
Tree
p1397
(dp1398
g12
I0
sg13
F-2.2983420308373015
sg14
I01
sbsg32
(imyEvolve
Tree
p1399
(dp1400
g12
I0
sg14
I00
sbsg15
I00
sg16
g41
sbsg12
I2
sg15
I01
sg16
g42
sbsg12
I3
sg15
I01
sg16
g18
sbsg32
(imyEvolve
Tree
p1401
(dp1402
g12
I3
sg21
(imyEvolve
Tree
p1403
(dp1404
g7
(imyEvolve
Tree
p1405
(dp1406
g12
I1
sg21
(imyEvolve
Tree
p1407
(dp1408
g12
I0
sg14
I00
sbsg32
(imyEvolve
Tree
p1409
(dp1410
g12
I0
sg13
F1.3702027321772565
sg14
I01
sbsg15
I00
sg16
g35
sbsg12
I2
sg15
I01
sg16
g18
sbsg32
(imyEvolve
Tree
p1411
(dp1412
g12
I2
sg21
(imyEvolve
Tree
p1413
(dp1414
g7
(imyEvolve
Tree
p1415
(dp1416
g12
I0
sg13
F-1.1458093272014178
sg14
I01
sbsg12
I1
sg15
I01
sg16
g42
sbsg32
(imyEvolve
Tree
p1417
(dp1418
g12
I1
sg21
(imyEvolve
Tree
p1419
(dp1420
g12
I0
sg13
F-0.4376099665990063
sg14
I01
sbsg32
(imyEvolve
Tree
p1421
(dp1422
g12
I0
sg14
I00
sbsg15
I00
sg16
g53
sbsg15
I00
sg16
g35
sbsg15
I00
sg16
g35
sbsg15
I00
sg16
g41
sbsg12
I5
sg15
I01
sg16
g17
sba(imyEvolve
Tree
p1423
(dp1424
g7
(imyEvolve
Tree
p1425
(dp1426
g21
(imyEvolve
Tree
p1427
(dp1428
g12
I0
sg14
I00
sbsg12
I1
sg32
(imyEvolve
Tree
p1429
(dp1430
g12
I0
sg13
F3.0381287702462316
sg14
I01
sbsg15
I00
sg16
g41
sbsg12
I2
sg15
I01
sg16
g18
sba(imyEvolve
Tree
p1431
(dp1432
g7
(imyEvolve
Tree
p1433
(dp1434
g21
(imyEvolve
Tree
p1435
(dp1436
g7
(imyEvolve
Tree
p1437
(dp1438
g21
(imyEvolve
Tree
p1439
(dp1440
g12
I0
sg14
I00
sbsg12
I1
sg32
(imyEvolve
Tree
p1441
(dp1442
g12
I0
sg14
I00
sbsg15
I00
sg16
g41
sbsg12
I2
sg15
I01
sg16
g17
sbsg12
I3
sg32
(imyEvolve
Tree
p1443
(dp1444
g21
(imyEvolve
Tree
p1445
(dp1446
g7
(imyEvolve
Tree
p1447
(dp1448
g12
I0
sg13
F4.360322128616529
sg14
I01
sbsg12
I1
sg15
I01
sg16
g42
sbsg12
I2
sg32
(imyEvolve
Tree
p1449
(dp1450
g21
(imyEvolve
Tree
p1451
(dp1452
g12
I0
sg13
F-2.5715432634681177
sg14
I01
sbsg12
I1
sg32
(imyEvolve
Tree
p1453
(dp1454
g12
I0
sg13
F1.2020753961071318
sg14
I01
sbsg15
I00
sg16
g35
sbsg15
I00
sg16
g41
sbsg15
I00
sg16
g53
sbsg12
I4
sg15
I01
sg16
g40
sba(imyEvolve
Tree
p1455
(dp1456
g7
(imyEvolve
Tree
p1457
(dp1458
g7
(imyEvolve
Tree
p1459
(dp1460
g12
I0
sg14
I00
sbsg12
I1
sg15
I01
sg16
g17
sbsg12
I2
sg15
I01
sg16
g42
sba(imyEvolve
Tree
p1461
(dp1462
g21
(imyEvolve
Tree
p1463
(dp1464
g7
(imyEvolve
Tree
p1465
(dp1466
g12
I0
sg13
F-4.313384958442853
sg14
I01
sbsg12
I1
sg15
I01
sg16
g18
sbsg12
I2
sg32
(imyEvolve
Tree
p1467
(dp1468
g21
(imyEvolve
Tree
p1469
(dp1470
g12
I0
sg13
F2.748024528332609
sg14
I01
sbsg12
I1
sg32
(imyEvolve
Tree
p1471
(dp1472
g12
I0
sg14
I00
sbsg15
I00
sg16
g41
sbsg15
I00
sg16
g41
sba(imyEvolve
Tree
p1473
(dp1474
g7
(imyEvolve
Tree
p1475
(dp1476
g7
(imyEvolve
Tree
p1477
(dp1478
g12
I2
sg21
(imyEvolve
Tree
p1479
(dp1480
g12
I1
sg21
(imyEvolve
Tree
p1481
(dp1482
g12
I0
sg13
F2.2145698273108056
sg14
I01
sbsg32
(imyEvolve
Tree
p1483
(dp1484
g12
I0
sg13
F-4.825426610264697
sg14
I01
sbsg15
I00
sg16
g53
sbsg32
(imyEvolve
Tree
p1485
(dp1486
g12
I1
sg21
(imyEvolve
Tree
p1487
(dp1488
g12
I0
sg14
I00
sbsg32
(imyEvolve
Tree
p1489
(dp1490
g12
I0
sg14
I00
sbsg15
I00
sg16
g53
sbsg15
I00
sg16
g41
sbsg12
I3
sg15
I01
sg16
g40
sbsg12
I4
sg15
I01
sg16
g40
sba(imyEvolve
Tree
p1491
(dp1492
g12
I5
sg21
(imyEvolve
Tree
p1493
(dp1494
g12
I4
sg21
(imyEvolve
Tree
p1495
(dp1496
g7
(imyEvolve
Tree
p1497
(dp1498
g7
(imyEvolve
Tree
p1499
(dp1500
g12
I1
sg21
(imyEvolve
Tree
p1501
(dp1502
g12
I0
sg14
I00
sbsg32
(imyEvolve
Tree
p1503
(dp1504
g12
I0
sg14
I00
sbsg15
I00
sg16
g35
sbsg12
I2
sg15
I01
sg16
g40
sbsg12
I3
sg15
I01
sg16
g17
sbsg32
(imyEvolve
Tree
p1505
(dp1506
g12
I3
sg21
(imyEvolve
Tree
p1507
(dp1508
g12
I2
sg21
(imyEvolve
Tree
p1509
(dp1510
g12
I1
sg21
(imyEvolve
Tree
p1511
(dp1512
g12
I0
sg14
I00
sbsg32
(imyEvolve
Tree
p1513
(dp1514
g12
I0
sg14
I00
sbsg15
I00
sg16
g53
sbsg32
(imyEvolve
Tree
p1515
(dp1516
g12
I1
sg21
(imyEvolve
Tree
p1517
(dp1518
g12
I0
sg13
F0.23781084085884707
sg14
I01
sbsg32
(imyEvolve
Tree
p1519
(dp1520
g12
I0
sg13
F1.7569416456941598
sg14
I01
sbsg15
I00
sg16
g53
sbsg15
I00
sg16
g41
sbsg32
(imyEvolve
Tree
p1521
(dp1522
g7
(imyEvolve
Tree
p1523
(dp1524
g12
I1
sg21
(imyEvolve
Tree
p1525
(dp1526
g12
I0
sg13
F4.138798797263231
sg14
I01
sbsg32
(imyEvolve
Tree
p1527
(dp1528
g12
I0
sg14
I00
sbsg15
I00
sg16
g41
sbsg12
I2
sg15
I01
sg16
g18
sbsg15
I00
sg16
g41
sbsg15
I00
sg16
g35
sbsg32
(imyEvolve
Tree
p1529
(dp1530
g12
I4
sg21
(imyEvolve
Tree
p1531
(dp1532
g7
(imyEvolve
Tree
p1533
(dp1534
g12
I2
sg21
(imyEvolve
Tree
p1535
(dp1536
g12
I1
sg21
(imyEvolve
Tree
p1537
(dp1538
g12
I0
sg13
F0.6842884356637979
sg14
I01
sbsg32
(imyEvolve
Tree
p1539
(dp1540
g12
I0
sg14
I00
sbsg15
I00
sg16
g41
sbsg32
(imyEvolve
Tree
p1541
(dp1542
g12
I1
sg21
(imyEvolve
Tree
p1543
(dp1544
g12
I0
sg14
I00
sbsg32
(imyEvolve
Tree
p1545
(dp1546
g12
I0
sg13
F-0.0955412143556238
sg14
I01
sbsg15
I00
sg16
g35
sbsg15
I00
sg16
g53
sbsg12
I3
sg15
I01
sg16
g17
sbsg32
(imyEvolve
Tree
p1547
(dp1548
g12
I3
sg21
(imyEvolve
Tree
p1549
(dp1550
g12
I2
sg21
(imyEvolve
Tree
p1551
(dp1552
g12
I1
sg21
(imyEvolve
Tree
p1553
(dp1554
g12
I0
sg13
F0.7783211265662633
sg14
I01
sbsg32
(imyEvolve
Tree
p1555
(dp1556
g12
I0
sg14
I00
sbsg15
I00
sg16
g41
sbsg32
(imyEvolve
Tree
p1557
(dp1558
g7
(imyEvolve
Tree
p1559
(dp1560
g12
I0
sg14
I00
sbsg12
I1
sg15
I01
sg16
g42
sbsg15
I00
sg16
g35
sbsg32
(imyEvolve
Tree
p1561
(dp1562
g7
(imyEvolve
Tree
p1563
(dp1564
g7
(imyEvolve
Tree
p1565
(dp1566
g12
I0
sg13
F-4.767247074142769
sg14
I01
sbsg12
I1
sg15
I01
sg16
g42
sbsg12
I2
sg15
I01
sg16
g18
sbsg15
I00
sg16
g35
sbsg15
I00
sg16
g35
sbsg15
I00
sg16
g41
sba(imyEvolve
Tree
p1567
(dp1568
g7
(imyEvolve
Tree
p1569
(dp1570
g7
(imyEvolve
Tree
p1571
(dp1572
g7
(imyEvolve
Tree
p1573
(dp1574
g12
I0
sg13
F-0.2566455936625287
sg14
I01
sbsg12
I1
sg15
I01
sg16
g17
sbsg12
I2
sg15
I01
sg16
g42
sbsg12
I3
sg15
I01
sg16
g42
sba(imyEvolve
Tree
p1575
(dp1576
g7
(imyEvolve
Tree
p1577
(dp1578
g12
I1
sg21
(imyEvolve
Tree
p1579
(dp1580
g12
I0
sg13
F1.4103275350351643
sg14
I01
sbsg32
(imyEvolve
Tree
p1581
(dp1582
g12
I0
sg14
I00
sbsg15
I00
sg16
g35
sbsg12
I2
sg15
I01
sg16
g40
sba(imyEvolve
Tree
p1583
(dp1584
g12
I3
sg21
(imyEvolve
Tree
p1585
(dp1586
g7
(imyEvolve
Tree
p1587
(dp1588
g7
(imyEvolve
Tree
p1589
(dp1590
g12
I0
sg14
I00
sbsg12
I1
sg15
I01
sg16
g18
sbsg12
I2
sg15
I01
sg16
g17
sbsg32
(imyEvolve
Tree
p1591
(dp1592
g12
I2
sg21
(imyEvolve
Tree
p1593
(dp1594
g12
I1
sg21
(imyEvolve
Tree
p1595
(dp1596
g12
I0
sg13
F-3.994711518898831
sg14
I01
sbsg32
(imyEvolve
Tree
p1597
(dp1598
g12
I0
sg14
I00
sbsg15
I00
sg16
g41
sbsg32
(imyEvolve
Tree
p1599
(dp1600
g7
(imyEvolve
Tree
p1601
(dp1602
g12
I0
sg13
F-1.3706785654192375
sg14
I01
sbsg12
I1
sg15
I01
sg16
g17
sbsg15
I00
sg16
g53
sbsg15
I00
sg16
g53
sba(imyEvolve
Tree
p1603
(dp1604
g7
(imyEvolve
Tree
p1605
(dp1606
g7
(imyEvolve
Tree
p1607
(dp1608
g12
I2
sg21
(imyEvolve
Tree
p1609
(dp1610
g7
(imyEvolve
Tree
p1611
(dp1612
g12
I0
sg13
F-4.976612173482442
sg14
I01
sbsg12
I1
sg15
I01
sg16
g18
sbsg32
(imyEvolve
Tree
p1613
(dp1614
g7
(imyEvolve
Tree
p1615
(dp1616
g12
I0
sg14
I00
sbsg12
I1
sg15
I01
sg16
g17
sbsg15
I00
sg16
g41
sbsg12
I3
sg15
I01
sg16
g40
sbsg12
I4
sg15
I01
sg16
g42
sba(imyEvolve
Tree
p1617
(dp1618
g12
I4
sg21
(imyEvolve
Tree
p1619
(dp1620
g12
I3
sg21
(imyEvolve
Tree
p1621
(dp1622
g7
(imyEvolve
Tree
p1623
(dp1624
g12
I1
sg21
(imyEvolve
Tree
p1625
(dp1626
g12
I0
sg13
F3.3855041361184064
sg14
I01
sbsg32
(imyEvolve
Tree
p1627
(dp1628
g12
I0
sg13
F4.7157670960223115
sg14
I01
sbsg15
I00
sg16
g35
sbsg12
I2
sg15
I01
sg16
g42
sbsg32
(imyEvolve
Tree
p1629
(dp1630
g12
I2
sg21
(imyEvolve
Tree
p1631
(dp1632
g12
I1
sg21
(imyEvolve
Tree
p1633
(dp1634
g12
I0
sg13
F-2.961095985585247
sg14
I01
sbsg32
(imyEvolve
Tree
p1635
(dp1636
g12
I0
sg14
I00
sbsg15
I00
sg16
g41
sbsg32
(imyEvolve
Tree
p1637
(dp1638
g12
I1
sg21
(imyEvolve
Tree
p1639
(dp1640
g12
I0
sg14
I00
sbsg32
(imyEvolve
Tree
p1641
(dp1642
g12
I0
sg14
I00
sbsg15
I00
sg16
g35
sbsg15
I00
sg16
g35
sbsg15
I00
sg16
g35
sbsg32
(imyEvolve
Tree
p1643
(dp1644
g12
I3
sg21
(imyEvolve
Tree
p1645
(dp1646
g7
(imyEvolve
Tree
p1647
(dp1648
g7
(imyEvolve
Tree
p1649
(dp1650
g12
I0
sg13
F2.786624418101251
sg14
I01
sbsg12
I1
sg15
I01
sg16
g18
sbsg12
I2
sg15
I01
sg16
g42
sbsg32
(imyEvolve
Tree
p1651
(dp1652
g12
I2
sg21
(imyEvolve
Tree
p1653
(dp1654
g12
I1
sg21
(imyEvolve
Tree
p1655
(dp1656
g12
I0
sg14
I00
sbsg32
(imyEvolve
Tree
p1657
(dp1658
g12
I0
sg14
I00
sbsg15
I00
sg16
g35
sbsg32
(imyEvolve
Tree
p1659
(dp1660
g12
I1
sg21
(imyEvolve
Tree
p1661
(dp1662
g12
I0
sg14
I00
sbsg32
(imyEvolve
Tree
p1663
(dp1664
g12
I0
sg13
F-1.2565768564280488
sg14
I01
sbsg15
I00
sg16
g53
sbsg15
I00
sg16
g41
sbsg15
I00
sg16
g41
sbsg15
I00
sg16
g53
sba(imyEvolve
Tree
p1665
(dp1666
g7
(imyEvolve
Tree
p1667
(dp1668
g7
(imyEvolve
Tree
p1669
(dp1670
g7
(imyEvolve
Tree
p1671
(dp1672
g21
(imyEvolve
Tree
p1673
(dp1674
g12
I0
sg14
I00
sbsg12
I1
sg32
(imyEvolve
Tree
p1675
(dp1676
g12
I0
sg13
F-1.332505910564369
sg14
I01
sbsg15
I00
sg16
g41
sbsg12
I2
sg15
I01
sg16
g42
sbsg12
I3
sg15
I01
sg16
g40
sbsg12
I4
sg15
I01
sg16
g18
sba(imyEvolve
Tree
p1677
(dp1678
g21
(imyEvolve
Tree
p1679
(dp1680
g21
(imyEvolve
Tree
p1681
(dp1682
g7
(imyEvolve
Tree
p1683
(dp1684
g7
(imyEvolve
Tree
p1685
(dp1686
g7
(imyEvolve
Tree
p1687
(dp1688
g12
I0
sg13
F-1.2940471204908919
sg14
I01
sbsg12
I1
sg15
I01
sg16
g18
sbsg12
I2
sg15
I01
sg16
g18
sbsg12
I3
sg15
I01
sg16
g42
sbsg12
I4
sg32
(imyEvolve
Tree
p1689
(dp1690
g21
(imyEvolve
Tree
p1691
(dp1692
g21
(imyEvolve
Tree
p1693
(dp1694
g7
(imyEvolve
Tree
p1695
(dp1696
g12
I0
sg13
F0.8758270607402752
sg14
I01
sbsg12
I1
sg15
I01
sg16
g17
sbsg12
I2
sg32
(imyEvolve
Tree
p1697
(dp1698
g7
(imyEvolve
Tree
p1699
(dp1700
g12
I0
sg13
F3.72760214680579
sg14
I01
sbsg12
I1
sg15
I01
sg16
g40
sbsg15
I00
sg16
g53
sbsg12
I3
sg32
(imyEvolve
Tree
p1701
(dp1702
g21
(imyEvolve
Tree
p1703
(dp1704
g21
(imyEvolve
Tree
p1705
(dp1706
g12
I0
sg14
I00
sbsg12
I1
sg32
(imyEvolve
Tree
p1707
(dp1708
g12
I0
sg14
I00
sbsg15
I00
sg16
g35
sbsg12
I2
sg32
(imyEvolve
Tree
p1709
(dp1710
g21
(imyEvolve
Tree
p1711
(dp1712
g12
I0
sg14
I00
sbsg12
I1
sg32
(imyEvolve
Tree
p1713
(dp1714
g12
I0
sg14
I00
sbsg15
I00
sg16
g41
sbsg15
I00
sg16
g41
sbsg15
I00
sg16
g41
sbsg15
I00
sg16
g35
sbsg12
I5
sg32
(imyEvolve
Tree
p1715
(dp1716
g7
(imyEvolve
Tree
p1717
(dp1718
g7
(imyEvolve
Tree
p1719
(dp1720
g21
(imyEvolve
Tree
p1721
(dp1722
g7
(imyEvolve
Tree
p1723
(dp1724
g12
I0
sg14
I00
sbsg12
I1
sg15
I01
sg16
g17
sbsg12
I2
sg32
(imyEvolve
Tree
p1725
(dp1726
g21
(imyEvolve
Tree
p1727
(dp1728
g12
I0
sg14
I00
sbsg12
I1
sg32
(imyEvolve
Tree
p1729
(dp1730
g12
I0
sg13
F-4.829857477061563
sg14
I01
sbsg15
I00
sg16
g35
sbsg15
I00
sg16
g35
sbsg12
I3
sg15
I01
sg16
g40
sbsg12
I4
sg15
I01
sg16
g18
sbsg15
I00
sg16
g53
sba(imyEvolve
Tree
p1731
(dp1732
g12
I3
sg21
(imyEvolve
Tree
p1733
(dp1734
g7
(imyEvolve
Tree
p1735
(dp1736
g12
I1
sg21
(imyEvolve
Tree
p1737
(dp1738
g12
I0
sg14
I00
sbsg32
(imyEvolve
Tree
p1739
(dp1740
g12
I0
sg14
I00
sbsg15
I00
sg16
g53
sbsg12
I2
sg15
I01
sg16
g42
sbsg32
(imyEvolve
Tree
p1741
(dp1742
g7
(imyEvolve
Tree
p1743
(dp1744
g7
(imyEvolve
Tree
p1745
(dp1746
g12
I0
sg13
F0.309708489578437
sg14
I01
sbsg12
I1
sg15
I01
sg16
g17
sbsg12
I2
sg15
I01
sg16
g17
sbsg15
I00
sg16
g35
sbaa(lp1747
(imyEvolve
Tree
p1748
(dp1749
g7
(imyEvolve
Tree
p1750
(dp1751
g7
(imyEvolve
Tree
p1752
(dp1753
g12
I0
sg13
F-1.8591403602891599
sg14
I01
sbsg12
I1
sg15
I01
sg16
g18
sbsg12
I2
sg15
I01
sg16
g40
sba(imyEvolve
Tree
p1754
(dp1755
g12
I4
sg21
(imyEvolve
Tree
p1756
(dp1757
g7
(imyEvolve
Tree
p1758
(dp1759
g7
(imyEvolve
Tree
p1760
(dp1761
g12
I1
sg21
(imyEvolve
Tree
p1762
(dp1763
g12
I0
sg13
F-0.6088129977697063
sg14
I01
sbsg32
(imyEvolve
Tree
p1764
(dp1765
g12
I0
sg14
I00
sbsg15
I00
sg16
g41
sbsg12
I2
sg15
I01
sg16
g42
sbsg12
I3
sg15
I01
sg16
g18
sbsg32
(imyEvolve
Tree
p1766
(dp1767
g7
(imyEvolve
Tree
p1768
(dp1769
g12
I2
sg21
(imyEvolve
Tree
p1770
(dp1771
g7
(imyEvolve
Tree
p1772
(dp1773
g12
I0
sg14
I00
sbsg12
I1
sg15
I01
sg16
g42
sbsg32
(imyEvolve
Tree
p1774
(dp1775
g12
I1
sg21
(imyEvolve
Tree
p1776
(dp1777
g12
I0
sg13
F3.650688616532266
sg14
I01
sbsg32
(imyEvolve
Tree
p1778
(dp1779
g12
I0
sg14
I00
sbsg15
I00
sg16
g41
sbsg15
I00
sg16
g53
sbsg12
I3
sg15
I01
sg16
g42
sbsg15
I00
sg16
g53
sba(imyEvolve
Tree
p1780
(dp1781
g21
(imyEvolve
Tree
p1782
(dp1783
g7
(imyEvolve
Tree
p1784
(dp1785
g7
(imyEvolve
Tree
p1786
(dp1787
g7
(imyEvolve
Tree
p1788
(dp1789
g7
(imyEvolve
Tree
p1790
(dp1791
g12
I0
sg13
F1.6064537190007497
sg14
I01
sbsg12
I1
sg15
I01
sg16
g18
sbsg12
I2
sg15
I01
sg16
g42
sbsg12
I3
sg15
I01
sg16
g18
sbsg12
I4
sg15
I01
sg16
g17
sbsg12
I5
sg32
(imyEvolve
Tree
p1792
(dp1793
g7
(imyEvolve
Tree
p1794
(dp1795
g21
(imyEvolve
Tree
p1796
(dp1797
g7
(imyEvolve
Tree
p1798
(dp1799
g7
(imyEvolve
Tree
p1800
(dp1801
g12
I0
sg13
F-0.4523132483933612
sg14
I01
sbsg12
I1
sg15
I01
sg16
g18
sbsg12
I2
sg15
I01
sg16
g18
sbsg12
I3
sg32
(imyEvolve
Tree
p1802
(dp1803
g7
(imyEvolve
Tree
p1804
(dp1805
g21
(imyEvolve
Tree
p1806
(dp1807
g12
I0
sg13
F3.917590243693928
sg14
I01
sbsg12
I1
sg32
(imyEvolve
Tree
p1808
(dp1809
g12
I0
sg13
F-2.6463471473152325
sg14
I01
sbsg15
I00
sg16
g41
sbsg12
I2
sg15
I01
sg16
g42
sbsg15
I00
sg16
g35
sbsg12
I4
sg15
I01
sg16
g18
sbsg15
I00
sg16
g53
sba(imyEvolve
Tree
p1810
(dp1811
g7
(imyEvolve
Tree
p1812
(dp1813
g7
(imyEvolve
Tree
p1814
(dp1815
g21
(imyEvolve
Tree
p1816
(dp1817
g21
(imyEvolve
Tree
p1818
(dp1819
g12
I0
sg13
F4.790517447131739
sg14
I01
sbsg12
I1
sg32
(imyEvolve
Tree
p1820
(dp1821
g12
I0
sg14
I00
sbsg15
I00
sg16
g35
sbsg12
I2
sg32
(imyEvolve
Tree
p1822
(dp1823
g7
(imyEvolve
Tree
p1824
(dp1825
g12
I0
sg14
I00
sbsg12
I1
sg15
I01
sg16
g40
sbsg15
I00
sg16
g41
sbsg12
I3
sg15
I01
sg16
g40
sbsg12
I4
sg15
I01
sg16
g42
sba(imyEvolve
Tree
p1826
(dp1827
g7
(imyEvolve
Tree
p1828
(dp1829
g7
(imyEvolve
Tree
p1830
(dp1831
g21
(imyEvolve
Tree
p1832
(dp1833
g12
I0
sg13
F-3.1681336061847887
sg14
I01
sbsg12
I1
sg32
(imyEvolve
Tree
p1834
(dp1835
g12
I0
sg13
F-0.1440430449900143
sg14
I01
sbsg15
I00
sg16
g35
sbsg12
I2
sg15
I01
sg16
g18
sbsg12
I3
sg15
I01
sg16
g42
sba(imyEvolve
Tree
p1836
(dp1837
g21
(imyEvolve
Tree
p1838
(dp1839
g21
(imyEvolve
Tree
p1840
(dp1841
g12
I0
sg13
F0.1284264709628129
sg14
I01
sbsg12
I1
sg32
(imyEvolve
Tree
p1842
(dp1843
g12
I0
sg14
I00
sbsg15
I00
sg16
g41
sbsg12
I2
sg32
(imyEvolve
Tree
p1844
(dp1845
g7
(imyEvolve
Tree
p1846
(dp1847
g12
I0
sg14
I00
sbsg12
I1
sg15
I01
sg16
g40
sbsg15
I00
sg16
g35
sba(imyEvolve
Tree
p1848
(dp1849
g7
(imyEvolve
Tree
p1850
(dp1851
g21
(imyEvolve
Tree
p1852
(dp1853
g7
(imyEvolve
Tree
p1854
(dp1855
g12
I0
sg14
I00
sbsg12
I1
sg15
I01
sg16
g42
sbsg12
I2
sg32
(imyEvolve
Tree
p1856
(dp1857
g7
(imyEvolve
Tree
p1858
(dp1859
g12
I0
sg13
F1.592690586619642
sg14
I01
sbsg12
I1
sg15
I01
sg16
g42
sbsg15
I00
sg16
g53
sbsg12
I3
sg15
I01
sg16
g18
sba(imyEvolve
Tree
p1860
(dp1861
g7
(imyEvolve
Tree
p1862
(dp1863
g7
(imyEvolve
Tree
p1864
(dp1865
g7
(imyEvolve
Tree
p1866
(dp1867
g21
(imyEvolve
Tree
p1868
(dp1869
g12
I0
sg14
I00
sbsg12
I1
sg32
(imyEvolve
Tree
p1870
(dp1871
g12
I0
sg14
I00
sbsg15
I00
sg16
g53
sbsg12
I2
sg15
I01
sg16
g40
sbsg12
I3
sg15
I01
sg16
g17
sbsg12
I4
sg15
I01
sg16
g18
sba(imyEvolve
Tree
p1872
(dp1873
g7
(imyEvolve
Tree
p1874
(dp1875
g7
(imyEvolve
Tree
p1876
(dp1877
g21
(imyEvolve
Tree
p1878
(dp1879
g7
(imyEvolve
Tree
p1880
(dp1881
g21
(imyEvolve
Tree
p1882
(dp1883
g12
I0
sg13
F-0.6080087650503998
sg14
I01
sbsg12
I1
sg32
(imyEvolve
Tree
p1884
(dp1885
g12
I0
sg14
I00
sbsg15
I00
sg16
g35
sbsg12
I2
sg15
I01
sg16
g40
sbsg12
I3
sg32
(imyEvolve
Tree
p1886
(dp1887
g7
(imyEvolve
Tree
p1888
(dp1889
g21
(imyEvolve
Tree
p1890
(dp1891
g12
I0
sg13
F-3.4187239164983896
sg14
I01
sbsg12
I1
sg32
(imyEvolve
Tree
p1892
(dp1893
g12
I0
sg13
F2.8769472926969497
sg14
I01
sbsg15
I00
sg16
g53
sbsg12
I2
sg15
I01
sg16
g42
sbsg15
I00
sg16
g53
sbsg12
I4
sg15
I01
sg16
g18
sbsg12
I5
sg15
I01
sg16
g17
sba(imyEvolve
Tree
p1894
(dp1895
g7
(imyEvolve
Tree
p1896
(dp1897
g12
I2
sg21
(imyEvolve
Tree
p1898
(dp1899
g7
(imyEvolve
Tree
p1900
(dp1901
g12
I0
sg14
I00
sbsg12
I1
sg15
I01
sg16
g40
sbsg32
(imyEvolve
Tree
p1902
(dp1903
g7
(imyEvolve
Tree
p1904
(dp1905
g12
I0
sg14
I00
sbsg12
I1
sg15
I01
sg16
g17
sbsg15
I00
sg16
g41
sbsg12
I3
sg15
I01
sg16
g42
sbaasS'alpha'
p1906
F0.006235283429227879
sS'fitness'
p1907
cnumpy.core.multiarray
scalar
p1908
(cnumpy
dtype
p1909
(S'f8'
p1910
I0
I1
tp1911
Rp1912
(I3
S'<'
p1913
NNNI-1
I-1
I0
tp1914
bS'\x00\xe4\x83\x9e\xad\xb2c\xbf'
p1915
tp1916
Rp1917
sS'weightSharing'
p1918
(lp1919
I00
aI00
asS'fitnessValid'
p1920
I00
sS'resolution'
p1921
I81
sb.