(imyEvolve
Individual
p0
(dp1
S'funcs'
p2
(lp3
(lp4
(imyEvolve
Tree
p5
(dp6
S'below'
p7
(imyEvolve
Tree
p8
(dp9
S'depth'
p10
I3
sS'left'
p11
(imyEvolve
Tree
p12
(dp13
g7
(imyEvolve
Tree
p14
(dp15
g7
(imyEvolve
Tree
p16
(dp17
g10
I0
sS'isConstant'
p18
I00
sbsg10
I1
sS'single'
p19
I01
sS'op'
p20
cmyEvolve
absSqrt
p21
sbsg10
I2
sg19
I01
sg20
cmath
cos
p22
sbsS'right'
p23
(imyEvolve
Tree
p24
(dp25
g10
I2
sg11
(imyEvolve
Tree
p26
(dp27
g10
I1
sg11
(imyEvolve
Tree
p28
(dp29
g10
I0
sg18
I00
sbsg23
(imyEvolve
Tree
p30
(dp31
g10
I0
sg18
I00
sbsg19
I00
sg20
coperator
add
p32
sbsg23
(imyEvolve
Tree
p33
(dp34
g10
I1
sg11
(imyEvolve
Tree
p35
(dp36
g10
I0
sS'constant'
p37
F3.3965167401250635
sg18
I01
sbsg23
(imyEvolve
Tree
p38
(dp39
g10
I0
sg18
I00
sbsg19
I00
sg20
coperator
sub
p40
sbsg19
I00
sg20
g32
sbsg19
I00
sg20
g40
sbsg10
I4
sg19
I01
sg20
cmath
sin
p41
sba(imyEvolve
Tree
p42
(dp43
g11
(imyEvolve
Tree
p44
(dp45
g7
(imyEvolve
Tree
p46
(dp47
g11
(imyEvolve
Tree
p48
(dp49
g10
I0
sg37
F0.23403116206035524
sg18
I01
sbsg10
I1
sg23
(imyEvolve
Tree
p50
(dp51
g10
I0
sg18
I00
sbsg19
I00
sg20
g40
sbsg10
I2
sg19
I01
sg20
cmyEvolve
square
p52
sbsg10
I3
sg23
(imyEvolve
Tree
p53
(dp54
g11
(imyEvolve
Tree
p55
(dp56
g11
(imyEvolve
Tree
p57
(dp58
g10
I0
sg37
F3.5569515997570402
sg18
I01
sbsg10
I1
sg23
(imyEvolve
Tree
p59
(dp60
g10
I0
sg37
F2.219843764454441
sg18
I01
sbsg19
I00
sg20
coperator
mul
p61
sbsg10
I2
sg23
(imyEvolve
Tree
p62
(dp63
g7
(imyEvolve
Tree
p64
(dp65
g10
I0
sg18
I00
sbsg10
I1
sg19
I01
sg20
g41
sbsg19
I00
sg20
g32
sbsg19
I00
sg20
g40
sba(imyEvolve
Tree
p66
(dp67
g10
I3
sg11
(imyEvolve
Tree
p68
(dp69
g7
(imyEvolve
Tree
p70
(dp71
g10
I1
sg11
(imyEvolve
Tree
p72
(dp73
g10
I0
sg18
I00
sbsg23
(imyEvolve
Tree
p74
(dp75
g10
I0
sg37
F4.113271184210278
sg18
I01
sbsg19
I00
sg20
g32
sbsg10
I2
sg19
I01
sg20
g52
sbsg23
(imyEvolve
Tree
p76
(dp77
g10
I2
sg11
(imyEvolve
Tree
p78
(dp79
g7
(imyEvolve
Tree
p80
(dp81
g10
I0
sg37
F4.347084667990197
sg18
I01
sbsg10
I1
sg19
I01
sg20
g21
sbsg23
(imyEvolve
Tree
p82
(dp83
g10
I1
sg11
(imyEvolve
Tree
p84
(dp85
g10
I0
sg18
I00
sbsg23
(imyEvolve
Tree
p86
(dp87
g10
I0
sg37
F0.9124596706287003
sg18
I01
sbsg19
I00
sg20
g61
sbsg19
I00
sg20
g32
sbsg19
I00
sg20
g32
sba(imyEvolve
Tree
p88
(dp89
g7
(imyEvolve
Tree
p90
(dp91
g11
(imyEvolve
Tree
p92
(dp93
g11
(imyEvolve
Tree
p94
(dp95
g10
I0
sg37
F0.36826992967050387
sg18
I01
sbsg10
I1
sg23
(imyEvolve
Tree
p96
(dp97
g10
I0
sg37
F4.856780197386492
sg18
I01
sbsg19
I00
sg20
g40
sbsg10
I2
sg23
(imyEvolve
Tree
p98
(dp99
g11
(imyEvolve
Tree
p100
(dp101
g10
I0
sg37
F-0.5563782429086759
sg18
I01
sbsg10
I1
sg23
(imyEvolve
Tree
p102
(dp103
g10
I0
sg37
F3.779247722163099
sg18
I01
sbsg19
I00
sg20
g61
sbsg19
I00
sg20
g40
sbsg10
I3
sg19
I01
sg20
g41
sba(imyEvolve
Tree
p104
(dp105
g7
(imyEvolve
Tree
p106
(dp107
g11
(imyEvolve
Tree
p108
(dp109
g11
(imyEvolve
Tree
p110
(dp111
g10
I0
sg18
I00
sbsg10
I1
sg23
(imyEvolve
Tree
p112
(dp113
g10
I0
sg18
I00
sbsg19
I00
sg20
g61
sbsg10
I2
sg23
(imyEvolve
Tree
p114
(dp115
g11
(imyEvolve
Tree
p116
(dp117
g10
I0
sg37
F0.9827745072408769
sg18
I01
sbsg10
I1
sg23
(imyEvolve
Tree
p118
(dp119
g10
I0
sg37
F-4.647679124196761
sg18
I01
sbsg19
I00
sg20
g61
sbsg19
I00
sg20
g32
sbsg10
I3
sg19
I01
sg20
g41
sba(imyEvolve
Tree
p120
(dp121
g11
(imyEvolve
Tree
p122
(dp123
g11
(imyEvolve
Tree
p124
(dp125
g7
(imyEvolve
Tree
p126
(dp127
g10
I0
sg18
I00
sbsg10
I1
sg19
I01
sg20
g21
sbsg10
I2
sg23
(imyEvolve
Tree
p128
(dp129
g11
(imyEvolve
Tree
p130
(dp131
g10
I0
sg37
F1.6357787650675082
sg18
I01
sbsg10
I1
sg23
(imyEvolve
Tree
p132
(dp133
g10
I0
sg18
I00
sbsg19
I00
sg20
g40
sbsg19
I00
sg20
g40
sbsg10
I3
sg23
(imyEvolve
Tree
p134
(dp135
g7
(imyEvolve
Tree
p136
(dp137
g11
(imyEvolve
Tree
p138
(dp139
g10
I0
sg37
F-0.9555988417013017
sg18
I01
sbsg10
I1
sg23
(imyEvolve
Tree
p140
(dp141
g10
I0
sg18
I00
sbsg19
I00
sg20
g40
sbsg10
I2
sg19
I01
sg20
g22
sbsg19
I00
sg20
g40
sba(imyEvolve
Tree
p142
(dp143
g7
(imyEvolve
Tree
p144
(dp145
g11
(imyEvolve
Tree
p146
(dp147
g10
I0
sg37
F0.7333504045363748
sg18
I01
sbsg10
I1
sg23
(imyEvolve
Tree
p148
(dp149
g10
I0
sg18
I00
sbsg19
I00
sg20
g61
sbsg10
I2
sg19
I01
sg20
g21
sba(imyEvolve
Tree
p150
(dp151
g7
(imyEvolve
Tree
p152
(dp153
g7
(imyEvolve
Tree
p154
(dp155
g7
(imyEvolve
Tree
p156
(dp157
g11
(imyEvolve
Tree
p158
(dp159
g7
(imyEvolve
Tree
p160
(dp161
g10
I0
sg37
F-1.5266529772187711
sg18
I01
sbsg10
I1
sg19
I01
sg20
g22
sbsg10
I2
sg23
(imyEvolve
Tree
p162
(dp163
g11
(imyEvolve
Tree
p164
(dp165
g10
I0
sg37
F2.490962801265403
sg18
I01
sbsg10
I1
sg23
(imyEvolve
Tree
p166
(dp167
g10
I0
sg18
I00
sbsg19
I00
sg20
g40
sbsg19
I00
sg20
g32
sbsg10
I3
sg19
I01
sg20
g41
sbsg10
I4
sg19
I01
sg20
g21
sbsg10
I5
sg19
I01
sg20
g21
sba(imyEvolve
Tree
p168
(dp169
g7
(imyEvolve
Tree
p170
(dp171
g7
(imyEvolve
Tree
p172
(dp173
g11
(imyEvolve
Tree
p174
(dp175
g10
I0
sg18
I00
sbsg10
I1
sg23
(imyEvolve
Tree
p176
(dp177
g10
I0
sg37
F0.12237748139200111
sg18
I01
sbsg19
I00
sg20
g61
sbsg10
I2
sg19
I01
sg20
g41
sbsg10
I3
sg19
I01
sg20
g21
sba(imyEvolve
Tree
p178
(dp179
g11
(imyEvolve
Tree
p180
(dp181
g11
(imyEvolve
Tree
p182
(dp183
g11
(imyEvolve
Tree
p184
(dp185
g11
(imyEvolve
Tree
p186
(dp187
g7
(imyEvolve
Tree
p188
(dp189
g10
I0
sg18
I00
sbsg10
I1
sg19
I01
sg20
g21
sbsg10
I2
sg23
(imyEvolve
Tree
p190
(dp191
g11
(imyEvolve
Tree
p192
(dp193
g10
I0
sg37
F3.24573270997651
sg18
I01
sbsg10
I1
sg23
(imyEvolve
Tree
p194
(dp195
g10
I0
sg18
I00
sbsg19
I00
sg20
g61
sbsg19
I00
sg20
g61
sbsg10
I3
sg23
(imyEvolve
Tree
p196
(dp197
g7
(imyEvolve
Tree
p198
(dp199
g7
(imyEvolve
Tree
p200
(dp201
g10
I0
sg18
I00
sbsg10
I1
sg19
I01
sg20
g21
sbsg10
I2
sg19
I01
sg20
g22
sbsg19
I00
sg20
g61
sbsg10
I4
sg23
(imyEvolve
Tree
p202
(dp203
g7
(imyEvolve
Tree
p204
(dp205
g7
(imyEvolve
Tree
p206
(dp207
g11
(imyEvolve
Tree
p208
(dp209
g10
I0
sg18
I00
sbsg10
I1
sg23
(imyEvolve
Tree
p210
(dp211
g10
I0
sg18
I00
sbsg19
I00
sg20
g61
sbsg10
I2
sg19
I01
sg20
g22
sbsg10
I3
sg19
I01
sg20
g52
sbsg19
I00
sg20
g32
sbsg10
I5
sg23
(imyEvolve
Tree
p212
(dp213
g11
(imyEvolve
Tree
p214
(dp215
g11
(imyEvolve
Tree
p216
(dp217
g7
(imyEvolve
Tree
p218
(dp219
g7
(imyEvolve
Tree
p220
(dp221
g10
I0
sg18
I00
sbsg10
I1
sg19
I01
sg20
g52
sbsg10
I2
sg19
I01
sg20
g52
sbsg10
I3
sg23
(imyEvolve
Tree
p222
(dp223
g11
(imyEvolve
Tree
p224
(dp225
g7
(imyEvolve
Tree
p226
(dp227
g10
I0
sg18
I00
sbsg10
I1
sg19
I01
sg20
g52
sbsg10
I2
sg23
(imyEvolve
Tree
p228
(dp229
g11
(imyEvolve
Tree
p230
(dp231
g10
I0
sg37
F-4.3509255633618515
sg18
I01
sbsg10
I1
sg23
(imyEvolve
Tree
p232
(dp233
g10
I0
sg37
F1.2824754600024848
sg18
I01
sbsg19
I00
sg20
g40
sbsg19
I00
sg20
g61
sbsg19
I00
sg20
g61
sbsg10
I4
sg23
(imyEvolve
Tree
p234
(dp235
g11
(imyEvolve
Tree
p236
(dp237
g7
(imyEvolve
Tree
p238
(dp239
g7
(imyEvolve
Tree
p240
(dp241
g10
I0
sg37
F-4.185139649671111
sg18
I01
sbsg10
I1
sg19
I01
sg20
g21
sbsg10
I2
sg19
I01
sg20
g22
sbsg10
I3
sg23
(imyEvolve
Tree
p242
(dp243
g7
(imyEvolve
Tree
p244
(dp245
g11
(imyEvolve
Tree
p246
(dp247
g10
I0
sg18
I00
sbsg10
I1
sg23
(imyEvolve
Tree
p248
(dp249
g10
I0
sg18
I00
sbsg19
I00
sg20
g40
sbsg10
I2
sg19
I01
sg20
g52
sbsg19
I00
sg20
g61
sbsg19
I00
sg20
g61
sbsg19
I00
sg20
g61
sba(imyEvolve
Tree
p250
(dp251
g7
(imyEvolve
Tree
p252
(dp253
g7
(imyEvolve
Tree
p254
(dp255
g11
(imyEvolve
Tree
p256
(dp257
g10
I0
sg18
I00
sbsg10
I1
sg23
(imyEvolve
Tree
p258
(dp259
g10
I0
sg37
F3.994219386937745
sg18
I01
sbsg19
I00
sg20
g40
sbsg10
I2
sg19
I01
sg20
g41
sbsg10
I3
sg19
I01
sg20
g52
sba(imyEvolve
Tree
p260
(dp261
g11
(imyEvolve
Tree
p262
(dp263
g11
(imyEvolve
Tree
p264
(dp265
g11
(imyEvolve
Tree
p266
(dp267
g7
(imyEvolve
Tree
p268
(dp269
g10
I0
sg37
F-2.540485090379707
sg18
I01
sbsg10
I1
sg19
I01
sg20
g21
sbsg10
I2
sg23
(imyEvolve
Tree
p270
(dp271
g7
(imyEvolve
Tree
p272
(dp273
g10
I0
sg37
F-1.4904376319115045
sg18
I01
sbsg10
I1
sg19
I01
sg20
g41
sbsg19
I00
sg20
g32
sbsg10
I3
sg23
(imyEvolve
Tree
p274
(dp275
g7
(imyEvolve
Tree
p276
(dp277
g11
(imyEvolve
Tree
p278
(dp279
g10
I0
sg18
I00
sbsg10
I1
sg23
(imyEvolve
Tree
p280
(dp281
g10
I0
sg37
F-2.2459016666025944
sg18
I01
sbsg19
I00
sg20
g32
sbsg10
I2
sg19
I01
sg20
g41
sbsg19
I00
sg20
g61
sbsg10
I4
sg23
(imyEvolve
Tree
p282
(dp283
g7
(imyEvolve
Tree
p284
(dp285
g7
(imyEvolve
Tree
p286
(dp287
g7
(imyEvolve
Tree
p288
(dp289
g10
I0
sg37
F-2.8656185528392273
sg18
I01
sbsg10
I1
sg19
I01
sg20
g41
sbsg10
I2
sg19
I01
sg20
g41
sbsg10
I3
sg19
I01
sg20
g22
sbsg19
I00
sg20
g40
sba(imyEvolve
Tree
p290
(dp291
g10
I2
sg11
(imyEvolve
Tree
p292
(dp293
g7
(imyEvolve
Tree
p294
(dp295
g10
I0
sg37
F1.0712924116941611
sg18
I01
sbsg10
I1
sg19
I01
sg20
g52
sbsg23
(imyEvolve
Tree
p296
(dp297
g7
(imyEvolve
Tree
p298
(dp299
g10
I0
sg37
F-3.266033932196594
sg18
I01
sbsg10
I1
sg19
I01
sg20
g52
sbsg19
I00
sg20
g40
sba(imyEvolve
Tree
p300
(dp301
g7
(imyEvolve
Tree
p302
(dp303
g10
I4
sg11
(imyEvolve
Tree
p304
(dp305
g10
I3
sg11
(imyEvolve
Tree
p306
(dp307
g10
I2
sg11
(imyEvolve
Tree
p308
(dp309
g10
I1
sg11
(imyEvolve
Tree
p310
(dp311
g10
I0
sg37
F4.9582859682661375
sg18
I01
sbsg23
(imyEvolve
Tree
p312
(dp313
g10
I0
sg37
F-3.8741769742768684
sg18
I01
sbsg19
I00
sg20
g61
sbsg23
(imyEvolve
Tree
p314
(dp315
g7
(imyEvolve
Tree
p316
(dp317
g10
I0
sg37
F2.862785667874011
sg18
I01
sbsg10
I1
sg19
I01
sg20
g22
sbsg19
I00
sg20
g61
sbsg23
(imyEvolve
Tree
p318
(dp319
g7
(imyEvolve
Tree
p320
(dp321
g7
(imyEvolve
Tree
p322
(dp323
g10
I0
sg18
I00
sbsg10
I1
sg19
I01
sg20
g21
sbsg10
I2
sg19
I01
sg20
g22
sbsg19
I00
sg20
g61
sbsg23
(imyEvolve
Tree
p324
(dp325
g10
I3
sg11
(imyEvolve
Tree
p326
(dp327
g10
I2
sg11
(imyEvolve
Tree
p328
(dp329
g7
(imyEvolve
Tree
p330
(dp331
g10
I0
sg37
F4.952015888696659
sg18
I01
sbsg10
I1
sg19
I01
sg20
g52
sbsg23
(imyEvolve
Tree
p332
(dp333
g10
I1
sg11
(imyEvolve
Tree
p334
(dp335
g10
I0
sg37
F-4.842932185140425
sg18
I01
sbsg23
(imyEvolve
Tree
p336
(dp337
g10
I0
sg37
F3.0156927231812105
sg18
I01
sbsg19
I00
sg20
g32
sbsg19
I00
sg20
g61
sbsg23
(imyEvolve
Tree
p338
(dp339
g10
I2
sg11
(imyEvolve
Tree
p340
(dp341
g10
I1
sg11
(imyEvolve
Tree
p342
(dp343
g10
I0
sg18
I00
sbsg23
(imyEvolve
Tree
p344
(dp345
g10
I0
sg18
I00
sbsg19
I00
sg20
g61
sbsg23
(imyEvolve
Tree
p346
(dp347
g7
(imyEvolve
Tree
p348
(dp349
g10
I0
sg37
F-3.014754182628616
sg18
I01
sbsg10
I1
sg19
I01
sg20
g41
sbsg19
I00
sg20
g32
sbsg19
I00
sg20
g61
sbsg19
I00
sg20
g32
sbsg10
I5
sg19
I01
sg20
g21
sba(imyEvolve
Tree
p350
(dp351
g7
(imyEvolve
Tree
p352
(dp353
g10
I1
sg11
(imyEvolve
Tree
p354
(dp355
g10
I0
sg18
I00
sbsg23
(imyEvolve
Tree
p356
(dp357
g10
I0
sg37
F-1.0337100043507954
sg18
I01
sbsg19
I00
sg20
g61
sbsg10
I2
sg19
I01
sg20
g52
sba(imyEvolve
Tree
p358
(dp359
g7
(imyEvolve
Tree
p360
(dp361
g11
(imyEvolve
Tree
p362
(dp363
g7
(imyEvolve
Tree
p364
(dp365
g11
(imyEvolve
Tree
p366
(dp367
g10
I0
sg18
I00
sbsg10
I1
sg23
(imyEvolve
Tree
p368
(dp369
g10
I0
sg18
I00
sbsg19
I00
sg20
g40
sbsg10
I2
sg19
I01
sg20
g41
sbsg10
I3
sg23
(imyEvolve
Tree
p370
(dp371
g7
(imyEvolve
Tree
p372
(dp373
g7
(imyEvolve
Tree
p374
(dp375
g10
I0
sg37
F3.2715046571225788
sg18
I01
sbsg10
I1
sg19
I01
sg20
g22
sbsg10
I2
sg19
I01
sg20
g52
sbsg19
I00
sg20
g40
sbsg10
I4
sg19
I01
sg20
g22
sba(imyEvolve
Tree
p376
(dp377
g11
(imyEvolve
Tree
p378
(dp379
g11
(imyEvolve
Tree
p380
(dp381
g7
(imyEvolve
Tree
p382
(dp383
g10
I0
sg37
F-1.5928010025755048
sg18
I01
sbsg10
I1
sg19
I01
sg20
g22
sbsg10
I2
sg23
(imyEvolve
Tree
p384
(dp385
g11
(imyEvolve
Tree
p386
(dp387
g10
I0
sg37
F-0.2856660002625251
sg18
I01
sbsg10
I1
sg23
(imyEvolve
Tree
p388
(dp389
g10
I0
sg37
F4.192145816549843
sg18
I01
sbsg19
I00
sg20
g61
sbsg19
I00
sg20
g40
sbsg10
I3
sg23
(imyEvolve
Tree
p390
(dp391
g11
(imyEvolve
Tree
p392
(dp393
g11
(imyEvolve
Tree
p394
(dp395
g10
I0
sg37
F4.963102354681556
sg18
I01
sbsg10
I1
sg23
(imyEvolve
Tree
p396
(dp397
g10
I0
sg18
I00
sbsg19
I00
sg20
g40
sbsg10
I2
sg23
(imyEvolve
Tree
p398
(dp399
g7
(imyEvolve
Tree
p400
(dp401
g10
I0
sg18
I00
sbsg10
I1
sg19
I01
sg20
g41
sbsg19
I00
sg20
g32
sbsg19
I00
sg20
g32
sba(imyEvolve
Tree
p402
(dp403
g10
I3
sg11
(imyEvolve
Tree
p404
(dp405
g10
I2
sg11
(imyEvolve
Tree
p406
(dp407
g7
(imyEvolve
Tree
p408
(dp409
g10
I0
sg18
I00
sbsg10
I1
sg19
I01
sg20
g21
sbsg23
(imyEvolve
Tree
p410
(dp411
g10
I1
sg11
(imyEvolve
Tree
p412
(dp413
g10
I0
sg18
I00
sbsg23
(imyEvolve
Tree
p414
(dp415
g10
I0
sg18
I00
sbsg19
I00
sg20
g61
sbsg19
I00
sg20
g32
sbsg23
(imyEvolve
Tree
p416
(dp417
g7
(imyEvolve
Tree
p418
(dp419
g7
(imyEvolve
Tree
p420
(dp421
g10
I0
sg18
I00
sbsg10
I1
sg19
I01
sg20
g22
sbsg10
I2
sg19
I01
sg20
g21
sbsg19
I00
sg20
g40
sba(imyEvolve
Tree
p422
(dp423
g10
I4
sg11
(imyEvolve
Tree
p424
(dp425
g10
I3
sg11
(imyEvolve
Tree
p426
(dp427
g7
(imyEvolve
Tree
p428
(dp429
g7
(imyEvolve
Tree
p430
(dp431
g10
I0
sg18
I00
sbsg10
I1
sg19
I01
sg20
g21
sbsg10
I2
sg19
I01
sg20
g22
sbsg23
(imyEvolve
Tree
p432
(dp433
g7
(imyEvolve
Tree
p434
(dp435
g10
I1
sg11
(imyEvolve
Tree
p436
(dp437
g10
I0
sg18
I00
sbsg23
(imyEvolve
Tree
p438
(dp439
g10
I0
sg18
I00
sbsg19
I00
sg20
g32
sbsg10
I2
sg19
I01
sg20
g21
sbsg19
I00
sg20
g40
sbsg23
(imyEvolve
Tree
p440
(dp441
g7
(imyEvolve
Tree
p442
(dp443
g10
I2
sg11
(imyEvolve
Tree
p444
(dp445
g7
(imyEvolve
Tree
p446
(dp447
g10
I0
sg18
I00
sbsg10
I1
sg19
I01
sg20
g22
sbsg23
(imyEvolve
Tree
p448
(dp449
g10
I1
sg11
(imyEvolve
Tree
p450
(dp451
g10
I0
sg37
F-3.2154591034747493
sg18
I01
sbsg23
(imyEvolve
Tree
p452
(dp453
g10
I0
sg37
F2.9918863412006687
sg18
I01
sbsg19
I00
sg20
g40
sbsg19
I00
sg20
g40
sbsg10
I3
sg19
I01
sg20
g41
sbsg19
I00
sg20
g40
sbaa(lp454
(imyEvolve
Tree
p455
(dp456
g7
(imyEvolve
Tree
p457
(dp458
g11
(imyEvolve
Tree
p459
(dp460
g10
I0
sg37
F-4.845945771346235
sg18
I01
sbsg10
I1
sg23
(imyEvolve
Tree
p461
(dp462
g10
I0
sg37
F-2.649149601009241
sg18
I01
sbsg19
I00
sg20
g61
sbsg10
I2
sg19
I01
sg20
g52
sba(imyEvolve
Tree
p463
(dp464
g11
(imyEvolve
Tree
p465
(dp466
g7
(imyEvolve
Tree
p467
(dp468
g10
I0
sg37
F-1.2821020582512679
sg18
I01
sbsg10
I1
sg19
I01
sg20
g41
sbsg10
I2
sg23
(imyEvolve
Tree
p469
(dp470
g11
(imyEvolve
Tree
p471
(dp472
g10
I0
sg18
I00
sbsg10
I1
sg23
(imyEvolve
Tree
p473
(dp474
g10
I0
sg18
I00
sbsg19
I00
sg20
g61
sbsg19
I00
sg20
g32
sba(imyEvolve
Tree
p475
(dp476
g11
(imyEvolve
Tree
p477
(dp478
g7
(imyEvolve
Tree
p479
(dp480
g11
(imyEvolve
Tree
p481
(dp482
g7
(imyEvolve
Tree
p483
(dp484
g7
(imyEvolve
Tree
p485
(dp486
g10
I0
sg37
F-2.938164790465466
sg18
I01
sbsg10
I1
sg19
I01
sg20
g52
sbsg10
I2
sg19
I01
sg20
g52
sbsg10
I3
sg23
(imyEvolve
Tree
p487
(dp488
g11
(imyEvolve
Tree
p489
(dp490
g11
(imyEvolve
Tree
p491
(dp492
g10
I0
sg18
I00
sbsg10
I1
sg23
(imyEvolve
Tree
p493
(dp494
g10
I0
sg18
I00
sbsg19
I00
sg20
g32
sbsg10
I2
sg23
(imyEvolve
Tree
p495
(dp496
g11
(imyEvolve
Tree
p497
(dp498
g10
I0
sg18
I00
sbsg10
I1
sg23
(imyEvolve
Tree
p499
(dp500
g10
I0
sg37
F1.4930045785161639
sg18
I01
sbsg19
I00
sg20
g40
sbsg19
I00
sg20
g61
sbsg19
I00
sg20
g61
sbsg10
I4
sg19
I01
sg20
g22
sbsg10
I5
sg23
(imyEvolve
Tree
p501
(dp502
g11
(imyEvolve
Tree
p503
(dp504
g11
(imyEvolve
Tree
p505
(dp506
g11
(imyEvolve
Tree
p507
(dp508
g11
(imyEvolve
Tree
p509
(dp510
g10
I0
sg18
I00
sbsg10
I1
sg23
(imyEvolve
Tree
p511
(dp512
g10
I0
sg37
F-1.332231302334356
sg18
I01
sbsg19
I00
sg20
g32
sbsg10
I2
sg23
(imyEvolve
Tree
p513
(dp514
g7
(imyEvolve
Tree
p515
(dp516
g10
I0
sg18
I00
sbsg10
I1
sg19
I01
sg20
g41
sbsg19
I00
sg20
g32
sbsg10
I3
sg23
(imyEvolve
Tree
p517
(dp518
g7
(imyEvolve
Tree
p519
(dp520
g7
(imyEvolve
Tree
p521
(dp522
g10
I0
sg37
F3.7326041807392603
sg18
I01
sbsg10
I1
sg19
I01
sg20
g21
sbsg10
I2
sg19
I01
sg20
g21
sbsg19
I00
sg20
g61
sbsg10
I4
sg23
(imyEvolve
Tree
p523
(dp524
g7
(imyEvolve
Tree
p525
(dp526
g11
(imyEvolve
Tree
p527
(dp528
g11
(imyEvolve
Tree
p529
(dp530
g10
I0
sg37
F4.527674165386712
sg18
I01
sbsg10
I1
sg23
(imyEvolve
Tree
p531
(dp532
g10
I0
sg37
F-2.2994389364527414
sg18
I01
sbsg19
I00
sg20
g61
sbsg10
I2
sg23
(imyEvolve
Tree
p533
(dp534
g11
(imyEvolve
Tree
p535
(dp536
g10
I0
sg37
F-2.2359464661349406
sg18
I01
sbsg10
I1
sg23
(imyEvolve
Tree
p537
(dp538
g10
I0
sg37
F4.730216095558525
sg18
I01
sbsg19
I00
sg20
g61
sbsg19
I00
sg20
g40
sbsg10
I3
sg19
I01
sg20
g22
sbsg19
I00
sg20
g32
sbsg19
I00
sg20
g61
sba(imyEvolve
Tree
p539
(dp540
g7
(imyEvolve
Tree
p541
(dp542
g7
(imyEvolve
Tree
p543
(dp544
g10
I2
sg11
(imyEvolve
Tree
p545
(dp546
g7
(imyEvolve
Tree
p547
(dp548
g10
I0
sg18
I00
sbsg10
I1
sg19
I01
sg20
g41
sbsg23
(imyEvolve
Tree
p549
(dp550
g10
I1
sg11
(imyEvolve
Tree
p551
(dp552
g10
I0
sg37
F0.5183600535571014
sg18
I01
sbsg23
(imyEvolve
Tree
p553
(dp554
g10
I0
sg37
F-3.679832949119409
sg18
I01
sbsg19
I00
sg20
g32
sbsg19
I00
sg20
g61
sbsg10
I3
sg19
I01
sg20
g41
sbsg10
I4
sg19
I01
sg20
g21
sba(imyEvolve
Tree
p555
(dp556
g7
(imyEvolve
Tree
p557
(dp558
g11
(imyEvolve
Tree
p559
(dp560
g7
(imyEvolve
Tree
p561
(dp562
g10
I0
sg18
I00
sbsg10
I1
sg19
I01
sg20
g52
sbsg10
I2
sg23
(imyEvolve
Tree
p563
(dp564
g11
(imyEvolve
Tree
p565
(dp566
g10
I0
sg37
F-2.700757692288296
sg18
I01
sbsg10
I1
sg23
(imyEvolve
Tree
p567
(dp568
g10
I0
sg37
F-2.4673139301749893
sg18
I01
sbsg19
I00
sg20
g61
sbsg19
I00
sg20
g40
sbsg10
I3
sg19
I01
sg20
g41
sba(imyEvolve
Tree
p569
(dp570
g7
(imyEvolve
Tree
p571
(dp572
g7
(imyEvolve
Tree
p573
(dp574
g10
I3
sg11
(imyEvolve
Tree
p575
(dp576
g10
I2
sg11
(imyEvolve
Tree
p577
(dp578
g7
(imyEvolve
Tree
p579
(dp580
g10
I0
sg18
I00
sbsg10
I1
sg19
I01
sg20
g21
sbsg23
(imyEvolve
Tree
p581
(dp582
g10
I1
sg11
(imyEvolve
Tree
p583
(dp584
g10
I0
sg18
I00
sbsg23
(imyEvolve
Tree
p585
(dp586
g10
I0
sg18
I00
sbsg19
I00
sg20
g61
sbsg19
I00
sg20
g61
sbsg23
(imyEvolve
Tree
p587
(dp588
g7
(imyEvolve
Tree
p589
(dp590
g10
I1
sg11
(imyEvolve
Tree
p591
(dp592
g10
I0
sg18
I00
sbsg23
(imyEvolve
Tree
p593
(dp594
g10
I0
sg37
F-3.2739855075084545
sg18
I01
sbsg19
I00
sg20
g61
sbsg10
I2
sg19
I01
sg20
g21
sbsg19
I00
sg20
g32
sbsg10
I4
sg19
I01
sg20
g52
sbsg10
I5
sg19
I01
sg20
g22
sba(imyEvolve
Tree
p595
(dp596
g7
(imyEvolve
Tree
p597
(dp598
g7
(imyEvolve
Tree
p599
(dp600
g10
I0
sg18
I00
sbsg10
I1
sg19
I01
sg20
g22
sbsg10
I2
sg19
I01
sg20
g41
sba(imyEvolve
Tree
p601
(dp602
g11
(imyEvolve
Tree
p603
(dp604
g7
(imyEvolve
Tree
p605
(dp606
g11
(imyEvolve
Tree
p607
(dp608
g7
(imyEvolve
Tree
p609
(dp610
g10
I0
sg37
F-1.993995144124523
sg18
I01
sbsg10
I1
sg19
I01
sg20
g52
sbsg10
I2
sg23
(imyEvolve
Tree
p611
(dp612
g11
(imyEvolve
Tree
p613
(dp614
g10
I0
sg18
I00
sbsg10
I1
sg23
(imyEvolve
Tree
p615
(dp616
g10
I0
sg37
F-1.8928996244504734
sg18
I01
sbsg19
I00
sg20
g40
sbsg19
I00
sg20
g40
sbsg10
I3
sg19
I01
sg20
g41
sbsg10
I4
sg23
(imyEvolve
Tree
p617
(dp618
g11
(imyEvolve
Tree
p619
(dp620
g7
(imyEvolve
Tree
p621
(dp622
g7
(imyEvolve
Tree
p623
(dp624
g10
I0
sg18
I00
sbsg10
I1
sg19
I01
sg20
g41
sbsg10
I2
sg19
I01
sg20
g52
sbsg10
I3
sg23
(imyEvolve
Tree
p625
(dp626
g11
(imyEvolve
Tree
p627
(dp628
g11
(imyEvolve
Tree
p629
(dp630
g10
I0
sg37
F3.777299811553508
sg18
I01
sbsg10
I1
sg23
(imyEvolve
Tree
p631
(dp632
g10
I0
sg18
I00
sbsg19
I00
sg20
g40
sbsg10
I2
sg23
(imyEvolve
Tree
p633
(dp634
g11
(imyEvolve
Tree
p635
(dp636
g10
I0
sg37
F4.863781896011993
sg18
I01
sbsg10
I1
sg23
(imyEvolve
Tree
p637
(dp638
g10
I0
sg37
F2.366546521035514
sg18
I01
sbsg19
I00
sg20
g61
sbsg19
I00
sg20
g40
sbsg19
I00
sg20
g61
sbsg19
I00
sg20
g40
sba(imyEvolve
Tree
p639
(dp640
g7
(imyEvolve
Tree
p641
(dp642
g11
(imyEvolve
Tree
p643
(dp644
g11
(imyEvolve
Tree
p645
(dp646
g10
I0
sg18
I00
sbsg10
I1
sg23
(imyEvolve
Tree
p647
(dp648
g10
I0
sg18
I00
sbsg19
I00
sg20
g32
sbsg10
I2
sg23
(imyEvolve
Tree
p649
(dp650
g7
(imyEvolve
Tree
p651
(dp652
g10
I0
sg18
I00
sbsg10
I1
sg19
I01
sg20
g21
sbsg19
I00
sg20
g32
sbsg10
I3
sg19
I01
sg20
g22
sba(imyEvolve
Tree
p653
(dp654
g11
(imyEvolve
Tree
p655
(dp656
g11
(imyEvolve
Tree
p657
(dp658
g7
(imyEvolve
Tree
p659
(dp660
g11
(imyEvolve
Tree
p661
(dp662
g10
I0
sg37
F1.0119587020304497
sg18
I01
sbsg10
I1
sg23
(imyEvolve
Tree
p663
(dp664
g10
I0
sg37
F-4.336403324092059
sg18
I01
sbsg19
I00
sg20
g32
sbsg10
I2
sg19
I01
sg20
g41
sbsg10
I3
sg23
(imyEvolve
Tree
p665
(dp666
g7
(imyEvolve
Tree
p667
(dp668
g7
(imyEvolve
Tree
p669
(dp670
g10
I0
sg37
F4.287819345291265
sg18
I01
sbsg10
I1
sg19
I01
sg20
g52
sbsg10
I2
sg19
I01
sg20
g22
sbsg19
I00
sg20
g40
sbsg10
I4
sg23
(imyEvolve
Tree
p671
(dp672
g11
(imyEvolve
Tree
p673
(dp674
g11
(imyEvolve
Tree
p675
(dp676
g7
(imyEvolve
Tree
p677
(dp678
g10
I0
sg37
F-1.174851890815357
sg18
I01
sbsg10
I1
sg19
I01
sg20
g41
sbsg10
I2
sg23
(imyEvolve
Tree
p679
(dp680
g11
(imyEvolve
Tree
p681
(dp682
g10
I0
sg37
F4.544790417446032
sg18
I01
sbsg10
I1
sg23
(imyEvolve
Tree
p683
(dp684
g10
I0
sg37
F3.0250695198739503
sg18
I01
sbsg19
I00
sg20
g40
sbsg19
I00
sg20
g40
sbsg10
I3
sg23
(imyEvolve
Tree
p685
(dp686
g11
(imyEvolve
Tree
p687
(dp688
g11
(imyEvolve
Tree
p689
(dp690
g10
I0
sg37
F1.4573477107424608
sg18
I01
sbsg10
I1
sg23
(imyEvolve
Tree
p691
(dp692
g10
I0
sg37
F-1.55539114555412
sg18
I01
sbsg19
I00
sg20
g40
sbsg10
I2
sg23
(imyEvolve
Tree
p693
(dp694
g7
(imyEvolve
Tree
p695
(dp696
g10
I0
sg18
I00
sbsg10
I1
sg19
I01
sg20
g41
sbsg19
I00
sg20
g61
sbsg19
I00
sg20
g40
sbsg19
I00
sg20
g40
sba(imyEvolve
Tree
p697
(dp698
g11
(imyEvolve
Tree
p699
(dp700
g7
(imyEvolve
Tree
p701
(dp702
g7
(imyEvolve
Tree
p703
(dp704
g10
I0
sg37
F1.6929408264421202
sg18
I01
sbsg10
I1
sg19
I01
sg20
g21
sbsg10
I2
sg19
I01
sg20
g41
sbsg10
I3
sg23
(imyEvolve
Tree
p705
(dp706
g7
(imyEvolve
Tree
p707
(dp708
g7
(imyEvolve
Tree
p709
(dp710
g10
I0
sg37
F2.6007867663599926
sg18
I01
sbsg10
I1
sg19
I01
sg20
g52
sbsg10
I2
sg19
I01
sg20
g52
sbsg19
I00
sg20
g61
sba(imyEvolve
Tree
p711
(dp712
g7
(imyEvolve
Tree
p713
(dp714
g11
(imyEvolve
Tree
p715
(dp716
g11
(imyEvolve
Tree
p717
(dp718
g10
I0
sg37
F-0.41532056258376926
sg18
I01
sbsg10
I1
sg23
(imyEvolve
Tree
p719
(dp720
g10
I0
sg18
I00
sbsg19
I00
sg20
g40
sbsg10
I2
sg23
(imyEvolve
Tree
p721
(dp722
g7
(imyEvolve
Tree
p723
(dp724
g10
I0
sg37
F0.45881118724903125
sg18
I01
sbsg10
I1
sg19
I01
sg20
g21
sbsg19
I00
sg20
g40
sbsg10
I3
sg19
I01
sg20
g21
sba(imyEvolve
Tree
p725
(dp726
g7
(imyEvolve
Tree
p727
(dp728
g10
I1
sg11
(imyEvolve
Tree
p729
(dp730
g10
I0
sg37
F-2.4402359732155245
sg18
I01
sbsg23
(imyEvolve
Tree
p731
(dp732
g10
I0
sg18
I00
sbsg19
I00
sg20
g61
sbsg10
I2
sg19
I01
sg20
g21
sbaa(lp733
(imyEvolve
Tree
p734
(dp735
g7
(imyEvolve
Tree
p736
(dp737
g7
(imyEvolve
Tree
p738
(dp739
g10
I0
sg37
F0.9482722170937565
sg18
I01
sbsg10
I1
sg19
I01
sg20
g41
sbsg10
I2
sg19
I01
sg20
g41
sba(imyEvolve
Tree
p740
(dp741
g10
I3
sg11
(imyEvolve
Tree
p742
(dp743
g10
I2
sg11
(imyEvolve
Tree
p744
(dp745
g10
I1
sg11
(imyEvolve
Tree
p746
(dp747
g10
I0
sg18
I00
sbsg23
(imyEvolve
Tree
p748
(dp749
g10
I0
sg18
I00
sbsg19
I00
sg20
g61
sbsg23
(imyEvolve
Tree
p750
(dp751
g7
(imyEvolve
Tree
p752
(dp753
g10
I0
sg37
F-3.352760325591274
sg18
I01
sbsg10
I1
sg19
I01
sg20
g22
sbsg19
I00
sg20
g40
sbsg23
(imyEvolve
Tree
p754
(dp755
g10
I2
sg11
(imyEvolve
Tree
p756
(dp757
g7
(imyEvolve
Tree
p758
(dp759
g10
I0
sg37
F3.134521121390158
sg18
I01
sbsg10
I1
sg19
I01
sg20
g52
sbsg23
(imyEvolve
Tree
p760
(dp761
g7
(imyEvolve
Tree
p762
(dp763
g10
I0
sg37
F3.858547961103099
sg18
I01
sbsg10
I1
sg19
I01
sg20
g41
sbsg19
I00
sg20
g40
sbsg19
I00
sg20
g40
sba(imyEvolve
Tree
p764
(dp765
g7
(imyEvolve
Tree
p766
(dp767
g10
I1
sg11
(imyEvolve
Tree
p768
(dp769
g10
I0
sg18
I00
sbsg23
(imyEvolve
Tree
p770
(dp771
g10
I0
sg37
F-4.788467620861844
sg18
I01
sbsg19
I00
sg20
g32
sbsg10
I2
sg19
I01
sg20
g22
sba(imyEvolve
Tree
p772
(dp773
g7
(imyEvolve
Tree
p774
(dp775
g10
I1
sg11
(imyEvolve
Tree
p776
(dp777
g10
I0
sg37
F-3.0472131142878878
sg18
I01
sbsg23
(imyEvolve
Tree
p778
(dp779
g10
I0
sg18
I00
sbsg19
I00
sg20
g61
sbsg10
I2
sg19
I01
sg20
g52
sba(imyEvolve
Tree
p780
(dp781
g7
(imyEvolve
Tree
p782
(dp783
g7
(imyEvolve
Tree
p784
(dp785
g10
I2
sg11
(imyEvolve
Tree
p786
(dp787
g10
I1
sg11
(imyEvolve
Tree
p788
(dp789
g10
I0
sg18
I00
sbsg23
(imyEvolve
Tree
p790
(dp791
g10
I0
sg37
F-1.0868293947595875
sg18
I01
sbsg19
I00
sg20
g40
sbsg23
(imyEvolve
Tree
p792
(dp793
g10
I1
sg11
(imyEvolve
Tree
p794
(dp795
g10
I0
sg18
I00
sbsg23
(imyEvolve
Tree
p796
(dp797
g10
I0
sg18
I00
sbsg19
I00
sg20
g40
sbsg19
I00
sg20
g40
sbsg10
I3
sg19
I01
sg20
g21
sbsg10
I4
sg19
I01
sg20
g52
sba(imyEvolve
Tree
p798
(dp799
g7
(imyEvolve
Tree
p800
(dp801
g11
(imyEvolve
Tree
p802
(dp803
g11
(imyEvolve
Tree
p804
(dp805
g10
I0
sg37
F-0.1894346779309375
sg18
I01
sbsg10
I1
sg23
(imyEvolve
Tree
p806
(dp807
g10
I0
sg37
F-1.372944929387189
sg18
I01
sbsg19
I00
sg20
g32
sbsg10
I2
sg23
(imyEvolve
Tree
p808
(dp809
g7
(imyEvolve
Tree
p810
(dp811
g10
I0
sg37
F-4.510334855593234
sg18
I01
sbsg10
I1
sg19
I01
sg20
g41
sbsg19
I00
sg20
g40
sbsg10
I3
sg19
I01
sg20
g21
sba(imyEvolve
Tree
p812
(dp813
g7
(imyEvolve
Tree
p814
(dp815
g7
(imyEvolve
Tree
p816
(dp817
g7
(imyEvolve
Tree
p818
(dp819
g10
I1
sg11
(imyEvolve
Tree
p820
(dp821
g10
I0
sg37
F0.020632798456439616
sg18
I01
sbsg23
(imyEvolve
Tree
p822
(dp823
g10
I0
sg18
I00
sbsg19
I00
sg20
g40
sbsg10
I2
sg19
I01
sg20
g41
sbsg10
I3
sg19
I01
sg20
g41
sbsg10
I4
sg19
I01
sg20
g21
sba(imyEvolve
Tree
p824
(dp825
g10
I3
sg11
(imyEvolve
Tree
p826
(dp827
g7
(imyEvolve
Tree
p828
(dp829
g10
I1
sg11
(imyEvolve
Tree
p830
(dp831
g10
I0
sg18
I00
sbsg23
(imyEvolve
Tree
p832
(dp833
g10
I0
sg18
I00
sbsg19
I00
sg20
g61
sbsg10
I2
sg19
I01
sg20
g22
sbsg23
(imyEvolve
Tree
p834
(dp835
g7
(imyEvolve
Tree
p836
(dp837
g10
I1
sg11
(imyEvolve
Tree
p838
(dp839
g10
I0
sg18
I00
sbsg23
(imyEvolve
Tree
p840
(dp841
g10
I0
sg37
F4.310225483036245
sg18
I01
sbsg19
I00
sg20
g61
sbsg10
I2
sg19
I01
sg20
g41
sbsg19
I00
sg20
g40
sba(imyEvolve
Tree
p842
(dp843
g10
I3
sg11
(imyEvolve
Tree
p844
(dp845
g7
(imyEvolve
Tree
p846
(dp847
g7
(imyEvolve
Tree
p848
(dp849
g10
I0
sg18
I00
sbsg10
I1
sg19
I01
sg20
g52
sbsg10
I2
sg19
I01
sg20
g22
sbsg23
(imyEvolve
Tree
p850
(dp851
g10
I2
sg11
(imyEvolve
Tree
p852
(dp853
g10
I1
sg11
(imyEvolve
Tree
p854
(dp855
g10
I0
sg37
F-1.4947211760280954
sg18
I01
sbsg23
(imyEvolve
Tree
p856
(dp857
g10
I0
sg37
F3.8481607132016666
sg18
I01
sbsg19
I00
sg20
g32
sbsg23
(imyEvolve
Tree
p858
(dp859
g10
I1
sg11
(imyEvolve
Tree
p860
(dp861
g10
I0
sg37
F0.9203465091644061
sg18
I01
sbsg23
(imyEvolve
Tree
p862
(dp863
g10
I0
sg37
F0.7974687418169548
sg18
I01
sbsg19
I00
sg20
g40
sbsg19
I00
sg20
g32
sbsg19
I00
sg20
g40
sba(imyEvolve
Tree
p864
(dp865
g11
(imyEvolve
Tree
p866
(dp867
g11
(imyEvolve
Tree
p868
(dp869
g7
(imyEvolve
Tree
p870
(dp871
g7
(imyEvolve
Tree
p872
(dp873
g10
I0
sg18
I00
sbsg10
I1
sg19
I01
sg20
g41
sbsg10
I2
sg19
I01
sg20
g21
sbsg10
I3
sg23
(imyEvolve
Tree
p874
(dp875
g11
(imyEvolve
Tree
p876
(dp877
g7
(imyEvolve
Tree
p878
(dp879
g10
I0
sg18
I00
sbsg10
I1
sg19
I01
sg20
g52
sbsg10
I2
sg23
(imyEvolve
Tree
p880
(dp881
g11
(imyEvolve
Tree
p882
(dp883
g10
I0
sg37
F0.5166643911859676
sg18
I01
sbsg10
I1
sg23
(imyEvolve
Tree
p884
(dp885
g10
I0
sg37
F2.545024982440367
sg18
I01
sbsg19
I00
sg20
g40
sbsg19
I00
sg20
g61
sbsg19
I00
sg20
g40
sbsg10
I4
sg23
(imyEvolve
Tree
p886
(dp887
g7
(imyEvolve
Tree
p888
(dp889
g11
(imyEvolve
Tree
p890
(dp891
g11
(imyEvolve
Tree
p892
(dp893
g10
I0
sg37
F3.0789206330565637
sg18
I01
sbsg10
I1
sg23
(imyEvolve
Tree
p894
(dp895
g10
I0
sg37
F0.5934033040547746
sg18
I01
sbsg19
I00
sg20
g40
sbsg10
I2
sg23
(imyEvolve
Tree
p896
(dp897
g7
(imyEvolve
Tree
p898
(dp899
g10
I0
sg18
I00
sbsg10
I1
sg19
I01
sg20
g22
sbsg19
I00
sg20
g40
sbsg10
I3
sg19
I01
sg20
g22
sbsg19
I00
sg20
g40
sba(imyEvolve
Tree
p900
(dp901
g10
I4
sg11
(imyEvolve
Tree
p902
(dp903
g7
(imyEvolve
Tree
p904
(dp905
g7
(imyEvolve
Tree
p906
(dp907
g7
(imyEvolve
Tree
p908
(dp909
g10
I0
sg37
F-3.346779731629984
sg18
I01
sbsg10
I1
sg19
I01
sg20
g41
sbsg10
I2
sg19
I01
sg20
g22
sbsg10
I3
sg19
I01
sg20
g21
sbsg23
(imyEvolve
Tree
p910
(dp911
g10
I3
sg11
(imyEvolve
Tree
p912
(dp913
g7
(imyEvolve
Tree
p914
(dp915
g7
(imyEvolve
Tree
p916
(dp917
g10
I0
sg37
F-0.8222326133333713
sg18
I01
sbsg10
I1
sg19
I01
sg20
g41
sbsg10
I2
sg19
I01
sg20
g21
sbsg23
(imyEvolve
Tree
p918
(dp919
g10
I2
sg11
(imyEvolve
Tree
p920
(dp921
g10
I1
sg11
(imyEvolve
Tree
p922
(dp923
g10
I0
sg37
F4.217764537052954
sg18
I01
sbsg23
(imyEvolve
Tree
p924
(dp925
g10
I0
sg18
I00
sbsg19
I00
sg20
g40
sbsg23
(imyEvolve
Tree
p926
(dp927
g10
I1
sg11
(imyEvolve
Tree
p928
(dp929
g10
I0
sg37
F2.4832095844445945
sg18
I01
sbsg23
(imyEvolve
Tree
p930
(dp931
g10
I0
sg18
I00
sbsg19
I00
sg20
g61
sbsg19
I00
sg20
g61
sbsg19
I00
sg20
g61
sbsg19
I00
sg20
g32
sba(imyEvolve
Tree
p932
(dp933
g11
(imyEvolve
Tree
p934
(dp935
g11
(imyEvolve
Tree
p936
(dp937
g7
(imyEvolve
Tree
p938
(dp939
g11
(imyEvolve
Tree
p940
(dp941
g11
(imyEvolve
Tree
p942
(dp943
g10
I0
sg37
F-0.9314163753962585
sg18
I01
sbsg10
I1
sg23
(imyEvolve
Tree
p944
(dp945
g10
I0
sg18
I00
sbsg19
I00
sg20
g61
sbsg10
I2
sg23
(imyEvolve
Tree
p946
(dp947
g11
(imyEvolve
Tree
p948
(dp949
g10
I0
sg18
I00
sbsg10
I1
sg23
(imyEvolve
Tree
p950
(dp951
g10
I0
sg18
I00
sbsg19
I00
sg20
g32
sbsg19
I00
sg20
g61
sbsg10
I3
sg19
I01
sg20
g52
sbsg10
I4
sg23
(imyEvolve
Tree
p952
(dp953
g11
(imyEvolve
Tree
p954
(dp955
g11
(imyEvolve
Tree
p956
(dp957
g7
(imyEvolve
Tree
p958
(dp959
g10
I0
sg18
I00
sbsg10
I1
sg19
I01
sg20
g41
sbsg10
I2
sg23
(imyEvolve
Tree
p960
(dp961
g7
(imyEvolve
Tree
p962
(dp963
g10
I0
sg18
I00
sbsg10
I1
sg19
I01
sg20
g41
sbsg19
I00
sg20
g61
sbsg10
I3
sg23
(imyEvolve
Tree
p964
(dp965
g7
(imyEvolve
Tree
p966
(dp967
g7
(imyEvolve
Tree
p968
(dp969
g10
I0
sg37
F4.468926905194827
sg18
I01
sbsg10
I1
sg19
I01
sg20
g22
sbsg10
I2
sg19
I01
sg20
g52
sbsg19
I00
sg20
g32
sbsg19
I00
sg20
g61
sbsg10
I5
sg23
(imyEvolve
Tree
p970
(dp971
g7
(imyEvolve
Tree
p972
(dp973
g11
(imyEvolve
Tree
p974
(dp975
g7
(imyEvolve
Tree
p976
(dp977
g7
(imyEvolve
Tree
p978
(dp979
g10
I0
sg18
I00
sbsg10
I1
sg19
I01
sg20
g21
sbsg10
I2
sg19
I01
sg20
g22
sbsg10
I3
sg23
(imyEvolve
Tree
p980
(dp981
g7
(imyEvolve
Tree
p982
(dp983
g7
(imyEvolve
Tree
p984
(dp985
g10
I0
sg18
I00
sbsg10
I1
sg19
I01
sg20
g41
sbsg10
I2
sg19
I01
sg20
g41
sbsg19
I00
sg20
g61
sbsg10
I4
sg19
I01
sg20
g41
sbsg19
I00
sg20
g40
sba(imyEvolve
Tree
p986
(dp987
g11
(imyEvolve
Tree
p988
(dp989
g7
(imyEvolve
Tree
p990
(dp991
g7
(imyEvolve
Tree
p992
(dp993
g11
(imyEvolve
Tree
p994
(dp995
g10
I0
sg18
I00
sbsg10
I1
sg23
(imyEvolve
Tree
p996
(dp997
g10
I0
sg18
I00
sbsg19
I00
sg20
g40
sbsg10
I2
sg19
I01
sg20
g21
sbsg10
I3
sg19
I01
sg20
g41
sbsg10
I4
sg23
(imyEvolve
Tree
p998
(dp999
g7
(imyEvolve
Tree
p1000
(dp1001
g11
(imyEvolve
Tree
p1002
(dp1003
g7
(imyEvolve
Tree
p1004
(dp1005
g10
I0
sg37
F-3.5315738430803103
sg18
I01
sbsg10
I1
sg19
I01
sg20
g21
sbsg10
I2
sg23
(imyEvolve
Tree
p1006
(dp1007
g7
(imyEvolve
Tree
p1008
(dp1009
g10
I0
sg18
I00
sbsg10
I1
sg19
I01
sg20
g21
sbsg19
I00
sg20
g40
sbsg10
I3
sg19
I01
sg20
g52
sbsg19
I00
sg20
g32
sba(imyEvolve
Tree
p1010
(dp1011
g7
(imyEvolve
Tree
p1012
(dp1013
g11
(imyEvolve
Tree
p1014
(dp1015
g7
(imyEvolve
Tree
p1016
(dp1017
g10
I0
sg18
I00
sbsg10
I1
sg19
I01
sg20
g52
sbsg10
I2
sg23
(imyEvolve
Tree
p1018
(dp1019
g11
(imyEvolve
Tree
p1020
(dp1021
g10
I0
sg18
I00
sbsg10
I1
sg23
(imyEvolve
Tree
p1022
(dp1023
g10
I0
sg37
F-3.74351143126301
sg18
I01
sbsg19
I00
sg20
g61
sbsg19
I00
sg20
g61
sbsg10
I3
sg19
I01
sg20
g21
sba(imyEvolve
Tree
p1024
(dp1025
g7
(imyEvolve
Tree
p1026
(dp1027
g7
(imyEvolve
Tree
p1028
(dp1029
g11
(imyEvolve
Tree
p1030
(dp1031
g10
I0
sg37
F-0.3723743554197121
sg18
I01
sbsg10
I1
sg23
(imyEvolve
Tree
p1032
(dp1033
g10
I0
sg37
F-3.974977288558379
sg18
I01
sbsg19
I00
sg20
g61
sbsg10
I2
sg19
I01
sg20
g41
sbsg10
I3
sg19
I01
sg20
g52
sba(imyEvolve
Tree
p1034
(dp1035
g10
I5
sg11
(imyEvolve
Tree
p1036
(dp1037
g10
I4
sg11
(imyEvolve
Tree
p1038
(dp1039
g7
(imyEvolve
Tree
p1040
(dp1041
g10
I2
sg11
(imyEvolve
Tree
p1042
(dp1043
g10
I1
sg11
(imyEvolve
Tree
p1044
(dp1045
g10
I0
sg18
I00
sbsg23
(imyEvolve
Tree
p1046
(dp1047
g10
I0
sg37
F4.181480736734496
sg18
I01
sbsg19
I00
sg20
g61
sbsg23
(imyEvolve
Tree
p1048
(dp1049
g10
I1
sg11
(imyEvolve
Tree
p1050
(dp1051
g10
I0
sg18
I00
sbsg23
(imyEvolve
Tree
p1052
(dp1053
g10
I0
sg37
F3.532730317407541
sg18
I01
sbsg19
I00
sg20
g61
sbsg19
I00
sg20
g32
sbsg10
I3
sg19
I01
sg20
g41
sbsg23
(imyEvolve
Tree
p1054
(dp1055
g10
I3
sg11
(imyEvolve
Tree
p1056
(dp1057
g10
I2
sg11
(imyEvolve
Tree
p1058
(dp1059
g7
(imyEvolve
Tree
p1060
(dp1061
g10
I0
sg37
F0.08361234896353409
sg18
I01
sbsg10
I1
sg19
I01
sg20
g41
sbsg23
(imyEvolve
Tree
p1062
(dp1063
g7
(imyEvolve
Tree
p1064
(dp1065
g10
I0
sg18
I00
sbsg10
I1
sg19
I01
sg20
g22
sbsg19
I00
sg20
g61
sbsg23
(imyEvolve
Tree
p1066
(dp1067
g10
I2
sg11
(imyEvolve
Tree
p1068
(dp1069
g7
(imyEvolve
Tree
p1070
(dp1071
g10
I0
sg37
F0.19981205364920918
sg18
I01
sbsg10
I1
sg19
I01
sg20
g21
sbsg23
(imyEvolve
Tree
p1072
(dp1073
g10
I1
sg11
(imyEvolve
Tree
p1074
(dp1075
g10
I0
sg37
F3.6486957907410282
sg18
I01
sbsg23
(imyEvolve
Tree
p1076
(dp1077
g10
I0
sg18
I00
sbsg19
I00
sg20
g61
sbsg19
I00
sg20
g61
sbsg19
I00
sg20
g40
sbsg19
I00
sg20
g61
sbsg23
(imyEvolve
Tree
p1078
(dp1079
g10
I4
sg11
(imyEvolve
Tree
p1080
(dp1081
g7
(imyEvolve
Tree
p1082
(dp1083
g10
I2
sg11
(imyEvolve
Tree
p1084
(dp1085
g7
(imyEvolve
Tree
p1086
(dp1087
g10
I0
sg37
F-2.6636580439371835
sg18
I01
sbsg10
I1
sg19
I01
sg20
g52
sbsg23
(imyEvolve
Tree
p1088
(dp1089
g7
(imyEvolve
Tree
p1090
(dp1091
g10
I0
sg18
I00
sbsg10
I1
sg19
I01
sg20
g22
sbsg19
I00
sg20
g61
sbsg10
I3
sg19
I01
sg20
g41
sbsg23
(imyEvolve
Tree
p1092
(dp1093
g10
I3
sg11
(imyEvolve
Tree
p1094
(dp1095
g7
(imyEvolve
Tree
p1096
(dp1097
g7
(imyEvolve
Tree
p1098
(dp1099
g10
I0
sg18
I00
sbsg10
I1
sg19
I01
sg20
g22
sbsg10
I2
sg19
I01
sg20
g22
sbsg23
(imyEvolve
Tree
p1100
(dp1101
g7
(imyEvolve
Tree
p1102
(dp1103
g7
(imyEvolve
Tree
p1104
(dp1105
g10
I0
sg37
F4.045580690329462
sg18
I01
sbsg10
I1
sg19
I01
sg20
g52
sbsg10
I2
sg19
I01
sg20
g41
sbsg19
I00
sg20
g32
sbsg19
I00
sg20
g40
sbsg19
I00
sg20
g40
sbaasS'alpha'
p1106
F0.0012068478921166473
sS'fitness'
p1107
cnumpy.core.multiarray
scalar
p1108
(cnumpy
dtype
p1109
(S'f8'
p1110
I0
I1
tp1111
Rp1112
(I3
S'<'
p1113
NNNI-1
I-1
I0
tp1114
bS'\xf2\xb0P\xd4\xf1\x1c\xe6?'
p1115
tp1116
Rp1117
sS'weightSharing'
p1118
(lp1119
I01
asS'fitnessValid'
p1120
I00
sS'resolution'
p1121
I78
sb.