(imyEvolve
Individual
p0
(dp1
S'funcs'
p2
(lp3
(lp4
(imyEvolve
Tree
p5
(dp6
S'left'
p7
(imyEvolve
Tree
p8
(dp9
S'below'
p10
(imyEvolve
Tree
p11
(dp12
S'depth'
p13
I0
sS'isConstant'
p14
I00
sbsg13
I1
sS'single'
p15
I01
sS'op'
p16
cmyEvolve
square
p17
sbsg13
I2
sS'right'
p18
(imyEvolve
Tree
p19
(dp20
g7
(imyEvolve
Tree
p21
(dp22
g13
I0
sS'constant'
p23
F-1.5327513289949044
sg14
I01
sbsg13
I1
sg18
(imyEvolve
Tree
p24
(dp25
g13
I0
sg23
F0.9729893646949375
sg14
I01
sbsg15
I00
sg16
coperator
mul
p26
sbsg15
I00
sg16
coperator
add
p27
sba(imyEvolve
Tree
p28
(dp29
g13
I5
sg7
(imyEvolve
Tree
p30
(dp31
g13
I4
sg7
(imyEvolve
Tree
p32
(dp33
g10
(imyEvolve
Tree
p34
(dp35
g13
I2
sg7
(imyEvolve
Tree
p36
(dp37
g13
I1
sg7
(imyEvolve
Tree
p38
(dp39
g13
I0
sg23
F-2.0587519800944163
sg14
I01
sbsg18
(imyEvolve
Tree
p40
(dp41
g13
I0
sg23
F-0.30039485236850627
sg14
I01
sbsg15
I00
sg16
coperator
sub
p42
sbsg18
(imyEvolve
Tree
p43
(dp44
g10
(imyEvolve
Tree
p45
(dp46
g13
I0
sg23
F4.218887286225517
sg14
I01
sbsg13
I1
sg15
I01
sg16
cmyEvolve
absSqrt
p47
sbsg15
I00
sg16
g42
sbsg13
I3
sg15
I01
sg16
cmath
cos
p48
sbsg18
(imyEvolve
Tree
p49
(dp50
g13
I3
sg7
(imyEvolve
Tree
p51
(dp52
g10
(imyEvolve
Tree
p53
(dp54
g10
(imyEvolve
Tree
p55
(dp56
g13
I0
sg14
I00
sbsg13
I1
sg15
I01
sg16
g17
sbsg13
I2
sg15
I01
sg16
cmath
sin
p57
sbsg18
(imyEvolve
Tree
p58
(dp59
g10
(imyEvolve
Tree
p60
(dp61
g13
I1
sg7
(imyEvolve
Tree
p62
(dp63
g13
I0
sg14
I00
sbsg18
(imyEvolve
Tree
p64
(dp65
g13
I0
sg23
F4.981031836715067
sg14
I01
sbsg15
I00
sg16
g26
sbsg13
I2
sg15
I01
sg16
g17
sbsg15
I00
sg16
g26
sbsg15
I00
sg16
g26
sbsg18
(imyEvolve
Tree
p66
(dp67
g10
(imyEvolve
Tree
p68
(dp69
g10
(imyEvolve
Tree
p70
(dp71
g10
(imyEvolve
Tree
p72
(dp73
g10
(imyEvolve
Tree
p74
(dp75
g13
I0
sg23
F-1.8370739959990203
sg14
I01
sbsg13
I1
sg15
I01
sg16
g17
sbsg13
I2
sg15
I01
sg16
g57
sbsg13
I3
sg15
I01
sg16
g47
sbsg13
I4
sg15
I01
sg16
g47
sbsg15
I00
sg16
g26
sba(imyEvolve
Tree
p76
(dp77
g10
(imyEvolve
Tree
p78
(dp79
g7
(imyEvolve
Tree
p80
(dp81
g7
(imyEvolve
Tree
p82
(dp83
g10
(imyEvolve
Tree
p84
(dp85
g13
I0
sg14
I00
sbsg13
I1
sg15
I01
sg16
g57
sbsg13
I2
sg18
(imyEvolve
Tree
p86
(dp87
g10
(imyEvolve
Tree
p88
(dp89
g13
I0
sg14
I00
sbsg13
I1
sg15
I01
sg16
g17
sbsg15
I00
sg16
g26
sbsg13
I3
sg18
(imyEvolve
Tree
p90
(dp91
g7
(imyEvolve
Tree
p92
(dp93
g7
(imyEvolve
Tree
p94
(dp95
g13
I0
sg14
I00
sbsg13
I1
sg18
(imyEvolve
Tree
p96
(dp97
g13
I0
sg23
F-4.090391860496188
sg14
I01
sbsg15
I00
sg16
g42
sbsg13
I2
sg18
(imyEvolve
Tree
p98
(dp99
g10
(imyEvolve
Tree
p100
(dp101
g13
I0
sg23
F2.4475927049836157
sg14
I01
sbsg13
I1
sg15
I01
sg16
g48
sbsg15
I00
sg16
g42
sbsg15
I00
sg16
g26
sbsg13
I4
sg15
I01
sg16
g57
sba(imyEvolve
Tree
p102
(dp103
g10
(imyEvolve
Tree
p104
(dp105
g10
(imyEvolve
Tree
p106
(dp107
g10
(imyEvolve
Tree
p108
(dp109
g10
(imyEvolve
Tree
p110
(dp111
g7
(imyEvolve
Tree
p112
(dp113
g13
I0
sg14
I00
sbsg13
I1
sg18
(imyEvolve
Tree
p114
(dp115
g13
I0
sg23
F0.06780091458725135
sg14
I01
sbsg15
I00
sg16
g42
sbsg13
I2
sg15
I01
sg16
g47
sbsg13
I3
sg15
I01
sg16
g57
sbsg13
I4
sg15
I01
sg16
g48
sbsg13
I5
sg15
I01
sg16
g47
sba(imyEvolve
Tree
p116
(dp117
g10
(imyEvolve
Tree
p118
(dp119
g10
(imyEvolve
Tree
p120
(dp121
g10
(imyEvolve
Tree
p122
(dp123
g7
(imyEvolve
Tree
p124
(dp125
g7
(imyEvolve
Tree
p126
(dp127
g13
I0
sg14
I00
sbsg13
I1
sg18
(imyEvolve
Tree
p128
(dp129
g13
I0
sg23
F0.304838521791857
sg14
I01
sbsg15
I00
sg16
g27
sbsg13
I2
sg18
(imyEvolve
Tree
p130
(dp131
g10
(imyEvolve
Tree
p132
(dp133
g13
I0
sg23
F-1.5030482224032724
sg14
I01
sbsg13
I1
sg15
I01
sg16
g47
sbsg15
I00
sg16
g42
sbsg13
I3
sg15
I01
sg16
g47
sbsg13
I4
sg15
I01
sg16
g47
sbsg13
I5
sg15
I01
sg16
g17
sba(imyEvolve
Tree
p134
(dp135
g7
(imyEvolve
Tree
p136
(dp137
g10
(imyEvolve
Tree
p138
(dp139
g10
(imyEvolve
Tree
p140
(dp141
g7
(imyEvolve
Tree
p142
(dp143
g13
I0
sg23
F-3.8996145352988467
sg14
I01
sbsg13
I1
sg18
(imyEvolve
Tree
p144
(dp145
g13
I0
sg23
F-2.8168975876226234
sg14
I01
sbsg15
I00
sg16
g42
sbsg13
I2
sg15
I01
sg16
g48
sbsg13
I3
sg15
I01
sg16
g17
sbsg13
I4
sg18
(imyEvolve
Tree
p146
(dp147
g7
(imyEvolve
Tree
p148
(dp149
g7
(imyEvolve
Tree
p150
(dp151
g7
(imyEvolve
Tree
p152
(dp153
g13
I0
sg23
F-1.1818719150243986
sg14
I01
sbsg13
I1
sg18
(imyEvolve
Tree
p154
(dp155
g13
I0
sg14
I00
sbsg15
I00
sg16
g26
sbsg13
I2
sg18
(imyEvolve
Tree
p156
(dp157
g7
(imyEvolve
Tree
p158
(dp159
g13
I0
sg23
F-0.266751876691278
sg14
I01
sbsg13
I1
sg18
(imyEvolve
Tree
p160
(dp161
g13
I0
sg14
I00
sbsg15
I00
sg16
g42
sbsg15
I00
sg16
g27
sbsg13
I3
sg18
(imyEvolve
Tree
p162
(dp163
g7
(imyEvolve
Tree
p164
(dp165
g10
(imyEvolve
Tree
p166
(dp167
g13
I0
sg14
I00
sbsg13
I1
sg15
I01
sg16
g48
sbsg13
I2
sg18
(imyEvolve
Tree
p168
(dp169
g10
(imyEvolve
Tree
p170
(dp171
g13
I0
sg23
F0.5789172615681712
sg14
I01
sbsg13
I1
sg15
I01
sg16
g17
sbsg15
I00
sg16
g42
sbsg15
I00
sg16
g27
sbsg15
I00
sg16
g42
sba(imyEvolve
Tree
p172
(dp173
g7
(imyEvolve
Tree
p174
(dp175
g7
(imyEvolve
Tree
p176
(dp177
g13
I0
sg14
I00
sbsg13
I1
sg18
(imyEvolve
Tree
p178
(dp179
g13
I0
sg23
F0.7498203774778833
sg14
I01
sbsg15
I00
sg16
g27
sbsg13
I2
sg18
(imyEvolve
Tree
p180
(dp181
g10
(imyEvolve
Tree
p182
(dp183
g13
I0
sg23
F2.3500615334230233
sg14
I01
sbsg13
I1
sg15
I01
sg16
g57
sbsg15
I00
sg16
g26
sba(imyEvolve
Tree
p184
(dp185
g10
(imyEvolve
Tree
p186
(dp187
g13
I3
sg7
(imyEvolve
Tree
p188
(dp189
g10
(imyEvolve
Tree
p190
(dp191
g10
(imyEvolve
Tree
p192
(dp193
g13
I0
sg14
I00
sbsg13
I1
sg15
I01
sg16
g48
sbsg13
I2
sg15
I01
sg16
g47
sbsg18
(imyEvolve
Tree
p194
(dp195
g10
(imyEvolve
Tree
p196
(dp197
g13
I1
sg7
(imyEvolve
Tree
p198
(dp199
g13
I0
sg23
F-3.7575423606915628
sg14
I01
sbsg18
(imyEvolve
Tree
p200
(dp201
g13
I0
sg23
F-0.9953846927941656
sg14
I01
sbsg15
I00
sg16
g42
sbsg13
I2
sg15
I01
sg16
g57
sbsg15
I00
sg16
g26
sbsg13
I4
sg15
I01
sg16
g57
sba(imyEvolve
Tree
p202
(dp203
g10
(imyEvolve
Tree
p204
(dp205
g7
(imyEvolve
Tree
p206
(dp207
g7
(imyEvolve
Tree
p208
(dp209
g13
I0
sg23
F-0.03993167120625429
sg14
I01
sbsg13
I1
sg18
(imyEvolve
Tree
p210
(dp211
g13
I0
sg23
F-0.5149591048081525
sg14
I01
sbsg15
I00
sg16
g42
sbsg13
I2
sg18
(imyEvolve
Tree
p212
(dp213
g7
(imyEvolve
Tree
p214
(dp215
g13
I0
sg23
F2.8233851811766097
sg14
I01
sbsg13
I1
sg18
(imyEvolve
Tree
p216
(dp217
g13
I0
sg23
F3.370592278098014
sg14
I01
sbsg15
I00
sg16
g26
sbsg15
I00
sg16
g42
sbsg13
I3
sg15
I01
sg16
g47
sba(imyEvolve
Tree
p218
(dp219
g10
(imyEvolve
Tree
p220
(dp221
g13
I4
sg7
(imyEvolve
Tree
p222
(dp223
g13
I3
sg7
(imyEvolve
Tree
p224
(dp225
g10
(imyEvolve
Tree
p226
(dp227
g10
(imyEvolve
Tree
p228
(dp229
g13
I0
sg23
F0.6023630110509073
sg14
I01
sbsg13
I1
sg15
I01
sg16
g47
sbsg13
I2
sg15
I01
sg16
g47
sbsg18
(imyEvolve
Tree
p230
(dp231
g10
(imyEvolve
Tree
p232
(dp233
g10
(imyEvolve
Tree
p234
(dp235
g13
I0
sg14
I00
sbsg13
I1
sg15
I01
sg16
g48
sbsg13
I2
sg15
I01
sg16
g17
sbsg15
I00
sg16
g27
sbsg18
(imyEvolve
Tree
p236
(dp237
g10
(imyEvolve
Tree
p238
(dp239
g10
(imyEvolve
Tree
p240
(dp241
g13
I1
sg7
(imyEvolve
Tree
p242
(dp243
g13
I0
sg14
I00
sbsg18
(imyEvolve
Tree
p244
(dp245
g13
I0
sg23
F4.4625674584025425
sg14
I01
sbsg15
I00
sg16
g27
sbsg13
I2
sg15
I01
sg16
g17
sbsg13
I3
sg15
I01
sg16
g17
sbsg15
I00
sg16
g26
sbsg13
I5
sg15
I01
sg16
g17
sba(imyEvolve
Tree
p246
(dp247
g7
(imyEvolve
Tree
p248
(dp249
g10
(imyEvolve
Tree
p250
(dp251
g13
I0
sg23
F-2.730835104919187
sg14
I01
sbsg13
I1
sg15
I01
sg16
g57
sbsg13
I2
sg18
(imyEvolve
Tree
p252
(dp253
g7
(imyEvolve
Tree
p254
(dp255
g13
I0
sg14
I00
sbsg13
I1
sg18
(imyEvolve
Tree
p256
(dp257
g13
I0
sg14
I00
sbsg15
I00
sg16
g27
sbsg15
I00
sg16
g42
sba(imyEvolve
Tree
p258
(dp259
g10
(imyEvolve
Tree
p260
(dp261
g7
(imyEvolve
Tree
p262
(dp263
g7
(imyEvolve
Tree
p264
(dp265
g10
(imyEvolve
Tree
p266
(dp267
g7
(imyEvolve
Tree
p268
(dp269
g13
I0
sg14
I00
sbsg13
I1
sg18
(imyEvolve
Tree
p270
(dp271
g13
I0
sg23
F-1.0113882231459828
sg14
I01
sbsg15
I00
sg16
g26
sbsg13
I2
sg15
I01
sg16
g17
sbsg13
I3
sg18
(imyEvolve
Tree
p272
(dp273
g7
(imyEvolve
Tree
p274
(dp275
g10
(imyEvolve
Tree
p276
(dp277
g13
I0
sg14
I00
sbsg13
I1
sg15
I01
sg16
g48
sbsg13
I2
sg18
(imyEvolve
Tree
p278
(dp279
g7
(imyEvolve
Tree
p280
(dp281
g13
I0
sg23
F3.210633958772343
sg14
I01
sbsg13
I1
sg18
(imyEvolve
Tree
p282
(dp283
g13
I0
sg23
F1.378123217879164
sg14
I01
sbsg15
I00
sg16
g26
sbsg15
I00
sg16
g27
sbsg15
I00
sg16
g42
sbsg13
I4
sg18
(imyEvolve
Tree
p284
(dp285
g7
(imyEvolve
Tree
p286
(dp287
g10
(imyEvolve
Tree
p288
(dp289
g7
(imyEvolve
Tree
p290
(dp291
g13
I0
sg23
F-2.1788627147389072
sg14
I01
sbsg13
I1
sg18
(imyEvolve
Tree
p292
(dp293
g13
I0
sg14
I00
sbsg15
I00
sg16
g26
sbsg13
I2
sg15
I01
sg16
g47
sbsg13
I3
sg18
(imyEvolve
Tree
p294
(dp295
g7
(imyEvolve
Tree
p296
(dp297
g7
(imyEvolve
Tree
p298
(dp299
g13
I0
sg14
I00
sbsg13
I1
sg18
(imyEvolve
Tree
p300
(dp301
g13
I0
sg14
I00
sbsg15
I00
sg16
g26
sbsg13
I2
sg18
(imyEvolve
Tree
p302
(dp303
g7
(imyEvolve
Tree
p304
(dp305
g13
I0
sg14
I00
sbsg13
I1
sg18
(imyEvolve
Tree
p306
(dp307
g13
I0
sg23
F2.5786830616325327
sg14
I01
sbsg15
I00
sg16
g42
sbsg15
I00
sg16
g26
sbsg15
I00
sg16
g26
sbsg15
I00
sg16
g26
sbsg13
I5
sg15
I01
sg16
g47
sba(imyEvolve
Tree
p308
(dp309
g10
(imyEvolve
Tree
p310
(dp311
g10
(imyEvolve
Tree
p312
(dp313
g10
(imyEvolve
Tree
p314
(dp315
g10
(imyEvolve
Tree
p316
(dp317
g13
I0
sg14
I00
sbsg13
I1
sg15
I01
sg16
g47
sbsg13
I2
sg15
I01
sg16
g47
sbsg13
I3
sg15
I01
sg16
g47
sbsg13
I4
sg15
I01
sg16
g57
sba(imyEvolve
Tree
p318
(dp319
g10
(imyEvolve
Tree
p320
(dp321
g7
(imyEvolve
Tree
p322
(dp323
g10
(imyEvolve
Tree
p324
(dp325
g10
(imyEvolve
Tree
p326
(dp327
g13
I0
sg14
I00
sbsg13
I1
sg15
I01
sg16
g57
sbsg13
I2
sg15
I01
sg16
g57
sbsg13
I3
sg18
(imyEvolve
Tree
p328
(dp329
g10
(imyEvolve
Tree
p330
(dp331
g10
(imyEvolve
Tree
p332
(dp333
g13
I0
sg14
I00
sbsg13
I1
sg15
I01
sg16
g48
sbsg13
I2
sg15
I01
sg16
g48
sbsg15
I00
sg16
g27
sbsg13
I4
sg15
I01
sg16
g17
sba(imyEvolve
Tree
p334
(dp335
g10
(imyEvolve
Tree
p336
(dp337
g7
(imyEvolve
Tree
p338
(dp339
g10
(imyEvolve
Tree
p340
(dp341
g10
(imyEvolve
Tree
p342
(dp343
g13
I0
sg23
F1.2673741460726085
sg14
I01
sbsg13
I1
sg15
I01
sg16
g57
sbsg13
I2
sg15
I01
sg16
g17
sbsg13
I3
sg18
(imyEvolve
Tree
p344
(dp345
g7
(imyEvolve
Tree
p346
(dp347
g7
(imyEvolve
Tree
p348
(dp349
g13
I0
sg14
I00
sbsg13
I1
sg18
(imyEvolve
Tree
p350
(dp351
g13
I0
sg23
F1.1813954358826475
sg14
I01
sbsg15
I00
sg16
g42
sbsg13
I2
sg18
(imyEvolve
Tree
p352
(dp353
g10
(imyEvolve
Tree
p354
(dp355
g13
I0
sg23
F1.9851409186653566
sg14
I01
sbsg13
I1
sg15
I01
sg16
g48
sbsg15
I00
sg16
g26
sbsg15
I00
sg16
g26
sbsg13
I4
sg15
I01
sg16
g47
sba(imyEvolve
Tree
p356
(dp357
g10
(imyEvolve
Tree
p358
(dp359
g7
(imyEvolve
Tree
p360
(dp361
g13
I0
sg14
I00
sbsg13
I1
sg18
(imyEvolve
Tree
p362
(dp363
g13
I0
sg23
F-3.5713627831542105
sg14
I01
sbsg15
I00
sg16
g26
sbsg13
I2
sg15
I01
sg16
g47
sba(imyEvolve
Tree
p364
(dp365
g10
(imyEvolve
Tree
p366
(dp367
g7
(imyEvolve
Tree
p368
(dp369
g10
(imyEvolve
Tree
p370
(dp371
g10
(imyEvolve
Tree
p372
(dp373
g13
I0
sg23
F4.621639351528035
sg14
I01
sbsg13
I1
sg15
I01
sg16
g17
sbsg13
I2
sg15
I01
sg16
g17
sbsg13
I3
sg18
(imyEvolve
Tree
p374
(dp375
g10
(imyEvolve
Tree
p376
(dp377
g7
(imyEvolve
Tree
p378
(dp379
g13
I0
sg14
I00
sbsg13
I1
sg18
(imyEvolve
Tree
p380
(dp381
g13
I0
sg14
I00
sbsg15
I00
sg16
g26
sbsg13
I2
sg15
I01
sg16
g48
sbsg15
I00
sg16
g42
sbsg13
I4
sg15
I01
sg16
g48
sba(imyEvolve
Tree
p382
(dp383
g10
(imyEvolve
Tree
p384
(dp385
g13
I1
sg7
(imyEvolve
Tree
p386
(dp387
g13
I0
sg14
I00
sbsg18
(imyEvolve
Tree
p388
(dp389
g13
I0
sg14
I00
sbsg15
I00
sg16
g27
sbsg13
I2
sg15
I01
sg16
g47
sba(imyEvolve
Tree
p390
(dp391
g13
I4
sg7
(imyEvolve
Tree
p392
(dp393
g13
I3
sg7
(imyEvolve
Tree
p394
(dp395
g13
I2
sg7
(imyEvolve
Tree
p396
(dp397
g10
(imyEvolve
Tree
p398
(dp399
g13
I0
sg23
F-3.5884291154392836
sg14
I01
sbsg13
I1
sg15
I01
sg16
g17
sbsg18
(imyEvolve
Tree
p400
(dp401
g13
I1
sg7
(imyEvolve
Tree
p402
(dp403
g13
I0
sg14
I00
sbsg18
(imyEvolve
Tree
p404
(dp405
g13
I0
sg23
F-1.6506249451763253
sg14
I01
sbsg15
I00
sg16
g27
sbsg15
I00
sg16
g42
sbsg18
(imyEvolve
Tree
p406
(dp407
g13
I2
sg7
(imyEvolve
Tree
p408
(dp409
g10
(imyEvolve
Tree
p410
(dp411
g13
I0
sg23
F-2.7932606203820107
sg14
I01
sbsg13
I1
sg15
I01
sg16
g17
sbsg18
(imyEvolve
Tree
p412
(dp413
g10
(imyEvolve
Tree
p414
(dp415
g13
I0
sg14
I00
sbsg13
I1
sg15
I01
sg16
g17
sbsg15
I00
sg16
g42
sbsg15
I00
sg16
g27
sbsg18
(imyEvolve
Tree
p416
(dp417
g13
I3
sg7
(imyEvolve
Tree
p418
(dp419
g10
(imyEvolve
Tree
p420
(dp421
g10
(imyEvolve
Tree
p422
(dp423
g13
I0
sg14
I00
sbsg13
I1
sg15
I01
sg16
g48
sbsg13
I2
sg15
I01
sg16
g17
sbsg18
(imyEvolve
Tree
p424
(dp425
g10
(imyEvolve
Tree
p426
(dp427
g10
(imyEvolve
Tree
p428
(dp429
g13
I0
sg23
F1.3273129563224444
sg14
I01
sbsg13
I1
sg15
I01
sg16
g48
sbsg13
I2
sg15
I01
sg16
g47
sbsg15
I00
sg16
g27
sbsg15
I00
sg16
g27
sbaa(lp430
(imyEvolve
Tree
p431
(dp432
g10
(imyEvolve
Tree
p433
(dp434
g7
(imyEvolve
Tree
p435
(dp436
g7
(imyEvolve
Tree
p437
(dp438
g10
(imyEvolve
Tree
p439
(dp440
g13
I0
sg23
F-0.5177396789217017
sg14
I01
sbsg13
I1
sg15
I01
sg16
g47
sbsg13
I2
sg18
(imyEvolve
Tree
p441
(dp442
g10
(imyEvolve
Tree
p443
(dp444
g13
I0
sg23
F-2.9952610245265
sg14
I01
sbsg13
I1
sg15
I01
sg16
g47
sbsg15
I00
sg16
g26
sbsg13
I3
sg18
(imyEvolve
Tree
p445
(dp446
g7
(imyEvolve
Tree
p447
(dp448
g10
(imyEvolve
Tree
p449
(dp450
g13
I0
sg23
F4.85832124502879
sg14
I01
sbsg13
I1
sg15
I01
sg16
g57
sbsg13
I2
sg18
(imyEvolve
Tree
p451
(dp452
g10
(imyEvolve
Tree
p453
(dp454
g13
I0
sg14
I00
sbsg13
I1
sg15
I01
sg16
g17
sbsg15
I00
sg16
g42
sbsg15
I00
sg16
g42
sbsg13
I4
sg15
I01
sg16
g47
sba(imyEvolve
Tree
p455
(dp456
g10
(imyEvolve
Tree
p457
(dp458
g10
(imyEvolve
Tree
p459
(dp460
g13
I0
sg23
F-3.1435346934568065
sg14
I01
sbsg13
I1
sg15
I01
sg16
g17
sbsg13
I2
sg15
I01
sg16
g48
sba(imyEvolve
Tree
p461
(dp462
g7
(imyEvolve
Tree
p463
(dp464
g10
(imyEvolve
Tree
p465
(dp466
g13
I0
sg14
I00
sbsg13
I1
sg15
I01
sg16
g48
sbsg13
I2
sg18
(imyEvolve
Tree
p467
(dp468
g7
(imyEvolve
Tree
p469
(dp470
g13
I0
sg14
I00
sbsg13
I1
sg18
(imyEvolve
Tree
p471
(dp472
g13
I0
sg14
I00
sbsg15
I00
sg16
g27
sbsg15
I00
sg16
g27
sba(imyEvolve
Tree
p473
(dp474
g7
(imyEvolve
Tree
p475
(dp476
g10
(imyEvolve
Tree
p477
(dp478
g7
(imyEvolve
Tree
p479
(dp480
g10
(imyEvolve
Tree
p481
(dp482
g13
I0
sg14
I00
sbsg13
I1
sg15
I01
sg16
g47
sbsg13
I2
sg18
(imyEvolve
Tree
p483
(dp484
g7
(imyEvolve
Tree
p485
(dp486
g13
I0
sg23
F-1.3856565181639366
sg14
I01
sbsg13
I1
sg18
(imyEvolve
Tree
p487
(dp488
g13
I0
sg14
I00
sbsg15
I00
sg16
g26
sbsg15
I00
sg16
g42
sbsg13
I3
sg15
I01
sg16
g57
sbsg13
I4
sg18
(imyEvolve
Tree
p489
(dp490
g7
(imyEvolve
Tree
p491
(dp492
g10
(imyEvolve
Tree
p493
(dp494
g10
(imyEvolve
Tree
p495
(dp496
g13
I0
sg23
F-4.664571699332604
sg14
I01
sbsg13
I1
sg15
I01
sg16
g17
sbsg13
I2
sg15
I01
sg16
g48
sbsg13
I3
sg18
(imyEvolve
Tree
p497
(dp498
g7
(imyEvolve
Tree
p499
(dp500
g7
(imyEvolve
Tree
p501
(dp502
g13
I0
sg14
I00
sbsg13
I1
sg18
(imyEvolve
Tree
p503
(dp504
g13
I0
sg23
F4.061115404924191
sg14
I01
sbsg15
I00
sg16
g42
sbsg13
I2
sg18
(imyEvolve
Tree
p505
(dp506
g7
(imyEvolve
Tree
p507
(dp508
g13
I0
sg14
I00
sbsg13
I1
sg18
(imyEvolve
Tree
p509
(dp510
g13
I0
sg23
F-0.8345457042793845
sg14
I01
sbsg15
I00
sg16
g27
sbsg15
I00
sg16
g27
sbsg15
I00
sg16
g27
sbsg15
I00
sg16
g27
sba(imyEvolve
Tree
p511
(dp512
g7
(imyEvolve
Tree
p513
(dp514
g7
(imyEvolve
Tree
p515
(dp516
g10
(imyEvolve
Tree
p517
(dp518
g7
(imyEvolve
Tree
p519
(dp520
g10
(imyEvolve
Tree
p521
(dp522
g13
I0
sg14
I00
sbsg13
I1
sg15
I01
sg16
g57
sbsg13
I2
sg18
(imyEvolve
Tree
p523
(dp524
g10
(imyEvolve
Tree
p525
(dp526
g13
I0
sg23
F-1.495007676420422
sg14
I01
sbsg13
I1
sg15
I01
sg16
g17
sbsg15
I00
sg16
g27
sbsg13
I3
sg15
I01
sg16
g48
sbsg13
I4
sg18
(imyEvolve
Tree
p527
(dp528
g7
(imyEvolve
Tree
p529
(dp530
g10
(imyEvolve
Tree
p531
(dp532
g10
(imyEvolve
Tree
p533
(dp534
g13
I0
sg23
F-1.0584899895778257
sg14
I01
sbsg13
I1
sg15
I01
sg16
g48
sbsg13
I2
sg15
I01
sg16
g57
sbsg13
I3
sg18
(imyEvolve
Tree
p535
(dp536
g10
(imyEvolve
Tree
p537
(dp538
g7
(imyEvolve
Tree
p539
(dp540
g13
I0
sg14
I00
sbsg13
I1
sg18
(imyEvolve
Tree
p541
(dp542
g13
I0
sg14
I00
sbsg15
I00
sg16
g42
sbsg13
I2
sg15
I01
sg16
g57
sbsg15
I00
sg16
g42
sbsg15
I00
sg16
g42
sbsg13
I5
sg18
(imyEvolve
Tree
p543
(dp544
g7
(imyEvolve
Tree
p545
(dp546
g10
(imyEvolve
Tree
p547
(dp548
g10
(imyEvolve
Tree
p549
(dp550
g7
(imyEvolve
Tree
p551
(dp552
g13
I0
sg23
F-4.053300571933121
sg14
I01
sbsg13
I1
sg18
(imyEvolve
Tree
p553
(dp554
g13
I0
sg14
I00
sbsg15
I00
sg16
g26
sbsg13
I2
sg15
I01
sg16
g47
sbsg13
I3
sg15
I01
sg16
g17
sbsg13
I4
sg18
(imyEvolve
Tree
p555
(dp556
g7
(imyEvolve
Tree
p557
(dp558
g7
(imyEvolve
Tree
p559
(dp560
g10
(imyEvolve
Tree
p561
(dp562
g13
I0
sg14
I00
sbsg13
I1
sg15
I01
sg16
g48
sbsg13
I2
sg18
(imyEvolve
Tree
p563
(dp564
g10
(imyEvolve
Tree
p565
(dp566
g13
I0
sg23
F-1.716418313909621
sg14
I01
sbsg13
I1
sg15
I01
sg16
g57
sbsg15
I00
sg16
g42
sbsg13
I3
sg18
(imyEvolve
Tree
p567
(dp568
g7
(imyEvolve
Tree
p569
(dp570
g7
(imyEvolve
Tree
p571
(dp572
g13
I0
sg23
F4.600271725428852
sg14
I01
sbsg13
I1
sg18
(imyEvolve
Tree
p573
(dp574
g13
I0
sg23
F1.686821794750771
sg14
I01
sbsg15
I00
sg16
g26
sbsg13
I2
sg18
(imyEvolve
Tree
p575
(dp576
g10
(imyEvolve
Tree
p577
(dp578
g13
I0
sg23
F4.459644316834634
sg14
I01
sbsg13
I1
sg15
I01
sg16
g48
sbsg15
I00
sg16
g26
sbsg15
I00
sg16
g26
sbsg15
I00
sg16
g26
sbsg15
I00
sg16
g27
sba(imyEvolve
Tree
p579
(dp580
g10
(imyEvolve
Tree
p581
(dp582
g10
(imyEvolve
Tree
p583
(dp584
g13
I2
sg7
(imyEvolve
Tree
p585
(dp586
g13
I1
sg7
(imyEvolve
Tree
p587
(dp588
g13
I0
sg23
F-2.126961215967164
sg14
I01
sbsg18
(imyEvolve
Tree
p589
(dp590
g13
I0
sg14
I00
sbsg15
I00
sg16
g26
sbsg18
(imyEvolve
Tree
p591
(dp592
g10
(imyEvolve
Tree
p593
(dp594
g13
I0
sg14
I00
sbsg13
I1
sg15
I01
sg16
g57
sbsg15
I00
sg16
g42
sbsg13
I3
sg15
I01
sg16
g17
sbsg13
I4
sg15
I01
sg16
g47
sba(imyEvolve
Tree
p595
(dp596
g10
(imyEvolve
Tree
p597
(dp598
g13
I1
sg7
(imyEvolve
Tree
p599
(dp600
g13
I0
sg14
I00
sbsg18
(imyEvolve
Tree
p601
(dp602
g13
I0
sg14
I00
sbsg15
I00
sg16
g26
sbsg13
I2
sg15
I01
sg16
g17
sba(imyEvolve
Tree
p603
(dp604
g7
(imyEvolve
Tree
p605
(dp606
g10
(imyEvolve
Tree
p607
(dp608
g7
(imyEvolve
Tree
p609
(dp610
g7
(imyEvolve
Tree
p611
(dp612
g10
(imyEvolve
Tree
p613
(dp614
g13
I0
sg23
F0.07053482830773916
sg14
I01
sbsg13
I1
sg15
I01
sg16
g57
sbsg13
I2
sg18
(imyEvolve
Tree
p615
(dp616
g7
(imyEvolve
Tree
p617
(dp618
g13
I0
sg14
I00
sbsg13
I1
sg18
(imyEvolve
Tree
p619
(dp620
g13
I0
sg14
I00
sbsg15
I00
sg16
g27
sbsg15
I00
sg16
g27
sbsg13
I3
sg18
(imyEvolve
Tree
p621
(dp622
g7
(imyEvolve
Tree
p623
(dp624
g7
(imyEvolve
Tree
p625
(dp626
g13
I0
sg14
I00
sbsg13
I1
sg18
(imyEvolve
Tree
p627
(dp628
g13
I0
sg14
I00
sbsg15
I00
sg16
g27
sbsg13
I2
sg18
(imyEvolve
Tree
p629
(dp630
g7
(imyEvolve
Tree
p631
(dp632
g13
I0
sg14
I00
sbsg13
I1
sg18
(imyEvolve
Tree
p633
(dp634
g13
I0
sg14
I00
sbsg15
I00
sg16
g26
sbsg15
I00
sg16
g42
sbsg15
I00
sg16
g42
sbsg13
I4
sg15
I01
sg16
g48
sbsg13
I5
sg18
(imyEvolve
Tree
p635
(dp636
g10
(imyEvolve
Tree
p637
(dp638
g7
(imyEvolve
Tree
p639
(dp640
g7
(imyEvolve
Tree
p641
(dp642
g7
(imyEvolve
Tree
p643
(dp644
g13
I0
sg14
I00
sbsg13
I1
sg18
(imyEvolve
Tree
p645
(dp646
g13
I0
sg14
I00
sbsg15
I00
sg16
g26
sbsg13
I2
sg18
(imyEvolve
Tree
p647
(dp648
g7
(imyEvolve
Tree
p649
(dp650
g13
I0
sg23
F3.051346654255127
sg14
I01
sbsg13
I1
sg18
(imyEvolve
Tree
p651
(dp652
g13
I0
sg14
I00
sbsg15
I00
sg16
g27
sbsg15
I00
sg16
g26
sbsg13
I3
sg18
(imyEvolve
Tree
p653
(dp654
g7
(imyEvolve
Tree
p655
(dp656
g7
(imyEvolve
Tree
p657
(dp658
g13
I0
sg14
I00
sbsg13
I1
sg18
(imyEvolve
Tree
p659
(dp660
g13
I0
sg14
I00
sbsg15
I00
sg16
g42
sbsg13
I2
sg18
(imyEvolve
Tree
p661
(dp662
g10
(imyEvolve
Tree
p663
(dp664
g13
I0
sg14
I00
sbsg13
I1
sg15
I01
sg16
g47
sbsg15
I00
sg16
g27
sbsg15
I00
sg16
g27
sbsg13
I4
sg15
I01
sg16
g57
sbsg15
I00
sg16
g27
sba(imyEvolve
Tree
p665
(dp666
g7
(imyEvolve
Tree
p667
(dp668
g7
(imyEvolve
Tree
p669
(dp670
g13
I0
sg23
F-4.477638229545947
sg14
I01
sbsg13
I1
sg18
(imyEvolve
Tree
p671
(dp672
g13
I0
sg14
I00
sbsg15
I00
sg16
g26
sbsg13
I2
sg18
(imyEvolve
Tree
p673
(dp674
g10
(imyEvolve
Tree
p675
(dp676
g13
I0
sg23
F3.587499140363162
sg14
I01
sbsg13
I1
sg15
I01
sg16
g47
sbsg15
I00
sg16
g42
sba(imyEvolve
Tree
p677
(dp678
g10
(imyEvolve
Tree
p679
(dp680
g10
(imyEvolve
Tree
p681
(dp682
g10
(imyEvolve
Tree
p683
(dp684
g7
(imyEvolve
Tree
p685
(dp686
g13
I0
sg23
F4.004720502461838
sg14
I01
sbsg13
I1
sg18
(imyEvolve
Tree
p687
(dp688
g13
I0
sg14
I00
sbsg15
I00
sg16
g26
sbsg13
I2
sg15
I01
sg16
g57
sbsg13
I3
sg15
I01
sg16
g47
sbsg13
I4
sg15
I01
sg16
g17
sba(imyEvolve
Tree
p689
(dp690
g10
(imyEvolve
Tree
p691
(dp692
g7
(imyEvolve
Tree
p693
(dp694
g13
I0
sg23
F-3.479478107695284
sg14
I01
sbsg13
I1
sg18
(imyEvolve
Tree
p695
(dp696
g13
I0
sg23
F-1.6758953675370467
sg14
I01
sbsg15
I00
sg16
g42
sbsg13
I2
sg15
I01
sg16
g48
sba(imyEvolve
Tree
p697
(dp698
g13
I2
sg7
(imyEvolve
Tree
p699
(dp700
g13
I1
sg7
(imyEvolve
Tree
p701
(dp702
g13
I0
sg23
F-3.3467805004657993
sg14
I01
sbsg18
(imyEvolve
Tree
p703
(dp704
g13
I0
sg23
F3.0290134615472084
sg14
I01
sbsg15
I00
sg16
g26
sbsg18
(imyEvolve
Tree
p705
(dp706
g13
I1
sg7
(imyEvolve
Tree
p707
(dp708
g13
I0
sg14
I00
sbsg18
(imyEvolve
Tree
p709
(dp710
g13
I0
sg14
I00
sbsg15
I00
sg16
g26
sbsg15
I00
sg16
g26
sba(imyEvolve
Tree
p711
(dp712
g10
(imyEvolve
Tree
p713
(dp714
g10
(imyEvolve
Tree
p715
(dp716
g13
I1
sg7
(imyEvolve
Tree
p717
(dp718
g13
I0
sg23
F2.6835042900604194
sg14
I01
sbsg18
(imyEvolve
Tree
p719
(dp720
g13
I0
sg23
F0.6240729947937105
sg14
I01
sbsg15
I00
sg16
g26
sbsg13
I2
sg15
I01
sg16
g47
sbsg13
I3
sg15
I01
sg16
g57
sba(imyEvolve
Tree
p721
(dp722
g7
(imyEvolve
Tree
p723
(dp724
g10
(imyEvolve
Tree
p725
(dp726
g10
(imyEvolve
Tree
p727
(dp728
g10
(imyEvolve
Tree
p729
(dp730
g10
(imyEvolve
Tree
p731
(dp732
g13
I0
sg23
F-1.580039613297969
sg14
I01
sbsg13
I1
sg15
I01
sg16
g47
sbsg13
I2
sg15
I01
sg16
g17
sbsg13
I3
sg15
I01
sg16
g17
sbsg13
I4
sg15
I01
sg16
g17
sbsg13
I5
sg18
(imyEvolve
Tree
p733
(dp734
g7
(imyEvolve
Tree
p735
(dp736
g10
(imyEvolve
Tree
p737
(dp738
g10
(imyEvolve
Tree
p739
(dp740
g7
(imyEvolve
Tree
p741
(dp742
g13
I0
sg14
I00
sbsg13
I1
sg18
(imyEvolve
Tree
p743
(dp744
g13
I0
sg14
I00
sbsg15
I00
sg16
g27
sbsg13
I2
sg15
I01
sg16
g17
sbsg13
I3
sg15
I01
sg16
g17
sbsg13
I4
sg18
(imyEvolve
Tree
p745
(dp746
g10
(imyEvolve
Tree
p747
(dp748
g10
(imyEvolve
Tree
p749
(dp750
g10
(imyEvolve
Tree
p751
(dp752
g13
I0
sg23
F-1.3052000480599588
sg14
I01
sbsg13
I1
sg15
I01
sg16
g17
sbsg13
I2
sg15
I01
sg16
g47
sbsg13
I3
sg15
I01
sg16
g17
sbsg15
I00
sg16
g42
sbsg15
I00
sg16
g27
sba(imyEvolve
Tree
p753
(dp754
g13
I2
sg7
(imyEvolve
Tree
p755
(dp756
g13
I1
sg7
(imyEvolve
Tree
p757
(dp758
g13
I0
sg23
F-3.75106205159081
sg14
I01
sbsg18
(imyEvolve
Tree
p759
(dp760
g13
I0
sg14
I00
sbsg15
I00
sg16
g42
sbsg18
(imyEvolve
Tree
p761
(dp762
g10
(imyEvolve
Tree
p763
(dp764
g13
I0
sg23
F3.1769504062819376
sg14
I01
sbsg13
I1
sg15
I01
sg16
g57
sbsg15
I00
sg16
g27
sba(imyEvolve
Tree
p765
(dp766
g10
(imyEvolve
Tree
p767
(dp768
g10
(imyEvolve
Tree
p769
(dp770
g13
I3
sg7
(imyEvolve
Tree
p771
(dp772
g10
(imyEvolve
Tree
p773
(dp774
g10
(imyEvolve
Tree
p775
(dp776
g13
I0
sg23
F3.7006205305948363
sg14
I01
sbsg13
I1
sg15
I01
sg16
g17
sbsg13
I2
sg15
I01
sg16
g57
sbsg18
(imyEvolve
Tree
p777
(dp778
g10
(imyEvolve
Tree
p779
(dp780
g10
(imyEvolve
Tree
p781
(dp782
g13
I0
sg23
F-3.5638818075229506
sg14
I01
sbsg13
I1
sg15
I01
sg16
g47
sbsg13
I2
sg15
I01
sg16
g47
sbsg15
I00
sg16
g27
sbsg13
I4
sg15
I01
sg16
g17
sbsg13
I5
sg15
I01
sg16
g57
sba(imyEvolve
Tree
p783
(dp784
g7
(imyEvolve
Tree
p785
(dp786
g7
(imyEvolve
Tree
p787
(dp788
g10
(imyEvolve
Tree
p789
(dp790
g10
(imyEvolve
Tree
p791
(dp792
g13
I0
sg14
I00
sbsg13
I1
sg15
I01
sg16
g48
sbsg13
I2
sg15
I01
sg16
g47
sbsg13
I3
sg18
(imyEvolve
Tree
p793
(dp794
g7
(imyEvolve
Tree
p795
(dp796
g10
(imyEvolve
Tree
p797
(dp798
g13
I0
sg14
I00
sbsg13
I1
sg15
I01
sg16
g57
sbsg13
I2
sg18
(imyEvolve
Tree
p799
(dp800
g7
(imyEvolve
Tree
p801
(dp802
g13
I0
sg14
I00
sbsg13
I1
sg18
(imyEvolve
Tree
p803
(dp804
g13
I0
sg23
F4.863990904785201
sg14
I01
sbsg15
I00
sg16
g26
sbsg15
I00
sg16
g26
sbsg15
I00
sg16
g26
sbsg13
I4
sg18
(imyEvolve
Tree
p805
(dp806
g10
(imyEvolve
Tree
p807
(dp808
g10
(imyEvolve
Tree
p809
(dp810
g7
(imyEvolve
Tree
p811
(dp812
g13
I0
sg23
F3.6586648237888557
sg14
I01
sbsg13
I1
sg18
(imyEvolve
Tree
p813
(dp814
g13
I0
sg14
I00
sbsg15
I00
sg16
g26
sbsg13
I2
sg15
I01
sg16
g17
sbsg13
I3
sg15
I01
sg16
g47
sbsg15
I00
sg16
g42
sbaa(lp815
(imyEvolve
Tree
p816
(dp817
g10
(imyEvolve
Tree
p818
(dp819
g10
(imyEvolve
Tree
p820
(dp821
g13
I3
sg7
(imyEvolve
Tree
p822
(dp823
g10
(imyEvolve
Tree
p824
(dp825
g13
I1
sg7
(imyEvolve
Tree
p826
(dp827
g13
I0
sg23
F3.300172045719492
sg14
I01
sbsg18
(imyEvolve
Tree
p828
(dp829
g13
I0
sg23
F4.810064898789774
sg14
I01
sbsg15
I00
sg16
g27
sbsg13
I2
sg15
I01
sg16
g48
sbsg18
(imyEvolve
Tree
p830
(dp831
g10
(imyEvolve
Tree
p832
(dp833
g13
I1
sg7
(imyEvolve
Tree
p834
(dp835
g13
I0
sg23
F2.028394260084868
sg14
I01
sbsg18
(imyEvolve
Tree
p836
(dp837
g13
I0
sg14
I00
sbsg15
I00
sg16
g26
sbsg13
I2
sg15
I01
sg16
g48
sbsg15
I00
sg16
g42
sbsg13
I4
sg15
I01
sg16
g48
sbsg13
I5
sg15
I01
sg16
g48
sba(imyEvolve
Tree
p838
(dp839
g10
(imyEvolve
Tree
p840
(dp841
g13
I4
sg7
(imyEvolve
Tree
p842
(dp843
g13
I3
sg7
(imyEvolve
Tree
p844
(dp845
g10
(imyEvolve
Tree
p846
(dp847
g13
I1
sg7
(imyEvolve
Tree
p848
(dp849
g13
I0
sg23
F-0.45626331976639456
sg14
I01
sbsg18
(imyEvolve
Tree
p850
(dp851
g13
I0
sg14
I00
sbsg15
I00
sg16
g42
sbsg13
I2
sg15
I01
sg16
g47
sbsg18
(imyEvolve
Tree
p852
(dp853
g10
(imyEvolve
Tree
p854
(dp855
g10
(imyEvolve
Tree
p856
(dp857
g13
I0
sg23
F-2.913888546961527
sg14
I01
sbsg13
I1
sg15
I01
sg16
g47
sbsg13
I2
sg15
I01
sg16
g47
sbsg15
I00
sg16
g26
sbsg18
(imyEvolve
Tree
p858
(dp859
g10
(imyEvolve
Tree
p860
(dp861
g13
I2
sg7
(imyEvolve
Tree
p862
(dp863
g10
(imyEvolve
Tree
p864
(dp865
g13
I0
sg14
I00
sbsg13
I1
sg15
I01
sg16
g48
sbsg18
(imyEvolve
Tree
p866
(dp867
g10
(imyEvolve
Tree
p868
(dp869
g13
I0
sg14
I00
sbsg13
I1
sg15
I01
sg16
g47
sbsg15
I00
sg16
g26
sbsg13
I3
sg15
I01
sg16
g57
sbsg15
I00
sg16
g27
sbsg13
I5
sg15
I01
sg16
g47
sba(imyEvolve
Tree
p870
(dp871
g13
I2
sg7
(imyEvolve
Tree
p872
(dp873
g13
I1
sg7
(imyEvolve
Tree
p874
(dp875
g13
I0
sg14
I00
sbsg18
(imyEvolve
Tree
p876
(dp877
g13
I0
sg14
I00
sbsg15
I00
sg16
g26
sbsg18
(imyEvolve
Tree
p878
(dp879
g13
I1
sg7
(imyEvolve
Tree
p880
(dp881
g13
I0
sg14
I00
sbsg18
(imyEvolve
Tree
p882
(dp883
g13
I0
sg14
I00
sbsg15
I00
sg16
g27
sbsg15
I00
sg16
g27
sba(imyEvolve
Tree
p884
(dp885
g10
(imyEvolve
Tree
p886
(dp887
g13
I4
sg7
(imyEvolve
Tree
p888
(dp889
g13
I3
sg7
(imyEvolve
Tree
p890
(dp891
g13
I2
sg7
(imyEvolve
Tree
p892
(dp893
g10
(imyEvolve
Tree
p894
(dp895
g13
I0
sg23
F-4.736056337788527
sg14
I01
sbsg13
I1
sg15
I01
sg16
g48
sbsg18
(imyEvolve
Tree
p896
(dp897
g13
I1
sg7
(imyEvolve
Tree
p898
(dp899
g13
I0
sg14
I00
sbsg18
(imyEvolve
Tree
p900
(dp901
g13
I0
sg14
I00
sbsg15
I00
sg16
g27
sbsg15
I00
sg16
g26
sbsg18
(imyEvolve
Tree
p902
(dp903
g13
I2
sg7
(imyEvolve
Tree
p904
(dp905
g13
I1
sg7
(imyEvolve
Tree
p906
(dp907
g13
I0
sg14
I00
sbsg18
(imyEvolve
Tree
p908
(dp909
g13
I0
sg14
I00
sbsg15
I00
sg16
g26
sbsg18
(imyEvolve
Tree
p910
(dp911
g13
I1
sg7
(imyEvolve
Tree
p912
(dp913
g13
I0
sg14
I00
sbsg18
(imyEvolve
Tree
p914
(dp915
g13
I0
sg23
F3.0492674768381356
sg14
I01
sbsg15
I00
sg16
g42
sbsg15
I00
sg16
g27
sbsg15
I00
sg16
g26
sbsg18
(imyEvolve
Tree
p916
(dp917
g10
(imyEvolve
Tree
p918
(dp919
g13
I2
sg7
(imyEvolve
Tree
p920
(dp921
g10
(imyEvolve
Tree
p922
(dp923
g13
I0
sg23
F-2.0372175125125414
sg14
I01
sbsg13
I1
sg15
I01
sg16
g47
sbsg18
(imyEvolve
Tree
p924
(dp925
g13
I1
sg7
(imyEvolve
Tree
p926
(dp927
g13
I0
sg23
F-2.813805972912605
sg14
I01
sbsg18
(imyEvolve
Tree
p928
(dp929
g13
I0
sg14
I00
sbsg15
I00
sg16
g42
sbsg15
I00
sg16
g26
sbsg13
I3
sg15
I01
sg16
g47
sbsg15
I00
sg16
g42
sbsg13
I5
sg15
I01
sg16
g17
sba(imyEvolve
Tree
p930
(dp931
g10
(imyEvolve
Tree
p932
(dp933
g10
(imyEvolve
Tree
p934
(dp935
g7
(imyEvolve
Tree
p936
(dp937
g10
(imyEvolve
Tree
p938
(dp939
g13
I0
sg23
F1.2792557121007562
sg14
I01
sbsg13
I1
sg15
I01
sg16
g57
sbsg13
I2
sg18
(imyEvolve
Tree
p940
(dp941
g7
(imyEvolve
Tree
p942
(dp943
g13
I0
sg14
I00
sbsg13
I1
sg18
(imyEvolve
Tree
p944
(dp945
g13
I0
sg23
F-1.933007594728763
sg14
I01
sbsg15
I00
sg16
g42
sbsg15
I00
sg16
g27
sbsg13
I3
sg15
I01
sg16
g47
sbsg13
I4
sg15
I01
sg16
g57
sba(imyEvolve
Tree
p946
(dp947
g10
(imyEvolve
Tree
p948
(dp949
g13
I1
sg7
(imyEvolve
Tree
p950
(dp951
g13
I0
sg23
F4.475927563865291
sg14
I01
sbsg18
(imyEvolve
Tree
p952
(dp953
g13
I0
sg23
F-1.6379148155362442
sg14
I01
sbsg15
I00
sg16
g26
sbsg13
I2
sg15
I01
sg16
g17
sba(imyEvolve
Tree
p954
(dp955
g10
(imyEvolve
Tree
p956
(dp957
g7
(imyEvolve
Tree
p958
(dp959
g13
I0
sg14
I00
sbsg13
I1
sg18
(imyEvolve
Tree
p960
(dp961
g13
I0
sg23
F2.8982093822512036
sg14
I01
sbsg15
I00
sg16
g42
sbsg13
I2
sg15
I01
sg16
g17
sba(imyEvolve
Tree
p962
(dp963
g7
(imyEvolve
Tree
p964
(dp965
g7
(imyEvolve
Tree
p966
(dp967
g13
I0
sg23
F1.909221571340999
sg14
I01
sbsg13
I1
sg18
(imyEvolve
Tree
p968
(dp969
g13
I0
sg23
F0.1717035768885724
sg14
I01
sbsg15
I00
sg16
g27
sbsg13
I2
sg18
(imyEvolve
Tree
p970
(dp971
g10
(imyEvolve
Tree
p972
(dp973
g13
I0
sg23
F-1.1466521072567781
sg14
I01
sbsg13
I1
sg15
I01
sg16
g57
sbsg15
I00
sg16
g27
sba(imyEvolve
Tree
p974
(dp975
g7
(imyEvolve
Tree
p976
(dp977
g10
(imyEvolve
Tree
p978
(dp979
g13
I0
sg23
F2.0040809612078325
sg14
I01
sbsg13
I1
sg15
I01
sg16
g47
sbsg13
I2
sg18
(imyEvolve
Tree
p980
(dp981
g10
(imyEvolve
Tree
p982
(dp983
g13
I0
sg23
F-1.5210632673941293
sg14
I01
sbsg13
I1
sg15
I01
sg16
g48
sbsg15
I00
sg16
g26
sba(imyEvolve
Tree
p984
(dp985
g10
(imyEvolve
Tree
p986
(dp987
g7
(imyEvolve
Tree
p988
(dp989
g13
I0
sg14
I00
sbsg13
I1
sg18
(imyEvolve
Tree
p990
(dp991
g13
I0
sg23
F-0.5790312302945075
sg14
I01
sbsg15
I00
sg16
g42
sbsg13
I2
sg15
I01
sg16
g57
sba(imyEvolve
Tree
p992
(dp993
g10
(imyEvolve
Tree
p994
(dp995
g10
(imyEvolve
Tree
p996
(dp997
g13
I2
sg7
(imyEvolve
Tree
p998
(dp999
g13
I1
sg7
(imyEvolve
Tree
p1000
(dp1001
g13
I0
sg14
I00
sbsg18
(imyEvolve
Tree
p1002
(dp1003
g13
I0
sg14
I00
sbsg15
I00
sg16
g26
sbsg18
(imyEvolve
Tree
p1004
(dp1005
g13
I1
sg7
(imyEvolve
Tree
p1006
(dp1007
g13
I0
sg14
I00
sbsg18
(imyEvolve
Tree
p1008
(dp1009
g13
I0
sg14
I00
sbsg15
I00
sg16
g26
sbsg15
I00
sg16
g26
sbsg13
I3
sg15
I01
sg16
g57
sbsg13
I4
sg15
I01
sg16
g48
sba(imyEvolve
Tree
p1010
(dp1011
g7
(imyEvolve
Tree
p1012
(dp1013
g10
(imyEvolve
Tree
p1014
(dp1015
g7
(imyEvolve
Tree
p1016
(dp1017
g10
(imyEvolve
Tree
p1018
(dp1019
g13
I0
sg14
I00
sbsg13
I1
sg15
I01
sg16
g57
sbsg13
I2
sg18
(imyEvolve
Tree
p1020
(dp1021
g10
(imyEvolve
Tree
p1022
(dp1023
g13
I0
sg14
I00
sbsg13
I1
sg15
I01
sg16
g17
sbsg15
I00
sg16
g26
sbsg13
I3
sg15
I01
sg16
g17
sbsg13
I4
sg18
(imyEvolve
Tree
p1024
(dp1025
g7
(imyEvolve
Tree
p1026
(dp1027
g7
(imyEvolve
Tree
p1028
(dp1029
g7
(imyEvolve
Tree
p1030
(dp1031
g13
I0
sg14
I00
sbsg13
I1
sg18
(imyEvolve
Tree
p1032
(dp1033
g13
I0
sg14
I00
sbsg15
I00
sg16
g26
sbsg13
I2
sg18
(imyEvolve
Tree
p1034
(dp1035
g7
(imyEvolve
Tree
p1036
(dp1037
g13
I0
sg14
I00
sbsg13
I1
sg18
(imyEvolve
Tree
p1038
(dp1039
g13
I0
sg23
F-4.292855173402083
sg14
I01
sbsg15
I00
sg16
g26
sbsg15
I00
sg16
g27
sbsg13
I3
sg18
(imyEvolve
Tree
p1040
(dp1041
g7
(imyEvolve
Tree
p1042
(dp1043
g7
(imyEvolve
Tree
p1044
(dp1045
g13
I0
sg23
F0.9988886356081705
sg14
I01
sbsg13
I1
sg18
(imyEvolve
Tree
p1046
(dp1047
g13
I0
sg14
I00
sbsg15
I00
sg16
g26
sbsg13
I2
sg18
(imyEvolve
Tree
p1048
(dp1049
g7
(imyEvolve
Tree
p1050
(dp1051
g13
I0
sg23
F4.1500390802141
sg14
I01
sbsg13
I1
sg18
(imyEvolve
Tree
p1052
(dp1053
g13
I0
sg14
I00
sbsg15
I00
sg16
g26
sbsg15
I00
sg16
g42
sbsg15
I00
sg16
g27
sbsg15
I00
sg16
g26
sbaa(lp1054
(imyEvolve
Tree
p1055
(dp1056
g7
(imyEvolve
Tree
p1057
(dp1058
g7
(imyEvolve
Tree
p1059
(dp1060
g7
(imyEvolve
Tree
p1061
(dp1062
g7
(imyEvolve
Tree
p1063
(dp1064
g10
(imyEvolve
Tree
p1065
(dp1066
g13
I0
sg14
I00
sbsg13
I1
sg15
I01
sg16
g48
sbsg13
I2
sg18
(imyEvolve
Tree
p1067
(dp1068
g7
(imyEvolve
Tree
p1069
(dp1070
g13
I0
sg23
F-2.743911455839384
sg14
I01
sbsg13
I1
sg18
(imyEvolve
Tree
p1071
(dp1072
g13
I0
sg23
F-1.7772390996308953
sg14
I01
sbsg15
I00
sg16
g42
sbsg15
I00
sg16
g27
sbsg13
I3
sg18
(imyEvolve
Tree
p1073
(dp1074
g10
(imyEvolve
Tree
p1075
(dp1076
g7
(imyEvolve
Tree
p1077
(dp1078
g13
I0
sg23
F1.1383517873787063
sg14
I01
sbsg13
I1
sg18
(imyEvolve
Tree
p1079
(dp1080
g13
I0
sg23
F-4.877651328175979
sg14
I01
sbsg15
I00
sg16
g27
sbsg13
I2
sg15
I01
sg16
g47
sbsg15
I00
sg16
g42
sbsg13
I4
sg18
(imyEvolve
Tree
p1081
(dp1082
g7
(imyEvolve
Tree
p1083
(dp1084
g10
(imyEvolve
Tree
p1085
(dp1086
g10
(imyEvolve
Tree
p1087
(dp1088
g13
I0
sg14
I00
sbsg13
I1
sg15
I01
sg16
g47
sbsg13
I2
sg15
I01
sg16
g47
sbsg13
I3
sg18
(imyEvolve
Tree
p1089
(dp1090
g7
(imyEvolve
Tree
p1091
(dp1092
g10
(imyEvolve
Tree
p1093
(dp1094
g13
I0
sg14
I00
sbsg13
I1
sg15
I01
sg16
g48
sbsg13
I2
sg18
(imyEvolve
Tree
p1095
(dp1096
g10
(imyEvolve
Tree
p1097
(dp1098
g13
I0
sg14
I00
sbsg13
I1
sg15
I01
sg16
g48
sbsg15
I00
sg16
g27
sbsg15
I00
sg16
g27
sbsg15
I00
sg16
g27
sbsg13
I5
sg18
(imyEvolve
Tree
p1099
(dp1100
g10
(imyEvolve
Tree
p1101
(dp1102
g10
(imyEvolve
Tree
p1103
(dp1104
g10
(imyEvolve
Tree
p1105
(dp1106
g10
(imyEvolve
Tree
p1107
(dp1108
g13
I0
sg14
I00
sbsg13
I1
sg15
I01
sg16
g48
sbsg13
I2
sg15
I01
sg16
g48
sbsg13
I3
sg15
I01
sg16
g47
sbsg13
I4
sg15
I01
sg16
g48
sbsg15
I00
sg16
g42
sba(imyEvolve
Tree
p1109
(dp1110
g10
(imyEvolve
Tree
p1111
(dp1112
g7
(imyEvolve
Tree
p1113
(dp1114
g13
I0
sg14
I00
sbsg13
I1
sg18
(imyEvolve
Tree
p1115
(dp1116
g13
I0
sg14
I00
sbsg15
I00
sg16
g26
sbsg13
I2
sg15
I01
sg16
g57
sba(imyEvolve
Tree
p1117
(dp1118
g13
I3
sg7
(imyEvolve
Tree
p1119
(dp1120
g10
(imyEvolve
Tree
p1121
(dp1122
g10
(imyEvolve
Tree
p1123
(dp1124
g13
I0
sg14
I00
sbsg13
I1
sg15
I01
sg16
g57
sbsg13
I2
sg15
I01
sg16
g57
sbsg18
(imyEvolve
Tree
p1125
(dp1126
g13
I2
sg7
(imyEvolve
Tree
p1127
(dp1128
g10
(imyEvolve
Tree
p1129
(dp1130
g13
I0
sg23
F-0.785367343634439
sg14
I01
sbsg13
I1
sg15
I01
sg16
g48
sbsg18
(imyEvolve
Tree
p1131
(dp1132
g10
(imyEvolve
Tree
p1133
(dp1134
g13
I0
sg14
I00
sbsg13
I1
sg15
I01
sg16
g47
sbsg15
I00
sg16
g27
sbsg15
I00
sg16
g42
sba(imyEvolve
Tree
p1135
(dp1136
g10
(imyEvolve
Tree
p1137
(dp1138
g10
(imyEvolve
Tree
p1139
(dp1140
g13
I2
sg7
(imyEvolve
Tree
p1141
(dp1142
g10
(imyEvolve
Tree
p1143
(dp1144
g13
I0
sg23
F-3.8458166427383746
sg14
I01
sbsg13
I1
sg15
I01
sg16
g48
sbsg18
(imyEvolve
Tree
p1145
(dp1146
g13
I1
sg7
(imyEvolve
Tree
p1147
(dp1148
g13
I0
sg23
F-0.5297575390351907
sg14
I01
sbsg18
(imyEvolve
Tree
p1149
(dp1150
g13
I0
sg23
F0.5367637201671638
sg14
I01
sbsg15
I00
sg16
g42
sbsg15
I00
sg16
g26
sbsg13
I3
sg15
I01
sg16
g47
sbsg13
I4
sg15
I01
sg16
g17
sba(imyEvolve
Tree
p1151
(dp1152
g7
(imyEvolve
Tree
p1153
(dp1154
g10
(imyEvolve
Tree
p1155
(dp1156
g10
(imyEvolve
Tree
p1157
(dp1158
g10
(imyEvolve
Tree
p1159
(dp1160
g10
(imyEvolve
Tree
p1161
(dp1162
g13
I0
sg23
F-3.001831422167476
sg14
I01
sbsg13
I1
sg15
I01
sg16
g48
sbsg13
I2
sg15
I01
sg16
g47
sbsg13
I3
sg15
I01
sg16
g47
sbsg13
I4
sg15
I01
sg16
g48
sbsg13
I5
sg18
(imyEvolve
Tree
p1163
(dp1164
g7
(imyEvolve
Tree
p1165
(dp1166
g10
(imyEvolve
Tree
p1167
(dp1168
g7
(imyEvolve
Tree
p1169
(dp1170
g10
(imyEvolve
Tree
p1171
(dp1172
g13
I0
sg23
F-1.8652378696750205
sg14
I01
sbsg13
I1
sg15
I01
sg16
g48
sbsg13
I2
sg18
(imyEvolve
Tree
p1173
(dp1174
g10
(imyEvolve
Tree
p1175
(dp1176
g13
I0
sg23
F0.2310779613222298
sg14
I01
sbsg13
I1
sg15
I01
sg16
g17
sbsg15
I00
sg16
g26
sbsg13
I3
sg15
I01
sg16
g17
sbsg13
I4
sg18
(imyEvolve
Tree
p1177
(dp1178
g10
(imyEvolve
Tree
p1179
(dp1180
g10
(imyEvolve
Tree
p1181
(dp1182
g10
(imyEvolve
Tree
p1183
(dp1184
g13
I0
sg14
I00
sbsg13
I1
sg15
I01
sg16
g17
sbsg13
I2
sg15
I01
sg16
g48
sbsg13
I3
sg15
I01
sg16
g47
sbsg15
I00
sg16
g26
sbsg15
I00
sg16
g26
sba(imyEvolve
Tree
p1185
(dp1186
g10
(imyEvolve
Tree
p1187
(dp1188
g7
(imyEvolve
Tree
p1189
(dp1190
g13
I0
sg14
I00
sbsg13
I1
sg18
(imyEvolve
Tree
p1191
(dp1192
g13
I0
sg23
F3.0381287702462316
sg14
I01
sbsg15
I00
sg16
g26
sbsg13
I2
sg15
I01
sg16
g48
sba(imyEvolve
Tree
p1193
(dp1194
g10
(imyEvolve
Tree
p1195
(dp1196
g7
(imyEvolve
Tree
p1197
(dp1198
g10
(imyEvolve
Tree
p1199
(dp1200
g7
(imyEvolve
Tree
p1201
(dp1202
g13
I0
sg14
I00
sbsg13
I1
sg18
(imyEvolve
Tree
p1203
(dp1204
g13
I0
sg14
I00
sbsg15
I00
sg16
g26
sbsg13
I2
sg15
I01
sg16
g17
sbsg13
I3
sg18
(imyEvolve
Tree
p1205
(dp1206
g7
(imyEvolve
Tree
p1207
(dp1208
g10
(imyEvolve
Tree
p1209
(dp1210
g13
I0
sg23
F4.360322128616529
sg14
I01
sbsg13
I1
sg15
I01
sg16
g57
sbsg13
I2
sg18
(imyEvolve
Tree
p1211
(dp1212
g7
(imyEvolve
Tree
p1213
(dp1214
g13
I0
sg23
F-2.5715432634681177
sg14
I01
sbsg13
I1
sg18
(imyEvolve
Tree
p1215
(dp1216
g13
I0
sg23
F1.2020753961071318
sg14
I01
sbsg15
I00
sg16
g27
sbsg15
I00
sg16
g26
sbsg15
I00
sg16
g42
sbsg13
I4
sg15
I01
sg16
g47
sba(imyEvolve
Tree
p1217
(dp1218
g10
(imyEvolve
Tree
p1219
(dp1220
g13
I2
sg7
(imyEvolve
Tree
p1221
(dp1222
g10
(imyEvolve
Tree
p1223
(dp1224
g13
I0
sg14
I00
sbsg13
I1
sg15
I01
sg16
g47
sbsg18
(imyEvolve
Tree
p1225
(dp1226
g13
I1
sg7
(imyEvolve
Tree
p1227
(dp1228
g13
I0
sg14
I00
sbsg18
(imyEvolve
Tree
p1229
(dp1230
g13
I0
sg23
F2.841637697156604
sg14
I01
sbsg15
I00
sg16
g42
sbsg15
I00
sg16
g42
sbsg13
I3
sg15
I01
sg16
g48
sba(imyEvolve
Tree
p1231
(dp1232
g7
(imyEvolve
Tree
p1233
(dp1234
g10
(imyEvolve
Tree
p1235
(dp1236
g13
I0
sg23
F-4.313384958442853
sg14
I01
sbsg13
I1
sg15
I01
sg16
g48
sbsg13
I2
sg18
(imyEvolve
Tree
p1237
(dp1238
g7
(imyEvolve
Tree
p1239
(dp1240
g13
I0
sg23
F2.748024528332609
sg14
I01
sbsg13
I1
sg18
(imyEvolve
Tree
p1241
(dp1242
g13
I0
sg14
I00
sbsg15
I00
sg16
g26
sbsg15
I00
sg16
g26
sba(imyEvolve
Tree
p1243
(dp1244
g10
(imyEvolve
Tree
p1245
(dp1246
g13
I1
sg7
(imyEvolve
Tree
p1247
(dp1248
g13
I0
sg23
F0.7358751776087473
sg14
I01
sbsg18
(imyEvolve
Tree
p1249
(dp1250
g13
I0
sg14
I00
sbsg15
I00
sg16
g26
sbsg13
I2
sg15
I01
sg16
g48
sba(imyEvolve
Tree
p1251
(dp1252
g10
(imyEvolve
Tree
p1253
(dp1254
g10
(imyEvolve
Tree
p1255
(dp1256
g13
I0
sg23
F2.291281480866145
sg14
I01
sbsg13
I1
sg15
I01
sg16
g48
sbsg13
I2
sg15
I01
sg16
g57
sba(imyEvolve
Tree
p1257
(dp1258
g10
(imyEvolve
Tree
p1259
(dp1260
g10
(imyEvolve
Tree
p1261
(dp1262
g10
(imyEvolve
Tree
p1263
(dp1264
g13
I0
sg23
F-0.2566455936625287
sg14
I01
sbsg13
I1
sg15
I01
sg16
g17
sbsg13
I2
sg15
I01
sg16
g57
sbsg13
I3
sg15
I01
sg16
g57
sba(imyEvolve
Tree
p1265
(dp1266
g10
(imyEvolve
Tree
p1267
(dp1268
g7
(imyEvolve
Tree
p1269
(dp1270
g7
(imyEvolve
Tree
p1271
(dp1272
g7
(imyEvolve
Tree
p1273
(dp1274
g7
(imyEvolve
Tree
p1275
(dp1276
g13
I0
sg14
I00
sbsg13
I1
sg18
(imyEvolve
Tree
p1277
(dp1278
g13
I0
sg23
F-4.549928205391498
sg14
I01
sbsg15
I00
sg16
g42
sbsg13
I2
sg18
(imyEvolve
Tree
p1279
(dp1280
g10
(imyEvolve
Tree
p1281
(dp1282
g13
I0
sg14
I00
sbsg13
I1
sg15
I01
sg16
g48
sbsg15
I00
sg16
g26
sbsg13
I3
sg18
(imyEvolve
Tree
p1283
(dp1284
g10
(imyEvolve
Tree
p1285
(dp1286
g10
(imyEvolve
Tree
p1287
(dp1288
g13
I0
sg23
F-2.3494068433804207
sg14
I01
sbsg13
I1
sg15
I01
sg16
g57
sbsg13
I2
sg15
I01
sg16
g47
sbsg15
I00
sg16
g26
sbsg13
I4
sg18
(imyEvolve
Tree
p1289
(dp1290
g10
(imyEvolve
Tree
p1291
(dp1292
g10
(imyEvolve
Tree
p1293
(dp1294
g7
(imyEvolve
Tree
p1295
(dp1296
g13
I0
sg23
F3.9893312898646816
sg14
I01
sbsg13
I1
sg18
(imyEvolve
Tree
p1297
(dp1298
g13
I0
sg23
F0.4108753836374843
sg14
I01
sbsg15
I00
sg16
g26
sbsg13
I2
sg15
I01
sg16
g57
sbsg13
I3
sg15
I01
sg16
g17
sbsg15
I00
sg16
g26
sbsg13
I5
sg15
I01
sg16
g17
sba(imyEvolve
Tree
p1299
(dp1300
g10
(imyEvolve
Tree
p1301
(dp1302
g10
(imyEvolve
Tree
p1303
(dp1304
g10
(imyEvolve
Tree
p1305
(dp1306
g13
I0
sg14
I00
sbsg13
I1
sg15
I01
sg16
g17
sbsg13
I2
sg15
I01
sg16
g48
sbsg13
I3
sg15
I01
sg16
g47
sba(imyEvolve
Tree
p1307
(dp1308
g7
(imyEvolve
Tree
p1309
(dp1310
g7
(imyEvolve
Tree
p1311
(dp1312
g10
(imyEvolve
Tree
p1313
(dp1314
g7
(imyEvolve
Tree
p1315
(dp1316
g7
(imyEvolve
Tree
p1317
(dp1318
g13
I0
sg23
F-2.467032713470868
sg14
I01
sbsg13
I1
sg18
(imyEvolve
Tree
p1319
(dp1320
g13
I0
sg14
I00
sbsg15
I00
sg16
g42
sbsg13
I2
sg18
(imyEvolve
Tree
p1321
(dp1322
g7
(imyEvolve
Tree
p1323
(dp1324
g13
I0
sg14
I00
sbsg13
I1
sg18
(imyEvolve
Tree
p1325
(dp1326
g13
I0
sg14
I00
sbsg15
I00
sg16
g26
sbsg15
I00
sg16
g27
sbsg13
I3
sg15
I01
sg16
g47
sbsg13
I4
sg18
(imyEvolve
Tree
p1327
(dp1328
g7
(imyEvolve
Tree
p1329
(dp1330
g7
(imyEvolve
Tree
p1331
(dp1332
g10
(imyEvolve
Tree
p1333
(dp1334
g13
I0
sg23
F-4.044949353974122
sg14
I01
sbsg13
I1
sg15
I01
sg16
g57
sbsg13
I2
sg18
(imyEvolve
Tree
p1335
(dp1336
g10
(imyEvolve
Tree
p1337
(dp1338
g13
I0
sg23
F0.6881346226531369
sg14
I01
sbsg13
I1
sg15
I01
sg16
g47
sbsg15
I00
sg16
g42
sbsg13
I3
sg18
(imyEvolve
Tree
p1339
(dp1340
g7
(imyEvolve
Tree
p1341
(dp1342
g10
(imyEvolve
Tree
p1343
(dp1344
g13
I0
sg23
F-1.9785211056273355
sg14
I01
sbsg13
I1
sg15
I01
sg16
g17
sbsg13
I2
sg18
(imyEvolve
Tree
p1345
(dp1346
g10
(imyEvolve
Tree
p1347
(dp1348
g13
I0
sg23
F-2.121036572475361
sg14
I01
sbsg13
I1
sg15
I01
sg16
g47
sbsg15
I00
sg16
g42
sbsg15
I00
sg16
g27
sbsg15
I00
sg16
g42
sbsg13
I5
sg18
(imyEvolve
Tree
p1349
(dp1350
g7
(imyEvolve
Tree
p1351
(dp1352
g10
(imyEvolve
Tree
p1353
(dp1354
g7
(imyEvolve
Tree
p1355
(dp1356
g7
(imyEvolve
Tree
p1357
(dp1358
g13
I0
sg23
F-4.6253276190621495
sg14
I01
sbsg13
I1
sg18
(imyEvolve
Tree
p1359
(dp1360
g13
I0
sg23
F-3.0818344043489496
sg14
I01
sbsg15
I00
sg16
g26
sbsg13
I2
sg18
(imyEvolve
Tree
p1361
(dp1362
g10
(imyEvolve
Tree
p1363
(dp1364
g13
I0
sg23
F3.7202326780769255
sg14
I01
sbsg13
I1
sg15
I01
sg16
g48
sbsg15
I00
sg16
g42
sbsg13
I3
sg15
I01
sg16
g47
sbsg13
I4
sg18
(imyEvolve
Tree
p1365
(dp1366
g7
(imyEvolve
Tree
p1367
(dp1368
g10
(imyEvolve
Tree
p1369
(dp1370
g7
(imyEvolve
Tree
p1371
(dp1372
g13
I0
sg23
F1.2134502705780923
sg14
I01
sbsg13
I1
sg18
(imyEvolve
Tree
p1373
(dp1374
g13
I0
sg14
I00
sbsg15
I00
sg16
g42
sbsg13
I2
sg15
I01
sg16
g17
sbsg13
I3
sg18
(imyEvolve
Tree
p1375
(dp1376
g10
(imyEvolve
Tree
p1377
(dp1378
g10
(imyEvolve
Tree
p1379
(dp1380
g13
I0
sg14
I00
sbsg13
I1
sg15
I01
sg16
g57
sbsg13
I2
sg15
I01
sg16
g17
sbsg15
I00
sg16
g27
sbsg15
I00
sg16
g26
sbsg15
I00
sg16
g42
sba(imyEvolve
Tree
p1381
(dp1382
g10
(imyEvolve
Tree
p1383
(dp1384
g7
(imyEvolve
Tree
p1385
(dp1386
g13
I0
sg14
I00
sbsg13
I1
sg18
(imyEvolve
Tree
p1387
(dp1388
g13
I0
sg23
F-4.581935344887381
sg14
I01
sbsg15
I00
sg16
g26
sbsg13
I2
sg15
I01
sg16
g57
sba(imyEvolve
Tree
p1389
(dp1390
g10
(imyEvolve
Tree
p1391
(dp1392
g10
(imyEvolve
Tree
p1393
(dp1394
g10
(imyEvolve
Tree
p1395
(dp1396
g7
(imyEvolve
Tree
p1397
(dp1398
g13
I0
sg14
I00
sbsg13
I1
sg18
(imyEvolve
Tree
p1399
(dp1400
g13
I0
sg23
F-1.332505910564369
sg14
I01
sbsg15
I00
sg16
g26
sbsg13
I2
sg15
I01
sg16
g57
sbsg13
I3
sg15
I01
sg16
g47
sbsg13
I4
sg15
I01
sg16
g48
sba(imyEvolve
Tree
p1401
(dp1402
g7
(imyEvolve
Tree
p1403
(dp1404
g7
(imyEvolve
Tree
p1405
(dp1406
g10
(imyEvolve
Tree
p1407
(dp1408
g10
(imyEvolve
Tree
p1409
(dp1410
g10
(imyEvolve
Tree
p1411
(dp1412
g13
I0
sg23
F-1.2940471204908919
sg14
I01
sbsg13
I1
sg15
I01
sg16
g48
sbsg13
I2
sg15
I01
sg16
g48
sbsg13
I3
sg15
I01
sg16
g57
sbsg13
I4
sg18
(imyEvolve
Tree
p1413
(dp1414
g7
(imyEvolve
Tree
p1415
(dp1416
g7
(imyEvolve
Tree
p1417
(dp1418
g10
(imyEvolve
Tree
p1419
(dp1420
g13
I0
sg23
F0.8758270607402752
sg14
I01
sbsg13
I1
sg15
I01
sg16
g17
sbsg13
I2
sg18
(imyEvolve
Tree
p1421
(dp1422
g10
(imyEvolve
Tree
p1423
(dp1424
g13
I0
sg23
F3.72760214680579
sg14
I01
sbsg13
I1
sg15
I01
sg16
g47
sbsg15
I00
sg16
g42
sbsg13
I3
sg18
(imyEvolve
Tree
p1425
(dp1426
g7
(imyEvolve
Tree
p1427
(dp1428
g7
(imyEvolve
Tree
p1429
(dp1430
g13
I0
sg14
I00
sbsg13
I1
sg18
(imyEvolve
Tree
p1431
(dp1432
g13
I0
sg14
I00
sbsg15
I00
sg16
g27
sbsg13
I2
sg18
(imyEvolve
Tree
p1433
(dp1434
g7
(imyEvolve
Tree
p1435
(dp1436
g13
I0
sg14
I00
sbsg13
I1
sg18
(imyEvolve
Tree
p1437
(dp1438
g13
I0
sg14
I00
sbsg15
I00
sg16
g26
sbsg15
I00
sg16
g26
sbsg15
I00
sg16
g26
sbsg15
I00
sg16
g27
sbsg13
I5
sg18
(imyEvolve
Tree
p1439
(dp1440
g10
(imyEvolve
Tree
p1441
(dp1442
g10
(imyEvolve
Tree
p1443
(dp1444
g7
(imyEvolve
Tree
p1445
(dp1446
g10
(imyEvolve
Tree
p1447
(dp1448
g13
I0
sg14
I00
sbsg13
I1
sg15
I01
sg16
g17
sbsg13
I2
sg18
(imyEvolve
Tree
p1449
(dp1450
g7
(imyEvolve
Tree
p1451
(dp1452
g13
I0
sg14
I00
sbsg13
I1
sg18
(imyEvolve
Tree
p1453
(dp1454
g13
I0
sg23
F-4.829857477061563
sg14
I01
sbsg15
I00
sg16
g27
sbsg15
I00
sg16
g27
sbsg13
I3
sg15
I01
sg16
g47
sbsg13
I4
sg15
I01
sg16
g48
sbsg15
I00
sg16
g42
sba(imyEvolve
Tree
p1455
(dp1456
g10
(imyEvolve
Tree
p1457
(dp1458
g10
(imyEvolve
Tree
p1459
(dp1460
g10
(imyEvolve
Tree
p1461
(dp1462
g7
(imyEvolve
Tree
p1463
(dp1464
g10
(imyEvolve
Tree
p1465
(dp1466
g13
I0
sg23
F3.652123850910918
sg14
I01
sbsg13
I1
sg15
I01
sg16
g48
sbsg13
I2
sg18
(imyEvolve
Tree
p1467
(dp1468
g10
(imyEvolve
Tree
p1469
(dp1470
g13
I0
sg14
I00
sbsg13
I1
sg15
I01
sg16
g48
sbsg15
I00
sg16
g26
sbsg13
I3
sg15
I01
sg16
g48
sbsg13
I4
sg15
I01
sg16
g48
sbsg13
I5
sg15
I01
sg16
g17
sbaa(lp1471
(imyEvolve
Tree
p1472
(dp1473
g13
I4
sg7
(imyEvolve
Tree
p1474
(dp1475
g13
I3
sg7
(imyEvolve
Tree
p1476
(dp1477
g13
I2
sg7
(imyEvolve
Tree
p1478
(dp1479
g13
I1
sg7
(imyEvolve
Tree
p1480
(dp1481
g13
I0
sg23
F3.3177688596965
sg14
I01
sbsg18
(imyEvolve
Tree
p1482
(dp1483
g13
I0
sg14
I00
sbsg15
I00
sg16
g42
sbsg18
(imyEvolve
Tree
p1484
(dp1485
g13
I1
sg7
(imyEvolve
Tree
p1486
(dp1487
g13
I0
sg23
F-3.494096258721261
sg14
I01
sbsg18
(imyEvolve
Tree
p1488
(dp1489
g13
I0
sg23
F4.408061835683476
sg14
I01
sbsg15
I00
sg16
g27
sbsg15
I00
sg16
g26
sbsg18
(imyEvolve
Tree
p1490
(dp1491
g10
(imyEvolve
Tree
p1492
(dp1493
g10
(imyEvolve
Tree
p1494
(dp1495
g13
I0
sg23
F-1.3572144776519557
sg14
I01
sbsg13
I1
sg15
I01
sg16
g47
sbsg13
I2
sg15
I01
sg16
g47
sbsg15
I00
sg16
g42
sbsg18
(imyEvolve
Tree
p1496
(dp1497
g10
(imyEvolve
Tree
p1498
(dp1499
g13
I2
sg7
(imyEvolve
Tree
p1500
(dp1501
g10
(imyEvolve
Tree
p1502
(dp1503
g13
I0
sg14
I00
sbsg13
I1
sg15
I01
sg16
g17
sbsg18
(imyEvolve
Tree
p1504
(dp1505
g13
I1
sg7
(imyEvolve
Tree
p1506
(dp1507
g13
I0
sg23
F-2.6686945408218077
sg14
I01
sbsg18
(imyEvolve
Tree
p1508
(dp1509
g13
I0
sg23
F-3.6468736491611455
sg14
I01
sbsg15
I00
sg16
g42
sbsg15
I00
sg16
g42
sbsg13
I3
sg15
I01
sg16
g57
sbsg15
I00
sg16
g27
sba(imyEvolve
Tree
p1510
(dp1511
g7
(imyEvolve
Tree
p1512
(dp1513
g7
(imyEvolve
Tree
p1514
(dp1515
g10
(imyEvolve
Tree
p1516
(dp1517
g7
(imyEvolve
Tree
p1518
(dp1519
g13
I0
sg14
I00
sbsg13
I1
sg18
(imyEvolve
Tree
p1520
(dp1521
g13
I0
sg23
F-4.745495492891818
sg14
I01
sbsg15
I00
sg16
g27
sbsg13
I2
sg15
I01
sg16
g47
sbsg13
I3
sg18
(imyEvolve
Tree
p1522
(dp1523
g10
(imyEvolve
Tree
p1524
(dp1525
g10
(imyEvolve
Tree
p1526
(dp1527
g13
I0
sg23
F-4.665731917359209
sg14
I01
sbsg13
I1
sg15
I01
sg16
g47
sbsg13
I2
sg15
I01
sg16
g17
sbsg15
I00
sg16
g27
sbsg13
I4
sg18
(imyEvolve
Tree
p1528
(dp1529
g7
(imyEvolve
Tree
p1530
(dp1531
g7
(imyEvolve
Tree
p1532
(dp1533
g7
(imyEvolve
Tree
p1534
(dp1535
g13
I0
sg23
F3.7323650779383666
sg14
I01
sbsg13
I1
sg18
(imyEvolve
Tree
p1536
(dp1537
g13
I0
sg23
F-3.7244465804849303
sg14
I01
sbsg15
I00
sg16
g26
sbsg13
I2
sg18
(imyEvolve
Tree
p1538
(dp1539
g10
(imyEvolve
Tree
p1540
(dp1541
g13
I0
sg23
F2.580782864962413
sg14
I01
sbsg13
I1
sg15
I01
sg16
g17
sbsg15
I00
sg16
g26
sbsg13
I3
sg18
(imyEvolve
Tree
p1542
(dp1543
g10
(imyEvolve
Tree
p1544
(dp1545
g10
(imyEvolve
Tree
p1546
(dp1547
g13
I0
sg23
F1.5516209349817087
sg14
I01
sbsg13
I1
sg15
I01
sg16
g57
sbsg13
I2
sg15
I01
sg16
g17
sbsg15
I00
sg16
g27
sbsg15
I00
sg16
g26
sba(imyEvolve
Tree
p1548
(dp1549
g10
(imyEvolve
Tree
p1550
(dp1551
g13
I4
sg7
(imyEvolve
Tree
p1552
(dp1553
g10
(imyEvolve
Tree
p1554
(dp1555
g10
(imyEvolve
Tree
p1556
(dp1557
g13
I1
sg7
(imyEvolve
Tree
p1558
(dp1559
g13
I0
sg14
I00
sbsg18
(imyEvolve
Tree
p1560
(dp1561
g13
I0
sg14
I00
sbsg15
I00
sg16
g26
sbsg13
I2
sg15
I01
sg16
g48
sbsg13
I3
sg15
I01
sg16
g17
sbsg18
(imyEvolve
Tree
p1562
(dp1563
g10
(imyEvolve
Tree
p1564
(dp1565
g10
(imyEvolve
Tree
p1566
(dp1567
g13
I1
sg7
(imyEvolve
Tree
p1568
(dp1569
g13
I0
sg23
F1.1451555444019625
sg14
I01
sbsg18
(imyEvolve
Tree
p1570
(dp1571
g13
I0
sg14
I00
sbsg15
I00
sg16
g42
sbsg13
I2
sg15
I01
sg16
g17
sbsg13
I3
sg15
I01
sg16
g48
sbsg15
I00
sg16
g27
sbsg13
I5
sg15
I01
sg16
g47
sba(imyEvolve
Tree
p1572
(dp1573
g10
(imyEvolve
Tree
p1574
(dp1575
g10
(imyEvolve
Tree
p1576
(dp1577
g7
(imyEvolve
Tree
p1578
(dp1579
g7
(imyEvolve
Tree
p1580
(dp1581
g13
I0
sg23
F4.790517447131739
sg14
I01
sbsg13
I1
sg18
(imyEvolve
Tree
p1582
(dp1583
g13
I0
sg14
I00
sbsg15
I00
sg16
g27
sbsg13
I2
sg18
(imyEvolve
Tree
p1584
(dp1585
g10
(imyEvolve
Tree
p1586
(dp1587
g13
I0
sg14
I00
sbsg13
I1
sg15
I01
sg16
g47
sbsg15
I00
sg16
g26
sbsg13
I3
sg15
I01
sg16
g47
sbsg13
I4
sg15
I01
sg16
g57
sba(imyEvolve
Tree
p1588
(dp1589
g10
(imyEvolve
Tree
p1590
(dp1591
g10
(imyEvolve
Tree
p1592
(dp1593
g7
(imyEvolve
Tree
p1594
(dp1595
g13
I0
sg23
F-3.1681336061847887
sg14
I01
sbsg13
I1
sg18
(imyEvolve
Tree
p1596
(dp1597
g13
I0
sg23
F-0.1440430449900143
sg14
I01
sbsg15
I00
sg16
g27
sbsg13
I2
sg15
I01
sg16
g48
sbsg13
I3
sg15
I01
sg16
g57
sba(imyEvolve
Tree
p1598
(dp1599
g7
(imyEvolve
Tree
p1600
(dp1601
g7
(imyEvolve
Tree
p1602
(dp1603
g13
I0
sg23
F0.1284264709628129
sg14
I01
sbsg13
I1
sg18
(imyEvolve
Tree
p1604
(dp1605
g13
I0
sg14
I00
sbsg15
I00
sg16
g26
sbsg13
I2
sg18
(imyEvolve
Tree
p1606
(dp1607
g10
(imyEvolve
Tree
p1608
(dp1609
g13
I0
sg14
I00
sbsg13
I1
sg15
I01
sg16
g47
sbsg15
I00
sg16
g27
sba(imyEvolve
Tree
p1610
(dp1611
g10
(imyEvolve
Tree
p1612
(dp1613
g7
(imyEvolve
Tree
p1614
(dp1615
g10
(imyEvolve
Tree
p1616
(dp1617
g13
I0
sg14
I00
sbsg13
I1
sg15
I01
sg16
g57
sbsg13
I2
sg18
(imyEvolve
Tree
p1618
(dp1619
g10
(imyEvolve
Tree
p1620
(dp1621
g13
I0
sg23
F1.592690586619642
sg14
I01
sbsg13
I1
sg15
I01
sg16
g57
sbsg15
I00
sg16
g42
sbsg13
I3
sg15
I01
sg16
g48
sba(imyEvolve
Tree
p1622
(dp1623
g10
(imyEvolve
Tree
p1624
(dp1625
g10
(imyEvolve
Tree
p1626
(dp1627
g10
(imyEvolve
Tree
p1628
(dp1629
g7
(imyEvolve
Tree
p1630
(dp1631
g13
I0
sg14
I00
sbsg13
I1
sg18
(imyEvolve
Tree
p1632
(dp1633
g13
I0
sg14
I00
sbsg15
I00
sg16
g42
sbsg13
I2
sg15
I01
sg16
g47
sbsg13
I3
sg15
I01
sg16
g17
sbsg13
I4
sg15
I01
sg16
g48
sba(imyEvolve
Tree
p1634
(dp1635
g10
(imyEvolve
Tree
p1636
(dp1637
g10
(imyEvolve
Tree
p1638
(dp1639
g7
(imyEvolve
Tree
p1640
(dp1641
g10
(imyEvolve
Tree
p1642
(dp1643
g7
(imyEvolve
Tree
p1644
(dp1645
g13
I0
sg23
F-0.6080087650503998
sg14
I01
sbsg13
I1
sg18
(imyEvolve
Tree
p1646
(dp1647
g13
I0
sg14
I00
sbsg15
I00
sg16
g27
sbsg13
I2
sg15
I01
sg16
g47
sbsg13
I3
sg18
(imyEvolve
Tree
p1648
(dp1649
g10
(imyEvolve
Tree
p1650
(dp1651
g7
(imyEvolve
Tree
p1652
(dp1653
g13
I0
sg23
F-3.4187239164983896
sg14
I01
sbsg13
I1
sg18
(imyEvolve
Tree
p1654
(dp1655
g13
I0
sg23
F2.8769472926969497
sg14
I01
sbsg15
I00
sg16
g42
sbsg13
I2
sg15
I01
sg16
g57
sbsg15
I00
sg16
g42
sbsg13
I4
sg15
I01
sg16
g48
sbsg13
I5
sg15
I01
sg16
g17
sba(imyEvolve
Tree
p1656
(dp1657
g10
(imyEvolve
Tree
p1658
(dp1659
g10
(imyEvolve
Tree
p1660
(dp1661
g10
(imyEvolve
Tree
p1662
(dp1663
g10
(imyEvolve
Tree
p1664
(dp1665
g13
I0
sg23
F4.441685344314276
sg14
I01
sbsg13
I1
sg15
I01
sg16
g47
sbsg13
I2
sg15
I01
sg16
g17
sbsg13
I3
sg15
I01
sg16
g48
sbsg13
I4
sg15
I01
sg16
g48
sbaasS'alpha'
p1666
F0.006235283429227879
sS'fitness'
p1667
cnumpy.core.multiarray
scalar
p1668
(cnumpy
dtype
p1669
(S'f8'
p1670
I0
I1
tp1671
Rp1672
(I3
S'<'
p1673
NNNI-1
I-1
I0
tp1674
bS'\x00\xe8\xfb\xa91\x87A?'
p1675
tp1676
Rp1677
sS'weightSharing'
p1678
(lp1679
I00
aI00
asS'fitnessValid'
p1680
I00
sS'resolution'
p1681
I84
sb.