(imyEvolve
Individual
p0
(dp1
S'funcs'
p2
(lp3
(lp4
(imyEvolve
Tree
p5
(dp6
S'below'
p7
(imyEvolve
Tree
p8
(dp9
g7
(imyEvolve
Tree
p10
(dp11
S'depth'
p12
I0
sS'constant'
p13
F-0.3412334546960487
sS'isConstant'
p14
I01
sbsg12
I1
sS'single'
p15
I01
sS'op'
p16
cmath
cos
p17
sbsg12
I2
sg15
I01
sg16
cmyEvolve
absSqrt
p18
sba(imyEvolve
Tree
p19
(dp20
g7
(imyEvolve
Tree
p21
(dp22
g7
(imyEvolve
Tree
p23
(dp24
g12
I2
sS'left'
p25
(imyEvolve
Tree
p26
(dp27
g12
I1
sg25
(imyEvolve
Tree
p28
(dp29
g12
I0
sg14
I00
sbsS'right'
p30
(imyEvolve
Tree
p31
(dp32
g12
I0
sg14
I00
sbsg15
I00
sg16
coperator
sub
p33
sbsg30
(imyEvolve
Tree
p34
(dp35
g12
I1
sg25
(imyEvolve
Tree
p36
(dp37
g12
I0
sg13
F3.383853671371062
sg14
I01
sbsg30
(imyEvolve
Tree
p38
(dp39
g12
I0
sg14
I00
sbsg15
I00
sg16
g33
sbsg15
I00
sg16
g33
sbsg12
I3
sg15
I01
sg16
cmath
sin
p40
sbsg12
I4
sg15
I01
sg16
g17
sba(imyEvolve
Tree
p41
(dp42
g12
I2
sg25
(imyEvolve
Tree
p43
(dp44
g12
I1
sg25
(imyEvolve
Tree
p45
(dp46
g12
I0
sg13
F-1.2694364237047506
sg14
I01
sbsg30
(imyEvolve
Tree
p47
(dp48
g12
I0
sg13
F-0.010894223401503922
sg14
I01
sbsg15
I00
sg16
coperator
add
p49
sbsg30
(imyEvolve
Tree
p50
(dp51
g7
(imyEvolve
Tree
p52
(dp53
g12
I0
sg14
I00
sbsg12
I1
sg15
I01
sg16
g18
sbsg15
I00
sg16
g33
sba(imyEvolve
Tree
p54
(dp55
g12
I2
sg25
(imyEvolve
Tree
p56
(dp57
g12
I1
sg25
(imyEvolve
Tree
p58
(dp59
g12
I0
sg14
I00
sbsg30
(imyEvolve
Tree
p60
(dp61
g12
I0
sg14
I00
sbsg15
I00
sg16
coperator
mul
p62
sbsg30
(imyEvolve
Tree
p63
(dp64
g7
(imyEvolve
Tree
p65
(dp66
g12
I0
sg13
F-3.322051171095841
sg14
I01
sbsg12
I1
sg15
I01
sg16
cmyEvolve
square
p67
sbsg15
I00
sg16
g49
sba(imyEvolve
Tree
p68
(dp69
g7
(imyEvolve
Tree
p70
(dp71
g7
(imyEvolve
Tree
p72
(dp73
g12
I2
sg25
(imyEvolve
Tree
p74
(dp75
g7
(imyEvolve
Tree
p76
(dp77
g12
I0
sg13
F-4.341419366198452
sg14
I01
sbsg12
I1
sg15
I01
sg16
g67
sbsg30
(imyEvolve
Tree
p78
(dp79
g7
(imyEvolve
Tree
p80
(dp81
g12
I0
sg13
F2.5351173061698153
sg14
I01
sbsg12
I1
sg15
I01
sg16
g18
sbsg15
I00
sg16
g62
sbsg12
I3
sg15
I01
sg16
g18
sbsg12
I4
sg15
I01
sg16
g18
sba(imyEvolve
Tree
p82
(dp83
g7
(imyEvolve
Tree
p84
(dp85
g12
I2
sg25
(imyEvolve
Tree
p86
(dp87
g7
(imyEvolve
Tree
p88
(dp89
g12
I0
sg13
F4.728233704676477
sg14
I01
sbsg12
I1
sg15
I01
sg16
g40
sbsg30
(imyEvolve
Tree
p90
(dp91
g7
(imyEvolve
Tree
p92
(dp93
g12
I0
sg13
F1.4140141056265332
sg14
I01
sbsg12
I1
sg15
I01
sg16
g40
sbsg15
I00
sg16
g33
sbsg12
I3
sg15
I01
sg16
g18
sba(imyEvolve
Tree
p94
(dp95
g7
(imyEvolve
Tree
p96
(dp97
g12
I1
sg25
(imyEvolve
Tree
p98
(dp99
g12
I0
sg13
F1.8328501769663124
sg14
I01
sbsg30
(imyEvolve
Tree
p100
(dp101
g12
I0
sg14
I00
sbsg15
I00
sg16
g33
sbsg12
I2
sg15
I01
sg16
g67
sba(imyEvolve
Tree
p102
(dp103
g7
(imyEvolve
Tree
p104
(dp105
g12
I1
sg25
(imyEvolve
Tree
p106
(dp107
g12
I0
sg14
I00
sbsg30
(imyEvolve
Tree
p108
(dp109
g12
I0
sg13
F-2.067353879084939
sg14
I01
sbsg15
I00
sg16
g33
sbsg12
I2
sg15
I01
sg16
g67
sba(imyEvolve
Tree
p110
(dp111
g7
(imyEvolve
Tree
p112
(dp113
g7
(imyEvolve
Tree
p114
(dp115
g7
(imyEvolve
Tree
p116
(dp117
g12
I1
sg25
(imyEvolve
Tree
p118
(dp119
g12
I0
sg13
F3.776927983247491
sg14
I01
sbsg30
(imyEvolve
Tree
p120
(dp121
g12
I0
sg14
I00
sbsg15
I00
sg16
g49
sbsg12
I2
sg15
I01
sg16
g18
sbsg12
I3
sg15
I01
sg16
g67
sbsg12
I4
sg15
I01
sg16
g17
sba(imyEvolve
Tree
p122
(dp123
g12
I5
sg25
(imyEvolve
Tree
p124
(dp125
g7
(imyEvolve
Tree
p126
(dp127
g12
I3
sg25
(imyEvolve
Tree
p128
(dp129
g7
(imyEvolve
Tree
p130
(dp131
g12
I1
sg25
(imyEvolve
Tree
p132
(dp133
g12
I0
sg14
I00
sbsg30
(imyEvolve
Tree
p134
(dp135
g12
I0
sg13
F0.8762663672365854
sg14
I01
sbsg15
I00
sg16
g33
sbsg12
I2
sg15
I01
sg16
g40
sbsg30
(imyEvolve
Tree
p136
(dp137
g12
I2
sg25
(imyEvolve
Tree
p138
(dp139
g12
I1
sg25
(imyEvolve
Tree
p140
(dp141
g12
I0
sg13
F1.9567255600620568
sg14
I01
sbsg30
(imyEvolve
Tree
p142
(dp143
g12
I0
sg13
F2.7145875115830584
sg14
I01
sbsg15
I00
sg16
g62
sbsg30
(imyEvolve
Tree
p144
(dp145
g12
I1
sg25
(imyEvolve
Tree
p146
(dp147
g12
I0
sg14
I00
sbsg30
(imyEvolve
Tree
p148
(dp149
g12
I0
sg13
F3.403101639095347
sg14
I01
sbsg15
I00
sg16
g49
sbsg15
I00
sg16
g49
sbsg15
I00
sg16
g33
sbsg12
I4
sg15
I01
sg16
g17
sbsg30
(imyEvolve
Tree
p150
(dp151
g12
I4
sg25
(imyEvolve
Tree
p152
(dp153
g12
I3
sg25
(imyEvolve
Tree
p154
(dp155
g7
(imyEvolve
Tree
p156
(dp157
g7
(imyEvolve
Tree
p158
(dp159
g12
I0
sg14
I00
sbsg12
I1
sg15
I01
sg16
g40
sbsg12
I2
sg15
I01
sg16
g67
sbsg30
(imyEvolve
Tree
p160
(dp161
g7
(imyEvolve
Tree
p162
(dp163
g12
I1
sg25
(imyEvolve
Tree
p164
(dp165
g12
I0
sg13
F-1.531144895449609
sg14
I01
sbsg30
(imyEvolve
Tree
p166
(dp167
g12
I0
sg13
F-2.8581324417547593
sg14
I01
sbsg15
I00
sg16
g62
sbsg12
I2
sg15
I01
sg16
g67
sbsg15
I00
sg16
g49
sbsg30
(imyEvolve
Tree
p168
(dp169
g12
I3
sg25
(imyEvolve
Tree
p170
(dp171
g12
I2
sg25
(imyEvolve
Tree
p172
(dp173
g7
(imyEvolve
Tree
p174
(dp175
g12
I0
sg14
I00
sbsg12
I1
sg15
I01
sg16
g18
sbsg30
(imyEvolve
Tree
p176
(dp177
g7
(imyEvolve
Tree
p178
(dp179
g12
I0
sg14
I00
sbsg12
I1
sg15
I01
sg16
g17
sbsg15
I00
sg16
g49
sbsg30
(imyEvolve
Tree
p180
(dp181
g7
(imyEvolve
Tree
p182
(dp183
g12
I1
sg25
(imyEvolve
Tree
p184
(dp185
g12
I0
sg14
I00
sbsg30
(imyEvolve
Tree
p186
(dp187
g12
I0
sg13
F-2.116636694265004
sg14
I01
sbsg15
I00
sg16
g49
sbsg12
I2
sg15
I01
sg16
g17
sbsg15
I00
sg16
g49
sbsg15
I00
sg16
g62
sbsg15
I00
sg16
g62
sba(imyEvolve
Tree
p188
(dp189
g7
(imyEvolve
Tree
p190
(dp191
g12
I3
sg25
(imyEvolve
Tree
p192
(dp193
g7
(imyEvolve
Tree
p194
(dp195
g7
(imyEvolve
Tree
p196
(dp197
g12
I0
sg13
F4.757144514339995
sg14
I01
sbsg12
I1
sg15
I01
sg16
g18
sbsg12
I2
sg15
I01
sg16
g18
sbsg30
(imyEvolve
Tree
p198
(dp199
g7
(imyEvolve
Tree
p200
(dp201
g7
(imyEvolve
Tree
p202
(dp203
g12
I0
sg14
I00
sbsg12
I1
sg15
I01
sg16
g40
sbsg12
I2
sg15
I01
sg16
g17
sbsg15
I00
sg16
g33
sbsg12
I4
sg15
I01
sg16
g67
sba(imyEvolve
Tree
p204
(dp205
g7
(imyEvolve
Tree
p206
(dp207
g12
I3
sg25
(imyEvolve
Tree
p208
(dp209
g12
I2
sg25
(imyEvolve
Tree
p210
(dp211
g12
I1
sg25
(imyEvolve
Tree
p212
(dp213
g12
I0
sg14
I00
sbsg30
(imyEvolve
Tree
p214
(dp215
g12
I0
sg14
I00
sbsg15
I00
sg16
g33
sbsg30
(imyEvolve
Tree
p216
(dp217
g7
(imyEvolve
Tree
p218
(dp219
g12
I0
sg14
I00
sbsg12
I1
sg15
I01
sg16
g40
sbsg15
I00
sg16
g33
sbsg30
(imyEvolve
Tree
p220
(dp221
g7
(imyEvolve
Tree
p222
(dp223
g7
(imyEvolve
Tree
p224
(dp225
g12
I0
sg13
F3.5253151577575856
sg14
I01
sbsg12
I1
sg15
I01
sg16
g40
sbsg12
I2
sg15
I01
sg16
g18
sbsg15
I00
sg16
g49
sbsg12
I4
sg15
I01
sg16
g17
sba(imyEvolve
Tree
p226
(dp227
g7
(imyEvolve
Tree
p228
(dp229
g7
(imyEvolve
Tree
p230
(dp231
g12
I1
sg25
(imyEvolve
Tree
p232
(dp233
g12
I0
sg13
F-2.2713058799128882
sg14
I01
sbsg30
(imyEvolve
Tree
p234
(dp235
g12
I0
sg14
I00
sbsg15
I00
sg16
g49
sbsg12
I2
sg15
I01
sg16
g40
sbsg12
I3
sg15
I01
sg16
g67
sba(imyEvolve
Tree
p236
(dp237
g7
(imyEvolve
Tree
p238
(dp239
g7
(imyEvolve
Tree
p240
(dp241
g7
(imyEvolve
Tree
p242
(dp243
g7
(imyEvolve
Tree
p244
(dp245
g12
I1
sg25
(imyEvolve
Tree
p246
(dp247
g12
I0
sg14
I00
sbsg30
(imyEvolve
Tree
p248
(dp249
g12
I0
sg13
F-4.814224885131764
sg14
I01
sbsg15
I00
sg16
g33
sbsg12
I2
sg15
I01
sg16
g17
sbsg12
I3
sg15
I01
sg16
g40
sbsg12
I4
sg15
I01
sg16
g18
sbsg12
I5
sg15
I01
sg16
g18
sba(imyEvolve
Tree
p250
(dp251
g12
I3
sg25
(imyEvolve
Tree
p252
(dp253
g12
I2
sg25
(imyEvolve
Tree
p254
(dp255
g12
I1
sg25
(imyEvolve
Tree
p256
(dp257
g12
I0
sg14
I00
sbsg30
(imyEvolve
Tree
p258
(dp259
g12
I0
sg14
I00
sbsg15
I00
sg16
g49
sbsg30
(imyEvolve
Tree
p260
(dp261
g7
(imyEvolve
Tree
p262
(dp263
g12
I0
sg14
I00
sbsg12
I1
sg15
I01
sg16
g18
sbsg15
I00
sg16
g33
sbsg30
(imyEvolve
Tree
p264
(dp265
g12
I2
sg25
(imyEvolve
Tree
p266
(dp267
g12
I1
sg25
(imyEvolve
Tree
p268
(dp269
g12
I0
sg13
F3.8078591775024915
sg14
I01
sbsg30
(imyEvolve
Tree
p270
(dp271
g12
I0
sg14
I00
sbsg15
I00
sg16
g33
sbsg30
(imyEvolve
Tree
p272
(dp273
g12
I1
sg25
(imyEvolve
Tree
p274
(dp275
g12
I0
sg13
F-3.446790986289389
sg14
I01
sbsg30
(imyEvolve
Tree
p276
(dp277
g12
I0
sg14
I00
sbsg15
I00
sg16
g33
sbsg15
I00
sg16
g62
sbsg15
I00
sg16
g33
sbaa(lp278
(imyEvolve
Tree
p279
(dp280
g12
I5
sg25
(imyEvolve
Tree
p281
(dp282
g12
I4
sg25
(imyEvolve
Tree
p283
(dp284
g7
(imyEvolve
Tree
p285
(dp286
g12
I2
sg25
(imyEvolve
Tree
p287
(dp288
g7
(imyEvolve
Tree
p289
(dp290
g12
I0
sg14
I00
sbsg12
I1
sg15
I01
sg16
g67
sbsg30
(imyEvolve
Tree
p291
(dp292
g7
(imyEvolve
Tree
p293
(dp294
g12
I0
sg14
I00
sbsg12
I1
sg15
I01
sg16
g40
sbsg15
I00
sg16
g49
sbsg12
I3
sg15
I01
sg16
g67
sbsg30
(imyEvolve
Tree
p295
(dp296
g12
I3
sg25
(imyEvolve
Tree
p297
(dp298
g12
I2
sg25
(imyEvolve
Tree
p299
(dp300
g7
(imyEvolve
Tree
p301
(dp302
g12
I0
sg14
I00
sbsg12
I1
sg15
I01
sg16
g40
sbsg30
(imyEvolve
Tree
p303
(dp304
g7
(imyEvolve
Tree
p305
(dp306
g12
I0
sg13
F3.8304367996504514
sg14
I01
sbsg12
I1
sg15
I01
sg16
g18
sbsg15
I00
sg16
g62
sbsg30
(imyEvolve
Tree
p307
(dp308
g12
I2
sg25
(imyEvolve
Tree
p309
(dp310
g7
(imyEvolve
Tree
p311
(dp312
g12
I0
sg13
F1.9539643372728035
sg14
I01
sbsg12
I1
sg15
I01
sg16
g17
sbsg30
(imyEvolve
Tree
p313
(dp314
g12
I1
sg25
(imyEvolve
Tree
p315
(dp316
g12
I0
sg14
I00
sbsg30
(imyEvolve
Tree
p317
(dp318
g12
I0
sg14
I00
sbsg15
I00
sg16
g62
sbsg15
I00
sg16
g33
sbsg15
I00
sg16
g62
sbsg15
I00
sg16
g33
sbsg30
(imyEvolve
Tree
p319
(dp320
g12
I4
sg25
(imyEvolve
Tree
p321
(dp322
g12
I3
sg25
(imyEvolve
Tree
p323
(dp324
g7
(imyEvolve
Tree
p325
(dp326
g12
I1
sg25
(imyEvolve
Tree
p327
(dp328
g12
I0
sg13
F-0.3009393319820255
sg14
I01
sbsg30
(imyEvolve
Tree
p329
(dp330
g12
I0
sg13
F0.5883763380605469
sg14
I01
sbsg15
I00
sg16
g62
sbsg12
I2
sg15
I01
sg16
g67
sbsg30
(imyEvolve
Tree
p331
(dp332
g7
(imyEvolve
Tree
p333
(dp334
g12
I1
sg25
(imyEvolve
Tree
p335
(dp336
g12
I0
sg14
I00
sbsg30
(imyEvolve
Tree
p337
(dp338
g12
I0
sg14
I00
sbsg15
I00
sg16
g49
sbsg12
I2
sg15
I01
sg16
g17
sbsg15
I00
sg16
g49
sbsg30
(imyEvolve
Tree
p339
(dp340
g7
(imyEvolve
Tree
p341
(dp342
g7
(imyEvolve
Tree
p343
(dp344
g12
I1
sg25
(imyEvolve
Tree
p345
(dp346
g12
I0
sg13
F-2.0991679642379504
sg14
I01
sbsg30
(imyEvolve
Tree
p347
(dp348
g12
I0
sg14
I00
sbsg15
I00
sg16
g49
sbsg12
I2
sg15
I01
sg16
g40
sbsg12
I3
sg15
I01
sg16
g40
sbsg15
I00
sg16
g33
sbsg15
I00
sg16
g62
sba(imyEvolve
Tree
p349
(dp350
g12
I4
sg25
(imyEvolve
Tree
p351
(dp352
g7
(imyEvolve
Tree
p353
(dp354
g12
I2
sg25
(imyEvolve
Tree
p355
(dp356
g7
(imyEvolve
Tree
p357
(dp358
g12
I0
sg13
F1.6493022829204431
sg14
I01
sbsg12
I1
sg15
I01
sg16
g67
sbsg30
(imyEvolve
Tree
p359
(dp360
g12
I1
sg25
(imyEvolve
Tree
p361
(dp362
g12
I0
sg14
I00
sbsg30
(imyEvolve
Tree
p363
(dp364
g12
I0
sg13
F-1.2273683600531458
sg14
I01
sbsg15
I00
sg16
g33
sbsg15
I00
sg16
g33
sbsg12
I3
sg15
I01
sg16
g17
sbsg30
(imyEvolve
Tree
p365
(dp366
g7
(imyEvolve
Tree
p367
(dp368
g7
(imyEvolve
Tree
p369
(dp370
g12
I1
sg25
(imyEvolve
Tree
p371
(dp372
g12
I0
sg14
I00
sbsg30
(imyEvolve
Tree
p373
(dp374
g12
I0
sg14
I00
sbsg15
I00
sg16
g62
sbsg12
I2
sg15
I01
sg16
g18
sbsg12
I3
sg15
I01
sg16
g40
sbsg15
I00
sg16
g49
sba(imyEvolve
Tree
p375
(dp376
g7
(imyEvolve
Tree
p377
(dp378
g7
(imyEvolve
Tree
p379
(dp380
g12
I0
sg13
F-1.70465151446313
sg14
I01
sbsg12
I1
sg15
I01
sg16
g18
sbsg12
I2
sg15
I01
sg16
g17
sba(imyEvolve
Tree
p381
(dp382
g12
I2
sg25
(imyEvolve
Tree
p383
(dp384
g7
(imyEvolve
Tree
p385
(dp386
g12
I0
sg13
F-0.5773481935232105
sg14
I01
sbsg12
I1
sg15
I01
sg16
g67
sbsg30
(imyEvolve
Tree
p387
(dp388
g7
(imyEvolve
Tree
p389
(dp390
g12
I0
sg14
I00
sbsg12
I1
sg15
I01
sg16
g67
sbsg15
I00
sg16
g49
sba(imyEvolve
Tree
p391
(dp392
g7
(imyEvolve
Tree
p393
(dp394
g7
(imyEvolve
Tree
p395
(dp396
g12
I3
sg25
(imyEvolve
Tree
p397
(dp398
g12
I2
sg25
(imyEvolve
Tree
p399
(dp400
g7
(imyEvolve
Tree
p401
(dp402
g12
I0
sg14
I00
sbsg12
I1
sg15
I01
sg16
g17
sbsg30
(imyEvolve
Tree
p403
(dp404
g12
I1
sg25
(imyEvolve
Tree
p405
(dp406
g12
I0
sg13
F-2.399524656005485
sg14
I01
sbsg30
(imyEvolve
Tree
p407
(dp408
g12
I0
sg14
I00
sbsg15
I00
sg16
g49
sbsg15
I00
sg16
g33
sbsg30
(imyEvolve
Tree
p409
(dp410
g12
I2
sg25
(imyEvolve
Tree
p411
(dp412
g7
(imyEvolve
Tree
p413
(dp414
g12
I0
sg13
F-0.9718700133327811
sg14
I01
sbsg12
I1
sg15
I01
sg16
g18
sbsg30
(imyEvolve
Tree
p415
(dp416
g12
I1
sg25
(imyEvolve
Tree
p417
(dp418
g12
I0
sg14
I00
sbsg30
(imyEvolve
Tree
p419
(dp420
g12
I0
sg14
I00
sbsg15
I00
sg16
g62
sbsg15
I00
sg16
g62
sbsg15
I00
sg16
g49
sbsg12
I4
sg15
I01
sg16
g18
sbsg12
I5
sg15
I01
sg16
g40
sba(imyEvolve
Tree
p421
(dp422
g7
(imyEvolve
Tree
p423
(dp424
g7
(imyEvolve
Tree
p425
(dp426
g12
I0
sg14
I00
sbsg12
I1
sg15
I01
sg16
g18
sbsg12
I2
sg15
I01
sg16
g67
sba(imyEvolve
Tree
p427
(dp428
g7
(imyEvolve
Tree
p429
(dp430
g7
(imyEvolve
Tree
p431
(dp432
g12
I1
sg25
(imyEvolve
Tree
p433
(dp434
g12
I0
sg13
F3.1066044547284406
sg14
I01
sbsg30
(imyEvolve
Tree
p435
(dp436
g12
I0
sg14
I00
sbsg15
I00
sg16
g49
sbsg12
I2
sg15
I01
sg16
g40
sbsg12
I3
sg15
I01
sg16
g67
sba(imyEvolve
Tree
p437
(dp438
g12
I5
sg25
(imyEvolve
Tree
p439
(dp440
g12
I4
sg25
(imyEvolve
Tree
p441
(dp442
g12
I3
sg25
(imyEvolve
Tree
p443
(dp444
g12
I2
sg25
(imyEvolve
Tree
p445
(dp446
g12
I1
sg25
(imyEvolve
Tree
p447
(dp448
g12
I0
sg14
I00
sbsg30
(imyEvolve
Tree
p449
(dp450
g12
I0
sg14
I00
sbsg15
I00
sg16
g33
sbsg30
(imyEvolve
Tree
p451
(dp452
g7
(imyEvolve
Tree
p453
(dp454
g12
I0
sg13
F4.124058245761116
sg14
I01
sbsg12
I1
sg15
I01
sg16
g17
sbsg15
I00
sg16
g49
sbsg30
(imyEvolve
Tree
p455
(dp456
g12
I2
sg25
(imyEvolve
Tree
p457
(dp458
g7
(imyEvolve
Tree
p459
(dp460
g12
I0
sg13
F4.512329738617954
sg14
I01
sbsg12
I1
sg15
I01
sg16
g18
sbsg30
(imyEvolve
Tree
p461
(dp462
g7
(imyEvolve
Tree
p463
(dp464
g12
I0
sg13
F3.15989119235223
sg14
I01
sbsg12
I1
sg15
I01
sg16
g67
sbsg15
I00
sg16
g49
sbsg15
I00
sg16
g33
sbsg30
(imyEvolve
Tree
p465
(dp466
g12
I3
sg25
(imyEvolve
Tree
p467
(dp468
g7
(imyEvolve
Tree
p469
(dp470
g7
(imyEvolve
Tree
p471
(dp472
g12
I0
sg14
I00
sbsg12
I1
sg15
I01
sg16
g17
sbsg12
I2
sg15
I01
sg16
g17
sbsg30
(imyEvolve
Tree
p473
(dp474
g12
I2
sg25
(imyEvolve
Tree
p475
(dp476
g12
I1
sg25
(imyEvolve
Tree
p477
(dp478
g12
I0
sg14
I00
sbsg30
(imyEvolve
Tree
p479
(dp480
g12
I0
sg14
I00
sbsg15
I00
sg16
g62
sbsg30
(imyEvolve
Tree
p481
(dp482
g7
(imyEvolve
Tree
p483
(dp484
g12
I0
sg14
I00
sbsg12
I1
sg15
I01
sg16
g17
sbsg15
I00
sg16
g33
sbsg15
I00
sg16
g49
sbsg15
I00
sg16
g62
sbsg30
(imyEvolve
Tree
p485
(dp486
g7
(imyEvolve
Tree
p487
(dp488
g7
(imyEvolve
Tree
p489
(dp490
g7
(imyEvolve
Tree
p491
(dp492
g12
I1
sg25
(imyEvolve
Tree
p493
(dp494
g12
I0
sg13
F-4.586762951188005
sg14
I01
sbsg30
(imyEvolve
Tree
p495
(dp496
g12
I0
sg14
I00
sbsg15
I00
sg16
g49
sbsg12
I2
sg15
I01
sg16
g40
sbsg12
I3
sg15
I01
sg16
g18
sbsg12
I4
sg15
I01
sg16
g18
sbsg15
I00
sg16
g49
sba(imyEvolve
Tree
p497
(dp498
g12
I3
sg25
(imyEvolve
Tree
p499
(dp500
g12
I2
sg25
(imyEvolve
Tree
p501
(dp502
g12
I1
sg25
(imyEvolve
Tree
p503
(dp504
g12
I0
sg14
I00
sbsg30
(imyEvolve
Tree
p505
(dp506
g12
I0
sg13
F3.385049859682816
sg14
I01
sbsg15
I00
sg16
g33
sbsg30
(imyEvolve
Tree
p507
(dp508
g7
(imyEvolve
Tree
p509
(dp510
g12
I0
sg14
I00
sbsg12
I1
sg15
I01
sg16
g17
sbsg15
I00
sg16
g33
sbsg30
(imyEvolve
Tree
p511
(dp512
g7
(imyEvolve
Tree
p513
(dp514
g7
(imyEvolve
Tree
p515
(dp516
g12
I0
sg13
F-3.9453539414691976
sg14
I01
sbsg12
I1
sg15
I01
sg16
g67
sbsg12
I2
sg15
I01
sg16
g67
sbsg15
I00
sg16
g33
sba(imyEvolve
Tree
p517
(dp518
g7
(imyEvolve
Tree
p519
(dp520
g12
I2
sg25
(imyEvolve
Tree
p521
(dp522
g7
(imyEvolve
Tree
p523
(dp524
g12
I0
sg14
I00
sbsg12
I1
sg15
I01
sg16
g18
sbsg30
(imyEvolve
Tree
p525
(dp526
g7
(imyEvolve
Tree
p527
(dp528
g12
I0
sg14
I00
sbsg12
I1
sg15
I01
sg16
g67
sbsg15
I00
sg16
g62
sbsg12
I3
sg15
I01
sg16
g67
sba(imyEvolve
Tree
p529
(dp530
g7
(imyEvolve
Tree
p531
(dp532
g7
(imyEvolve
Tree
p533
(dp534
g12
I0
sg14
I00
sbsg12
I1
sg15
I01
sg16
g67
sbsg12
I2
sg15
I01
sg16
g18
sba(imyEvolve
Tree
p535
(dp536
g12
I2
sg25
(imyEvolve
Tree
p537
(dp538
g7
(imyEvolve
Tree
p539
(dp540
g12
I0
sg14
I00
sbsg12
I1
sg15
I01
sg16
g18
sbsg30
(imyEvolve
Tree
p541
(dp542
g7
(imyEvolve
Tree
p543
(dp544
g12
I0
sg13
F-3.409406681445878
sg14
I01
sbsg12
I1
sg15
I01
sg16
g40
sbsg15
I00
sg16
g33
sba(imyEvolve
Tree
p545
(dp546
g12
I5
sg25
(imyEvolve
Tree
p547
(dp548
g12
I4
sg25
(imyEvolve
Tree
p549
(dp550
g7
(imyEvolve
Tree
p551
(dp552
g12
I2
sg25
(imyEvolve
Tree
p553
(dp554
g12
I1
sg25
(imyEvolve
Tree
p555
(dp556
g12
I0
sg13
F3.698547948891216
sg14
I01
sbsg30
(imyEvolve
Tree
p557
(dp558
g12
I0
sg13
F4.196615619308133
sg14
I01
sbsg15
I00
sg16
g33
sbsg30
(imyEvolve
Tree
p559
(dp560
g12
I1
sg25
(imyEvolve
Tree
p561
(dp562
g12
I0
sg13
F-1.025998064311521
sg14
I01
sbsg30
(imyEvolve
Tree
p563
(dp564
g12
I0
sg13
F-3.98006265032689
sg14
I01
sbsg15
I00
sg16
g49
sbsg15
I00
sg16
g33
sbsg12
I3
sg15
I01
sg16
g67
sbsg30
(imyEvolve
Tree
p565
(dp566
g7
(imyEvolve
Tree
p567
(dp568
g12
I2
sg25
(imyEvolve
Tree
p569
(dp570
g7
(imyEvolve
Tree
p571
(dp572
g12
I0
sg13
F0.49529601060812567
sg14
I01
sbsg12
I1
sg15
I01
sg16
g18
sbsg30
(imyEvolve
Tree
p573
(dp574
g12
I1
sg25
(imyEvolve
Tree
p575
(dp576
g12
I0
sg13
F3.3902523093071384
sg14
I01
sbsg30
(imyEvolve
Tree
p577
(dp578
g12
I0
sg14
I00
sbsg15
I00
sg16
g49
sbsg15
I00
sg16
g33
sbsg12
I3
sg15
I01
sg16
g40
sbsg15
I00
sg16
g62
sbsg30
(imyEvolve
Tree
p579
(dp580
g12
I4
sg25
(imyEvolve
Tree
p581
(dp582
g12
I3
sg25
(imyEvolve
Tree
p583
(dp584
g12
I2
sg25
(imyEvolve
Tree
p585
(dp586
g12
I1
sg25
(imyEvolve
Tree
p587
(dp588
g12
I0
sg14
I00
sbsg30
(imyEvolve
Tree
p589
(dp590
g12
I0
sg13
F4.036761117749242
sg14
I01
sbsg15
I00
sg16
g49
sbsg30
(imyEvolve
Tree
p591
(dp592
g12
I1
sg25
(imyEvolve
Tree
p593
(dp594
g12
I0
sg14
I00
sbsg30
(imyEvolve
Tree
p595
(dp596
g12
I0
sg13
F3.950382822264597
sg14
I01
sbsg15
I00
sg16
g62
sbsg15
I00
sg16
g33
sbsg30
(imyEvolve
Tree
p597
(dp598
g12
I2
sg25
(imyEvolve
Tree
p599
(dp600
g12
I1
sg25
(imyEvolve
Tree
p601
(dp602
g12
I0
sg13
F-4.18255472473255
sg14
I01
sbsg30
(imyEvolve
Tree
p603
(dp604
g12
I0
sg13
F3.486746610285964
sg14
I01
sbsg15
I00
sg16
g62
sbsg30
(imyEvolve
Tree
p605
(dp606
g7
(imyEvolve
Tree
p607
(dp608
g12
I0
sg13
F-2.6014507339843984
sg14
I01
sbsg12
I1
sg15
I01
sg16
g18
sbsg15
I00
sg16
g33
sbsg15
I00
sg16
g49
sbsg30
(imyEvolve
Tree
p609
(dp610
g12
I3
sg25
(imyEvolve
Tree
p611
(dp612
g12
I2
sg25
(imyEvolve
Tree
p613
(dp614
g12
I1
sg25
(imyEvolve
Tree
p615
(dp616
g12
I0
sg13
F-4.115511823229511
sg14
I01
sbsg30
(imyEvolve
Tree
p617
(dp618
g12
I0
sg13
F0.922602142599878
sg14
I01
sbsg15
I00
sg16
g33
sbsg30
(imyEvolve
Tree
p619
(dp620
g12
I1
sg25
(imyEvolve
Tree
p621
(dp622
g12
I0
sg13
F-4.451448889013756
sg14
I01
sbsg30
(imyEvolve
Tree
p623
(dp624
g12
I0
sg14
I00
sbsg15
I00
sg16
g49
sbsg15
I00
sg16
g62
sbsg30
(imyEvolve
Tree
p625
(dp626
g12
I2
sg25
(imyEvolve
Tree
p627
(dp628
g12
I1
sg25
(imyEvolve
Tree
p629
(dp630
g12
I0
sg14
I00
sbsg30
(imyEvolve
Tree
p631
(dp632
g12
I0
sg14
I00
sbsg15
I00
sg16
g33
sbsg30
(imyEvolve
Tree
p633
(dp634
g7
(imyEvolve
Tree
p635
(dp636
g12
I0
sg14
I00
sbsg12
I1
sg15
I01
sg16
g17
sbsg15
I00
sg16
g62
sbsg15
I00
sg16
g62
sbsg15
I00
sg16
g33
sbsg15
I00
sg16
g33
sba(imyEvolve
Tree
p637
(dp638
g7
(imyEvolve
Tree
p639
(dp640
g7
(imyEvolve
Tree
p641
(dp642
g12
I2
sg25
(imyEvolve
Tree
p643
(dp644
g7
(imyEvolve
Tree
p645
(dp646
g12
I0
sg14
I00
sbsg12
I1
sg15
I01
sg16
g18
sbsg30
(imyEvolve
Tree
p647
(dp648
g7
(imyEvolve
Tree
p649
(dp650
g12
I0
sg13
F-4.976128871950132
sg14
I01
sbsg12
I1
sg15
I01
sg16
g17
sbsg15
I00
sg16
g62
sbsg12
I3
sg15
I01
sg16
g40
sbsg12
I4
sg15
I01
sg16
g18
sba(imyEvolve
Tree
p651
(dp652
g12
I4
sg25
(imyEvolve
Tree
p653
(dp654
g12
I3
sg25
(imyEvolve
Tree
p655
(dp656
g7
(imyEvolve
Tree
p657
(dp658
g12
I1
sg25
(imyEvolve
Tree
p659
(dp660
g12
I0
sg14
I00
sbsg30
(imyEvolve
Tree
p661
(dp662
g12
I0
sg13
F-0.3836318752870458
sg14
I01
sbsg15
I00
sg16
g33
sbsg12
I2
sg15
I01
sg16
g40
sbsg30
(imyEvolve
Tree
p663
(dp664
g7
(imyEvolve
Tree
p665
(dp666
g7
(imyEvolve
Tree
p667
(dp668
g12
I0
sg13
F-3.2160805476570675
sg14
I01
sbsg12
I1
sg15
I01
sg16
g17
sbsg12
I2
sg15
I01
sg16
g40
sbsg15
I00
sg16
g62
sbsg30
(imyEvolve
Tree
p669
(dp670
g12
I3
sg25
(imyEvolve
Tree
p671
(dp672
g12
I2
sg25
(imyEvolve
Tree
p673
(dp674
g7
(imyEvolve
Tree
p675
(dp676
g12
I0
sg14
I00
sbsg12
I1
sg15
I01
sg16
g18
sbsg30
(imyEvolve
Tree
p677
(dp678
g12
I1
sg25
(imyEvolve
Tree
p679
(dp680
g12
I0
sg13
F0.22454076678505075
sg14
I01
sbsg30
(imyEvolve
Tree
p681
(dp682
g12
I0
sg13
F-1.6316341390451128
sg14
I01
sbsg15
I00
sg16
g49
sbsg15
I00
sg16
g33
sbsg30
(imyEvolve
Tree
p683
(dp684
g12
I2
sg25
(imyEvolve
Tree
p685
(dp686
g7
(imyEvolve
Tree
p687
(dp688
g12
I0
sg13
F0.5600539821686459
sg14
I01
sbsg12
I1
sg15
I01
sg16
g17
sbsg30
(imyEvolve
Tree
p689
(dp690
g7
(imyEvolve
Tree
p691
(dp692
g12
I0
sg14
I00
sbsg12
I1
sg15
I01
sg16
g40
sbsg15
I00
sg16
g49
sbsg15
I00
sg16
g62
sbsg15
I00
sg16
g62
sba(imyEvolve
Tree
p693
(dp694
g12
I3
sg25
(imyEvolve
Tree
p695
(dp696
g12
I2
sg25
(imyEvolve
Tree
p697
(dp698
g7
(imyEvolve
Tree
p699
(dp700
g12
I0
sg14
I00
sbsg12
I1
sg15
I01
sg16
g67
sbsg30
(imyEvolve
Tree
p701
(dp702
g12
I1
sg25
(imyEvolve
Tree
p703
(dp704
g12
I0
sg14
I00
sbsg30
(imyEvolve
Tree
p705
(dp706
g12
I0
sg14
I00
sbsg15
I00
sg16
g62
sbsg15
I00
sg16
g62
sbsg30
(imyEvolve
Tree
p707
(dp708
g12
I2
sg25
(imyEvolve
Tree
p709
(dp710
g7
(imyEvolve
Tree
p711
(dp712
g12
I0
sg14
I00
sbsg12
I1
sg15
I01
sg16
g17
sbsg30
(imyEvolve
Tree
p713
(dp714
g12
I1
sg25
(imyEvolve
Tree
p715
(dp716
g12
I0
sg14
I00
sbsg30
(imyEvolve
Tree
p717
(dp718
g12
I0
sg13
F-3.2175070250950846
sg14
I01
sbsg15
I00
sg16
g33
sbsg15
I00
sg16
g33
sbsg15
I00
sg16
g62
sba(imyEvolve
Tree
p719
(dp720
g7
(imyEvolve
Tree
p721
(dp722
g12
I1
sg25
(imyEvolve
Tree
p723
(dp724
g12
I0
sg14
I00
sbsg30
(imyEvolve
Tree
p725
(dp726
g12
I0
sg14
I00
sbsg15
I00
sg16
g62
sbsg12
I2
sg15
I01
sg16
g67
sba(imyEvolve
Tree
p727
(dp728
g7
(imyEvolve
Tree
p729
(dp730
g12
I3
sg25
(imyEvolve
Tree
p731
(dp732
g12
I2
sg25
(imyEvolve
Tree
p733
(dp734
g12
I1
sg25
(imyEvolve
Tree
p735
(dp736
g12
I0
sg13
F-0.46332166907381556
sg14
I01
sbsg30
(imyEvolve
Tree
p737
(dp738
g12
I0
sg14
I00
sbsg15
I00
sg16
g49
sbsg30
(imyEvolve
Tree
p739
(dp740
g12
I1
sg25
(imyEvolve
Tree
p741
(dp742
g12
I0
sg13
F-3.5591608860804147
sg14
I01
sbsg30
(imyEvolve
Tree
p743
(dp744
g12
I0
sg13
F-3.336302430568039
sg14
I01
sbsg15
I00
sg16
g33
sbsg15
I00
sg16
g49
sbsg30
(imyEvolve
Tree
p745
(dp746
g12
I2
sg25
(imyEvolve
Tree
p747
(dp748
g7
(imyEvolve
Tree
p749
(dp750
g12
I0
sg14
I00
sbsg12
I1
sg15
I01
sg16
g18
sbsg30
(imyEvolve
Tree
p751
(dp752
g12
I1
sg25
(imyEvolve
Tree
p753
(dp754
g12
I0
sg13
F0.028610849885248868
sg14
I01
sbsg30
(imyEvolve
Tree
p755
(dp756
g12
I0
sg13
F-4.083068016241258
sg14
I01
sbsg15
I00
sg16
g49
sbsg15
I00
sg16
g33
sbsg15
I00
sg16
g62
sbsg12
I4
sg15
I01
sg16
g40
sbaasS'weightSharing'
p757
(lp758
I00
aI00
asS'fitnessValid'
p759
I00
sS'fitness'
p760
cnumpy.core.multiarray
scalar
p761
(cnumpy
dtype
p762
(S'f8'
p763
I0
I1
tp764
Rp765
(I3
S'<'
p766
NNNI-1
I-1
I0
tp767
bS'\xf9\x0f\xe9\x86\xe4\x1d\xe6?'
p768
tp769
Rp770
sS'alpha'
p771
F0.0020207283704474924
sS'resolution'
p772
I46
sb.