(imyEvolve
Individual
p0
(dp1
S'funcs'
p2
(lp3
(lp4
(imyEvolve
Tree
p5
(dp6
S'depth'
p7
I4
sS'left'
p8
(imyEvolve
Tree
p9
(dp10
g7
I3
sg8
(imyEvolve
Tree
p11
(dp12
S'below'
p13
(imyEvolve
Tree
p14
(dp15
g7
I1
sg8
(imyEvolve
Tree
p16
(dp17
g7
I0
sS'isConstant'
p18
I00
sbsS'right'
p19
(imyEvolve
Tree
p20
(dp21
g7
I0
sS'constant'
p22
F0.6795794329573219
sg18
I01
sbsS'single'
p23
I00
sS'op'
p24
coperator
add
p25
sbsg7
I2
sg23
I01
sg24
cmyEvolve
absSqrt
p26
sbsg19
(imyEvolve
Tree
p27
(dp28
g7
I2
sg8
(imyEvolve
Tree
p29
(dp30
g7
I1
sg8
(imyEvolve
Tree
p31
(dp32
g7
I0
sg22
F-0.8841182285545859
sg18
I01
sbsg19
(imyEvolve
Tree
p33
(dp34
g7
I0
sg22
F2.992736383640029
sg18
I01
sbsg23
I00
sg24
coperator
mul
p35
sbsg19
(imyEvolve
Tree
p36
(dp37
g13
(imyEvolve
Tree
p38
(dp39
g7
I0
sg18
I00
sbsg7
I1
sg23
I01
sg24
cmath
sin
p40
sbsg23
I00
sg24
g25
sbsg23
I00
sg24
g35
sbsg19
(imyEvolve
Tree
p41
(dp42
g7
I3
sg8
(imyEvolve
Tree
p43
(dp44
g13
(imyEvolve
Tree
p45
(dp46
g13
(imyEvolve
Tree
p47
(dp48
g7
I0
sg22
F-4.317498495244681
sg18
I01
sbsg7
I1
sg23
I01
sg24
cmath
cos
p49
sbsg7
I2
sg23
I01
sg24
g49
sbsg19
(imyEvolve
Tree
p50
(dp51
g7
I2
sg8
(imyEvolve
Tree
p52
(dp53
g7
I1
sg8
(imyEvolve
Tree
p54
(dp55
g7
I0
sg22
F-0.6854307783758138
sg18
I01
sbsg19
(imyEvolve
Tree
p56
(dp57
g7
I0
sg18
I00
sbsg23
I00
sg24
coperator
sub
p58
sbsg19
(imyEvolve
Tree
p59
(dp60
g13
(imyEvolve
Tree
p61
(dp62
g7
I0
sg18
I00
sbsg7
I1
sg23
I01
sg24
g40
sbsg23
I00
sg24
g35
sbsg23
I00
sg24
g58
sbsg23
I00
sg24
g35
sba(imyEvolve
Tree
p63
(dp64
g7
I3
sg8
(imyEvolve
Tree
p65
(dp66
g7
I2
sg8
(imyEvolve
Tree
p67
(dp68
g7
I1
sg8
(imyEvolve
Tree
p69
(dp70
g7
I0
sg18
I00
sbsg19
(imyEvolve
Tree
p71
(dp72
g7
I0
sg18
I00
sbsg23
I00
sg24
g35
sbsg19
(imyEvolve
Tree
p73
(dp74
g13
(imyEvolve
Tree
p75
(dp76
g7
I0
sg18
I00
sbsg7
I1
sg23
I01
sg24
g49
sbsg23
I00
sg24
g58
sbsg19
(imyEvolve
Tree
p77
(dp78
g7
I2
sg8
(imyEvolve
Tree
p79
(dp80
g13
(imyEvolve
Tree
p81
(dp82
g7
I0
sg22
F4.049490278894739
sg18
I01
sbsg7
I1
sg23
I01
sg24
g49
sbsg19
(imyEvolve
Tree
p83
(dp84
g13
(imyEvolve
Tree
p85
(dp86
g7
I0
sg22
F-0.6368167996018226
sg18
I01
sbsg7
I1
sg23
I01
sg24
g26
sbsg23
I00
sg24
g58
sbsg23
I00
sg24
g58
sba(imyEvolve
Tree
p87
(dp88
g7
I5
sg8
(imyEvolve
Tree
p89
(dp90
g13
(imyEvolve
Tree
p91
(dp92
g7
I3
sg8
(imyEvolve
Tree
p93
(dp94
g7
I2
sg8
(imyEvolve
Tree
p95
(dp96
g13
(imyEvolve
Tree
p97
(dp98
g7
I0
sg22
F-2.2814362853338457
sg18
I01
sbsg7
I1
sg23
I01
sg24
cmyEvolve
square
p99
sbsg19
(imyEvolve
Tree
p100
(dp101
g7
I1
sg8
(imyEvolve
Tree
p102
(dp103
g7
I0
sg18
I00
sbsg19
(imyEvolve
Tree
p104
(dp105
g7
I0
sg22
F-0.6058090055664849
sg18
I01
sbsg23
I00
sg24
g25
sbsg23
I00
sg24
g25
sbsg19
(imyEvolve
Tree
p106
(dp107
g7
I2
sg8
(imyEvolve
Tree
p108
(dp109
g13
(imyEvolve
Tree
p110
(dp111
g7
I0
sg22
F4.17159085965193
sg18
I01
sbsg7
I1
sg23
I01
sg24
g99
sbsg19
(imyEvolve
Tree
p112
(dp113
g13
(imyEvolve
Tree
p114
(dp115
g7
I0
sg22
F-4.057751054389743
sg18
I01
sbsg7
I1
sg23
I01
sg24
g49
sbsg23
I00
sg24
g35
sbsg23
I00
sg24
g25
sbsg7
I4
sg23
I01
sg24
g40
sbsg19
(imyEvolve
Tree
p116
(dp117
g7
I4
sg8
(imyEvolve
Tree
p118
(dp119
g13
(imyEvolve
Tree
p120
(dp121
g13
(imyEvolve
Tree
p122
(dp123
g13
(imyEvolve
Tree
p124
(dp125
g7
I0
sg22
F3.5707547879558064
sg18
I01
sbsg7
I1
sg23
I01
sg24
g26
sbsg7
I2
sg23
I01
sg24
g49
sbsg7
I3
sg23
I01
sg24
g49
sbsg19
(imyEvolve
Tree
p126
(dp127
g13
(imyEvolve
Tree
p128
(dp129
g13
(imyEvolve
Tree
p130
(dp131
g13
(imyEvolve
Tree
p132
(dp133
g7
I0
sg22
F-3.6320707866898836
sg18
I01
sbsg7
I1
sg23
I01
sg24
g49
sbsg7
I2
sg23
I01
sg24
g49
sbsg7
I3
sg23
I01
sg24
g40
sbsg23
I00
sg24
g35
sbsg23
I00
sg24
g58
sba(imyEvolve
Tree
p134
(dp135
g7
I4
sg8
(imyEvolve
Tree
p136
(dp137
g13
(imyEvolve
Tree
p138
(dp139
g7
I2
sg8
(imyEvolve
Tree
p140
(dp141
g7
I1
sg8
(imyEvolve
Tree
p142
(dp143
g7
I0
sg18
I00
sbsg19
(imyEvolve
Tree
p144
(dp145
g7
I0
sg22
F-0.9925952010215644
sg18
I01
sbsg23
I00
sg24
g35
sbsg19
(imyEvolve
Tree
p146
(dp147
g13
(imyEvolve
Tree
p148
(dp149
g7
I0
sg22
F-2.152516694352057
sg18
I01
sbsg7
I1
sg23
I01
sg24
g26
sbsg23
I00
sg24
g25
sbsg7
I3
sg23
I01
sg24
g26
sbsg19
(imyEvolve
Tree
p150
(dp151
g7
I3
sg8
(imyEvolve
Tree
p152
(dp153
g7
I2
sg8
(imyEvolve
Tree
p154
(dp155
g13
(imyEvolve
Tree
p156
(dp157
g7
I0
sg22
F2.362192604604008
sg18
I01
sbsg7
I1
sg23
I01
sg24
g49
sbsg19
(imyEvolve
Tree
p158
(dp159
g13
(imyEvolve
Tree
p160
(dp161
g7
I0
sg18
I00
sbsg7
I1
sg23
I01
sg24
g49
sbsg23
I00
sg24
g35
sbsg19
(imyEvolve
Tree
p162
(dp163
g13
(imyEvolve
Tree
p164
(dp165
g13
(imyEvolve
Tree
p166
(dp167
g7
I0
sg18
I00
sbsg7
I1
sg23
I01
sg24
g49
sbsg7
I2
sg23
I01
sg24
g49
sbsg23
I00
sg24
g35
sbsg23
I00
sg24
g58
sba(imyEvolve
Tree
p168
(dp169
g13
(imyEvolve
Tree
p170
(dp171
g13
(imyEvolve
Tree
p172
(dp173
g7
I2
sg8
(imyEvolve
Tree
p174
(dp175
g13
(imyEvolve
Tree
p176
(dp177
g7
I0
sg22
F0.7608233002136187
sg18
I01
sbsg7
I1
sg23
I01
sg24
g99
sbsg19
(imyEvolve
Tree
p178
(dp179
g13
(imyEvolve
Tree
p180
(dp181
g7
I0
sg18
I00
sbsg7
I1
sg23
I01
sg24
g99
sbsg23
I00
sg24
g35
sbsg7
I3
sg23
I01
sg24
g99
sbsg7
I4
sg23
I01
sg24
g40
sba(imyEvolve
Tree
p182
(dp183
g7
I4
sg8
(imyEvolve
Tree
p184
(dp185
g13
(imyEvolve
Tree
p186
(dp187
g13
(imyEvolve
Tree
p188
(dp189
g7
I1
sg8
(imyEvolve
Tree
p190
(dp191
g7
I0
sg18
I00
sbsg19
(imyEvolve
Tree
p192
(dp193
g7
I0
sg22
F-2.2907740528004727
sg18
I01
sbsg23
I00
sg24
g58
sbsg7
I2
sg23
I01
sg24
g99
sbsg7
I3
sg23
I01
sg24
g26
sbsg19
(imyEvolve
Tree
p194
(dp195
g7
I3
sg8
(imyEvolve
Tree
p196
(dp197
g13
(imyEvolve
Tree
p198
(dp199
g7
I1
sg8
(imyEvolve
Tree
p200
(dp201
g7
I0
sg22
F4.685907475937704
sg18
I01
sbsg19
(imyEvolve
Tree
p202
(dp203
g7
I0
sg18
I00
sbsg23
I00
sg24
g25
sbsg7
I2
sg23
I01
sg24
g99
sbsg19
(imyEvolve
Tree
p204
(dp205
g13
(imyEvolve
Tree
p206
(dp207
g7
I1
sg8
(imyEvolve
Tree
p208
(dp209
g7
I0
sg18
I00
sbsg19
(imyEvolve
Tree
p210
(dp211
g7
I0
sg18
I00
sbsg23
I00
sg24
g35
sbsg7
I2
sg23
I01
sg24
g49
sbsg23
I00
sg24
g35
sbsg23
I00
sg24
g58
sba(imyEvolve
Tree
p212
(dp213
g13
(imyEvolve
Tree
p214
(dp215
g13
(imyEvolve
Tree
p216
(dp217
g13
(imyEvolve
Tree
p218
(dp219
g7
I1
sg8
(imyEvolve
Tree
p220
(dp221
g7
I0
sg22
F1.72861226967043
sg18
I01
sbsg19
(imyEvolve
Tree
p222
(dp223
g7
I0
sg18
I00
sbsg23
I00
sg24
g25
sbsg7
I2
sg23
I01
sg24
g26
sbsg7
I3
sg23
I01
sg24
g26
sbsg7
I4
sg23
I01
sg24
g49
sba(imyEvolve
Tree
p224
(dp225
g7
I3
sg8
(imyEvolve
Tree
p226
(dp227
g13
(imyEvolve
Tree
p228
(dp229
g13
(imyEvolve
Tree
p230
(dp231
g7
I0
sg18
I00
sbsg7
I1
sg23
I01
sg24
g40
sbsg7
I2
sg23
I01
sg24
g26
sbsg19
(imyEvolve
Tree
p232
(dp233
g7
I2
sg8
(imyEvolve
Tree
p234
(dp235
g13
(imyEvolve
Tree
p236
(dp237
g7
I0
sg22
F-1.3687196207323602
sg18
I01
sbsg7
I1
sg23
I01
sg24
g99
sbsg19
(imyEvolve
Tree
p238
(dp239
g13
(imyEvolve
Tree
p240
(dp241
g7
I0
sg22
F-3.11375169702076
sg18
I01
sbsg7
I1
sg23
I01
sg24
g26
sbsg23
I00
sg24
g35
sbsg23
I00
sg24
g58
sba(imyEvolve
Tree
p242
(dp243
g13
(imyEvolve
Tree
p244
(dp245
g7
I3
sg8
(imyEvolve
Tree
p246
(dp247
g7
I2
sg8
(imyEvolve
Tree
p248
(dp249
g7
I1
sg8
(imyEvolve
Tree
p250
(dp251
g7
I0
sg22
F-3.9421133218812834
sg18
I01
sbsg19
(imyEvolve
Tree
p252
(dp253
g7
I0
sg22
F-2.7564405995623984
sg18
I01
sbsg23
I00
sg24
g25
sbsg19
(imyEvolve
Tree
p254
(dp255
g7
I1
sg8
(imyEvolve
Tree
p256
(dp257
g7
I0
sg22
F-3.0580601574333333
sg18
I01
sbsg19
(imyEvolve
Tree
p258
(dp259
g7
I0
sg22
F4.649370196764908
sg18
I01
sbsg23
I00
sg24
g58
sbsg23
I00
sg24
g35
sbsg19
(imyEvolve
Tree
p260
(dp261
g13
(imyEvolve
Tree
p262
(dp263
g13
(imyEvolve
Tree
p264
(dp265
g7
I0
sg22
F-2.922213350647941
sg18
I01
sbsg7
I1
sg23
I01
sg24
g40
sbsg7
I2
sg23
I01
sg24
g26
sbsg23
I00
sg24
g25
sbsg7
I4
sg23
I01
sg24
g26
sba(imyEvolve
Tree
p266
(dp267
g7
I3
sg8
(imyEvolve
Tree
p268
(dp269
g13
(imyEvolve
Tree
p270
(dp271
g13
(imyEvolve
Tree
p272
(dp273
g7
I0
sg22
F2.797731476923012
sg18
I01
sbsg7
I1
sg23
I01
sg24
g40
sbsg7
I2
sg23
I01
sg24
g49
sbsg19
(imyEvolve
Tree
p274
(dp275
g13
(imyEvolve
Tree
p276
(dp277
g7
I1
sg8
(imyEvolve
Tree
p278
(dp279
g7
I0
sg22
F-4.454185294751475
sg18
I01
sbsg19
(imyEvolve
Tree
p280
(dp281
g7
I0
sg22
F-4.369048071284386
sg18
I01
sbsg23
I00
sg24
g25
sbsg7
I2
sg23
I01
sg24
g40
sbsg23
I00
sg24
g25
sba(imyEvolve
Tree
p282
(dp283
g7
I2
sg8
(imyEvolve
Tree
p284
(dp285
g7
I1
sg8
(imyEvolve
Tree
p286
(dp287
g7
I0
sg22
F-2.2069088854225907
sg18
I01
sbsg19
(imyEvolve
Tree
p288
(dp289
g7
I0
sg18
I00
sbsg23
I00
sg24
g25
sbsg19
(imyEvolve
Tree
p290
(dp291
g13
(imyEvolve
Tree
p292
(dp293
g7
I0
sg18
I00
sbsg7
I1
sg23
I01
sg24
g26
sbsg23
I00
sg24
g35
sba(imyEvolve
Tree
p294
(dp295
g13
(imyEvolve
Tree
p296
(dp297
g7
I2
sg8
(imyEvolve
Tree
p298
(dp299
g13
(imyEvolve
Tree
p300
(dp301
g7
I0
sg22
F0.5916489067817512
sg18
I01
sbsg7
I1
sg23
I01
sg24
g99
sbsg19
(imyEvolve
Tree
p302
(dp303
g7
I1
sg8
(imyEvolve
Tree
p304
(dp305
g7
I0
sg22
F-3.048705332479801
sg18
I01
sbsg19
(imyEvolve
Tree
p306
(dp307
g7
I0
sg22
F1.3410389868199069
sg18
I01
sbsg23
I00
sg24
g58
sbsg23
I00
sg24
g25
sbsg7
I3
sg23
I01
sg24
g49
sba(imyEvolve
Tree
p308
(dp309
g7
I4
sg8
(imyEvolve
Tree
p310
(dp311
g7
I3
sg8
(imyEvolve
Tree
p312
(dp313
g7
I2
sg8
(imyEvolve
Tree
p314
(dp315
g13
(imyEvolve
Tree
p316
(dp317
g7
I0
sg22
F1.3665726028259408
sg18
I01
sbsg7
I1
sg23
I01
sg24
g26
sbsg19
(imyEvolve
Tree
p318
(dp319
g7
I1
sg8
(imyEvolve
Tree
p320
(dp321
g7
I0
sg22
F-3.4782873769725233
sg18
I01
sbsg19
(imyEvolve
Tree
p322
(dp323
g7
I0
sg18
I00
sbsg23
I00
sg24
g25
sbsg23
I00
sg24
g35
sbsg19
(imyEvolve
Tree
p324
(dp325
g7
I2
sg8
(imyEvolve
Tree
p326
(dp327
g7
I1
sg8
(imyEvolve
Tree
p328
(dp329
g7
I0
sg22
F4.5043709534597625
sg18
I01
sbsg19
(imyEvolve
Tree
p330
(dp331
g7
I0
sg18
I00
sbsg23
I00
sg24
g35
sbsg19
(imyEvolve
Tree
p332
(dp333
g7
I1
sg8
(imyEvolve
Tree
p334
(dp335
g7
I0
sg22
F-3.3849710984795953
sg18
I01
sbsg19
(imyEvolve
Tree
p336
(dp337
g7
I0
sg22
F0.15235556307868858
sg18
I01
sbsg23
I00
sg24
g25
sbsg23
I00
sg24
g58
sbsg23
I00
sg24
g58
sbsg19
(imyEvolve
Tree
p338
(dp339
g7
I3
sg8
(imyEvolve
Tree
p340
(dp341
g13
(imyEvolve
Tree
p342
(dp343
g13
(imyEvolve
Tree
p344
(dp345
g7
I0
sg18
I00
sbsg7
I1
sg23
I01
sg24
g40
sbsg7
I2
sg23
I01
sg24
g49
sbsg19
(imyEvolve
Tree
p346
(dp347
g7
I2
sg8
(imyEvolve
Tree
p348
(dp349
g13
(imyEvolve
Tree
p350
(dp351
g7
I0
sg18
I00
sbsg7
I1
sg23
I01
sg24
g26
sbsg19
(imyEvolve
Tree
p352
(dp353
g13
(imyEvolve
Tree
p354
(dp355
g7
I0
sg22
F0.2640560390392661
sg18
I01
sbsg7
I1
sg23
I01
sg24
g99
sbsg23
I00
sg24
g58
sbsg23
I00
sg24
g58
sbsg23
I00
sg24
g35
sba(imyEvolve
Tree
p356
(dp357
g7
I5
sg8
(imyEvolve
Tree
p358
(dp359
g7
I4
sg8
(imyEvolve
Tree
p360
(dp361
g7
I3
sg8
(imyEvolve
Tree
p362
(dp363
g7
I2
sg8
(imyEvolve
Tree
p364
(dp365
g7
I1
sg8
(imyEvolve
Tree
p366
(dp367
g7
I0
sg22
F-1.1396249883898513
sg18
I01
sbsg19
(imyEvolve
Tree
p368
(dp369
g7
I0
sg18
I00
sbsg23
I00
sg24
g58
sbsg19
(imyEvolve
Tree
p370
(dp371
g13
(imyEvolve
Tree
p372
(dp373
g7
I0
sg22
F0.37780246629179093
sg18
I01
sbsg7
I1
sg23
I01
sg24
g49
sbsg23
I00
sg24
g58
sbsg19
(imyEvolve
Tree
p374
(dp375
g13
(imyEvolve
Tree
p376
(dp377
g13
(imyEvolve
Tree
p378
(dp379
g7
I0
sg18
I00
sbsg7
I1
sg23
I01
sg24
g49
sbsg7
I2
sg23
I01
sg24
g40
sbsg23
I00
sg24
g25
sbsg19
(imyEvolve
Tree
p380
(dp381
g13
(imyEvolve
Tree
p382
(dp383
g7
I2
sg8
(imyEvolve
Tree
p384
(dp385
g7
I1
sg8
(imyEvolve
Tree
p386
(dp387
g7
I0
sg18
I00
sbsg19
(imyEvolve
Tree
p388
(dp389
g7
I0
sg22
F1.7217547329609566
sg18
I01
sbsg23
I00
sg24
g35
sbsg19
(imyEvolve
Tree
p390
(dp391
g7
I1
sg8
(imyEvolve
Tree
p392
(dp393
g7
I0
sg18
I00
sbsg19
(imyEvolve
Tree
p394
(dp395
g7
I0
sg18
I00
sbsg23
I00
sg24
g58
sbsg23
I00
sg24
g35
sbsg7
I3
sg23
I01
sg24
g26
sbsg23
I00
sg24
g58
sbsg19
(imyEvolve
Tree
p396
(dp397
g7
I4
sg8
(imyEvolve
Tree
p398
(dp399
g13
(imyEvolve
Tree
p400
(dp401
g7
I2
sg8
(imyEvolve
Tree
p402
(dp403
g7
I1
sg8
(imyEvolve
Tree
p404
(dp405
g7
I0
sg18
I00
sbsg19
(imyEvolve
Tree
p406
(dp407
g7
I0
sg22
F-4.560960188525669
sg18
I01
sbsg23
I00
sg24
g58
sbsg19
(imyEvolve
Tree
p408
(dp409
g7
I1
sg8
(imyEvolve
Tree
p410
(dp411
g7
I0
sg22
F-1.8638431248037546
sg18
I01
sbsg19
(imyEvolve
Tree
p412
(dp413
g7
I0
sg22
F4.187898677153589
sg18
I01
sbsg23
I00
sg24
g58
sbsg23
I00
sg24
g35
sbsg7
I3
sg23
I01
sg24
g26
sbsg19
(imyEvolve
Tree
p414
(dp415
g13
(imyEvolve
Tree
p416
(dp417
g13
(imyEvolve
Tree
p418
(dp419
g13
(imyEvolve
Tree
p420
(dp421
g7
I0
sg22
F-2.035583303661519
sg18
I01
sbsg7
I1
sg23
I01
sg24
g49
sbsg7
I2
sg23
I01
sg24
g99
sbsg7
I3
sg23
I01
sg24
g49
sbsg23
I00
sg24
g58
sbsg23
I00
sg24
g58
sba(imyEvolve
Tree
p422
(dp423
g7
I5
sg8
(imyEvolve
Tree
p424
(dp425
g13
(imyEvolve
Tree
p426
(dp427
g13
(imyEvolve
Tree
p428
(dp429
g7
I2
sg8
(imyEvolve
Tree
p430
(dp431
g13
(imyEvolve
Tree
p432
(dp433
g7
I0
sg22
F4.414237404371322
sg18
I01
sbsg7
I1
sg23
I01
sg24
g26
sbsg19
(imyEvolve
Tree
p434
(dp435
g13
(imyEvolve
Tree
p436
(dp437
g7
I0
sg22
F1.3705470246279017
sg18
I01
sbsg7
I1
sg23
I01
sg24
g49
sbsg23
I00
sg24
g35
sbsg7
I3
sg23
I01
sg24
g49
sbsg7
I4
sg23
I01
sg24
g99
sbsg19
(imyEvolve
Tree
p438
(dp439
g7
I4
sg8
(imyEvolve
Tree
p440
(dp441
g7
I3
sg8
(imyEvolve
Tree
p442
(dp443
g13
(imyEvolve
Tree
p444
(dp445
g7
I1
sg8
(imyEvolve
Tree
p446
(dp447
g7
I0
sg22
F-3.6806825216551675
sg18
I01
sbsg19
(imyEvolve
Tree
p448
(dp449
g7
I0
sg22
F4.7463066565719725
sg18
I01
sbsg23
I00
sg24
g58
sbsg7
I2
sg23
I01
sg24
g99
sbsg19
(imyEvolve
Tree
p450
(dp451
g13
(imyEvolve
Tree
p452
(dp453
g13
(imyEvolve
Tree
p454
(dp455
g7
I0
sg18
I00
sbsg7
I1
sg23
I01
sg24
g49
sbsg7
I2
sg23
I01
sg24
g40
sbsg23
I00
sg24
g35
sbsg19
(imyEvolve
Tree
p456
(dp457
g7
I3
sg8
(imyEvolve
Tree
p458
(dp459
g7
I2
sg8
(imyEvolve
Tree
p460
(dp461
g7
I1
sg8
(imyEvolve
Tree
p462
(dp463
g7
I0
sg22
F-0.9548913231820464
sg18
I01
sbsg19
(imyEvolve
Tree
p464
(dp465
g7
I0
sg18
I00
sbsg23
I00
sg24
g25
sbsg19
(imyEvolve
Tree
p466
(dp467
g7
I1
sg8
(imyEvolve
Tree
p468
(dp469
g7
I0
sg18
I00
sbsg19
(imyEvolve
Tree
p470
(dp471
g7
I0
sg22
F-3.554551268273295
sg18
I01
sbsg23
I00
sg24
g58
sbsg23
I00
sg24
g58
sbsg19
(imyEvolve
Tree
p472
(dp473
g7
I2
sg8
(imyEvolve
Tree
p474
(dp475
g13
(imyEvolve
Tree
p476
(dp477
g7
I0
sg22
F1.7857328629602822
sg18
I01
sbsg7
I1
sg23
I01
sg24
g26
sbsg19
(imyEvolve
Tree
p478
(dp479
g13
(imyEvolve
Tree
p480
(dp481
g7
I0
sg18
I00
sbsg7
I1
sg23
I01
sg24
g99
sbsg23
I00
sg24
g35
sbsg23
I00
sg24
g58
sbsg23
I00
sg24
g25
sbsg23
I00
sg24
g58
sba(imyEvolve
Tree
p482
(dp483
g7
I3
sg8
(imyEvolve
Tree
p484
(dp485
g7
I2
sg8
(imyEvolve
Tree
p486
(dp487
g13
(imyEvolve
Tree
p488
(dp489
g7
I0
sg22
F4.108676686169758
sg18
I01
sbsg7
I1
sg23
I01
sg24
g49
sbsg19
(imyEvolve
Tree
p490
(dp491
g7
I1
sg8
(imyEvolve
Tree
p492
(dp493
g7
I0
sg22
F3.515305014195823
sg18
I01
sbsg19
(imyEvolve
Tree
p494
(dp495
g7
I0
sg22
F0.6566368456721472
sg18
I01
sbsg23
I00
sg24
g58
sbsg23
I00
sg24
g58
sbsg19
(imyEvolve
Tree
p496
(dp497
g13
(imyEvolve
Tree
p498
(dp499
g7
I1
sg8
(imyEvolve
Tree
p500
(dp501
g7
I0
sg18
I00
sbsg19
(imyEvolve
Tree
p502
(dp503
g7
I0
sg22
F-2.7821528963243813
sg18
I01
sbsg23
I00
sg24
g35
sbsg7
I2
sg23
I01
sg24
g99
sbsg23
I00
sg24
g58
sba(imyEvolve
Tree
p504
(dp505
g13
(imyEvolve
Tree
p506
(dp507
g13
(imyEvolve
Tree
p508
(dp509
g7
I1
sg8
(imyEvolve
Tree
p510
(dp511
g7
I0
sg18
I00
sbsg19
(imyEvolve
Tree
p512
(dp513
g7
I0
sg22
F-0.6037552480768813
sg18
I01
sbsg23
I00
sg24
g58
sbsg7
I2
sg23
I01
sg24
g40
sbsg7
I3
sg23
I01
sg24
g49
sbaasS'weightSharing'
p514
(lp515
I00
aI00
aI00
aI00
aI00
aI00
aI00
aI00
aI00
asS'fitnessValid'
p516
I00
sS'fitness'
p517
cnumpy.core.multiarray
scalar
p518
(cnumpy
dtype
p519
(S'f8'
p520
I0
I1
tp521
Rp522
(I3
S'<'
p523
NNNI-1
I-1
I0
tp524
bS'\x00\xf8~j\xc4\xeeF\xbf'
p525
tp526
Rp527
sS'alpha'
p528
F0.008206711510748477
sS'resolution'
p529
I67
sb.