(imyEvolve
Individual
p0
(dp1
S'funcs'
p2
(lp3
(lp4
(imyEvolve
Tree
p5
(dp6
S'below'
p7
(imyEvolve
Tree
p8
(dp9
g7
(imyEvolve
Tree
p10
(dp11
g7
(imyEvolve
Tree
p12
(dp13
S'left'
p14
(imyEvolve
Tree
p15
(dp16
g14
(imyEvolve
Tree
p17
(dp18
S'depth'
p19
I0
sS'isConstant'
p20
I00
sbsg19
I1
sS'right'
p21
(imyEvolve
Tree
p22
(dp23
g19
I0
sS'constant'
p24
F3.984427907563571
sg20
I01
sbsS'single'
p25
I00
sS'op'
p26
coperator
sub
p27
sbsg19
I2
sg21
(imyEvolve
Tree
p28
(dp29
g14
(imyEvolve
Tree
p30
(dp31
g19
I0
sg20
I00
sbsg19
I1
sg21
(imyEvolve
Tree
p32
(dp33
g19
I0
sg20
I00
sbsg25
I00
sg26
coperator
mul
p34
sbsg25
I00
sg26
coperator
add
p35
sbsg19
I3
sg25
I01
sg26
cmyEvolve
absSqrt
p36
sbsg19
I4
sg25
I01
sg26
cmath
cos
p37
sbsg19
I5
sg25
I01
sg26
cmyEvolve
square
p38
sba(imyEvolve
Tree
p39
(dp40
g19
I3
sg14
(imyEvolve
Tree
p41
(dp42
g7
(imyEvolve
Tree
p43
(dp44
g19
I1
sg14
(imyEvolve
Tree
p45
(dp46
g19
I0
sg20
I00
sbsg21
(imyEvolve
Tree
p47
(dp48
g19
I0
sg24
F2.1868711552543987
sg20
I01
sbsg25
I00
sg26
g27
sbsg19
I2
sg25
I01
sg26
cmath
sin
p49
sbsg21
(imyEvolve
Tree
p50
(dp51
g19
I2
sg14
(imyEvolve
Tree
p52
(dp53
g19
I1
sg14
(imyEvolve
Tree
p54
(dp55
g19
I0
sg24
F1.097337673914156
sg20
I01
sbsg21
(imyEvolve
Tree
p56
(dp57
g19
I0
sg20
I00
sbsg25
I00
sg26
g35
sbsg21
(imyEvolve
Tree
p58
(dp59
g7
(imyEvolve
Tree
p60
(dp61
g19
I0
sg20
I00
sbsg19
I1
sg25
I01
sg26
g36
sbsg25
I00
sg26
g35
sbsg25
I00
sg26
g27
sba(imyEvolve
Tree
p62
(dp63
g7
(imyEvolve
Tree
p64
(dp65
g7
(imyEvolve
Tree
p66
(dp67
g14
(imyEvolve
Tree
p68
(dp69
g19
I0
sg24
F-4.125099713695647
sg20
I01
sbsg19
I1
sg21
(imyEvolve
Tree
p70
(dp71
g19
I0
sg24
F-0.9152356311262988
sg20
I01
sbsg25
I00
sg26
g27
sbsg19
I2
sg25
I01
sg26
g38
sbsg19
I3
sg25
I01
sg26
g36
sba(imyEvolve
Tree
p72
(dp73
g14
(imyEvolve
Tree
p74
(dp75
g14
(imyEvolve
Tree
p76
(dp77
g7
(imyEvolve
Tree
p78
(dp79
g19
I0
sg24
F-1.5210010609949176
sg20
I01
sbsg19
I1
sg25
I01
sg26
g38
sbsg19
I2
sg21
(imyEvolve
Tree
p80
(dp81
g7
(imyEvolve
Tree
p82
(dp83
g19
I0
sg24
F-1.4220263173903436
sg20
I01
sbsg19
I1
sg25
I01
sg26
g37
sbsg25
I00
sg26
g34
sbsg19
I3
sg21
(imyEvolve
Tree
p84
(dp85
g7
(imyEvolve
Tree
p86
(dp87
g14
(imyEvolve
Tree
p88
(dp89
g19
I0
sg20
I00
sbsg19
I1
sg21
(imyEvolve
Tree
p90
(dp91
g19
I0
sg20
I00
sbsg25
I00
sg26
g34
sbsg19
I2
sg25
I01
sg26
g37
sbsg25
I00
sg26
g27
sba(imyEvolve
Tree
p92
(dp93
g14
(imyEvolve
Tree
p94
(dp95
g7
(imyEvolve
Tree
p96
(dp97
g14
(imyEvolve
Tree
p98
(dp99
g7
(imyEvolve
Tree
p100
(dp101
g14
(imyEvolve
Tree
p102
(dp103
g19
I0
sg24
F4.0396433389151944
sg20
I01
sbsg19
I1
sg21
(imyEvolve
Tree
p104
(dp105
g19
I0
sg20
I00
sbsg25
I00
sg26
g27
sbsg19
I2
sg25
I01
sg26
g36
sbsg19
I3
sg21
(imyEvolve
Tree
p106
(dp107
g7
(imyEvolve
Tree
p108
(dp109
g7
(imyEvolve
Tree
p110
(dp111
g19
I0
sg20
I00
sbsg19
I1
sg25
I01
sg26
g36
sbsg19
I2
sg25
I01
sg26
g37
sbsg25
I00
sg26
g27
sbsg19
I4
sg25
I01
sg26
g38
sbsg19
I5
sg21
(imyEvolve
Tree
p112
(dp113
g14
(imyEvolve
Tree
p114
(dp115
g7
(imyEvolve
Tree
p116
(dp117
g14
(imyEvolve
Tree
p118
(dp119
g7
(imyEvolve
Tree
p120
(dp121
g19
I0
sg20
I00
sbsg19
I1
sg25
I01
sg26
g37
sbsg19
I2
sg21
(imyEvolve
Tree
p122
(dp123
g14
(imyEvolve
Tree
p124
(dp125
g19
I0
sg24
F3.170171351217242
sg20
I01
sbsg19
I1
sg21
(imyEvolve
Tree
p126
(dp127
g19
I0
sg24
F-4.363646497794421
sg20
I01
sbsg25
I00
sg26
g27
sbsg25
I00
sg26
g27
sbsg19
I3
sg25
I01
sg26
g38
sbsg19
I4
sg21
(imyEvolve
Tree
p128
(dp129
g14
(imyEvolve
Tree
p130
(dp131
g7
(imyEvolve
Tree
p132
(dp133
g7
(imyEvolve
Tree
p134
(dp135
g19
I0
sg24
F1.967929402358985
sg20
I01
sbsg19
I1
sg25
I01
sg26
g49
sbsg19
I2
sg25
I01
sg26
g38
sbsg19
I3
sg21
(imyEvolve
Tree
p136
(dp137
g7
(imyEvolve
Tree
p138
(dp139
g7
(imyEvolve
Tree
p140
(dp141
g19
I0
sg20
I00
sbsg19
I1
sg25
I01
sg26
g38
sbsg19
I2
sg25
I01
sg26
g49
sbsg25
I00
sg26
g34
sbsg25
I00
sg26
g27
sbsg25
I00
sg26
g35
sba(imyEvolve
Tree
p142
(dp143
g7
(imyEvolve
Tree
p144
(dp145
g7
(imyEvolve
Tree
p146
(dp147
g14
(imyEvolve
Tree
p148
(dp149
g7
(imyEvolve
Tree
p150
(dp151
g7
(imyEvolve
Tree
p152
(dp153
g19
I0
sg20
I00
sbsg19
I1
sg25
I01
sg26
g49
sbsg19
I2
sg25
I01
sg26
g49
sbsg19
I3
sg21
(imyEvolve
Tree
p154
(dp155
g7
(imyEvolve
Tree
p156
(dp157
g14
(imyEvolve
Tree
p158
(dp159
g19
I0
sg24
F-1.1861224669500436
sg20
I01
sbsg19
I1
sg21
(imyEvolve
Tree
p160
(dp161
g19
I0
sg20
I00
sbsg25
I00
sg26
g35
sbsg19
I2
sg25
I01
sg26
g49
sbsg25
I00
sg26
g34
sbsg19
I4
sg25
I01
sg26
g38
sbsg19
I5
sg25
I01
sg26
g38
sba(imyEvolve
Tree
p162
(dp163
g14
(imyEvolve
Tree
p164
(dp165
g7
(imyEvolve
Tree
p166
(dp167
g14
(imyEvolve
Tree
p168
(dp169
g19
I0
sg20
I00
sbsg19
I1
sg21
(imyEvolve
Tree
p170
(dp171
g19
I0
sg24
F1.0217643525660849
sg20
I01
sbsg25
I00
sg26
g27
sbsg19
I2
sg25
I01
sg26
g37
sbsg19
I3
sg21
(imyEvolve
Tree
p172
(dp173
g7
(imyEvolve
Tree
p174
(dp175
g7
(imyEvolve
Tree
p176
(dp177
g19
I0
sg24
F2.7183803353093055
sg20
I01
sbsg19
I1
sg25
I01
sg26
g49
sbsg19
I2
sg25
I01
sg26
g37
sbsg25
I00
sg26
g34
sba(imyEvolve
Tree
p178
(dp179
g7
(imyEvolve
Tree
p180
(dp181
g19
I1
sg14
(imyEvolve
Tree
p182
(dp183
g19
I0
sg24
F4.0559672458502245
sg20
I01
sbsg21
(imyEvolve
Tree
p184
(dp185
g19
I0
sg20
I00
sbsg25
I00
sg26
g35
sbsg19
I2
sg25
I01
sg26
g37
sbaa(lp186
(imyEvolve
Tree
p187
(dp188
g14
(imyEvolve
Tree
p189
(dp190
g7
(imyEvolve
Tree
p191
(dp192
g19
I0
sg24
F4.659652594258729
sg20
I01
sbsg19
I1
sg25
I01
sg26
g37
sbsg19
I2
sg21
(imyEvolve
Tree
p193
(dp194
g7
(imyEvolve
Tree
p195
(dp196
g19
I0
sg20
I00
sbsg19
I1
sg25
I01
sg26
g49
sbsg25
I00
sg26
g34
sba(imyEvolve
Tree
p197
(dp198
g19
I3
sg14
(imyEvolve
Tree
p199
(dp200
g7
(imyEvolve
Tree
p201
(dp202
g19
I1
sg14
(imyEvolve
Tree
p203
(dp204
g19
I0
sg20
I00
sbsg21
(imyEvolve
Tree
p205
(dp206
g19
I0
sg24
F3.5324243228299537
sg20
I01
sbsg25
I00
sg26
g27
sbsg19
I2
sg25
I01
sg26
g36
sbsg21
(imyEvolve
Tree
p207
(dp208
g19
I2
sg14
(imyEvolve
Tree
p209
(dp210
g19
I1
sg14
(imyEvolve
Tree
p211
(dp212
g19
I0
sg20
I00
sbsg21
(imyEvolve
Tree
p213
(dp214
g19
I0
sg24
F1.9625763455415521
sg20
I01
sbsg25
I00
sg26
g34
sbsg21
(imyEvolve
Tree
p215
(dp216
g7
(imyEvolve
Tree
p217
(dp218
g19
I0
sg24
F-1.535157009156447
sg20
I01
sbsg19
I1
sg25
I01
sg26
g49
sbsg25
I00
sg26
g35
sbsg25
I00
sg26
g35
sba(imyEvolve
Tree
p219
(dp220
g14
(imyEvolve
Tree
p221
(dp222
g14
(imyEvolve
Tree
p223
(dp224
g19
I0
sg20
I00
sbsg19
I1
sg21
(imyEvolve
Tree
p225
(dp226
g19
I0
sg20
I00
sbsg25
I00
sg26
g35
sbsg19
I2
sg21
(imyEvolve
Tree
p227
(dp228
g7
(imyEvolve
Tree
p229
(dp230
g19
I0
sg20
I00
sbsg19
I1
sg25
I01
sg26
g38
sbsg25
I00
sg26
g34
sba(imyEvolve
Tree
p231
(dp232
g7
(imyEvolve
Tree
p233
(dp234
g7
(imyEvolve
Tree
p235
(dp236
g19
I0
sg24
F-3.4239415853617885
sg20
I01
sbsg19
I1
sg25
I01
sg26
g37
sbsg19
I2
sg25
I01
sg26
g36
sba(imyEvolve
Tree
p237
(dp238
g7
(imyEvolve
Tree
p239
(dp240
g7
(imyEvolve
Tree
p241
(dp242
g7
(imyEvolve
Tree
p243
(dp244
g7
(imyEvolve
Tree
p245
(dp246
g19
I0
sg24
F0.26642951624981226
sg20
I01
sbsg19
I1
sg25
I01
sg26
g37
sbsg19
I2
sg25
I01
sg26
g37
sbsg19
I3
sg25
I01
sg26
g49
sbsg19
I4
sg25
I01
sg26
g38
sba(imyEvolve
Tree
p247
(dp248
g7
(imyEvolve
Tree
p249
(dp250
g7
(imyEvolve
Tree
p251
(dp252
g19
I0
sg20
I00
sbsg19
I1
sg25
I01
sg26
g36
sbsg19
I2
sg25
I01
sg26
g38
sba(imyEvolve
Tree
p253
(dp254
g7
(imyEvolve
Tree
p255
(dp256
g7
(imyEvolve
Tree
p257
(dp258
g7
(imyEvolve
Tree
p259
(dp260
g7
(imyEvolve
Tree
p261
(dp262
g7
(imyEvolve
Tree
p263
(dp264
g19
I0
sg20
I00
sbsg19
I1
sg25
I01
sg26
g49
sbsg19
I2
sg25
I01
sg26
g36
sbsg19
I3
sg25
I01
sg26
g37
sbsg19
I4
sg25
I01
sg26
g38
sbsg19
I5
sg25
I01
sg26
g37
sba(imyEvolve
Tree
p265
(dp266
g7
(imyEvolve
Tree
p267
(dp268
g7
(imyEvolve
Tree
p269
(dp270
g19
I3
sg14
(imyEvolve
Tree
p271
(dp272
g19
I2
sg14
(imyEvolve
Tree
p273
(dp274
g19
I1
sg14
(imyEvolve
Tree
p275
(dp276
g19
I0
sg24
F1.828878141652826
sg20
I01
sbsg21
(imyEvolve
Tree
p277
(dp278
g19
I0
sg24
F-2.9269642011614696
sg20
I01
sbsg25
I00
sg26
g35
sbsg21
(imyEvolve
Tree
p279
(dp280
g19
I1
sg14
(imyEvolve
Tree
p281
(dp282
g19
I0
sg24
F-4.535438663353942
sg20
I01
sbsg21
(imyEvolve
Tree
p283
(dp284
g19
I0
sg20
I00
sbsg25
I00
sg26
g27
sbsg25
I00
sg26
g27
sbsg21
(imyEvolve
Tree
p285
(dp286
g19
I2
sg14
(imyEvolve
Tree
p287
(dp288
g19
I1
sg14
(imyEvolve
Tree
p289
(dp290
g19
I0
sg24
F0.5396342223388508
sg20
I01
sbsg21
(imyEvolve
Tree
p291
(dp292
g19
I0
sg24
F-0.8704297551062146
sg20
I01
sbsg25
I00
sg26
g35
sbsg21
(imyEvolve
Tree
p293
(dp294
g7
(imyEvolve
Tree
p295
(dp296
g19
I0
sg20
I00
sbsg19
I1
sg25
I01
sg26
g49
sbsg25
I00
sg26
g34
sbsg25
I00
sg26
g27
sbsg19
I4
sg25
I01
sg26
g38
sbsg19
I5
sg25
I01
sg26
g38
sba(imyEvolve
Tree
p297
(dp298
g7
(imyEvolve
Tree
p299
(dp300
g7
(imyEvolve
Tree
p301
(dp302
g19
I0
sg24
F4.920875181572963
sg20
I01
sbsg19
I1
sg25
I01
sg26
g38
sbsg19
I2
sg25
I01
sg26
g36
sba(imyEvolve
Tree
p303
(dp304
g7
(imyEvolve
Tree
p305
(dp306
g14
(imyEvolve
Tree
p307
(dp308
g14
(imyEvolve
Tree
p309
(dp310
g19
I0
sg24
F1.7830900044286349
sg20
I01
sbsg19
I1
sg21
(imyEvolve
Tree
p311
(dp312
g19
I0
sg24
F-1.1987786485235552
sg20
I01
sbsg25
I00
sg26
g35
sbsg19
I2
sg21
(imyEvolve
Tree
p313
(dp314
g14
(imyEvolve
Tree
p315
(dp316
g19
I0
sg24
F2.2103201594598527
sg20
I01
sbsg19
I1
sg21
(imyEvolve
Tree
p317
(dp318
g19
I0
sg20
I00
sbsg25
I00
sg26
g35
sbsg25
I00
sg26
g35
sbsg19
I3
sg25
I01
sg26
g36
sba(imyEvolve
Tree
p319
(dp320
g7
(imyEvolve
Tree
p321
(dp322
g7
(imyEvolve
Tree
p323
(dp324
g19
I0
sg24
F-3.677723581200496
sg20
I01
sbsg19
I1
sg25
I01
sg26
g36
sbsg19
I2
sg25
I01
sg26
g36
sba(imyEvolve
Tree
p325
(dp326
g14
(imyEvolve
Tree
p327
(dp328
g14
(imyEvolve
Tree
p329
(dp330
g7
(imyEvolve
Tree
p331
(dp332
g14
(imyEvolve
Tree
p333
(dp334
g7
(imyEvolve
Tree
p335
(dp336
g19
I0
sg20
I00
sbsg19
I1
sg25
I01
sg26
g38
sbsg19
I2
sg21
(imyEvolve
Tree
p337
(dp338
g7
(imyEvolve
Tree
p339
(dp340
g19
I0
sg24
F-3.3116970512313717
sg20
I01
sbsg19
I1
sg25
I01
sg26
g36
sbsg25
I00
sg26
g35
sbsg19
I3
sg25
I01
sg26
g36
sbsg19
I4
sg21
(imyEvolve
Tree
p341
(dp342
g14
(imyEvolve
Tree
p343
(dp344
g7
(imyEvolve
Tree
p345
(dp346
g7
(imyEvolve
Tree
p347
(dp348
g19
I0
sg20
I00
sbsg19
I1
sg25
I01
sg26
g38
sbsg19
I2
sg25
I01
sg26
g36
sbsg19
I3
sg21
(imyEvolve
Tree
p349
(dp350
g7
(imyEvolve
Tree
p351
(dp352
g7
(imyEvolve
Tree
p353
(dp354
g19
I0
sg24
F2.4317245076071305
sg20
I01
sbsg19
I1
sg25
I01
sg26
g38
sbsg19
I2
sg25
I01
sg26
g37
sbsg25
I00
sg26
g27
sbsg25
I00
sg26
g34
sbsg19
I5
sg21
(imyEvolve
Tree
p355
(dp356
g14
(imyEvolve
Tree
p357
(dp358
g7
(imyEvolve
Tree
p359
(dp360
g7
(imyEvolve
Tree
p361
(dp362
g14
(imyEvolve
Tree
p363
(dp364
g19
I0
sg20
I00
sbsg19
I1
sg21
(imyEvolve
Tree
p365
(dp366
g19
I0
sg24
F4.640373551918032
sg20
I01
sbsg25
I00
sg26
g34
sbsg19
I2
sg25
I01
sg26
g38
sbsg19
I3
sg25
I01
sg26
g37
sbsg19
I4
sg21
(imyEvolve
Tree
p367
(dp368
g7
(imyEvolve
Tree
p369
(dp370
g7
(imyEvolve
Tree
p371
(dp372
g7
(imyEvolve
Tree
p373
(dp374
g19
I0
sg20
I00
sbsg19
I1
sg25
I01
sg26
g49
sbsg19
I2
sg25
I01
sg26
g37
sbsg19
I3
sg25
I01
sg26
g38
sbsg25
I00
sg26
g27
sbsg25
I00
sg26
g27
sbaa(lp375
(imyEvolve
Tree
p376
(dp377
g7
(imyEvolve
Tree
p378
(dp379
g7
(imyEvolve
Tree
p380
(dp381
g7
(imyEvolve
Tree
p382
(dp383
g19
I0
sg24
F2.7799744554251893
sg20
I01
sbsg19
I1
sg25
I01
sg26
g37
sbsg19
I2
sg25
I01
sg26
g38
sbsg19
I3
sg25
I01
sg26
g38
sba(imyEvolve
Tree
p384
(dp385
g14
(imyEvolve
Tree
p386
(dp387
g14
(imyEvolve
Tree
p388
(dp389
g7
(imyEvolve
Tree
p390
(dp391
g14
(imyEvolve
Tree
p392
(dp393
g7
(imyEvolve
Tree
p394
(dp395
g19
I0
sg24
F4.276482765628039
sg20
I01
sbsg19
I1
sg25
I01
sg26
g36
sbsg19
I2
sg21
(imyEvolve
Tree
p396
(dp397
g7
(imyEvolve
Tree
p398
(dp399
g19
I0
sg24
F0.1902149452745121
sg20
I01
sbsg19
I1
sg25
I01
sg26
g36
sbsg25
I00
sg26
g35
sbsg19
I3
sg25
I01
sg26
g37
sbsg19
I4
sg21
(imyEvolve
Tree
p400
(dp401
g14
(imyEvolve
Tree
p402
(dp403
g7
(imyEvolve
Tree
p404
(dp405
g14
(imyEvolve
Tree
p406
(dp407
g19
I0
sg20
I00
sbsg19
I1
sg21
(imyEvolve
Tree
p408
(dp409
g19
I0
sg24
F-3.7382981899894894
sg20
I01
sbsg25
I00
sg26
g27
sbsg19
I2
sg25
I01
sg26
g36
sbsg19
I3
sg21
(imyEvolve
Tree
p410
(dp411
g14
(imyEvolve
Tree
p412
(dp413
g14
(imyEvolve
Tree
p414
(dp415
g19
I0
sg20
I00
sbsg19
I1
sg21
(imyEvolve
Tree
p416
(dp417
g19
I0
sg24
F-3.699354253628384
sg20
I01
sbsg25
I00
sg26
g34
sbsg19
I2
sg21
(imyEvolve
Tree
p418
(dp419
g7
(imyEvolve
Tree
p420
(dp421
g19
I0
sg20
I00
sbsg19
I1
sg25
I01
sg26
g37
sbsg25
I00
sg26
g35
sbsg25
I00
sg26
g27
sbsg25
I00
sg26
g27
sbsg19
I5
sg21
(imyEvolve
Tree
p422
(dp423
g7
(imyEvolve
Tree
p424
(dp425
g7
(imyEvolve
Tree
p426
(dp427
g14
(imyEvolve
Tree
p428
(dp429
g7
(imyEvolve
Tree
p430
(dp431
g19
I0
sg20
I00
sbsg19
I1
sg25
I01
sg26
g49
sbsg19
I2
sg21
(imyEvolve
Tree
p432
(dp433
g14
(imyEvolve
Tree
p434
(dp435
g19
I0
sg24
F2.6501444584697555
sg20
I01
sbsg19
I1
sg21
(imyEvolve
Tree
p436
(dp437
g19
I0
sg20
I00
sbsg25
I00
sg26
g35
sbsg25
I00
sg26
g35
sbsg19
I3
sg25
I01
sg26
g37
sbsg19
I4
sg25
I01
sg26
g49
sbsg25
I00
sg26
g34
sba(imyEvolve
Tree
p438
(dp439
g14
(imyEvolve
Tree
p440
(dp441
g7
(imyEvolve
Tree
p442
(dp443
g7
(imyEvolve
Tree
p444
(dp445
g19
I0
sg24
F-2.3311905986264083
sg20
I01
sbsg19
I1
sg25
I01
sg26
g37
sbsg19
I2
sg25
I01
sg26
g49
sbsg19
I3
sg21
(imyEvolve
Tree
p446
(dp447
g7
(imyEvolve
Tree
p448
(dp449
g7
(imyEvolve
Tree
p450
(dp451
g19
I0
sg20
I00
sbsg19
I1
sg25
I01
sg26
g49
sbsg19
I2
sg25
I01
sg26
g36
sbsg25
I00
sg26
g35
sba(imyEvolve
Tree
p452
(dp453
g14
(imyEvolve
Tree
p454
(dp455
g14
(imyEvolve
Tree
p456
(dp457
g7
(imyEvolve
Tree
p458
(dp459
g19
I0
sg20
I00
sbsg19
I1
sg25
I01
sg26
g38
sbsg19
I2
sg21
(imyEvolve
Tree
p460
(dp461
g14
(imyEvolve
Tree
p462
(dp463
g19
I0
sg20
I00
sbsg19
I1
sg21
(imyEvolve
Tree
p464
(dp465
g19
I0
sg24
F-0.941585394241848
sg20
I01
sbsg25
I00
sg26
g34
sbsg25
I00
sg26
g35
sbsg19
I3
sg21
(imyEvolve
Tree
p466
(dp467
g14
(imyEvolve
Tree
p468
(dp469
g7
(imyEvolve
Tree
p470
(dp471
g19
I0
sg24
F2.6210174398404575
sg20
I01
sbsg19
I1
sg25
I01
sg26
g37
sbsg19
I2
sg21
(imyEvolve
Tree
p472
(dp473
g7
(imyEvolve
Tree
p474
(dp475
g19
I0
sg24
F-4.045359181508706
sg20
I01
sbsg19
I1
sg25
I01
sg26
g49
sbsg25
I00
sg26
g34
sbsg25
I00
sg26
g35
sba(imyEvolve
Tree
p476
(dp477
g7
(imyEvolve
Tree
p478
(dp479
g19
I3
sg14
(imyEvolve
Tree
p480
(dp481
g7
(imyEvolve
Tree
p482
(dp483
g19
I1
sg14
(imyEvolve
Tree
p484
(dp485
g19
I0
sg24
F2.2930029440980526
sg20
I01
sbsg21
(imyEvolve
Tree
p486
(dp487
g19
I0
sg20
I00
sbsg25
I00
sg26
g35
sbsg19
I2
sg25
I01
sg26
g49
sbsg21
(imyEvolve
Tree
p488
(dp489
g19
I2
sg14
(imyEvolve
Tree
p490
(dp491
g19
I1
sg14
(imyEvolve
Tree
p492
(dp493
g19
I0
sg20
I00
sbsg21
(imyEvolve
Tree
p494
(dp495
g19
I0
sg24
F0.38057583925252914
sg20
I01
sbsg25
I00
sg26
g34
sbsg21
(imyEvolve
Tree
p496
(dp497
g19
I1
sg14
(imyEvolve
Tree
p498
(dp499
g19
I0
sg24
F-4.57261696349457
sg20
I01
sbsg21
(imyEvolve
Tree
p500
(dp501
g19
I0
sg20
I00
sbsg25
I00
sg26
g34
sbsg25
I00
sg26
g27
sbsg25
I00
sg26
g35
sbsg19
I4
sg25
I01
sg26
g49
sba(imyEvolve
Tree
p502
(dp503
g7
(imyEvolve
Tree
p504
(dp505
g7
(imyEvolve
Tree
p506
(dp507
g14
(imyEvolve
Tree
p508
(dp509
g7
(imyEvolve
Tree
p510
(dp511
g19
I0
sg24
F1.4092503662679263
sg20
I01
sbsg19
I1
sg25
I01
sg26
g38
sbsg19
I2
sg21
(imyEvolve
Tree
p512
(dp513
g7
(imyEvolve
Tree
p514
(dp515
g19
I0
sg20
I00
sbsg19
I1
sg25
I01
sg26
g37
sbsg25
I00
sg26
g34
sbsg19
I3
sg25
I01
sg26
g49
sbsg19
I4
sg25
I01
sg26
g49
sba(imyEvolve
Tree
p516
(dp517
g7
(imyEvolve
Tree
p518
(dp519
g7
(imyEvolve
Tree
p520
(dp521
g14
(imyEvolve
Tree
p522
(dp523
g14
(imyEvolve
Tree
p524
(dp525
g19
I0
sg20
I00
sbsg19
I1
sg21
(imyEvolve
Tree
p526
(dp527
g19
I0
sg20
I00
sbsg25
I00
sg26
g35
sbsg19
I2
sg21
(imyEvolve
Tree
p528
(dp529
g14
(imyEvolve
Tree
p530
(dp531
g19
I0
sg24
F-4.661466121407454
sg20
I01
sbsg19
I1
sg21
(imyEvolve
Tree
p532
(dp533
g19
I0
sg20
I00
sbsg25
I00
sg26
g35
sbsg25
I00
sg26
g34
sbsg19
I3
sg25
I01
sg26
g49
sbsg19
I4
sg25
I01
sg26
g37
sba(imyEvolve
Tree
p534
(dp535
g7
(imyEvolve
Tree
p536
(dp537
g14
(imyEvolve
Tree
p538
(dp539
g14
(imyEvolve
Tree
p540
(dp541
g19
I0
sg24
F4.310691393680797
sg20
I01
sbsg19
I1
sg21
(imyEvolve
Tree
p542
(dp543
g19
I0
sg24
F-1.9901444880081351
sg20
I01
sbsg25
I00
sg26
g35
sbsg19
I2
sg21
(imyEvolve
Tree
p544
(dp545
g7
(imyEvolve
Tree
p546
(dp547
g19
I0
sg24
F2.2929575047705706
sg20
I01
sbsg19
I1
sg25
I01
sg26
g38
sbsg25
I00
sg26
g35
sbsg19
I3
sg25
I01
sg26
g36
sba(imyEvolve
Tree
p548
(dp549
g14
(imyEvolve
Tree
p550
(dp551
g7
(imyEvolve
Tree
p552
(dp553
g14
(imyEvolve
Tree
p554
(dp555
g7
(imyEvolve
Tree
p556
(dp557
g7
(imyEvolve
Tree
p558
(dp559
g19
I0
sg20
I00
sbsg19
I1
sg25
I01
sg26
g49
sbsg19
I2
sg25
I01
sg26
g37
sbsg19
I3
sg21
(imyEvolve
Tree
p560
(dp561
g14
(imyEvolve
Tree
p562
(dp563
g7
(imyEvolve
Tree
p564
(dp565
g19
I0
sg20
I00
sbsg19
I1
sg25
I01
sg26
g36
sbsg19
I2
sg21
(imyEvolve
Tree
p566
(dp567
g7
(imyEvolve
Tree
p568
(dp569
g19
I0
sg20
I00
sbsg19
I1
sg25
I01
sg26
g36
sbsg25
I00
sg26
g35
sbsg25
I00
sg26
g27
sbsg19
I4
sg25
I01
sg26
g49
sbsg19
I5
sg21
(imyEvolve
Tree
p570
(dp571
g14
(imyEvolve
Tree
p572
(dp573
g7
(imyEvolve
Tree
p574
(dp575
g7
(imyEvolve
Tree
p576
(dp577
g7
(imyEvolve
Tree
p578
(dp579
g19
I0
sg20
I00
sbsg19
I1
sg25
I01
sg26
g38
sbsg19
I2
sg25
I01
sg26
g36
sbsg19
I3
sg25
I01
sg26
g36
sbsg19
I4
sg21
(imyEvolve
Tree
p580
(dp581
g14
(imyEvolve
Tree
p582
(dp583
g7
(imyEvolve
Tree
p584
(dp585
g14
(imyEvolve
Tree
p586
(dp587
g19
I0
sg20
I00
sbsg19
I1
sg21
(imyEvolve
Tree
p588
(dp589
g19
I0
sg20
I00
sbsg25
I00
sg26
g35
sbsg19
I2
sg25
I01
sg26
g49
sbsg19
I3
sg21
(imyEvolve
Tree
p590
(dp591
g7
(imyEvolve
Tree
p592
(dp593
g7
(imyEvolve
Tree
p594
(dp595
g19
I0
sg24
F-3.2077212438364433
sg20
I01
sbsg19
I1
sg25
I01
sg26
g38
sbsg19
I2
sg25
I01
sg26
g49
sbsg25
I00
sg26
g34
sbsg25
I00
sg26
g34
sbsg25
I00
sg26
g35
sba(imyEvolve
Tree
p596
(dp597
g7
(imyEvolve
Tree
p598
(dp599
g7
(imyEvolve
Tree
p600
(dp601
g7
(imyEvolve
Tree
p602
(dp603
g7
(imyEvolve
Tree
p604
(dp605
g19
I0
sg20
I00
sbsg19
I1
sg25
I01
sg26
g49
sbsg19
I2
sg25
I01
sg26
g49
sbsg19
I3
sg25
I01
sg26
g49
sbsg19
I4
sg25
I01
sg26
g37
sba(imyEvolve
Tree
p606
(dp607
g14
(imyEvolve
Tree
p608
(dp609
g14
(imyEvolve
Tree
p610
(dp611
g7
(imyEvolve
Tree
p612
(dp613
g19
I0
sg20
I00
sbsg19
I1
sg25
I01
sg26
g38
sbsg19
I2
sg21
(imyEvolve
Tree
p614
(dp615
g14
(imyEvolve
Tree
p616
(dp617
g19
I0
sg20
I00
sbsg19
I1
sg21
(imyEvolve
Tree
p618
(dp619
g19
I0
sg20
I00
sbsg25
I00
sg26
g27
sbsg25
I00
sg26
g27
sbsg19
I3
sg21
(imyEvolve
Tree
p620
(dp621
g7
(imyEvolve
Tree
p622
(dp623
g7
(imyEvolve
Tree
p624
(dp625
g19
I0
sg24
F-4.700930982825623
sg20
I01
sbsg19
I1
sg25
I01
sg26
g49
sbsg19
I2
sg25
I01
sg26
g49
sbsg25
I00
sg26
g27
sba(imyEvolve
Tree
p626
(dp627
g7
(imyEvolve
Tree
p628
(dp629
g7
(imyEvolve
Tree
p630
(dp631
g14
(imyEvolve
Tree
p632
(dp633
g19
I0
sg20
I00
sbsg19
I1
sg21
(imyEvolve
Tree
p634
(dp635
g19
I0
sg20
I00
sbsg25
I00
sg26
g34
sbsg19
I2
sg25
I01
sg26
g37
sbsg19
I3
sg25
I01
sg26
g37
sba(imyEvolve
Tree
p636
(dp637
g14
(imyEvolve
Tree
p638
(dp639
g14
(imyEvolve
Tree
p640
(dp641
g14
(imyEvolve
Tree
p642
(dp643
g14
(imyEvolve
Tree
p644
(dp645
g19
I0
sg24
F-1.6936525170870476
sg20
I01
sbsg19
I1
sg21
(imyEvolve
Tree
p646
(dp647
g19
I0
sg20
I00
sbsg25
I00
sg26
g35
sbsg19
I2
sg21
(imyEvolve
Tree
p648
(dp649
g14
(imyEvolve
Tree
p650
(dp651
g19
I0
sg20
I00
sbsg19
I1
sg21
(imyEvolve
Tree
p652
(dp653
g19
I0
sg24
F-1.521540828356096
sg20
I01
sbsg25
I00
sg26
g35
sbsg25
I00
sg26
g35
sbsg19
I3
sg21
(imyEvolve
Tree
p654
(dp655
g14
(imyEvolve
Tree
p656
(dp657
g7
(imyEvolve
Tree
p658
(dp659
g19
I0
sg20
I00
sbsg19
I1
sg25
I01
sg26
g49
sbsg19
I2
sg21
(imyEvolve
Tree
p660
(dp661
g7
(imyEvolve
Tree
p662
(dp663
g19
I0
sg20
I00
sbsg19
I1
sg25
I01
sg26
g49
sbsg25
I00
sg26
g27
sbsg25
I00
sg26
g34
sbsg19
I4
sg21
(imyEvolve
Tree
p664
(dp665
g14
(imyEvolve
Tree
p666
(dp667
g14
(imyEvolve
Tree
p668
(dp669
g14
(imyEvolve
Tree
p670
(dp671
g19
I0
sg20
I00
sbsg19
I1
sg21
(imyEvolve
Tree
p672
(dp673
g19
I0
sg24
F-4.295276679830261
sg20
I01
sbsg25
I00
sg26
g34
sbsg19
I2
sg21
(imyEvolve
Tree
p674
(dp675
g14
(imyEvolve
Tree
p676
(dp677
g19
I0
sg20
I00
sbsg19
I1
sg21
(imyEvolve
Tree
p678
(dp679
g19
I0
sg20
I00
sbsg25
I00
sg26
g27
sbsg25
I00
sg26
g34
sbsg19
I3
sg21
(imyEvolve
Tree
p680
(dp681
g14
(imyEvolve
Tree
p682
(dp683
g14
(imyEvolve
Tree
p684
(dp685
g19
I0
sg24
F-1.4969336506450026
sg20
I01
sbsg19
I1
sg21
(imyEvolve
Tree
p686
(dp687
g19
I0
sg20
I00
sbsg25
I00
sg26
g35
sbsg19
I2
sg21
(imyEvolve
Tree
p688
(dp689
g7
(imyEvolve
Tree
p690
(dp691
g19
I0
sg20
I00
sbsg19
I1
sg25
I01
sg26
g49
sbsg25
I00
sg26
g35
sbsg25
I00
sg26
g34
sbsg25
I00
sg26
g34
sba(imyEvolve
Tree
p692
(dp693
g14
(imyEvolve
Tree
p694
(dp695
g7
(imyEvolve
Tree
p696
(dp697
g7
(imyEvolve
Tree
p698
(dp699
g19
I0
sg20
I00
sbsg19
I1
sg25
I01
sg26
g37
sbsg19
I2
sg25
I01
sg26
g38
sbsg19
I3
sg21
(imyEvolve
Tree
p700
(dp701
g7
(imyEvolve
Tree
p702
(dp703
g14
(imyEvolve
Tree
p704
(dp705
g19
I0
sg20
I00
sbsg19
I1
sg21
(imyEvolve
Tree
p706
(dp707
g19
I0
sg20
I00
sbsg25
I00
sg26
g34
sbsg19
I2
sg25
I01
sg26
g37
sbsg25
I00
sg26
g34
sba(imyEvolve
Tree
p708
(dp709
g19
I4
sg14
(imyEvolve
Tree
p710
(dp711
g19
I3
sg14
(imyEvolve
Tree
p712
(dp713
g19
I2
sg14
(imyEvolve
Tree
p714
(dp715
g7
(imyEvolve
Tree
p716
(dp717
g19
I0
sg24
F-4.902355486286909
sg20
I01
sbsg19
I1
sg25
I01
sg26
g37
sbsg21
(imyEvolve
Tree
p718
(dp719
g19
I1
sg14
(imyEvolve
Tree
p720
(dp721
g19
I0
sg20
I00
sbsg21
(imyEvolve
Tree
p722
(dp723
g19
I0
sg20
I00
sbsg25
I00
sg26
g27
sbsg25
I00
sg26
g27
sbsg21
(imyEvolve
Tree
p724
(dp725
g19
I2
sg14
(imyEvolve
Tree
p726
(dp727
g19
I1
sg14
(imyEvolve
Tree
p728
(dp729
g19
I0
sg20
I00
sbsg21
(imyEvolve
Tree
p730
(dp731
g19
I0
sg20
I00
sbsg25
I00
sg26
g27
sbsg21
(imyEvolve
Tree
p732
(dp733
g19
I1
sg14
(imyEvolve
Tree
p734
(dp735
g19
I0
sg20
I00
sbsg21
(imyEvolve
Tree
p736
(dp737
g19
I0
sg20
I00
sbsg25
I00
sg26
g27
sbsg25
I00
sg26
g34
sbsg25
I00
sg26
g34
sbsg21
(imyEvolve
Tree
p738
(dp739
g7
(imyEvolve
Tree
p740
(dp741
g19
I2
sg14
(imyEvolve
Tree
p742
(dp743
g19
I1
sg14
(imyEvolve
Tree
p744
(dp745
g19
I0
sg20
I00
sbsg21
(imyEvolve
Tree
p746
(dp747
g19
I0
sg24
F-3.228457535679695
sg20
I01
sbsg25
I00
sg26
g35
sbsg21
(imyEvolve
Tree
p748
(dp749
g19
I1
sg14
(imyEvolve
Tree
p750
(dp751
g19
I0
sg20
I00
sbsg21
(imyEvolve
Tree
p752
(dp753
g19
I0
sg24
F-1.4115135574791573
sg20
I01
sbsg25
I00
sg26
g34
sbsg25
I00
sg26
g27
sbsg19
I3
sg25
I01
sg26
g49
sbsg25
I00
sg26
g34
sbaa(lp754
(imyEvolve
Tree
p755
(dp756
g7
(imyEvolve
Tree
p757
(dp758
g7
(imyEvolve
Tree
p759
(dp760
g7
(imyEvolve
Tree
p761
(dp762
g19
I0
sg24
F3.2148556041463525
sg20
I01
sbsg19
I1
sg25
I01
sg26
g36
sbsg19
I2
sg25
I01
sg26
g36
sbsg19
I3
sg25
I01
sg26
g38
sba(imyEvolve
Tree
p763
(dp764
g19
I5
sg14
(imyEvolve
Tree
p765
(dp766
g7
(imyEvolve
Tree
p767
(dp768
g19
I3
sg14
(imyEvolve
Tree
p769
(dp770
g19
I2
sg14
(imyEvolve
Tree
p771
(dp772
g7
(imyEvolve
Tree
p773
(dp774
g19
I0
sg24
F2.331401191085014
sg20
I01
sbsg19
I1
sg25
I01
sg26
g36
sbsg21
(imyEvolve
Tree
p775
(dp776
g19
I1
sg14
(imyEvolve
Tree
p777
(dp778
g19
I0
sg20
I00
sbsg21
(imyEvolve
Tree
p779
(dp780
g19
I0
sg20
I00
sbsg25
I00
sg26
g34
sbsg25
I00
sg26
g34
sbsg21
(imyEvolve
Tree
p781
(dp782
g7
(imyEvolve
Tree
p783
(dp784
g7
(imyEvolve
Tree
p785
(dp786
g19
I0
sg24
F-1.642660279004713
sg20
I01
sbsg19
I1
sg25
I01
sg26
g37
sbsg19
I2
sg25
I01
sg26
g36
sbsg25
I00
sg26
g35
sbsg19
I4
sg25
I01
sg26
g36
sbsg21
(imyEvolve
Tree
p787
(dp788
g7
(imyEvolve
Tree
p789
(dp790
g19
I3
sg14
(imyEvolve
Tree
p791
(dp792
g19
I2
sg14
(imyEvolve
Tree
p793
(dp794
g19
I1
sg14
(imyEvolve
Tree
p795
(dp796
g19
I0
sg20
I00
sbsg21
(imyEvolve
Tree
p797
(dp798
g19
I0
sg20
I00
sbsg25
I00
sg26
g35
sbsg21
(imyEvolve
Tree
p799
(dp800
g7
(imyEvolve
Tree
p801
(dp802
g19
I0
sg24
F4.155611095586195
sg20
I01
sbsg19
I1
sg25
I01
sg26
g49
sbsg25
I00
sg26
g27
sbsg21
(imyEvolve
Tree
p803
(dp804
g7
(imyEvolve
Tree
p805
(dp806
g19
I1
sg14
(imyEvolve
Tree
p807
(dp808
g19
I0
sg24
F4.5375187251887095
sg20
I01
sbsg21
(imyEvolve
Tree
p809
(dp810
g19
I0
sg24
F4.413765076308039
sg20
I01
sbsg25
I00
sg26
g35
sbsg19
I2
sg25
I01
sg26
g49
sbsg25
I00
sg26
g34
sbsg19
I4
sg25
I01
sg26
g37
sbsg25
I00
sg26
g34
sba(imyEvolve
Tree
p811
(dp812
g14
(imyEvolve
Tree
p813
(dp814
g14
(imyEvolve
Tree
p815
(dp816
g19
I0
sg20
I00
sbsg19
I1
sg21
(imyEvolve
Tree
p817
(dp818
g19
I0
sg20
I00
sbsg25
I00
sg26
g34
sbsg19
I2
sg21
(imyEvolve
Tree
p819
(dp820
g14
(imyEvolve
Tree
p821
(dp822
g19
I0
sg20
I00
sbsg19
I1
sg21
(imyEvolve
Tree
p823
(dp824
g19
I0
sg24
F4.892517680927174
sg20
I01
sbsg25
I00
sg26
g34
sbsg25
I00
sg26
g27
sba(imyEvolve
Tree
p825
(dp826
g14
(imyEvolve
Tree
p827
(dp828
g14
(imyEvolve
Tree
p829
(dp830
g14
(imyEvolve
Tree
p831
(dp832
g14
(imyEvolve
Tree
p833
(dp834
g19
I0
sg20
I00
sbsg19
I1
sg21
(imyEvolve
Tree
p835
(dp836
g19
I0
sg20
I00
sbsg25
I00
sg26
g27
sbsg19
I2
sg21
(imyEvolve
Tree
p837
(dp838
g7
(imyEvolve
Tree
p839
(dp840
g19
I0
sg20
I00
sbsg19
I1
sg25
I01
sg26
g49
sbsg25
I00
sg26
g27
sbsg19
I3
sg21
(imyEvolve
Tree
p841
(dp842
g14
(imyEvolve
Tree
p843
(dp844
g14
(imyEvolve
Tree
p845
(dp846
g19
I0
sg20
I00
sbsg19
I1
sg21
(imyEvolve
Tree
p847
(dp848
g19
I0
sg24
F-0.6212005546131003
sg20
I01
sbsg25
I00
sg26
g35
sbsg19
I2
sg21
(imyEvolve
Tree
p849
(dp850
g14
(imyEvolve
Tree
p851
(dp852
g19
I0
sg20
I00
sbsg19
I1
sg21
(imyEvolve
Tree
p853
(dp854
g19
I0
sg24
F4.7304303209193534
sg20
I01
sbsg25
I00
sg26
g34
sbsg25
I00
sg26
g27
sbsg25
I00
sg26
g34
sbsg19
I4
sg21
(imyEvolve
Tree
p855
(dp856
g14
(imyEvolve
Tree
p857
(dp858
g7
(imyEvolve
Tree
p859
(dp860
g14
(imyEvolve
Tree
p861
(dp862
g19
I0
sg24
F2.819326682676082
sg20
I01
sbsg19
I1
sg21
(imyEvolve
Tree
p863
(dp864
g19
I0
sg24
F-4.893844115724075
sg20
I01
sbsg25
I00
sg26
g35
sbsg19
I2
sg25
I01
sg26
g37
sbsg19
I3
sg21
(imyEvolve
Tree
p865
(dp866
g7
(imyEvolve
Tree
p867
(dp868
g14
(imyEvolve
Tree
p869
(dp870
g19
I0
sg24
F4.827115676323343
sg20
I01
sbsg19
I1
sg21
(imyEvolve
Tree
p871
(dp872
g19
I0
sg20
I00
sbsg25
I00
sg26
g35
sbsg19
I2
sg25
I01
sg26
g38
sbsg25
I00
sg26
g34
sbsg25
I00
sg26
g27
sba(imyEvolve
Tree
p873
(dp874
g19
I5
sg14
(imyEvolve
Tree
p875
(dp876
g19
I4
sg14
(imyEvolve
Tree
p877
(dp878
g19
I3
sg14
(imyEvolve
Tree
p879
(dp880
g7
(imyEvolve
Tree
p881
(dp882
g7
(imyEvolve
Tree
p883
(dp884
g19
I0
sg20
I00
sbsg19
I1
sg25
I01
sg26
g37
sbsg19
I2
sg25
I01
sg26
g37
sbsg21
(imyEvolve
Tree
p885
(dp886
g7
(imyEvolve
Tree
p887
(dp888
g7
(imyEvolve
Tree
p889
(dp890
g19
I0
sg20
I00
sbsg19
I1
sg25
I01
sg26
g37
sbsg19
I2
sg25
I01
sg26
g49
sbsg25
I00
sg26
g35
sbsg21
(imyEvolve
Tree
p891
(dp892
g19
I3
sg14
(imyEvolve
Tree
p893
(dp894
g7
(imyEvolve
Tree
p895
(dp896
g19
I1
sg14
(imyEvolve
Tree
p897
(dp898
g19
I0
sg20
I00
sbsg21
(imyEvolve
Tree
p899
(dp900
g19
I0
sg24
F-4.786671447982157
sg20
I01
sbsg25
I00
sg26
g34
sbsg19
I2
sg25
I01
sg26
g36
sbsg21
(imyEvolve
Tree
p901
(dp902
g19
I2
sg14
(imyEvolve
Tree
p903
(dp904
g7
(imyEvolve
Tree
p905
(dp906
g19
I0
sg24
F-2.901386498681507
sg20
I01
sbsg19
I1
sg25
I01
sg26
g36
sbsg21
(imyEvolve
Tree
p907
(dp908
g7
(imyEvolve
Tree
p909
(dp910
g19
I0
sg24
F-4.222860104995586
sg20
I01
sbsg19
I1
sg25
I01
sg26
g49
sbsg25
I00
sg26
g27
sbsg25
I00
sg26
g34
sbsg25
I00
sg26
g34
sbsg21
(imyEvolve
Tree
p911
(dp912
g19
I4
sg14
(imyEvolve
Tree
p913
(dp914
g7
(imyEvolve
Tree
p915
(dp916
g19
I2
sg14
(imyEvolve
Tree
p917
(dp918
g7
(imyEvolve
Tree
p919
(dp920
g19
I0
sg24
F-3.9900850141169797
sg20
I01
sbsg19
I1
sg25
I01
sg26
g36
sbsg21
(imyEvolve
Tree
p921
(dp922
g19
I1
sg14
(imyEvolve
Tree
p923
(dp924
g19
I0
sg20
I00
sbsg21
(imyEvolve
Tree
p925
(dp926
g19
I0
sg20
I00
sbsg25
I00
sg26
g34
sbsg25
I00
sg26
g27
sbsg19
I3
sg25
I01
sg26
g37
sbsg21
(imyEvolve
Tree
p927
(dp928
g7
(imyEvolve
Tree
p929
(dp930
g19
I2
sg14
(imyEvolve
Tree
p931
(dp932
g7
(imyEvolve
Tree
p933
(dp934
g19
I0
sg24
F-1.1338368402419938
sg20
I01
sbsg19
I1
sg25
I01
sg26
g49
sbsg21
(imyEvolve
Tree
p935
(dp936
g7
(imyEvolve
Tree
p937
(dp938
g19
I0
sg24
F2.4828761171866898
sg20
I01
sbsg19
I1
sg25
I01
sg26
g38
sbsg25
I00
sg26
g34
sbsg19
I3
sg25
I01
sg26
g38
sbsg25
I00
sg26
g35
sbsg25
I00
sg26
g35
sba(imyEvolve
Tree
p939
(dp940
g19
I3
sg14
(imyEvolve
Tree
p941
(dp942
g19
I2
sg14
(imyEvolve
Tree
p943
(dp944
g7
(imyEvolve
Tree
p945
(dp946
g19
I0
sg24
F-0.2840065270696215
sg20
I01
sbsg19
I1
sg25
I01
sg26
g49
sbsg21
(imyEvolve
Tree
p947
(dp948
g19
I1
sg14
(imyEvolve
Tree
p949
(dp950
g19
I0
sg20
I00
sbsg21
(imyEvolve
Tree
p951
(dp952
g19
I0
sg20
I00
sbsg25
I00
sg26
g35
sbsg25
I00
sg26
g27
sbsg21
(imyEvolve
Tree
p953
(dp954
g19
I2
sg14
(imyEvolve
Tree
p955
(dp956
g19
I1
sg14
(imyEvolve
Tree
p957
(dp958
g19
I0
sg24
F3.7950212878748673
sg20
I01
sbsg21
(imyEvolve
Tree
p959
(dp960
g19
I0
sg20
I00
sbsg25
I00
sg26
g34
sbsg21
(imyEvolve
Tree
p961
(dp962
g7
(imyEvolve
Tree
p963
(dp964
g19
I0
sg20
I00
sbsg19
I1
sg25
I01
sg26
g49
sbsg25
I00
sg26
g34
sbsg25
I00
sg26
g35
sba(imyEvolve
Tree
p965
(dp966
g14
(imyEvolve
Tree
p967
(dp968
g7
(imyEvolve
Tree
p969
(dp970
g7
(imyEvolve
Tree
p971
(dp972
g14
(imyEvolve
Tree
p973
(dp974
g19
I0
sg20
I00
sbsg19
I1
sg21
(imyEvolve
Tree
p975
(dp976
g19
I0
sg20
I00
sbsg25
I00
sg26
g27
sbsg19
I2
sg25
I01
sg26
g38
sbsg19
I3
sg25
I01
sg26
g38
sbsg19
I4
sg21
(imyEvolve
Tree
p977
(dp978
g14
(imyEvolve
Tree
p979
(dp980
g14
(imyEvolve
Tree
p981
(dp982
g14
(imyEvolve
Tree
p983
(dp984
g19
I0
sg20
I00
sbsg19
I1
sg21
(imyEvolve
Tree
p985
(dp986
g19
I0
sg24
F-0.14158704149658874
sg20
I01
sbsg25
I00
sg26
g27
sbsg19
I2
sg21
(imyEvolve
Tree
p987
(dp988
g7
(imyEvolve
Tree
p989
(dp990
g19
I0
sg24
F0.1111288196329765
sg20
I01
sbsg19
I1
sg25
I01
sg26
g38
sbsg25
I00
sg26
g27
sbsg19
I3
sg21
(imyEvolve
Tree
p991
(dp992
g14
(imyEvolve
Tree
p993
(dp994
g14
(imyEvolve
Tree
p995
(dp996
g19
I0
sg20
I00
sbsg19
I1
sg21
(imyEvolve
Tree
p997
(dp998
g19
I0
sg20
I00
sbsg25
I00
sg26
g35
sbsg19
I2
sg21
(imyEvolve
Tree
p999
(dp1000
g7
(imyEvolve
Tree
p1001
(dp1002
g19
I0
sg20
I00
sbsg19
I1
sg25
I01
sg26
g49
sbsg25
I00
sg26
g35
sbsg25
I00
sg26
g27
sbsg25
I00
sg26
g34
sba(imyEvolve
Tree
p1003
(dp1004
g7
(imyEvolve
Tree
p1005
(dp1006
g7
(imyEvolve
Tree
p1007
(dp1008
g14
(imyEvolve
Tree
p1009
(dp1010
g14
(imyEvolve
Tree
p1011
(dp1012
g19
I0
sg20
I00
sbsg19
I1
sg21
(imyEvolve
Tree
p1013
(dp1014
g19
I0
sg24
F2.6312471590262723
sg20
I01
sbsg25
I00
sg26
g35
sbsg19
I2
sg21
(imyEvolve
Tree
p1015
(dp1016
g7
(imyEvolve
Tree
p1017
(dp1018
g19
I0
sg24
F-0.9703541138704193
sg20
I01
sbsg19
I1
sg25
I01
sg26
g36
sbsg25
I00
sg26
g27
sbsg19
I3
sg25
I01
sg26
g38
sbsg19
I4
sg25
I01
sg26
g36
sba(imyEvolve
Tree
p1019
(dp1020
g14
(imyEvolve
Tree
p1021
(dp1022
g14
(imyEvolve
Tree
p1023
(dp1024
g7
(imyEvolve
Tree
p1025
(dp1026
g14
(imyEvolve
Tree
p1027
(dp1028
g19
I0
sg24
F1.4396042513113718
sg20
I01
sbsg19
I1
sg21
(imyEvolve
Tree
p1029
(dp1030
g19
I0
sg24
F2.207175636606186
sg20
I01
sbsg25
I00
sg26
g35
sbsg19
I2
sg25
I01
sg26
g37
sbsg19
I3
sg21
(imyEvolve
Tree
p1031
(dp1032
g7
(imyEvolve
Tree
p1033
(dp1034
g14
(imyEvolve
Tree
p1035
(dp1036
g19
I0
sg20
I00
sbsg19
I1
sg21
(imyEvolve
Tree
p1037
(dp1038
g19
I0
sg24
F3.861996641265476
sg20
I01
sbsg25
I00
sg26
g27
sbsg19
I2
sg25
I01
sg26
g38
sbsg25
I00
sg26
g35
sbsg19
I4
sg21
(imyEvolve
Tree
p1039
(dp1040
g14
(imyEvolve
Tree
p1041
(dp1042
g7
(imyEvolve
Tree
p1043
(dp1044
g7
(imyEvolve
Tree
p1045
(dp1046
g19
I0
sg24
F-4.414610067947651
sg20
I01
sbsg19
I1
sg25
I01
sg26
g37
sbsg19
I2
sg25
I01
sg26
g36
sbsg19
I3
sg21
(imyEvolve
Tree
p1047
(dp1048
g14
(imyEvolve
Tree
p1049
(dp1050
g7
(imyEvolve
Tree
p1051
(dp1052
g19
I0
sg24
F-3.2306758995993823
sg20
I01
sbsg19
I1
sg25
I01
sg26
g49
sbsg19
I2
sg21
(imyEvolve
Tree
p1053
(dp1054
g14
(imyEvolve
Tree
p1055
(dp1056
g19
I0
sg24
F-1.4674133880890716
sg20
I01
sbsg19
I1
sg21
(imyEvolve
Tree
p1057
(dp1058
g19
I0
sg20
I00
sbsg25
I00
sg26
g35
sbsg25
I00
sg26
g34
sbsg25
I00
sg26
g34
sbsg25
I00
sg26
g27
sba(imyEvolve
Tree
p1059
(dp1060
g7
(imyEvolve
Tree
p1061
(dp1062
g14
(imyEvolve
Tree
p1063
(dp1064
g14
(imyEvolve
Tree
p1065
(dp1066
g19
I0
sg20
I00
sbsg19
I1
sg21
(imyEvolve
Tree
p1067
(dp1068
g19
I0
sg24
F-3.975322356800314
sg20
I01
sbsg25
I00
sg26
g35
sbsg19
I2
sg21
(imyEvolve
Tree
p1069
(dp1070
g14
(imyEvolve
Tree
p1071
(dp1072
g19
I0
sg24
F-0.5660603997116382
sg20
I01
sbsg19
I1
sg21
(imyEvolve
Tree
p1073
(dp1074
g19
I0
sg20
I00
sbsg25
I00
sg26
g35
sbsg25
I00
sg26
g27
sbsg19
I3
sg25
I01
sg26
g36
sba(imyEvolve
Tree
p1075
(dp1076
g19
I3
sg14
(imyEvolve
Tree
p1077
(dp1078
g7
(imyEvolve
Tree
p1079
(dp1080
g19
I1
sg14
(imyEvolve
Tree
p1081
(dp1082
g19
I0
sg24
F3.811222260073448
sg20
I01
sbsg21
(imyEvolve
Tree
p1083
(dp1084
g19
I0
sg24
F2.313671303021846
sg20
I01
sbsg25
I00
sg26
g34
sbsg19
I2
sg25
I01
sg26
g49
sbsg21
(imyEvolve
Tree
p1085
(dp1086
g7
(imyEvolve
Tree
p1087
(dp1088
g7
(imyEvolve
Tree
p1089
(dp1090
g19
I0
sg20
I00
sbsg19
I1
sg25
I01
sg26
g49
sbsg19
I2
sg25
I01
sg26
g49
sbsg25
I00
sg26
g35
sba(imyEvolve
Tree
p1091
(dp1092
g7
(imyEvolve
Tree
p1093
(dp1094
g7
(imyEvolve
Tree
p1095
(dp1096
g7
(imyEvolve
Tree
p1097
(dp1098
g14
(imyEvolve
Tree
p1099
(dp1100
g14
(imyEvolve
Tree
p1101
(dp1102
g19
I0
sg24
F-1.6967562311127917
sg20
I01
sbsg19
I1
sg21
(imyEvolve
Tree
p1103
(dp1104
g19
I0
sg24
F3.6644943057405186
sg20
I01
sbsg25
I00
sg26
g35
sbsg19
I2
sg21
(imyEvolve
Tree
p1105
(dp1106
g14
(imyEvolve
Tree
p1107
(dp1108
g19
I0
sg24
F2.3081921395933778
sg20
I01
sbsg19
I1
sg21
(imyEvolve
Tree
p1109
(dp1110
g19
I0
sg24
F4.799859945263806
sg20
I01
sbsg25
I00
sg26
g27
sbsg25
I00
sg26
g27
sbsg19
I3
sg25
I01
sg26
g49
sbsg19
I4
sg25
I01
sg26
g36
sbsg19
I5
sg25
I01
sg26
g37
sba(imyEvolve
Tree
p1111
(dp1112
g14
(imyEvolve
Tree
p1113
(dp1114
g7
(imyEvolve
Tree
p1115
(dp1116
g19
I0
sg24
F-0.8815828922941593
sg20
I01
sbsg19
I1
sg25
I01
sg26
g49
sbsg19
I2
sg21
(imyEvolve
Tree
p1117
(dp1118
g7
(imyEvolve
Tree
p1119
(dp1120
g19
I0
sg20
I00
sbsg19
I1
sg25
I01
sg26
g37
sbsg25
I00
sg26
g35
sba(imyEvolve
Tree
p1121
(dp1122
g7
(imyEvolve
Tree
p1123
(dp1124
g7
(imyEvolve
Tree
p1125
(dp1126
g19
I0
sg20
I00
sbsg19
I1
sg25
I01
sg26
g38
sbsg19
I2
sg25
I01
sg26
g49
sbaasS'alpha'
p1127
F0.007471123144049652
sS'fitness'
p1128
cnumpy.core.multiarray
scalar
p1129
(cnumpy
dtype
p1130
(S'f8'
p1131
I0
I1
tp1132
Rp1133
(I3
S'<'
p1134
NNNI-1
I-1
I0
tp1135
bS'\x00\x8cl\xe7\xbced\xbf'
p1136
tp1137
Rp1138
sS'weightSharing'
p1139
(lp1140
I00
asS'fitnessValid'
p1141
I00
sS'resolution'
p1142
I70
sb.