(imyEvolve
Individual
p0
(dp1
S'funcs'
p2
(lp3
(lp4
(imyEvolve
Tree
p5
(dp6
S'below'
p7
(imyEvolve
Tree
p8
(dp9
S'depth'
p10
I2
sS'left'
p11
(imyEvolve
Tree
p12
(dp13
g7
(imyEvolve
Tree
p14
(dp15
g10
I0
sS'constant'
p16
F-1.1058321009552596
sS'isConstant'
p17
I01
sbsg10
I1
sS'single'
p18
I01
sS'op'
p19
cmyEvolve
absSqrt
p20
sbsS'right'
p21
(imyEvolve
Tree
p22
(dp23
g7
(imyEvolve
Tree
p24
(dp25
g10
I0
sg16
F1.930522631026463
sg17
I01
sbsg10
I1
sg18
I01
sg19
cmath
cos
p26
sbsg18
I00
sg19
coperator
sub
p27
sbsg10
I3
sg18
I01
sg19
g26
sba(imyEvolve
Tree
p28
(dp29
g10
I2
sg11
(imyEvolve
Tree
p30
(dp31
g7
(imyEvolve
Tree
p32
(dp33
g10
I0
sg16
F-2.981593483682704
sg17
I01
sbsg10
I1
sg18
I01
sg19
g26
sbsg21
(imyEvolve
Tree
p34
(dp35
g7
(imyEvolve
Tree
p36
(dp37
g10
I0
sg17
I00
sbsg10
I1
sg18
I01
sg19
cmath
sin
p38
sbsg18
I00
sg19
coperator
add
p39
sba(imyEvolve
Tree
p40
(dp41
g7
(imyEvolve
Tree
p42
(dp43
g10
I3
sg11
(imyEvolve
Tree
p44
(dp45
g7
(imyEvolve
Tree
p46
(dp47
g7
(imyEvolve
Tree
p48
(dp49
g10
I0
sg16
F-3.3506660941079747
sg17
I01
sbsg10
I1
sg18
I01
sg19
g38
sbsg10
I2
sg18
I01
sg19
cmyEvolve
square
p50
sbsg21
(imyEvolve
Tree
p51
(dp52
g10
I2
sg11
(imyEvolve
Tree
p53
(dp54
g10
I1
sg11
(imyEvolve
Tree
p55
(dp56
g10
I0
sg17
I00
sbsg21
(imyEvolve
Tree
p57
(dp58
g10
I0
sg17
I00
sbsg18
I00
sg19
g39
sbsg21
(imyEvolve
Tree
p59
(dp60
g7
(imyEvolve
Tree
p61
(dp62
g10
I0
sg17
I00
sbsg10
I1
sg18
I01
sg19
g38
sbsg18
I00
sg19
coperator
mul
p63
sbsg18
I00
sg19
g27
sbsg10
I4
sg18
I01
sg19
g50
sba(imyEvolve
Tree
p64
(dp65
g7
(imyEvolve
Tree
p66
(dp67
g7
(imyEvolve
Tree
p68
(dp69
g7
(imyEvolve
Tree
p70
(dp71
g7
(imyEvolve
Tree
p72
(dp73
g7
(imyEvolve
Tree
p74
(dp75
g10
I0
sg17
I00
sbsg10
I1
sg18
I01
sg19
g20
sbsg10
I2
sg18
I01
sg19
g26
sbsg10
I3
sg18
I01
sg19
g26
sbsg10
I4
sg18
I01
sg19
g38
sbsg10
I5
sg18
I01
sg19
g20
sba(imyEvolve
Tree
p76
(dp77
g10
I4
sg11
(imyEvolve
Tree
p78
(dp79
g7
(imyEvolve
Tree
p80
(dp81
g10
I2
sg11
(imyEvolve
Tree
p82
(dp83
g7
(imyEvolve
Tree
p84
(dp85
g10
I0
sg17
I00
sbsg10
I1
sg18
I01
sg19
g20
sbsg21
(imyEvolve
Tree
p86
(dp87
g7
(imyEvolve
Tree
p88
(dp89
g10
I0
sg17
I00
sbsg10
I1
sg18
I01
sg19
g50
sbsg18
I00
sg19
g63
sbsg10
I3
sg18
I01
sg19
g26
sbsg21
(imyEvolve
Tree
p90
(dp91
g7
(imyEvolve
Tree
p92
(dp93
g10
I2
sg11
(imyEvolve
Tree
p94
(dp95
g7
(imyEvolve
Tree
p96
(dp97
g10
I0
sg16
F-4.804542479611682
sg17
I01
sbsg10
I1
sg18
I01
sg19
g20
sbsg21
(imyEvolve
Tree
p98
(dp99
g10
I1
sg11
(imyEvolve
Tree
p100
(dp101
g10
I0
sg17
I00
sbsg21
(imyEvolve
Tree
p102
(dp103
g10
I0
sg16
F-2.8808100914024317
sg17
I01
sbsg18
I00
sg19
g39
sbsg18
I00
sg19
g63
sbsg10
I3
sg18
I01
sg19
g20
sbsg18
I00
sg19
g27
sba(imyEvolve
Tree
p104
(dp105
g10
I5
sg11
(imyEvolve
Tree
p106
(dp107
g7
(imyEvolve
Tree
p108
(dp109
g10
I3
sg11
(imyEvolve
Tree
p110
(dp111
g7
(imyEvolve
Tree
p112
(dp113
g7
(imyEvolve
Tree
p114
(dp115
g10
I0
sg16
F-2.697672898512269
sg17
I01
sbsg10
I1
sg18
I01
sg19
g20
sbsg10
I2
sg18
I01
sg19
g50
sbsg21
(imyEvolve
Tree
p116
(dp117
g7
(imyEvolve
Tree
p118
(dp119
g7
(imyEvolve
Tree
p120
(dp121
g10
I0
sg16
F1.2369118243126023
sg17
I01
sbsg10
I1
sg18
I01
sg19
g20
sbsg10
I2
sg18
I01
sg19
g50
sbsg18
I00
sg19
g27
sbsg10
I4
sg18
I01
sg19
g20
sbsg21
(imyEvolve
Tree
p122
(dp123
g10
I4
sg11
(imyEvolve
Tree
p124
(dp125
g7
(imyEvolve
Tree
p126
(dp127
g7
(imyEvolve
Tree
p128
(dp129
g10
I1
sg11
(imyEvolve
Tree
p130
(dp131
g10
I0
sg17
I00
sbsg21
(imyEvolve
Tree
p132
(dp133
g10
I0
sg16
F0.14135428617917256
sg17
I01
sbsg18
I00
sg19
g39
sbsg10
I2
sg18
I01
sg19
g50
sbsg10
I3
sg18
I01
sg19
g20
sbsg21
(imyEvolve
Tree
p134
(dp135
g7
(imyEvolve
Tree
p136
(dp137
g7
(imyEvolve
Tree
p138
(dp139
g7
(imyEvolve
Tree
p140
(dp141
g10
I0
sg17
I00
sbsg10
I1
sg18
I01
sg19
g50
sbsg10
I2
sg18
I01
sg19
g50
sbsg10
I3
sg18
I01
sg19
g50
sbsg18
I00
sg19
g63
sbsg18
I00
sg19
g27
sba(imyEvolve
Tree
p142
(dp143
g10
I4
sg11
(imyEvolve
Tree
p144
(dp145
g7
(imyEvolve
Tree
p146
(dp147
g7
(imyEvolve
Tree
p148
(dp149
g10
I1
sg11
(imyEvolve
Tree
p150
(dp151
g10
I0
sg17
I00
sbsg21
(imyEvolve
Tree
p152
(dp153
g10
I0
sg17
I00
sbsg18
I00
sg19
g63
sbsg10
I2
sg18
I01
sg19
g50
sbsg10
I3
sg18
I01
sg19
g26
sbsg21
(imyEvolve
Tree
p154
(dp155
g10
I3
sg11
(imyEvolve
Tree
p156
(dp157
g7
(imyEvolve
Tree
p158
(dp159
g7
(imyEvolve
Tree
p160
(dp161
g10
I0
sg16
F3.295730437466549
sg17
I01
sbsg10
I1
sg18
I01
sg19
g50
sbsg10
I2
sg18
I01
sg19
g26
sbsg21
(imyEvolve
Tree
p162
(dp163
g7
(imyEvolve
Tree
p164
(dp165
g7
(imyEvolve
Tree
p166
(dp167
g10
I0
sg17
I00
sbsg10
I1
sg18
I01
sg19
g38
sbsg10
I2
sg18
I01
sg19
g50
sbsg18
I00
sg19
g39
sbsg18
I00
sg19
g27
sba(imyEvolve
Tree
p168
(dp169
g7
(imyEvolve
Tree
p170
(dp171
g10
I3
sg11
(imyEvolve
Tree
p172
(dp173
g10
I2
sg11
(imyEvolve
Tree
p174
(dp175
g7
(imyEvolve
Tree
p176
(dp177
g10
I0
sg17
I00
sbsg10
I1
sg18
I01
sg19
g38
sbsg21
(imyEvolve
Tree
p178
(dp179
g10
I1
sg11
(imyEvolve
Tree
p180
(dp181
g10
I0
sg16
F1.2922632625032868
sg17
I01
sbsg21
(imyEvolve
Tree
p182
(dp183
g10
I0
sg17
I00
sbsg18
I00
sg19
g63
sbsg18
I00
sg19
g27
sbsg21
(imyEvolve
Tree
p184
(dp185
g7
(imyEvolve
Tree
p186
(dp187
g10
I1
sg11
(imyEvolve
Tree
p188
(dp189
g10
I0
sg16
F-4.267377187005134
sg17
I01
sbsg21
(imyEvolve
Tree
p190
(dp191
g10
I0
sg17
I00
sbsg18
I00
sg19
g27
sbsg10
I2
sg18
I01
sg19
g38
sbsg18
I00
sg19
g39
sbsg10
I4
sg18
I01
sg19
g38
sba(imyEvolve
Tree
p192
(dp193
g10
I3
sg11
(imyEvolve
Tree
p194
(dp195
g10
I2
sg11
(imyEvolve
Tree
p196
(dp197
g7
(imyEvolve
Tree
p198
(dp199
g10
I0
sg17
I00
sbsg10
I1
sg18
I01
sg19
g50
sbsg21
(imyEvolve
Tree
p200
(dp201
g7
(imyEvolve
Tree
p202
(dp203
g10
I0
sg17
I00
sbsg10
I1
sg18
I01
sg19
g26
sbsg18
I00
sg19
g39
sbsg21
(imyEvolve
Tree
p204
(dp205
g7
(imyEvolve
Tree
p206
(dp207
g7
(imyEvolve
Tree
p208
(dp209
g10
I0
sg16
F-1.4707243756831714
sg17
I01
sbsg10
I1
sg18
I01
sg19
g26
sbsg10
I2
sg18
I01
sg19
g50
sbsg18
I00
sg19
g39
sba(imyEvolve
Tree
p210
(dp211
g7
(imyEvolve
Tree
p212
(dp213
g10
I4
sg11
(imyEvolve
Tree
p214
(dp215
g10
I3
sg11
(imyEvolve
Tree
p216
(dp217
g7
(imyEvolve
Tree
p218
(dp219
g10
I1
sg11
(imyEvolve
Tree
p220
(dp221
g10
I0
sg16
F-3.0641944576519564
sg17
I01
sbsg21
(imyEvolve
Tree
p222
(dp223
g10
I0
sg16
F-0.8519890256288871
sg17
I01
sbsg18
I00
sg19
g27
sbsg10
I2
sg18
I01
sg19
g38
sbsg21
(imyEvolve
Tree
p224
(dp225
g10
I2
sg11
(imyEvolve
Tree
p226
(dp227
g7
(imyEvolve
Tree
p228
(dp229
g10
I0
sg16
F0.9534960331105191
sg17
I01
sbsg10
I1
sg18
I01
sg19
g26
sbsg21
(imyEvolve
Tree
p230
(dp231
g7
(imyEvolve
Tree
p232
(dp233
g10
I0
sg17
I00
sbsg10
I1
sg18
I01
sg19
g38
sbsg18
I00
sg19
g39
sbsg18
I00
sg19
g63
sbsg21
(imyEvolve
Tree
p234
(dp235
g7
(imyEvolve
Tree
p236
(dp237
g7
(imyEvolve
Tree
p238
(dp239
g10
I1
sg11
(imyEvolve
Tree
p240
(dp241
g10
I0
sg17
I00
sbsg21
(imyEvolve
Tree
p242
(dp243
g10
I0
sg16
F2.438880983857211
sg17
I01
sbsg18
I00
sg19
g27
sbsg10
I2
sg18
I01
sg19
g20
sbsg10
I3
sg18
I01
sg19
g20
sbsg18
I00
sg19
g27
sbsg10
I5
sg18
I01
sg19
g50
sba(imyEvolve
Tree
p244
(dp245
g10
I4
sg11
(imyEvolve
Tree
p246
(dp247
g7
(imyEvolve
Tree
p248
(dp249
g7
(imyEvolve
Tree
p250
(dp251
g10
I1
sg11
(imyEvolve
Tree
p252
(dp253
g10
I0
sg17
I00
sbsg21
(imyEvolve
Tree
p254
(dp255
g10
I0
sg16
F4.156135985110925
sg17
I01
sbsg18
I00
sg19
g63
sbsg10
I2
sg18
I01
sg19
g50
sbsg10
I3
sg18
I01
sg19
g26
sbsg21
(imyEvolve
Tree
p256
(dp257
g7
(imyEvolve
Tree
p258
(dp259
g10
I2
sg11
(imyEvolve
Tree
p260
(dp261
g7
(imyEvolve
Tree
p262
(dp263
g10
I0
sg17
I00
sbsg10
I1
sg18
I01
sg19
g26
sbsg21
(imyEvolve
Tree
p264
(dp265
g7
(imyEvolve
Tree
p266
(dp267
g10
I0
sg17
I00
sbsg10
I1
sg18
I01
sg19
g20
sbsg18
I00
sg19
g39
sbsg10
I3
sg18
I01
sg19
g50
sbsg18
I00
sg19
g27
sba(imyEvolve
Tree
p268
(dp269
g7
(imyEvolve
Tree
p270
(dp271
g7
(imyEvolve
Tree
p272
(dp273
g7
(imyEvolve
Tree
p274
(dp275
g10
I0
sg16
F-3.799364086454494
sg17
I01
sbsg10
I1
sg18
I01
sg19
g50
sbsg10
I2
sg18
I01
sg19
g26
sbsg10
I3
sg18
I01
sg19
g20
sba(imyEvolve
Tree
p276
(dp277
g10
I5
sg11
(imyEvolve
Tree
p278
(dp279
g7
(imyEvolve
Tree
p280
(dp281
g7
(imyEvolve
Tree
p282
(dp283
g7
(imyEvolve
Tree
p284
(dp285
g10
I1
sg11
(imyEvolve
Tree
p286
(dp287
g10
I0
sg16
F1.5492588010115131
sg17
I01
sbsg21
(imyEvolve
Tree
p288
(dp289
g10
I0
sg17
I00
sbsg18
I00
sg19
g39
sbsg10
I2
sg18
I01
sg19
g26
sbsg10
I3
sg18
I01
sg19
g50
sbsg10
I4
sg18
I01
sg19
g38
sbsg21
(imyEvolve
Tree
p290
(dp291
g10
I4
sg11
(imyEvolve
Tree
p292
(dp293
g10
I3
sg11
(imyEvolve
Tree
p294
(dp295
g10
I2
sg11
(imyEvolve
Tree
p296
(dp297
g7
(imyEvolve
Tree
p298
(dp299
g10
I0
sg17
I00
sbsg10
I1
sg18
I01
sg19
g38
sbsg21
(imyEvolve
Tree
p300
(dp301
g10
I1
sg11
(imyEvolve
Tree
p302
(dp303
g10
I0
sg17
I00
sbsg21
(imyEvolve
Tree
p304
(dp305
g10
I0
sg17
I00
sbsg18
I00
sg19
g39
sbsg18
I00
sg19
g63
sbsg21
(imyEvolve
Tree
p306
(dp307
g10
I2
sg11
(imyEvolve
Tree
p308
(dp309
g10
I1
sg11
(imyEvolve
Tree
p310
(dp311
g10
I0
sg17
I00
sbsg21
(imyEvolve
Tree
p312
(dp313
g10
I0
sg16
F-1.1099686623880944
sg17
I01
sbsg18
I00
sg19
g63
sbsg21
(imyEvolve
Tree
p314
(dp315
g7
(imyEvolve
Tree
p316
(dp317
g10
I0
sg16
F-4.931466215702476
sg17
I01
sbsg10
I1
sg18
I01
sg19
g50
sbsg18
I00
sg19
g39
sbsg18
I00
sg19
g27
sbsg21
(imyEvolve
Tree
p318
(dp319
g7
(imyEvolve
Tree
p320
(dp321
g10
I2
sg11
(imyEvolve
Tree
p322
(dp323
g7
(imyEvolve
Tree
p324
(dp325
g10
I0
sg17
I00
sbsg10
I1
sg18
I01
sg19
g20
sbsg21
(imyEvolve
Tree
p326
(dp327
g7
(imyEvolve
Tree
p328
(dp329
g10
I0
sg17
I00
sbsg10
I1
sg18
I01
sg19
g50
sbsg18
I00
sg19
g63
sbsg10
I3
sg18
I01
sg19
g26
sbsg18
I00
sg19
g39
sbsg18
I00
sg19
g27
sba(imyEvolve
Tree
p330
(dp331
g10
I3
sg11
(imyEvolve
Tree
p332
(dp333
g7
(imyEvolve
Tree
p334
(dp335
g7
(imyEvolve
Tree
p336
(dp337
g10
I0
sg17
I00
sbsg10
I1
sg18
I01
sg19
g38
sbsg10
I2
sg18
I01
sg19
g50
sbsg21
(imyEvolve
Tree
p338
(dp339
g7
(imyEvolve
Tree
p340
(dp341
g7
(imyEvolve
Tree
p342
(dp343
g10
I0
sg16
F-1.2755642682727553
sg17
I01
sbsg10
I1
sg18
I01
sg19
g26
sbsg10
I2
sg18
I01
sg19
g20
sbsg18
I00
sg19
g63
sba(imyEvolve
Tree
p344
(dp345
g7
(imyEvolve
Tree
p346
(dp347
g7
(imyEvolve
Tree
p348
(dp349
g10
I0
sg16
F1.003749922152152
sg17
I01
sbsg10
I1
sg18
I01
sg19
g38
sbsg10
I2
sg18
I01
sg19
g26
sba(imyEvolve
Tree
p350
(dp351
g7
(imyEvolve
Tree
p352
(dp353
g10
I1
sg11
(imyEvolve
Tree
p354
(dp355
g10
I0
sg16
F-3.5778549280113
sg17
I01
sbsg21
(imyEvolve
Tree
p356
(dp357
g10
I0
sg16
F1.0402121203455792
sg17
I01
sbsg18
I00
sg19
g27
sbsg10
I2
sg18
I01
sg19
g38
sba(imyEvolve
Tree
p358
(dp359
g10
I5
sg11
(imyEvolve
Tree
p360
(dp361
g7
(imyEvolve
Tree
p362
(dp363
g10
I3
sg11
(imyEvolve
Tree
p364
(dp365
g7
(imyEvolve
Tree
p366
(dp367
g10
I1
sg11
(imyEvolve
Tree
p368
(dp369
g10
I0
sg16
F4.486528210510416
sg17
I01
sbsg21
(imyEvolve
Tree
p370
(dp371
g10
I0
sg17
I00
sbsg18
I00
sg19
g27
sbsg10
I2
sg18
I01
sg19
g26
sbsg21
(imyEvolve
Tree
p372
(dp373
g7
(imyEvolve
Tree
p374
(dp375
g10
I1
sg11
(imyEvolve
Tree
p376
(dp377
g10
I0
sg16
F1.9794555286994466
sg17
I01
sbsg21
(imyEvolve
Tree
p378
(dp379
g10
I0
sg16
F-1.2146855152602862
sg17
I01
sbsg18
I00
sg19
g27
sbsg10
I2
sg18
I01
sg19
g20
sbsg18
I00
sg19
g27
sbsg10
I4
sg18
I01
sg19
g20
sbsg21
(imyEvolve
Tree
p380
(dp381
g10
I4
sg11
(imyEvolve
Tree
p382
(dp383
g7
(imyEvolve
Tree
p384
(dp385
g7
(imyEvolve
Tree
p386
(dp387
g10
I1
sg11
(imyEvolve
Tree
p388
(dp389
g10
I0
sg16
F-3.0647451216336288
sg17
I01
sbsg21
(imyEvolve
Tree
p390
(dp391
g10
I0
sg17
I00
sbsg18
I00
sg19
g27
sbsg10
I2
sg18
I01
sg19
g20
sbsg10
I3
sg18
I01
sg19
g26
sbsg21
(imyEvolve
Tree
p392
(dp393
g7
(imyEvolve
Tree
p394
(dp395
g10
I2
sg11
(imyEvolve
Tree
p396
(dp397
g10
I1
sg11
(imyEvolve
Tree
p398
(dp399
g10
I0
sg16
F4.8554782446249884
sg17
I01
sbsg21
(imyEvolve
Tree
p400
(dp401
g10
I0
sg17
I00
sbsg18
I00
sg19
g63
sbsg21
(imyEvolve
Tree
p402
(dp403
g10
I1
sg11
(imyEvolve
Tree
p404
(dp405
g10
I0
sg16
F-0.26762427985392456
sg17
I01
sbsg21
(imyEvolve
Tree
p406
(dp407
g10
I0
sg17
I00
sbsg18
I00
sg19
g27
sbsg18
I00
sg19
g39
sbsg10
I3
sg18
I01
sg19
g50
sbsg18
I00
sg19
g63
sbsg18
I00
sg19
g63
sba(imyEvolve
Tree
p408
(dp409
g10
I5
sg11
(imyEvolve
Tree
p410
(dp411
g10
I4
sg11
(imyEvolve
Tree
p412
(dp413
g7
(imyEvolve
Tree
p414
(dp415
g10
I2
sg11
(imyEvolve
Tree
p416
(dp417
g7
(imyEvolve
Tree
p418
(dp419
g10
I0
sg17
I00
sbsg10
I1
sg18
I01
sg19
g50
sbsg21
(imyEvolve
Tree
p420
(dp421
g7
(imyEvolve
Tree
p422
(dp423
g10
I0
sg17
I00
sbsg10
I1
sg18
I01
sg19
g26
sbsg18
I00
sg19
g63
sbsg10
I3
sg18
I01
sg19
g20
sbsg21
(imyEvolve
Tree
p424
(dp425
g7
(imyEvolve
Tree
p426
(dp427
g10
I2
sg11
(imyEvolve
Tree
p428
(dp429
g7
(imyEvolve
Tree
p430
(dp431
g10
I0
sg16
F2.682880146484221
sg17
I01
sbsg10
I1
sg18
I01
sg19
g50
sbsg21
(imyEvolve
Tree
p432
(dp433
g7
(imyEvolve
Tree
p434
(dp435
g10
I0
sg16
F1.2688032140432126
sg17
I01
sbsg10
I1
sg18
I01
sg19
g38
sbsg18
I00
sg19
g27
sbsg10
I3
sg18
I01
sg19
g26
sbsg18
I00
sg19
g27
sbsg21
(imyEvolve
Tree
p436
(dp437
g10
I4
sg11
(imyEvolve
Tree
p438
(dp439
g10
I3
sg11
(imyEvolve
Tree
p440
(dp441
g7
(imyEvolve
Tree
p442
(dp443
g10
I1
sg11
(imyEvolve
Tree
p444
(dp445
g10
I0
sg16
F1.123360102689313
sg17
I01
sbsg21
(imyEvolve
Tree
p446
(dp447
g10
I0
sg16
F1.5035940826153649
sg17
I01
sbsg18
I00
sg19
g63
sbsg10
I2
sg18
I01
sg19
g50
sbsg21
(imyEvolve
Tree
p448
(dp449
g7
(imyEvolve
Tree
p450
(dp451
g10
I1
sg11
(imyEvolve
Tree
p452
(dp453
g10
I0
sg16
F-3.6973140632860515
sg17
I01
sbsg21
(imyEvolve
Tree
p454
(dp455
g10
I0
sg17
I00
sbsg18
I00
sg19
g63
sbsg10
I2
sg18
I01
sg19
g50
sbsg18
I00
sg19
g63
sbsg21
(imyEvolve
Tree
p456
(dp457
g7
(imyEvolve
Tree
p458
(dp459
g7
(imyEvolve
Tree
p460
(dp461
g10
I1
sg11
(imyEvolve
Tree
p462
(dp463
g10
I0
sg17
I00
sbsg21
(imyEvolve
Tree
p464
(dp465
g10
I0
sg17
I00
sbsg18
I00
sg19
g63
sbsg10
I2
sg18
I01
sg19
g50
sbsg10
I3
sg18
I01
sg19
g26
sbsg18
I00
sg19
g39
sbsg18
I00
sg19
g63
sba(imyEvolve
Tree
p466
(dp467
g10
I3
sg11
(imyEvolve
Tree
p468
(dp469
g10
I2
sg11
(imyEvolve
Tree
p470
(dp471
g7
(imyEvolve
Tree
p472
(dp473
g10
I0
sg17
I00
sbsg10
I1
sg18
I01
sg19
g26
sbsg21
(imyEvolve
Tree
p474
(dp475
g10
I1
sg11
(imyEvolve
Tree
p476
(dp477
g10
I0
sg16
F1.7662925443149842
sg17
I01
sbsg21
(imyEvolve
Tree
p478
(dp479
g10
I0
sg17
I00
sbsg18
I00
sg19
g27
sbsg18
I00
sg19
g27
sbsg21
(imyEvolve
Tree
p480
(dp481
g7
(imyEvolve
Tree
p482
(dp483
g7
(imyEvolve
Tree
p484
(dp485
g10
I0
sg16
F0.7406963081609472
sg17
I01
sbsg10
I1
sg18
I01
sg19
g50
sbsg10
I2
sg18
I01
sg19
g50
sbsg18
I00
sg19
g63
sbaa(lp486
(imyEvolve
Tree
p487
(dp488
g10
I3
sg11
(imyEvolve
Tree
p489
(dp490
g10
I2
sg11
(imyEvolve
Tree
p491
(dp492
g10
I1
sg11
(imyEvolve
Tree
p493
(dp494
g10
I0
sg17
I00
sbsg21
(imyEvolve
Tree
p495
(dp496
g10
I0
sg16
F1.2992807169162601
sg17
I01
sbsg18
I00
sg19
g63
sbsg21
(imyEvolve
Tree
p497
(dp498
g7
(imyEvolve
Tree
p499
(dp500
g10
I0
sg17
I00
sbsg10
I1
sg18
I01
sg19
g50
sbsg18
I00
sg19
g39
sbsg21
(imyEvolve
Tree
p501
(dp502
g10
I2
sg11
(imyEvolve
Tree
p503
(dp504
g7
(imyEvolve
Tree
p505
(dp506
g10
I0
sg17
I00
sbsg10
I1
sg18
I01
sg19
g20
sbsg21
(imyEvolve
Tree
p507
(dp508
g7
(imyEvolve
Tree
p509
(dp510
g10
I0
sg17
I00
sbsg10
I1
sg18
I01
sg19
g50
sbsg18
I00
sg19
g27
sbsg18
I00
sg19
g63
sba(imyEvolve
Tree
p511
(dp512
g10
I3
sg11
(imyEvolve
Tree
p513
(dp514
g10
I2
sg11
(imyEvolve
Tree
p515
(dp516
g7
(imyEvolve
Tree
p517
(dp518
g10
I0
sg17
I00
sbsg10
I1
sg18
I01
sg19
g50
sbsg21
(imyEvolve
Tree
p519
(dp520
g7
(imyEvolve
Tree
p521
(dp522
g10
I0
sg16
F-2.250681618673326
sg17
I01
sbsg10
I1
sg18
I01
sg19
g50
sbsg18
I00
sg19
g63
sbsg21
(imyEvolve
Tree
p523
(dp524
g7
(imyEvolve
Tree
p525
(dp526
g10
I1
sg11
(imyEvolve
Tree
p527
(dp528
g10
I0
sg16
F3.8232166612451426
sg17
I01
sbsg21
(imyEvolve
Tree
p529
(dp530
g10
I0
sg16
F4.0427618426683285
sg17
I01
sbsg18
I00
sg19
g27
sbsg10
I2
sg18
I01
sg19
g26
sbsg18
I00
sg19
g63
sba(imyEvolve
Tree
p531
(dp532
g7
(imyEvolve
Tree
p533
(dp534
g7
(imyEvolve
Tree
p535
(dp536
g7
(imyEvolve
Tree
p537
(dp538
g7
(imyEvolve
Tree
p539
(dp540
g10
I1
sg11
(imyEvolve
Tree
p541
(dp542
g10
I0
sg17
I00
sbsg21
(imyEvolve
Tree
p543
(dp544
g10
I0
sg17
I00
sbsg18
I00
sg19
g39
sbsg10
I2
sg18
I01
sg19
g38
sbsg10
I3
sg18
I01
sg19
g20
sbsg10
I4
sg18
I01
sg19
g20
sbsg10
I5
sg18
I01
sg19
g50
sba(imyEvolve
Tree
p545
(dp546
g7
(imyEvolve
Tree
p547
(dp548
g7
(imyEvolve
Tree
p549
(dp550
g7
(imyEvolve
Tree
p551
(dp552
g10
I0
sg17
I00
sbsg10
I1
sg18
I01
sg19
g20
sbsg10
I2
sg18
I01
sg19
g38
sbsg10
I3
sg18
I01
sg19
g20
sba(imyEvolve
Tree
p553
(dp554
g10
I2
sg11
(imyEvolve
Tree
p555
(dp556
g10
I1
sg11
(imyEvolve
Tree
p557
(dp558
g10
I0
sg17
I00
sbsg21
(imyEvolve
Tree
p559
(dp560
g10
I0
sg16
F4.309399652298868
sg17
I01
sbsg18
I00
sg19
g63
sbsg21
(imyEvolve
Tree
p561
(dp562
g10
I1
sg11
(imyEvolve
Tree
p563
(dp564
g10
I0
sg17
I00
sbsg21
(imyEvolve
Tree
p565
(dp566
g10
I0
sg16
F2.8052437415583036
sg17
I01
sbsg18
I00
sg19
g27
sbsg18
I00
sg19
g27
sba(imyEvolve
Tree
p567
(dp568
g10
I2
sg11
(imyEvolve
Tree
p569
(dp570
g10
I1
sg11
(imyEvolve
Tree
p571
(dp572
g10
I0
sg16
F-0.56007116280791
sg17
I01
sbsg21
(imyEvolve
Tree
p573
(dp574
g10
I0
sg17
I00
sbsg18
I00
sg19
g63
sbsg21
(imyEvolve
Tree
p575
(dp576
g10
I1
sg11
(imyEvolve
Tree
p577
(dp578
g10
I0
sg16
F-0.03658651106918409
sg17
I01
sbsg21
(imyEvolve
Tree
p579
(dp580
g10
I0
sg16
F2.958817029694779
sg17
I01
sbsg18
I00
sg19
g39
sbsg18
I00
sg19
g39
sba(imyEvolve
Tree
p581
(dp582
g7
(imyEvolve
Tree
p583
(dp584
g10
I1
sg11
(imyEvolve
Tree
p585
(dp586
g10
I0
sg16
F-1.5899561463867284
sg17
I01
sbsg21
(imyEvolve
Tree
p587
(dp588
g10
I0
sg17
I00
sbsg18
I00
sg19
g63
sbsg10
I2
sg18
I01
sg19
g20
sba(imyEvolve
Tree
p589
(dp590
g7
(imyEvolve
Tree
p591
(dp592
g10
I4
sg11
(imyEvolve
Tree
p593
(dp594
g7
(imyEvolve
Tree
p595
(dp596
g10
I2
sg11
(imyEvolve
Tree
p597
(dp598
g10
I1
sg11
(imyEvolve
Tree
p599
(dp600
g10
I0
sg17
I00
sbsg21
(imyEvolve
Tree
p601
(dp602
g10
I0
sg17
I00
sbsg18
I00
sg19
g39
sbsg21
(imyEvolve
Tree
p603
(dp604
g7
(imyEvolve
Tree
p605
(dp606
g10
I0
sg17
I00
sbsg10
I1
sg18
I01
sg19
g50
sbsg18
I00
sg19
g27
sbsg10
I3
sg18
I01
sg19
g26
sbsg21
(imyEvolve
Tree
p607
(dp608
g10
I3
sg11
(imyEvolve
Tree
p609
(dp610
g10
I2
sg11
(imyEvolve
Tree
p611
(dp612
g7
(imyEvolve
Tree
p613
(dp614
g10
I0
sg16
F3.7011412576137808
sg17
I01
sbsg10
I1
sg18
I01
sg19
g26
sbsg21
(imyEvolve
Tree
p615
(dp616
g10
I1
sg11
(imyEvolve
Tree
p617
(dp618
g10
I0
sg16
F1.6199301029233206
sg17
I01
sbsg21
(imyEvolve
Tree
p619
(dp620
g10
I0
sg17
I00
sbsg18
I00
sg19
g39
sbsg18
I00
sg19
g27
sbsg21
(imyEvolve
Tree
p621
(dp622
g10
I2
sg11
(imyEvolve
Tree
p623
(dp624
g7
(imyEvolve
Tree
p625
(dp626
g10
I0
sg17
I00
sbsg10
I1
sg18
I01
sg19
g26
sbsg21
(imyEvolve
Tree
p627
(dp628
g7
(imyEvolve
Tree
p629
(dp630
g10
I0
sg17
I00
sbsg10
I1
sg18
I01
sg19
g38
sbsg18
I00
sg19
g39
sbsg18
I00
sg19
g39
sbsg18
I00
sg19
g63
sbsg10
I5
sg18
I01
sg19
g26
sba(imyEvolve
Tree
p631
(dp632
g7
(imyEvolve
Tree
p633
(dp634
g10
I1
sg11
(imyEvolve
Tree
p635
(dp636
g10
I0
sg17
I00
sbsg21
(imyEvolve
Tree
p637
(dp638
g10
I0
sg16
F0.6778778527148308
sg17
I01
sbsg18
I00
sg19
g27
sbsg10
I2
sg18
I01
sg19
g38
sba(imyEvolve
Tree
p639
(dp640
g10
I3
sg11
(imyEvolve
Tree
p641
(dp642
g7
(imyEvolve
Tree
p643
(dp644
g7
(imyEvolve
Tree
p645
(dp646
g10
I0
sg16
F-0.5254233953512841
sg17
I01
sbsg10
I1
sg18
I01
sg19
g38
sbsg10
I2
sg18
I01
sg19
g50
sbsg21
(imyEvolve
Tree
p647
(dp648
g10
I2
sg11
(imyEvolve
Tree
p649
(dp650
g7
(imyEvolve
Tree
p651
(dp652
g10
I0
sg16
F3.9921289592895235
sg17
I01
sbsg10
I1
sg18
I01
sg19
g20
sbsg21
(imyEvolve
Tree
p653
(dp654
g10
I1
sg11
(imyEvolve
Tree
p655
(dp656
g10
I0
sg17
I00
sbsg21
(imyEvolve
Tree
p657
(dp658
g10
I0
sg17
I00
sbsg18
I00
sg19
g39
sbsg18
I00
sg19
g63
sbsg18
I00
sg19
g39
sba(imyEvolve
Tree
p659
(dp660
g10
I3
sg11
(imyEvolve
Tree
p661
(dp662
g7
(imyEvolve
Tree
p663
(dp664
g10
I1
sg11
(imyEvolve
Tree
p665
(dp666
g10
I0
sg17
I00
sbsg21
(imyEvolve
Tree
p667
(dp668
g10
I0
sg16
F-3.0087201591932375
sg17
I01
sbsg18
I00
sg19
g27
sbsg10
I2
sg18
I01
sg19
g50
sbsg21
(imyEvolve
Tree
p669
(dp670
g10
I2
sg11
(imyEvolve
Tree
p671
(dp672
g7
(imyEvolve
Tree
p673
(dp674
g10
I0
sg16
F0.9699493236179535
sg17
I01
sbsg10
I1
sg18
I01
sg19
g26
sbsg21
(imyEvolve
Tree
p675
(dp676
g7
(imyEvolve
Tree
p677
(dp678
g10
I0
sg16
F4.576248417915089
sg17
I01
sbsg10
I1
sg18
I01
sg19
g38
sbsg18
I00
sg19
g39
sbsg18
I00
sg19
g27
sba(imyEvolve
Tree
p679
(dp680
g7
(imyEvolve
Tree
p681
(dp682
g10
I2
sg11
(imyEvolve
Tree
p683
(dp684
g7
(imyEvolve
Tree
p685
(dp686
g10
I0
sg17
I00
sbsg10
I1
sg18
I01
sg19
g50
sbsg21
(imyEvolve
Tree
p687
(dp688
g7
(imyEvolve
Tree
p689
(dp690
g10
I0
sg17
I00
sbsg10
I1
sg18
I01
sg19
g50
sbsg18
I00
sg19
g63
sbsg10
I3
sg18
I01
sg19
g38
sba(imyEvolve
Tree
p691
(dp692
g10
I3
sg11
(imyEvolve
Tree
p693
(dp694
g10
I2
sg11
(imyEvolve
Tree
p695
(dp696
g7
(imyEvolve
Tree
p697
(dp698
g10
I0
sg17
I00
sbsg10
I1
sg18
I01
sg19
g20
sbsg21
(imyEvolve
Tree
p699
(dp700
g7
(imyEvolve
Tree
p701
(dp702
g10
I0
sg17
I00
sbsg10
I1
sg18
I01
sg19
g26
sbsg18
I00
sg19
g63
sbsg21
(imyEvolve
Tree
p703
(dp704
g10
I2
sg11
(imyEvolve
Tree
p705
(dp706
g7
(imyEvolve
Tree
p707
(dp708
g10
I0
sg16
F3.625177199776532
sg17
I01
sbsg10
I1
sg18
I01
sg19
g38
sbsg21
(imyEvolve
Tree
p709
(dp710
g7
(imyEvolve
Tree
p711
(dp712
g10
I0
sg16
F-3.138509876774247
sg17
I01
sbsg10
I1
sg18
I01
sg19
g20
sbsg18
I00
sg19
g63
sbsg18
I00
sg19
g63
sba(imyEvolve
Tree
p713
(dp714
g10
I4
sg11
(imyEvolve
Tree
p715
(dp716
g10
I3
sg11
(imyEvolve
Tree
p717
(dp718
g10
I2
sg11
(imyEvolve
Tree
p719
(dp720
g10
I1
sg11
(imyEvolve
Tree
p721
(dp722
g10
I0
sg16
F3.547569309388866
sg17
I01
sbsg21
(imyEvolve
Tree
p723
(dp724
g10
I0
sg16
F2.546508905718418
sg17
I01
sbsg18
I00
sg19
g39
sbsg21
(imyEvolve
Tree
p725
(dp726
g7
(imyEvolve
Tree
p727
(dp728
g10
I0
sg17
I00
sbsg10
I1
sg18
I01
sg19
g50
sbsg18
I00
sg19
g63
sbsg21
(imyEvolve
Tree
p729
(dp730
g7
(imyEvolve
Tree
p731
(dp732
g10
I1
sg11
(imyEvolve
Tree
p733
(dp734
g10
I0
sg16
F0.040333025450279614
sg17
I01
sbsg21
(imyEvolve
Tree
p735
(dp736
g10
I0
sg16
F-2.5433289704912454
sg17
I01
sbsg18
I00
sg19
g39
sbsg10
I2
sg18
I01
sg19
g50
sbsg18
I00
sg19
g63
sbsg21
(imyEvolve
Tree
p737
(dp738
g10
I3
sg11
(imyEvolve
Tree
p739
(dp740
g10
I2
sg11
(imyEvolve
Tree
p741
(dp742
g10
I1
sg11
(imyEvolve
Tree
p743
(dp744
g10
I0
sg17
I00
sbsg21
(imyEvolve
Tree
p745
(dp746
g10
I0
sg17
I00
sbsg18
I00
sg19
g63
sbsg21
(imyEvolve
Tree
p747
(dp748
g10
I1
sg11
(imyEvolve
Tree
p749
(dp750
g10
I0
sg16
F0.10938903482821427
sg17
I01
sbsg21
(imyEvolve
Tree
p751
(dp752
g10
I0
sg17
I00
sbsg18
I00
sg19
g63
sbsg18
I00
sg19
g27
sbsg21
(imyEvolve
Tree
p753
(dp754
g7
(imyEvolve
Tree
p755
(dp756
g10
I1
sg11
(imyEvolve
Tree
p757
(dp758
g10
I0
sg16
F3.3277413021983193
sg17
I01
sbsg21
(imyEvolve
Tree
p759
(dp760
g10
I0
sg16
F0.019023076960973384
sg17
I01
sbsg18
I00
sg19
g63
sbsg10
I2
sg18
I01
sg19
g50
sbsg18
I00
sg19
g27
sbsg18
I00
sg19
g63
sbaasS'weightSharing'
p761
(lp762
I00
aI00
asS'fitnessValid'
p763
I00
sS'fitness'
p764
cnumpy.core.multiarray
scalar
p765
(cnumpy
dtype
p766
(S'f8'
p767
I0
I1
tp768
Rp769
(I3
S'<'
p770
NNNI-1
I-1
I0
tp771
bS'\xb6\xf3\xfdL4\x1d\xe6?'
p772
tp773
Rp774
sS'alpha'
p775
F0.00778990337581191
sS'resolution'
p776
I92
sb.