(imyEvolve
Individual
p0
(dp1
S'funcs'
p2
(lp3
(lp4
(imyEvolve
Tree
p5
(dp6
S'depth'
p7
I5
sS'left'
p8
(imyEvolve
Tree
p9
(dp10
S'below'
p11
(imyEvolve
Tree
p12
(dp13
g11
(imyEvolve
Tree
p14
(dp15
g7
I2
sg8
(imyEvolve
Tree
p16
(dp17
g7
I1
sg8
(imyEvolve
Tree
p18
(dp19
g7
I0
sS'isConstant'
p20
I00
sbsS'right'
p21
(imyEvolve
Tree
p22
(dp23
g7
I0
sS'constant'
p24
F0.6494707694323143
sg20
I01
sbsS'single'
p25
I00
sS'op'
p26
coperator
add
p27
sbsg21
(imyEvolve
Tree
p28
(dp29
g11
(imyEvolve
Tree
p30
(dp31
g7
I0
sg20
I00
sbsg7
I1
sg25
I01
sg26
cmath
cos
p32
sbsg25
I00
sg26
coperator
sub
p33
sbsg7
I3
sg25
I01
sg26
cmath
sin
p34
sbsg7
I4
sg25
I01
sg26
cmyEvolve
absSqrt
p35
sbsg21
(imyEvolve
Tree
p36
(dp37
g11
(imyEvolve
Tree
p38
(dp39
g7
I3
sg8
(imyEvolve
Tree
p40
(dp41
g11
(imyEvolve
Tree
p42
(dp43
g11
(imyEvolve
Tree
p44
(dp45
g7
I0
sg24
F-0.8059577659063466
sg20
I01
sbsg7
I1
sg25
I01
sg26
g34
sbsg7
I2
sg25
I01
sg26
cmyEvolve
square
p46
sbsg21
(imyEvolve
Tree
p47
(dp48
g7
I2
sg8
(imyEvolve
Tree
p49
(dp50
g7
I1
sg8
(imyEvolve
Tree
p51
(dp52
g7
I0
sg24
F1.2283833160279878
sg20
I01
sbsg21
(imyEvolve
Tree
p53
(dp54
g7
I0
sg24
F-1.2194244213961603
sg20
I01
sbsg25
I00
sg26
g27
sbsg21
(imyEvolve
Tree
p55
(dp56
g7
I1
sg8
(imyEvolve
Tree
p57
(dp58
g7
I0
sg20
I00
sbsg21
(imyEvolve
Tree
p59
(dp60
g7
I0
sg24
F0.3658462037398831
sg20
I01
sbsg25
I00
sg26
coperator
mul
p61
sbsg25
I00
sg26
g33
sbsg25
I00
sg26
g61
sbsg7
I4
sg25
I01
sg26
g32
sbsg25
I00
sg26
g61
sba(imyEvolve
Tree
p62
(dp63
g7
I4
sg8
(imyEvolve
Tree
p64
(dp65
g11
(imyEvolve
Tree
p66
(dp67
g11
(imyEvolve
Tree
p68
(dp69
g11
(imyEvolve
Tree
p70
(dp71
g7
I0
sg20
I00
sbsg7
I1
sg25
I01
sg26
g35
sbsg7
I2
sg25
I01
sg26
g35
sbsg7
I3
sg25
I01
sg26
g34
sbsg21
(imyEvolve
Tree
p72
(dp73
g11
(imyEvolve
Tree
p74
(dp75
g11
(imyEvolve
Tree
p76
(dp77
g7
I1
sg8
(imyEvolve
Tree
p78
(dp79
g7
I0
sg20
I00
sbsg21
(imyEvolve
Tree
p80
(dp81
g7
I0
sg24
F-1.5404194173840526
sg20
I01
sbsg25
I00
sg26
g33
sbsg7
I2
sg25
I01
sg26
g46
sbsg7
I3
sg25
I01
sg26
g35
sbsg25
I00
sg26
g33
sba(imyEvolve
Tree
p82
(dp83
g11
(imyEvolve
Tree
p84
(dp85
g11
(imyEvolve
Tree
p86
(dp87
g7
I1
sg8
(imyEvolve
Tree
p88
(dp89
g7
I0
sg20
I00
sbsg21
(imyEvolve
Tree
p90
(dp91
g7
I0
sg24
F2.700691339096829
sg20
I01
sbsg25
I00
sg26
g27
sbsg7
I2
sg25
I01
sg26
g46
sbsg7
I3
sg25
I01
sg26
g34
sba(imyEvolve
Tree
p92
(dp93
g11
(imyEvolve
Tree
p94
(dp95
g7
I2
sg8
(imyEvolve
Tree
p96
(dp97
g7
I1
sg8
(imyEvolve
Tree
p98
(dp99
g7
I0
sg24
F-4.480709643505515
sg20
I01
sbsg21
(imyEvolve
Tree
p100
(dp101
g7
I0
sg20
I00
sbsg25
I00
sg26
g33
sbsg21
(imyEvolve
Tree
p102
(dp103
g11
(imyEvolve
Tree
p104
(dp105
g7
I0
sg20
I00
sbsg7
I1
sg25
I01
sg26
g46
sbsg25
I00
sg26
g27
sbsg7
I3
sg25
I01
sg26
g46
sba(imyEvolve
Tree
p106
(dp107
g11
(imyEvolve
Tree
p108
(dp109
g7
I4
sg8
(imyEvolve
Tree
p110
(dp111
g11
(imyEvolve
Tree
p112
(dp113
g11
(imyEvolve
Tree
p114
(dp115
g11
(imyEvolve
Tree
p116
(dp117
g7
I0
sg20
I00
sbsg7
I1
sg25
I01
sg26
g34
sbsg7
I2
sg25
I01
sg26
g46
sbsg7
I3
sg25
I01
sg26
g34
sbsg21
(imyEvolve
Tree
p118
(dp119
g11
(imyEvolve
Tree
p120
(dp121
g7
I2
sg8
(imyEvolve
Tree
p122
(dp123
g7
I1
sg8
(imyEvolve
Tree
p124
(dp125
g7
I0
sg20
I00
sbsg21
(imyEvolve
Tree
p126
(dp127
g7
I0
sg20
I00
sbsg25
I00
sg26
g33
sbsg21
(imyEvolve
Tree
p128
(dp129
g7
I1
sg8
(imyEvolve
Tree
p130
(dp131
g7
I0
sg20
I00
sbsg21
(imyEvolve
Tree
p132
(dp133
g7
I0
sg24
F1.5981096075123666
sg20
I01
sbsg25
I00
sg26
g27
sbsg25
I00
sg26
g61
sbsg7
I3
sg25
I01
sg26
g46
sbsg25
I00
sg26
g33
sbsg7
I5
sg25
I01
sg26
g34
sba(imyEvolve
Tree
p134
(dp135
g11
(imyEvolve
Tree
p136
(dp137
g7
I4
sg8
(imyEvolve
Tree
p138
(dp139
g7
I3
sg8
(imyEvolve
Tree
p140
(dp141
g11
(imyEvolve
Tree
p142
(dp143
g11
(imyEvolve
Tree
p144
(dp145
g7
I0
sg20
I00
sbsg7
I1
sg25
I01
sg26
g32
sbsg7
I2
sg25
I01
sg26
g34
sbsg21
(imyEvolve
Tree
p146
(dp147
g7
I2
sg8
(imyEvolve
Tree
p148
(dp149
g11
(imyEvolve
Tree
p150
(dp151
g7
I0
sg24
F0.667574719825601
sg20
I01
sbsg7
I1
sg25
I01
sg26
g35
sbsg21
(imyEvolve
Tree
p152
(dp153
g11
(imyEvolve
Tree
p154
(dp155
g7
I0
sg20
I00
sbsg7
I1
sg25
I01
sg26
g35
sbsg25
I00
sg26
g33
sbsg25
I00
sg26
g27
sbsg21
(imyEvolve
Tree
p156
(dp157
g11
(imyEvolve
Tree
p158
(dp159
g11
(imyEvolve
Tree
p160
(dp161
g7
I1
sg8
(imyEvolve
Tree
p162
(dp163
g7
I0
sg20
I00
sbsg21
(imyEvolve
Tree
p164
(dp165
g7
I0
sg24
F-3.413411682399703
sg20
I01
sbsg25
I00
sg26
g27
sbsg7
I2
sg25
I01
sg26
g46
sbsg7
I3
sg25
I01
sg26
g46
sbsg25
I00
sg26
g27
sbsg7
I5
sg25
I01
sg26
g34
sba(imyEvolve
Tree
p166
(dp167
g11
(imyEvolve
Tree
p168
(dp169
g7
I2
sg8
(imyEvolve
Tree
p170
(dp171
g11
(imyEvolve
Tree
p172
(dp173
g7
I0
sg20
I00
sbsg7
I1
sg25
I01
sg26
g32
sbsg21
(imyEvolve
Tree
p174
(dp175
g11
(imyEvolve
Tree
p176
(dp177
g7
I0
sg20
I00
sbsg7
I1
sg25
I01
sg26
g32
sbsg25
I00
sg26
g33
sbsg7
I3
sg25
I01
sg26
g32
sba(imyEvolve
Tree
p178
(dp179
g11
(imyEvolve
Tree
p180
(dp181
g11
(imyEvolve
Tree
p182
(dp183
g7
I0
sg20
I00
sbsg7
I1
sg25
I01
sg26
g46
sbsg7
I2
sg25
I01
sg26
g32
sba(imyEvolve
Tree
p184
(dp185
g11
(imyEvolve
Tree
p186
(dp187
g11
(imyEvolve
Tree
p188
(dp189
g7
I3
sg8
(imyEvolve
Tree
p190
(dp191
g11
(imyEvolve
Tree
p192
(dp193
g11
(imyEvolve
Tree
p194
(dp195
g7
I0
sg24
F-1.8976795870017038
sg20
I01
sbsg7
I1
sg25
I01
sg26
g32
sbsg7
I2
sg25
I01
sg26
g35
sbsg21
(imyEvolve
Tree
p196
(dp197
g11
(imyEvolve
Tree
p198
(dp199
g7
I1
sg8
(imyEvolve
Tree
p200
(dp201
g7
I0
sg24
F-1.3118977974739532
sg20
I01
sbsg21
(imyEvolve
Tree
p202
(dp203
g7
I0
sg20
I00
sbsg25
I00
sg26
g61
sbsg7
I2
sg25
I01
sg26
g34
sbsg25
I00
sg26
g33
sbsg7
I4
sg25
I01
sg26
g46
sbsg7
I5
sg25
I01
sg26
g46
sba(imyEvolve
Tree
p204
(dp205
g11
(imyEvolve
Tree
p206
(dp207
g7
I3
sg8
(imyEvolve
Tree
p208
(dp209
g11
(imyEvolve
Tree
p210
(dp211
g11
(imyEvolve
Tree
p212
(dp213
g7
I0
sg20
I00
sbsg7
I1
sg25
I01
sg26
g34
sbsg7
I2
sg25
I01
sg26
g35
sbsg21
(imyEvolve
Tree
p214
(dp215
g11
(imyEvolve
Tree
p216
(dp217
g11
(imyEvolve
Tree
p218
(dp219
g7
I0
sg20
I00
sbsg7
I1
sg25
I01
sg26
g34
sbsg7
I2
sg25
I01
sg26
g32
sbsg25
I00
sg26
g61
sbsg7
I4
sg25
I01
sg26
g35
sba(imyEvolve
Tree
p220
(dp221
g7
I3
sg8
(imyEvolve
Tree
p222
(dp223
g11
(imyEvolve
Tree
p224
(dp225
g11
(imyEvolve
Tree
p226
(dp227
g7
I0
sg20
I00
sbsg7
I1
sg25
I01
sg26
g34
sbsg7
I2
sg25
I01
sg26
g32
sbsg21
(imyEvolve
Tree
p228
(dp229
g11
(imyEvolve
Tree
p230
(dp231
g11
(imyEvolve
Tree
p232
(dp233
g7
I0
sg24
F1.0424102793856704
sg20
I01
sbsg7
I1
sg25
I01
sg26
g35
sbsg7
I2
sg25
I01
sg26
g46
sbsg25
I00
sg26
g61
sbaa(lp234
(imyEvolve
Tree
p235
(dp236
g11
(imyEvolve
Tree
p237
(dp238
g11
(imyEvolve
Tree
p239
(dp240
g7
I2
sg8
(imyEvolve
Tree
p241
(dp242
g7
I1
sg8
(imyEvolve
Tree
p243
(dp244
g7
I0
sg20
I00
sbsg21
(imyEvolve
Tree
p245
(dp246
g7
I0
sg24
F-2.8243726614139364
sg20
I01
sbsg25
I00
sg26
g33
sbsg21
(imyEvolve
Tree
p247
(dp248
g11
(imyEvolve
Tree
p249
(dp250
g7
I0
sg20
I00
sbsg7
I1
sg25
I01
sg26
g46
sbsg25
I00
sg26
g27
sbsg7
I3
sg25
I01
sg26
g32
sbsg7
I4
sg25
I01
sg26
g34
sba(imyEvolve
Tree
p251
(dp252
g11
(imyEvolve
Tree
p253
(dp254
g7
I4
sg8
(imyEvolve
Tree
p255
(dp256
g11
(imyEvolve
Tree
p257
(dp258
g11
(imyEvolve
Tree
p259
(dp260
g7
I1
sg8
(imyEvolve
Tree
p261
(dp262
g7
I0
sg20
I00
sbsg21
(imyEvolve
Tree
p263
(dp264
g7
I0
sg20
I00
sbsg25
I00
sg26
g33
sbsg7
I2
sg25
I01
sg26
g34
sbsg7
I3
sg25
I01
sg26
g34
sbsg21
(imyEvolve
Tree
p265
(dp266
g7
I3
sg8
(imyEvolve
Tree
p267
(dp268
g7
I2
sg8
(imyEvolve
Tree
p269
(dp270
g7
I1
sg8
(imyEvolve
Tree
p271
(dp272
g7
I0
sg20
I00
sbsg21
(imyEvolve
Tree
p273
(dp274
g7
I0
sg20
I00
sbsg25
I00
sg26
g27
sbsg21
(imyEvolve
Tree
p275
(dp276
g7
I1
sg8
(imyEvolve
Tree
p277
(dp278
g7
I0
sg20
I00
sbsg21
(imyEvolve
Tree
p279
(dp280
g7
I0
sg20
I00
sbsg25
I00
sg26
g61
sbsg25
I00
sg26
g27
sbsg21
(imyEvolve
Tree
p281
(dp282
g11
(imyEvolve
Tree
p283
(dp284
g11
(imyEvolve
Tree
p285
(dp286
g7
I0
sg24
F1.2415198497428435
sg20
I01
sbsg7
I1
sg25
I01
sg26
g35
sbsg7
I2
sg25
I01
sg26
g34
sbsg25
I00
sg26
g33
sbsg25
I00
sg26
g33
sbsg7
I5
sg25
I01
sg26
g46
sba(imyEvolve
Tree
p287
(dp288
g7
I4
sg8
(imyEvolve
Tree
p289
(dp290
g7
I3
sg8
(imyEvolve
Tree
p291
(dp292
g11
(imyEvolve
Tree
p293
(dp294
g11
(imyEvolve
Tree
p295
(dp296
g7
I0
sg24
F-2.657065687790241
sg20
I01
sbsg7
I1
sg25
I01
sg26
g34
sbsg7
I2
sg25
I01
sg26
g32
sbsg21
(imyEvolve
Tree
p297
(dp298
g11
(imyEvolve
Tree
p299
(dp300
g11
(imyEvolve
Tree
p301
(dp302
g7
I0
sg24
F-1.7974717470708512
sg20
I01
sbsg7
I1
sg25
I01
sg26
g35
sbsg7
I2
sg25
I01
sg26
g46
sbsg25
I00
sg26
g33
sbsg21
(imyEvolve
Tree
p303
(dp304
g11
(imyEvolve
Tree
p305
(dp306
g7
I2
sg8
(imyEvolve
Tree
p307
(dp308
g11
(imyEvolve
Tree
p309
(dp310
g7
I0
sg24
F4.745471677729004
sg20
I01
sbsg7
I1
sg25
I01
sg26
g34
sbsg21
(imyEvolve
Tree
p311
(dp312
g7
I1
sg8
(imyEvolve
Tree
p313
(dp314
g7
I0
sg24
F2.5146668909674306
sg20
I01
sbsg21
(imyEvolve
Tree
p315
(dp316
g7
I0
sg24
F3.687247794974816
sg20
I01
sbsg25
I00
sg26
g27
sbsg25
I00
sg26
g61
sbsg7
I3
sg25
I01
sg26
g34
sbsg25
I00
sg26
g33
sba(imyEvolve
Tree
p317
(dp318
g7
I3
sg8
(imyEvolve
Tree
p319
(dp320
g11
(imyEvolve
Tree
p321
(dp322
g11
(imyEvolve
Tree
p323
(dp324
g7
I0
sg20
I00
sbsg7
I1
sg25
I01
sg26
g35
sbsg7
I2
sg25
I01
sg26
g32
sbsg21
(imyEvolve
Tree
p325
(dp326
g7
I2
sg8
(imyEvolve
Tree
p327
(dp328
g11
(imyEvolve
Tree
p329
(dp330
g7
I0
sg24
F-2.3273947103511294
sg20
I01
sbsg7
I1
sg25
I01
sg26
g46
sbsg21
(imyEvolve
Tree
p331
(dp332
g7
I1
sg8
(imyEvolve
Tree
p333
(dp334
g7
I0
sg20
I00
sbsg21
(imyEvolve
Tree
p335
(dp336
g7
I0
sg24
F-1.1234164092189438
sg20
I01
sbsg25
I00
sg26
g61
sbsg25
I00
sg26
g33
sbsg25
I00
sg26
g61
sba(imyEvolve
Tree
p337
(dp338
g7
I2
sg8
(imyEvolve
Tree
p339
(dp340
g7
I1
sg8
(imyEvolve
Tree
p341
(dp342
g7
I0
sg20
I00
sbsg21
(imyEvolve
Tree
p343
(dp344
g7
I0
sg24
F4.604799217177112
sg20
I01
sbsg25
I00
sg26
g61
sbsg21
(imyEvolve
Tree
p345
(dp346
g7
I1
sg8
(imyEvolve
Tree
p347
(dp348
g7
I0
sg24
F-2.5167667096229005
sg20
I01
sbsg21
(imyEvolve
Tree
p349
(dp350
g7
I0
sg20
I00
sbsg25
I00
sg26
g61
sbsg25
I00
sg26
g33
sba(imyEvolve
Tree
p351
(dp352
g7
I2
sg8
(imyEvolve
Tree
p353
(dp354
g11
(imyEvolve
Tree
p355
(dp356
g7
I0
sg24
F-4.916467834613725
sg20
I01
sbsg7
I1
sg25
I01
sg26
g35
sbsg21
(imyEvolve
Tree
p357
(dp358
g11
(imyEvolve
Tree
p359
(dp360
g7
I0
sg20
I00
sbsg7
I1
sg25
I01
sg26
g32
sbsg25
I00
sg26
g33
sba(imyEvolve
Tree
p361
(dp362
g11
(imyEvolve
Tree
p363
(dp364
g11
(imyEvolve
Tree
p365
(dp366
g11
(imyEvolve
Tree
p367
(dp368
g11
(imyEvolve
Tree
p369
(dp370
g7
I0
sg20
I00
sbsg7
I1
sg25
I01
sg26
g35
sbsg7
I2
sg25
I01
sg26
g32
sbsg7
I3
sg25
I01
sg26
g35
sbsg7
I4
sg25
I01
sg26
g35
sba(imyEvolve
Tree
p371
(dp372
g11
(imyEvolve
Tree
p373
(dp374
g11
(imyEvolve
Tree
p375
(dp376
g7
I0
sg20
I00
sbsg7
I1
sg25
I01
sg26
g35
sbsg7
I2
sg25
I01
sg26
g34
sba(imyEvolve
Tree
p377
(dp378
g7
I3
sg8
(imyEvolve
Tree
p379
(dp380
g7
I2
sg8
(imyEvolve
Tree
p381
(dp382
g7
I1
sg8
(imyEvolve
Tree
p383
(dp384
g7
I0
sg24
F-2.766686276433128
sg20
I01
sbsg21
(imyEvolve
Tree
p385
(dp386
g7
I0
sg24
F-0.20154305007697282
sg20
I01
sbsg25
I00
sg26
g61
sbsg21
(imyEvolve
Tree
p387
(dp388
g7
I1
sg8
(imyEvolve
Tree
p389
(dp390
g7
I0
sg20
I00
sbsg21
(imyEvolve
Tree
p391
(dp392
g7
I0
sg24
F-1.2144017409676024
sg20
I01
sbsg25
I00
sg26
g61
sbsg25
I00
sg26
g33
sbsg21
(imyEvolve
Tree
p393
(dp394
g11
(imyEvolve
Tree
p395
(dp396
g11
(imyEvolve
Tree
p397
(dp398
g7
I0
sg20
I00
sbsg7
I1
sg25
I01
sg26
g46
sbsg7
I2
sg25
I01
sg26
g32
sbsg25
I00
sg26
g33
sba(imyEvolve
Tree
p399
(dp400
g11
(imyEvolve
Tree
p401
(dp402
g7
I2
sg8
(imyEvolve
Tree
p403
(dp404
g7
I1
sg8
(imyEvolve
Tree
p405
(dp406
g7
I0
sg24
F-2.0081580983722516
sg20
I01
sbsg21
(imyEvolve
Tree
p407
(dp408
g7
I0
sg20
I00
sbsg25
I00
sg26
g61
sbsg21
(imyEvolve
Tree
p409
(dp410
g7
I1
sg8
(imyEvolve
Tree
p411
(dp412
g7
I0
sg24
F-2.709169569278782
sg20
I01
sbsg21
(imyEvolve
Tree
p413
(dp414
g7
I0
sg20
I00
sbsg25
I00
sg26
g33
sbsg25
I00
sg26
g27
sbsg7
I3
sg25
I01
sg26
g35
sba(imyEvolve
Tree
p415
(dp416
g11
(imyEvolve
Tree
p417
(dp418
g11
(imyEvolve
Tree
p419
(dp420
g11
(imyEvolve
Tree
p421
(dp422
g7
I2
sg8
(imyEvolve
Tree
p423
(dp424
g7
I1
sg8
(imyEvolve
Tree
p425
(dp426
g7
I0
sg20
I00
sbsg21
(imyEvolve
Tree
p427
(dp428
g7
I0
sg20
I00
sbsg25
I00
sg26
g27
sbsg21
(imyEvolve
Tree
p429
(dp430
g11
(imyEvolve
Tree
p431
(dp432
g7
I0
sg24
F-4.108212179339727
sg20
I01
sbsg7
I1
sg25
I01
sg26
g46
sbsg25
I00
sg26
g33
sbsg7
I3
sg25
I01
sg26
g32
sbsg7
I4
sg25
I01
sg26
g46
sbsg7
I5
sg25
I01
sg26
g46
sba(imyEvolve
Tree
p433
(dp434
g7
I2
sg8
(imyEvolve
Tree
p435
(dp436
g7
I1
sg8
(imyEvolve
Tree
p437
(dp438
g7
I0
sg20
I00
sbsg21
(imyEvolve
Tree
p439
(dp440
g7
I0
sg24
F-2.549561192987312
sg20
I01
sbsg25
I00
sg26
g27
sbsg21
(imyEvolve
Tree
p441
(dp442
g11
(imyEvolve
Tree
p443
(dp444
g7
I0
sg20
I00
sbsg7
I1
sg25
I01
sg26
g35
sbsg25
I00
sg26
g27
sba(imyEvolve
Tree
p445
(dp446
g11
(imyEvolve
Tree
p447
(dp448
g11
(imyEvolve
Tree
p449
(dp450
g11
(imyEvolve
Tree
p451
(dp452
g7
I0
sg20
I00
sbsg7
I1
sg25
I01
sg26
g35
sbsg7
I2
sg25
I01
sg26
g35
sbsg7
I3
sg25
I01
sg26
g46
sbaa(lp453
(imyEvolve
Tree
p454
(dp455
g11
(imyEvolve
Tree
p456
(dp457
g11
(imyEvolve
Tree
p458
(dp459
g11
(imyEvolve
Tree
p460
(dp461
g11
(imyEvolve
Tree
p462
(dp463
g7
I0
sg20
I00
sbsg7
I1
sg25
I01
sg26
g32
sbsg7
I2
sg25
I01
sg26
g46
sbsg7
I3
sg25
I01
sg26
g46
sbsg7
I4
sg25
I01
sg26
g46
sba(imyEvolve
Tree
p464
(dp465
g7
I3
sg8
(imyEvolve
Tree
p466
(dp467
g7
I2
sg8
(imyEvolve
Tree
p468
(dp469
g11
(imyEvolve
Tree
p470
(dp471
g7
I0
sg24
F2.2581918081820156
sg20
I01
sbsg7
I1
sg25
I01
sg26
g34
sbsg21
(imyEvolve
Tree
p472
(dp473
g7
I1
sg8
(imyEvolve
Tree
p474
(dp475
g7
I0
sg20
I00
sbsg21
(imyEvolve
Tree
p476
(dp477
g7
I0
sg20
I00
sbsg25
I00
sg26
g33
sbsg25
I00
sg26
g61
sbsg21
(imyEvolve
Tree
p478
(dp479
g11
(imyEvolve
Tree
p480
(dp481
g7
I1
sg8
(imyEvolve
Tree
p482
(dp483
g7
I0
sg20
I00
sbsg21
(imyEvolve
Tree
p484
(dp485
g7
I0
sg24
F-1.870180156069324
sg20
I01
sbsg25
I00
sg26
g61
sbsg7
I2
sg25
I01
sg26
g32
sbsg25
I00
sg26
g61
sba(imyEvolve
Tree
p486
(dp487
g11
(imyEvolve
Tree
p488
(dp489
g11
(imyEvolve
Tree
p490
(dp491
g7
I2
sg8
(imyEvolve
Tree
p492
(dp493
g7
I1
sg8
(imyEvolve
Tree
p494
(dp495
g7
I0
sg20
I00
sbsg21
(imyEvolve
Tree
p496
(dp497
g7
I0
sg24
F3.709776665182913
sg20
I01
sbsg25
I00
sg26
g33
sbsg21
(imyEvolve
Tree
p498
(dp499
g11
(imyEvolve
Tree
p500
(dp501
g7
I0
sg20
I00
sbsg7
I1
sg25
I01
sg26
g32
sbsg25
I00
sg26
g33
sbsg7
I3
sg25
I01
sg26
g46
sbsg7
I4
sg25
I01
sg26
g46
sba(imyEvolve
Tree
p502
(dp503
g7
I5
sg8
(imyEvolve
Tree
p504
(dp505
g11
(imyEvolve
Tree
p506
(dp507
g11
(imyEvolve
Tree
p508
(dp509
g11
(imyEvolve
Tree
p510
(dp511
g11
(imyEvolve
Tree
p512
(dp513
g7
I0
sg20
I00
sbsg7
I1
sg25
I01
sg26
g32
sbsg7
I2
sg25
I01
sg26
g32
sbsg7
I3
sg25
I01
sg26
g32
sbsg7
I4
sg25
I01
sg26
g35
sbsg21
(imyEvolve
Tree
p514
(dp515
g11
(imyEvolve
Tree
p516
(dp517
g7
I3
sg8
(imyEvolve
Tree
p518
(dp519
g7
I2
sg8
(imyEvolve
Tree
p520
(dp521
g11
(imyEvolve
Tree
p522
(dp523
g7
I0
sg24
F-4.966609462563229
sg20
I01
sbsg7
I1
sg25
I01
sg26
g34
sbsg21
(imyEvolve
Tree
p524
(dp525
g7
I1
sg8
(imyEvolve
Tree
p526
(dp527
g7
I0
sg20
I00
sbsg21
(imyEvolve
Tree
p528
(dp529
g7
I0
sg20
I00
sbsg25
I00
sg26
g33
sbsg25
I00
sg26
g33
sbsg21
(imyEvolve
Tree
p530
(dp531
g11
(imyEvolve
Tree
p532
(dp533
g7
I1
sg8
(imyEvolve
Tree
p534
(dp535
g7
I0
sg24
F-1.5914685920077796
sg20
I01
sbsg21
(imyEvolve
Tree
p536
(dp537
g7
I0
sg20
I00
sbsg25
I00
sg26
g61
sbsg7
I2
sg25
I01
sg26
g32
sbsg25
I00
sg26
g33
sbsg7
I4
sg25
I01
sg26
g32
sbsg25
I00
sg26
g33
sba(imyEvolve
Tree
p538
(dp539
g7
I2
sg8
(imyEvolve
Tree
p540
(dp541
g11
(imyEvolve
Tree
p542
(dp543
g7
I0
sg20
I00
sbsg7
I1
sg25
I01
sg26
g32
sbsg21
(imyEvolve
Tree
p544
(dp545
g11
(imyEvolve
Tree
p546
(dp547
g7
I0
sg20
I00
sbsg7
I1
sg25
I01
sg26
g46
sbsg25
I00
sg26
g61
sba(imyEvolve
Tree
p548
(dp549
g11
(imyEvolve
Tree
p550
(dp551
g11
(imyEvolve
Tree
p552
(dp553
g7
I2
sg8
(imyEvolve
Tree
p554
(dp555
g11
(imyEvolve
Tree
p556
(dp557
g7
I0
sg24
F2.653984352089731
sg20
I01
sbsg7
I1
sg25
I01
sg26
g32
sbsg21
(imyEvolve
Tree
p558
(dp559
g11
(imyEvolve
Tree
p560
(dp561
g7
I0
sg24
F4.090497218146149
sg20
I01
sbsg7
I1
sg25
I01
sg26
g35
sbsg25
I00
sg26
g27
sbsg7
I3
sg25
I01
sg26
g35
sbsg7
I4
sg25
I01
sg26
g32
sba(imyEvolve
Tree
p562
(dp563
g11
(imyEvolve
Tree
p564
(dp565
g11
(imyEvolve
Tree
p566
(dp567
g7
I0
sg20
I00
sbsg7
I1
sg25
I01
sg26
g35
sbsg7
I2
sg25
I01
sg26
g32
sba(imyEvolve
Tree
p568
(dp569
g7
I5
sg8
(imyEvolve
Tree
p570
(dp571
g11
(imyEvolve
Tree
p572
(dp573
g11
(imyEvolve
Tree
p574
(dp575
g7
I2
sg8
(imyEvolve
Tree
p576
(dp577
g11
(imyEvolve
Tree
p578
(dp579
g7
I0
sg20
I00
sbsg7
I1
sg25
I01
sg26
g32
sbsg21
(imyEvolve
Tree
p580
(dp581
g7
I1
sg8
(imyEvolve
Tree
p582
(dp583
g7
I0
sg20
I00
sbsg21
(imyEvolve
Tree
p584
(dp585
g7
I0
sg20
I00
sbsg25
I00
sg26
g61
sbsg25
I00
sg26
g27
sbsg7
I3
sg25
I01
sg26
g46
sbsg7
I4
sg25
I01
sg26
g34
sbsg21
(imyEvolve
Tree
p586
(dp587
g11
(imyEvolve
Tree
p588
(dp589
g7
I3
sg8
(imyEvolve
Tree
p590
(dp591
g7
I2
sg8
(imyEvolve
Tree
p592
(dp593
g11
(imyEvolve
Tree
p594
(dp595
g7
I0
sg20
I00
sbsg7
I1
sg25
I01
sg26
g32
sbsg21
(imyEvolve
Tree
p596
(dp597
g7
I1
sg8
(imyEvolve
Tree
p598
(dp599
g7
I0
sg20
I00
sbsg21
(imyEvolve
Tree
p600
(dp601
g7
I0
sg24
F-4.613649833492155
sg20
I01
sbsg25
I00
sg26
g61
sbsg25
I00
sg26
g61
sbsg21
(imyEvolve
Tree
p602
(dp603
g11
(imyEvolve
Tree
p604
(dp605
g11
(imyEvolve
Tree
p606
(dp607
g7
I0
sg20
I00
sbsg7
I1
sg25
I01
sg26
g35
sbsg7
I2
sg25
I01
sg26
g34
sbsg25
I00
sg26
g27
sbsg7
I4
sg25
I01
sg26
g46
sbsg25
I00
sg26
g61
sba(imyEvolve
Tree
p608
(dp609
g11
(imyEvolve
Tree
p610
(dp611
g7
I1
sg8
(imyEvolve
Tree
p612
(dp613
g7
I0
sg20
I00
sbsg21
(imyEvolve
Tree
p614
(dp615
g7
I0
sg24
F-1.9527191312815884
sg20
I01
sbsg25
I00
sg26
g61
sbsg7
I2
sg25
I01
sg26
g35
sba(imyEvolve
Tree
p616
(dp617
g11
(imyEvolve
Tree
p618
(dp619
g7
I1
sg8
(imyEvolve
Tree
p620
(dp621
g7
I0
sg24
F-1.699706468320037
sg20
I01
sbsg21
(imyEvolve
Tree
p622
(dp623
g7
I0
sg24
F0.43268782411567397
sg20
I01
sbsg25
I00
sg26
g27
sbsg7
I2
sg25
I01
sg26
g46
sba(imyEvolve
Tree
p624
(dp625
g11
(imyEvolve
Tree
p626
(dp627
g11
(imyEvolve
Tree
p628
(dp629
g11
(imyEvolve
Tree
p630
(dp631
g11
(imyEvolve
Tree
p632
(dp633
g7
I1
sg8
(imyEvolve
Tree
p634
(dp635
g7
I0
sg20
I00
sbsg21
(imyEvolve
Tree
p636
(dp637
g7
I0
sg20
I00
sbsg25
I00
sg26
g61
sbsg7
I2
sg25
I01
sg26
g34
sbsg7
I3
sg25
I01
sg26
g35
sbsg7
I4
sg25
I01
sg26
g34
sbsg7
I5
sg25
I01
sg26
g34
sba(imyEvolve
Tree
p638
(dp639
g7
I4
sg8
(imyEvolve
Tree
p640
(dp641
g7
I3
sg8
(imyEvolve
Tree
p642
(dp643
g7
I2
sg8
(imyEvolve
Tree
p644
(dp645
g11
(imyEvolve
Tree
p646
(dp647
g7
I0
sg20
I00
sbsg7
I1
sg25
I01
sg26
g46
sbsg21
(imyEvolve
Tree
p648
(dp649
g11
(imyEvolve
Tree
p650
(dp651
g7
I0
sg20
I00
sbsg7
I1
sg25
I01
sg26
g32
sbsg25
I00
sg26
g61
sbsg21
(imyEvolve
Tree
p652
(dp653
g11
(imyEvolve
Tree
p654
(dp655
g7
I1
sg8
(imyEvolve
Tree
p656
(dp657
g7
I0
sg24
F4.356411863396916
sg20
I01
sbsg21
(imyEvolve
Tree
p658
(dp659
g7
I0
sg24
F4.7078802862894555
sg20
I01
sbsg25
I00
sg26
g33
sbsg7
I2
sg25
I01
sg26
g46
sbsg25
I00
sg26
g61
sbsg21
(imyEvolve
Tree
p660
(dp661
g11
(imyEvolve
Tree
p662
(dp663
g7
I2
sg8
(imyEvolve
Tree
p664
(dp665
g11
(imyEvolve
Tree
p666
(dp667
g7
I0
sg24
F4.344357523059369
sg20
I01
sbsg7
I1
sg25
I01
sg26
g32
sbsg21
(imyEvolve
Tree
p668
(dp669
g7
I1
sg8
(imyEvolve
Tree
p670
(dp671
g7
I0
sg24
F-2.1041756320566876
sg20
I01
sbsg21
(imyEvolve
Tree
p672
(dp673
g7
I0
sg24
F-4.038359677084013
sg20
I01
sbsg25
I00
sg26
g61
sbsg25
I00
sg26
g61
sbsg7
I3
sg25
I01
sg26
g46
sbsg25
I00
sg26
g33
sba(imyEvolve
Tree
p674
(dp675
g11
(imyEvolve
Tree
p676
(dp677
g11
(imyEvolve
Tree
p678
(dp679
g7
I1
sg8
(imyEvolve
Tree
p680
(dp681
g7
I0
sg24
F1.8681647433164486
sg20
I01
sbsg21
(imyEvolve
Tree
p682
(dp683
g7
I0
sg24
F0.12256129634390245
sg20
I01
sbsg25
I00
sg26
g27
sbsg7
I2
sg25
I01
sg26
g35
sbsg7
I3
sg25
I01
sg26
g35
sba(imyEvolve
Tree
p684
(dp685
g7
I2
sg8
(imyEvolve
Tree
p686
(dp687
g11
(imyEvolve
Tree
p688
(dp689
g7
I0
sg20
I00
sbsg7
I1
sg25
I01
sg26
g46
sbsg21
(imyEvolve
Tree
p690
(dp691
g7
I1
sg8
(imyEvolve
Tree
p692
(dp693
g7
I0
sg24
F-4.594467831946835
sg20
I01
sbsg21
(imyEvolve
Tree
p694
(dp695
g7
I0
sg20
I00
sbsg25
I00
sg26
g33
sbsg25
I00
sg26
g33
sba(imyEvolve
Tree
p696
(dp697
g7
I5
sg8
(imyEvolve
Tree
p698
(dp699
g7
I4
sg8
(imyEvolve
Tree
p700
(dp701
g11
(imyEvolve
Tree
p702
(dp703
g11
(imyEvolve
Tree
p704
(dp705
g11
(imyEvolve
Tree
p706
(dp707
g7
I0
sg24
F-1.8186363486656534
sg20
I01
sbsg7
I1
sg25
I01
sg26
g46
sbsg7
I2
sg25
I01
sg26
g32
sbsg7
I3
sg25
I01
sg26
g34
sbsg21
(imyEvolve
Tree
p708
(dp709
g7
I3
sg8
(imyEvolve
Tree
p710
(dp711
g11
(imyEvolve
Tree
p712
(dp713
g7
I1
sg8
(imyEvolve
Tree
p714
(dp715
g7
I0
sg24
F0.4772747498371688
sg20
I01
sbsg21
(imyEvolve
Tree
p716
(dp717
g7
I0
sg20
I00
sbsg25
I00
sg26
g61
sbsg7
I2
sg25
I01
sg26
g32
sbsg21
(imyEvolve
Tree
p718
(dp719
g11
(imyEvolve
Tree
p720
(dp721
g11
(imyEvolve
Tree
p722
(dp723
g7
I0
sg20
I00
sbsg7
I1
sg25
I01
sg26
g34
sbsg7
I2
sg25
I01
sg26
g32
sbsg25
I00
sg26
g61
sbsg25
I00
sg26
g61
sbsg21
(imyEvolve
Tree
p724
(dp725
g7
I4
sg8
(imyEvolve
Tree
p726
(dp727
g11
(imyEvolve
Tree
p728
(dp729
g7
I2
sg8
(imyEvolve
Tree
p730
(dp731
g7
I1
sg8
(imyEvolve
Tree
p732
(dp733
g7
I0
sg24
F2.6686053829021086
sg20
I01
sbsg21
(imyEvolve
Tree
p734
(dp735
g7
I0
sg24
F-2.663587686967175
sg20
I01
sbsg25
I00
sg26
g61
sbsg21
(imyEvolve
Tree
p736
(dp737
g7
I1
sg8
(imyEvolve
Tree
p738
(dp739
g7
I0
sg20
I00
sbsg21
(imyEvolve
Tree
p740
(dp741
g7
I0
sg20
I00
sbsg25
I00
sg26
g61
sbsg25
I00
sg26
g61
sbsg7
I3
sg25
I01
sg26
g46
sbsg21
(imyEvolve
Tree
p742
(dp743
g7
I3
sg8
(imyEvolve
Tree
p744
(dp745
g7
I2
sg8
(imyEvolve
Tree
p746
(dp747
g7
I1
sg8
(imyEvolve
Tree
p748
(dp749
g7
I0
sg24
F-4.001738330256362
sg20
I01
sbsg21
(imyEvolve
Tree
p750
(dp751
g7
I0
sg20
I00
sbsg25
I00
sg26
g33
sbsg21
(imyEvolve
Tree
p752
(dp753
g11
(imyEvolve
Tree
p754
(dp755
g7
I0
sg24
F-1.802079165329503
sg20
I01
sbsg7
I1
sg25
I01
sg26
g32
sbsg25
I00
sg26
g27
sbsg21
(imyEvolve
Tree
p756
(dp757
g7
I2
sg8
(imyEvolve
Tree
p758
(dp759
g11
(imyEvolve
Tree
p760
(dp761
g7
I0
sg24
F-0.36141874461371337
sg20
I01
sbsg7
I1
sg25
I01
sg26
g35
sbsg21
(imyEvolve
Tree
p762
(dp763
g7
I1
sg8
(imyEvolve
Tree
p764
(dp765
g7
I0
sg20
I00
sbsg21
(imyEvolve
Tree
p766
(dp767
g7
I0
sg24
F0.0032236714344833217
sg20
I01
sbsg25
I00
sg26
g61
sbsg25
I00
sg26
g33
sbsg25
I00
sg26
g61
sbsg25
I00
sg26
g33
sbsg25
I00
sg26
g61
sbaa(lp768
(imyEvolve
Tree
p769
(dp770
g7
I2
sg8
(imyEvolve
Tree
p771
(dp772
g7
I1
sg8
(imyEvolve
Tree
p773
(dp774
g7
I0
sg24
F0.8412024652061074
sg20
I01
sbsg21
(imyEvolve
Tree
p775
(dp776
g7
I0
sg24
F-4.586029577952671
sg20
I01
sbsg25
I00
sg26
g27
sbsg21
(imyEvolve
Tree
p777
(dp778
g11
(imyEvolve
Tree
p779
(dp780
g7
I0
sg20
I00
sbsg7
I1
sg25
I01
sg26
g32
sbsg25
I00
sg26
g27
sba(imyEvolve
Tree
p781
(dp782
g11
(imyEvolve
Tree
p783
(dp784
g11
(imyEvolve
Tree
p785
(dp786
g11
(imyEvolve
Tree
p787
(dp788
g7
I1
sg8
(imyEvolve
Tree
p789
(dp790
g7
I0
sg20
I00
sbsg21
(imyEvolve
Tree
p791
(dp792
g7
I0
sg20
I00
sbsg25
I00
sg26
g33
sbsg7
I2
sg25
I01
sg26
g35
sbsg7
I3
sg25
I01
sg26
g46
sbsg7
I4
sg25
I01
sg26
g32
sba(imyEvolve
Tree
p793
(dp794
g11
(imyEvolve
Tree
p795
(dp796
g11
(imyEvolve
Tree
p797
(dp798
g7
I1
sg8
(imyEvolve
Tree
p799
(dp800
g7
I0
sg24
F1.0941024586691892
sg20
I01
sbsg21
(imyEvolve
Tree
p801
(dp802
g7
I0
sg20
I00
sbsg25
I00
sg26
g61
sbsg7
I2
sg25
I01
sg26
g34
sbsg7
I3
sg25
I01
sg26
g34
sba(imyEvolve
Tree
p803
(dp804
g11
(imyEvolve
Tree
p805
(dp806
g7
I1
sg8
(imyEvolve
Tree
p807
(dp808
g7
I0
sg20
I00
sbsg21
(imyEvolve
Tree
p809
(dp810
g7
I0
sg24
F-1.6236372047125447
sg20
I01
sbsg25
I00
sg26
g61
sbsg7
I2
sg25
I01
sg26
g34
sba(imyEvolve
Tree
p811
(dp812
g7
I5
sg8
(imyEvolve
Tree
p813
(dp814
g7
I4
sg8
(imyEvolve
Tree
p815
(dp816
g11
(imyEvolve
Tree
p817
(dp818
g7
I2
sg8
(imyEvolve
Tree
p819
(dp820
g7
I1
sg8
(imyEvolve
Tree
p821
(dp822
g7
I0
sg20
I00
sbsg21
(imyEvolve
Tree
p823
(dp824
g7
I0
sg24
F4.704898367644695
sg20
I01
sbsg25
I00
sg26
g61
sbsg21
(imyEvolve
Tree
p825
(dp826
g11
(imyEvolve
Tree
p827
(dp828
g7
I0
sg20
I00
sbsg7
I1
sg25
I01
sg26
g35
sbsg25
I00
sg26
g27
sbsg7
I3
sg25
I01
sg26
g32
sbsg21
(imyEvolve
Tree
p829
(dp830
g11
(imyEvolve
Tree
p831
(dp832
g11
(imyEvolve
Tree
p833
(dp834
g11
(imyEvolve
Tree
p835
(dp836
g7
I0
sg20
I00
sbsg7
I1
sg25
I01
sg26
g32
sbsg7
I2
sg25
I01
sg26
g32
sbsg7
I3
sg25
I01
sg26
g46
sbsg25
I00
sg26
g27
sbsg21
(imyEvolve
Tree
p837
(dp838
g7
I4
sg8
(imyEvolve
Tree
p839
(dp840
g11
(imyEvolve
Tree
p841
(dp842
g11
(imyEvolve
Tree
p843
(dp844
g11
(imyEvolve
Tree
p845
(dp846
g7
I0
sg20
I00
sbsg7
I1
sg25
I01
sg26
g46
sbsg7
I2
sg25
I01
sg26
g35
sbsg7
I3
sg25
I01
sg26
g34
sbsg21
(imyEvolve
Tree
p847
(dp848
g11
(imyEvolve
Tree
p849
(dp850
g7
I2
sg8
(imyEvolve
Tree
p851
(dp852
g11
(imyEvolve
Tree
p853
(dp854
g7
I0
sg24
F3.161774875251151
sg20
I01
sbsg7
I1
sg25
I01
sg26
g46
sbsg21
(imyEvolve
Tree
p855
(dp856
g7
I1
sg8
(imyEvolve
Tree
p857
(dp858
g7
I0
sg20
I00
sbsg21
(imyEvolve
Tree
p859
(dp860
g7
I0
sg24
F3.556501018369403
sg20
I01
sbsg25
I00
sg26
g27
sbsg25
I00
sg26
g27
sbsg7
I3
sg25
I01
sg26
g34
sbsg25
I00
sg26
g33
sbsg25
I00
sg26
g61
sba(imyEvolve
Tree
p861
(dp862
g11
(imyEvolve
Tree
p863
(dp864
g11
(imyEvolve
Tree
p865
(dp866
g11
(imyEvolve
Tree
p867
(dp868
g7
I1
sg8
(imyEvolve
Tree
p869
(dp870
g7
I0
sg20
I00
sbsg21
(imyEvolve
Tree
p871
(dp872
g7
I0
sg24
F-2.908878254235414
sg20
I01
sbsg25
I00
sg26
g61
sbsg7
I2
sg25
I01
sg26
g46
sbsg7
I3
sg25
I01
sg26
g34
sbsg7
I4
sg25
I01
sg26
g32
sba(imyEvolve
Tree
p873
(dp874
g11
(imyEvolve
Tree
p875
(dp876
g7
I1
sg8
(imyEvolve
Tree
p877
(dp878
g7
I0
sg20
I00
sbsg21
(imyEvolve
Tree
p879
(dp880
g7
I0
sg20
I00
sbsg25
I00
sg26
g27
sbsg7
I2
sg25
I01
sg26
g35
sba(imyEvolve
Tree
p881
(dp882
g7
I4
sg8
(imyEvolve
Tree
p883
(dp884
g11
(imyEvolve
Tree
p885
(dp886
g7
I2
sg8
(imyEvolve
Tree
p887
(dp888
g11
(imyEvolve
Tree
p889
(dp890
g7
I0
sg24
F1.3687004068410378
sg20
I01
sbsg7
I1
sg25
I01
sg26
g32
sbsg21
(imyEvolve
Tree
p891
(dp892
g7
I1
sg8
(imyEvolve
Tree
p893
(dp894
g7
I0
sg20
I00
sbsg21
(imyEvolve
Tree
p895
(dp896
g7
I0
sg20
I00
sbsg25
I00
sg26
g33
sbsg25
I00
sg26
g27
sbsg7
I3
sg25
I01
sg26
g34
sbsg21
(imyEvolve
Tree
p897
(dp898
g11
(imyEvolve
Tree
p899
(dp900
g11
(imyEvolve
Tree
p901
(dp902
g7
I1
sg8
(imyEvolve
Tree
p903
(dp904
g7
I0
sg24
F1.7160740130061205
sg20
I01
sbsg21
(imyEvolve
Tree
p905
(dp906
g7
I0
sg20
I00
sbsg25
I00
sg26
g33
sbsg7
I2
sg25
I01
sg26
g32
sbsg7
I3
sg25
I01
sg26
g46
sbsg25
I00
sg26
g27
sba(imyEvolve
Tree
p907
(dp908
g11
(imyEvolve
Tree
p909
(dp910
g7
I3
sg8
(imyEvolve
Tree
p911
(dp912
g7
I2
sg8
(imyEvolve
Tree
p913
(dp914
g11
(imyEvolve
Tree
p915
(dp916
g7
I0
sg24
F-2.0469562970153077
sg20
I01
sbsg7
I1
sg25
I01
sg26
g35
sbsg21
(imyEvolve
Tree
p917
(dp918
g11
(imyEvolve
Tree
p919
(dp920
g7
I0
sg24
F1.2483979704265291
sg20
I01
sbsg7
I1
sg25
I01
sg26
g35
sbsg25
I00
sg26
g33
sbsg21
(imyEvolve
Tree
p921
(dp922
g11
(imyEvolve
Tree
p923
(dp924
g7
I1
sg8
(imyEvolve
Tree
p925
(dp926
g7
I0
sg20
I00
sbsg21
(imyEvolve
Tree
p927
(dp928
g7
I0
sg24
F-0.4288419823881542
sg20
I01
sbsg25
I00
sg26
g27
sbsg7
I2
sg25
I01
sg26
g34
sbsg25
I00
sg26
g61
sbsg7
I4
sg25
I01
sg26
g46
sba(imyEvolve
Tree
p929
(dp930
g7
I5
sg8
(imyEvolve
Tree
p931
(dp932
g11
(imyEvolve
Tree
p933
(dp934
g7
I3
sg8
(imyEvolve
Tree
p935
(dp936
g11
(imyEvolve
Tree
p937
(dp938
g11
(imyEvolve
Tree
p939
(dp940
g7
I0
sg20
I00
sbsg7
I1
sg25
I01
sg26
g32
sbsg7
I2
sg25
I01
sg26
g46
sbsg21
(imyEvolve
Tree
p941
(dp942
g7
I2
sg8
(imyEvolve
Tree
p943
(dp944
g11
(imyEvolve
Tree
p945
(dp946
g7
I0
sg20
I00
sbsg7
I1
sg25
I01
sg26
g32
sbsg21
(imyEvolve
Tree
p947
(dp948
g7
I1
sg8
(imyEvolve
Tree
p949
(dp950
g7
I0
sg20
I00
sbsg21
(imyEvolve
Tree
p951
(dp952
g7
I0
sg24
F-2.997982352207732
sg20
I01
sbsg25
I00
sg26
g27
sbsg25
I00
sg26
g33
sbsg25
I00
sg26
g61
sbsg7
I4
sg25
I01
sg26
g34
sbsg21
(imyEvolve
Tree
p953
(dp954
g7
I4
sg8
(imyEvolve
Tree
p955
(dp956
g11
(imyEvolve
Tree
p957
(dp958
g7
I2
sg8
(imyEvolve
Tree
p959
(dp960
g11
(imyEvolve
Tree
p961
(dp962
g7
I0
sg20
I00
sbsg7
I1
sg25
I01
sg26
g35
sbsg21
(imyEvolve
Tree
p963
(dp964
g11
(imyEvolve
Tree
p965
(dp966
g7
I0
sg20
I00
sbsg7
I1
sg25
I01
sg26
g32
sbsg25
I00
sg26
g33
sbsg7
I3
sg25
I01
sg26
g35
sbsg21
(imyEvolve
Tree
p967
(dp968
g7
I3
sg8
(imyEvolve
Tree
p969
(dp970
g7
I2
sg8
(imyEvolve
Tree
p971
(dp972
g11
(imyEvolve
Tree
p973
(dp974
g7
I0
sg24
F-0.3505962354864156
sg20
I01
sbsg7
I1
sg25
I01
sg26
g46
sbsg21
(imyEvolve
Tree
p975
(dp976
g7
I1
sg8
(imyEvolve
Tree
p977
(dp978
g7
I0
sg24
F-0.02449919918667476
sg20
I01
sbsg21
(imyEvolve
Tree
p979
(dp980
g7
I0
sg24
F4.17492909906875
sg20
I01
sbsg25
I00
sg26
g27
sbsg25
I00
sg26
g33
sbsg21
(imyEvolve
Tree
p981
(dp982
g7
I2
sg8
(imyEvolve
Tree
p983
(dp984
g11
(imyEvolve
Tree
p985
(dp986
g7
I0
sg20
I00
sbsg7
I1
sg25
I01
sg26
g35
sbsg21
(imyEvolve
Tree
p987
(dp988
g7
I1
sg8
(imyEvolve
Tree
p989
(dp990
g7
I0
sg20
I00
sbsg21
(imyEvolve
Tree
p991
(dp992
g7
I0
sg24
F-4.704687668631655
sg20
I01
sbsg25
I00
sg26
g33
sbsg25
I00
sg26
g61
sbsg25
I00
sg26
g61
sbsg25
I00
sg26
g61
sbsg25
I00
sg26
g33
sba(imyEvolve
Tree
p993
(dp994
g11
(imyEvolve
Tree
p995
(dp996
g11
(imyEvolve
Tree
p997
(dp998
g7
I1
sg8
(imyEvolve
Tree
p999
(dp1000
g7
I0
sg20
I00
sbsg21
(imyEvolve
Tree
p1001
(dp1002
g7
I0
sg20
I00
sbsg25
I00
sg26
g27
sbsg7
I2
sg25
I01
sg26
g34
sbsg7
I3
sg25
I01
sg26
g35
sbaa(lp1003
(imyEvolve
Tree
p1004
(dp1005
g7
I4
sg8
(imyEvolve
Tree
p1006
(dp1007
g11
(imyEvolve
Tree
p1008
(dp1009
g11
(imyEvolve
Tree
p1010
(dp1011
g7
I1
sg8
(imyEvolve
Tree
p1012
(dp1013
g7
I0
sg20
I00
sbsg21
(imyEvolve
Tree
p1014
(dp1015
g7
I0
sg24
F4.068608240923826
sg20
I01
sbsg25
I00
sg26
g27
sbsg7
I2
sg25
I01
sg26
g46
sbsg7
I3
sg25
I01
sg26
g35
sbsg21
(imyEvolve
Tree
p1016
(dp1017
g11
(imyEvolve
Tree
p1018
(dp1019
g11
(imyEvolve
Tree
p1020
(dp1021
g7
I1
sg8
(imyEvolve
Tree
p1022
(dp1023
g7
I0
sg24
F-4.718878927520585
sg20
I01
sbsg21
(imyEvolve
Tree
p1024
(dp1025
g7
I0
sg24
F0.13511645074121503
sg20
I01
sbsg25
I00
sg26
g61
sbsg7
I2
sg25
I01
sg26
g35
sbsg7
I3
sg25
I01
sg26
g34
sbsg25
I00
sg26
g33
sba(imyEvolve
Tree
p1026
(dp1027
g7
I4
sg8
(imyEvolve
Tree
p1028
(dp1029
g11
(imyEvolve
Tree
p1030
(dp1031
g11
(imyEvolve
Tree
p1032
(dp1033
g7
I1
sg8
(imyEvolve
Tree
p1034
(dp1035
g7
I0
sg24
F2.485351093892721
sg20
I01
sbsg21
(imyEvolve
Tree
p1036
(dp1037
g7
I0
sg24
F4.250506056015899
sg20
I01
sbsg25
I00
sg26
g61
sbsg7
I2
sg25
I01
sg26
g35
sbsg7
I3
sg25
I01
sg26
g35
sbsg21
(imyEvolve
Tree
p1038
(dp1039
g7
I3
sg8
(imyEvolve
Tree
p1040
(dp1041
g11
(imyEvolve
Tree
p1042
(dp1043
g7
I1
sg8
(imyEvolve
Tree
p1044
(dp1045
g7
I0
sg24
F2.5505807887312573
sg20
I01
sbsg21
(imyEvolve
Tree
p1046
(dp1047
g7
I0
sg24
F0.2382991575348905
sg20
I01
sbsg25
I00
sg26
g61
sbsg7
I2
sg25
I01
sg26
g32
sbsg21
(imyEvolve
Tree
p1048
(dp1049
g7
I2
sg8
(imyEvolve
Tree
p1050
(dp1051
g11
(imyEvolve
Tree
p1052
(dp1053
g7
I0
sg24
F1.6177496502976112
sg20
I01
sbsg7
I1
sg25
I01
sg26
g34
sbsg21
(imyEvolve
Tree
p1054
(dp1055
g11
(imyEvolve
Tree
p1056
(dp1057
g7
I0
sg20
I00
sbsg7
I1
sg25
I01
sg26
g34
sbsg25
I00
sg26
g33
sbsg25
I00
sg26
g33
sbsg25
I00
sg26
g33
sba(imyEvolve
Tree
p1058
(dp1059
g7
I4
sg8
(imyEvolve
Tree
p1060
(dp1061
g7
I3
sg8
(imyEvolve
Tree
p1062
(dp1063
g11
(imyEvolve
Tree
p1064
(dp1065
g7
I1
sg8
(imyEvolve
Tree
p1066
(dp1067
g7
I0
sg24
F-0.8797105801143879
sg20
I01
sbsg21
(imyEvolve
Tree
p1068
(dp1069
g7
I0
sg20
I00
sbsg25
I00
sg26
g61
sbsg7
I2
sg25
I01
sg26
g34
sbsg21
(imyEvolve
Tree
p1070
(dp1071
g11
(imyEvolve
Tree
p1072
(dp1073
g7
I1
sg8
(imyEvolve
Tree
p1074
(dp1075
g7
I0
sg24
F-4.080579479751684
sg20
I01
sbsg21
(imyEvolve
Tree
p1076
(dp1077
g7
I0
sg20
I00
sbsg25
I00
sg26
g61
sbsg7
I2
sg25
I01
sg26
g34
sbsg25
I00
sg26
g27
sbsg21
(imyEvolve
Tree
p1078
(dp1079
g7
I3
sg8
(imyEvolve
Tree
p1080
(dp1081
g7
I2
sg8
(imyEvolve
Tree
p1082
(dp1083
g7
I1
sg8
(imyEvolve
Tree
p1084
(dp1085
g7
I0
sg24
F-0.17441535680856646
sg20
I01
sbsg21
(imyEvolve
Tree
p1086
(dp1087
g7
I0
sg20
I00
sbsg25
I00
sg26
g27
sbsg21
(imyEvolve
Tree
p1088
(dp1089
g11
(imyEvolve
Tree
p1090
(dp1091
g7
I0
sg24
F-1.7768655668006361
sg20
I01
sbsg7
I1
sg25
I01
sg26
g46
sbsg25
I00
sg26
g33
sbsg21
(imyEvolve
Tree
p1092
(dp1093
g11
(imyEvolve
Tree
p1094
(dp1095
g7
I1
sg8
(imyEvolve
Tree
p1096
(dp1097
g7
I0
sg20
I00
sbsg21
(imyEvolve
Tree
p1098
(dp1099
g7
I0
sg20
I00
sbsg25
I00
sg26
g61
sbsg7
I2
sg25
I01
sg26
g35
sbsg25
I00
sg26
g33
sbsg25
I00
sg26
g33
sba(imyEvolve
Tree
p1100
(dp1101
g11
(imyEvolve
Tree
p1102
(dp1103
g11
(imyEvolve
Tree
p1104
(dp1105
g7
I0
sg24
F4.1904662241372055
sg20
I01
sbsg7
I1
sg25
I01
sg26
g34
sbsg7
I2
sg25
I01
sg26
g34
sba(imyEvolve
Tree
p1106
(dp1107
g7
I2
sg8
(imyEvolve
Tree
p1108
(dp1109
g11
(imyEvolve
Tree
p1110
(dp1111
g7
I0
sg24
F-1.8630755779080612
sg20
I01
sbsg7
I1
sg25
I01
sg26
g32
sbsg21
(imyEvolve
Tree
p1112
(dp1113
g7
I1
sg8
(imyEvolve
Tree
p1114
(dp1115
g7
I0
sg20
I00
sbsg21
(imyEvolve
Tree
p1116
(dp1117
g7
I0
sg24
F0.9588391122627797
sg20
I01
sbsg25
I00
sg26
g27
sbsg25
I00
sg26
g27
sba(imyEvolve
Tree
p1118
(dp1119
g11
(imyEvolve
Tree
p1120
(dp1121
g7
I3
sg8
(imyEvolve
Tree
p1122
(dp1123
g7
I2
sg8
(imyEvolve
Tree
p1124
(dp1125
g7
I1
sg8
(imyEvolve
Tree
p1126
(dp1127
g7
I0
sg20
I00
sbsg21
(imyEvolve
Tree
p1128
(dp1129
g7
I0
sg24
F-4.478215905651693
sg20
I01
sbsg25
I00
sg26
g61
sbsg21
(imyEvolve
Tree
p1130
(dp1131
g7
I1
sg8
(imyEvolve
Tree
p1132
(dp1133
g7
I0
sg24
F4.2026617337866075
sg20
I01
sbsg21
(imyEvolve
Tree
p1134
(dp1135
g7
I0
sg24
F-4.397175688825719
sg20
I01
sbsg25
I00
sg26
g27
sbsg25
I00
sg26
g33
sbsg21
(imyEvolve
Tree
p1136
(dp1137
g7
I2
sg8
(imyEvolve
Tree
p1138
(dp1139
g7
I1
sg8
(imyEvolve
Tree
p1140
(dp1141
g7
I0
sg20
I00
sbsg21
(imyEvolve
Tree
p1142
(dp1143
g7
I0
sg20
I00
sbsg25
I00
sg26
g33
sbsg21
(imyEvolve
Tree
p1144
(dp1145
g7
I1
sg8
(imyEvolve
Tree
p1146
(dp1147
g7
I0
sg20
I00
sbsg21
(imyEvolve
Tree
p1148
(dp1149
g7
I0
sg24
F2.771567129861076
sg20
I01
sbsg25
I00
sg26
g27
sbsg25
I00
sg26
g27
sbsg25
I00
sg26
g33
sbsg7
I4
sg25
I01
sg26
g32
sba(imyEvolve
Tree
p1150
(dp1151
g11
(imyEvolve
Tree
p1152
(dp1153
g7
I1
sg8
(imyEvolve
Tree
p1154
(dp1155
g7
I0
sg20
I00
sbsg21
(imyEvolve
Tree
p1156
(dp1157
g7
I0
sg24
F0.15648058351173866
sg20
I01
sbsg25
I00
sg26
g61
sbsg7
I2
sg25
I01
sg26
g35
sba(imyEvolve
Tree
p1158
(dp1159
g11
(imyEvolve
Tree
p1160
(dp1161
g7
I1
sg8
(imyEvolve
Tree
p1162
(dp1163
g7
I0
sg20
I00
sbsg21
(imyEvolve
Tree
p1164
(dp1165
g7
I0
sg24
F4.795221887725646
sg20
I01
sbsg25
I00
sg26
g33
sbsg7
I2
sg25
I01
sg26
g32
sbaasS'weightSharing'
p1166
(lp1167
I00
asS'fitnessValid'
p1168
I00
sS'fitness'
p1169
cnumpy.core.multiarray
scalar
p1170
(cnumpy
dtype
p1171
(S'f8'
p1172
I0
I1
tp1173
Rp1174
(I3
S'<'
p1175
NNNI-1
I-1
I0
tp1176
bS'\xf9\xa0g\xa9\xc0%\xe6?'
p1177
tp1178
Rp1179
sS'alpha'
p1180
F0.004081821969704573
sS'resolution'
p1181
I51
sb.