(imyEvolve
Individual
p0
(dp1
S'funcs'
p2
(lp3
(lp4
(imyEvolve
Tree
p5
(dp6
S'depth'
p7
I3
sS'left'
p8
(imyEvolve
Tree
p9
(dp10
g7
I2
sg8
(imyEvolve
Tree
p11
(dp12
g7
I1
sg8
(imyEvolve
Tree
p13
(dp14
g7
I0
sS'isConstant'
p15
I00
sbsS'right'
p16
(imyEvolve
Tree
p17
(dp18
g7
I0
sg15
I00
sbsS'single'
p19
I00
sS'op'
p20
coperator
sub
p21
sbsg16
(imyEvolve
Tree
p22
(dp23
S'below'
p24
(imyEvolve
Tree
p25
(dp26
g7
I0
sg15
I00
sbsg7
I1
sg19
I01
sg20
cmath
cos
p27
sbsg19
I00
sg20
coperator
mul
p28
sbsg16
(imyEvolve
Tree
p29
(dp30
g7
I2
sg8
(imyEvolve
Tree
p31
(dp32
g24
(imyEvolve
Tree
p33
(dp34
g7
I0
sg15
I00
sbsg7
I1
sg19
I01
sg20
g27
sbsg16
(imyEvolve
Tree
p35
(dp36
g24
(imyEvolve
Tree
p37
(dp38
g7
I0
sg15
I00
sbsg7
I1
sg19
I01
sg20
cmyEvolve
square
p39
sbsg19
I00
sg20
g28
sbsg19
I00
sg20
coperator
add
p40
sba(imyEvolve
Tree
p41
(dp42
g7
I3
sg8
(imyEvolve
Tree
p43
(dp44
g7
I2
sg8
(imyEvolve
Tree
p45
(dp46
g24
(imyEvolve
Tree
p47
(dp48
g7
I0
sS'constant'
p49
F1.04766953107897
sg15
I01
sbsg7
I1
sg19
I01
sg20
cmath
sin
p50
sbsg16
(imyEvolve
Tree
p51
(dp52
g24
(imyEvolve
Tree
p53
(dp54
g7
I0
sg15
I00
sbsg7
I1
sg19
I01
sg20
g27
sbsg19
I00
sg20
g40
sbsg16
(imyEvolve
Tree
p55
(dp56
g7
I2
sg8
(imyEvolve
Tree
p57
(dp58
g7
I1
sg8
(imyEvolve
Tree
p59
(dp60
g7
I0
sg49
F-2.0230435739084296
sg15
I01
sbsg16
(imyEvolve
Tree
p61
(dp62
g7
I0
sg49
F3.4684916635910508
sg15
I01
sbsg19
I00
sg20
g21
sbsg16
(imyEvolve
Tree
p63
(dp64
g24
(imyEvolve
Tree
p65
(dp66
g7
I0
sg49
F4.91349463734627
sg15
I01
sbsg7
I1
sg19
I01
sg20
g39
sbsg19
I00
sg20
g28
sbsg19
I00
sg20
g28
sba(imyEvolve
Tree
p67
(dp68
g24
(imyEvolve
Tree
p69
(dp70
g7
I4
sg8
(imyEvolve
Tree
p71
(dp72
g24
(imyEvolve
Tree
p73
(dp74
g7
I2
sg8
(imyEvolve
Tree
p75
(dp76
g24
(imyEvolve
Tree
p77
(dp78
g7
I0
sg15
I00
sbsg7
I1
sg19
I01
sg20
g50
sbsg16
(imyEvolve
Tree
p79
(dp80
g7
I1
sg8
(imyEvolve
Tree
p81
(dp82
g7
I0
sg15
I00
sbsg16
(imyEvolve
Tree
p83
(dp84
g7
I0
sg49
F3.3940298548016283
sg15
I01
sbsg19
I00
sg20
g40
sbsg19
I00
sg20
g28
sbsg7
I3
sg19
I01
sg20
cmyEvolve
absSqrt
p85
sbsg16
(imyEvolve
Tree
p86
(dp87
g24
(imyEvolve
Tree
p88
(dp89
g7
I2
sg8
(imyEvolve
Tree
p90
(dp91
g24
(imyEvolve
Tree
p92
(dp93
g7
I0
sg15
I00
sbsg7
I1
sg19
I01
sg20
g39
sbsg16
(imyEvolve
Tree
p94
(dp95
g7
I1
sg8
(imyEvolve
Tree
p96
(dp97
g7
I0
sg15
I00
sbsg16
(imyEvolve
Tree
p98
(dp99
g7
I0
sg15
I00
sbsg19
I00
sg20
g28
sbsg19
I00
sg20
g28
sbsg7
I3
sg19
I01
sg20
g85
sbsg19
I00
sg20
g28
sbsg7
I5
sg19
I01
sg20
g27
sba(imyEvolve
Tree
p100
(dp101
g7
I2
sg8
(imyEvolve
Tree
p102
(dp103
g7
I1
sg8
(imyEvolve
Tree
p104
(dp105
g7
I0
sg49
F-3.59328924299841
sg15
I01
sbsg16
(imyEvolve
Tree
p106
(dp107
g7
I0
sg49
F-0.11051672279309166
sg15
I01
sbsg19
I00
sg20
g28
sbsg16
(imyEvolve
Tree
p108
(dp109
g7
I1
sg8
(imyEvolve
Tree
p110
(dp111
g7
I0
sg15
I00
sbsg16
(imyEvolve
Tree
p112
(dp113
g7
I0
sg15
I00
sbsg19
I00
sg20
g28
sbsg19
I00
sg20
g28
sba(imyEvolve
Tree
p114
(dp115
g7
I5
sg8
(imyEvolve
Tree
p116
(dp117
g7
I4
sg8
(imyEvolve
Tree
p118
(dp119
g24
(imyEvolve
Tree
p120
(dp121
g24
(imyEvolve
Tree
p122
(dp123
g24
(imyEvolve
Tree
p124
(dp125
g7
I0
sg15
I00
sbsg7
I1
sg19
I01
sg20
g39
sbsg7
I2
sg19
I01
sg20
g85
sbsg7
I3
sg19
I01
sg20
g85
sbsg16
(imyEvolve
Tree
p126
(dp127
g24
(imyEvolve
Tree
p128
(dp129
g7
I2
sg8
(imyEvolve
Tree
p130
(dp131
g7
I1
sg8
(imyEvolve
Tree
p132
(dp133
g7
I0
sg49
F0.5357170545115588
sg15
I01
sbsg16
(imyEvolve
Tree
p134
(dp135
g7
I0
sg49
F1.9827957372756355
sg15
I01
sbsg19
I00
sg20
g28
sbsg16
(imyEvolve
Tree
p136
(dp137
g24
(imyEvolve
Tree
p138
(dp139
g7
I0
sg49
F3.7420316481536045
sg15
I01
sbsg7
I1
sg19
I01
sg20
g50
sbsg19
I00
sg20
g40
sbsg7
I3
sg19
I01
sg20
g50
sbsg19
I00
sg20
g28
sbsg16
(imyEvolve
Tree
p140
(dp141
g24
(imyEvolve
Tree
p142
(dp143
g7
I3
sg8
(imyEvolve
Tree
p144
(dp145
g24
(imyEvolve
Tree
p146
(dp147
g7
I1
sg8
(imyEvolve
Tree
p148
(dp149
g7
I0
sg49
F3.028096498516165
sg15
I01
sbsg16
(imyEvolve
Tree
p150
(dp151
g7
I0
sg49
F-1.2030060753183491
sg15
I01
sbsg19
I00
sg20
g21
sbsg7
I2
sg19
I01
sg20
g50
sbsg16
(imyEvolve
Tree
p152
(dp153
g24
(imyEvolve
Tree
p154
(dp155
g24
(imyEvolve
Tree
p156
(dp157
g7
I0
sg15
I00
sbsg7
I1
sg19
I01
sg20
g85
sbsg7
I2
sg19
I01
sg20
g27
sbsg19
I00
sg20
g40
sbsg7
I4
sg19
I01
sg20
g50
sbsg19
I00
sg20
g21
sba(imyEvolve
Tree
p158
(dp159
g24
(imyEvolve
Tree
p160
(dp161
g24
(imyEvolve
Tree
p162
(dp163
g7
I3
sg8
(imyEvolve
Tree
p164
(dp165
g7
I2
sg8
(imyEvolve
Tree
p166
(dp167
g7
I1
sg8
(imyEvolve
Tree
p168
(dp169
g7
I0
sg49
F-1.492434065883855
sg15
I01
sbsg16
(imyEvolve
Tree
p170
(dp171
g7
I0
sg15
I00
sbsg19
I00
sg20
g21
sbsg16
(imyEvolve
Tree
p172
(dp173
g24
(imyEvolve
Tree
p174
(dp175
g7
I0
sg49
F-2.5852269221427226
sg15
I01
sbsg7
I1
sg19
I01
sg20
g39
sbsg19
I00
sg20
g40
sbsg16
(imyEvolve
Tree
p176
(dp177
g24
(imyEvolve
Tree
p178
(dp179
g7
I1
sg8
(imyEvolve
Tree
p180
(dp181
g7
I0
sg49
F-2.1383974957161254
sg15
I01
sbsg16
(imyEvolve
Tree
p182
(dp183
g7
I0
sg49
F-3.6601399482473695
sg15
I01
sbsg19
I00
sg20
g21
sbsg7
I2
sg19
I01
sg20
g27
sbsg19
I00
sg20
g21
sbsg7
I4
sg19
I01
sg20
g50
sbsg7
I5
sg19
I01
sg20
g27
sba(imyEvolve
Tree
p184
(dp185
g7
I5
sg8
(imyEvolve
Tree
p186
(dp187
g24
(imyEvolve
Tree
p188
(dp189
g7
I3
sg8
(imyEvolve
Tree
p190
(dp191
g24
(imyEvolve
Tree
p192
(dp193
g7
I1
sg8
(imyEvolve
Tree
p194
(dp195
g7
I0
sg49
F1.0550006512945327
sg15
I01
sbsg16
(imyEvolve
Tree
p196
(dp197
g7
I0
sg15
I00
sbsg19
I00
sg20
g28
sbsg7
I2
sg19
I01
sg20
g27
sbsg16
(imyEvolve
Tree
p198
(dp199
g24
(imyEvolve
Tree
p200
(dp201
g24
(imyEvolve
Tree
p202
(dp203
g7
I0
sg49
F-2.7791597016721594
sg15
I01
sbsg7
I1
sg19
I01
sg20
g27
sbsg7
I2
sg19
I01
sg20
g27
sbsg19
I00
sg20
g28
sbsg7
I4
sg19
I01
sg20
g27
sbsg16
(imyEvolve
Tree
p204
(dp205
g7
I4
sg8
(imyEvolve
Tree
p206
(dp207
g24
(imyEvolve
Tree
p208
(dp209
g7
I2
sg8
(imyEvolve
Tree
p210
(dp211
g24
(imyEvolve
Tree
p212
(dp213
g7
I0
sg15
I00
sbsg7
I1
sg19
I01
sg20
g50
sbsg16
(imyEvolve
Tree
p214
(dp215
g7
I1
sg8
(imyEvolve
Tree
p216
(dp217
g7
I0
sg15
I00
sbsg16
(imyEvolve
Tree
p218
(dp219
g7
I0
sg15
I00
sbsg19
I00
sg20
g40
sbsg19
I00
sg20
g40
sbsg7
I3
sg19
I01
sg20
g27
sbsg16
(imyEvolve
Tree
p220
(dp221
g24
(imyEvolve
Tree
p222
(dp223
g7
I2
sg8
(imyEvolve
Tree
p224
(dp225
g24
(imyEvolve
Tree
p226
(dp227
g7
I0
sg15
I00
sbsg7
I1
sg19
I01
sg20
g50
sbsg16
(imyEvolve
Tree
p228
(dp229
g7
I1
sg8
(imyEvolve
Tree
p230
(dp231
g7
I0
sg15
I00
sbsg16
(imyEvolve
Tree
p232
(dp233
g7
I0
sg49
F1.912112972200025
sg15
I01
sbsg19
I00
sg20
g21
sbsg19
I00
sg20
g28
sbsg7
I3
sg19
I01
sg20
g85
sbsg19
I00
sg20
g40
sbsg19
I00
sg20
g40
sba(imyEvolve
Tree
p234
(dp235
g7
I3
sg8
(imyEvolve
Tree
p236
(dp237
g7
I2
sg8
(imyEvolve
Tree
p238
(dp239
g7
I1
sg8
(imyEvolve
Tree
p240
(dp241
g7
I0
sg15
I00
sbsg16
(imyEvolve
Tree
p242
(dp243
g7
I0
sg15
I00
sbsg19
I00
sg20
g21
sbsg16
(imyEvolve
Tree
p244
(dp245
g24
(imyEvolve
Tree
p246
(dp247
g7
I0
sg15
I00
sbsg7
I1
sg19
I01
sg20
g50
sbsg19
I00
sg20
g40
sbsg16
(imyEvolve
Tree
p248
(dp249
g24
(imyEvolve
Tree
p250
(dp251
g24
(imyEvolve
Tree
p252
(dp253
g7
I0
sg49
F-4.958434549782003
sg15
I01
sbsg7
I1
sg19
I01
sg20
g50
sbsg7
I2
sg19
I01
sg20
g39
sbsg19
I00
sg20
g40
sba(imyEvolve
Tree
p254
(dp255
g24
(imyEvolve
Tree
p256
(dp257
g7
I4
sg8
(imyEvolve
Tree
p258
(dp259
g24
(imyEvolve
Tree
p260
(dp261
g7
I2
sg8
(imyEvolve
Tree
p262
(dp263
g7
I1
sg8
(imyEvolve
Tree
p264
(dp265
g7
I0
sg49
F-2.2247256437553586
sg15
I01
sbsg16
(imyEvolve
Tree
p266
(dp267
g7
I0
sg49
F4.887302396814331
sg15
I01
sbsg19
I00
sg20
g21
sbsg16
(imyEvolve
Tree
p268
(dp269
g24
(imyEvolve
Tree
p270
(dp271
g7
I0
sg15
I00
sbsg7
I1
sg19
I01
sg20
g27
sbsg19
I00
sg20
g40
sbsg7
I3
sg19
I01
sg20
g85
sbsg16
(imyEvolve
Tree
p272
(dp273
g24
(imyEvolve
Tree
p274
(dp275
g7
I2
sg8
(imyEvolve
Tree
p276
(dp277
g7
I1
sg8
(imyEvolve
Tree
p278
(dp279
g7
I0
sg15
I00
sbsg16
(imyEvolve
Tree
p280
(dp281
g7
I0
sg15
I00
sbsg19
I00
sg20
g21
sbsg16
(imyEvolve
Tree
p282
(dp283
g24
(imyEvolve
Tree
p284
(dp285
g7
I0
sg15
I00
sbsg7
I1
sg19
I01
sg20
g85
sbsg19
I00
sg20
g21
sbsg7
I3
sg19
I01
sg20
g85
sbsg19
I00
sg20
g40
sbsg7
I5
sg19
I01
sg20
g85
sba(imyEvolve
Tree
p286
(dp287
g24
(imyEvolve
Tree
p288
(dp289
g7
I2
sg8
(imyEvolve
Tree
p290
(dp291
g7
I1
sg8
(imyEvolve
Tree
p292
(dp293
g7
I0
sg49
F-4.75799463571926
sg15
I01
sbsg16
(imyEvolve
Tree
p294
(dp295
g7
I0
sg15
I00
sbsg19
I00
sg20
g21
sbsg16
(imyEvolve
Tree
p296
(dp297
g7
I1
sg8
(imyEvolve
Tree
p298
(dp299
g7
I0
sg15
I00
sbsg16
(imyEvolve
Tree
p300
(dp301
g7
I0
sg15
I00
sbsg19
I00
sg20
g28
sbsg19
I00
sg20
g28
sbsg7
I3
sg19
I01
sg20
g85
sba(imyEvolve
Tree
p302
(dp303
g24
(imyEvolve
Tree
p304
(dp305
g24
(imyEvolve
Tree
p306
(dp307
g7
I2
sg8
(imyEvolve
Tree
p308
(dp309
g7
I1
sg8
(imyEvolve
Tree
p310
(dp311
g7
I0
sg15
I00
sbsg16
(imyEvolve
Tree
p312
(dp313
g7
I0
sg15
I00
sbsg19
I00
sg20
g28
sbsg16
(imyEvolve
Tree
p314
(dp315
g7
I1
sg8
(imyEvolve
Tree
p316
(dp317
g7
I0
sg49
F4.8730780209725
sg15
I01
sbsg16
(imyEvolve
Tree
p318
(dp319
g7
I0
sg15
I00
sbsg19
I00
sg20
g28
sbsg19
I00
sg20
g21
sbsg7
I3
sg19
I01
sg20
g39
sbsg7
I4
sg19
I01
sg20
g39
sba(imyEvolve
Tree
p320
(dp321
g24
(imyEvolve
Tree
p322
(dp323
g24
(imyEvolve
Tree
p324
(dp325
g24
(imyEvolve
Tree
p326
(dp327
g24
(imyEvolve
Tree
p328
(dp329
g7
I1
sg8
(imyEvolve
Tree
p330
(dp331
g7
I0
sg15
I00
sbsg16
(imyEvolve
Tree
p332
(dp333
g7
I0
sg49
F2.1436567134569735
sg15
I01
sbsg19
I00
sg20
g28
sbsg7
I2
sg19
I01
sg20
g39
sbsg7
I3
sg19
I01
sg20
g85
sbsg7
I4
sg19
I01
sg20
g27
sbsg7
I5
sg19
I01
sg20
g39
sba(imyEvolve
Tree
p334
(dp335
g7
I2
sg8
(imyEvolve
Tree
p336
(dp337
g7
I1
sg8
(imyEvolve
Tree
p338
(dp339
g7
I0
sg49
F-3.089164721100197
sg15
I01
sbsg16
(imyEvolve
Tree
p340
(dp341
g7
I0
sg15
I00
sbsg19
I00
sg20
g28
sbsg16
(imyEvolve
Tree
p342
(dp343
g7
I1
sg8
(imyEvolve
Tree
p344
(dp345
g7
I0
sg15
I00
sbsg16
(imyEvolve
Tree
p346
(dp347
g7
I0
sg49
F-2.529797939283921
sg15
I01
sbsg19
I00
sg20
g40
sbsg19
I00
sg20
g28
sba(imyEvolve
Tree
p348
(dp349
g7
I5
sg8
(imyEvolve
Tree
p350
(dp351
g7
I4
sg8
(imyEvolve
Tree
p352
(dp353
g7
I3
sg8
(imyEvolve
Tree
p354
(dp355
g24
(imyEvolve
Tree
p356
(dp357
g7
I1
sg8
(imyEvolve
Tree
p358
(dp359
g7
I0
sg15
I00
sbsg16
(imyEvolve
Tree
p360
(dp361
g7
I0
sg49
F-1.7387566033476842
sg15
I01
sbsg19
I00
sg20
g21
sbsg7
I2
sg19
I01
sg20
g39
sbsg16
(imyEvolve
Tree
p362
(dp363
g7
I2
sg8
(imyEvolve
Tree
p364
(dp365
g24
(imyEvolve
Tree
p366
(dp367
g7
I0
sg49
F3.755659470293093
sg15
I01
sbsg7
I1
sg19
I01
sg20
g85
sbsg16
(imyEvolve
Tree
p368
(dp369
g7
I1
sg8
(imyEvolve
Tree
p370
(dp371
g7
I0
sg15
I00
sbsg16
(imyEvolve
Tree
p372
(dp373
g7
I0
sg15
I00
sbsg19
I00
sg20
g28
sbsg19
I00
sg20
g28
sbsg19
I00
sg20
g21
sbsg16
(imyEvolve
Tree
p374
(dp375
g7
I3
sg8
(imyEvolve
Tree
p376
(dp377
g7
I2
sg8
(imyEvolve
Tree
p378
(dp379
g24
(imyEvolve
Tree
p380
(dp381
g7
I0
sg49
F-2.3508297894034804
sg15
I01
sbsg7
I1
sg19
I01
sg20
g50
sbsg16
(imyEvolve
Tree
p382
(dp383
g7
I1
sg8
(imyEvolve
Tree
p384
(dp385
g7
I0
sg15
I00
sbsg16
(imyEvolve
Tree
p386
(dp387
g7
I0
sg49
F0.5394027177147951
sg15
I01
sbsg19
I00
sg20
g28
sbsg19
I00
sg20
g40
sbsg16
(imyEvolve
Tree
p388
(dp389
g24
(imyEvolve
Tree
p390
(dp391
g24
(imyEvolve
Tree
p392
(dp393
g7
I0
sg15
I00
sbsg7
I1
sg19
I01
sg20
g50
sbsg7
I2
sg19
I01
sg20
g85
sbsg19
I00
sg20
g21
sbsg19
I00
sg20
g28
sbsg16
(imyEvolve
Tree
p394
(dp395
g24
(imyEvolve
Tree
p396
(dp397
g24
(imyEvolve
Tree
p398
(dp399
g24
(imyEvolve
Tree
p400
(dp401
g24
(imyEvolve
Tree
p402
(dp403
g7
I0
sg15
I00
sbsg7
I1
sg19
I01
sg20
g50
sbsg7
I2
sg19
I01
sg20
g85
sbsg7
I3
sg19
I01
sg20
g85
sbsg7
I4
sg19
I01
sg20
g27
sbsg19
I00
sg20
g28
sba(imyEvolve
Tree
p404
(dp405
g24
(imyEvolve
Tree
p406
(dp407
g7
I3
sg8
(imyEvolve
Tree
p408
(dp409
g24
(imyEvolve
Tree
p410
(dp411
g7
I1
sg8
(imyEvolve
Tree
p412
(dp413
g7
I0
sg15
I00
sbsg16
(imyEvolve
Tree
p414
(dp415
g7
I0
sg15
I00
sbsg19
I00
sg20
g21
sbsg7
I2
sg19
I01
sg20
g50
sbsg16
(imyEvolve
Tree
p416
(dp417
g24
(imyEvolve
Tree
p418
(dp419
g7
I1
sg8
(imyEvolve
Tree
p420
(dp421
g7
I0
sg49
F-4.943476162356091
sg15
I01
sbsg16
(imyEvolve
Tree
p422
(dp423
g7
I0
sg15
I00
sbsg19
I00
sg20
g21
sbsg7
I2
sg19
I01
sg20
g85
sbsg19
I00
sg20
g28
sbsg7
I4
sg19
I01
sg20
g39
sba(imyEvolve
Tree
p424
(dp425
g7
I4
sg8
(imyEvolve
Tree
p426
(dp427
g7
I3
sg8
(imyEvolve
Tree
p428
(dp429
g24
(imyEvolve
Tree
p430
(dp431
g24
(imyEvolve
Tree
p432
(dp433
g7
I0
sg49
F-0.7856976519335399
sg15
I01
sbsg7
I1
sg19
I01
sg20
g85
sbsg7
I2
sg19
I01
sg20
g85
sbsg16
(imyEvolve
Tree
p434
(dp435
g24
(imyEvolve
Tree
p436
(dp437
g7
I1
sg8
(imyEvolve
Tree
p438
(dp439
g7
I0
sg15
I00
sbsg16
(imyEvolve
Tree
p440
(dp441
g7
I0
sg49
F2.1981721856598346
sg15
I01
sbsg19
I00
sg20
g40
sbsg7
I2
sg19
I01
sg20
g39
sbsg19
I00
sg20
g21
sbsg16
(imyEvolve
Tree
p442
(dp443
g24
(imyEvolve
Tree
p444
(dp445
g24
(imyEvolve
Tree
p446
(dp447
g24
(imyEvolve
Tree
p448
(dp449
g7
I0
sg49
F0.5268273415450384
sg15
I01
sbsg7
I1
sg19
I01
sg20
g27
sbsg7
I2
sg19
I01
sg20
g39
sbsg7
I3
sg19
I01
sg20
g39
sbsg19
I00
sg20
g21
sba(imyEvolve
Tree
p450
(dp451
g24
(imyEvolve
Tree
p452
(dp453
g24
(imyEvolve
Tree
p454
(dp455
g24
(imyEvolve
Tree
p456
(dp457
g24
(imyEvolve
Tree
p458
(dp459
g24
(imyEvolve
Tree
p460
(dp461
g7
I0
sg49
F-0.9818346986527082
sg15
I01
sbsg7
I1
sg19
I01
sg20
g39
sbsg7
I2
sg19
I01
sg20
g39
sbsg7
I3
sg19
I01
sg20
g39
sbsg7
I4
sg19
I01
sg20
g39
sbsg7
I5
sg19
I01
sg20
g50
sba(imyEvolve
Tree
p462
(dp463
g24
(imyEvolve
Tree
p464
(dp465
g24
(imyEvolve
Tree
p466
(dp467
g7
I3
sg8
(imyEvolve
Tree
p468
(dp469
g24
(imyEvolve
Tree
p470
(dp471
g7
I1
sg8
(imyEvolve
Tree
p472
(dp473
g7
I0
sg49
F-1.4104544049827195
sg15
I01
sbsg16
(imyEvolve
Tree
p474
(dp475
g7
I0
sg49
F-0.09125552357585942
sg15
I01
sbsg19
I00
sg20
g28
sbsg7
I2
sg19
I01
sg20
g27
sbsg16
(imyEvolve
Tree
p476
(dp477
g7
I2
sg8
(imyEvolve
Tree
p478
(dp479
g7
I1
sg8
(imyEvolve
Tree
p480
(dp481
g7
I0
sg49
F4.471917148288826
sg15
I01
sbsg16
(imyEvolve
Tree
p482
(dp483
g7
I0
sg49
F-2.77854011176066
sg15
I01
sbsg19
I00
sg20
g40
sbsg16
(imyEvolve
Tree
p484
(dp485
g24
(imyEvolve
Tree
p486
(dp487
g7
I0
sg15
I00
sbsg7
I1
sg19
I01
sg20
g50
sbsg19
I00
sg20
g21
sbsg19
I00
sg20
g28
sbsg7
I4
sg19
I01
sg20
g39
sbsg7
I5
sg19
I01
sg20
g27
sba(imyEvolve
Tree
p488
(dp489
g24
(imyEvolve
Tree
p490
(dp491
g24
(imyEvolve
Tree
p492
(dp493
g7
I0
sg15
I00
sbsg7
I1
sg19
I01
sg20
g27
sbsg7
I2
sg19
I01
sg20
g50
sbaa(lp494
(imyEvolve
Tree
p495
(dp496
g24
(imyEvolve
Tree
p497
(dp498
g7
I4
sg8
(imyEvolve
Tree
p499
(dp500
g7
I3
sg8
(imyEvolve
Tree
p501
(dp502
g7
I2
sg8
(imyEvolve
Tree
p503
(dp504
g7
I1
sg8
(imyEvolve
Tree
p505
(dp506
g7
I0
sg49
F3.8738291559557325
sg15
I01
sbsg16
(imyEvolve
Tree
p507
(dp508
g7
I0
sg15
I00
sbsg19
I00
sg20
g21
sbsg16
(imyEvolve
Tree
p509
(dp510
g24
(imyEvolve
Tree
p511
(dp512
g7
I0
sg49
F-1.9095978807678904
sg15
I01
sbsg7
I1
sg19
I01
sg20
g27
sbsg19
I00
sg20
g21
sbsg16
(imyEvolve
Tree
p513
(dp514
g7
I2
sg8
(imyEvolve
Tree
p515
(dp516
g24
(imyEvolve
Tree
p517
(dp518
g7
I0
sg15
I00
sbsg7
I1
sg19
I01
sg20
g50
sbsg16
(imyEvolve
Tree
p519
(dp520
g7
I1
sg8
(imyEvolve
Tree
p521
(dp522
g7
I0
sg15
I00
sbsg16
(imyEvolve
Tree
p523
(dp524
g7
I0
sg49
F-2.6904115007159723
sg15
I01
sbsg19
I00
sg20
g40
sbsg19
I00
sg20
g28
sbsg19
I00
sg20
g21
sbsg16
(imyEvolve
Tree
p525
(dp526
g24
(imyEvolve
Tree
p527
(dp528
g24
(imyEvolve
Tree
p529
(dp530
g24
(imyEvolve
Tree
p531
(dp532
g7
I0
sg49
F4.143356474284959
sg15
I01
sbsg7
I1
sg19
I01
sg20
g50
sbsg7
I2
sg19
I01
sg20
g39
sbsg7
I3
sg19
I01
sg20
g27
sbsg19
I00
sg20
g28
sbsg7
I5
sg19
I01
sg20
g50
sba(imyEvolve
Tree
p533
(dp534
g7
I4
sg8
(imyEvolve
Tree
p535
(dp536
g24
(imyEvolve
Tree
p537
(dp538
g7
I2
sg8
(imyEvolve
Tree
p539
(dp540
g24
(imyEvolve
Tree
p541
(dp542
g7
I0
sg49
F0.9287534895276792
sg15
I01
sbsg7
I1
sg19
I01
sg20
g27
sbsg16
(imyEvolve
Tree
p543
(dp544
g7
I1
sg8
(imyEvolve
Tree
p545
(dp546
g7
I0
sg15
I00
sbsg16
(imyEvolve
Tree
p547
(dp548
g7
I0
sg15
I00
sbsg19
I00
sg20
g28
sbsg19
I00
sg20
g21
sbsg7
I3
sg19
I01
sg20
g27
sbsg16
(imyEvolve
Tree
p549
(dp550
g7
I3
sg8
(imyEvolve
Tree
p551
(dp552
g7
I2
sg8
(imyEvolve
Tree
p553
(dp554
g7
I1
sg8
(imyEvolve
Tree
p555
(dp556
g7
I0
sg49
F1.0115479196258441
sg15
I01
sbsg16
(imyEvolve
Tree
p557
(dp558
g7
I0
sg49
F-2.1190939599411873
sg15
I01
sbsg19
I00
sg20
g28
sbsg16
(imyEvolve
Tree
p559
(dp560
g24
(imyEvolve
Tree
p561
(dp562
g7
I0
sg49
F4.836279302819111
sg15
I01
sbsg7
I1
sg19
I01
sg20
g85
sbsg19
I00
sg20
g40
sbsg16
(imyEvolve
Tree
p563
(dp564
g7
I2
sg8
(imyEvolve
Tree
p565
(dp566
g7
I1
sg8
(imyEvolve
Tree
p567
(dp568
g7
I0
sg15
I00
sbsg16
(imyEvolve
Tree
p569
(dp570
g7
I0
sg49
F-1.9403108036238481
sg15
I01
sbsg19
I00
sg20
g21
sbsg16
(imyEvolve
Tree
p571
(dp572
g24
(imyEvolve
Tree
p573
(dp574
g7
I0
sg49
F-1.4884483598020806
sg15
I01
sbsg7
I1
sg19
I01
sg20
g50
sbsg19
I00
sg20
g21
sbsg19
I00
sg20
g21
sbsg19
I00
sg20
g21
sba(imyEvolve
Tree
p575
(dp576
g24
(imyEvolve
Tree
p577
(dp578
g7
I2
sg8
(imyEvolve
Tree
p579
(dp580
g24
(imyEvolve
Tree
p581
(dp582
g7
I0
sg15
I00
sbsg7
I1
sg19
I01
sg20
g39
sbsg16
(imyEvolve
Tree
p583
(dp584
g24
(imyEvolve
Tree
p585
(dp586
g7
I0
sg49
F1.906959933266954
sg15
I01
sbsg7
I1
sg19
I01
sg20
g85
sbsg19
I00
sg20
g40
sbsg7
I3
sg19
I01
sg20
g85
sba(imyEvolve
Tree
p587
(dp588
g7
I3
sg8
(imyEvolve
Tree
p589
(dp590
g24
(imyEvolve
Tree
p591
(dp592
g7
I1
sg8
(imyEvolve
Tree
p593
(dp594
g7
I0
sg49
F3.7407389081572173
sg15
I01
sbsg16
(imyEvolve
Tree
p595
(dp596
g7
I0
sg15
I00
sbsg19
I00
sg20
g28
sbsg7
I2
sg19
I01
sg20
g50
sbsg16
(imyEvolve
Tree
p597
(dp598
g24
(imyEvolve
Tree
p599
(dp600
g7
I1
sg8
(imyEvolve
Tree
p601
(dp602
g7
I0
sg49
F1.825030970737128
sg15
I01
sbsg16
(imyEvolve
Tree
p603
(dp604
g7
I0
sg49
F2.6455898396346376
sg15
I01
sbsg19
I00
sg20
g28
sbsg7
I2
sg19
I01
sg20
g50
sbsg19
I00
sg20
g40
sba(imyEvolve
Tree
p605
(dp606
g7
I4
sg8
(imyEvolve
Tree
p607
(dp608
g24
(imyEvolve
Tree
p609
(dp610
g7
I2
sg8
(imyEvolve
Tree
p611
(dp612
g24
(imyEvolve
Tree
p613
(dp614
g7
I0
sg15
I00
sbsg7
I1
sg19
I01
sg20
g27
sbsg16
(imyEvolve
Tree
p615
(dp616
g7
I1
sg8
(imyEvolve
Tree
p617
(dp618
g7
I0
sg15
I00
sbsg16
(imyEvolve
Tree
p619
(dp620
g7
I0
sg15
I00
sbsg19
I00
sg20
g40
sbsg19
I00
sg20
g28
sbsg7
I3
sg19
I01
sg20
g39
sbsg16
(imyEvolve
Tree
p621
(dp622
g7
I3
sg8
(imyEvolve
Tree
p623
(dp624
g7
I2
sg8
(imyEvolve
Tree
p625
(dp626
g24
(imyEvolve
Tree
p627
(dp628
g7
I0
sg49
F2.3075240233339365
sg15
I01
sbsg7
I1
sg19
I01
sg20
g50
sbsg16
(imyEvolve
Tree
p629
(dp630
g24
(imyEvolve
Tree
p631
(dp632
g7
I0
sg49
F3.366731168421593
sg15
I01
sbsg7
I1
sg19
I01
sg20
g50
sbsg19
I00
sg20
g21
sbsg16
(imyEvolve
Tree
p633
(dp634
g24
(imyEvolve
Tree
p635
(dp636
g24
(imyEvolve
Tree
p637
(dp638
g7
I0
sg49
F1.045125053957742
sg15
I01
sbsg7
I1
sg19
I01
sg20
g85
sbsg7
I2
sg19
I01
sg20
g39
sbsg19
I00
sg20
g21
sbsg19
I00
sg20
g40
sba(imyEvolve
Tree
p639
(dp640
g7
I4
sg8
(imyEvolve
Tree
p641
(dp642
g24
(imyEvolve
Tree
p643
(dp644
g24
(imyEvolve
Tree
p645
(dp646
g24
(imyEvolve
Tree
p647
(dp648
g7
I0
sg49
F1.7043640201419485
sg15
I01
sbsg7
I1
sg19
I01
sg20
g39
sbsg7
I2
sg19
I01
sg20
g27
sbsg7
I3
sg19
I01
sg20
g50
sbsg16
(imyEvolve
Tree
p649
(dp650
g24
(imyEvolve
Tree
p651
(dp652
g24
(imyEvolve
Tree
p653
(dp654
g7
I1
sg8
(imyEvolve
Tree
p655
(dp656
g7
I0
sg15
I00
sbsg16
(imyEvolve
Tree
p657
(dp658
g7
I0
sg49
F-2.0871376554337306
sg15
I01
sbsg19
I00
sg20
g21
sbsg7
I2
sg19
I01
sg20
g50
sbsg7
I3
sg19
I01
sg20
g39
sbsg19
I00
sg20
g40
sba(imyEvolve
Tree
p659
(dp660
g24
(imyEvolve
Tree
p661
(dp662
g24
(imyEvolve
Tree
p663
(dp664
g7
I2
sg8
(imyEvolve
Tree
p665
(dp666
g24
(imyEvolve
Tree
p667
(dp668
g7
I0
sg15
I00
sbsg7
I1
sg19
I01
sg20
g39
sbsg16
(imyEvolve
Tree
p669
(dp670
g24
(imyEvolve
Tree
p671
(dp672
g7
I0
sg15
I00
sbsg7
I1
sg19
I01
sg20
g39
sbsg19
I00
sg20
g40
sbsg7
I3
sg19
I01
sg20
g39
sbsg7
I4
sg19
I01
sg20
g50
sba(imyEvolve
Tree
p673
(dp674
g7
I4
sg8
(imyEvolve
Tree
p675
(dp676
g7
I3
sg8
(imyEvolve
Tree
p677
(dp678
g7
I2
sg8
(imyEvolve
Tree
p679
(dp680
g7
I1
sg8
(imyEvolve
Tree
p681
(dp682
g7
I0
sg15
I00
sbsg16
(imyEvolve
Tree
p683
(dp684
g7
I0
sg15
I00
sbsg19
I00
sg20
g21
sbsg16
(imyEvolve
Tree
p685
(dp686
g7
I1
sg8
(imyEvolve
Tree
p687
(dp688
g7
I0
sg49
F1.4256675775186745
sg15
I01
sbsg16
(imyEvolve
Tree
p689
(dp690
g7
I0
sg49
F-3.4629874414452932
sg15
I01
sbsg19
I00
sg20
g28
sbsg19
I00
sg20
g40
sbsg16
(imyEvolve
Tree
p691
(dp692
g7
I2
sg8
(imyEvolve
Tree
p693
(dp694
g24
(imyEvolve
Tree
p695
(dp696
g7
I0
sg49
F2.9438908130753045
sg15
I01
sbsg7
I1
sg19
I01
sg20
g27
sbsg16
(imyEvolve
Tree
p697
(dp698
g7
I1
sg8
(imyEvolve
Tree
p699
(dp700
g7
I0
sg15
I00
sbsg16
(imyEvolve
Tree
p701
(dp702
g7
I0
sg49
F0.7520996497248245
sg15
I01
sbsg19
I00
sg20
g40
sbsg19
I00
sg20
g40
sbsg19
I00
sg20
g21
sbsg16
(imyEvolve
Tree
p703
(dp704
g7
I3
sg8
(imyEvolve
Tree
p705
(dp706
g24
(imyEvolve
Tree
p707
(dp708
g7
I1
sg8
(imyEvolve
Tree
p709
(dp710
g7
I0
sg15
I00
sbsg16
(imyEvolve
Tree
p711
(dp712
g7
I0
sg49
F-3.5487725779540993
sg15
I01
sbsg19
I00
sg20
g21
sbsg7
I2
sg19
I01
sg20
g85
sbsg16
(imyEvolve
Tree
p713
(dp714
g24
(imyEvolve
Tree
p715
(dp716
g24
(imyEvolve
Tree
p717
(dp718
g7
I0
sg49
F-2.730977082094684
sg15
I01
sbsg7
I1
sg19
I01
sg20
g85
sbsg7
I2
sg19
I01
sg20
g27
sbsg19
I00
sg20
g28
sbsg19
I00
sg20
g40
sbaa(lp719
(imyEvolve
Tree
p720
(dp721
g24
(imyEvolve
Tree
p722
(dp723
g7
I1
sg8
(imyEvolve
Tree
p724
(dp725
g7
I0
sg49
F2.102237418166947
sg15
I01
sbsg16
(imyEvolve
Tree
p726
(dp727
g7
I0
sg49
F0.21643174785033636
sg15
I01
sbsg19
I00
sg20
g40
sbsg7
I2
sg19
I01
sg20
g39
sba(imyEvolve
Tree
p728
(dp729
g24
(imyEvolve
Tree
p730
(dp731
g24
(imyEvolve
Tree
p732
(dp733
g24
(imyEvolve
Tree
p734
(dp735
g7
I0
sg15
I00
sbsg7
I1
sg19
I01
sg20
g27
sbsg7
I2
sg19
I01
sg20
g39
sbsg7
I3
sg19
I01
sg20
g50
sba(imyEvolve
Tree
p736
(dp737
g7
I5
sg8
(imyEvolve
Tree
p738
(dp739
g7
I4
sg8
(imyEvolve
Tree
p740
(dp741
g24
(imyEvolve
Tree
p742
(dp743
g7
I2
sg8
(imyEvolve
Tree
p744
(dp745
g24
(imyEvolve
Tree
p746
(dp747
g7
I0
sg15
I00
sbsg7
I1
sg19
I01
sg20
g50
sbsg16
(imyEvolve
Tree
p748
(dp749
g24
(imyEvolve
Tree
p750
(dp751
g7
I0
sg15
I00
sbsg7
I1
sg19
I01
sg20
g27
sbsg19
I00
sg20
g40
sbsg7
I3
sg19
I01
sg20
g50
sbsg16
(imyEvolve
Tree
p752
(dp753
g7
I3
sg8
(imyEvolve
Tree
p754
(dp755
g24
(imyEvolve
Tree
p756
(dp757
g24
(imyEvolve
Tree
p758
(dp759
g7
I0
sg15
I00
sbsg7
I1
sg19
I01
sg20
g39
sbsg7
I2
sg19
I01
sg20
g39
sbsg16
(imyEvolve
Tree
p760
(dp761
g24
(imyEvolve
Tree
p762
(dp763
g7
I1
sg8
(imyEvolve
Tree
p764
(dp765
g7
I0
sg15
I00
sbsg16
(imyEvolve
Tree
p766
(dp767
g7
I0
sg15
I00
sbsg19
I00
sg20
g21
sbsg7
I2
sg19
I01
sg20
g50
sbsg19
I00
sg20
g40
sbsg19
I00
sg20
g21
sbsg16
(imyEvolve
Tree
p768
(dp769
g7
I4
sg8
(imyEvolve
Tree
p770
(dp771
g7
I3
sg8
(imyEvolve
Tree
p772
(dp773
g7
I2
sg8
(imyEvolve
Tree
p774
(dp775
g7
I1
sg8
(imyEvolve
Tree
p776
(dp777
g7
I0
sg49
F-1.8837038998343472
sg15
I01
sbsg16
(imyEvolve
Tree
p778
(dp779
g7
I0
sg49
F-1.8659388457860393
sg15
I01
sbsg19
I00
sg20
g40
sbsg16
(imyEvolve
Tree
p780
(dp781
g7
I1
sg8
(imyEvolve
Tree
p782
(dp783
g7
I0
sg49
F1.6108493313089056
sg15
I01
sbsg16
(imyEvolve
Tree
p784
(dp785
g7
I0
sg15
I00
sbsg19
I00
sg20
g21
sbsg19
I00
sg20
g21
sbsg16
(imyEvolve
Tree
p786
(dp787
g7
I2
sg8
(imyEvolve
Tree
p788
(dp789
g24
(imyEvolve
Tree
p790
(dp791
g7
I0
sg49
F0.9846659502258053
sg15
I01
sbsg7
I1
sg19
I01
sg20
g85
sbsg16
(imyEvolve
Tree
p792
(dp793
g7
I1
sg8
(imyEvolve
Tree
p794
(dp795
g7
I0
sg49
F-4.364029800910039
sg15
I01
sbsg16
(imyEvolve
Tree
p796
(dp797
g7
I0
sg15
I00
sbsg19
I00
sg20
g28
sbsg19
I00
sg20
g40
sbsg19
I00
sg20
g21
sbsg16
(imyEvolve
Tree
p798
(dp799
g24
(imyEvolve
Tree
p800
(dp801
g24
(imyEvolve
Tree
p802
(dp803
g24
(imyEvolve
Tree
p804
(dp805
g7
I0
sg49
F-3.8943526854981103
sg15
I01
sbsg7
I1
sg19
I01
sg20
g50
sbsg7
I2
sg19
I01
sg20
g39
sbsg7
I3
sg19
I01
sg20
g50
sbsg19
I00
sg20
g21
sbsg19
I00
sg20
g21
sba(imyEvolve
Tree
p806
(dp807
g24
(imyEvolve
Tree
p808
(dp809
g24
(imyEvolve
Tree
p810
(dp811
g7
I0
sg15
I00
sbsg7
I1
sg19
I01
sg20
g27
sbsg7
I2
sg19
I01
sg20
g50
sba(imyEvolve
Tree
p812
(dp813
g24
(imyEvolve
Tree
p814
(dp815
g24
(imyEvolve
Tree
p816
(dp817
g7
I2
sg8
(imyEvolve
Tree
p818
(dp819
g24
(imyEvolve
Tree
p820
(dp821
g7
I0
sg49
F-1.003130189325744
sg15
I01
sbsg7
I1
sg19
I01
sg20
g50
sbsg16
(imyEvolve
Tree
p822
(dp823
g7
I1
sg8
(imyEvolve
Tree
p824
(dp825
g7
I0
sg15
I00
sbsg16
(imyEvolve
Tree
p826
(dp827
g7
I0
sg49
F1.5973787936188044
sg15
I01
sbsg19
I00
sg20
g28
sbsg19
I00
sg20
g28
sbsg7
I3
sg19
I01
sg20
g27
sbsg7
I4
sg19
I01
sg20
g39
sba(imyEvolve
Tree
p828
(dp829
g7
I5
sg8
(imyEvolve
Tree
p830
(dp831
g24
(imyEvolve
Tree
p832
(dp833
g24
(imyEvolve
Tree
p834
(dp835
g7
I2
sg8
(imyEvolve
Tree
p836
(dp837
g7
I1
sg8
(imyEvolve
Tree
p838
(dp839
g7
I0
sg15
I00
sbsg16
(imyEvolve
Tree
p840
(dp841
g7
I0
sg15
I00
sbsg19
I00
sg20
g21
sbsg16
(imyEvolve
Tree
p842
(dp843
g7
I1
sg8
(imyEvolve
Tree
p844
(dp845
g7
I0
sg49
F-4.617268550885907
sg15
I01
sbsg16
(imyEvolve
Tree
p846
(dp847
g7
I0
sg15
I00
sbsg19
I00
sg20
g40
sbsg19
I00
sg20
g40
sbsg7
I3
sg19
I01
sg20
g85
sbsg7
I4
sg19
I01
sg20
g50
sbsg16
(imyEvolve
Tree
p848
(dp849
g24
(imyEvolve
Tree
p850
(dp851
g24
(imyEvolve
Tree
p852
(dp853
g7
I2
sg8
(imyEvolve
Tree
p854
(dp855
g7
I1
sg8
(imyEvolve
Tree
p856
(dp857
g7
I0
sg49
F-4.272848274744562
sg15
I01
sbsg16
(imyEvolve
Tree
p858
(dp859
g7
I0
sg15
I00
sbsg19
I00
sg20
g28
sbsg16
(imyEvolve
Tree
p860
(dp861
g7
I1
sg8
(imyEvolve
Tree
p862
(dp863
g7
I0
sg49
F1.593634022938522
sg15
I01
sbsg16
(imyEvolve
Tree
p864
(dp865
g7
I0
sg15
I00
sbsg19
I00
sg20
g21
sbsg19
I00
sg20
g40
sbsg7
I3
sg19
I01
sg20
g27
sbsg7
I4
sg19
I01
sg20
g27
sbsg19
I00
sg20
g40
sba(imyEvolve
Tree
p866
(dp867
g24
(imyEvolve
Tree
p868
(dp869
g7
I1
sg8
(imyEvolve
Tree
p870
(dp871
g7
I0
sg15
I00
sbsg16
(imyEvolve
Tree
p872
(dp873
g7
I0
sg15
I00
sbsg19
I00
sg20
g21
sbsg7
I2
sg19
I01
sg20
g50
sba(imyEvolve
Tree
p874
(dp875
g24
(imyEvolve
Tree
p876
(dp877
g7
I1
sg8
(imyEvolve
Tree
p878
(dp879
g7
I0
sg15
I00
sbsg16
(imyEvolve
Tree
p880
(dp881
g7
I0
sg15
I00
sbsg19
I00
sg20
g40
sbsg7
I2
sg19
I01
sg20
g27
sba(imyEvolve
Tree
p882
(dp883
g24
(imyEvolve
Tree
p884
(dp885
g24
(imyEvolve
Tree
p886
(dp887
g7
I0
sg49
F3.2947759843535813
sg15
I01
sbsg7
I1
sg19
I01
sg20
g39
sbsg7
I2
sg19
I01
sg20
g39
sba(imyEvolve
Tree
p888
(dp889
g7
I3
sg8
(imyEvolve
Tree
p890
(dp891
g7
I2
sg8
(imyEvolve
Tree
p892
(dp893
g7
I1
sg8
(imyEvolve
Tree
p894
(dp895
g7
I0
sg49
F-0.03316488797404116
sg15
I01
sbsg16
(imyEvolve
Tree
p896
(dp897
g7
I0
sg15
I00
sbsg19
I00
sg20
g40
sbsg16
(imyEvolve
Tree
p898
(dp899
g7
I1
sg8
(imyEvolve
Tree
p900
(dp901
g7
I0
sg49
F2.7131765256840126
sg15
I01
sbsg16
(imyEvolve
Tree
p902
(dp903
g7
I0
sg49
F4.760838534700282
sg15
I01
sbsg19
I00
sg20
g28
sbsg19
I00
sg20
g40
sbsg16
(imyEvolve
Tree
p904
(dp905
g7
I2
sg8
(imyEvolve
Tree
p906
(dp907
g24
(imyEvolve
Tree
p908
(dp909
g7
I0
sg15
I00
sbsg7
I1
sg19
I01
sg20
g85
sbsg16
(imyEvolve
Tree
p910
(dp911
g7
I1
sg8
(imyEvolve
Tree
p912
(dp913
g7
I0
sg49
F3.4519689378353817
sg15
I01
sbsg16
(imyEvolve
Tree
p914
(dp915
g7
I0
sg15
I00
sbsg19
I00
sg20
g28
sbsg19
I00
sg20
g28
sbsg19
I00
sg20
g40
sbaasS'weightSharing'
p916
(lp917
I00
aI00
asS'fitnessValid'
p918
I00
sS'fitness'
p919
cnumpy.core.multiarray
scalar
p920
(cnumpy
dtype
p921
(S'f8'
p922
I0
I1
tp923
Rp924
(I3
S'<'
p925
NNNI-1
I-1
I0
tp926
bS'\x00\xea\x044%eR?'
p927
tp928
Rp929
sS'alpha'
p930
F0.002858846852474065
sS'resolution'
p931
I78
sb.