(imyEvolve
Individual
p0
(dp1
S'funcs'
p2
(lp3
(lp4
(imyEvolve
Tree
p5
(dp6
S'depth'
p7
I4
sS'left'
p8
(imyEvolve
Tree
p9
(dp10
g7
I3
sg8
(imyEvolve
Tree
p11
(dp12
S'below'
p13
(imyEvolve
Tree
p14
(dp15
g13
(imyEvolve
Tree
p16
(dp17
g7
I0
sS'constant'
p18
F1.9417855156525299
sS'isConstant'
p19
I01
sbsg7
I1
sS'single'
p20
I01
sS'op'
p21
cmath
sin
p22
sbsg7
I2
sg20
I01
sg21
cmyEvolve
absSqrt
p23
sbsS'right'
p24
(imyEvolve
Tree
p25
(dp26
g7
I2
sg8
(imyEvolve
Tree
p27
(dp28
g13
(imyEvolve
Tree
p29
(dp30
g7
I0
sg18
F2.0528665499868435
sg19
I01
sbsg7
I1
sg20
I01
sg21
g22
sbsg24
(imyEvolve
Tree
p31
(dp32
g13
(imyEvolve
Tree
p33
(dp34
g7
I0
sg18
F-2.9801475377044095
sg19
I01
sbsg7
I1
sg20
I01
sg21
cmyEvolve
square
p35
sbsg20
I00
sg21
coperator
mul
p36
sbsg20
I00
sg21
g36
sbsg24
(imyEvolve
Tree
p37
(dp38
g13
(imyEvolve
Tree
p39
(dp40
g7
I2
sg8
(imyEvolve
Tree
p41
(dp42
g7
I1
sg8
(imyEvolve
Tree
p43
(dp44
g7
I0
sg18
F1.3348004737409171
sg19
I01
sbsg24
(imyEvolve
Tree
p45
(dp46
g7
I0
sg19
I00
sbsg20
I00
sg21
coperator
sub
p47
sbsg24
(imyEvolve
Tree
p48
(dp49
g13
(imyEvolve
Tree
p50
(dp51
g7
I0
sg18
F0.2677501977830907
sg19
I01
sbsg7
I1
sg20
I01
sg21
g22
sbsg20
I00
sg21
g36
sbsg7
I3
sg20
I01
sg21
g23
sbsg20
I00
sg21
coperator
add
p52
sba(imyEvolve
Tree
p53
(dp54
g13
(imyEvolve
Tree
p55
(dp56
g7
I1
sg8
(imyEvolve
Tree
p57
(dp58
g7
I0
sg18
F4.556113256041117
sg19
I01
sbsg24
(imyEvolve
Tree
p59
(dp60
g7
I0
sg19
I00
sbsg20
I00
sg21
g52
sbsg7
I2
sg20
I01
sg21
g23
sba(imyEvolve
Tree
p61
(dp62
g13
(imyEvolve
Tree
p63
(dp64
g13
(imyEvolve
Tree
p65
(dp66
g7
I2
sg8
(imyEvolve
Tree
p67
(dp68
g7
I1
sg8
(imyEvolve
Tree
p69
(dp70
g7
I0
sg19
I00
sbsg24
(imyEvolve
Tree
p71
(dp72
g7
I0
sg19
I00
sbsg20
I00
sg21
g36
sbsg24
(imyEvolve
Tree
p73
(dp74
g7
I1
sg8
(imyEvolve
Tree
p75
(dp76
g7
I0
sg19
I00
sbsg24
(imyEvolve
Tree
p77
(dp78
g7
I0
sg18
F3.98137243136609
sg19
I01
sbsg20
I00
sg21
g36
sbsg20
I00
sg21
g52
sbsg7
I3
sg20
I01
sg21
cmath
cos
p79
sbsg7
I4
sg20
I01
sg21
g22
sba(imyEvolve
Tree
p80
(dp81
g13
(imyEvolve
Tree
p82
(dp83
g13
(imyEvolve
Tree
p84
(dp85
g13
(imyEvolve
Tree
p86
(dp87
g7
I1
sg8
(imyEvolve
Tree
p88
(dp89
g7
I0
sg19
I00
sbsg24
(imyEvolve
Tree
p90
(dp91
g7
I0
sg18
F-0.1655868423079898
sg19
I01
sbsg20
I00
sg21
g52
sbsg7
I2
sg20
I01
sg21
g23
sbsg7
I3
sg20
I01
sg21
g35
sbsg7
I4
sg20
I01
sg21
g35
sba(imyEvolve
Tree
p92
(dp93
g13
(imyEvolve
Tree
p94
(dp95
g13
(imyEvolve
Tree
p96
(dp97
g7
I3
sg8
(imyEvolve
Tree
p98
(dp99
g7
I2
sg8
(imyEvolve
Tree
p100
(dp101
g13
(imyEvolve
Tree
p102
(dp103
g7
I0
sg18
F2.298159159330936
sg19
I01
sbsg7
I1
sg20
I01
sg21
g79
sbsg24
(imyEvolve
Tree
p104
(dp105
g13
(imyEvolve
Tree
p106
(dp107
g7
I0
sg18
F-0.03535459739922775
sg19
I01
sbsg7
I1
sg20
I01
sg21
g35
sbsg20
I00
sg21
g47
sbsg24
(imyEvolve
Tree
p108
(dp109
g7
I2
sg8
(imyEvolve
Tree
p110
(dp111
g7
I1
sg8
(imyEvolve
Tree
p112
(dp113
g7
I0
sg18
F-2.642097113555998
sg19
I01
sbsg24
(imyEvolve
Tree
p114
(dp115
g7
I0
sg19
I00
sbsg20
I00
sg21
g36
sbsg24
(imyEvolve
Tree
p116
(dp117
g13
(imyEvolve
Tree
p118
(dp119
g7
I0
sg18
F-2.6626189877613804
sg19
I01
sbsg7
I1
sg20
I01
sg21
g79
sbsg20
I00
sg21
g47
sbsg20
I00
sg21
g47
sbsg7
I4
sg20
I01
sg21
g35
sbsg7
I5
sg20
I01
sg21
g35
sba(imyEvolve
Tree
p120
(dp121
g7
I5
sg8
(imyEvolve
Tree
p122
(dp123
g7
I4
sg8
(imyEvolve
Tree
p124
(dp125
g7
I3
sg8
(imyEvolve
Tree
p126
(dp127
g7
I2
sg8
(imyEvolve
Tree
p128
(dp129
g13
(imyEvolve
Tree
p130
(dp131
g7
I0
sg18
F-4.207952935754964
sg19
I01
sbsg7
I1
sg20
I01
sg21
g79
sbsg24
(imyEvolve
Tree
p132
(dp133
g13
(imyEvolve
Tree
p134
(dp135
g7
I0
sg18
F4.4624295861814325
sg19
I01
sbsg7
I1
sg20
I01
sg21
g79
sbsg20
I00
sg21
g47
sbsg24
(imyEvolve
Tree
p136
(dp137
g13
(imyEvolve
Tree
p138
(dp139
g7
I1
sg8
(imyEvolve
Tree
p140
(dp141
g7
I0
sg19
I00
sbsg24
(imyEvolve
Tree
p142
(dp143
g7
I0
sg18
F-4.71792610329708
sg19
I01
sbsg20
I00
sg21
g52
sbsg7
I2
sg20
I01
sg21
g22
sbsg20
I00
sg21
g47
sbsg24
(imyEvolve
Tree
p144
(dp145
g13
(imyEvolve
Tree
p146
(dp147
g7
I2
sg8
(imyEvolve
Tree
p148
(dp149
g7
I1
sg8
(imyEvolve
Tree
p150
(dp151
g7
I0
sg18
F0.05857164598846154
sg19
I01
sbsg24
(imyEvolve
Tree
p152
(dp153
g7
I0
sg18
F2.694399063243117
sg19
I01
sbsg20
I00
sg21
g52
sbsg24
(imyEvolve
Tree
p154
(dp155
g7
I1
sg8
(imyEvolve
Tree
p156
(dp157
g7
I0
sg18
F-1.7613188855607587
sg19
I01
sbsg24
(imyEvolve
Tree
p158
(dp159
g7
I0
sg18
F-4.466728653212172
sg19
I01
sbsg20
I00
sg21
g47
sbsg20
I00
sg21
g47
sbsg7
I3
sg20
I01
sg21
g23
sbsg20
I00
sg21
g52
sbsg24
(imyEvolve
Tree
p160
(dp161
g13
(imyEvolve
Tree
p162
(dp163
g7
I3
sg8
(imyEvolve
Tree
p164
(dp165
g13
(imyEvolve
Tree
p166
(dp167
g7
I1
sg8
(imyEvolve
Tree
p168
(dp169
g7
I0
sg18
F2.9703996599581846
sg19
I01
sbsg24
(imyEvolve
Tree
p170
(dp171
g7
I0
sg19
I00
sbsg20
I00
sg21
g47
sbsg7
I2
sg20
I01
sg21
g22
sbsg24
(imyEvolve
Tree
p172
(dp173
g13
(imyEvolve
Tree
p174
(dp175
g13
(imyEvolve
Tree
p176
(dp177
g7
I0
sg19
I00
sbsg7
I1
sg20
I01
sg21
g79
sbsg7
I2
sg20
I01
sg21
g22
sbsg20
I00
sg21
g52
sbsg7
I4
sg20
I01
sg21
g35
sbsg20
I00
sg21
g52
sba(imyEvolve
Tree
p178
(dp179
g13
(imyEvolve
Tree
p180
(dp181
g13
(imyEvolve
Tree
p182
(dp183
g7
I2
sg8
(imyEvolve
Tree
p184
(dp185
g13
(imyEvolve
Tree
p186
(dp187
g7
I0
sg19
I00
sbsg7
I1
sg20
I01
sg21
g22
sbsg24
(imyEvolve
Tree
p188
(dp189
g7
I1
sg8
(imyEvolve
Tree
p190
(dp191
g7
I0
sg18
F4.261927640904206
sg19
I01
sbsg24
(imyEvolve
Tree
p192
(dp193
g7
I0
sg18
F-0.694174170443107
sg19
I01
sbsg20
I00
sg21
g36
sbsg20
I00
sg21
g52
sbsg7
I3
sg20
I01
sg21
g22
sbsg7
I4
sg20
I01
sg21
g35
sba(imyEvolve
Tree
p194
(dp195
g7
I5
sg8
(imyEvolve
Tree
p196
(dp197
g7
I4
sg8
(imyEvolve
Tree
p198
(dp199
g7
I3
sg8
(imyEvolve
Tree
p200
(dp201
g13
(imyEvolve
Tree
p202
(dp203
g13
(imyEvolve
Tree
p204
(dp205
g7
I0
sg19
I00
sbsg7
I1
sg20
I01
sg21
g23
sbsg7
I2
sg20
I01
sg21
g35
sbsg24
(imyEvolve
Tree
p206
(dp207
g13
(imyEvolve
Tree
p208
(dp209
g13
(imyEvolve
Tree
p210
(dp211
g7
I0
sg18
F-4.509058355904348
sg19
I01
sbsg7
I1
sg20
I01
sg21
g23
sbsg7
I2
sg20
I01
sg21
g22
sbsg20
I00
sg21
g47
sbsg24
(imyEvolve
Tree
p212
(dp213
g13
(imyEvolve
Tree
p214
(dp215
g7
I2
sg8
(imyEvolve
Tree
p216
(dp217
g7
I1
sg8
(imyEvolve
Tree
p218
(dp219
g7
I0
sg18
F0.22019875341700335
sg19
I01
sbsg24
(imyEvolve
Tree
p220
(dp221
g7
I0
sg19
I00
sbsg20
I00
sg21
g47
sbsg24
(imyEvolve
Tree
p222
(dp223
g13
(imyEvolve
Tree
p224
(dp225
g7
I0
sg18
F3.1969613552755565
sg19
I01
sbsg7
I1
sg20
I01
sg21
g79
sbsg20
I00
sg21
g47
sbsg7
I3
sg20
I01
sg21
g35
sbsg20
I00
sg21
g47
sbsg24
(imyEvolve
Tree
p226
(dp227
g7
I4
sg8
(imyEvolve
Tree
p228
(dp229
g13
(imyEvolve
Tree
p230
(dp231
g13
(imyEvolve
Tree
p232
(dp233
g13
(imyEvolve
Tree
p234
(dp235
g7
I0
sg19
I00
sbsg7
I1
sg20
I01
sg21
g22
sbsg7
I2
sg20
I01
sg21
g35
sbsg7
I3
sg20
I01
sg21
g79
sbsg24
(imyEvolve
Tree
p236
(dp237
g13
(imyEvolve
Tree
p238
(dp239
g7
I2
sg8
(imyEvolve
Tree
p240
(dp241
g13
(imyEvolve
Tree
p242
(dp243
g7
I0
sg19
I00
sbsg7
I1
sg20
I01
sg21
g35
sbsg24
(imyEvolve
Tree
p244
(dp245
g13
(imyEvolve
Tree
p246
(dp247
g7
I0
sg18
F2.939389231965123
sg19
I01
sbsg7
I1
sg20
I01
sg21
g22
sbsg20
I00
sg21
g52
sbsg7
I3
sg20
I01
sg21
g79
sbsg20
I00
sg21
g47
sbsg20
I00
sg21
g47
sba(imyEvolve
Tree
p248
(dp249
g7
I3
sg8
(imyEvolve
Tree
p250
(dp251
g7
I2
sg8
(imyEvolve
Tree
p252
(dp253
g13
(imyEvolve
Tree
p254
(dp255
g7
I0
sg19
I00
sbsg7
I1
sg20
I01
sg21
g23
sbsg24
(imyEvolve
Tree
p256
(dp257
g7
I1
sg8
(imyEvolve
Tree
p258
(dp259
g7
I0
sg18
F-3.2497263679298394
sg19
I01
sbsg24
(imyEvolve
Tree
p260
(dp261
g7
I0
sg18
F4.029048909182153
sg19
I01
sbsg20
I00
sg21
g36
sbsg20
I00
sg21
g52
sbsg24
(imyEvolve
Tree
p262
(dp263
g7
I2
sg8
(imyEvolve
Tree
p264
(dp265
g13
(imyEvolve
Tree
p266
(dp267
g7
I0
sg18
F2.57976106527829
sg19
I01
sbsg7
I1
sg20
I01
sg21
g35
sbsg24
(imyEvolve
Tree
p268
(dp269
g7
I1
sg8
(imyEvolve
Tree
p270
(dp271
g7
I0
sg18
F3.9721235096724037
sg19
I01
sbsg24
(imyEvolve
Tree
p272
(dp273
g7
I0
sg18
F4.51984337487923
sg19
I01
sbsg20
I00
sg21
g47
sbsg20
I00
sg21
g36
sbsg20
I00
sg21
g36
sba(imyEvolve
Tree
p274
(dp275
g13
(imyEvolve
Tree
p276
(dp277
g13
(imyEvolve
Tree
p278
(dp279
g13
(imyEvolve
Tree
p280
(dp281
g7
I0
sg18
F-3.4471360706244134
sg19
I01
sbsg7
I1
sg20
I01
sg21
g79
sbsg7
I2
sg20
I01
sg21
g79
sbsg7
I3
sg20
I01
sg21
g79
sba(imyEvolve
Tree
p282
(dp283
g7
I5
sg8
(imyEvolve
Tree
p284
(dp285
g13
(imyEvolve
Tree
p286
(dp287
g7
I3
sg8
(imyEvolve
Tree
p288
(dp289
g13
(imyEvolve
Tree
p290
(dp291
g7
I1
sg8
(imyEvolve
Tree
p292
(dp293
g7
I0
sg18
F1.4952256869597482
sg19
I01
sbsg24
(imyEvolve
Tree
p294
(dp295
g7
I0
sg19
I00
sbsg20
I00
sg21
g52
sbsg7
I2
sg20
I01
sg21
g35
sbsg24
(imyEvolve
Tree
p296
(dp297
g13
(imyEvolve
Tree
p298
(dp299
g7
I1
sg8
(imyEvolve
Tree
p300
(dp301
g7
I0
sg18
F3.9192301273043046
sg19
I01
sbsg24
(imyEvolve
Tree
p302
(dp303
g7
I0
sg18
F0.5957871639899457
sg19
I01
sbsg20
I00
sg21
g47
sbsg7
I2
sg20
I01
sg21
g23
sbsg20
I00
sg21
g36
sbsg7
I4
sg20
I01
sg21
g35
sbsg24
(imyEvolve
Tree
p304
(dp305
g7
I4
sg8
(imyEvolve
Tree
p306
(dp307
g13
(imyEvolve
Tree
p308
(dp309
g7
I2
sg8
(imyEvolve
Tree
p310
(dp311
g13
(imyEvolve
Tree
p312
(dp313
g7
I0
sg18
F-2.3586714449805344
sg19
I01
sbsg7
I1
sg20
I01
sg21
g79
sbsg24
(imyEvolve
Tree
p314
(dp315
g7
I1
sg8
(imyEvolve
Tree
p316
(dp317
g7
I0
sg18
F3.050256807081851
sg19
I01
sbsg24
(imyEvolve
Tree
p318
(dp319
g7
I0
sg18
F-1.0460392091260449
sg19
I01
sbsg20
I00
sg21
g47
sbsg20
I00
sg21
g47
sbsg7
I3
sg20
I01
sg21
g22
sbsg24
(imyEvolve
Tree
p320
(dp321
g7
I3
sg8
(imyEvolve
Tree
p322
(dp323
g13
(imyEvolve
Tree
p324
(dp325
g13
(imyEvolve
Tree
p326
(dp327
g7
I0
sg18
F3.0981863032543853
sg19
I01
sbsg7
I1
sg20
I01
sg21
g79
sbsg7
I2
sg20
I01
sg21
g23
sbsg24
(imyEvolve
Tree
p328
(dp329
g13
(imyEvolve
Tree
p330
(dp331
g13
(imyEvolve
Tree
p332
(dp333
g7
I0
sg19
I00
sbsg7
I1
sg20
I01
sg21
g22
sbsg7
I2
sg20
I01
sg21
g79
sbsg20
I00
sg21
g47
sbsg20
I00
sg21
g36
sbsg20
I00
sg21
g47
sba(imyEvolve
Tree
p334
(dp335
g13
(imyEvolve
Tree
p336
(dp337
g13
(imyEvolve
Tree
p338
(dp339
g13
(imyEvolve
Tree
p340
(dp341
g7
I0
sg18
F1.9444783233287044
sg19
I01
sbsg7
I1
sg20
I01
sg21
g79
sbsg7
I2
sg20
I01
sg21
g23
sbsg7
I3
sg20
I01
sg21
g79
sba(imyEvolve
Tree
p342
(dp343
g13
(imyEvolve
Tree
p344
(dp345
g13
(imyEvolve
Tree
p346
(dp347
g13
(imyEvolve
Tree
p348
(dp349
g7
I1
sg8
(imyEvolve
Tree
p350
(dp351
g7
I0
sg19
I00
sbsg24
(imyEvolve
Tree
p352
(dp353
g7
I0
sg18
F2.763552228622479
sg19
I01
sbsg20
I00
sg21
g36
sbsg7
I2
sg20
I01
sg21
g79
sbsg7
I3
sg20
I01
sg21
g79
sbsg7
I4
sg20
I01
sg21
g23
sba(imyEvolve
Tree
p354
(dp355
g13
(imyEvolve
Tree
p356
(dp357
g13
(imyEvolve
Tree
p358
(dp359
g7
I3
sg8
(imyEvolve
Tree
p360
(dp361
g13
(imyEvolve
Tree
p362
(dp363
g7
I1
sg8
(imyEvolve
Tree
p364
(dp365
g7
I0
sg18
F3.307950010159198
sg19
I01
sbsg24
(imyEvolve
Tree
p366
(dp367
g7
I0
sg19
I00
sbsg20
I00
sg21
g47
sbsg7
I2
sg20
I01
sg21
g23
sbsg24
(imyEvolve
Tree
p368
(dp369
g7
I2
sg8
(imyEvolve
Tree
p370
(dp371
g13
(imyEvolve
Tree
p372
(dp373
g7
I0
sg18
F-3.2652604941228933
sg19
I01
sbsg7
I1
sg20
I01
sg21
g79
sbsg24
(imyEvolve
Tree
p374
(dp375
g13
(imyEvolve
Tree
p376
(dp377
g7
I0
sg18
F-2.2741231218737026
sg19
I01
sbsg7
I1
sg20
I01
sg21
g79
sbsg20
I00
sg21
g47
sbsg20
I00
sg21
g36
sbsg7
I4
sg20
I01
sg21
g35
sbsg7
I5
sg20
I01
sg21
g23
sba(imyEvolve
Tree
p378
(dp379
g13
(imyEvolve
Tree
p380
(dp381
g13
(imyEvolve
Tree
p382
(dp383
g7
I1
sg8
(imyEvolve
Tree
p384
(dp385
g7
I0
sg18
F-4.552294261863493
sg19
I01
sbsg24
(imyEvolve
Tree
p386
(dp387
g7
I0
sg18
F-3.2522969572043934
sg19
I01
sbsg20
I00
sg21
g47
sbsg7
I2
sg20
I01
sg21
g22
sbsg7
I3
sg20
I01
sg21
g22
sba(imyEvolve
Tree
p388
(dp389
g7
I4
sg8
(imyEvolve
Tree
p390
(dp391
g7
I3
sg8
(imyEvolve
Tree
p392
(dp393
g7
I2
sg8
(imyEvolve
Tree
p394
(dp395
g7
I1
sg8
(imyEvolve
Tree
p396
(dp397
g7
I0
sg19
I00
sbsg24
(imyEvolve
Tree
p398
(dp399
g7
I0
sg18
F0.924584598129707
sg19
I01
sbsg20
I00
sg21
g52
sbsg24
(imyEvolve
Tree
p400
(dp401
g7
I1
sg8
(imyEvolve
Tree
p402
(dp403
g7
I0
sg19
I00
sbsg24
(imyEvolve
Tree
p404
(dp405
g7
I0
sg18
F-3.3977158975815724
sg19
I01
sbsg20
I00
sg21
g52
sbsg20
I00
sg21
g47
sbsg24
(imyEvolve
Tree
p406
(dp407
g13
(imyEvolve
Tree
p408
(dp409
g7
I1
sg8
(imyEvolve
Tree
p410
(dp411
g7
I0
sg18
F-3.6353119878050757
sg19
I01
sbsg24
(imyEvolve
Tree
p412
(dp413
g7
I0
sg19
I00
sbsg20
I00
sg21
g47
sbsg7
I2
sg20
I01
sg21
g23
sbsg20
I00
sg21
g52
sbsg24
(imyEvolve
Tree
p414
(dp415
g7
I3
sg8
(imyEvolve
Tree
p416
(dp417
g13
(imyEvolve
Tree
p418
(dp419
g7
I1
sg8
(imyEvolve
Tree
p420
(dp421
g7
I0
sg19
I00
sbsg24
(imyEvolve
Tree
p422
(dp423
g7
I0
sg18
F2.589254902495904
sg19
I01
sbsg20
I00
sg21
g36
sbsg7
I2
sg20
I01
sg21
g23
sbsg24
(imyEvolve
Tree
p424
(dp425
g7
I2
sg8
(imyEvolve
Tree
p426
(dp427
g13
(imyEvolve
Tree
p428
(dp429
g7
I0
sg19
I00
sbsg7
I1
sg20
I01
sg21
g22
sbsg24
(imyEvolve
Tree
p430
(dp431
g7
I1
sg8
(imyEvolve
Tree
p432
(dp433
g7
I0
sg18
F-2.818472840685554
sg19
I01
sbsg24
(imyEvolve
Tree
p434
(dp435
g7
I0
sg19
I00
sbsg20
I00
sg21
g52
sbsg20
I00
sg21
g52
sbsg20
I00
sg21
g52
sbsg20
I00
sg21
g52
sba(imyEvolve
Tree
p436
(dp437
g7
I5
sg8
(imyEvolve
Tree
p438
(dp439
g7
I4
sg8
(imyEvolve
Tree
p440
(dp441
g13
(imyEvolve
Tree
p442
(dp443
g13
(imyEvolve
Tree
p444
(dp445
g7
I1
sg8
(imyEvolve
Tree
p446
(dp447
g7
I0
sg18
F-4.675198640913839
sg19
I01
sbsg24
(imyEvolve
Tree
p448
(dp449
g7
I0
sg18
F1.2704161272772696
sg19
I01
sbsg20
I00
sg21
g36
sbsg7
I2
sg20
I01
sg21
g79
sbsg7
I3
sg20
I01
sg21
g79
sbsg24
(imyEvolve
Tree
p450
(dp451
g13
(imyEvolve
Tree
p452
(dp453
g13
(imyEvolve
Tree
p454
(dp455
g13
(imyEvolve
Tree
p456
(dp457
g7
I0
sg18
F3.139552078901133
sg19
I01
sbsg7
I1
sg20
I01
sg21
g23
sbsg7
I2
sg20
I01
sg21
g23
sbsg7
I3
sg20
I01
sg21
g22
sbsg20
I00
sg21
g36
sbsg24
(imyEvolve
Tree
p458
(dp459
g7
I4
sg8
(imyEvolve
Tree
p460
(dp461
g7
I3
sg8
(imyEvolve
Tree
p462
(dp463
g7
I2
sg8
(imyEvolve
Tree
p464
(dp465
g13
(imyEvolve
Tree
p466
(dp467
g7
I0
sg19
I00
sbsg7
I1
sg20
I01
sg21
g23
sbsg24
(imyEvolve
Tree
p468
(dp469
g13
(imyEvolve
Tree
p470
(dp471
g7
I0
sg19
I00
sbsg7
I1
sg20
I01
sg21
g35
sbsg20
I00
sg21
g36
sbsg24
(imyEvolve
Tree
p472
(dp473
g7
I2
sg8
(imyEvolve
Tree
p474
(dp475
g13
(imyEvolve
Tree
p476
(dp477
g7
I0
sg19
I00
sbsg7
I1
sg20
I01
sg21
g35
sbsg24
(imyEvolve
Tree
p478
(dp479
g7
I1
sg8
(imyEvolve
Tree
p480
(dp481
g7
I0
sg18
F-4.122909650782751
sg19
I01
sbsg24
(imyEvolve
Tree
p482
(dp483
g7
I0
sg18
F0.3940939783080797
sg19
I01
sbsg20
I00
sg21
g47
sbsg20
I00
sg21
g36
sbsg20
I00
sg21
g36
sbsg24
(imyEvolve
Tree
p484
(dp485
g7
I3
sg8
(imyEvolve
Tree
p486
(dp487
g7
I2
sg8
(imyEvolve
Tree
p488
(dp489
g7
I1
sg8
(imyEvolve
Tree
p490
(dp491
g7
I0
sg18
F4.983482308924035
sg19
I01
sbsg24
(imyEvolve
Tree
p492
(dp493
g7
I0
sg18
F2.2536637505453605
sg19
I01
sbsg20
I00
sg21
g36
sbsg24
(imyEvolve
Tree
p494
(dp495
g13
(imyEvolve
Tree
p496
(dp497
g7
I0
sg19
I00
sbsg7
I1
sg20
I01
sg21
g35
sbsg20
I00
sg21
g47
sbsg24
(imyEvolve
Tree
p498
(dp499
g7
I2
sg8
(imyEvolve
Tree
p500
(dp501
g7
I1
sg8
(imyEvolve
Tree
p502
(dp503
g7
I0
sg19
I00
sbsg24
(imyEvolve
Tree
p504
(dp505
g7
I0
sg18
F0.815895974878373
sg19
I01
sbsg20
I00
sg21
g52
sbsg24
(imyEvolve
Tree
p506
(dp507
g13
(imyEvolve
Tree
p508
(dp509
g7
I0
sg19
I00
sbsg7
I1
sg20
I01
sg21
g35
sbsg20
I00
sg21
g52
sbsg20
I00
sg21
g36
sbsg20
I00
sg21
g52
sbsg20
I00
sg21
g36
sbaa(lp510
(imyEvolve
Tree
p511
(dp512
g13
(imyEvolve
Tree
p513
(dp514
g13
(imyEvolve
Tree
p515
(dp516
g7
I3
sg8
(imyEvolve
Tree
p517
(dp518
g13
(imyEvolve
Tree
p519
(dp520
g7
I1
sg8
(imyEvolve
Tree
p521
(dp522
g7
I0
sg19
I00
sbsg24
(imyEvolve
Tree
p523
(dp524
g7
I0
sg19
I00
sbsg20
I00
sg21
g36
sbsg7
I2
sg20
I01
sg21
g35
sbsg24
(imyEvolve
Tree
p525
(dp526
g13
(imyEvolve
Tree
p527
(dp528
g7
I1
sg8
(imyEvolve
Tree
p529
(dp530
g7
I0
sg18
F-2.3401904408315612
sg19
I01
sbsg24
(imyEvolve
Tree
p531
(dp532
g7
I0
sg19
I00
sbsg20
I00
sg21
g52
sbsg7
I2
sg20
I01
sg21
g23
sbsg20
I00
sg21
g47
sbsg7
I4
sg20
I01
sg21
g79
sbsg7
I5
sg20
I01
sg21
g22
sba(imyEvolve
Tree
p533
(dp534
g7
I5
sg8
(imyEvolve
Tree
p535
(dp536
g7
I4
sg8
(imyEvolve
Tree
p537
(dp538
g13
(imyEvolve
Tree
p539
(dp540
g13
(imyEvolve
Tree
p541
(dp542
g13
(imyEvolve
Tree
p543
(dp544
g7
I0
sg18
F1.828096162424445
sg19
I01
sbsg7
I1
sg20
I01
sg21
g35
sbsg7
I2
sg20
I01
sg21
g23
sbsg7
I3
sg20
I01
sg21
g79
sbsg24
(imyEvolve
Tree
p545
(dp546
g7
I3
sg8
(imyEvolve
Tree
p547
(dp548
g7
I2
sg8
(imyEvolve
Tree
p549
(dp550
g7
I1
sg8
(imyEvolve
Tree
p551
(dp552
g7
I0
sg18
F0.29002939744916834
sg19
I01
sbsg24
(imyEvolve
Tree
p553
(dp554
g7
I0
sg18
F-2.142711685868547
sg19
I01
sbsg20
I00
sg21
g36
sbsg24
(imyEvolve
Tree
p555
(dp556
g7
I1
sg8
(imyEvolve
Tree
p557
(dp558
g7
I0
sg19
I00
sbsg24
(imyEvolve
Tree
p559
(dp560
g7
I0
sg18
F-3.0341747674291284
sg19
I01
sbsg20
I00
sg21
g47
sbsg20
I00
sg21
g47
sbsg24
(imyEvolve
Tree
p561
(dp562
g7
I2
sg8
(imyEvolve
Tree
p563
(dp564
g7
I1
sg8
(imyEvolve
Tree
p565
(dp566
g7
I0
sg18
F-2.8282719015106417
sg19
I01
sbsg24
(imyEvolve
Tree
p567
(dp568
g7
I0
sg18
F-0.925564329488
sg19
I01
sbsg20
I00
sg21
g47
sbsg24
(imyEvolve
Tree
p569
(dp570
g13
(imyEvolve
Tree
p571
(dp572
g7
I0
sg19
I00
sbsg7
I1
sg20
I01
sg21
g23
sbsg20
I00
sg21
g47
sbsg20
I00
sg21
g52
sbsg20
I00
sg21
g52
sbsg24
(imyEvolve
Tree
p573
(dp574
g13
(imyEvolve
Tree
p575
(dp576
g7
I3
sg8
(imyEvolve
Tree
p577
(dp578
g13
(imyEvolve
Tree
p579
(dp580
g7
I1
sg8
(imyEvolve
Tree
p581
(dp582
g7
I0
sg19
I00
sbsg24
(imyEvolve
Tree
p583
(dp584
g7
I0
sg19
I00
sbsg20
I00
sg21
g47
sbsg7
I2
sg20
I01
sg21
g23
sbsg24
(imyEvolve
Tree
p585
(dp586
g7
I2
sg8
(imyEvolve
Tree
p587
(dp588
g7
I1
sg8
(imyEvolve
Tree
p589
(dp590
g7
I0
sg19
I00
sbsg24
(imyEvolve
Tree
p591
(dp592
g7
I0
sg18
F2.8960832148849853
sg19
I01
sbsg20
I00
sg21
g52
sbsg24
(imyEvolve
Tree
p593
(dp594
g7
I1
sg8
(imyEvolve
Tree
p595
(dp596
g7
I0
sg19
I00
sbsg24
(imyEvolve
Tree
p597
(dp598
g7
I0
sg18
F-0.5094326785963492
sg19
I01
sbsg20
I00
sg21
g47
sbsg20
I00
sg21
g47
sbsg20
I00
sg21
g52
sbsg7
I4
sg20
I01
sg21
g79
sbsg20
I00
sg21
g36
sba(imyEvolve
Tree
p599
(dp600
g13
(imyEvolve
Tree
p601
(dp602
g13
(imyEvolve
Tree
p603
(dp604
g7
I1
sg8
(imyEvolve
Tree
p605
(dp606
g7
I0
sg19
I00
sbsg24
(imyEvolve
Tree
p607
(dp608
g7
I0
sg19
I00
sbsg20
I00
sg21
g47
sbsg7
I2
sg20
I01
sg21
g35
sbsg7
I3
sg20
I01
sg21
g79
sba(imyEvolve
Tree
p609
(dp610
g13
(imyEvolve
Tree
p611
(dp612
g13
(imyEvolve
Tree
p613
(dp614
g7
I0
sg18
F-2.222623579543334
sg19
I01
sbsg7
I1
sg20
I01
sg21
g35
sbsg7
I2
sg20
I01
sg21
g35
sba(imyEvolve
Tree
p615
(dp616
g7
I2
sg8
(imyEvolve
Tree
p617
(dp618
g7
I1
sg8
(imyEvolve
Tree
p619
(dp620
g7
I0
sg18
F0.06499586704222438
sg19
I01
sbsg24
(imyEvolve
Tree
p621
(dp622
g7
I0
sg19
I00
sbsg20
I00
sg21
g52
sbsg24
(imyEvolve
Tree
p623
(dp624
g13
(imyEvolve
Tree
p625
(dp626
g7
I0
sg18
F-0.06046523059122855
sg19
I01
sbsg7
I1
sg20
I01
sg21
g22
sbsg20
I00
sg21
g52
sba(imyEvolve
Tree
p627
(dp628
g13
(imyEvolve
Tree
p629
(dp630
g13
(imyEvolve
Tree
p631
(dp632
g7
I2
sg8
(imyEvolve
Tree
p633
(dp634
g13
(imyEvolve
Tree
p635
(dp636
g7
I0
sg19
I00
sbsg7
I1
sg20
I01
sg21
g22
sbsg24
(imyEvolve
Tree
p637
(dp638
g7
I1
sg8
(imyEvolve
Tree
p639
(dp640
g7
I0
sg18
F0.7635121978949524
sg19
I01
sbsg24
(imyEvolve
Tree
p641
(dp642
g7
I0
sg18
F-4.4642991335498605
sg19
I01
sbsg20
I00
sg21
g47
sbsg20
I00
sg21
g52
sbsg7
I3
sg20
I01
sg21
g35
sbsg7
I4
sg20
I01
sg21
g22
sba(imyEvolve
Tree
p643
(dp644
g13
(imyEvolve
Tree
p645
(dp646
g7
I4
sg8
(imyEvolve
Tree
p647
(dp648
g7
I3
sg8
(imyEvolve
Tree
p649
(dp650
g7
I2
sg8
(imyEvolve
Tree
p651
(dp652
g13
(imyEvolve
Tree
p653
(dp654
g7
I0
sg18
F-2.7573770303543355
sg19
I01
sbsg7
I1
sg20
I01
sg21
g23
sbsg24
(imyEvolve
Tree
p655
(dp656
g7
I1
sg8
(imyEvolve
Tree
p657
(dp658
g7
I0
sg18
F-2.3172080669548265
sg19
I01
sbsg24
(imyEvolve
Tree
p659
(dp660
g7
I0
sg19
I00
sbsg20
I00
sg21
g36
sbsg20
I00
sg21
g36
sbsg24
(imyEvolve
Tree
p661
(dp662
g7
I2
sg8
(imyEvolve
Tree
p663
(dp664
g7
I1
sg8
(imyEvolve
Tree
p665
(dp666
g7
I0
sg19
I00
sbsg24
(imyEvolve
Tree
p667
(dp668
g7
I0
sg19
I00
sbsg20
I00
sg21
g36
sbsg24
(imyEvolve
Tree
p669
(dp670
g13
(imyEvolve
Tree
p671
(dp672
g7
I0
sg19
I00
sbsg7
I1
sg20
I01
sg21
g35
sbsg20
I00
sg21
g52
sbsg20
I00
sg21
g47
sbsg24
(imyEvolve
Tree
p673
(dp674
g13
(imyEvolve
Tree
p675
(dp676
g13
(imyEvolve
Tree
p677
(dp678
g7
I1
sg8
(imyEvolve
Tree
p679
(dp680
g7
I0
sg18
F3.580093600793173
sg19
I01
sbsg24
(imyEvolve
Tree
p681
(dp682
g7
I0
sg19
I00
sbsg20
I00
sg21
g52
sbsg7
I2
sg20
I01
sg21
g35
sbsg7
I3
sg20
I01
sg21
g23
sbsg20
I00
sg21
g47
sbsg7
I5
sg20
I01
sg21
g79
sba(imyEvolve
Tree
p683
(dp684
g13
(imyEvolve
Tree
p685
(dp686
g7
I3
sg8
(imyEvolve
Tree
p687
(dp688
g13
(imyEvolve
Tree
p689
(dp690
g13
(imyEvolve
Tree
p691
(dp692
g7
I0
sg19
I00
sbsg7
I1
sg20
I01
sg21
g35
sbsg7
I2
sg20
I01
sg21
g22
sbsg24
(imyEvolve
Tree
p693
(dp694
g13
(imyEvolve
Tree
p695
(dp696
g13
(imyEvolve
Tree
p697
(dp698
g7
I0
sg19
I00
sbsg7
I1
sg20
I01
sg21
g23
sbsg7
I2
sg20
I01
sg21
g79
sbsg20
I00
sg21
g47
sbsg7
I4
sg20
I01
sg21
g79
sba(imyEvolve
Tree
p699
(dp700
g13
(imyEvolve
Tree
p701
(dp702
g13
(imyEvolve
Tree
p703
(dp704
g7
I0
sg18
F-0.5451573144454382
sg19
I01
sbsg7
I1
sg20
I01
sg21
g23
sbsg7
I2
sg20
I01
sg21
g23
sba(imyEvolve
Tree
p705
(dp706
g13
(imyEvolve
Tree
p707
(dp708
g7
I1
sg8
(imyEvolve
Tree
p709
(dp710
g7
I0
sg19
I00
sbsg24
(imyEvolve
Tree
p711
(dp712
g7
I0
sg18
F3.9615552280513526
sg19
I01
sbsg20
I00
sg21
g36
sbsg7
I2
sg20
I01
sg21
g35
sba(imyEvolve
Tree
p713
(dp714
g7
I3
sg8
(imyEvolve
Tree
p715
(dp716
g13
(imyEvolve
Tree
p717
(dp718
g7
I1
sg8
(imyEvolve
Tree
p719
(dp720
g7
I0
sg19
I00
sbsg24
(imyEvolve
Tree
p721
(dp722
g7
I0
sg19
I00
sbsg20
I00
sg21
g52
sbsg7
I2
sg20
I01
sg21
g35
sbsg24
(imyEvolve
Tree
p723
(dp724
g7
I2
sg8
(imyEvolve
Tree
p725
(dp726
g13
(imyEvolve
Tree
p727
(dp728
g7
I0
sg19
I00
sbsg7
I1
sg20
I01
sg21
g79
sbsg24
(imyEvolve
Tree
p729
(dp730
g13
(imyEvolve
Tree
p731
(dp732
g7
I0
sg19
I00
sbsg7
I1
sg20
I01
sg21
g22
sbsg20
I00
sg21
g47
sbsg20
I00
sg21
g52
sba(imyEvolve
Tree
p733
(dp734
g7
I3
sg8
(imyEvolve
Tree
p735
(dp736
g13
(imyEvolve
Tree
p737
(dp738
g13
(imyEvolve
Tree
p739
(dp740
g7
I0
sg18
F-1.0904804159805792
sg19
I01
sbsg7
I1
sg20
I01
sg21
g22
sbsg7
I2
sg20
I01
sg21
g35
sbsg24
(imyEvolve
Tree
p741
(dp742
g7
I2
sg8
(imyEvolve
Tree
p743
(dp744
g7
I1
sg8
(imyEvolve
Tree
p745
(dp746
g7
I0
sg18
F3.44604450515164
sg19
I01
sbsg24
(imyEvolve
Tree
p747
(dp748
g7
I0
sg19
I00
sbsg20
I00
sg21
g52
sbsg24
(imyEvolve
Tree
p749
(dp750
g7
I1
sg8
(imyEvolve
Tree
p751
(dp752
g7
I0
sg18
F-2.465466127431376
sg19
I01
sbsg24
(imyEvolve
Tree
p753
(dp754
g7
I0
sg19
I00
sbsg20
I00
sg21
g47
sbsg20
I00
sg21
g36
sbsg20
I00
sg21
g52
sba(imyEvolve
Tree
p755
(dp756
g7
I3
sg8
(imyEvolve
Tree
p757
(dp758
g7
I2
sg8
(imyEvolve
Tree
p759
(dp760
g7
I1
sg8
(imyEvolve
Tree
p761
(dp762
g7
I0
sg19
I00
sbsg24
(imyEvolve
Tree
p763
(dp764
g7
I0
sg19
I00
sbsg20
I00
sg21
g52
sbsg24
(imyEvolve
Tree
p765
(dp766
g7
I1
sg8
(imyEvolve
Tree
p767
(dp768
g7
I0
sg18
F0.19859452140361444
sg19
I01
sbsg24
(imyEvolve
Tree
p769
(dp770
g7
I0
sg19
I00
sbsg20
I00
sg21
g47
sbsg20
I00
sg21
g47
sbsg24
(imyEvolve
Tree
p771
(dp772
g13
(imyEvolve
Tree
p773
(dp774
g7
I1
sg8
(imyEvolve
Tree
p775
(dp776
g7
I0
sg18
F4.562538623639332
sg19
I01
sbsg24
(imyEvolve
Tree
p777
(dp778
g7
I0
sg19
I00
sbsg20
I00
sg21
g36
sbsg7
I2
sg20
I01
sg21
g22
sbsg20
I00
sg21
g52
sbaasS'weightSharing'
p779
(lp780
I00
aI00
asS'fitnessValid'
p781
I00
sS'fitness'
p782
cnumpy.core.multiarray
scalar
p783
(cnumpy
dtype
p784
(S'f8'
p785
I0
I1
tp786
Rp787
(I3
S'<'
p788
NNNI-1
I-1
I0
tp789
bS'\x00\xee\xc9\xc3\xee\xdfQ\xbf'
p790
tp791
Rp792
sS'alpha'
p793
F0.00661417608711591
sS'resolution'
p794
I92
sb.