(imyEvolve
Individual
p0
(dp1
S'funcs'
p2
(lp3
(lp4
(imyEvolve
Tree
p5
(dp6
S'depth'
p7
I4
sS'left'
p8
(imyEvolve
Tree
p9
(dp10
g7
I3
sg8
(imyEvolve
Tree
p11
(dp12
g7
I2
sg8
(imyEvolve
Tree
p13
(dp14
S'below'
p15
(imyEvolve
Tree
p16
(dp17
g7
I0
sS'constant'
p18
F-3.923823390290319
sS'isConstant'
p19
I01
sbsg7
I1
sS'single'
p20
I01
sS'op'
p21
cmath
cos
p22
sbsS'right'
p23
(imyEvolve
Tree
p24
(dp25
g7
I1
sg8
(imyEvolve
Tree
p26
(dp27
g7
I0
sg19
I00
sbsg23
(imyEvolve
Tree
p28
(dp29
g7
I0
sg18
F-2.156527696737691
sg19
I01
sbsg20
I00
sg21
coperator
add
p30
sbsg20
I00
sg21
coperator
sub
p31
sbsg23
(imyEvolve
Tree
p32
(dp33
g15
(imyEvolve
Tree
p34
(dp35
g15
(imyEvolve
Tree
p36
(dp37
g7
I0
sg18
F2.256800217205295
sg19
I01
sbsg7
I1
sg20
I01
sg21
cmath
sin
p38
sbsg7
I2
sg20
I01
sg21
cmyEvolve
square
p39
sbsg20
I00
sg21
coperator
mul
p40
sbsg23
(imyEvolve
Tree
p41
(dp42
g7
I3
sg8
(imyEvolve
Tree
p43
(dp44
g15
(imyEvolve
Tree
p45
(dp46
g7
I1
sg8
(imyEvolve
Tree
p47
(dp48
g7
I0
sg18
F0.34364756056134915
sg19
I01
sbsg23
(imyEvolve
Tree
p49
(dp50
g7
I0
sg18
F3.7879896065823644
sg19
I01
sbsg20
I00
sg21
g30
sbsg7
I2
sg20
I01
sg21
g22
sbsg23
(imyEvolve
Tree
p51
(dp52
g15
(imyEvolve
Tree
p53
(dp54
g15
(imyEvolve
Tree
p55
(dp56
g7
I0
sg18
F-2.346321113459482
sg19
I01
sbsg7
I1
sg20
I01
sg21
g38
sbsg7
I2
sg20
I01
sg21
g38
sbsg20
I00
sg21
g31
sbsg20
I00
sg21
g30
sba(imyEvolve
Tree
p57
(dp58
g15
(imyEvolve
Tree
p59
(dp60
g15
(imyEvolve
Tree
p61
(dp62
g7
I0
sg19
I00
sbsg7
I1
sg20
I01
sg21
g22
sbsg7
I2
sg20
I01
sg21
g39
sba(imyEvolve
Tree
p63
(dp64
g7
I4
sg8
(imyEvolve
Tree
p65
(dp66
g15
(imyEvolve
Tree
p67
(dp68
g7
I2
sg8
(imyEvolve
Tree
p69
(dp70
g7
I1
sg8
(imyEvolve
Tree
p71
(dp72
g7
I0
sg19
I00
sbsg23
(imyEvolve
Tree
p73
(dp74
g7
I0
sg19
I00
sbsg20
I00
sg21
g31
sbsg23
(imyEvolve
Tree
p75
(dp76
g7
I1
sg8
(imyEvolve
Tree
p77
(dp78
g7
I0
sg19
I00
sbsg23
(imyEvolve
Tree
p79
(dp80
g7
I0
sg18
F4.58312983109608
sg19
I01
sbsg20
I00
sg21
g30
sbsg20
I00
sg21
g31
sbsg7
I3
sg20
I01
sg21
cmyEvolve
absSqrt
p81
sbsg23
(imyEvolve
Tree
p82
(dp83
g15
(imyEvolve
Tree
p84
(dp85
g15
(imyEvolve
Tree
p86
(dp87
g15
(imyEvolve
Tree
p88
(dp89
g7
I0
sg19
I00
sbsg7
I1
sg20
I01
sg21
g39
sbsg7
I2
sg20
I01
sg21
g39
sbsg7
I3
sg20
I01
sg21
g81
sbsg20
I00
sg21
g31
sba(imyEvolve
Tree
p90
(dp91
g7
I2
sg8
(imyEvolve
Tree
p92
(dp93
g15
(imyEvolve
Tree
p94
(dp95
g7
I0
sg18
F0.74449683409473
sg19
I01
sbsg7
I1
sg20
I01
sg21
g81
sbsg23
(imyEvolve
Tree
p96
(dp97
g7
I1
sg8
(imyEvolve
Tree
p98
(dp99
g7
I0
sg18
F3.9260916672601773
sg19
I01
sbsg23
(imyEvolve
Tree
p100
(dp101
g7
I0
sg18
F-3.5478754211666477
sg19
I01
sbsg20
I00
sg21
g31
sbsg20
I00
sg21
g31
sba(imyEvolve
Tree
p102
(dp103
g15
(imyEvolve
Tree
p104
(dp105
g15
(imyEvolve
Tree
p106
(dp107
g7
I3
sg8
(imyEvolve
Tree
p108
(dp109
g7
I2
sg8
(imyEvolve
Tree
p110
(dp111
g7
I1
sg8
(imyEvolve
Tree
p112
(dp113
g7
I0
sg19
I00
sbsg23
(imyEvolve
Tree
p114
(dp115
g7
I0
sg18
F2.7950500135540484
sg19
I01
sbsg20
I00
sg21
g31
sbsg23
(imyEvolve
Tree
p116
(dp117
g7
I1
sg8
(imyEvolve
Tree
p118
(dp119
g7
I0
sg18
F-1.9217209496231114
sg19
I01
sbsg23
(imyEvolve
Tree
p120
(dp121
g7
I0
sg18
F-3.2852011596919595
sg19
I01
sbsg20
I00
sg21
g31
sbsg20
I00
sg21
g30
sbsg23
(imyEvolve
Tree
p122
(dp123
g15
(imyEvolve
Tree
p124
(dp125
g7
I1
sg8
(imyEvolve
Tree
p126
(dp127
g7
I0
sg18
F0.43982518407800786
sg19
I01
sbsg23
(imyEvolve
Tree
p128
(dp129
g7
I0
sg19
I00
sbsg20
I00
sg21
g30
sbsg7
I2
sg20
I01
sg21
g38
sbsg20
I00
sg21
g40
sbsg7
I4
sg20
I01
sg21
g38
sbsg7
I5
sg20
I01
sg21
g39
sba(imyEvolve
Tree
p130
(dp131
g15
(imyEvolve
Tree
p132
(dp133
g7
I4
sg8
(imyEvolve
Tree
p134
(dp135
g15
(imyEvolve
Tree
p136
(dp137
g15
(imyEvolve
Tree
p138
(dp139
g15
(imyEvolve
Tree
p140
(dp141
g7
I0
sg18
F0.9001688326109205
sg19
I01
sbsg7
I1
sg20
I01
sg21
g22
sbsg7
I2
sg20
I01
sg21
g38
sbsg7
I3
sg20
I01
sg21
g39
sbsg23
(imyEvolve
Tree
p142
(dp143
g7
I3
sg8
(imyEvolve
Tree
p144
(dp145
g15
(imyEvolve
Tree
p146
(dp147
g15
(imyEvolve
Tree
p148
(dp149
g7
I0
sg18
F0.6423359646411395
sg19
I01
sbsg7
I1
sg20
I01
sg21
g22
sbsg7
I2
sg20
I01
sg21
g39
sbsg23
(imyEvolve
Tree
p150
(dp151
g15
(imyEvolve
Tree
p152
(dp153
g15
(imyEvolve
Tree
p154
(dp155
g7
I0
sg18
F4.803768563326502
sg19
I01
sbsg7
I1
sg20
I01
sg21
g22
sbsg7
I2
sg20
I01
sg21
g22
sbsg20
I00
sg21
g31
sbsg20
I00
sg21
g30
sbsg7
I5
sg20
I01
sg21
g38
sba(imyEvolve
Tree
p156
(dp157
g7
I3
sg8
(imyEvolve
Tree
p158
(dp159
g7
I2
sg8
(imyEvolve
Tree
p160
(dp161
g7
I1
sg8
(imyEvolve
Tree
p162
(dp163
g7
I0
sg19
I00
sbsg23
(imyEvolve
Tree
p164
(dp165
g7
I0
sg19
I00
sbsg20
I00
sg21
g30
sbsg23
(imyEvolve
Tree
p166
(dp167
g7
I1
sg8
(imyEvolve
Tree
p168
(dp169
g7
I0
sg18
F-4.156231221984527
sg19
I01
sbsg23
(imyEvolve
Tree
p170
(dp171
g7
I0
sg19
I00
sbsg20
I00
sg21
g31
sbsg20
I00
sg21
g31
sbsg23
(imyEvolve
Tree
p172
(dp173
g7
I2
sg8
(imyEvolve
Tree
p174
(dp175
g15
(imyEvolve
Tree
p176
(dp177
g7
I0
sg19
I00
sbsg7
I1
sg20
I01
sg21
g22
sbsg23
(imyEvolve
Tree
p178
(dp179
g7
I1
sg8
(imyEvolve
Tree
p180
(dp181
g7
I0
sg18
F-2.031705232300709
sg19
I01
sbsg23
(imyEvolve
Tree
p182
(dp183
g7
I0
sg18
F1.6678584800005503
sg19
I01
sbsg20
I00
sg21
g40
sbsg20
I00
sg21
g31
sbsg20
I00
sg21
g40
sba(imyEvolve
Tree
p184
(dp185
g7
I3
sg8
(imyEvolve
Tree
p186
(dp187
g15
(imyEvolve
Tree
p188
(dp189
g7
I1
sg8
(imyEvolve
Tree
p190
(dp191
g7
I0
sg18
F-0.45254345488587955
sg19
I01
sbsg23
(imyEvolve
Tree
p192
(dp193
g7
I0
sg18
F2.1144608706633257
sg19
I01
sbsg20
I00
sg21
g30
sbsg7
I2
sg20
I01
sg21
g39
sbsg23
(imyEvolve
Tree
p194
(dp195
g15
(imyEvolve
Tree
p196
(dp197
g15
(imyEvolve
Tree
p198
(dp199
g7
I0
sg18
F1.0044822951412593
sg19
I01
sbsg7
I1
sg20
I01
sg21
g81
sbsg7
I2
sg20
I01
sg21
g38
sbsg20
I00
sg21
g30
sba(imyEvolve
Tree
p200
(dp201
g15
(imyEvolve
Tree
p202
(dp203
g15
(imyEvolve
Tree
p204
(dp205
g7
I0
sg18
F0.30641839535515825
sg19
I01
sbsg7
I1
sg20
I01
sg21
g22
sbsg7
I2
sg20
I01
sg21
g22
sba(imyEvolve
Tree
p206
(dp207
g15
(imyEvolve
Tree
p208
(dp209
g15
(imyEvolve
Tree
p210
(dp211
g15
(imyEvolve
Tree
p212
(dp213
g7
I2
sg8
(imyEvolve
Tree
p214
(dp215
g7
I1
sg8
(imyEvolve
Tree
p216
(dp217
g7
I0
sg19
I00
sbsg23
(imyEvolve
Tree
p218
(dp219
g7
I0
sg18
F-0.332994700474182
sg19
I01
sbsg20
I00
sg21
g31
sbsg23
(imyEvolve
Tree
p220
(dp221
g7
I1
sg8
(imyEvolve
Tree
p222
(dp223
g7
I0
sg18
F-2.268775290288988
sg19
I01
sbsg23
(imyEvolve
Tree
p224
(dp225
g7
I0
sg19
I00
sbsg20
I00
sg21
g30
sbsg20
I00
sg21
g31
sbsg7
I3
sg20
I01
sg21
g39
sbsg7
I4
sg20
I01
sg21
g22
sbsg7
I5
sg20
I01
sg21
g22
sba(imyEvolve
Tree
p226
(dp227
g7
I3
sg8
(imyEvolve
Tree
p228
(dp229
g7
I2
sg8
(imyEvolve
Tree
p230
(dp231
g7
I1
sg8
(imyEvolve
Tree
p232
(dp233
g7
I0
sg18
F2.8526408479739125
sg19
I01
sbsg23
(imyEvolve
Tree
p234
(dp235
g7
I0
sg18
F4.195456462355359
sg19
I01
sbsg20
I00
sg21
g40
sbsg23
(imyEvolve
Tree
p236
(dp237
g15
(imyEvolve
Tree
p238
(dp239
g7
I0
sg18
F0.3581332787625513
sg19
I01
sbsg7
I1
sg20
I01
sg21
g81
sbsg20
I00
sg21
g40
sbsg23
(imyEvolve
Tree
p240
(dp241
g15
(imyEvolve
Tree
p242
(dp243
g7
I1
sg8
(imyEvolve
Tree
p244
(dp245
g7
I0
sg18
F-2.30229873419265
sg19
I01
sbsg23
(imyEvolve
Tree
p246
(dp247
g7
I0
sg19
I00
sbsg20
I00
sg21
g31
sbsg7
I2
sg20
I01
sg21
g81
sbsg20
I00
sg21
g30
sba(imyEvolve
Tree
p248
(dp249
g7
I5
sg8
(imyEvolve
Tree
p250
(dp251
g15
(imyEvolve
Tree
p252
(dp253
g7
I3
sg8
(imyEvolve
Tree
p254
(dp255
g15
(imyEvolve
Tree
p256
(dp257
g15
(imyEvolve
Tree
p258
(dp259
g7
I0
sg18
F-3.1882339594073663
sg19
I01
sbsg7
I1
sg20
I01
sg21
g81
sbsg7
I2
sg20
I01
sg21
g39
sbsg23
(imyEvolve
Tree
p260
(dp261
g7
I2
sg8
(imyEvolve
Tree
p262
(dp263
g15
(imyEvolve
Tree
p264
(dp265
g7
I0
sg18
F2.1387808518981064
sg19
I01
sbsg7
I1
sg20
I01
sg21
g39
sbsg23
(imyEvolve
Tree
p266
(dp267
g7
I1
sg8
(imyEvolve
Tree
p268
(dp269
g7
I0
sg19
I00
sbsg23
(imyEvolve
Tree
p270
(dp271
g7
I0
sg19
I00
sbsg20
I00
sg21
g30
sbsg20
I00
sg21
g31
sbsg20
I00
sg21
g31
sbsg7
I4
sg20
I01
sg21
g81
sbsg23
(imyEvolve
Tree
p272
(dp273
g15
(imyEvolve
Tree
p274
(dp275
g15
(imyEvolve
Tree
p276
(dp277
g7
I2
sg8
(imyEvolve
Tree
p278
(dp279
g7
I1
sg8
(imyEvolve
Tree
p280
(dp281
g7
I0
sg19
I00
sbsg23
(imyEvolve
Tree
p282
(dp283
g7
I0
sg19
I00
sbsg20
I00
sg21
g30
sbsg23
(imyEvolve
Tree
p284
(dp285
g7
I1
sg8
(imyEvolve
Tree
p286
(dp287
g7
I0
sg19
I00
sbsg23
(imyEvolve
Tree
p288
(dp289
g7
I0
sg19
I00
sbsg20
I00
sg21
g30
sbsg20
I00
sg21
g31
sbsg7
I3
sg20
I01
sg21
g39
sbsg7
I4
sg20
I01
sg21
g81
sbsg20
I00
sg21
g30
sba(imyEvolve
Tree
p290
(dp291
g7
I2
sg8
(imyEvolve
Tree
p292
(dp293
g7
I1
sg8
(imyEvolve
Tree
p294
(dp295
g7
I0
sg18
F4.754749160524755
sg19
I01
sbsg23
(imyEvolve
Tree
p296
(dp297
g7
I0
sg19
I00
sbsg20
I00
sg21
g40
sbsg23
(imyEvolve
Tree
p298
(dp299
g15
(imyEvolve
Tree
p300
(dp301
g7
I0
sg19
I00
sbsg7
I1
sg20
I01
sg21
g38
sbsg20
I00
sg21
g30
sba(imyEvolve
Tree
p302
(dp303
g7
I3
sg8
(imyEvolve
Tree
p304
(dp305
g7
I2
sg8
(imyEvolve
Tree
p306
(dp307
g7
I1
sg8
(imyEvolve
Tree
p308
(dp309
g7
I0
sg19
I00
sbsg23
(imyEvolve
Tree
p310
(dp311
g7
I0
sg19
I00
sbsg20
I00
sg21
g40
sbsg23
(imyEvolve
Tree
p312
(dp313
g7
I1
sg8
(imyEvolve
Tree
p314
(dp315
g7
I0
sg18
F3.6026217242151386
sg19
I01
sbsg23
(imyEvolve
Tree
p316
(dp317
g7
I0
sg18
F4.924999357568378
sg19
I01
sbsg20
I00
sg21
g31
sbsg20
I00
sg21
g31
sbsg23
(imyEvolve
Tree
p318
(dp319
g15
(imyEvolve
Tree
p320
(dp321
g7
I1
sg8
(imyEvolve
Tree
p322
(dp323
g7
I0
sg19
I00
sbsg23
(imyEvolve
Tree
p324
(dp325
g7
I0
sg18
F-3.0107482174611047
sg19
I01
sbsg20
I00
sg21
g40
sbsg7
I2
sg20
I01
sg21
g81
sbsg20
I00
sg21
g40
sba(imyEvolve
Tree
p326
(dp327
g15
(imyEvolve
Tree
p328
(dp329
g15
(imyEvolve
Tree
p330
(dp331
g7
I0
sg19
I00
sbsg7
I1
sg20
I01
sg21
g39
sbsg7
I2
sg20
I01
sg21
g22
sba(imyEvolve
Tree
p332
(dp333
g7
I5
sg8
(imyEvolve
Tree
p334
(dp335
g15
(imyEvolve
Tree
p336
(dp337
g7
I3
sg8
(imyEvolve
Tree
p338
(dp339
g15
(imyEvolve
Tree
p340
(dp341
g7
I1
sg8
(imyEvolve
Tree
p342
(dp343
g7
I0
sg18
F0.42730057001445765
sg19
I01
sbsg23
(imyEvolve
Tree
p344
(dp345
g7
I0
sg18
F3.43923376150115
sg19
I01
sbsg20
I00
sg21
g30
sbsg7
I2
sg20
I01
sg21
g81
sbsg23
(imyEvolve
Tree
p346
(dp347
g7
I2
sg8
(imyEvolve
Tree
p348
(dp349
g15
(imyEvolve
Tree
p350
(dp351
g7
I0
sg18
F-1.8114302723580264
sg19
I01
sbsg7
I1
sg20
I01
sg21
g81
sbsg23
(imyEvolve
Tree
p352
(dp353
g7
I1
sg8
(imyEvolve
Tree
p354
(dp355
g7
I0
sg19
I00
sbsg23
(imyEvolve
Tree
p356
(dp357
g7
I0
sg18
F4.292684019592292
sg19
I01
sbsg20
I00
sg21
g30
sbsg20
I00
sg21
g31
sbsg20
I00
sg21
g40
sbsg7
I4
sg20
I01
sg21
g38
sbsg23
(imyEvolve
Tree
p358
(dp359
g15
(imyEvolve
Tree
p360
(dp361
g15
(imyEvolve
Tree
p362
(dp363
g7
I2
sg8
(imyEvolve
Tree
p364
(dp365
g7
I1
sg8
(imyEvolve
Tree
p366
(dp367
g7
I0
sg19
I00
sbsg23
(imyEvolve
Tree
p368
(dp369
g7
I0
sg18
F-1.1412391337976624
sg19
I01
sbsg20
I00
sg21
g31
sbsg23
(imyEvolve
Tree
p370
(dp371
g7
I1
sg8
(imyEvolve
Tree
p372
(dp373
g7
I0
sg18
F-0.26258586259782035
sg19
I01
sbsg23
(imyEvolve
Tree
p374
(dp375
g7
I0
sg18
F4.965736632677675
sg19
I01
sbsg20
I00
sg21
g30
sbsg20
I00
sg21
g31
sbsg7
I3
sg20
I01
sg21
g22
sbsg7
I4
sg20
I01
sg21
g81
sbsg20
I00
sg21
g40
sbaa(lp376
(imyEvolve
Tree
p377
(dp378
g7
I4
sg8
(imyEvolve
Tree
p379
(dp380
g7
I3
sg8
(imyEvolve
Tree
p381
(dp382
g7
I2
sg8
(imyEvolve
Tree
p383
(dp384
g7
I1
sg8
(imyEvolve
Tree
p385
(dp386
g7
I0
sg19
I00
sbsg23
(imyEvolve
Tree
p387
(dp388
g7
I0
sg18
F-0.5931395052597042
sg19
I01
sbsg20
I00
sg21
g30
sbsg23
(imyEvolve
Tree
p389
(dp390
g15
(imyEvolve
Tree
p391
(dp392
g7
I0
sg18
F0.05953001094454358
sg19
I01
sbsg7
I1
sg20
I01
sg21
g81
sbsg20
I00
sg21
g31
sbsg23
(imyEvolve
Tree
p393
(dp394
g15
(imyEvolve
Tree
p395
(dp396
g15
(imyEvolve
Tree
p397
(dp398
g7
I0
sg18
F3.3096194395189915
sg19
I01
sbsg7
I1
sg20
I01
sg21
g39
sbsg7
I2
sg20
I01
sg21
g38
sbsg20
I00
sg21
g30
sbsg23
(imyEvolve
Tree
p399
(dp400
g15
(imyEvolve
Tree
p401
(dp402
g15
(imyEvolve
Tree
p403
(dp404
g15
(imyEvolve
Tree
p405
(dp406
g7
I0
sg18
F1.7018391132933068
sg19
I01
sbsg7
I1
sg20
I01
sg21
g39
sbsg7
I2
sg20
I01
sg21
g38
sbsg7
I3
sg20
I01
sg21
g81
sbsg20
I00
sg21
g30
sba(imyEvolve
Tree
p407
(dp408
g15
(imyEvolve
Tree
p409
(dp410
g7
I1
sg8
(imyEvolve
Tree
p411
(dp412
g7
I0
sg19
I00
sbsg23
(imyEvolve
Tree
p413
(dp414
g7
I0
sg18
F-4.064273529575367
sg19
I01
sbsg20
I00
sg21
g30
sbsg7
I2
sg20
I01
sg21
g22
sba(imyEvolve
Tree
p415
(dp416
g7
I2
sg8
(imyEvolve
Tree
p417
(dp418
g7
I1
sg8
(imyEvolve
Tree
p419
(dp420
g7
I0
sg19
I00
sbsg23
(imyEvolve
Tree
p421
(dp422
g7
I0
sg19
I00
sbsg20
I00
sg21
g31
sbsg23
(imyEvolve
Tree
p423
(dp424
g15
(imyEvolve
Tree
p425
(dp426
g7
I0
sg18
F4.3819184138841365
sg19
I01
sbsg7
I1
sg20
I01
sg21
g22
sbsg20
I00
sg21
g40
sba(imyEvolve
Tree
p427
(dp428
g15
(imyEvolve
Tree
p429
(dp430
g7
I3
sg8
(imyEvolve
Tree
p431
(dp432
g15
(imyEvolve
Tree
p433
(dp434
g15
(imyEvolve
Tree
p435
(dp436
g7
I0
sg19
I00
sbsg7
I1
sg20
I01
sg21
g39
sbsg7
I2
sg20
I01
sg21
g39
sbsg23
(imyEvolve
Tree
p437
(dp438
g7
I2
sg8
(imyEvolve
Tree
p439
(dp440
g15
(imyEvolve
Tree
p441
(dp442
g7
I0
sg19
I00
sbsg7
I1
sg20
I01
sg21
g39
sbsg23
(imyEvolve
Tree
p443
(dp444
g15
(imyEvolve
Tree
p445
(dp446
g7
I0
sg19
I00
sbsg7
I1
sg20
I01
sg21
g38
sbsg20
I00
sg21
g30
sbsg20
I00
sg21
g30
sbsg7
I4
sg20
I01
sg21
g81
sba(imyEvolve
Tree
p447
(dp448
g7
I5
sg8
(imyEvolve
Tree
p449
(dp450
g15
(imyEvolve
Tree
p451
(dp452
g15
(imyEvolve
Tree
p453
(dp454
g7
I2
sg8
(imyEvolve
Tree
p455
(dp456
g7
I1
sg8
(imyEvolve
Tree
p457
(dp458
g7
I0
sg19
I00
sbsg23
(imyEvolve
Tree
p459
(dp460
g7
I0
sg18
F4.557462858063417
sg19
I01
sbsg20
I00
sg21
g30
sbsg23
(imyEvolve
Tree
p461
(dp462
g7
I1
sg8
(imyEvolve
Tree
p463
(dp464
g7
I0
sg18
F-1.251399703378989
sg19
I01
sbsg23
(imyEvolve
Tree
p465
(dp466
g7
I0
sg18
F-0.19696379704942313
sg19
I01
sbsg20
I00
sg21
g40
sbsg20
I00
sg21
g40
sbsg7
I3
sg20
I01
sg21
g38
sbsg7
I4
sg20
I01
sg21
g38
sbsg23
(imyEvolve
Tree
p467
(dp468
g7
I4
sg8
(imyEvolve
Tree
p469
(dp470
g7
I3
sg8
(imyEvolve
Tree
p471
(dp472
g15
(imyEvolve
Tree
p473
(dp474
g15
(imyEvolve
Tree
p475
(dp476
g7
I0
sg18
F-3.670468898675195
sg19
I01
sbsg7
I1
sg20
I01
sg21
g38
sbsg7
I2
sg20
I01
sg21
g38
sbsg23
(imyEvolve
Tree
p477
(dp478
g15
(imyEvolve
Tree
p479
(dp480
g15
(imyEvolve
Tree
p481
(dp482
g7
I0
sg19
I00
sbsg7
I1
sg20
I01
sg21
g22
sbsg7
I2
sg20
I01
sg21
g39
sbsg20
I00
sg21
g40
sbsg23
(imyEvolve
Tree
p483
(dp484
g15
(imyEvolve
Tree
p485
(dp486
g7
I2
sg8
(imyEvolve
Tree
p487
(dp488
g15
(imyEvolve
Tree
p489
(dp490
g7
I0
sg18
F-4.468075000111716
sg19
I01
sbsg7
I1
sg20
I01
sg21
g81
sbsg23
(imyEvolve
Tree
p491
(dp492
g15
(imyEvolve
Tree
p493
(dp494
g7
I0
sg19
I00
sbsg7
I1
sg20
I01
sg21
g22
sbsg20
I00
sg21
g30
sbsg7
I3
sg20
I01
sg21
g38
sbsg20
I00
sg21
g30
sbsg20
I00
sg21
g31
sba(imyEvolve
Tree
p495
(dp496
g15
(imyEvolve
Tree
p497
(dp498
g7
I2
sg8
(imyEvolve
Tree
p499
(dp500
g7
I1
sg8
(imyEvolve
Tree
p501
(dp502
g7
I0
sg18
F4.554379676932438
sg19
I01
sbsg23
(imyEvolve
Tree
p503
(dp504
g7
I0
sg18
F-1.5023010802986922
sg19
I01
sbsg20
I00
sg21
g30
sbsg23
(imyEvolve
Tree
p505
(dp506
g15
(imyEvolve
Tree
p507
(dp508
g7
I0
sg19
I00
sbsg7
I1
sg20
I01
sg21
g22
sbsg20
I00
sg21
g40
sbsg7
I3
sg20
I01
sg21
g22
sba(imyEvolve
Tree
p509
(dp510
g15
(imyEvolve
Tree
p511
(dp512
g15
(imyEvolve
Tree
p513
(dp514
g15
(imyEvolve
Tree
p515
(dp516
g15
(imyEvolve
Tree
p517
(dp518
g15
(imyEvolve
Tree
p519
(dp520
g7
I0
sg18
F-2.617278315225459
sg19
I01
sbsg7
I1
sg20
I01
sg21
g39
sbsg7
I2
sg20
I01
sg21
g22
sbsg7
I3
sg20
I01
sg21
g22
sbsg7
I4
sg20
I01
sg21
g38
sbsg7
I5
sg20
I01
sg21
g22
sba(imyEvolve
Tree
p521
(dp522
g7
I5
sg8
(imyEvolve
Tree
p523
(dp524
g15
(imyEvolve
Tree
p525
(dp526
g15
(imyEvolve
Tree
p527
(dp528
g7
I2
sg8
(imyEvolve
Tree
p529
(dp530
g15
(imyEvolve
Tree
p531
(dp532
g7
I0
sg19
I00
sbsg7
I1
sg20
I01
sg21
g38
sbsg23
(imyEvolve
Tree
p533
(dp534
g15
(imyEvolve
Tree
p535
(dp536
g7
I0
sg18
F-4.10698307150464
sg19
I01
sbsg7
I1
sg20
I01
sg21
g22
sbsg20
I00
sg21
g30
sbsg7
I3
sg20
I01
sg21
g22
sbsg7
I4
sg20
I01
sg21
g38
sbsg23
(imyEvolve
Tree
p537
(dp538
g15
(imyEvolve
Tree
p539
(dp540
g7
I3
sg8
(imyEvolve
Tree
p541
(dp542
g15
(imyEvolve
Tree
p543
(dp544
g15
(imyEvolve
Tree
p545
(dp546
g7
I0
sg18
F4.239482963366994
sg19
I01
sbsg7
I1
sg20
I01
sg21
g22
sbsg7
I2
sg20
I01
sg21
g38
sbsg23
(imyEvolve
Tree
p547
(dp548
g15
(imyEvolve
Tree
p549
(dp550
g15
(imyEvolve
Tree
p551
(dp552
g7
I0
sg19
I00
sbsg7
I1
sg20
I01
sg21
g81
sbsg7
I2
sg20
I01
sg21
g39
sbsg20
I00
sg21
g31
sbsg7
I4
sg20
I01
sg21
g22
sbsg20
I00
sg21
g40
sba(imyEvolve
Tree
p553
(dp554
g7
I5
sg8
(imyEvolve
Tree
p555
(dp556
g15
(imyEvolve
Tree
p557
(dp558
g15
(imyEvolve
Tree
p559
(dp560
g7
I2
sg8
(imyEvolve
Tree
p561
(dp562
g7
I1
sg8
(imyEvolve
Tree
p563
(dp564
g7
I0
sg19
I00
sbsg23
(imyEvolve
Tree
p565
(dp566
g7
I0
sg18
F3.3901145841617932
sg19
I01
sbsg20
I00
sg21
g30
sbsg23
(imyEvolve
Tree
p567
(dp568
g15
(imyEvolve
Tree
p569
(dp570
g7
I0
sg19
I00
sbsg7
I1
sg20
I01
sg21
g39
sbsg20
I00
sg21
g31
sbsg7
I3
sg20
I01
sg21
g39
sbsg7
I4
sg20
I01
sg21
g81
sbsg23
(imyEvolve
Tree
p571
(dp572
g15
(imyEvolve
Tree
p573
(dp574
g15
(imyEvolve
Tree
p575
(dp576
g15
(imyEvolve
Tree
p577
(dp578
g15
(imyEvolve
Tree
p579
(dp580
g7
I0
sg18
F-1.70086714563354
sg19
I01
sbsg7
I1
sg20
I01
sg21
g81
sbsg7
I2
sg20
I01
sg21
g22
sbsg7
I3
sg20
I01
sg21
g39
sbsg7
I4
sg20
I01
sg21
g39
sbsg20
I00
sg21
g40
sba(imyEvolve
Tree
p581
(dp582
g7
I5
sg8
(imyEvolve
Tree
p583
(dp584
g7
I4
sg8
(imyEvolve
Tree
p585
(dp586
g7
I3
sg8
(imyEvolve
Tree
p587
(dp588
g7
I2
sg8
(imyEvolve
Tree
p589
(dp590
g7
I1
sg8
(imyEvolve
Tree
p591
(dp592
g7
I0
sg18
F-2.4955160403116263
sg19
I01
sbsg23
(imyEvolve
Tree
p593
(dp594
g7
I0
sg19
I00
sbsg20
I00
sg21
g30
sbsg23
(imyEvolve
Tree
p595
(dp596
g7
I1
sg8
(imyEvolve
Tree
p597
(dp598
g7
I0
sg19
I00
sbsg23
(imyEvolve
Tree
p599
(dp600
g7
I0
sg18
F2.878416846975264
sg19
I01
sbsg20
I00
sg21
g30
sbsg20
I00
sg21
g31
sbsg23
(imyEvolve
Tree
p601
(dp602
g7
I2
sg8
(imyEvolve
Tree
p603
(dp604
g15
(imyEvolve
Tree
p605
(dp606
g7
I0
sg18
F-1.0739690356359266
sg19
I01
sbsg7
I1
sg20
I01
sg21
g81
sbsg23
(imyEvolve
Tree
p607
(dp608
g7
I1
sg8
(imyEvolve
Tree
p609
(dp610
g7
I0
sg18
F0.7829100301427552
sg19
I01
sbsg23
(imyEvolve
Tree
p611
(dp612
g7
I0
sg19
I00
sbsg20
I00
sg21
g40
sbsg20
I00
sg21
g31
sbsg20
I00
sg21
g30
sbsg23
(imyEvolve
Tree
p613
(dp614
g15
(imyEvolve
Tree
p615
(dp616
g7
I2
sg8
(imyEvolve
Tree
p617
(dp618
g15
(imyEvolve
Tree
p619
(dp620
g7
I0
sg19
I00
sbsg7
I1
sg20
I01
sg21
g39
sbsg23
(imyEvolve
Tree
p621
(dp622
g15
(imyEvolve
Tree
p623
(dp624
g7
I0
sg18
F4.863469329907389
sg19
I01
sbsg7
I1
sg20
I01
sg21
g39
sbsg20
I00
sg21
g31
sbsg7
I3
sg20
I01
sg21
g38
sbsg20
I00
sg21
g30
sbsg23
(imyEvolve
Tree
p625
(dp626
g15
(imyEvolve
Tree
p627
(dp628
g7
I3
sg8
(imyEvolve
Tree
p629
(dp630
g15
(imyEvolve
Tree
p631
(dp632
g7
I1
sg8
(imyEvolve
Tree
p633
(dp634
g7
I0
sg19
I00
sbsg23
(imyEvolve
Tree
p635
(dp636
g7
I0
sg18
F3.050779165483954
sg19
I01
sbsg20
I00
sg21
g31
sbsg7
I2
sg20
I01
sg21
g22
sbsg23
(imyEvolve
Tree
p637
(dp638
g7
I2
sg8
(imyEvolve
Tree
p639
(dp640
g15
(imyEvolve
Tree
p641
(dp642
g7
I0
sg18
F3.2242537394555946
sg19
I01
sbsg7
I1
sg20
I01
sg21
g81
sbsg23
(imyEvolve
Tree
p643
(dp644
g7
I1
sg8
(imyEvolve
Tree
p645
(dp646
g7
I0
sg19
I00
sbsg23
(imyEvolve
Tree
p647
(dp648
g7
I0
sg19
I00
sbsg20
I00
sg21
g31
sbsg20
I00
sg21
g30
sbsg20
I00
sg21
g31
sbsg7
I4
sg20
I01
sg21
g22
sbsg20
I00
sg21
g30
sba(imyEvolve
Tree
p649
(dp650
g7
I2
sg8
(imyEvolve
Tree
p651
(dp652
g15
(imyEvolve
Tree
p653
(dp654
g7
I0
sg19
I00
sbsg7
I1
sg20
I01
sg21
g39
sbsg23
(imyEvolve
Tree
p655
(dp656
g7
I1
sg8
(imyEvolve
Tree
p657
(dp658
g7
I0
sg19
I00
sbsg23
(imyEvolve
Tree
p659
(dp660
g7
I0
sg18
F1.547039095835256
sg19
I01
sbsg20
I00
sg21
g31
sbsg20
I00
sg21
g30
sba(imyEvolve
Tree
p661
(dp662
g15
(imyEvolve
Tree
p663
(dp664
g15
(imyEvolve
Tree
p665
(dp666
g7
I0
sg19
I00
sbsg7
I1
sg20
I01
sg21
g38
sbsg7
I2
sg20
I01
sg21
g81
sba(imyEvolve
Tree
p667
(dp668
g7
I5
sg8
(imyEvolve
Tree
p669
(dp670
g7
I4
sg8
(imyEvolve
Tree
p671
(dp672
g7
I3
sg8
(imyEvolve
Tree
p673
(dp674
g7
I2
sg8
(imyEvolve
Tree
p675
(dp676
g15
(imyEvolve
Tree
p677
(dp678
g7
I0
sg18
F-2.170272467410521
sg19
I01
sbsg7
I1
sg20
I01
sg21
g81
sbsg23
(imyEvolve
Tree
p679
(dp680
g7
I1
sg8
(imyEvolve
Tree
p681
(dp682
g7
I0
sg19
I00
sbsg23
(imyEvolve
Tree
p683
(dp684
g7
I0
sg18
F1.1281864060921185
sg19
I01
sbsg20
I00
sg21
g40
sbsg20
I00
sg21
g30
sbsg23
(imyEvolve
Tree
p685
(dp686
g7
I2
sg8
(imyEvolve
Tree
p687
(dp688
g15
(imyEvolve
Tree
p689
(dp690
g7
I0
sg19
I00
sbsg7
I1
sg20
I01
sg21
g39
sbsg23
(imyEvolve
Tree
p691
(dp692
g15
(imyEvolve
Tree
p693
(dp694
g7
I0
sg19
I00
sbsg7
I1
sg20
I01
sg21
g81
sbsg20
I00
sg21
g40
sbsg20
I00
sg21
g30
sbsg23
(imyEvolve
Tree
p695
(dp696
g15
(imyEvolve
Tree
p697
(dp698
g15
(imyEvolve
Tree
p699
(dp700
g7
I1
sg8
(imyEvolve
Tree
p701
(dp702
g7
I0
sg18
F2.769157536386637
sg19
I01
sbsg23
(imyEvolve
Tree
p703
(dp704
g7
I0
sg18
F-3.8117377322814914
sg19
I01
sbsg20
I00
sg21
g30
sbsg7
I2
sg20
I01
sg21
g22
sbsg7
I3
sg20
I01
sg21
g39
sbsg20
I00
sg21
g40
sbsg23
(imyEvolve
Tree
p705
(dp706
g15
(imyEvolve
Tree
p707
(dp708
g15
(imyEvolve
Tree
p709
(dp710
g7
I2
sg8
(imyEvolve
Tree
p711
(dp712
g7
I1
sg8
(imyEvolve
Tree
p713
(dp714
g7
I0
sg19
I00
sbsg23
(imyEvolve
Tree
p715
(dp716
g7
I0
sg19
I00
sbsg20
I00
sg21
g31
sbsg23
(imyEvolve
Tree
p717
(dp718
g15
(imyEvolve
Tree
p719
(dp720
g7
I0
sg18
F-0.28796505444662035
sg19
I01
sbsg7
I1
sg20
I01
sg21
g81
sbsg20
I00
sg21
g40
sbsg7
I3
sg20
I01
sg21
g38
sbsg7
I4
sg20
I01
sg21
g22
sbsg20
I00
sg21
g30
sba(imyEvolve
Tree
p721
(dp722
g15
(imyEvolve
Tree
p723
(dp724
g15
(imyEvolve
Tree
p725
(dp726
g7
I1
sg8
(imyEvolve
Tree
p727
(dp728
g7
I0
sg19
I00
sbsg23
(imyEvolve
Tree
p729
(dp730
g7
I0
sg19
I00
sbsg20
I00
sg21
g31
sbsg7
I2
sg20
I01
sg21
g39
sbsg7
I3
sg20
I01
sg21
g38
sba(imyEvolve
Tree
p731
(dp732
g15
(imyEvolve
Tree
p733
(dp734
g15
(imyEvolve
Tree
p735
(dp736
g7
I0
sg19
I00
sbsg7
I1
sg20
I01
sg21
g39
sbsg7
I2
sg20
I01
sg21
g39
sba(imyEvolve
Tree
p737
(dp738
g7
I5
sg8
(imyEvolve
Tree
p739
(dp740
g15
(imyEvolve
Tree
p741
(dp742
g15
(imyEvolve
Tree
p743
(dp744
g7
I2
sg8
(imyEvolve
Tree
p745
(dp746
g15
(imyEvolve
Tree
p747
(dp748
g7
I0
sg18
F3.857394022353045
sg19
I01
sbsg7
I1
sg20
I01
sg21
g22
sbsg23
(imyEvolve
Tree
p749
(dp750
g7
I1
sg8
(imyEvolve
Tree
p751
(dp752
g7
I0
sg18
F1.4301846383706982
sg19
I01
sbsg23
(imyEvolve
Tree
p753
(dp754
g7
I0
sg18
F-2.047094534572953
sg19
I01
sbsg20
I00
sg21
g30
sbsg20
I00
sg21
g30
sbsg7
I3
sg20
I01
sg21
g81
sbsg7
I4
sg20
I01
sg21
g39
sbsg23
(imyEvolve
Tree
p755
(dp756
g7
I4
sg8
(imyEvolve
Tree
p757
(dp758
g15
(imyEvolve
Tree
p759
(dp760
g15
(imyEvolve
Tree
p761
(dp762
g15
(imyEvolve
Tree
p763
(dp764
g7
I0
sg18
F0.6077168600606733
sg19
I01
sbsg7
I1
sg20
I01
sg21
g81
sbsg7
I2
sg20
I01
sg21
g81
sbsg7
I3
sg20
I01
sg21
g22
sbsg23
(imyEvolve
Tree
p765
(dp766
g7
I3
sg8
(imyEvolve
Tree
p767
(dp768
g7
I2
sg8
(imyEvolve
Tree
p769
(dp770
g7
I1
sg8
(imyEvolve
Tree
p771
(dp772
g7
I0
sg19
I00
sbsg23
(imyEvolve
Tree
p773
(dp774
g7
I0
sg18
F-1.5085414113635287
sg19
I01
sbsg20
I00
sg21
g30
sbsg23
(imyEvolve
Tree
p775
(dp776
g7
I1
sg8
(imyEvolve
Tree
p777
(dp778
g7
I0
sg19
I00
sbsg23
(imyEvolve
Tree
p779
(dp780
g7
I0
sg19
I00
sbsg20
I00
sg21
g31
sbsg20
I00
sg21
g40
sbsg23
(imyEvolve
Tree
p781
(dp782
g15
(imyEvolve
Tree
p783
(dp784
g15
(imyEvolve
Tree
p785
(dp786
g7
I0
sg19
I00
sbsg7
I1
sg20
I01
sg21
g81
sbsg7
I2
sg20
I01
sg21
g22
sbsg20
I00
sg21
g40
sbsg20
I00
sg21
g30
sbsg20
I00
sg21
g31
sba(imyEvolve
Tree
p787
(dp788
g15
(imyEvolve
Tree
p789
(dp790
g7
I1
sg8
(imyEvolve
Tree
p791
(dp792
g7
I0
sg18
F-4.423905250631954
sg19
I01
sbsg23
(imyEvolve
Tree
p793
(dp794
g7
I0
sg19
I00
sbsg20
I00
sg21
g30
sbsg7
I2
sg20
I01
sg21
g38
sba(imyEvolve
Tree
p795
(dp796
g7
I5
sg8
(imyEvolve
Tree
p797
(dp798
g7
I4
sg8
(imyEvolve
Tree
p799
(dp800
g15
(imyEvolve
Tree
p801
(dp802
g15
(imyEvolve
Tree
p803
(dp804
g15
(imyEvolve
Tree
p805
(dp806
g7
I0
sg19
I00
sbsg7
I1
sg20
I01
sg21
g81
sbsg7
I2
sg20
I01
sg21
g38
sbsg7
I3
sg20
I01
sg21
g81
sbsg23
(imyEvolve
Tree
p807
(dp808
g15
(imyEvolve
Tree
p809
(dp810
g7
I2
sg8
(imyEvolve
Tree
p811
(dp812
g7
I1
sg8
(imyEvolve
Tree
p813
(dp814
g7
I0
sg18
F3.7006687404811274
sg19
I01
sbsg23
(imyEvolve
Tree
p815
(dp816
g7
I0
sg18
F1.0962815735972349
sg19
I01
sbsg20
I00
sg21
g40
sbsg23
(imyEvolve
Tree
p817
(dp818
g15
(imyEvolve
Tree
p819
(dp820
g7
I0
sg18
F-2.8948924419029987
sg19
I01
sbsg7
I1
sg20
I01
sg21
g22
sbsg20
I00
sg21
g40
sbsg7
I3
sg20
I01
sg21
g22
sbsg20
I00
sg21
g40
sbsg23
(imyEvolve
Tree
p821
(dp822
g15
(imyEvolve
Tree
p823
(dp824
g15
(imyEvolve
Tree
p825
(dp826
g7
I2
sg8
(imyEvolve
Tree
p827
(dp828
g7
I1
sg8
(imyEvolve
Tree
p829
(dp830
g7
I0
sg19
I00
sbsg23
(imyEvolve
Tree
p831
(dp832
g7
I0
sg18
F3.5310196080923557
sg19
I01
sbsg20
I00
sg21
g30
sbsg23
(imyEvolve
Tree
p833
(dp834
g15
(imyEvolve
Tree
p835
(dp836
g7
I0
sg18
F2.693953928332392
sg19
I01
sbsg7
I1
sg20
I01
sg21
g22
sbsg20
I00
sg21
g31
sbsg7
I3
sg20
I01
sg21
g39
sbsg7
I4
sg20
I01
sg21
g38
sbsg20
I00
sg21
g31
sba(imyEvolve
Tree
p837
(dp838
g15
(imyEvolve
Tree
p839
(dp840
g7
I4
sg8
(imyEvolve
Tree
p841
(dp842
g7
I3
sg8
(imyEvolve
Tree
p843
(dp844
g7
I2
sg8
(imyEvolve
Tree
p845
(dp846
g15
(imyEvolve
Tree
p847
(dp848
g7
I0
sg18
F-0.516702655921276
sg19
I01
sbsg7
I1
sg20
I01
sg21
g39
sbsg23
(imyEvolve
Tree
p849
(dp850
g15
(imyEvolve
Tree
p851
(dp852
g7
I0
sg19
I00
sbsg7
I1
sg20
I01
sg21
g39
sbsg20
I00
sg21
g31
sbsg23
(imyEvolve
Tree
p853
(dp854
g15
(imyEvolve
Tree
p855
(dp856
g7
I1
sg8
(imyEvolve
Tree
p857
(dp858
g7
I0
sg19
I00
sbsg23
(imyEvolve
Tree
p859
(dp860
g7
I0
sg19
I00
sbsg20
I00
sg21
g31
sbsg7
I2
sg20
I01
sg21
g39
sbsg20
I00
sg21
g31
sbsg23
(imyEvolve
Tree
p861
(dp862
g7
I3
sg8
(imyEvolve
Tree
p863
(dp864
g7
I2
sg8
(imyEvolve
Tree
p865
(dp866
g15
(imyEvolve
Tree
p867
(dp868
g7
I0
sg18
F4.2926702600083875
sg19
I01
sbsg7
I1
sg20
I01
sg21
g22
sbsg23
(imyEvolve
Tree
p869
(dp870
g15
(imyEvolve
Tree
p871
(dp872
g7
I0
sg19
I00
sbsg7
I1
sg20
I01
sg21
g38
sbsg20
I00
sg21
g40
sbsg23
(imyEvolve
Tree
p873
(dp874
g7
I2
sg8
(imyEvolve
Tree
p875
(dp876
g15
(imyEvolve
Tree
p877
(dp878
g7
I0
sg18
F2.4585006911689433
sg19
I01
sbsg7
I1
sg20
I01
sg21
g22
sbsg23
(imyEvolve
Tree
p879
(dp880
g7
I1
sg8
(imyEvolve
Tree
p881
(dp882
g7
I0
sg18
F-4.380298673095927
sg19
I01
sbsg23
(imyEvolve
Tree
p883
(dp884
g7
I0
sg18
F-0.3849894893448438
sg19
I01
sbsg20
I00
sg21
g30
sbsg20
I00
sg21
g30
sbsg20
I00
sg21
g31
sbsg20
I00
sg21
g40
sbsg7
I5
sg20
I01
sg21
g81
sbaa(lp885
(imyEvolve
Tree
p886
(dp887
g7
I5
sg8
(imyEvolve
Tree
p888
(dp889
g7
I4
sg8
(imyEvolve
Tree
p890
(dp891
g7
I3
sg8
(imyEvolve
Tree
p892
(dp893
g7
I2
sg8
(imyEvolve
Tree
p894
(dp895
g7
I1
sg8
(imyEvolve
Tree
p896
(dp897
g7
I0
sg18
F4.515152571406903
sg19
I01
sbsg23
(imyEvolve
Tree
p898
(dp899
g7
I0
sg19
I00
sbsg20
I00
sg21
g30
sbsg23
(imyEvolve
Tree
p900
(dp901
g15
(imyEvolve
Tree
p902
(dp903
g7
I0
sg18
F4.556611878149173
sg19
I01
sbsg7
I1
sg20
I01
sg21
g22
sbsg20
I00
sg21
g40
sbsg23
(imyEvolve
Tree
p904
(dp905
g15
(imyEvolve
Tree
p906
(dp907
g15
(imyEvolve
Tree
p908
(dp909
g7
I0
sg18
F1.9765297446758714
sg19
I01
sbsg7
I1
sg20
I01
sg21
g81
sbsg7
I2
sg20
I01
sg21
g39
sbsg20
I00
sg21
g30
sbsg23
(imyEvolve
Tree
p910
(dp911
g15
(imyEvolve
Tree
p912
(dp913
g15
(imyEvolve
Tree
p914
(dp915
g15
(imyEvolve
Tree
p916
(dp917
g7
I0
sg19
I00
sbsg7
I1
sg20
I01
sg21
g22
sbsg7
I2
sg20
I01
sg21
g39
sbsg7
I3
sg20
I01
sg21
g39
sbsg20
I00
sg21
g31
sbsg23
(imyEvolve
Tree
p918
(dp919
g7
I4
sg8
(imyEvolve
Tree
p920
(dp921
g15
(imyEvolve
Tree
p922
(dp923
g7
I2
sg8
(imyEvolve
Tree
p924
(dp925
g7
I1
sg8
(imyEvolve
Tree
p926
(dp927
g7
I0
sg19
I00
sbsg23
(imyEvolve
Tree
p928
(dp929
g7
I0
sg19
I00
sbsg20
I00
sg21
g31
sbsg23
(imyEvolve
Tree
p930
(dp931
g7
I1
sg8
(imyEvolve
Tree
p932
(dp933
g7
I0
sg19
I00
sbsg23
(imyEvolve
Tree
p934
(dp935
g7
I0
sg18
F-1.6816633832436279
sg19
I01
sbsg20
I00
sg21
g40
sbsg20
I00
sg21
g31
sbsg7
I3
sg20
I01
sg21
g81
sbsg23
(imyEvolve
Tree
p936
(dp937
g15
(imyEvolve
Tree
p938
(dp939
g7
I2
sg8
(imyEvolve
Tree
p940
(dp941
g7
I1
sg8
(imyEvolve
Tree
p942
(dp943
g7
I0
sg19
I00
sbsg23
(imyEvolve
Tree
p944
(dp945
g7
I0
sg19
I00
sbsg20
I00
sg21
g30
sbsg23
(imyEvolve
Tree
p946
(dp947
g15
(imyEvolve
Tree
p948
(dp949
g7
I0
sg18
F0.04395275816473454
sg19
I01
sbsg7
I1
sg20
I01
sg21
g38
sbsg20
I00
sg21
g30
sbsg7
I3
sg20
I01
sg21
g22
sbsg20
I00
sg21
g40
sbsg20
I00
sg21
g31
sba(imyEvolve
Tree
p950
(dp951
g7
I5
sg8
(imyEvolve
Tree
p952
(dp953
g7
I4
sg8
(imyEvolve
Tree
p954
(dp955
g7
I3
sg8
(imyEvolve
Tree
p956
(dp957
g7
I2
sg8
(imyEvolve
Tree
p958
(dp959
g15
(imyEvolve
Tree
p960
(dp961
g7
I0
sg18
F0.10189736207739486
sg19
I01
sbsg7
I1
sg20
I01
sg21
g22
sbsg23
(imyEvolve
Tree
p962
(dp963
g7
I1
sg8
(imyEvolve
Tree
p964
(dp965
g7
I0
sg18
F2.4433417399793633
sg19
I01
sbsg23
(imyEvolve
Tree
p966
(dp967
g7
I0
sg19
I00
sbsg20
I00
sg21
g40
sbsg20
I00
sg21
g40
sbsg23
(imyEvolve
Tree
p968
(dp969
g15
(imyEvolve
Tree
p970
(dp971
g7
I1
sg8
(imyEvolve
Tree
p972
(dp973
g7
I0
sg19
I00
sbsg23
(imyEvolve
Tree
p974
(dp975
g7
I0
sg18
F-3.0547976586975425
sg19
I01
sbsg20
I00
sg21
g40
sbsg7
I2
sg20
I01
sg21
g22
sbsg20
I00
sg21
g30
sbsg23
(imyEvolve
Tree
p976
(dp977
g15
(imyEvolve
Tree
p978
(dp979
g15
(imyEvolve
Tree
p980
(dp981
g15
(imyEvolve
Tree
p982
(dp983
g7
I0
sg19
I00
sbsg7
I1
sg20
I01
sg21
g39
sbsg7
I2
sg20
I01
sg21
g81
sbsg7
I3
sg20
I01
sg21
g81
sbsg20
I00
sg21
g31
sbsg23
(imyEvolve
Tree
p984
(dp985
g7
I4
sg8
(imyEvolve
Tree
p986
(dp987
g7
I3
sg8
(imyEvolve
Tree
p988
(dp989
g7
I2
sg8
(imyEvolve
Tree
p990
(dp991
g7
I1
sg8
(imyEvolve
Tree
p992
(dp993
g7
I0
sg18
F-0.10730666766556851
sg19
I01
sbsg23
(imyEvolve
Tree
p994
(dp995
g7
I0
sg18
F1.4985126168866998
sg19
I01
sbsg20
I00
sg21
g31
sbsg23
(imyEvolve
Tree
p996
(dp997
g15
(imyEvolve
Tree
p998
(dp999
g7
I0
sg18
F-0.8986365289548761
sg19
I01
sbsg7
I1
sg20
I01
sg21
g39
sbsg20
I00
sg21
g40
sbsg23
(imyEvolve
Tree
p1000
(dp1001
g7
I2
sg8
(imyEvolve
Tree
p1002
(dp1003
g7
I1
sg8
(imyEvolve
Tree
p1004
(dp1005
g7
I0
sg18
F2.6591674706857926
sg19
I01
sbsg23
(imyEvolve
Tree
p1006
(dp1007
g7
I0
sg18
F3.059679158751168
sg19
I01
sbsg20
I00
sg21
g40
sbsg23
(imyEvolve
Tree
p1008
(dp1009
g15
(imyEvolve
Tree
p1010
(dp1011
g7
I0
sg18
F-4.134104943187822
sg19
I01
sbsg7
I1
sg20
I01
sg21
g22
sbsg20
I00
sg21
g30
sbsg20
I00
sg21
g30
sbsg23
(imyEvolve
Tree
p1012
(dp1013
g7
I3
sg8
(imyEvolve
Tree
p1014
(dp1015
g15
(imyEvolve
Tree
p1016
(dp1017
g15
(imyEvolve
Tree
p1018
(dp1019
g7
I0
sg18
F2.48785678144002
sg19
I01
sbsg7
I1
sg20
I01
sg21
g39
sbsg7
I2
sg20
I01
sg21
g81
sbsg23
(imyEvolve
Tree
p1020
(dp1021
g15
(imyEvolve
Tree
p1022
(dp1023
g15
(imyEvolve
Tree
p1024
(dp1025
g7
I0
sg18
F-0.5096102606834174
sg19
I01
sbsg7
I1
sg20
I01
sg21
g39
sbsg7
I2
sg20
I01
sg21
g38
sbsg20
I00
sg21
g40
sbsg20
I00
sg21
g31
sbsg20
I00
sg21
g30
sba(imyEvolve
Tree
p1026
(dp1027
g15
(imyEvolve
Tree
p1028
(dp1029
g15
(imyEvolve
Tree
p1030
(dp1031
g7
I3
sg8
(imyEvolve
Tree
p1032
(dp1033
g7
I2
sg8
(imyEvolve
Tree
p1034
(dp1035
g15
(imyEvolve
Tree
p1036
(dp1037
g7
I0
sg19
I00
sbsg7
I1
sg20
I01
sg21
g22
sbsg23
(imyEvolve
Tree
p1038
(dp1039
g7
I1
sg8
(imyEvolve
Tree
p1040
(dp1041
g7
I0
sg18
F-1.4845731093057069
sg19
I01
sbsg23
(imyEvolve
Tree
p1042
(dp1043
g7
I0
sg18
F2.6322863159909407
sg19
I01
sbsg20
I00
sg21
g40
sbsg20
I00
sg21
g31
sbsg23
(imyEvolve
Tree
p1044
(dp1045
g15
(imyEvolve
Tree
p1046
(dp1047
g7
I1
sg8
(imyEvolve
Tree
p1048
(dp1049
g7
I0
sg19
I00
sbsg23
(imyEvolve
Tree
p1050
(dp1051
g7
I0
sg18
F-4.322897973891559
sg19
I01
sbsg20
I00
sg21
g30
sbsg7
I2
sg20
I01
sg21
g38
sbsg20
I00
sg21
g30
sbsg7
I4
sg20
I01
sg21
g22
sbsg7
I5
sg20
I01
sg21
g22
sba(imyEvolve
Tree
p1052
(dp1053
g7
I3
sg8
(imyEvolve
Tree
p1054
(dp1055
g7
I2
sg8
(imyEvolve
Tree
p1056
(dp1057
g15
(imyEvolve
Tree
p1058
(dp1059
g7
I0
sg19
I00
sbsg7
I1
sg20
I01
sg21
g39
sbsg23
(imyEvolve
Tree
p1060
(dp1061
g15
(imyEvolve
Tree
p1062
(dp1063
g7
I0
sg18
F2.8510442317850284
sg19
I01
sbsg7
I1
sg20
I01
sg21
g38
sbsg20
I00
sg21
g31
sbsg23
(imyEvolve
Tree
p1064
(dp1065
g15
(imyEvolve
Tree
p1066
(dp1067
g7
I1
sg8
(imyEvolve
Tree
p1068
(dp1069
g7
I0
sg19
I00
sbsg23
(imyEvolve
Tree
p1070
(dp1071
g7
I0
sg18
F1.0729097365943572
sg19
I01
sbsg20
I00
sg21
g30
sbsg7
I2
sg20
I01
sg21
g38
sbsg20
I00
sg21
g31
sba(imyEvolve
Tree
p1072
(dp1073
g15
(imyEvolve
Tree
p1074
(dp1075
g15
(imyEvolve
Tree
p1076
(dp1077
g7
I0
sg18
F-2.2426045125903404
sg19
I01
sbsg7
I1
sg20
I01
sg21
g22
sbsg7
I2
sg20
I01
sg21
g22
sba(imyEvolve
Tree
p1078
(dp1079
g7
I3
sg8
(imyEvolve
Tree
p1080
(dp1081
g7
I2
sg8
(imyEvolve
Tree
p1082
(dp1083
g7
I1
sg8
(imyEvolve
Tree
p1084
(dp1085
g7
I0
sg18
F3.3119816275816447
sg19
I01
sbsg23
(imyEvolve
Tree
p1086
(dp1087
g7
I0
sg18
F0.2410469203052532
sg19
I01
sbsg20
I00
sg21
g40
sbsg23
(imyEvolve
Tree
p1088
(dp1089
g7
I1
sg8
(imyEvolve
Tree
p1090
(dp1091
g7
I0
sg18
F-4.968663960536698
sg19
I01
sbsg23
(imyEvolve
Tree
p1092
(dp1093
g7
I0
sg19
I00
sbsg20
I00
sg21
g40
sbsg20
I00
sg21
g40
sbsg23
(imyEvolve
Tree
p1094
(dp1095
g15
(imyEvolve
Tree
p1096
(dp1097
g15
(imyEvolve
Tree
p1098
(dp1099
g7
I0
sg19
I00
sbsg7
I1
sg20
I01
sg21
g22
sbsg7
I2
sg20
I01
sg21
g22
sbsg20
I00
sg21
g40
sba(imyEvolve
Tree
p1100
(dp1101
g7
I4
sg8
(imyEvolve
Tree
p1102
(dp1103
g15
(imyEvolve
Tree
p1104
(dp1105
g7
I2
sg8
(imyEvolve
Tree
p1106
(dp1107
g15
(imyEvolve
Tree
p1108
(dp1109
g7
I0
sg19
I00
sbsg7
I1
sg20
I01
sg21
g39
sbsg23
(imyEvolve
Tree
p1110
(dp1111
g15
(imyEvolve
Tree
p1112
(dp1113
g7
I0
sg18
F0.13943941552765704
sg19
I01
sbsg7
I1
sg20
I01
sg21
g38
sbsg20
I00
sg21
g40
sbsg7
I3
sg20
I01
sg21
g38
sbsg23
(imyEvolve
Tree
p1114
(dp1115
g7
I3
sg8
(imyEvolve
Tree
p1116
(dp1117
g15
(imyEvolve
Tree
p1118
(dp1119
g7
I1
sg8
(imyEvolve
Tree
p1120
(dp1121
g7
I0
sg19
I00
sbsg23
(imyEvolve
Tree
p1122
(dp1123
g7
I0
sg18
F3.8146575110163887
sg19
I01
sbsg20
I00
sg21
g31
sbsg7
I2
sg20
I01
sg21
g22
sbsg23
(imyEvolve
Tree
p1124
(dp1125
g7
I2
sg8
(imyEvolve
Tree
p1126
(dp1127
g7
I1
sg8
(imyEvolve
Tree
p1128
(dp1129
g7
I0
sg18
F4.36441022416161
sg19
I01
sbsg23
(imyEvolve
Tree
p1130
(dp1131
g7
I0
sg18
F4.442251527861581
sg19
I01
sbsg20
I00
sg21
g40
sbsg23
(imyEvolve
Tree
p1132
(dp1133
g7
I1
sg8
(imyEvolve
Tree
p1134
(dp1135
g7
I0
sg18
F-0.7920787814446948
sg19
I01
sbsg23
(imyEvolve
Tree
p1136
(dp1137
g7
I0
sg18
F1.7246873986069637
sg19
I01
sbsg20
I00
sg21
g31
sbsg20
I00
sg21
g40
sbsg20
I00
sg21
g40
sbsg20
I00
sg21
g40
sba(imyEvolve
Tree
p1138
(dp1139
g7
I5
sg8
(imyEvolve
Tree
p1140
(dp1141
g7
I4
sg8
(imyEvolve
Tree
p1142
(dp1143
g15
(imyEvolve
Tree
p1144
(dp1145
g7
I2
sg8
(imyEvolve
Tree
p1146
(dp1147
g15
(imyEvolve
Tree
p1148
(dp1149
g7
I0
sg18
F-4.260389439971107
sg19
I01
sbsg7
I1
sg20
I01
sg21
g38
sbsg23
(imyEvolve
Tree
p1150
(dp1151
g7
I1
sg8
(imyEvolve
Tree
p1152
(dp1153
g7
I0
sg19
I00
sbsg23
(imyEvolve
Tree
p1154
(dp1155
g7
I0
sg18
F-2.2854655588173323
sg19
I01
sbsg20
I00
sg21
g31
sbsg20
I00
sg21
g40
sbsg7
I3
sg20
I01
sg21
g22
sbsg23
(imyEvolve
Tree
p1156
(dp1157
g15
(imyEvolve
Tree
p1158
(dp1159
g7
I2
sg8
(imyEvolve
Tree
p1160
(dp1161
g7
I1
sg8
(imyEvolve
Tree
p1162
(dp1163
g7
I0
sg18
F-2.675589223348409
sg19
I01
sbsg23
(imyEvolve
Tree
p1164
(dp1165
g7
I0
sg19
I00
sbsg20
I00
sg21
g31
sbsg23
(imyEvolve
Tree
p1166
(dp1167
g7
I1
sg8
(imyEvolve
Tree
p1168
(dp1169
g7
I0
sg18
F-1.6588763554377008
sg19
I01
sbsg23
(imyEvolve
Tree
p1170
(dp1171
g7
I0
sg18
F-4.395751733016952
sg19
I01
sbsg20
I00
sg21
g30
sbsg20
I00
sg21
g40
sbsg7
I3
sg20
I01
sg21
g38
sbsg20
I00
sg21
g31
sbsg23
(imyEvolve
Tree
p1172
(dp1173
g15
(imyEvolve
Tree
p1174
(dp1175
g7
I3
sg8
(imyEvolve
Tree
p1176
(dp1177
g7
I2
sg8
(imyEvolve
Tree
p1178
(dp1179
g7
I1
sg8
(imyEvolve
Tree
p1180
(dp1181
g7
I0
sg19
I00
sbsg23
(imyEvolve
Tree
p1182
(dp1183
g7
I0
sg18
F-2.214124867620874
sg19
I01
sbsg20
I00
sg21
g31
sbsg23
(imyEvolve
Tree
p1184
(dp1185
g15
(imyEvolve
Tree
p1186
(dp1187
g7
I0
sg19
I00
sbsg7
I1
sg20
I01
sg21
g22
sbsg20
I00
sg21
g31
sbsg23
(imyEvolve
Tree
p1188
(dp1189
g15
(imyEvolve
Tree
p1190
(dp1191
g15
(imyEvolve
Tree
p1192
(dp1193
g7
I0
sg18
F-3.9530857312599146
sg19
I01
sbsg7
I1
sg20
I01
sg21
g39
sbsg7
I2
sg20
I01
sg21
g22
sbsg20
I00
sg21
g40
sbsg7
I4
sg20
I01
sg21
g38
sbsg20
I00
sg21
g30
sba(imyEvolve
Tree
p1194
(dp1195
g7
I5
sg8
(imyEvolve
Tree
p1196
(dp1197
g15
(imyEvolve
Tree
p1198
(dp1199
g15
(imyEvolve
Tree
p1200
(dp1201
g7
I2
sg8
(imyEvolve
Tree
p1202
(dp1203
g15
(imyEvolve
Tree
p1204
(dp1205
g7
I0
sg19
I00
sbsg7
I1
sg20
I01
sg21
g39
sbsg23
(imyEvolve
Tree
p1206
(dp1207
g7
I1
sg8
(imyEvolve
Tree
p1208
(dp1209
g7
I0
sg19
I00
sbsg23
(imyEvolve
Tree
p1210
(dp1211
g7
I0
sg18
F-2.924488647984264
sg19
I01
sbsg20
I00
sg21
g30
sbsg20
I00
sg21
g30
sbsg7
I3
sg20
I01
sg21
g38
sbsg7
I4
sg20
I01
sg21
g22
sbsg23
(imyEvolve
Tree
p1212
(dp1213
g15
(imyEvolve
Tree
p1214
(dp1215
g15
(imyEvolve
Tree
p1216
(dp1217
g7
I2
sg8
(imyEvolve
Tree
p1218
(dp1219
g7
I1
sg8
(imyEvolve
Tree
p1220
(dp1221
g7
I0
sg19
I00
sbsg23
(imyEvolve
Tree
p1222
(dp1223
g7
I0
sg19
I00
sbsg20
I00
sg21
g31
sbsg23
(imyEvolve
Tree
p1224
(dp1225
g15
(imyEvolve
Tree
p1226
(dp1227
g7
I0
sg19
I00
sbsg7
I1
sg20
I01
sg21
g38
sbsg20
I00
sg21
g40
sbsg7
I3
sg20
I01
sg21
g39
sbsg7
I4
sg20
I01
sg21
g81
sbsg20
I00
sg21
g40
sba(imyEvolve
Tree
p1228
(dp1229
g7
I5
sg8
(imyEvolve
Tree
p1230
(dp1231
g15
(imyEvolve
Tree
p1232
(dp1233
g7
I3
sg8
(imyEvolve
Tree
p1234
(dp1235
g15
(imyEvolve
Tree
p1236
(dp1237
g7
I1
sg8
(imyEvolve
Tree
p1238
(dp1239
g7
I0
sg19
I00
sbsg23
(imyEvolve
Tree
p1240
(dp1241
g7
I0
sg19
I00
sbsg20
I00
sg21
g31
sbsg7
I2
sg20
I01
sg21
g38
sbsg23
(imyEvolve
Tree
p1242
(dp1243
g7
I2
sg8
(imyEvolve
Tree
p1244
(dp1245
g15
(imyEvolve
Tree
p1246
(dp1247
g7
I0
sg19
I00
sbsg7
I1
sg20
I01
sg21
g81
sbsg23
(imyEvolve
Tree
p1248
(dp1249
g15
(imyEvolve
Tree
p1250
(dp1251
g7
I0
sg18
F4.071074371440504
sg19
I01
sbsg7
I1
sg20
I01
sg21
g38
sbsg20
I00
sg21
g30
sbsg20
I00
sg21
g30
sbsg7
I4
sg20
I01
sg21
g22
sbsg23
(imyEvolve
Tree
p1252
(dp1253
g15
(imyEvolve
Tree
p1254
(dp1255
g15
(imyEvolve
Tree
p1256
(dp1257
g15
(imyEvolve
Tree
p1258
(dp1259
g15
(imyEvolve
Tree
p1260
(dp1261
g7
I0
sg19
I00
sbsg7
I1
sg20
I01
sg21
g38
sbsg7
I2
sg20
I01
sg21
g22
sbsg7
I3
sg20
I01
sg21
g22
sbsg7
I4
sg20
I01
sg21
g39
sbsg20
I00
sg21
g31
sba(imyEvolve
Tree
p1262
(dp1263
g7
I2
sg8
(imyEvolve
Tree
p1264
(dp1265
g15
(imyEvolve
Tree
p1266
(dp1267
g7
I0
sg18
F-0.5260191656723912
sg19
I01
sbsg7
I1
sg20
I01
sg21
g38
sbsg23
(imyEvolve
Tree
p1268
(dp1269
g15
(imyEvolve
Tree
p1270
(dp1271
g7
I0
sg19
I00
sbsg7
I1
sg20
I01
sg21
g38
sbsg20
I00
sg21
g30
sba(imyEvolve
Tree
p1272
(dp1273
g15
(imyEvolve
Tree
p1274
(dp1275
g15
(imyEvolve
Tree
p1276
(dp1277
g7
I0
sg19
I00
sbsg7
I1
sg20
I01
sg21
g38
sbsg7
I2
sg20
I01
sg21
g38
sba(imyEvolve
Tree
p1278
(dp1279
g7
I5
sg8
(imyEvolve
Tree
p1280
(dp1281
g7
I4
sg8
(imyEvolve
Tree
p1282
(dp1283
g15
(imyEvolve
Tree
p1284
(dp1285
g7
I2
sg8
(imyEvolve
Tree
p1286
(dp1287
g15
(imyEvolve
Tree
p1288
(dp1289
g7
I0
sg19
I00
sbsg7
I1
sg20
I01
sg21
g22
sbsg23
(imyEvolve
Tree
p1290
(dp1291
g7
I1
sg8
(imyEvolve
Tree
p1292
(dp1293
g7
I0
sg19
I00
sbsg23
(imyEvolve
Tree
p1294
(dp1295
g7
I0
sg18
F0.9154613761783263
sg19
I01
sbsg20
I00
sg21
g40
sbsg20
I00
sg21
g30
sbsg7
I3
sg20
I01
sg21
g38
sbsg23
(imyEvolve
Tree
p1296
(dp1297
g7
I3
sg8
(imyEvolve
Tree
p1298
(dp1299
g7
I2
sg8
(imyEvolve
Tree
p1300
(dp1301
g7
I1
sg8
(imyEvolve
Tree
p1302
(dp1303
g7
I0
sg18
F-3.9363774177954394
sg19
I01
sbsg23
(imyEvolve
Tree
p1304
(dp1305
g7
I0
sg18
F4.572939003084953
sg19
I01
sbsg20
I00
sg21
g40
sbsg23
(imyEvolve
Tree
p1306
(dp1307
g7
I1
sg8
(imyEvolve
Tree
p1308
(dp1309
g7
I0
sg18
F-3.844686531469356
sg19
I01
sbsg23
(imyEvolve
Tree
p1310
(dp1311
g7
I0
sg19
I00
sbsg20
I00
sg21
g40
sbsg20
I00
sg21
g40
sbsg23
(imyEvolve
Tree
p1312
(dp1313
g7
I2
sg8
(imyEvolve
Tree
p1314
(dp1315
g15
(imyEvolve
Tree
p1316
(dp1317
g7
I0
sg18
F3.8490557531194636
sg19
I01
sbsg7
I1
sg20
I01
sg21
g39
sbsg23
(imyEvolve
Tree
p1318
(dp1319
g7
I1
sg8
(imyEvolve
Tree
p1320
(dp1321
g7
I0
sg19
I00
sbsg23
(imyEvolve
Tree
p1322
(dp1323
g7
I0
sg18
F4.012133357268075
sg19
I01
sbsg20
I00
sg21
g30
sbsg20
I00
sg21
g31
sbsg20
I00
sg21
g31
sbsg20
I00
sg21
g31
sbsg23
(imyEvolve
Tree
p1324
(dp1325
g7
I4
sg8
(imyEvolve
Tree
p1326
(dp1327
g15
(imyEvolve
Tree
p1328
(dp1329
g15
(imyEvolve
Tree
p1330
(dp1331
g7
I1
sg8
(imyEvolve
Tree
p1332
(dp1333
g7
I0
sg19
I00
sbsg23
(imyEvolve
Tree
p1334
(dp1335
g7
I0
sg18
F-2.9401568660658963
sg19
I01
sbsg20
I00
sg21
g31
sbsg7
I2
sg20
I01
sg21
g22
sbsg7
I3
sg20
I01
sg21
g38
sbsg23
(imyEvolve
Tree
p1336
(dp1337
g7
I3
sg8
(imyEvolve
Tree
p1338
(dp1339
g15
(imyEvolve
Tree
p1340
(dp1341
g7
I1
sg8
(imyEvolve
Tree
p1342
(dp1343
g7
I0
sg18
F4.7621074187997205
sg19
I01
sbsg23
(imyEvolve
Tree
p1344
(dp1345
g7
I0
sg18
F-4.4728122949444185
sg19
I01
sbsg20
I00
sg21
g31
sbsg7
I2
sg20
I01
sg21
g81
sbsg23
(imyEvolve
Tree
p1346
(dp1347
g15
(imyEvolve
Tree
p1348
(dp1349
g15
(imyEvolve
Tree
p1350
(dp1351
g7
I0
sg19
I00
sbsg7
I1
sg20
I01
sg21
g38
sbsg7
I2
sg20
I01
sg21
g22
sbsg20
I00
sg21
g30
sbsg20
I00
sg21
g40
sbsg20
I00
sg21
g30
sba(imyEvolve
Tree
p1352
(dp1353
g15
(imyEvolve
Tree
p1354
(dp1355
g7
I3
sg8
(imyEvolve
Tree
p1356
(dp1357
g7
I2
sg8
(imyEvolve
Tree
p1358
(dp1359
g15
(imyEvolve
Tree
p1360
(dp1361
g7
I0
sg18
F3.020096157016548
sg19
I01
sbsg7
I1
sg20
I01
sg21
g39
sbsg23
(imyEvolve
Tree
p1362
(dp1363
g15
(imyEvolve
Tree
p1364
(dp1365
g7
I0
sg18
F2.848902965588662
sg19
I01
sbsg7
I1
sg20
I01
sg21
g39
sbsg20
I00
sg21
g31
sbsg23
(imyEvolve
Tree
p1366
(dp1367
g7
I2
sg8
(imyEvolve
Tree
p1368
(dp1369
g15
(imyEvolve
Tree
p1370
(dp1371
g7
I0
sg18
F-0.689128592471203
sg19
I01
sbsg7
I1
sg20
I01
sg21
g38
sbsg23
(imyEvolve
Tree
p1372
(dp1373
g15
(imyEvolve
Tree
p1374
(dp1375
g7
I0
sg18
F-2.6889271499898406
sg19
I01
sbsg7
I1
sg20
I01
sg21
g38
sbsg20
I00
sg21
g30
sbsg20
I00
sg21
g40
sbsg7
I4
sg20
I01
sg21
g39
sba(imyEvolve
Tree
p1376
(dp1377
g7
I3
sg8
(imyEvolve
Tree
p1378
(dp1379
g15
(imyEvolve
Tree
p1380
(dp1381
g15
(imyEvolve
Tree
p1382
(dp1383
g7
I0
sg18
F-0.3364418412966943
sg19
I01
sbsg7
I1
sg20
I01
sg21
g22
sbsg7
I2
sg20
I01
sg21
g38
sbsg23
(imyEvolve
Tree
p1384
(dp1385
g7
I2
sg8
(imyEvolve
Tree
p1386
(dp1387
g7
I1
sg8
(imyEvolve
Tree
p1388
(dp1389
g7
I0
sg18
F4.140551014708793
sg19
I01
sbsg23
(imyEvolve
Tree
p1390
(dp1391
g7
I0
sg19
I00
sbsg20
I00
sg21
g40
sbsg23
(imyEvolve
Tree
p1392
(dp1393
g15
(imyEvolve
Tree
p1394
(dp1395
g7
I0
sg18
F-2.2824513862640847
sg19
I01
sbsg7
I1
sg20
I01
sg21
g22
sbsg20
I00
sg21
g31
sbsg20
I00
sg21
g30
sba(imyEvolve
Tree
p1396
(dp1397
g7
I5
sg8
(imyEvolve
Tree
p1398
(dp1399
g7
I4
sg8
(imyEvolve
Tree
p1400
(dp1401
g7
I3
sg8
(imyEvolve
Tree
p1402
(dp1403
g7
I2
sg8
(imyEvolve
Tree
p1404
(dp1405
g15
(imyEvolve
Tree
p1406
(dp1407
g7
I0
sg19
I00
sbsg7
I1
sg20
I01
sg21
g39
sbsg23
(imyEvolve
Tree
p1408
(dp1409
g7
I1
sg8
(imyEvolve
Tree
p1410
(dp1411
g7
I0
sg18
F0.2880098646416842
sg19
I01
sbsg23
(imyEvolve
Tree
p1412
(dp1413
g7
I0
sg19
I00
sbsg20
I00
sg21
g40
sbsg20
I00
sg21
g40
sbsg23
(imyEvolve
Tree
p1414
(dp1415
g7
I2
sg8
(imyEvolve
Tree
p1416
(dp1417
g15
(imyEvolve
Tree
p1418
(dp1419
g7
I0
sg18
F4.352373081846313
sg19
I01
sbsg7
I1
sg20
I01
sg21
g22
sbsg23
(imyEvolve
Tree
p1420
(dp1421
g7
I1
sg8
(imyEvolve
Tree
p1422
(dp1423
g7
I0
sg19
I00
sbsg23
(imyEvolve
Tree
p1424
(dp1425
g7
I0
sg19
I00
sbsg20
I00
sg21
g30
sbsg20
I00
sg21
g30
sbsg20
I00
sg21
g30
sbsg23
(imyEvolve
Tree
p1426
(dp1427
g15
(imyEvolve
Tree
p1428
(dp1429
g7
I2
sg8
(imyEvolve
Tree
p1430
(dp1431
g15
(imyEvolve
Tree
p1432
(dp1433
g7
I0
sg18
F-3.5514820637579767
sg19
I01
sbsg7
I1
sg20
I01
sg21
g39
sbsg23
(imyEvolve
Tree
p1434
(dp1435
g15
(imyEvolve
Tree
p1436
(dp1437
g7
I0
sg18
F-1.259104781748234
sg19
I01
sbsg7
I1
sg20
I01
sg21
g81
sbsg20
I00
sg21
g31
sbsg7
I3
sg20
I01
sg21
g22
sbsg20
I00
sg21
g30
sbsg23
(imyEvolve
Tree
p1438
(dp1439
g7
I4
sg8
(imyEvolve
Tree
p1440
(dp1441
g15
(imyEvolve
Tree
p1442
(dp1443
g7
I2
sg8
(imyEvolve
Tree
p1444
(dp1445
g7
I1
sg8
(imyEvolve
Tree
p1446
(dp1447
g7
I0
sg18
F-4.5426029319555035
sg19
I01
sbsg23
(imyEvolve
Tree
p1448
(dp1449
g7
I0
sg19
I00
sbsg20
I00
sg21
g30
sbsg23
(imyEvolve
Tree
p1450
(dp1451
g7
I1
sg8
(imyEvolve
Tree
p1452
(dp1453
g7
I0
sg19
I00
sbsg23
(imyEvolve
Tree
p1454
(dp1455
g7
I0
sg18
F-1.748354612921419
sg19
I01
sbsg20
I00
sg21
g31
sbsg20
I00
sg21
g30
sbsg7
I3
sg20
I01
sg21
g22
sbsg23
(imyEvolve
Tree
p1456
(dp1457
g7
I3
sg8
(imyEvolve
Tree
p1458
(dp1459
g15
(imyEvolve
Tree
p1460
(dp1461
g7
I1
sg8
(imyEvolve
Tree
p1462
(dp1463
g7
I0
sg18
F-1.9713563357169503
sg19
I01
sbsg23
(imyEvolve
Tree
p1464
(dp1465
g7
I0
sg18
F3.9084174625104637
sg19
I01
sbsg20
I00
sg21
g31
sbsg7
I2
sg20
I01
sg21
g38
sbsg23
(imyEvolve
Tree
p1466
(dp1467
g15
(imyEvolve
Tree
p1468
(dp1469
g7
I1
sg8
(imyEvolve
Tree
p1470
(dp1471
g7
I0
sg19
I00
sbsg23
(imyEvolve
Tree
p1472
(dp1473
g7
I0
sg18
F-1.5036192442260354
sg19
I01
sbsg20
I00
sg21
g30
sbsg7
I2
sg20
I01
sg21
g39
sbsg20
I00
sg21
g30
sbsg20
I00
sg21
g31
sbsg20
I00
sg21
g40
sba(imyEvolve
Tree
p1474
(dp1475
g15
(imyEvolve
Tree
p1476
(dp1477
g15
(imyEvolve
Tree
p1478
(dp1479
g7
I1
sg8
(imyEvolve
Tree
p1480
(dp1481
g7
I0
sg18
F0.8312591520046375
sg19
I01
sbsg23
(imyEvolve
Tree
p1482
(dp1483
g7
I0
sg18
F-4.947359358326785
sg19
I01
sbsg20
I00
sg21
g31
sbsg7
I2
sg20
I01
sg21
g22
sbsg7
I3
sg20
I01
sg21
g38
sba(imyEvolve
Tree
p1484
(dp1485
g7
I2
sg8
(imyEvolve
Tree
p1486
(dp1487
g7
I1
sg8
(imyEvolve
Tree
p1488
(dp1489
g7
I0
sg18
F3.057833400539703
sg19
I01
sbsg23
(imyEvolve
Tree
p1490
(dp1491
g7
I0
sg18
F1.4504258614860834
sg19
I01
sbsg20
I00
sg21
g31
sbsg23
(imyEvolve
Tree
p1492
(dp1493
g15
(imyEvolve
Tree
p1494
(dp1495
g7
I0
sg18
F-2.525331835648866
sg19
I01
sbsg7
I1
sg20
I01
sg21
g38
sbsg20
I00
sg21
g30
sba(imyEvolve
Tree
p1496
(dp1497
g15
(imyEvolve
Tree
p1498
(dp1499
g7
I1
sg8
(imyEvolve
Tree
p1500
(dp1501
g7
I0
sg18
F1.2555768606389588
sg19
I01
sbsg23
(imyEvolve
Tree
p1502
(dp1503
g7
I0
sg18
F-4.268105160462692
sg19
I01
sbsg20
I00
sg21
g40
sbsg7
I2
sg20
I01
sg21
g81
sbaa(lp1504
(imyEvolve
Tree
p1505
(dp1506
g7
I5
sg8
(imyEvolve
Tree
p1507
(dp1508
g15
(imyEvolve
Tree
p1509
(dp1510
g15
(imyEvolve
Tree
p1511
(dp1512
g7
I2
sg8
(imyEvolve
Tree
p1513
(dp1514
g15
(imyEvolve
Tree
p1515
(dp1516
g7
I0
sg18
F-4.389924108710684
sg19
I01
sbsg7
I1
sg20
I01
sg21
g22
sbsg23
(imyEvolve
Tree
p1517
(dp1518
g7
I1
sg8
(imyEvolve
Tree
p1519
(dp1520
g7
I0
sg19
I00
sbsg23
(imyEvolve
Tree
p1521
(dp1522
g7
I0
sg19
I00
sbsg20
I00
sg21
g31
sbsg20
I00
sg21
g30
sbsg7
I3
sg20
I01
sg21
g81
sbsg7
I4
sg20
I01
sg21
g38
sbsg23
(imyEvolve
Tree
p1523
(dp1524
g7
I4
sg8
(imyEvolve
Tree
p1525
(dp1526
g7
I3
sg8
(imyEvolve
Tree
p1527
(dp1528
g15
(imyEvolve
Tree
p1529
(dp1530
g15
(imyEvolve
Tree
p1531
(dp1532
g7
I0
sg19
I00
sbsg7
I1
sg20
I01
sg21
g81
sbsg7
I2
sg20
I01
sg21
g22
sbsg23
(imyEvolve
Tree
p1533
(dp1534
g7
I2
sg8
(imyEvolve
Tree
p1535
(dp1536
g7
I1
sg8
(imyEvolve
Tree
p1537
(dp1538
g7
I0
sg19
I00
sbsg23
(imyEvolve
Tree
p1539
(dp1540
g7
I0
sg19
I00
sbsg20
I00
sg21
g40
sbsg23
(imyEvolve
Tree
p1541
(dp1542
g7
I1
sg8
(imyEvolve
Tree
p1543
(dp1544
g7
I0
sg19
I00
sbsg23
(imyEvolve
Tree
p1545
(dp1546
g7
I0
sg18
F3.8380147476003934
sg19
I01
sbsg20
I00
sg21
g30
sbsg20
I00
sg21
g30
sbsg20
I00
sg21
g40
sbsg23
(imyEvolve
Tree
p1547
(dp1548
g15
(imyEvolve
Tree
p1549
(dp1550
g15
(imyEvolve
Tree
p1551
(dp1552
g15
(imyEvolve
Tree
p1553
(dp1554
g7
I0
sg18
F0.8593872540664558
sg19
I01
sbsg7
I1
sg20
I01
sg21
g39
sbsg7
I2
sg20
I01
sg21
g22
sbsg7
I3
sg20
I01
sg21
g39
sbsg20
I00
sg21
g40
sbsg20
I00
sg21
g40
sba(imyEvolve
Tree
p1555
(dp1556
g7
I5
sg8
(imyEvolve
Tree
p1557
(dp1558
g7
I4
sg8
(imyEvolve
Tree
p1559
(dp1560
g15
(imyEvolve
Tree
p1561
(dp1562
g15
(imyEvolve
Tree
p1563
(dp1564
g7
I1
sg8
(imyEvolve
Tree
p1565
(dp1566
g7
I0
sg18
F-3.4387814960473273
sg19
I01
sbsg23
(imyEvolve
Tree
p1567
(dp1568
g7
I0
sg18
F-2.021506589135591
sg19
I01
sbsg20
I00
sg21
g31
sbsg7
I2
sg20
I01
sg21
g22
sbsg7
I3
sg20
I01
sg21
g22
sbsg23
(imyEvolve
Tree
p1569
(dp1570
g15
(imyEvolve
Tree
p1571
(dp1572
g15
(imyEvolve
Tree
p1573
(dp1574
g7
I1
sg8
(imyEvolve
Tree
p1575
(dp1576
g7
I0
sg19
I00
sbsg23
(imyEvolve
Tree
p1577
(dp1578
g7
I0
sg18
F-1.3825738779464505
sg19
I01
sbsg20
I00
sg21
g31
sbsg7
I2
sg20
I01
sg21
g39
sbsg7
I3
sg20
I01
sg21
g39
sbsg20
I00
sg21
g31
sbsg23
(imyEvolve
Tree
p1579
(dp1580
g7
I4
sg8
(imyEvolve
Tree
p1581
(dp1582
g7
I3
sg8
(imyEvolve
Tree
p1583
(dp1584
g15
(imyEvolve
Tree
p1585
(dp1586
g15
(imyEvolve
Tree
p1587
(dp1588
g7
I0
sg19
I00
sbsg7
I1
sg20
I01
sg21
g81
sbsg7
I2
sg20
I01
sg21
g81
sbsg23
(imyEvolve
Tree
p1589
(dp1590
g7
I2
sg8
(imyEvolve
Tree
p1591
(dp1592
g15
(imyEvolve
Tree
p1593
(dp1594
g7
I0
sg18
F3.2845822151872675
sg19
I01
sbsg7
I1
sg20
I01
sg21
g22
sbsg23
(imyEvolve
Tree
p1595
(dp1596
g15
(imyEvolve
Tree
p1597
(dp1598
g7
I0
sg18
F0.28559576631678496
sg19
I01
sbsg7
I1
sg20
I01
sg21
g81
sbsg20
I00
sg21
g31
sbsg20
I00
sg21
g31
sbsg23
(imyEvolve
Tree
p1599
(dp1600
g7
I3
sg8
(imyEvolve
Tree
p1601
(dp1602
g15
(imyEvolve
Tree
p1603
(dp1604
g7
I1
sg8
(imyEvolve
Tree
p1605
(dp1606
g7
I0
sg19
I00
sbsg23
(imyEvolve
Tree
p1607
(dp1608
g7
I0
sg18
F0.22421214069841966
sg19
I01
sbsg20
I00
sg21
g31
sbsg7
I2
sg20
I01
sg21
g22
sbsg23
(imyEvolve
Tree
p1609
(dp1610
g15
(imyEvolve
Tree
p1611
(dp1612
g7
I1
sg8
(imyEvolve
Tree
p1613
(dp1614
g7
I0
sg18
F2.341858714038807
sg19
I01
sbsg23
(imyEvolve
Tree
p1615
(dp1616
g7
I0
sg19
I00
sbsg20
I00
sg21
g31
sbsg7
I2
sg20
I01
sg21
g39
sbsg20
I00
sg21
g31
sbsg20
I00
sg21
g30
sbsg20
I00
sg21
g40
sba(imyEvolve
Tree
p1617
(dp1618
g15
(imyEvolve
Tree
p1619
(dp1620
g15
(imyEvolve
Tree
p1621
(dp1622
g15
(imyEvolve
Tree
p1623
(dp1624
g7
I0
sg19
I00
sbsg7
I1
sg20
I01
sg21
g81
sbsg7
I2
sg20
I01
sg21
g38
sbsg7
I3
sg20
I01
sg21
g39
sba(imyEvolve
Tree
p1625
(dp1626
g15
(imyEvolve
Tree
p1627
(dp1628
g7
I4
sg8
(imyEvolve
Tree
p1629
(dp1630
g15
(imyEvolve
Tree
p1631
(dp1632
g15
(imyEvolve
Tree
p1633
(dp1634
g15
(imyEvolve
Tree
p1635
(dp1636
g7
I0
sg18
F-0.9282548474993373
sg19
I01
sbsg7
I1
sg20
I01
sg21
g38
sbsg7
I2
sg20
I01
sg21
g81
sbsg7
I3
sg20
I01
sg21
g39
sbsg23
(imyEvolve
Tree
p1637
(dp1638
g7
I3
sg8
(imyEvolve
Tree
p1639
(dp1640
g7
I2
sg8
(imyEvolve
Tree
p1641
(dp1642
g7
I1
sg8
(imyEvolve
Tree
p1643
(dp1644
g7
I0
sg18
F3.402547895491436
sg19
I01
sbsg23
(imyEvolve
Tree
p1645
(dp1646
g7
I0
sg18
F-1.8816275736357335
sg19
I01
sbsg20
I00
sg21
g30
sbsg23
(imyEvolve
Tree
p1647
(dp1648
g7
I1
sg8
(imyEvolve
Tree
p1649
(dp1650
g7
I0
sg19
I00
sbsg23
(imyEvolve
Tree
p1651
(dp1652
g7
I0
sg18
F0.8207063051658352
sg19
I01
sbsg20
I00
sg21
g31
sbsg20
I00
sg21
g31
sbsg23
(imyEvolve
Tree
p1653
(dp1654
g7
I2
sg8
(imyEvolve
Tree
p1655
(dp1656
g7
I1
sg8
(imyEvolve
Tree
p1657
(dp1658
g7
I0
sg18
F2.490941477354445
sg19
I01
sbsg23
(imyEvolve
Tree
p1659
(dp1660
g7
I0
sg19
I00
sbsg20
I00
sg21
g40
sbsg23
(imyEvolve
Tree
p1661
(dp1662
g15
(imyEvolve
Tree
p1663
(dp1664
g7
I0
sg19
I00
sbsg7
I1
sg20
I01
sg21
g38
sbsg20
I00
sg21
g40
sbsg20
I00
sg21
g31
sbsg20
I00
sg21
g31
sbsg7
I5
sg20
I01
sg21
g39
sba(imyEvolve
Tree
p1665
(dp1666
g7
I5
sg8
(imyEvolve
Tree
p1667
(dp1668
g15
(imyEvolve
Tree
p1669
(dp1670
g15
(imyEvolve
Tree
p1671
(dp1672
g15
(imyEvolve
Tree
p1673
(dp1674
g15
(imyEvolve
Tree
p1675
(dp1676
g7
I0
sg18
F-4.935146469008097
sg19
I01
sbsg7
I1
sg20
I01
sg21
g38
sbsg7
I2
sg20
I01
sg21
g22
sbsg7
I3
sg20
I01
sg21
g22
sbsg7
I4
sg20
I01
sg21
g81
sbsg23
(imyEvolve
Tree
p1677
(dp1678
g15
(imyEvolve
Tree
p1679
(dp1680
g15
(imyEvolve
Tree
p1681
(dp1682
g7
I2
sg8
(imyEvolve
Tree
p1683
(dp1684
g15
(imyEvolve
Tree
p1685
(dp1686
g7
I0
sg18
F-3.557912358012657
sg19
I01
sbsg7
I1
sg20
I01
sg21
g39
sbsg23
(imyEvolve
Tree
p1687
(dp1688
g15
(imyEvolve
Tree
p1689
(dp1690
g7
I0
sg18
F4.713136166879437
sg19
I01
sbsg7
I1
sg20
I01
sg21
g38
sbsg20
I00
sg21
g30
sbsg7
I3
sg20
I01
sg21
g39
sbsg7
I4
sg20
I01
sg21
g22
sbsg20
I00
sg21
g40
sba(imyEvolve
Tree
p1691
(dp1692
g7
I5
sg8
(imyEvolve
Tree
p1693
(dp1694
g15
(imyEvolve
Tree
p1695
(dp1696
g7
I3
sg8
(imyEvolve
Tree
p1697
(dp1698
g15
(imyEvolve
Tree
p1699
(dp1700
g15
(imyEvolve
Tree
p1701
(dp1702
g7
I0
sg19
I00
sbsg7
I1
sg20
I01
sg21
g38
sbsg7
I2
sg20
I01
sg21
g38
sbsg23
(imyEvolve
Tree
p1703
(dp1704
g7
I2
sg8
(imyEvolve
Tree
p1705
(dp1706
g7
I1
sg8
(imyEvolve
Tree
p1707
(dp1708
g7
I0
sg18
F-3.315070428027902
sg19
I01
sbsg23
(imyEvolve
Tree
p1709
(dp1710
g7
I0
sg18
F-4.910948996614858
sg19
I01
sbsg20
I00
sg21
g31
sbsg23
(imyEvolve
Tree
p1711
(dp1712
g15
(imyEvolve
Tree
p1713
(dp1714
g7
I0
sg18
F-2.5340317650802744
sg19
I01
sbsg7
I1
sg20
I01
sg21
g39
sbsg20
I00
sg21
g40
sbsg20
I00
sg21
g40
sbsg7
I4
sg20
I01
sg21
g38
sbsg23
(imyEvolve
Tree
p1715
(dp1716
g15
(imyEvolve
Tree
p1717
(dp1718
g7
I3
sg8
(imyEvolve
Tree
p1719
(dp1720
g15
(imyEvolve
Tree
p1721
(dp1722
g7
I1
sg8
(imyEvolve
Tree
p1723
(dp1724
g7
I0
sg18
F0.5117677068068609
sg19
I01
sbsg23
(imyEvolve
Tree
p1725
(dp1726
g7
I0
sg19
I00
sbsg20
I00
sg21
g31
sbsg7
I2
sg20
I01
sg21
g39
sbsg23
(imyEvolve
Tree
p1727
(dp1728
g7
I2
sg8
(imyEvolve
Tree
p1729
(dp1730
g15
(imyEvolve
Tree
p1731
(dp1732
g7
I0
sg19
I00
sbsg7
I1
sg20
I01
sg21
g22
sbsg23
(imyEvolve
Tree
p1733
(dp1734
g7
I1
sg8
(imyEvolve
Tree
p1735
(dp1736
g7
I0
sg18
F-2.093796680340284
sg19
I01
sbsg23
(imyEvolve
Tree
p1737
(dp1738
g7
I0
sg19
I00
sbsg20
I00
sg21
g31
sbsg20
I00
sg21
g40
sbsg20
I00
sg21
g40
sbsg7
I4
sg20
I01
sg21
g38
sbsg20
I00
sg21
g31
sba(imyEvolve
Tree
p1739
(dp1740
g15
(imyEvolve
Tree
p1741
(dp1742
g7
I2
sg8
(imyEvolve
Tree
p1743
(dp1744
g7
I1
sg8
(imyEvolve
Tree
p1745
(dp1746
g7
I0
sg19
I00
sbsg23
(imyEvolve
Tree
p1747
(dp1748
g7
I0
sg18
F-3.817430631376163
sg19
I01
sbsg20
I00
sg21
g31
sbsg23
(imyEvolve
Tree
p1749
(dp1750
g15
(imyEvolve
Tree
p1751
(dp1752
g7
I0
sg19
I00
sbsg7
I1
sg20
I01
sg21
g81
sbsg20
I00
sg21
g40
sbsg7
I3
sg20
I01
sg21
g38
sba(imyEvolve
Tree
p1753
(dp1754
g7
I4
sg8
(imyEvolve
Tree
p1755
(dp1756
g7
I3
sg8
(imyEvolve
Tree
p1757
(dp1758
g15
(imyEvolve
Tree
p1759
(dp1760
g15
(imyEvolve
Tree
p1761
(dp1762
g7
I0
sg18
F0.2330580493279646
sg19
I01
sbsg7
I1
sg20
I01
sg21
g39
sbsg7
I2
sg20
I01
sg21
g81
sbsg23
(imyEvolve
Tree
p1763
(dp1764
g15
(imyEvolve
Tree
p1765
(dp1766
g15
(imyEvolve
Tree
p1767
(dp1768
g7
I0
sg18
F3.6010872920846904
sg19
I01
sbsg7
I1
sg20
I01
sg21
g22
sbsg7
I2
sg20
I01
sg21
g81
sbsg20
I00
sg21
g31
sbsg23
(imyEvolve
Tree
p1769
(dp1770
g15
(imyEvolve
Tree
p1771
(dp1772
g15
(imyEvolve
Tree
p1773
(dp1774
g7
I1
sg8
(imyEvolve
Tree
p1775
(dp1776
g7
I0
sg19
I00
sbsg23
(imyEvolve
Tree
p1777
(dp1778
g7
I0
sg18
F4.006556731349125
sg19
I01
sbsg20
I00
sg21
g30
sbsg7
I2
sg20
I01
sg21
g22
sbsg7
I3
sg20
I01
sg21
g38
sbsg20
I00
sg21
g31
sba(imyEvolve
Tree
p1779
(dp1780
g15
(imyEvolve
Tree
p1781
(dp1782
g15
(imyEvolve
Tree
p1783
(dp1784
g7
I0
sg19
I00
sbsg7
I1
sg20
I01
sg21
g22
sbsg7
I2
sg20
I01
sg21
g22
sbaa(lp1785
(imyEvolve
Tree
p1786
(dp1787
g7
I2
sg8
(imyEvolve
Tree
p1788
(dp1789
g7
I1
sg8
(imyEvolve
Tree
p1790
(dp1791
g7
I0
sg18
F0.5887700914595726
sg19
I01
sbsg23
(imyEvolve
Tree
p1792
(dp1793
g7
I0
sg18
F0.1594062385126538
sg19
I01
sbsg20
I00
sg21
g30
sbsg23
(imyEvolve
Tree
p1794
(dp1795
g7
I1
sg8
(imyEvolve
Tree
p1796
(dp1797
g7
I0
sg19
I00
sbsg23
(imyEvolve
Tree
p1798
(dp1799
g7
I0
sg19
I00
sbsg20
I00
sg21
g30
sbsg20
I00
sg21
g30
sba(imyEvolve
Tree
p1800
(dp1801
g7
I2
sg8
(imyEvolve
Tree
p1802
(dp1803
g15
(imyEvolve
Tree
p1804
(dp1805
g7
I0
sg18
F0.07870356156769898
sg19
I01
sbsg7
I1
sg20
I01
sg21
g81
sbsg23
(imyEvolve
Tree
p1806
(dp1807
g15
(imyEvolve
Tree
p1808
(dp1809
g7
I0
sg18
F0.058864815235651236
sg19
I01
sbsg7
I1
sg20
I01
sg21
g39
sbsg20
I00
sg21
g31
sba(imyEvolve
Tree
p1810
(dp1811
g15
(imyEvolve
Tree
p1812
(dp1813
g7
I1
sg8
(imyEvolve
Tree
p1814
(dp1815
g7
I0
sg18
F2.7968808284621938
sg19
I01
sbsg23
(imyEvolve
Tree
p1816
(dp1817
g7
I0
sg19
I00
sbsg20
I00
sg21
g30
sbsg7
I2
sg20
I01
sg21
g39
sba(imyEvolve
Tree
p1818
(dp1819
g15
(imyEvolve
Tree
p1820
(dp1821
g15
(imyEvolve
Tree
p1822
(dp1823
g7
I1
sg8
(imyEvolve
Tree
p1824
(dp1825
g7
I0
sg19
I00
sbsg23
(imyEvolve
Tree
p1826
(dp1827
g7
I0
sg19
I00
sbsg20
I00
sg21
g31
sbsg7
I2
sg20
I01
sg21
g39
sbsg7
I3
sg20
I01
sg21
g81
sba(imyEvolve
Tree
p1828
(dp1829
g7
I3
sg8
(imyEvolve
Tree
p1830
(dp1831
g15
(imyEvolve
Tree
p1832
(dp1833
g15
(imyEvolve
Tree
p1834
(dp1835
g7
I0
sg19
I00
sbsg7
I1
sg20
I01
sg21
g39
sbsg7
I2
sg20
I01
sg21
g81
sbsg23
(imyEvolve
Tree
p1836
(dp1837
g7
I2
sg8
(imyEvolve
Tree
p1838
(dp1839
g15
(imyEvolve
Tree
p1840
(dp1841
g7
I0
sg18
F1.1372161548409396
sg19
I01
sbsg7
I1
sg20
I01
sg21
g81
sbsg23
(imyEvolve
Tree
p1842
(dp1843
g15
(imyEvolve
Tree
p1844
(dp1845
g7
I0
sg19
I00
sbsg7
I1
sg20
I01
sg21
g81
sbsg20
I00
sg21
g30
sbsg20
I00
sg21
g31
sba(imyEvolve
Tree
p1846
(dp1847
g15
(imyEvolve
Tree
p1848
(dp1849
g7
I1
sg8
(imyEvolve
Tree
p1850
(dp1851
g7
I0
sg18
F-0.3044583949511601
sg19
I01
sbsg23
(imyEvolve
Tree
p1852
(dp1853
g7
I0
sg18
F4.2178198117769075
sg19
I01
sbsg20
I00
sg21
g40
sbsg7
I2
sg20
I01
sg21
g39
sba(imyEvolve
Tree
p1854
(dp1855
g7
I4
sg8
(imyEvolve
Tree
p1856
(dp1857
g15
(imyEvolve
Tree
p1858
(dp1859
g7
I2
sg8
(imyEvolve
Tree
p1860
(dp1861
g7
I1
sg8
(imyEvolve
Tree
p1862
(dp1863
g7
I0
sg18
F-4.736588926441607
sg19
I01
sbsg23
(imyEvolve
Tree
p1864
(dp1865
g7
I0
sg19
I00
sbsg20
I00
sg21
g30
sbsg23
(imyEvolve
Tree
p1866
(dp1867
g7
I1
sg8
(imyEvolve
Tree
p1868
(dp1869
g7
I0
sg19
I00
sbsg23
(imyEvolve
Tree
p1870
(dp1871
g7
I0
sg19
I00
sbsg20
I00
sg21
g40
sbsg20
I00
sg21
g40
sbsg7
I3
sg20
I01
sg21
g39
sbsg23
(imyEvolve
Tree
p1872
(dp1873
g15
(imyEvolve
Tree
p1874
(dp1875
g15
(imyEvolve
Tree
p1876
(dp1877
g15
(imyEvolve
Tree
p1878
(dp1879
g7
I0
sg19
I00
sbsg7
I1
sg20
I01
sg21
g81
sbsg7
I2
sg20
I01
sg21
g38
sbsg7
I3
sg20
I01
sg21
g22
sbsg20
I00
sg21
g30
sba(imyEvolve
Tree
p1880
(dp1881
g7
I4
sg8
(imyEvolve
Tree
p1882
(dp1883
g15
(imyEvolve
Tree
p1884
(dp1885
g7
I2
sg8
(imyEvolve
Tree
p1886
(dp1887
g7
I1
sg8
(imyEvolve
Tree
p1888
(dp1889
g7
I0
sg18
F-3.769431956900222
sg19
I01
sbsg23
(imyEvolve
Tree
p1890
(dp1891
g7
I0
sg18
F0.2580878291986446
sg19
I01
sbsg20
I00
sg21
g30
sbsg23
(imyEvolve
Tree
p1892
(dp1893
g15
(imyEvolve
Tree
p1894
(dp1895
g7
I0
sg19
I00
sbsg7
I1
sg20
I01
sg21
g38
sbsg20
I00
sg21
g31
sbsg7
I3
sg20
I01
sg21
g38
sbsg23
(imyEvolve
Tree
p1896
(dp1897
g7
I3
sg8
(imyEvolve
Tree
p1898
(dp1899
g7
I2
sg8
(imyEvolve
Tree
p1900
(dp1901
g15
(imyEvolve
Tree
p1902
(dp1903
g7
I0
sg18
F4.151051465104883
sg19
I01
sbsg7
I1
sg20
I01
sg21
g81
sbsg23
(imyEvolve
Tree
p1904
(dp1905
g7
I1
sg8
(imyEvolve
Tree
p1906
(dp1907
g7
I0
sg18
F-3.0262007428728754
sg19
I01
sbsg23
(imyEvolve
Tree
p1908
(dp1909
g7
I0
sg19
I00
sbsg20
I00
sg21
g31
sbsg20
I00
sg21
g40
sbsg23
(imyEvolve
Tree
p1910
(dp1911
g15
(imyEvolve
Tree
p1912
(dp1913
g15
(imyEvolve
Tree
p1914
(dp1915
g7
I0
sg19
I00
sbsg7
I1
sg20
I01
sg21
g38
sbsg7
I2
sg20
I01
sg21
g81
sbsg20
I00
sg21
g40
sbsg20
I00
sg21
g40
sba(imyEvolve
Tree
p1916
(dp1917
g15
(imyEvolve
Tree
p1918
(dp1919
g7
I2
sg8
(imyEvolve
Tree
p1920
(dp1921
g15
(imyEvolve
Tree
p1922
(dp1923
g7
I0
sg18
F-2.1262879045343217
sg19
I01
sbsg7
I1
sg20
I01
sg21
g38
sbsg23
(imyEvolve
Tree
p1924
(dp1925
g7
I1
sg8
(imyEvolve
Tree
p1926
(dp1927
g7
I0
sg18
F-0.12958280502335473
sg19
I01
sbsg23
(imyEvolve
Tree
p1928
(dp1929
g7
I0
sg19
I00
sbsg20
I00
sg21
g40
sbsg20
I00
sg21
g31
sbsg7
I3
sg20
I01
sg21
g22
sbaasS'weightSharing'
p1930
(lp1931
I01
aI01
asS'fitnessValid'
p1932
I00
sS'fitness'
p1933
cnumpy.core.multiarray
scalar
p1934
(cnumpy
dtype
p1935
(S'f8'
p1936
I0
I1
tp1937
Rp1938
(I3
S'<'
p1939
NNNI-1
I-1
I0
tp1940
bS'a2UV\x15#\xe6?'
p1941
tp1942
Rp1943
sS'alpha'
p1944
F0.0017351088435621084
sS'resolution'
p1945
I27
sb.