(imyEvolve
Individual
p0
(dp1
S'funcs'
p2
(lp3
(lp4
(imyEvolve
Tree
p5
(dp6
S'left'
p7
(imyEvolve
Tree
p8
(dp9
g7
(imyEvolve
Tree
p10
(dp11
g7
(imyEvolve
Tree
p12
(dp13
S'below'
p14
(imyEvolve
Tree
p15
(dp16
S'depth'
p17
I0
sS'constant'
p18
F-4.4590358592361135
sS'isConstant'
p19
I01
sbsg17
I1
sS'single'
p20
I01
sS'op'
p21
cmath
sin
p22
sbsg17
I2
sS'right'
p23
(imyEvolve
Tree
p24
(dp25
g14
(imyEvolve
Tree
p26
(dp27
g17
I0
sg18
F-3.8868358677178003
sg19
I01
sbsg17
I1
sg20
I01
sg21
g22
sbsg20
I00
sg21
coperator
sub
p28
sbsg17
I3
sg23
(imyEvolve
Tree
p29
(dp30
g7
(imyEvolve
Tree
p31
(dp32
g14
(imyEvolve
Tree
p33
(dp34
g17
I0
sg19
I00
sbsg17
I1
sg20
I01
sg21
cmyEvolve
absSqrt
p35
sbsg17
I2
sg23
(imyEvolve
Tree
p36
(dp37
g7
(imyEvolve
Tree
p38
(dp39
g17
I0
sg18
F-0.724028644863516
sg19
I01
sbsg17
I1
sg23
(imyEvolve
Tree
p40
(dp41
g17
I0
sg18
F-4.484443587158648
sg19
I01
sbsg20
I00
sg21
coperator
add
p42
sbsg20
I00
sg21
g28
sbsg20
I00
sg21
coperator
mul
p43
sbsg17
I4
sg23
(imyEvolve
Tree
p44
(dp45
g7
(imyEvolve
Tree
p46
(dp47
g7
(imyEvolve
Tree
p48
(dp49
g7
(imyEvolve
Tree
p50
(dp51
g17
I0
sg18
F0.9673238546036531
sg19
I01
sbsg17
I1
sg23
(imyEvolve
Tree
p52
(dp53
g17
I0
sg19
I00
sbsg20
I00
sg21
g28
sbsg17
I2
sg23
(imyEvolve
Tree
p54
(dp55
g14
(imyEvolve
Tree
p56
(dp57
g17
I0
sg18
F-2.290018084195787
sg19
I01
sbsg17
I1
sg20
I01
sg21
g22
sbsg20
I00
sg21
g43
sbsg17
I3
sg23
(imyEvolve
Tree
p58
(dp59
g7
(imyEvolve
Tree
p60
(dp61
g14
(imyEvolve
Tree
p62
(dp63
g17
I0
sg18
F3.5812980826667093
sg19
I01
sbsg17
I1
sg20
I01
sg21
g22
sbsg17
I2
sg23
(imyEvolve
Tree
p64
(dp65
g14
(imyEvolve
Tree
p66
(dp67
g17
I0
sg18
F-4.775513033527141
sg19
I01
sbsg17
I1
sg20
I01
sg21
g35
sbsg20
I00
sg21
g43
sbsg20
I00
sg21
g28
sbsg20
I00
sg21
g42
sba(imyEvolve
Tree
p68
(dp69
g7
(imyEvolve
Tree
p70
(dp71
g7
(imyEvolve
Tree
p72
(dp73
g7
(imyEvolve
Tree
p74
(dp75
g14
(imyEvolve
Tree
p76
(dp77
g17
I0
sg18
F-0.914423459473146
sg19
I01
sbsg17
I1
sg20
I01
sg21
cmyEvolve
square
p78
sbsg17
I2
sg23
(imyEvolve
Tree
p79
(dp80
g7
(imyEvolve
Tree
p81
(dp82
g17
I0
sg19
I00
sbsg17
I1
sg23
(imyEvolve
Tree
p83
(dp84
g17
I0
sg19
I00
sbsg20
I00
sg21
g43
sbsg20
I00
sg21
g42
sbsg17
I3
sg23
(imyEvolve
Tree
p85
(dp86
g14
(imyEvolve
Tree
p87
(dp88
g7
(imyEvolve
Tree
p89
(dp90
g17
I0
sg19
I00
sbsg17
I1
sg23
(imyEvolve
Tree
p91
(dp92
g17
I0
sg19
I00
sbsg20
I00
sg21
g43
sbsg17
I2
sg20
I01
sg21
cmath
cos
p93
sbsg20
I00
sg21
g43
sbsg17
I4
sg23
(imyEvolve
Tree
p94
(dp95
g7
(imyEvolve
Tree
p96
(dp97
g14
(imyEvolve
Tree
p98
(dp99
g7
(imyEvolve
Tree
p100
(dp101
g17
I0
sg19
I00
sbsg17
I1
sg23
(imyEvolve
Tree
p102
(dp103
g17
I0
sg18
F2.321667585241106
sg19
I01
sbsg20
I00
sg21
g43
sbsg17
I2
sg20
I01
sg21
g22
sbsg17
I3
sg23
(imyEvolve
Tree
p104
(dp105
g14
(imyEvolve
Tree
p106
(dp107
g7
(imyEvolve
Tree
p108
(dp109
g17
I0
sg19
I00
sbsg17
I1
sg23
(imyEvolve
Tree
p110
(dp111
g17
I0
sg19
I00
sbsg20
I00
sg21
g43
sbsg17
I2
sg20
I01
sg21
g78
sbsg20
I00
sg21
g42
sbsg20
I00
sg21
g28
sba(imyEvolve
Tree
p112
(dp113
g7
(imyEvolve
Tree
p114
(dp115
g7
(imyEvolve
Tree
p116
(dp117
g14
(imyEvolve
Tree
p118
(dp119
g17
I0
sg19
I00
sbsg17
I1
sg20
I01
sg21
g78
sbsg17
I2
sg23
(imyEvolve
Tree
p120
(dp121
g7
(imyEvolve
Tree
p122
(dp123
g17
I0
sg18
F-3.032380191598122
sg19
I01
sbsg17
I1
sg23
(imyEvolve
Tree
p124
(dp125
g17
I0
sg19
I00
sbsg20
I00
sg21
g42
sbsg20
I00
sg21
g42
sbsg17
I3
sg23
(imyEvolve
Tree
p126
(dp127
g14
(imyEvolve
Tree
p128
(dp129
g7
(imyEvolve
Tree
p130
(dp131
g17
I0
sg18
F-1.8707328902086218
sg19
I01
sbsg17
I1
sg23
(imyEvolve
Tree
p132
(dp133
g17
I0
sg19
I00
sbsg20
I00
sg21
g43
sbsg17
I2
sg20
I01
sg21
g93
sbsg20
I00
sg21
g28
sba(imyEvolve
Tree
p134
(dp135
g17
I2
sg7
(imyEvolve
Tree
p136
(dp137
g17
I1
sg7
(imyEvolve
Tree
p138
(dp139
g17
I0
sg19
I00
sbsg23
(imyEvolve
Tree
p140
(dp141
g17
I0
sg19
I00
sbsg20
I00
sg21
g28
sbsg23
(imyEvolve
Tree
p142
(dp143
g17
I1
sg7
(imyEvolve
Tree
p144
(dp145
g17
I0
sg18
F-1.0842928434842305
sg19
I01
sbsg23
(imyEvolve
Tree
p146
(dp147
g17
I0
sg19
I00
sbsg20
I00
sg21
g43
sbsg20
I00
sg21
g42
sba(imyEvolve
Tree
p148
(dp149
g14
(imyEvolve
Tree
p150
(dp151
g17
I1
sg7
(imyEvolve
Tree
p152
(dp153
g17
I0
sg18
F-0.44233908104123554
sg19
I01
sbsg23
(imyEvolve
Tree
p154
(dp155
g17
I0
sg19
I00
sbsg20
I00
sg21
g42
sbsg17
I2
sg20
I01
sg21
g35
sba(imyEvolve
Tree
p156
(dp157
g7
(imyEvolve
Tree
p158
(dp159
g14
(imyEvolve
Tree
p160
(dp161
g14
(imyEvolve
Tree
p162
(dp163
g17
I0
sg19
I00
sbsg17
I1
sg20
I01
sg21
g78
sbsg17
I2
sg20
I01
sg21
g22
sbsg17
I3
sg23
(imyEvolve
Tree
p164
(dp165
g14
(imyEvolve
Tree
p166
(dp167
g7
(imyEvolve
Tree
p168
(dp169
g17
I0
sg18
F-3.763745197392746
sg19
I01
sbsg17
I1
sg23
(imyEvolve
Tree
p170
(dp171
g17
I0
sg19
I00
sbsg20
I00
sg21
g42
sbsg17
I2
sg20
I01
sg21
g22
sbsg20
I00
sg21
g42
sba(imyEvolve
Tree
p172
(dp173
g14
(imyEvolve
Tree
p174
(dp175
g7
(imyEvolve
Tree
p176
(dp177
g7
(imyEvolve
Tree
p178
(dp179
g17
I0
sg19
I00
sbsg17
I1
sg23
(imyEvolve
Tree
p180
(dp181
g17
I0
sg18
F-0.0749424781434147
sg19
I01
sbsg20
I00
sg21
g28
sbsg17
I2
sg23
(imyEvolve
Tree
p182
(dp183
g7
(imyEvolve
Tree
p184
(dp185
g17
I0
sg18
F4.875160664368265
sg19
I01
sbsg17
I1
sg23
(imyEvolve
Tree
p186
(dp187
g17
I0
sg19
I00
sbsg20
I00
sg21
g42
sbsg20
I00
sg21
g28
sbsg17
I3
sg20
I01
sg21
g22
sba(imyEvolve
Tree
p188
(dp189
g17
I3
sg7
(imyEvolve
Tree
p190
(dp191
g14
(imyEvolve
Tree
p192
(dp193
g14
(imyEvolve
Tree
p194
(dp195
g17
I0
sg18
F-0.3343949148889749
sg19
I01
sbsg17
I1
sg20
I01
sg21
g78
sbsg17
I2
sg20
I01
sg21
g35
sbsg23
(imyEvolve
Tree
p196
(dp197
g14
(imyEvolve
Tree
p198
(dp199
g14
(imyEvolve
Tree
p200
(dp201
g17
I0
sg19
I00
sbsg17
I1
sg20
I01
sg21
g22
sbsg17
I2
sg20
I01
sg21
g35
sbsg20
I00
sg21
g42
sba(imyEvolve
Tree
p202
(dp203
g7
(imyEvolve
Tree
p204
(dp205
g7
(imyEvolve
Tree
p206
(dp207
g17
I0
sg18
F-0.8599608241347321
sg19
I01
sbsg17
I1
sg23
(imyEvolve
Tree
p208
(dp209
g17
I0
sg18
F-2.8794523240010372
sg19
I01
sbsg20
I00
sg21
g28
sbsg17
I2
sg23
(imyEvolve
Tree
p210
(dp211
g14
(imyEvolve
Tree
p212
(dp213
g17
I0
sg19
I00
sbsg17
I1
sg20
I01
sg21
g35
sbsg20
I00
sg21
g28
sba(imyEvolve
Tree
p214
(dp215
g14
(imyEvolve
Tree
p216
(dp217
g7
(imyEvolve
Tree
p218
(dp219
g14
(imyEvolve
Tree
p220
(dp221
g7
(imyEvolve
Tree
p222
(dp223
g17
I0
sg18
F-3.5783751244498108
sg19
I01
sbsg17
I1
sg23
(imyEvolve
Tree
p224
(dp225
g17
I0
sg18
F2.6726658889832677
sg19
I01
sbsg20
I00
sg21
g43
sbsg17
I2
sg20
I01
sg21
g78
sbsg17
I3
sg23
(imyEvolve
Tree
p226
(dp227
g14
(imyEvolve
Tree
p228
(dp229
g14
(imyEvolve
Tree
p230
(dp231
g17
I0
sg19
I00
sbsg17
I1
sg20
I01
sg21
g35
sbsg17
I2
sg20
I01
sg21
g35
sbsg20
I00
sg21
g28
sbsg17
I4
sg20
I01
sg21
g22
sba(imyEvolve
Tree
p232
(dp233
g14
(imyEvolve
Tree
p234
(dp235
g14
(imyEvolve
Tree
p236
(dp237
g14
(imyEvolve
Tree
p238
(dp239
g17
I0
sg18
F-1.4502735467421446
sg19
I01
sbsg17
I1
sg20
I01
sg21
g78
sbsg17
I2
sg20
I01
sg21
g93
sbsg17
I3
sg20
I01
sg21
g93
sba(imyEvolve
Tree
p240
(dp241
g7
(imyEvolve
Tree
p242
(dp243
g7
(imyEvolve
Tree
p244
(dp245
g7
(imyEvolve
Tree
p246
(dp247
g17
I0
sg19
I00
sbsg17
I1
sg23
(imyEvolve
Tree
p248
(dp249
g17
I0
sg19
I00
sbsg20
I00
sg21
g43
sbsg17
I2
sg23
(imyEvolve
Tree
p250
(dp251
g7
(imyEvolve
Tree
p252
(dp253
g17
I0
sg18
F-2.743077610343846
sg19
I01
sbsg17
I1
sg23
(imyEvolve
Tree
p254
(dp255
g17
I0
sg18
F3.283815050504437
sg19
I01
sbsg20
I00
sg21
g28
sbsg20
I00
sg21
g28
sbsg17
I3
sg23
(imyEvolve
Tree
p256
(dp257
g7
(imyEvolve
Tree
p258
(dp259
g7
(imyEvolve
Tree
p260
(dp261
g17
I0
sg19
I00
sbsg17
I1
sg23
(imyEvolve
Tree
p262
(dp263
g17
I0
sg19
I00
sbsg20
I00
sg21
g43
sbsg17
I2
sg23
(imyEvolve
Tree
p264
(dp265
g14
(imyEvolve
Tree
p266
(dp267
g17
I0
sg18
F0.9294295887408701
sg19
I01
sbsg17
I1
sg20
I01
sg21
g35
sbsg20
I00
sg21
g42
sbsg20
I00
sg21
g42
sba(imyEvolve
Tree
p268
(dp269
g7
(imyEvolve
Tree
p270
(dp271
g14
(imyEvolve
Tree
p272
(dp273
g14
(imyEvolve
Tree
p274
(dp275
g14
(imyEvolve
Tree
p276
(dp277
g14
(imyEvolve
Tree
p278
(dp279
g17
I0
sg19
I00
sbsg17
I1
sg20
I01
sg21
g22
sbsg17
I2
sg20
I01
sg21
g35
sbsg17
I3
sg20
I01
sg21
g35
sbsg17
I4
sg20
I01
sg21
g22
sbsg17
I5
sg23
(imyEvolve
Tree
p280
(dp281
g7
(imyEvolve
Tree
p282
(dp283
g7
(imyEvolve
Tree
p284
(dp285
g7
(imyEvolve
Tree
p286
(dp287
g14
(imyEvolve
Tree
p288
(dp289
g17
I0
sg18
F-0.3339038047524001
sg19
I01
sbsg17
I1
sg20
I01
sg21
g78
sbsg17
I2
sg23
(imyEvolve
Tree
p290
(dp291
g14
(imyEvolve
Tree
p292
(dp293
g17
I0
sg19
I00
sbsg17
I1
sg20
I01
sg21
g22
sbsg20
I00
sg21
g28
sbsg17
I3
sg23
(imyEvolve
Tree
p294
(dp295
g14
(imyEvolve
Tree
p296
(dp297
g14
(imyEvolve
Tree
p298
(dp299
g17
I0
sg19
I00
sbsg17
I1
sg20
I01
sg21
g78
sbsg17
I2
sg20
I01
sg21
g78
sbsg20
I00
sg21
g42
sbsg17
I4
sg23
(imyEvolve
Tree
p300
(dp301
g14
(imyEvolve
Tree
p302
(dp303
g7
(imyEvolve
Tree
p304
(dp305
g7
(imyEvolve
Tree
p306
(dp307
g17
I0
sg19
I00
sbsg17
I1
sg23
(imyEvolve
Tree
p308
(dp309
g17
I0
sg19
I00
sbsg20
I00
sg21
g28
sbsg17
I2
sg23
(imyEvolve
Tree
p310
(dp311
g14
(imyEvolve
Tree
p312
(dp313
g17
I0
sg19
I00
sbsg17
I1
sg20
I01
sg21
g35
sbsg20
I00
sg21
g43
sbsg17
I3
sg20
I01
sg21
g22
sbsg20
I00
sg21
g28
sbsg20
I00
sg21
g42
sba(imyEvolve
Tree
p314
(dp315
g14
(imyEvolve
Tree
p316
(dp317
g17
I1
sg7
(imyEvolve
Tree
p318
(dp319
g17
I0
sg19
I00
sbsg23
(imyEvolve
Tree
p320
(dp321
g17
I0
sg19
I00
sbsg20
I00
sg21
g28
sbsg17
I2
sg20
I01
sg21
g93
sba(imyEvolve
Tree
p322
(dp323
g14
(imyEvolve
Tree
p324
(dp325
g14
(imyEvolve
Tree
p326
(dp327
g14
(imyEvolve
Tree
p328
(dp329
g14
(imyEvolve
Tree
p330
(dp331
g17
I0
sg19
I00
sbsg17
I1
sg20
I01
sg21
g78
sbsg17
I2
sg20
I01
sg21
g93
sbsg17
I3
sg20
I01
sg21
g35
sbsg17
I4
sg20
I01
sg21
g93
sbaa(lp332
(imyEvolve
Tree
p333
(dp334
g7
(imyEvolve
Tree
p335
(dp336
g7
(imyEvolve
Tree
p337
(dp338
g7
(imyEvolve
Tree
p339
(dp340
g14
(imyEvolve
Tree
p341
(dp342
g17
I0
sg19
I00
sbsg17
I1
sg20
I01
sg21
g78
sbsg17
I2
sg23
(imyEvolve
Tree
p343
(dp344
g7
(imyEvolve
Tree
p345
(dp346
g17
I0
sg18
F2.7425479563792976
sg19
I01
sbsg17
I1
sg23
(imyEvolve
Tree
p347
(dp348
g17
I0
sg18
F-3.292245874052284
sg19
I01
sbsg20
I00
sg21
g43
sbsg20
I00
sg21
g43
sbsg17
I3
sg23
(imyEvolve
Tree
p349
(dp350
g7
(imyEvolve
Tree
p351
(dp352
g7
(imyEvolve
Tree
p353
(dp354
g17
I0
sg18
F-0.8385714682470624
sg19
I01
sbsg17
I1
sg23
(imyEvolve
Tree
p355
(dp356
g17
I0
sg19
I00
sbsg20
I00
sg21
g42
sbsg17
I2
sg23
(imyEvolve
Tree
p357
(dp358
g14
(imyEvolve
Tree
p359
(dp360
g17
I0
sg19
I00
sbsg17
I1
sg20
I01
sg21
g22
sbsg20
I00
sg21
g28
sbsg20
I00
sg21
g28
sbsg17
I4
sg23
(imyEvolve
Tree
p361
(dp362
g14
(imyEvolve
Tree
p363
(dp364
g7
(imyEvolve
Tree
p365
(dp366
g7
(imyEvolve
Tree
p367
(dp368
g17
I0
sg19
I00
sbsg17
I1
sg23
(imyEvolve
Tree
p369
(dp370
g17
I0
sg19
I00
sbsg20
I00
sg21
g42
sbsg17
I2
sg23
(imyEvolve
Tree
p371
(dp372
g7
(imyEvolve
Tree
p373
(dp374
g17
I0
sg19
I00
sbsg17
I1
sg23
(imyEvolve
Tree
p375
(dp376
g17
I0
sg18
F3.758704124851013
sg19
I01
sbsg20
I00
sg21
g28
sbsg20
I00
sg21
g28
sbsg17
I3
sg20
I01
sg21
g78
sbsg20
I00
sg21
g42
sba(imyEvolve
Tree
p377
(dp378
g14
(imyEvolve
Tree
p379
(dp380
g14
(imyEvolve
Tree
p381
(dp382
g17
I0
sg18
F4.321177834217041
sg19
I01
sbsg17
I1
sg20
I01
sg21
g22
sbsg17
I2
sg20
I01
sg21
g93
sba(imyEvolve
Tree
p383
(dp384
g14
(imyEvolve
Tree
p385
(dp386
g7
(imyEvolve
Tree
p387
(dp388
g14
(imyEvolve
Tree
p389
(dp390
g14
(imyEvolve
Tree
p391
(dp392
g17
I0
sg19
I00
sbsg17
I1
sg20
I01
sg21
g22
sbsg17
I2
sg20
I01
sg21
g78
sbsg17
I3
sg23
(imyEvolve
Tree
p393
(dp394
g14
(imyEvolve
Tree
p395
(dp396
g14
(imyEvolve
Tree
p397
(dp398
g17
I0
sg19
I00
sbsg17
I1
sg20
I01
sg21
g35
sbsg17
I2
sg20
I01
sg21
g22
sbsg20
I00
sg21
g43
sbsg17
I4
sg20
I01
sg21
g35
sba(imyEvolve
Tree
p399
(dp400
g14
(imyEvolve
Tree
p401
(dp402
g7
(imyEvolve
Tree
p403
(dp404
g14
(imyEvolve
Tree
p405
(dp406
g7
(imyEvolve
Tree
p407
(dp408
g7
(imyEvolve
Tree
p409
(dp410
g17
I0
sg18
F4.501624481026063
sg19
I01
sbsg17
I1
sg23
(imyEvolve
Tree
p411
(dp412
g17
I0
sg18
F1.3137790738959847
sg19
I01
sbsg20
I00
sg21
g43
sbsg17
I2
sg23
(imyEvolve
Tree
p413
(dp414
g7
(imyEvolve
Tree
p415
(dp416
g17
I0
sg19
I00
sbsg17
I1
sg23
(imyEvolve
Tree
p417
(dp418
g17
I0
sg18
F4.671861384209839
sg19
I01
sbsg20
I00
sg21
g28
sbsg20
I00
sg21
g43
sbsg17
I3
sg20
I01
sg21
g78
sbsg17
I4
sg23
(imyEvolve
Tree
p419
(dp420
g14
(imyEvolve
Tree
p421
(dp422
g7
(imyEvolve
Tree
p423
(dp424
g14
(imyEvolve
Tree
p425
(dp426
g17
I0
sg18
F4.579144577383429
sg19
I01
sbsg17
I1
sg20
I01
sg21
g78
sbsg17
I2
sg23
(imyEvolve
Tree
p427
(dp428
g14
(imyEvolve
Tree
p429
(dp430
g17
I0
sg19
I00
sbsg17
I1
sg20
I01
sg21
g22
sbsg20
I00
sg21
g42
sbsg17
I3
sg20
I01
sg21
g93
sbsg20
I00
sg21
g42
sbsg17
I5
sg20
I01
sg21
g22
sba(imyEvolve
Tree
p431
(dp432
g7
(imyEvolve
Tree
p433
(dp434
g7
(imyEvolve
Tree
p435
(dp436
g17
I0
sg19
I00
sbsg17
I1
sg23
(imyEvolve
Tree
p437
(dp438
g17
I0
sg18
F-4.5864258147774075
sg19
I01
sbsg20
I00
sg21
g42
sbsg17
I2
sg23
(imyEvolve
Tree
p439
(dp440
g14
(imyEvolve
Tree
p441
(dp442
g17
I0
sg18
F-3.8022819772201077
sg19
I01
sbsg17
I1
sg20
I01
sg21
g78
sbsg20
I00
sg21
g28
sba(imyEvolve
Tree
p443
(dp444
g14
(imyEvolve
Tree
p445
(dp446
g14
(imyEvolve
Tree
p447
(dp448
g7
(imyEvolve
Tree
p449
(dp450
g14
(imyEvolve
Tree
p451
(dp452
g7
(imyEvolve
Tree
p453
(dp454
g17
I0
sg19
I00
sbsg17
I1
sg23
(imyEvolve
Tree
p455
(dp456
g17
I0
sg19
I00
sbsg20
I00
sg21
g28
sbsg17
I2
sg20
I01
sg21
g22
sbsg17
I3
sg23
(imyEvolve
Tree
p457
(dp458
g14
(imyEvolve
Tree
p459
(dp460
g14
(imyEvolve
Tree
p461
(dp462
g17
I0
sg19
I00
sbsg17
I1
sg20
I01
sg21
g78
sbsg17
I2
sg20
I01
sg21
g22
sbsg20
I00
sg21
g28
sbsg17
I4
sg20
I01
sg21
g35
sbsg17
I5
sg20
I01
sg21
g35
sba(imyEvolve
Tree
p463
(dp464
g7
(imyEvolve
Tree
p465
(dp466
g14
(imyEvolve
Tree
p467
(dp468
g14
(imyEvolve
Tree
p469
(dp470
g17
I0
sg18
F1.1680864695411666
sg19
I01
sbsg17
I1
sg20
I01
sg21
g93
sbsg17
I2
sg20
I01
sg21
g78
sbsg17
I3
sg23
(imyEvolve
Tree
p471
(dp472
g14
(imyEvolve
Tree
p473
(dp474
g14
(imyEvolve
Tree
p475
(dp476
g17
I0
sg19
I00
sbsg17
I1
sg20
I01
sg21
g35
sbsg17
I2
sg20
I01
sg21
g93
sbsg20
I00
sg21
g28
sba(imyEvolve
Tree
p477
(dp478
g7
(imyEvolve
Tree
p479
(dp480
g7
(imyEvolve
Tree
p481
(dp482
g7
(imyEvolve
Tree
p483
(dp484
g7
(imyEvolve
Tree
p485
(dp486
g17
I0
sg19
I00
sbsg17
I1
sg23
(imyEvolve
Tree
p487
(dp488
g17
I0
sg18
F4.154076654835263
sg19
I01
sbsg20
I00
sg21
g28
sbsg17
I2
sg23
(imyEvolve
Tree
p489
(dp490
g14
(imyEvolve
Tree
p491
(dp492
g17
I0
sg19
I00
sbsg17
I1
sg20
I01
sg21
g22
sbsg20
I00
sg21
g43
sbsg17
I3
sg23
(imyEvolve
Tree
p493
(dp494
g14
(imyEvolve
Tree
p495
(dp496
g7
(imyEvolve
Tree
p497
(dp498
g17
I0
sg18
F-1.8688493047298071
sg19
I01
sbsg17
I1
sg23
(imyEvolve
Tree
p499
(dp500
g17
I0
sg18
F4.031245145718525
sg19
I01
sbsg20
I00
sg21
g42
sbsg17
I2
sg20
I01
sg21
g78
sbsg20
I00
sg21
g43
sbsg17
I4
sg23
(imyEvolve
Tree
p501
(dp502
g7
(imyEvolve
Tree
p503
(dp504
g7
(imyEvolve
Tree
p505
(dp506
g14
(imyEvolve
Tree
p507
(dp508
g17
I0
sg19
I00
sbsg17
I1
sg20
I01
sg21
g35
sbsg17
I2
sg23
(imyEvolve
Tree
p509
(dp510
g7
(imyEvolve
Tree
p511
(dp512
g17
I0
sg19
I00
sbsg17
I1
sg23
(imyEvolve
Tree
p513
(dp514
g17
I0
sg19
I00
sbsg20
I00
sg21
g42
sbsg20
I00
sg21
g42
sbsg17
I3
sg23
(imyEvolve
Tree
p515
(dp516
g7
(imyEvolve
Tree
p517
(dp518
g14
(imyEvolve
Tree
p519
(dp520
g17
I0
sg19
I00
sbsg17
I1
sg20
I01
sg21
g93
sbsg17
I2
sg23
(imyEvolve
Tree
p521
(dp522
g7
(imyEvolve
Tree
p523
(dp524
g17
I0
sg19
I00
sbsg17
I1
sg23
(imyEvolve
Tree
p525
(dp526
g17
I0
sg18
F-4.3776367946030135
sg19
I01
sbsg20
I00
sg21
g42
sbsg20
I00
sg21
g28
sbsg20
I00
sg21
g43
sbsg20
I00
sg21
g28
sba(imyEvolve
Tree
p527
(dp528
g14
(imyEvolve
Tree
p529
(dp530
g14
(imyEvolve
Tree
p531
(dp532
g17
I3
sg7
(imyEvolve
Tree
p533
(dp534
g14
(imyEvolve
Tree
p535
(dp536
g17
I1
sg7
(imyEvolve
Tree
p537
(dp538
g17
I0
sg19
I00
sbsg23
(imyEvolve
Tree
p539
(dp540
g17
I0
sg19
I00
sbsg20
I00
sg21
g28
sbsg17
I2
sg20
I01
sg21
g93
sbsg23
(imyEvolve
Tree
p541
(dp542
g17
I2
sg7
(imyEvolve
Tree
p543
(dp544
g14
(imyEvolve
Tree
p545
(dp546
g17
I0
sg19
I00
sbsg17
I1
sg20
I01
sg21
g22
sbsg23
(imyEvolve
Tree
p547
(dp548
g17
I1
sg7
(imyEvolve
Tree
p549
(dp550
g17
I0
sg19
I00
sbsg23
(imyEvolve
Tree
p551
(dp552
g17
I0
sg19
I00
sbsg20
I00
sg21
g42
sbsg20
I00
sg21
g42
sbsg20
I00
sg21
g42
sbsg17
I4
sg20
I01
sg21
g78
sbsg17
I5
sg20
I01
sg21
g78
sba(imyEvolve
Tree
p553
(dp554
g7
(imyEvolve
Tree
p555
(dp556
g7
(imyEvolve
Tree
p557
(dp558
g7
(imyEvolve
Tree
p559
(dp560
g14
(imyEvolve
Tree
p561
(dp562
g17
I0
sg19
I00
sbsg17
I1
sg20
I01
sg21
g78
sbsg17
I2
sg23
(imyEvolve
Tree
p563
(dp564
g14
(imyEvolve
Tree
p565
(dp566
g17
I0
sg19
I00
sbsg17
I1
sg20
I01
sg21
g22
sbsg20
I00
sg21
g42
sbsg17
I3
sg23
(imyEvolve
Tree
p567
(dp568
g7
(imyEvolve
Tree
p569
(dp570
g7
(imyEvolve
Tree
p571
(dp572
g17
I0
sg18
F4.589783532565184
sg19
I01
sbsg17
I1
sg23
(imyEvolve
Tree
p573
(dp574
g17
I0
sg18
F4.506355044068233
sg19
I01
sbsg20
I00
sg21
g28
sbsg17
I2
sg23
(imyEvolve
Tree
p575
(dp576
g7
(imyEvolve
Tree
p577
(dp578
g17
I0
sg18
F0.3966439209885406
sg19
I01
sbsg17
I1
sg23
(imyEvolve
Tree
p579
(dp580
g17
I0
sg18
F-1.1413834172911197
sg19
I01
sbsg20
I00
sg21
g28
sbsg20
I00
sg21
g28
sbsg20
I00
sg21
g28
sbsg17
I4
sg23
(imyEvolve
Tree
p581
(dp582
g14
(imyEvolve
Tree
p583
(dp584
g7
(imyEvolve
Tree
p585
(dp586
g7
(imyEvolve
Tree
p587
(dp588
g17
I0
sg19
I00
sbsg17
I1
sg23
(imyEvolve
Tree
p589
(dp590
g17
I0
sg19
I00
sbsg20
I00
sg21
g42
sbsg17
I2
sg23
(imyEvolve
Tree
p591
(dp592
g7
(imyEvolve
Tree
p593
(dp594
g17
I0
sg18
F-4.176226819191146
sg19
I01
sbsg17
I1
sg23
(imyEvolve
Tree
p595
(dp596
g17
I0
sg18
F-3.072843717746844
sg19
I01
sbsg20
I00
sg21
g42
sbsg20
I00
sg21
g42
sbsg17
I3
sg20
I01
sg21
g78
sbsg20
I00
sg21
g43
sba(imyEvolve
Tree
p597
(dp598
g14
(imyEvolve
Tree
p599
(dp600
g17
I3
sg7
(imyEvolve
Tree
p601
(dp602
g17
I2
sg7
(imyEvolve
Tree
p603
(dp604
g17
I1
sg7
(imyEvolve
Tree
p605
(dp606
g17
I0
sg19
I00
sbsg23
(imyEvolve
Tree
p607
(dp608
g17
I0
sg18
F0.5940517355877759
sg19
I01
sbsg20
I00
sg21
g43
sbsg23
(imyEvolve
Tree
p609
(dp610
g17
I1
sg7
(imyEvolve
Tree
p611
(dp612
g17
I0
sg19
I00
sbsg23
(imyEvolve
Tree
p613
(dp614
g17
I0
sg19
I00
sbsg20
I00
sg21
g28
sbsg20
I00
sg21
g28
sbsg23
(imyEvolve
Tree
p615
(dp616
g17
I2
sg7
(imyEvolve
Tree
p617
(dp618
g14
(imyEvolve
Tree
p619
(dp620
g17
I0
sg19
I00
sbsg17
I1
sg20
I01
sg21
g22
sbsg23
(imyEvolve
Tree
p621
(dp622
g14
(imyEvolve
Tree
p623
(dp624
g17
I0
sg19
I00
sbsg17
I1
sg20
I01
sg21
g35
sbsg20
I00
sg21
g42
sbsg20
I00
sg21
g42
sbsg17
I4
sg20
I01
sg21
g93
sba(imyEvolve
Tree
p625
(dp626
g7
(imyEvolve
Tree
p627
(dp628
g14
(imyEvolve
Tree
p629
(dp630
g7
(imyEvolve
Tree
p631
(dp632
g17
I0
sg18
F2.321494126619731
sg19
I01
sbsg17
I1
sg23
(imyEvolve
Tree
p633
(dp634
g17
I0
sg19
I00
sbsg20
I00
sg21
g43
sbsg17
I2
sg20
I01
sg21
g78
sbsg17
I3
sg23
(imyEvolve
Tree
p635
(dp636
g7
(imyEvolve
Tree
p637
(dp638
g7
(imyEvolve
Tree
p639
(dp640
g17
I0
sg18
F4.146970879339333
sg19
I01
sbsg17
I1
sg23
(imyEvolve
Tree
p641
(dp642
g17
I0
sg19
I00
sbsg20
I00
sg21
g28
sbsg17
I2
sg23
(imyEvolve
Tree
p643
(dp644
g7
(imyEvolve
Tree
p645
(dp646
g17
I0
sg19
I00
sbsg17
I1
sg23
(imyEvolve
Tree
p647
(dp648
g17
I0
sg19
I00
sbsg20
I00
sg21
g42
sbsg20
I00
sg21
g42
sbsg20
I00
sg21
g43
sba(imyEvolve
Tree
p649
(dp650
g14
(imyEvolve
Tree
p651
(dp652
g7
(imyEvolve
Tree
p653
(dp654
g14
(imyEvolve
Tree
p655
(dp656
g7
(imyEvolve
Tree
p657
(dp658
g7
(imyEvolve
Tree
p659
(dp660
g17
I0
sg18
F0.5511436931047857
sg19
I01
sbsg17
I1
sg23
(imyEvolve
Tree
p661
(dp662
g17
I0
sg18
F-2.5696910390620054
sg19
I01
sbsg20
I00
sg21
g28
sbsg17
I2
sg23
(imyEvolve
Tree
p663
(dp664
g14
(imyEvolve
Tree
p665
(dp666
g17
I0
sg18
F-0.5505085284148006
sg19
I01
sbsg17
I1
sg20
I01
sg21
g78
sbsg20
I00
sg21
g28
sbsg17
I3
sg20
I01
sg21
g78
sbsg17
I4
sg23
(imyEvolve
Tree
p667
(dp668
g14
(imyEvolve
Tree
p669
(dp670
g7
(imyEvolve
Tree
p671
(dp672
g7
(imyEvolve
Tree
p673
(dp674
g17
I0
sg19
I00
sbsg17
I1
sg23
(imyEvolve
Tree
p675
(dp676
g17
I0
sg18
F1.4226051635491297
sg19
I01
sbsg20
I00
sg21
g28
sbsg17
I2
sg23
(imyEvolve
Tree
p677
(dp678
g14
(imyEvolve
Tree
p679
(dp680
g17
I0
sg18
F-0.5949524360961753
sg19
I01
sbsg17
I1
sg20
I01
sg21
g35
sbsg20
I00
sg21
g42
sbsg17
I3
sg20
I01
sg21
g93
sbsg20
I00
sg21
g42
sbsg17
I5
sg20
I01
sg21
g93
sba(imyEvolve
Tree
p681
(dp682
g17
I3
sg7
(imyEvolve
Tree
p683
(dp684
g17
I2
sg7
(imyEvolve
Tree
p685
(dp686
g17
I1
sg7
(imyEvolve
Tree
p687
(dp688
g17
I0
sg18
F3.5235333256500745
sg19
I01
sbsg23
(imyEvolve
Tree
p689
(dp690
g17
I0
sg19
I00
sbsg20
I00
sg21
g43
sbsg23
(imyEvolve
Tree
p691
(dp692
g17
I1
sg7
(imyEvolve
Tree
p693
(dp694
g17
I0
sg19
I00
sbsg23
(imyEvolve
Tree
p695
(dp696
g17
I0
sg19
I00
sbsg20
I00
sg21
g43
sbsg20
I00
sg21
g42
sbsg23
(imyEvolve
Tree
p697
(dp698
g17
I2
sg7
(imyEvolve
Tree
p699
(dp700
g17
I1
sg7
(imyEvolve
Tree
p701
(dp702
g17
I0
sg19
I00
sbsg23
(imyEvolve
Tree
p703
(dp704
g17
I0
sg19
I00
sbsg20
I00
sg21
g42
sbsg23
(imyEvolve
Tree
p705
(dp706
g17
I1
sg7
(imyEvolve
Tree
p707
(dp708
g17
I0
sg19
I00
sbsg23
(imyEvolve
Tree
p709
(dp710
g17
I0
sg18
F2.007555276204104
sg19
I01
sbsg20
I00
sg21
g42
sbsg20
I00
sg21
g28
sbsg20
I00
sg21
g43
sba(imyEvolve
Tree
p711
(dp712
g14
(imyEvolve
Tree
p713
(dp714
g7
(imyEvolve
Tree
p715
(dp716
g14
(imyEvolve
Tree
p717
(dp718
g14
(imyEvolve
Tree
p719
(dp720
g17
I0
sg19
I00
sbsg17
I1
sg20
I01
sg21
g93
sbsg17
I2
sg20
I01
sg21
g22
sbsg17
I3
sg23
(imyEvolve
Tree
p721
(dp722
g14
(imyEvolve
Tree
p723
(dp724
g7
(imyEvolve
Tree
p725
(dp726
g17
I0
sg18
F0.9613984775954334
sg19
I01
sbsg17
I1
sg23
(imyEvolve
Tree
p727
(dp728
g17
I0
sg18
F-3.4249081922598146
sg19
I01
sbsg20
I00
sg21
g42
sbsg17
I2
sg20
I01
sg21
g35
sbsg20
I00
sg21
g43
sbsg17
I4
sg20
I01
sg21
g93
sbaa(lp729
(imyEvolve
Tree
p730
(dp731
g17
I2
sg7
(imyEvolve
Tree
p732
(dp733
g14
(imyEvolve
Tree
p734
(dp735
g17
I0
sg18
F-4.687819238467458
sg19
I01
sbsg17
I1
sg20
I01
sg21
g35
sbsg23
(imyEvolve
Tree
p736
(dp737
g17
I1
sg7
(imyEvolve
Tree
p738
(dp739
g17
I0
sg18
F-1.7132012695835441
sg19
I01
sbsg23
(imyEvolve
Tree
p740
(dp741
g17
I0
sg18
F-3.5077607129845
sg19
I01
sbsg20
I00
sg21
g28
sbsg20
I00
sg21
g28
sba(imyEvolve
Tree
p742
(dp743
g14
(imyEvolve
Tree
p744
(dp745
g14
(imyEvolve
Tree
p746
(dp747
g17
I0
sg19
I00
sbsg17
I1
sg20
I01
sg21
g22
sbsg17
I2
sg20
I01
sg21
g78
sba(imyEvolve
Tree
p748
(dp749
g7
(imyEvolve
Tree
p750
(dp751
g7
(imyEvolve
Tree
p752
(dp753
g7
(imyEvolve
Tree
p754
(dp755
g14
(imyEvolve
Tree
p756
(dp757
g17
I0
sg19
I00
sbsg17
I1
sg20
I01
sg21
g78
sbsg17
I2
sg23
(imyEvolve
Tree
p758
(dp759
g7
(imyEvolve
Tree
p760
(dp761
g17
I0
sg18
F-1.8699062492470464
sg19
I01
sbsg17
I1
sg23
(imyEvolve
Tree
p762
(dp763
g17
I0
sg19
I00
sbsg20
I00
sg21
g43
sbsg20
I00
sg21
g42
sbsg17
I3
sg23
(imyEvolve
Tree
p764
(dp765
g7
(imyEvolve
Tree
p766
(dp767
g14
(imyEvolve
Tree
p768
(dp769
g17
I0
sg18
F-0.9706739731235059
sg19
I01
sbsg17
I1
sg20
I01
sg21
g22
sbsg17
I2
sg23
(imyEvolve
Tree
p770
(dp771
g7
(imyEvolve
Tree
p772
(dp773
g17
I0
sg18
F-1.2260746446701107
sg19
I01
sbsg17
I1
sg23
(imyEvolve
Tree
p774
(dp775
g17
I0
sg19
I00
sbsg20
I00
sg21
g42
sbsg20
I00
sg21
g43
sbsg20
I00
sg21
g42
sbsg17
I4
sg23
(imyEvolve
Tree
p776
(dp777
g7
(imyEvolve
Tree
p778
(dp779
g7
(imyEvolve
Tree
p780
(dp781
g14
(imyEvolve
Tree
p782
(dp783
g17
I0
sg18
F-4.53896893297225
sg19
I01
sbsg17
I1
sg20
I01
sg21
g93
sbsg17
I2
sg23
(imyEvolve
Tree
p784
(dp785
g7
(imyEvolve
Tree
p786
(dp787
g17
I0
sg18
F3.450327230920987
sg19
I01
sbsg17
I1
sg23
(imyEvolve
Tree
p788
(dp789
g17
I0
sg19
I00
sbsg20
I00
sg21
g28
sbsg20
I00
sg21
g43
sbsg17
I3
sg23
(imyEvolve
Tree
p790
(dp791
g14
(imyEvolve
Tree
p792
(dp793
g7
(imyEvolve
Tree
p794
(dp795
g17
I0
sg19
I00
sbsg17
I1
sg23
(imyEvolve
Tree
p796
(dp797
g17
I0
sg18
F-2.9796109169103016
sg19
I01
sbsg20
I00
sg21
g28
sbsg17
I2
sg20
I01
sg21
g35
sbsg20
I00
sg21
g43
sbsg20
I00
sg21
g42
sba(imyEvolve
Tree
p798
(dp799
g14
(imyEvolve
Tree
p800
(dp801
g14
(imyEvolve
Tree
p802
(dp803
g7
(imyEvolve
Tree
p804
(dp805
g14
(imyEvolve
Tree
p806
(dp807
g17
I0
sg18
F-4.2858587952288785
sg19
I01
sbsg17
I1
sg20
I01
sg21
g22
sbsg17
I2
sg23
(imyEvolve
Tree
p808
(dp809
g14
(imyEvolve
Tree
p810
(dp811
g17
I0
sg18
F-3.0562177345982713
sg19
I01
sbsg17
I1
sg20
I01
sg21
g22
sbsg20
I00
sg21
g28
sbsg17
I3
sg20
I01
sg21
g22
sbsg17
I4
sg20
I01
sg21
g78
sba(imyEvolve
Tree
p812
(dp813
g14
(imyEvolve
Tree
p814
(dp815
g14
(imyEvolve
Tree
p816
(dp817
g14
(imyEvolve
Tree
p818
(dp819
g17
I1
sg7
(imyEvolve
Tree
p820
(dp821
g17
I0
sg19
I00
sbsg23
(imyEvolve
Tree
p822
(dp823
g17
I0
sg18
F-2.6578710819979956
sg19
I01
sbsg20
I00
sg21
g42
sbsg17
I2
sg20
I01
sg21
g35
sbsg17
I3
sg20
I01
sg21
g35
sbsg17
I4
sg20
I01
sg21
g78
sba(imyEvolve
Tree
p824
(dp825
g14
(imyEvolve
Tree
p826
(dp827
g14
(imyEvolve
Tree
p828
(dp829
g7
(imyEvolve
Tree
p830
(dp831
g7
(imyEvolve
Tree
p832
(dp833
g14
(imyEvolve
Tree
p834
(dp835
g17
I0
sg19
I00
sbsg17
I1
sg20
I01
sg21
g22
sbsg17
I2
sg23
(imyEvolve
Tree
p836
(dp837
g7
(imyEvolve
Tree
p838
(dp839
g17
I0
sg19
I00
sbsg17
I1
sg23
(imyEvolve
Tree
p840
(dp841
g17
I0
sg18
F0.729164685032603
sg19
I01
sbsg20
I00
sg21
g43
sbsg20
I00
sg21
g43
sbsg17
I3
sg23
(imyEvolve
Tree
p842
(dp843
g7
(imyEvolve
Tree
p844
(dp845
g7
(imyEvolve
Tree
p846
(dp847
g17
I0
sg19
I00
sbsg17
I1
sg23
(imyEvolve
Tree
p848
(dp849
g17
I0
sg18
F-1.5172239541471209
sg19
I01
sbsg20
I00
sg21
g42
sbsg17
I2
sg23
(imyEvolve
Tree
p850
(dp851
g7
(imyEvolve
Tree
p852
(dp853
g17
I0
sg19
I00
sbsg17
I1
sg23
(imyEvolve
Tree
p854
(dp855
g17
I0
sg19
I00
sbsg20
I00
sg21
g42
sbsg20
I00
sg21
g28
sbsg20
I00
sg21
g42
sbsg17
I4
sg20
I01
sg21
g35
sbsg17
I5
sg20
I01
sg21
g35
sba(imyEvolve
Tree
p856
(dp857
g14
(imyEvolve
Tree
p858
(dp859
g17
I2
sg7
(imyEvolve
Tree
p860
(dp861
g17
I1
sg7
(imyEvolve
Tree
p862
(dp863
g17
I0
sg18
F-2.924961598811401
sg19
I01
sbsg23
(imyEvolve
Tree
p864
(dp865
g17
I0
sg18
F3.9122591269864255
sg19
I01
sbsg20
I00
sg21
g42
sbsg23
(imyEvolve
Tree
p866
(dp867
g14
(imyEvolve
Tree
p868
(dp869
g17
I0
sg19
I00
sbsg17
I1
sg20
I01
sg21
g22
sbsg20
I00
sg21
g28
sbsg17
I3
sg20
I01
sg21
g78
sba(imyEvolve
Tree
p870
(dp871
g14
(imyEvolve
Tree
p872
(dp873
g17
I2
sg7
(imyEvolve
Tree
p874
(dp875
g14
(imyEvolve
Tree
p876
(dp877
g17
I0
sg18
F0.34241901646523853
sg19
I01
sbsg17
I1
sg20
I01
sg21
g78
sbsg23
(imyEvolve
Tree
p878
(dp879
g17
I1
sg7
(imyEvolve
Tree
p880
(dp881
g17
I0
sg19
I00
sbsg23
(imyEvolve
Tree
p882
(dp883
g17
I0
sg18
F-3.9752168550644242
sg19
I01
sbsg20
I00
sg21
g42
sbsg20
I00
sg21
g42
sbsg17
I3
sg20
I01
sg21
g78
sba(imyEvolve
Tree
p884
(dp885
g17
I4
sg7
(imyEvolve
Tree
p886
(dp887
g17
I3
sg7
(imyEvolve
Tree
p888
(dp889
g17
I2
sg7
(imyEvolve
Tree
p890
(dp891
g14
(imyEvolve
Tree
p892
(dp893
g17
I0
sg19
I00
sbsg17
I1
sg20
I01
sg21
g35
sbsg23
(imyEvolve
Tree
p894
(dp895
g17
I1
sg7
(imyEvolve
Tree
p896
(dp897
g17
I0
sg18
F4.270698385368396
sg19
I01
sbsg23
(imyEvolve
Tree
p898
(dp899
g17
I0
sg18
F0.7682052014231067
sg19
I01
sbsg20
I00
sg21
g42
sbsg20
I00
sg21
g42
sbsg23
(imyEvolve
Tree
p900
(dp901
g14
(imyEvolve
Tree
p902
(dp903
g17
I1
sg7
(imyEvolve
Tree
p904
(dp905
g17
I0
sg18
F-4.611594269168008
sg19
I01
sbsg23
(imyEvolve
Tree
p906
(dp907
g17
I0
sg18
F0.5412610267838334
sg19
I01
sbsg20
I00
sg21
g42
sbsg17
I2
sg20
I01
sg21
g78
sbsg20
I00
sg21
g28
sbsg23
(imyEvolve
Tree
p908
(dp909
g17
I3
sg7
(imyEvolve
Tree
p910
(dp911
g14
(imyEvolve
Tree
p912
(dp913
g14
(imyEvolve
Tree
p914
(dp915
g17
I0
sg18
F4.689941384151906
sg19
I01
sbsg17
I1
sg20
I01
sg21
g78
sbsg17
I2
sg20
I01
sg21
g22
sbsg23
(imyEvolve
Tree
p916
(dp917
g14
(imyEvolve
Tree
p918
(dp919
g17
I1
sg7
(imyEvolve
Tree
p920
(dp921
g17
I0
sg18
F1.1319526245881821
sg19
I01
sbsg23
(imyEvolve
Tree
p922
(dp923
g17
I0
sg19
I00
sbsg20
I00
sg21
g28
sbsg17
I2
sg20
I01
sg21
g35
sbsg20
I00
sg21
g42
sbsg20
I00
sg21
g42
sba(imyEvolve
Tree
p924
(dp925
g14
(imyEvolve
Tree
p926
(dp927
g7
(imyEvolve
Tree
p928
(dp929
g7
(imyEvolve
Tree
p930
(dp931
g7
(imyEvolve
Tree
p932
(dp933
g17
I0
sg18
F-2.2020377599557364
sg19
I01
sbsg17
I1
sg23
(imyEvolve
Tree
p934
(dp935
g17
I0
sg18
F-3.6271580895520272
sg19
I01
sbsg20
I00
sg21
g43
sbsg17
I2
sg23
(imyEvolve
Tree
p936
(dp937
g14
(imyEvolve
Tree
p938
(dp939
g17
I0
sg18
F-2.5733513684643325
sg19
I01
sbsg17
I1
sg20
I01
sg21
g22
sbsg20
I00
sg21
g28
sbsg17
I3
sg23
(imyEvolve
Tree
p940
(dp941
g14
(imyEvolve
Tree
p942
(dp943
g14
(imyEvolve
Tree
p944
(dp945
g17
I0
sg19
I00
sbsg17
I1
sg20
I01
sg21
g22
sbsg17
I2
sg20
I01
sg21
g22
sbsg20
I00
sg21
g43
sbsg17
I4
sg20
I01
sg21
g35
sba(imyEvolve
Tree
p946
(dp947
g7
(imyEvolve
Tree
p948
(dp949
g7
(imyEvolve
Tree
p950
(dp951
g14
(imyEvolve
Tree
p952
(dp953
g14
(imyEvolve
Tree
p954
(dp955
g7
(imyEvolve
Tree
p956
(dp957
g17
I0
sg19
I00
sbsg17
I1
sg23
(imyEvolve
Tree
p958
(dp959
g17
I0
sg18
F1.6948851448311286
sg19
I01
sbsg20
I00
sg21
g28
sbsg17
I2
sg20
I01
sg21
g93
sbsg17
I3
sg20
I01
sg21
g93
sbsg17
I4
sg23
(imyEvolve
Tree
p960
(dp961
g14
(imyEvolve
Tree
p962
(dp963
g7
(imyEvolve
Tree
p964
(dp965
g7
(imyEvolve
Tree
p966
(dp967
g17
I0
sg19
I00
sbsg17
I1
sg23
(imyEvolve
Tree
p968
(dp969
g17
I0
sg18
F2.8962963575390654
sg19
I01
sbsg20
I00
sg21
g43
sbsg17
I2
sg23
(imyEvolve
Tree
p970
(dp971
g14
(imyEvolve
Tree
p972
(dp973
g17
I0
sg19
I00
sbsg17
I1
sg20
I01
sg21
g93
sbsg20
I00
sg21
g43
sbsg17
I3
sg20
I01
sg21
g78
sbsg20
I00
sg21
g42
sbsg17
I5
sg23
(imyEvolve
Tree
p974
(dp975
g14
(imyEvolve
Tree
p976
(dp977
g14
(imyEvolve
Tree
p978
(dp979
g14
(imyEvolve
Tree
p980
(dp981
g7
(imyEvolve
Tree
p982
(dp983
g17
I0
sg19
I00
sbsg17
I1
sg23
(imyEvolve
Tree
p984
(dp985
g17
I0
sg18
F-0.700644468669327
sg19
I01
sbsg20
I00
sg21
g43
sbsg17
I2
sg20
I01
sg21
g78
sbsg17
I3
sg20
I01
sg21
g35
sbsg17
I4
sg20
I01
sg21
g35
sbsg20
I00
sg21
g42
sba(imyEvolve
Tree
p986
(dp987
g7
(imyEvolve
Tree
p988
(dp989
g7
(imyEvolve
Tree
p990
(dp991
g14
(imyEvolve
Tree
p992
(dp993
g14
(imyEvolve
Tree
p994
(dp995
g7
(imyEvolve
Tree
p996
(dp997
g17
I0
sg18
F-2.2569961067032542
sg19
I01
sbsg17
I1
sg23
(imyEvolve
Tree
p998
(dp999
g17
I0
sg18
F0.983202839378766
sg19
I01
sbsg20
I00
sg21
g43
sbsg17
I2
sg20
I01
sg21
g78
sbsg17
I3
sg20
I01
sg21
g22
sbsg17
I4
sg23
(imyEvolve
Tree
p1000
(dp1001
g7
(imyEvolve
Tree
p1002
(dp1003
g14
(imyEvolve
Tree
p1004
(dp1005
g7
(imyEvolve
Tree
p1006
(dp1007
g17
I0
sg19
I00
sbsg17
I1
sg23
(imyEvolve
Tree
p1008
(dp1009
g17
I0
sg18
F-4.167047866100276
sg19
I01
sbsg20
I00
sg21
g42
sbsg17
I2
sg20
I01
sg21
g22
sbsg17
I3
sg23
(imyEvolve
Tree
p1010
(dp1011
g7
(imyEvolve
Tree
p1012
(dp1013
g14
(imyEvolve
Tree
p1014
(dp1015
g17
I0
sg19
I00
sbsg17
I1
sg20
I01
sg21
g93
sbsg17
I2
sg23
(imyEvolve
Tree
p1016
(dp1017
g7
(imyEvolve
Tree
p1018
(dp1019
g17
I0
sg19
I00
sbsg17
I1
sg23
(imyEvolve
Tree
p1020
(dp1021
g17
I0
sg19
I00
sbsg20
I00
sg21
g42
sbsg20
I00
sg21
g43
sbsg20
I00
sg21
g43
sbsg20
I00
sg21
g28
sbsg17
I5
sg23
(imyEvolve
Tree
p1022
(dp1023
g14
(imyEvolve
Tree
p1024
(dp1025
g7
(imyEvolve
Tree
p1026
(dp1027
g7
(imyEvolve
Tree
p1028
(dp1029
g7
(imyEvolve
Tree
p1030
(dp1031
g17
I0
sg19
I00
sbsg17
I1
sg23
(imyEvolve
Tree
p1032
(dp1033
g17
I0
sg18
F0.6559586929472481
sg19
I01
sbsg20
I00
sg21
g43
sbsg17
I2
sg23
(imyEvolve
Tree
p1034
(dp1035
g14
(imyEvolve
Tree
p1036
(dp1037
g17
I0
sg19
I00
sbsg17
I1
sg20
I01
sg21
g22
sbsg20
I00
sg21
g28
sbsg17
I3
sg23
(imyEvolve
Tree
p1038
(dp1039
g7
(imyEvolve
Tree
p1040
(dp1041
g14
(imyEvolve
Tree
p1042
(dp1043
g17
I0
sg19
I00
sbsg17
I1
sg20
I01
sg21
g78
sbsg17
I2
sg23
(imyEvolve
Tree
p1044
(dp1045
g14
(imyEvolve
Tree
p1046
(dp1047
g17
I0
sg19
I00
sbsg17
I1
sg20
I01
sg21
g78
sbsg20
I00
sg21
g43
sbsg20
I00
sg21
g42
sbsg17
I4
sg20
I01
sg21
g93
sbsg20
I00
sg21
g42
sba(imyEvolve
Tree
p1048
(dp1049
g14
(imyEvolve
Tree
p1050
(dp1051
g14
(imyEvolve
Tree
p1052
(dp1053
g7
(imyEvolve
Tree
p1054
(dp1055
g17
I0
sg18
F2.650198664160575
sg19
I01
sbsg17
I1
sg23
(imyEvolve
Tree
p1056
(dp1057
g17
I0
sg18
F1.7648769827781745
sg19
I01
sbsg20
I00
sg21
g28
sbsg17
I2
sg20
I01
sg21
g78
sbsg17
I3
sg20
I01
sg21
g78
sbaasS'alpha'
p1058
F0.006081428776862099
sS'fitness'
p1059
cnumpy.core.multiarray
scalar
p1060
(cnumpy
dtype
p1061
(S'f8'
p1062
I0
I1
tp1063
Rp1064
(I3
S'<'
p1065
NNNI-1
I-1
I0
tp1066
bS'\x00\xc6m4Pzf?'
p1067
tp1068
Rp1069
sS'weightSharing'
p1070
(lp1071
I00
asS'fitnessValid'
p1072
I00
sS'resolution'
p1073
I99
sb.