(imyEvolve
Individual
p0
(dp1
S'funcs'
p2
(lp3
(lp4
(imyEvolve
Tree
p5
(dp6
S'depth'
p7
I5
sS'left'
p8
(imyEvolve
Tree
p9
(dp10
S'below'
p11
(imyEvolve
Tree
p12
(dp13
g7
I3
sg8
(imyEvolve
Tree
p14
(dp15
g7
I2
sg8
(imyEvolve
Tree
p16
(dp17
g7
I1
sg8
(imyEvolve
Tree
p18
(dp19
g7
I0
sS'constant'
p20
F-0.7750895113499832
sS'isConstant'
p21
I01
sbsS'right'
p22
(imyEvolve
Tree
p23
(dp24
g7
I0
sg20
F2.2599659888885615
sg21
I01
sbsS'single'
p25
I00
sS'op'
p26
coperator
mul
p27
sbsg22
(imyEvolve
Tree
p28
(dp29
g7
I1
sg8
(imyEvolve
Tree
p30
(dp31
g7
I0
sg20
F3.3442560591611628
sg21
I01
sbsg22
(imyEvolve
Tree
p32
(dp33
g7
I0
sg21
I00
sbsg25
I00
sg26
coperator
sub
p34
sbsg25
I00
sg26
g27
sbsg22
(imyEvolve
Tree
p35
(dp36
g11
(imyEvolve
Tree
p37
(dp38
g11
(imyEvolve
Tree
p39
(dp40
g7
I0
sg21
I00
sbsg7
I1
sg25
I01
sg26
cmyEvolve
absSqrt
p41
sbsg7
I2
sg25
I01
sg26
cmath
cos
p42
sbsg25
I00
sg26
coperator
add
p43
sbsg7
I4
sg25
I01
sg26
g41
sbsg22
(imyEvolve
Tree
p44
(dp45
g7
I4
sg8
(imyEvolve
Tree
p46
(dp47
g11
(imyEvolve
Tree
p48
(dp49
g11
(imyEvolve
Tree
p50
(dp51
g7
I1
sg8
(imyEvolve
Tree
p52
(dp53
g7
I0
sg20
F-1.136338178751617
sg21
I01
sbsg22
(imyEvolve
Tree
p54
(dp55
g7
I0
sg21
I00
sbsg25
I00
sg26
g43
sbsg7
I2
sg25
I01
sg26
g42
sbsg7
I3
sg25
I01
sg26
g42
sbsg22
(imyEvolve
Tree
p56
(dp57
g11
(imyEvolve
Tree
p58
(dp59
g7
I2
sg8
(imyEvolve
Tree
p60
(dp61
g7
I1
sg8
(imyEvolve
Tree
p62
(dp63
g7
I0
sg20
F4.083143575676436
sg21
I01
sbsg22
(imyEvolve
Tree
p64
(dp65
g7
I0
sg21
I00
sbsg25
I00
sg26
g27
sbsg22
(imyEvolve
Tree
p66
(dp67
g11
(imyEvolve
Tree
p68
(dp69
g7
I0
sg20
F0.14798802191547367
sg21
I01
sbsg7
I1
sg25
I01
sg26
g42
sbsg25
I00
sg26
g34
sbsg7
I3
sg25
I01
sg26
g41
sbsg25
I00
sg26
g43
sbsg25
I00
sg26
g34
sba(imyEvolve
Tree
p70
(dp71
g7
I4
sg8
(imyEvolve
Tree
p72
(dp73
g7
I3
sg8
(imyEvolve
Tree
p74
(dp75
g7
I2
sg8
(imyEvolve
Tree
p76
(dp77
g7
I1
sg8
(imyEvolve
Tree
p78
(dp79
g7
I0
sg21
I00
sbsg22
(imyEvolve
Tree
p80
(dp81
g7
I0
sg20
F3.073266223815965
sg21
I01
sbsg25
I00
sg26
g27
sbsg22
(imyEvolve
Tree
p82
(dp83
g11
(imyEvolve
Tree
p84
(dp85
g7
I0
sg20
F4.568118230953202
sg21
I01
sbsg7
I1
sg25
I01
sg26
g42
sbsg25
I00
sg26
g27
sbsg22
(imyEvolve
Tree
p86
(dp87
g7
I2
sg8
(imyEvolve
Tree
p88
(dp89
g7
I1
sg8
(imyEvolve
Tree
p90
(dp91
g7
I0
sg21
I00
sbsg22
(imyEvolve
Tree
p92
(dp93
g7
I0
sg21
I00
sbsg25
I00
sg26
g34
sbsg22
(imyEvolve
Tree
p94
(dp95
g7
I1
sg8
(imyEvolve
Tree
p96
(dp97
g7
I0
sg20
F-3.082562348788316
sg21
I01
sbsg22
(imyEvolve
Tree
p98
(dp99
g7
I0
sg20
F-3.475724457975431
sg21
I01
sbsg25
I00
sg26
g43
sbsg25
I00
sg26
g34
sbsg25
I00
sg26
g27
sbsg22
(imyEvolve
Tree
p100
(dp101
g7
I3
sg8
(imyEvolve
Tree
p102
(dp103
g7
I2
sg8
(imyEvolve
Tree
p104
(dp105
g7
I1
sg8
(imyEvolve
Tree
p106
(dp107
g7
I0
sg20
F-0.5176906464610092
sg21
I01
sbsg22
(imyEvolve
Tree
p108
(dp109
g7
I0
sg21
I00
sbsg25
I00
sg26
g27
sbsg22
(imyEvolve
Tree
p110
(dp111
g7
I1
sg8
(imyEvolve
Tree
p112
(dp113
g7
I0
sg21
I00
sbsg22
(imyEvolve
Tree
p114
(dp115
g7
I0
sg21
I00
sbsg25
I00
sg26
g43
sbsg25
I00
sg26
g27
sbsg22
(imyEvolve
Tree
p116
(dp117
g7
I2
sg8
(imyEvolve
Tree
p118
(dp119
g11
(imyEvolve
Tree
p120
(dp121
g7
I0
sg20
F0.540900767424878
sg21
I01
sbsg7
I1
sg25
I01
sg26
g42
sbsg22
(imyEvolve
Tree
p122
(dp123
g11
(imyEvolve
Tree
p124
(dp125
g7
I0
sg21
I00
sbsg7
I1
sg25
I01
sg26
g41
sbsg25
I00
sg26
g43
sbsg25
I00
sg26
g43
sbsg25
I00
sg26
g43
sba(imyEvolve
Tree
p126
(dp127
g11
(imyEvolve
Tree
p128
(dp129
g7
I1
sg8
(imyEvolve
Tree
p130
(dp131
g7
I0
sg20
F3.484927948030121
sg21
I01
sbsg22
(imyEvolve
Tree
p132
(dp133
g7
I0
sg21
I00
sbsg25
I00
sg26
g43
sbsg7
I2
sg25
I01
sg26
cmath
sin
p134
sba(imyEvolve
Tree
p135
(dp136
g8
(imyEvolve
Tree
p137
(dp138
g8
(imyEvolve
Tree
p139
(dp140
g11
(imyEvolve
Tree
p141
(dp142
g8
(imyEvolve
Tree
p143
(dp144
g11
(imyEvolve
Tree
p145
(dp146
g7
I0
sg20
F-1.4627284152354947
sg21
I01
sbsg7
I1
sg25
I01
sg26
g41
sbsg7
I2
sg22
(imyEvolve
Tree
p147
(dp148
g8
(imyEvolve
Tree
p149
(dp150
g7
I0
sg21
I00
sbsg7
I1
sg22
(imyEvolve
Tree
p151
(dp152
g7
I0
sg21
I00
sbsg25
I00
sg26
g27
sbsg25
I00
sg26
g27
sbsg7
I3
sg25
I01
sg26
g41
sbsg7
I4
sg22
(imyEvolve
Tree
p153
(dp154
g11
(imyEvolve
Tree
p155
(dp156
g8
(imyEvolve
Tree
p157
(dp158
g11
(imyEvolve
Tree
p159
(dp160
g7
I0
sg20
F-4.178526413143969
sg21
I01
sbsg7
I1
sg25
I01
sg26
g41
sbsg7
I2
sg22
(imyEvolve
Tree
p161
(dp162
g8
(imyEvolve
Tree
p163
(dp164
g7
I0
sg20
F-0.3947798601193728
sg21
I01
sbsg7
I1
sg22
(imyEvolve
Tree
p165
(dp166
g7
I0
sg20
F-3.688284187974149
sg21
I01
sbsg25
I00
sg26
g27
sbsg25
I00
sg26
g27
sbsg7
I3
sg25
I01
sg26
g134
sbsg25
I00
sg26
g34
sbsg7
I5
sg22
(imyEvolve
Tree
p167
(dp168
g8
(imyEvolve
Tree
p169
(dp170
g11
(imyEvolve
Tree
p171
(dp172
g8
(imyEvolve
Tree
p173
(dp174
g11
(imyEvolve
Tree
p175
(dp176
g7
I0
sg21
I00
sbsg7
I1
sg25
I01
sg26
cmyEvolve
square
p177
sbsg7
I2
sg22
(imyEvolve
Tree
p178
(dp179
g8
(imyEvolve
Tree
p180
(dp181
g7
I0
sg21
I00
sbsg7
I1
sg22
(imyEvolve
Tree
p182
(dp183
g7
I0
sg21
I00
sbsg25
I00
sg26
g27
sbsg25
I00
sg26
g43
sbsg7
I3
sg25
I01
sg26
g177
sbsg7
I4
sg22
(imyEvolve
Tree
p184
(dp185
g8
(imyEvolve
Tree
p186
(dp187
g11
(imyEvolve
Tree
p188
(dp189
g8
(imyEvolve
Tree
p190
(dp191
g7
I0
sg20
F3.435970457466368
sg21
I01
sbsg7
I1
sg22
(imyEvolve
Tree
p192
(dp193
g7
I0
sg20
F-1.8967526745248176
sg21
I01
sbsg25
I00
sg26
g34
sbsg7
I2
sg25
I01
sg26
g42
sbsg7
I3
sg22
(imyEvolve
Tree
p194
(dp195
g8
(imyEvolve
Tree
p196
(dp197
g8
(imyEvolve
Tree
p198
(dp199
g7
I0
sg21
I00
sbsg7
I1
sg22
(imyEvolve
Tree
p200
(dp201
g7
I0
sg21
I00
sbsg25
I00
sg26
g43
sbsg7
I2
sg22
(imyEvolve
Tree
p202
(dp203
g8
(imyEvolve
Tree
p204
(dp205
g7
I0
sg20
F-4.261280436482378
sg21
I01
sbsg7
I1
sg22
(imyEvolve
Tree
p206
(dp207
g7
I0
sg21
I00
sbsg25
I00
sg26
g43
sbsg25
I00
sg26
g27
sbsg25
I00
sg26
g34
sbsg25
I00
sg26
g43
sbsg25
I00
sg26
g34
sba(imyEvolve
Tree
p208
(dp209
g11
(imyEvolve
Tree
p210
(dp211
g8
(imyEvolve
Tree
p212
(dp213
g8
(imyEvolve
Tree
p214
(dp215
g11
(imyEvolve
Tree
p216
(dp217
g11
(imyEvolve
Tree
p218
(dp219
g7
I0
sg21
I00
sbsg7
I1
sg25
I01
sg26
g134
sbsg7
I2
sg25
I01
sg26
g41
sbsg7
I3
sg22
(imyEvolve
Tree
p220
(dp221
g8
(imyEvolve
Tree
p222
(dp223
g11
(imyEvolve
Tree
p224
(dp225
g7
I0
sg20
F1.6332381595393155
sg21
I01
sbsg7
I1
sg25
I01
sg26
g41
sbsg7
I2
sg22
(imyEvolve
Tree
p226
(dp227
g11
(imyEvolve
Tree
p228
(dp229
g7
I0
sg21
I00
sbsg7
I1
sg25
I01
sg26
g177
sbsg25
I00
sg26
g43
sbsg25
I00
sg26
g43
sbsg7
I4
sg22
(imyEvolve
Tree
p230
(dp231
g11
(imyEvolve
Tree
p232
(dp233
g8
(imyEvolve
Tree
p234
(dp235
g8
(imyEvolve
Tree
p236
(dp237
g7
I0
sg20
F4.8524345854550965
sg21
I01
sbsg7
I1
sg22
(imyEvolve
Tree
p238
(dp239
g7
I0
sg20
F0.8169634613320884
sg21
I01
sbsg25
I00
sg26
g27
sbsg7
I2
sg22
(imyEvolve
Tree
p240
(dp241
g11
(imyEvolve
Tree
p242
(dp243
g7
I0
sg21
I00
sbsg7
I1
sg25
I01
sg26
g177
sbsg25
I00
sg26
g34
sbsg7
I3
sg25
I01
sg26
g134
sbsg25
I00
sg26
g27
sbsg7
I5
sg25
I01
sg26
g177
sba(imyEvolve
Tree
p244
(dp245
g7
I2
sg8
(imyEvolve
Tree
p246
(dp247
g7
I1
sg8
(imyEvolve
Tree
p248
(dp249
g7
I0
sg20
F3.376628844454622
sg21
I01
sbsg22
(imyEvolve
Tree
p250
(dp251
g7
I0
sg21
I00
sbsg25
I00
sg26
g27
sbsg22
(imyEvolve
Tree
p252
(dp253
g7
I1
sg8
(imyEvolve
Tree
p254
(dp255
g7
I0
sg20
F-1.3798065485758402
sg21
I01
sbsg22
(imyEvolve
Tree
p256
(dp257
g7
I0
sg20
F1.9954080302157893
sg21
I01
sbsg25
I00
sg26
g27
sbsg25
I00
sg26
g27
sba(imyEvolve
Tree
p258
(dp259
g7
I5
sg8
(imyEvolve
Tree
p260
(dp261
g11
(imyEvolve
Tree
p262
(dp263
g7
I3
sg8
(imyEvolve
Tree
p264
(dp265
g7
I2
sg8
(imyEvolve
Tree
p266
(dp267
g7
I1
sg8
(imyEvolve
Tree
p268
(dp269
g7
I0
sg21
I00
sbsg22
(imyEvolve
Tree
p270
(dp271
g7
I0
sg20
F4.598390476662363
sg21
I01
sbsg25
I00
sg26
g27
sbsg22
(imyEvolve
Tree
p272
(dp273
g11
(imyEvolve
Tree
p274
(dp275
g7
I0
sg20
F0.5884469777494408
sg21
I01
sbsg7
I1
sg25
I01
sg26
g134
sbsg25
I00
sg26
g43
sbsg22
(imyEvolve
Tree
p276
(dp277
g7
I2
sg8
(imyEvolve
Tree
p278
(dp279
g7
I1
sg8
(imyEvolve
Tree
p280
(dp281
g7
I0
sg20
F-0.2705495875325594
sg21
I01
sbsg22
(imyEvolve
Tree
p282
(dp283
g7
I0
sg21
I00
sbsg25
I00
sg26
g27
sbsg22
(imyEvolve
Tree
p284
(dp285
g7
I1
sg8
(imyEvolve
Tree
p286
(dp287
g7
I0
sg20
F1.1913282026673198
sg21
I01
sbsg22
(imyEvolve
Tree
p288
(dp289
g7
I0
sg21
I00
sbsg25
I00
sg26
g27
sbsg25
I00
sg26
g27
sbsg25
I00
sg26
g27
sbsg7
I4
sg25
I01
sg26
g42
sbsg22
(imyEvolve
Tree
p290
(dp291
g7
I4
sg8
(imyEvolve
Tree
p292
(dp293
g11
(imyEvolve
Tree
p294
(dp295
g11
(imyEvolve
Tree
p296
(dp297
g11
(imyEvolve
Tree
p298
(dp299
g7
I0
sg21
I00
sbsg7
I1
sg25
I01
sg26
g41
sbsg7
I2
sg25
I01
sg26
g134
sbsg7
I3
sg25
I01
sg26
g41
sbsg22
(imyEvolve
Tree
p300
(dp301
g7
I3
sg8
(imyEvolve
Tree
p302
(dp303
g11
(imyEvolve
Tree
p304
(dp305
g7
I1
sg8
(imyEvolve
Tree
p306
(dp307
g7
I0
sg21
I00
sbsg22
(imyEvolve
Tree
p308
(dp309
g7
I0
sg20
F0.1625960514809046
sg21
I01
sbsg25
I00
sg26
g27
sbsg7
I2
sg25
I01
sg26
g177
sbsg22
(imyEvolve
Tree
p310
(dp311
g11
(imyEvolve
Tree
p312
(dp313
g11
(imyEvolve
Tree
p314
(dp315
g7
I0
sg20
F-1.0171189043779396
sg21
I01
sbsg7
I1
sg25
I01
sg26
g42
sbsg7
I2
sg25
I01
sg26
g41
sbsg25
I00
sg26
g43
sbsg25
I00
sg26
g34
sbsg25
I00
sg26
g34
sba(imyEvolve
Tree
p316
(dp317
g11
(imyEvolve
Tree
p318
(dp319
g11
(imyEvolve
Tree
p320
(dp321
g7
I0
sg20
F0.2913606689884407
sg21
I01
sbsg7
I1
sg25
I01
sg26
g41
sbsg7
I2
sg25
I01
sg26
g42
sba(imyEvolve
Tree
p322
(dp323
g11
(imyEvolve
Tree
p324
(dp325
g11
(imyEvolve
Tree
p326
(dp327
g8
(imyEvolve
Tree
p328
(dp329
g8
(imyEvolve
Tree
p330
(dp331
g7
I0
sg20
F-2.029690646546981
sg21
I01
sbsg7
I1
sg22
(imyEvolve
Tree
p332
(dp333
g7
I0
sg20
F3.739655075523169
sg21
I01
sbsg25
I00
sg26
g43
sbsg7
I2
sg22
(imyEvolve
Tree
p334
(dp335
g8
(imyEvolve
Tree
p336
(dp337
g7
I0
sg21
I00
sbsg7
I1
sg22
(imyEvolve
Tree
p338
(dp339
g7
I0
sg21
I00
sbsg25
I00
sg26
g27
sbsg25
I00
sg26
g43
sbsg7
I3
sg25
I01
sg26
g42
sbsg7
I4
sg25
I01
sg26
g134
sba(imyEvolve
Tree
p340
(dp341
g8
(imyEvolve
Tree
p342
(dp343
g11
(imyEvolve
Tree
p344
(dp345
g11
(imyEvolve
Tree
p346
(dp347
g7
I0
sg21
I00
sbsg7
I1
sg25
I01
sg26
g134
sbsg7
I2
sg25
I01
sg26
g134
sbsg7
I3
sg22
(imyEvolve
Tree
p348
(dp349
g8
(imyEvolve
Tree
p350
(dp351
g8
(imyEvolve
Tree
p352
(dp353
g7
I0
sg21
I00
sbsg7
I1
sg22
(imyEvolve
Tree
p354
(dp355
g7
I0
sg20
F-4.041458412632101
sg21
I01
sbsg25
I00
sg26
g43
sbsg7
I2
sg22
(imyEvolve
Tree
p356
(dp357
g11
(imyEvolve
Tree
p358
(dp359
g7
I0
sg21
I00
sbsg7
I1
sg25
I01
sg26
g134
sbsg25
I00
sg26
g43
sbsg25
I00
sg26
g27
sba(imyEvolve
Tree
p360
(dp361
g7
I3
sg8
(imyEvolve
Tree
p362
(dp363
g7
I2
sg8
(imyEvolve
Tree
p364
(dp365
g7
I1
sg8
(imyEvolve
Tree
p366
(dp367
g7
I0
sg20
F0.7273001042545815
sg21
I01
sbsg22
(imyEvolve
Tree
p368
(dp369
g7
I0
sg21
I00
sbsg25
I00
sg26
g43
sbsg22
(imyEvolve
Tree
p370
(dp371
g7
I1
sg8
(imyEvolve
Tree
p372
(dp373
g7
I0
sg21
I00
sbsg22
(imyEvolve
Tree
p374
(dp375
g7
I0
sg21
I00
sbsg25
I00
sg26
g27
sbsg25
I00
sg26
g43
sbsg22
(imyEvolve
Tree
p376
(dp377
g11
(imyEvolve
Tree
p378
(dp379
g7
I1
sg8
(imyEvolve
Tree
p380
(dp381
g7
I0
sg21
I00
sbsg22
(imyEvolve
Tree
p382
(dp383
g7
I0
sg21
I00
sbsg25
I00
sg26
g43
sbsg7
I2
sg25
I01
sg26
g134
sbsg25
I00
sg26
g34
sba(imyEvolve
Tree
p384
(dp385
g8
(imyEvolve
Tree
p386
(dp387
g8
(imyEvolve
Tree
p388
(dp389
g7
I0
sg21
I00
sbsg7
I1
sg22
(imyEvolve
Tree
p390
(dp391
g7
I0
sg20
F3.550381872075338
sg21
I01
sbsg25
I00
sg26
g34
sbsg7
I2
sg22
(imyEvolve
Tree
p392
(dp393
g8
(imyEvolve
Tree
p394
(dp395
g7
I0
sg21
I00
sbsg7
I1
sg22
(imyEvolve
Tree
p396
(dp397
g7
I0
sg20
F3.361405058196036
sg21
I01
sbsg25
I00
sg26
g43
sbsg25
I00
sg26
g27
sba(imyEvolve
Tree
p398
(dp399
g7
I2
sg8
(imyEvolve
Tree
p400
(dp401
g7
I1
sg8
(imyEvolve
Tree
p402
(dp403
g7
I0
sg20
F-3.1191282281952306
sg21
I01
sbsg22
(imyEvolve
Tree
p404
(dp405
g7
I0
sg21
I00
sbsg25
I00
sg26
g27
sbsg22
(imyEvolve
Tree
p406
(dp407
g7
I1
sg8
(imyEvolve
Tree
p408
(dp409
g7
I0
sg20
F-0.7603209163593574
sg21
I01
sbsg22
(imyEvolve
Tree
p410
(dp411
g7
I0
sg21
I00
sbsg25
I00
sg26
g43
sbsg25
I00
sg26
g34
sba(imyEvolve
Tree
p412
(dp413
g11
(imyEvolve
Tree
p414
(dp415
g11
(imyEvolve
Tree
p416
(dp417
g11
(imyEvolve
Tree
p418
(dp419
g11
(imyEvolve
Tree
p420
(dp421
g7
I0
sg21
I00
sbsg7
I1
sg25
I01
sg26
g134
sbsg7
I2
sg25
I01
sg26
g42
sbsg7
I3
sg25
I01
sg26
g42
sbsg7
I4
sg25
I01
sg26
g41
sba(imyEvolve
Tree
p422
(dp423
g11
(imyEvolve
Tree
p424
(dp425
g8
(imyEvolve
Tree
p426
(dp427
g11
(imyEvolve
Tree
p428
(dp429
g7
I0
sg21
I00
sbsg7
I1
sg25
I01
sg26
g134
sbsg7
I2
sg22
(imyEvolve
Tree
p430
(dp431
g8
(imyEvolve
Tree
p432
(dp433
g7
I0
sg21
I00
sbsg7
I1
sg22
(imyEvolve
Tree
p434
(dp435
g7
I0
sg21
I00
sbsg25
I00
sg26
g34
sbsg25
I00
sg26
g34
sbsg7
I3
sg25
I01
sg26
g41
sba(imyEvolve
Tree
p436
(dp437
g8
(imyEvolve
Tree
p438
(dp439
g8
(imyEvolve
Tree
p440
(dp441
g7
I0
sg20
F-2.6035793568859567
sg21
I01
sbsg7
I1
sg22
(imyEvolve
Tree
p442
(dp443
g7
I0
sg21
I00
sbsg25
I00
sg26
g43
sbsg7
I2
sg22
(imyEvolve
Tree
p444
(dp445
g8
(imyEvolve
Tree
p446
(dp447
g7
I0
sg21
I00
sbsg7
I1
sg22
(imyEvolve
Tree
p448
(dp449
g7
I0
sg21
I00
sbsg25
I00
sg26
g34
sbsg25
I00
sg26
g34
sba(imyEvolve
Tree
p450
(dp451
g8
(imyEvolve
Tree
p452
(dp453
g11
(imyEvolve
Tree
p454
(dp455
g8
(imyEvolve
Tree
p456
(dp457
g8
(imyEvolve
Tree
p458
(dp459
g11
(imyEvolve
Tree
p460
(dp461
g7
I0
sg20
F1.2263748027334191
sg21
I01
sbsg7
I1
sg25
I01
sg26
g41
sbsg7
I2
sg22
(imyEvolve
Tree
p462
(dp463
g8
(imyEvolve
Tree
p464
(dp465
g7
I0
sg20
F0.4952192976819383
sg21
I01
sbsg7
I1
sg22
(imyEvolve
Tree
p466
(dp467
g7
I0
sg20
F-0.375871237490891
sg21
I01
sbsg25
I00
sg26
g27
sbsg25
I00
sg26
g27
sbsg7
I3
sg22
(imyEvolve
Tree
p468
(dp469
g8
(imyEvolve
Tree
p470
(dp471
g11
(imyEvolve
Tree
p472
(dp473
g7
I0
sg21
I00
sbsg7
I1
sg25
I01
sg26
g134
sbsg7
I2
sg22
(imyEvolve
Tree
p474
(dp475
g11
(imyEvolve
Tree
p476
(dp477
g7
I0
sg20
F-1.7771470953053248
sg21
I01
sbsg7
I1
sg25
I01
sg26
g134
sbsg25
I00
sg26
g27
sbsg25
I00
sg26
g27
sbsg7
I4
sg25
I01
sg26
g41
sbsg7
I5
sg22
(imyEvolve
Tree
p478
(dp479
g8
(imyEvolve
Tree
p480
(dp481
g8
(imyEvolve
Tree
p482
(dp483
g8
(imyEvolve
Tree
p484
(dp485
g11
(imyEvolve
Tree
p486
(dp487
g7
I0
sg20
F1.865593362649486
sg21
I01
sbsg7
I1
sg25
I01
sg26
g42
sbsg7
I2
sg22
(imyEvolve
Tree
p488
(dp489
g8
(imyEvolve
Tree
p490
(dp491
g7
I0
sg21
I00
sbsg7
I1
sg22
(imyEvolve
Tree
p492
(dp493
g7
I0
sg20
F2.0497308977276276
sg21
I01
sbsg25
I00
sg26
g34
sbsg25
I00
sg26
g27
sbsg7
I3
sg22
(imyEvolve
Tree
p494
(dp495
g8
(imyEvolve
Tree
p496
(dp497
g8
(imyEvolve
Tree
p498
(dp499
g7
I0
sg21
I00
sbsg7
I1
sg22
(imyEvolve
Tree
p500
(dp501
g7
I0
sg20
F1.281334016226011
sg21
I01
sbsg25
I00
sg26
g34
sbsg7
I2
sg22
(imyEvolve
Tree
p502
(dp503
g8
(imyEvolve
Tree
p504
(dp505
g7
I0
sg20
F4.552770850103499
sg21
I01
sbsg7
I1
sg22
(imyEvolve
Tree
p506
(dp507
g7
I0
sg20
F-4.421119269394213
sg21
I01
sbsg25
I00
sg26
g43
sbsg25
I00
sg26
g43
sbsg25
I00
sg26
g43
sbsg7
I4
sg22
(imyEvolve
Tree
p508
(dp509
g11
(imyEvolve
Tree
p510
(dp511
g11
(imyEvolve
Tree
p512
(dp513
g8
(imyEvolve
Tree
p514
(dp515
g7
I0
sg20
F0.6831982000491372
sg21
I01
sbsg7
I1
sg22
(imyEvolve
Tree
p516
(dp517
g7
I0
sg21
I00
sbsg25
I00
sg26
g27
sbsg7
I2
sg25
I01
sg26
g42
sbsg7
I3
sg25
I01
sg26
g177
sbsg25
I00
sg26
g34
sbsg25
I00
sg26
g27
sba(imyEvolve
Tree
p518
(dp519
g8
(imyEvolve
Tree
p520
(dp521
g8
(imyEvolve
Tree
p522
(dp523
g11
(imyEvolve
Tree
p524
(dp525
g7
I0
sg20
F0.5779422017041131
sg21
I01
sbsg7
I1
sg25
I01
sg26
g134
sbsg7
I2
sg22
(imyEvolve
Tree
p526
(dp527
g11
(imyEvolve
Tree
p528
(dp529
g7
I0
sg20
F2.678372429347151
sg21
I01
sbsg7
I1
sg25
I01
sg26
g42
sbsg25
I00
sg26
g27
sbsg7
I3
sg22
(imyEvolve
Tree
p530
(dp531
g11
(imyEvolve
Tree
p532
(dp533
g8
(imyEvolve
Tree
p534
(dp535
g7
I0
sg20
F-3.7874997457824042
sg21
I01
sbsg7
I1
sg22
(imyEvolve
Tree
p536
(dp537
g7
I0
sg21
I00
sbsg25
I00
sg26
g43
sbsg7
I2
sg25
I01
sg26
g41
sbsg25
I00
sg26
g27
sba(imyEvolve
Tree
p538
(dp539
g8
(imyEvolve
Tree
p540
(dp541
g11
(imyEvolve
Tree
p542
(dp543
g11
(imyEvolve
Tree
p544
(dp545
g11
(imyEvolve
Tree
p546
(dp547
g7
I0
sg20
F-1.8080949202777785
sg21
I01
sbsg7
I1
sg25
I01
sg26
g134
sbsg7
I2
sg25
I01
sg26
g177
sbsg7
I3
sg25
I01
sg26
g42
sbsg7
I4
sg22
(imyEvolve
Tree
p548
(dp549
g11
(imyEvolve
Tree
p550
(dp551
g8
(imyEvolve
Tree
p552
(dp553
g11
(imyEvolve
Tree
p554
(dp555
g7
I0
sg20
F2.664983657531213
sg21
I01
sbsg7
I1
sg25
I01
sg26
g134
sbsg7
I2
sg22
(imyEvolve
Tree
p556
(dp557
g11
(imyEvolve
Tree
p558
(dp559
g7
I0
sg21
I00
sbsg7
I1
sg25
I01
sg26
g41
sbsg25
I00
sg26
g34
sbsg7
I3
sg25
I01
sg26
g177
sbsg25
I00
sg26
g43
sbaa(lp560
(imyEvolve
Tree
p561
(dp562
g11
(imyEvolve
Tree
p563
(dp564
g8
(imyEvolve
Tree
p565
(dp566
g8
(imyEvolve
Tree
p567
(dp568
g7
I0
sg21
I00
sbsg7
I1
sg22
(imyEvolve
Tree
p569
(dp570
g7
I0
sg21
I00
sbsg25
I00
sg26
g43
sbsg7
I2
sg22
(imyEvolve
Tree
p571
(dp572
g11
(imyEvolve
Tree
p573
(dp574
g7
I0
sg21
I00
sbsg7
I1
sg25
I01
sg26
g41
sbsg25
I00
sg26
g34
sbsg7
I3
sg25
I01
sg26
g177
sba(imyEvolve
Tree
p575
(dp576
g11
(imyEvolve
Tree
p577
(dp578
g8
(imyEvolve
Tree
p579
(dp580
g8
(imyEvolve
Tree
p581
(dp582
g11
(imyEvolve
Tree
p583
(dp584
g7
I0
sg21
I00
sbsg7
I1
sg25
I01
sg26
g177
sbsg7
I2
sg22
(imyEvolve
Tree
p585
(dp586
g11
(imyEvolve
Tree
p587
(dp588
g7
I0
sg21
I00
sbsg7
I1
sg25
I01
sg26
g41
sbsg25
I00
sg26
g43
sbsg7
I3
sg22
(imyEvolve
Tree
p589
(dp590
g8
(imyEvolve
Tree
p591
(dp592
g11
(imyEvolve
Tree
p593
(dp594
g7
I0
sg21
I00
sbsg7
I1
sg25
I01
sg26
g41
sbsg7
I2
sg22
(imyEvolve
Tree
p595
(dp596
g8
(imyEvolve
Tree
p597
(dp598
g7
I0
sg20
F-0.49695795130495135
sg21
I01
sbsg7
I1
sg22
(imyEvolve
Tree
p599
(dp600
g7
I0
sg21
I00
sbsg25
I00
sg26
g27
sbsg25
I00
sg26
g27
sbsg25
I00
sg26
g27
sbsg7
I4
sg25
I01
sg26
g41
sba(imyEvolve
Tree
p601
(dp602
g8
(imyEvolve
Tree
p603
(dp604
g11
(imyEvolve
Tree
p605
(dp606
g11
(imyEvolve
Tree
p607
(dp608
g11
(imyEvolve
Tree
p609
(dp610
g11
(imyEvolve
Tree
p611
(dp612
g7
I0
sg21
I00
sbsg7
I1
sg25
I01
sg26
g177
sbsg7
I2
sg25
I01
sg26
g134
sbsg7
I3
sg25
I01
sg26
g41
sbsg7
I4
sg25
I01
sg26
g41
sbsg7
I5
sg22
(imyEvolve
Tree
p613
(dp614
g11
(imyEvolve
Tree
p615
(dp616
g8
(imyEvolve
Tree
p617
(dp618
g11
(imyEvolve
Tree
p619
(dp620
g11
(imyEvolve
Tree
p621
(dp622
g7
I0
sg21
I00
sbsg7
I1
sg25
I01
sg26
g177
sbsg7
I2
sg25
I01
sg26
g42
sbsg7
I3
sg22
(imyEvolve
Tree
p623
(dp624
g11
(imyEvolve
Tree
p625
(dp626
g8
(imyEvolve
Tree
p627
(dp628
g7
I0
sg20
F0.7053577025429858
sg21
I01
sbsg7
I1
sg22
(imyEvolve
Tree
p629
(dp630
g7
I0
sg21
I00
sbsg25
I00
sg26
g34
sbsg7
I2
sg25
I01
sg26
g134
sbsg25
I00
sg26
g43
sbsg7
I4
sg25
I01
sg26
g42
sbsg25
I00
sg26
g43
sba(imyEvolve
Tree
p631
(dp632
g11
(imyEvolve
Tree
p633
(dp634
g7
I3
sg8
(imyEvolve
Tree
p635
(dp636
g7
I2
sg8
(imyEvolve
Tree
p637
(dp638
g7
I1
sg8
(imyEvolve
Tree
p639
(dp640
g7
I0
sg21
I00
sbsg22
(imyEvolve
Tree
p641
(dp642
g7
I0
sg20
F-1.6954211980749747
sg21
I01
sbsg25
I00
sg26
g27
sbsg22
(imyEvolve
Tree
p643
(dp644
g11
(imyEvolve
Tree
p645
(dp646
g7
I0
sg20
F0.6519239142527775
sg21
I01
sbsg7
I1
sg25
I01
sg26
g177
sbsg25
I00
sg26
g27
sbsg22
(imyEvolve
Tree
p647
(dp648
g11
(imyEvolve
Tree
p649
(dp650
g11
(imyEvolve
Tree
p651
(dp652
g7
I0
sg20
F-0.6384123483759954
sg21
I01
sbsg7
I1
sg25
I01
sg26
g134
sbsg7
I2
sg25
I01
sg26
g177
sbsg25
I00
sg26
g43
sbsg7
I4
sg25
I01
sg26
g42
sba(imyEvolve
Tree
p653
(dp654
g8
(imyEvolve
Tree
p655
(dp656
g8
(imyEvolve
Tree
p657
(dp658
g11
(imyEvolve
Tree
p659
(dp660
g11
(imyEvolve
Tree
p661
(dp662
g7
I0
sg21
I00
sbsg7
I1
sg25
I01
sg26
g134
sbsg7
I2
sg25
I01
sg26
g177
sbsg7
I3
sg22
(imyEvolve
Tree
p663
(dp664
g11
(imyEvolve
Tree
p665
(dp666
g11
(imyEvolve
Tree
p667
(dp668
g7
I0
sg20
F1.0001772943947085
sg21
I01
sbsg7
I1
sg25
I01
sg26
g134
sbsg7
I2
sg25
I01
sg26
g42
sbsg25
I00
sg26
g43
sbsg7
I4
sg22
(imyEvolve
Tree
p669
(dp670
g8
(imyEvolve
Tree
p671
(dp672
g8
(imyEvolve
Tree
p673
(dp674
g8
(imyEvolve
Tree
p675
(dp676
g7
I0
sg21
I00
sbsg7
I1
sg22
(imyEvolve
Tree
p677
(dp678
g7
I0
sg20
F-4.020805249285849
sg21
I01
sbsg25
I00
sg26
g34
sbsg7
I2
sg22
(imyEvolve
Tree
p679
(dp680
g11
(imyEvolve
Tree
p681
(dp682
g7
I0
sg20
F1.3094354558865309
sg21
I01
sbsg7
I1
sg25
I01
sg26
g41
sbsg25
I00
sg26
g34
sbsg7
I3
sg22
(imyEvolve
Tree
p683
(dp684
g11
(imyEvolve
Tree
p685
(dp686
g8
(imyEvolve
Tree
p687
(dp688
g7
I0
sg20
F-3.0168504602466117
sg21
I01
sbsg7
I1
sg22
(imyEvolve
Tree
p689
(dp690
g7
I0
sg20
F0.044594014025860496
sg21
I01
sbsg25
I00
sg26
g27
sbsg7
I2
sg25
I01
sg26
g177
sbsg25
I00
sg26
g27
sbsg25
I00
sg26
g27
sba(imyEvolve
Tree
p691
(dp692
g11
(imyEvolve
Tree
p693
(dp694
g11
(imyEvolve
Tree
p695
(dp696
g7
I0
sg21
I00
sbsg7
I1
sg25
I01
sg26
g177
sbsg7
I2
sg25
I01
sg26
g41
sba(imyEvolve
Tree
p697
(dp698
g8
(imyEvolve
Tree
p699
(dp700
g11
(imyEvolve
Tree
p701
(dp702
g7
I0
sg20
F-1.8765376310571802
sg21
I01
sbsg7
I1
sg25
I01
sg26
g42
sbsg7
I2
sg22
(imyEvolve
Tree
p703
(dp704
g8
(imyEvolve
Tree
p705
(dp706
g7
I0
sg20
F-4.3464385475649445
sg21
I01
sbsg7
I1
sg22
(imyEvolve
Tree
p707
(dp708
g7
I0
sg20
F-2.5143004447572515
sg21
I01
sbsg25
I00
sg26
g43
sbsg25
I00
sg26
g27
sba(imyEvolve
Tree
p709
(dp710
g11
(imyEvolve
Tree
p711
(dp712
g11
(imyEvolve
Tree
p713
(dp714
g8
(imyEvolve
Tree
p715
(dp716
g11
(imyEvolve
Tree
p717
(dp718
g7
I0
sg21
I00
sbsg7
I1
sg25
I01
sg26
g41
sbsg7
I2
sg22
(imyEvolve
Tree
p719
(dp720
g8
(imyEvolve
Tree
p721
(dp722
g7
I0
sg20
F0.21891749674514482
sg21
I01
sbsg7
I1
sg22
(imyEvolve
Tree
p723
(dp724
g7
I0
sg21
I00
sbsg25
I00
sg26
g43
sbsg25
I00
sg26
g43
sbsg7
I3
sg25
I01
sg26
g177
sbsg7
I4
sg25
I01
sg26
g42
sba(imyEvolve
Tree
p725
(dp726
g11
(imyEvolve
Tree
p727
(dp728
g11
(imyEvolve
Tree
p729
(dp730
g8
(imyEvolve
Tree
p731
(dp732
g8
(imyEvolve
Tree
p733
(dp734
g7
I0
sg20
F-0.9638951237623434
sg21
I01
sbsg7
I1
sg22
(imyEvolve
Tree
p735
(dp736
g7
I0
sg21
I00
sbsg25
I00
sg26
g27
sbsg7
I2
sg22
(imyEvolve
Tree
p737
(dp738
g8
(imyEvolve
Tree
p739
(dp740
g7
I0
sg20
F0.9251340411452533
sg21
I01
sbsg7
I1
sg22
(imyEvolve
Tree
p741
(dp742
g7
I0
sg20
F4.627826208692214
sg21
I01
sbsg25
I00
sg26
g34
sbsg25
I00
sg26
g34
sbsg7
I3
sg25
I01
sg26
g42
sbsg7
I4
sg25
I01
sg26
g177
sba(imyEvolve
Tree
p743
(dp744
g11
(imyEvolve
Tree
p745
(dp746
g11
(imyEvolve
Tree
p747
(dp748
g7
I2
sg8
(imyEvolve
Tree
p749
(dp750
g11
(imyEvolve
Tree
p751
(dp752
g7
I0
sg21
I00
sbsg7
I1
sg25
I01
sg26
g41
sbsg22
(imyEvolve
Tree
p753
(dp754
g11
(imyEvolve
Tree
p755
(dp756
g7
I0
sg20
F-3.017296530171394
sg21
I01
sbsg7
I1
sg25
I01
sg26
g41
sbsg25
I00
sg26
g43
sbsg7
I3
sg25
I01
sg26
g134
sbsg7
I4
sg25
I01
sg26
g41
sba(imyEvolve
Tree
p757
(dp758
g7
I5
sg8
(imyEvolve
Tree
p759
(dp760
g11
(imyEvolve
Tree
p761
(dp762
g11
(imyEvolve
Tree
p763
(dp764
g7
I2
sg8
(imyEvolve
Tree
p765
(dp766
g11
(imyEvolve
Tree
p767
(dp768
g7
I0
sg21
I00
sbsg7
I1
sg25
I01
sg26
g177
sbsg22
(imyEvolve
Tree
p769
(dp770
g11
(imyEvolve
Tree
p771
(dp772
g7
I0
sg21
I00
sbsg7
I1
sg25
I01
sg26
g177
sbsg25
I00
sg26
g27
sbsg7
I3
sg25
I01
sg26
g177
sbsg7
I4
sg25
I01
sg26
g42
sbsg22
(imyEvolve
Tree
p773
(dp774
g7
I4
sg8
(imyEvolve
Tree
p775
(dp776
g7
I3
sg8
(imyEvolve
Tree
p777
(dp778
g7
I2
sg8
(imyEvolve
Tree
p779
(dp780
g7
I1
sg8
(imyEvolve
Tree
p781
(dp782
g7
I0
sg20
F-3.100164484658192
sg21
I01
sbsg22
(imyEvolve
Tree
p783
(dp784
g7
I0
sg20
F4.9814152399950675
sg21
I01
sbsg25
I00
sg26
g27
sbsg22
(imyEvolve
Tree
p785
(dp786
g7
I1
sg8
(imyEvolve
Tree
p787
(dp788
g7
I0
sg20
F2.6879489178453175
sg21
I01
sbsg22
(imyEvolve
Tree
p789
(dp790
g7
I0
sg20
F-0.5976212103613232
sg21
I01
sbsg25
I00
sg26
g43
sbsg25
I00
sg26
g43
sbsg22
(imyEvolve
Tree
p791
(dp792
g7
I2
sg8
(imyEvolve
Tree
p793
(dp794
g11
(imyEvolve
Tree
p795
(dp796
g7
I0
sg20
F-0.906925037804327
sg21
I01
sbsg7
I1
sg25
I01
sg26
g134
sbsg22
(imyEvolve
Tree
p797
(dp798
g11
(imyEvolve
Tree
p799
(dp800
g7
I0
sg20
F0.14560439363004463
sg21
I01
sbsg7
I1
sg25
I01
sg26
g177
sbsg25
I00
sg26
g27
sbsg25
I00
sg26
g43
sbsg22
(imyEvolve
Tree
p801
(dp802
g7
I3
sg8
(imyEvolve
Tree
p803
(dp804
g11
(imyEvolve
Tree
p805
(dp806
g11
(imyEvolve
Tree
p807
(dp808
g7
I0
sg20
F-1.7418313666943739
sg21
I01
sbsg7
I1
sg25
I01
sg26
g42
sbsg7
I2
sg25
I01
sg26
g41
sbsg22
(imyEvolve
Tree
p809
(dp810
g7
I2
sg8
(imyEvolve
Tree
p811
(dp812
g7
I1
sg8
(imyEvolve
Tree
p813
(dp814
g7
I0
sg21
I00
sbsg22
(imyEvolve
Tree
p815
(dp816
g7
I0
sg21
I00
sbsg25
I00
sg26
g27
sbsg22
(imyEvolve
Tree
p817
(dp818
g11
(imyEvolve
Tree
p819
(dp820
g7
I0
sg20
F-1.033521255470239
sg21
I01
sbsg7
I1
sg25
I01
sg26
g41
sbsg25
I00
sg26
g43
sbsg25
I00
sg26
g43
sbsg25
I00
sg26
g34
sbsg25
I00
sg26
g27
sba(imyEvolve
Tree
p821
(dp822
g11
(imyEvolve
Tree
p823
(dp824
g7
I3
sg8
(imyEvolve
Tree
p825
(dp826
g11
(imyEvolve
Tree
p827
(dp828
g11
(imyEvolve
Tree
p829
(dp830
g7
I0
sg21
I00
sbsg7
I1
sg25
I01
sg26
g177
sbsg7
I2
sg25
I01
sg26
g177
sbsg22
(imyEvolve
Tree
p831
(dp832
g7
I2
sg8
(imyEvolve
Tree
p833
(dp834
g7
I1
sg8
(imyEvolve
Tree
p835
(dp836
g7
I0
sg21
I00
sbsg22
(imyEvolve
Tree
p837
(dp838
g7
I0
sg20
F0.6387416896999554
sg21
I01
sbsg25
I00
sg26
g34
sbsg22
(imyEvolve
Tree
p839
(dp840
g7
I1
sg8
(imyEvolve
Tree
p841
(dp842
g7
I0
sg20
F1.5903761832589938
sg21
I01
sbsg22
(imyEvolve
Tree
p843
(dp844
g7
I0
sg21
I00
sbsg25
I00
sg26
g43
sbsg25
I00
sg26
g27
sbsg25
I00
sg26
g27
sbsg7
I4
sg25
I01
sg26
g42
sba(imyEvolve
Tree
p845
(dp846
g11
(imyEvolve
Tree
p847
(dp848
g11
(imyEvolve
Tree
p849
(dp850
g7
I0
sg20
F4.467544528962547
sg21
I01
sbsg7
I1
sg25
I01
sg26
g41
sbsg7
I2
sg25
I01
sg26
g41
sba(imyEvolve
Tree
p851
(dp852
g11
(imyEvolve
Tree
p853
(dp854
g11
(imyEvolve
Tree
p855
(dp856
g11
(imyEvolve
Tree
p857
(dp858
g7
I0
sg21
I00
sbsg7
I1
sg25
I01
sg26
g41
sbsg7
I2
sg25
I01
sg26
g41
sbsg7
I3
sg25
I01
sg26
g134
sba(imyEvolve
Tree
p859
(dp860
g11
(imyEvolve
Tree
p861
(dp862
g11
(imyEvolve
Tree
p863
(dp864
g7
I0
sg20
F3.3998140563506
sg21
I01
sbsg7
I1
sg25
I01
sg26
g42
sbsg7
I2
sg25
I01
sg26
g42
sba(imyEvolve
Tree
p865
(dp866
g8
(imyEvolve
Tree
p867
(dp868
g11
(imyEvolve
Tree
p869
(dp870
g7
I0
sg21
I00
sbsg7
I1
sg25
I01
sg26
g177
sbsg7
I2
sg22
(imyEvolve
Tree
p871
(dp872
g11
(imyEvolve
Tree
p873
(dp874
g7
I0
sg20
F4.337476903860351
sg21
I01
sbsg7
I1
sg25
I01
sg26
g134
sbsg25
I00
sg26
g27
sba(imyEvolve
Tree
p875
(dp876
g11
(imyEvolve
Tree
p877
(dp878
g8
(imyEvolve
Tree
p879
(dp880
g8
(imyEvolve
Tree
p881
(dp882
g7
I0
sg21
I00
sbsg7
I1
sg22
(imyEvolve
Tree
p883
(dp884
g7
I0
sg21
I00
sbsg25
I00
sg26
g34
sbsg7
I2
sg22
(imyEvolve
Tree
p885
(dp886
g11
(imyEvolve
Tree
p887
(dp888
g7
I0
sg20
F-4.706496241494607
sg21
I01
sbsg7
I1
sg25
I01
sg26
g177
sbsg25
I00
sg26
g43
sbsg7
I3
sg25
I01
sg26
g177
sba(imyEvolve
Tree
p889
(dp890
g8
(imyEvolve
Tree
p891
(dp892
g11
(imyEvolve
Tree
p893
(dp894
g8
(imyEvolve
Tree
p895
(dp896
g8
(imyEvolve
Tree
p897
(dp898
g11
(imyEvolve
Tree
p899
(dp900
g7
I0
sg21
I00
sbsg7
I1
sg25
I01
sg26
g177
sbsg7
I2
sg22
(imyEvolve
Tree
p901
(dp902
g11
(imyEvolve
Tree
p903
(dp904
g7
I0
sg21
I00
sbsg7
I1
sg25
I01
sg26
g134
sbsg25
I00
sg26
g27
sbsg7
I3
sg22
(imyEvolve
Tree
p905
(dp906
g8
(imyEvolve
Tree
p907
(dp908
g11
(imyEvolve
Tree
p909
(dp910
g7
I0
sg21
I00
sbsg7
I1
sg25
I01
sg26
g134
sbsg7
I2
sg22
(imyEvolve
Tree
p911
(dp912
g8
(imyEvolve
Tree
p913
(dp914
g7
I0
sg20
F-4.378350185480336
sg21
I01
sbsg7
I1
sg22
(imyEvolve
Tree
p915
(dp916
g7
I0
sg21
I00
sbsg25
I00
sg26
g34
sbsg25
I00
sg26
g27
sbsg25
I00
sg26
g43
sbsg7
I4
sg25
I01
sg26
g134
sbsg7
I5
sg22
(imyEvolve
Tree
p917
(dp918
g11
(imyEvolve
Tree
p919
(dp920
g11
(imyEvolve
Tree
p921
(dp922
g11
(imyEvolve
Tree
p923
(dp924
g8
(imyEvolve
Tree
p925
(dp926
g7
I0
sg20
F-4.466750014225425
sg21
I01
sbsg7
I1
sg22
(imyEvolve
Tree
p927
(dp928
g7
I0
sg20
F0.9530944139931474
sg21
I01
sbsg25
I00
sg26
g27
sbsg7
I2
sg25
I01
sg26
g41
sbsg7
I3
sg25
I01
sg26
g41
sbsg7
I4
sg25
I01
sg26
g41
sbsg25
I00
sg26
g34
sba(imyEvolve
Tree
p929
(dp930
g11
(imyEvolve
Tree
p931
(dp932
g11
(imyEvolve
Tree
p933
(dp934
g11
(imyEvolve
Tree
p935
(dp936
g7
I1
sg8
(imyEvolve
Tree
p937
(dp938
g7
I0
sg20
F4.297646624772881
sg21
I01
sbsg22
(imyEvolve
Tree
p939
(dp940
g7
I0
sg20
F1.3612651137652527
sg21
I01
sbsg25
I00
sg26
g34
sbsg7
I2
sg25
I01
sg26
g41
sbsg7
I3
sg25
I01
sg26
g42
sbsg7
I4
sg25
I01
sg26
g134
sbaasS'alpha'
p941
F0.0025506773862888268
sS'fitness'
p942
cnumpy.core.multiarray
scalar
p943
(cnumpy
dtype
p944
(S'f8'
p945
I0
I1
tp946
Rp947
(I3
S'<'
p948
NNNI-1
I-1
I0
tp949
bS'q\xac\x8b%i \xe6?'
p950
tp951
Rp952
sS'weightSharing'
p953
(lp954
I01
asS'fitnessValid'
p955
I00
sS'resolution'
p956
I76
sb.