(imyEvolve
Individual
p0
(dp1
S'funcs'
p2
(lp3
(lp4
(imyEvolve
Tree
p5
(dp6
S'below'
p7
(imyEvolve
Tree
p8
(dp9
S'left'
p10
(imyEvolve
Tree
p11
(dp12
g7
(imyEvolve
Tree
p13
(dp14
S'depth'
p15
I0
sS'isConstant'
p16
I00
sbsg15
I1
sS'single'
p17
I01
sS'op'
p18
cmyEvolve
absSqrt
p19
sbsg15
I2
sS'right'
p20
(imyEvolve
Tree
p21
(dp22
g7
(imyEvolve
Tree
p23
(dp24
g15
I0
sg16
I00
sbsg15
I1
sg17
I01
sg18
cmath
sin
p25
sbsg17
I00
sg18
coperator
sub
p26
sbsg15
I3
sg17
I01
sg18
g19
sba(imyEvolve
Tree
p27
(dp28
g10
(imyEvolve
Tree
p29
(dp30
g10
(imyEvolve
Tree
p31
(dp32
g15
I0
sg16
I00
sbsg15
I1
sg20
(imyEvolve
Tree
p33
(dp34
g15
I0
sS'constant'
p35
F2.094479066317895
sg16
I01
sbsg17
I00
sg18
coperator
add
p36
sbsg15
I2
sg20
(imyEvolve
Tree
p37
(dp38
g10
(imyEvolve
Tree
p39
(dp40
g15
I0
sg35
F-2.436449475619007
sg16
I01
sbsg15
I1
sg20
(imyEvolve
Tree
p41
(dp42
g15
I0
sg16
I00
sbsg17
I00
sg18
g36
sbsg17
I00
sg18
coperator
mul
p43
sba(imyEvolve
Tree
p44
(dp45
g10
(imyEvolve
Tree
p46
(dp47
g7
(imyEvolve
Tree
p48
(dp49
g10
(imyEvolve
Tree
p50
(dp51
g10
(imyEvolve
Tree
p52
(dp53
g15
I0
sg35
F3.1394676834238346
sg16
I01
sbsg15
I1
sg20
(imyEvolve
Tree
p54
(dp55
g15
I0
sg16
I00
sbsg17
I00
sg18
g43
sbsg15
I2
sg20
(imyEvolve
Tree
p56
(dp57
g7
(imyEvolve
Tree
p58
(dp59
g15
I0
sg16
I00
sbsg15
I1
sg17
I01
sg18
g25
sbsg17
I00
sg18
g26
sbsg15
I3
sg17
I01
sg18
cmyEvolve
square
p60
sbsg15
I4
sg20
(imyEvolve
Tree
p61
(dp62
g7
(imyEvolve
Tree
p63
(dp64
g7
(imyEvolve
Tree
p65
(dp66
g7
(imyEvolve
Tree
p67
(dp68
g15
I0
sg35
F3.7594321066930085
sg16
I01
sbsg15
I1
sg17
I01
sg18
g25
sbsg15
I2
sg17
I01
sg18
g25
sbsg15
I3
sg17
I01
sg18
g60
sbsg17
I00
sg18
g26
sba(imyEvolve
Tree
p69
(dp70
g15
I4
sg10
(imyEvolve
Tree
p71
(dp72
g7
(imyEvolve
Tree
p73
(dp74
g15
I2
sg10
(imyEvolve
Tree
p75
(dp76
g7
(imyEvolve
Tree
p77
(dp78
g15
I0
sg35
F-1.318892093485795
sg16
I01
sbsg15
I1
sg17
I01
sg18
cmath
cos
p79
sbsg20
(imyEvolve
Tree
p80
(dp81
g7
(imyEvolve
Tree
p82
(dp83
g15
I0
sg35
F-3.6069423061491546
sg16
I01
sbsg15
I1
sg17
I01
sg18
g60
sbsg17
I00
sg18
g36
sbsg15
I3
sg17
I01
sg18
g25
sbsg20
(imyEvolve
Tree
p84
(dp85
g7
(imyEvolve
Tree
p86
(dp87
g15
I2
sg10
(imyEvolve
Tree
p88
(dp89
g15
I1
sg10
(imyEvolve
Tree
p90
(dp91
g15
I0
sg35
F3.647196266808365
sg16
I01
sbsg20
(imyEvolve
Tree
p92
(dp93
g15
I0
sg16
I00
sbsg17
I00
sg18
g36
sbsg20
(imyEvolve
Tree
p94
(dp95
g15
I1
sg10
(imyEvolve
Tree
p96
(dp97
g15
I0
sg16
I00
sbsg20
(imyEvolve
Tree
p98
(dp99
g15
I0
sg35
F-0.21752253580440772
sg16
I01
sbsg17
I00
sg18
g26
sbsg17
I00
sg18
g43
sbsg15
I3
sg17
I01
sg18
g79
sbsg17
I00
sg18
g43
sba(imyEvolve
Tree
p100
(dp101
g10
(imyEvolve
Tree
p102
(dp103
g7
(imyEvolve
Tree
p104
(dp105
g7
(imyEvolve
Tree
p106
(dp107
g15
I0
sg16
I00
sbsg15
I1
sg17
I01
sg18
g60
sbsg15
I2
sg17
I01
sg18
g19
sbsg15
I3
sg20
(imyEvolve
Tree
p108
(dp109
g10
(imyEvolve
Tree
p110
(dp111
g7
(imyEvolve
Tree
p112
(dp113
g15
I0
sg16
I00
sbsg15
I1
sg17
I01
sg18
g19
sbsg15
I2
sg20
(imyEvolve
Tree
p114
(dp115
g10
(imyEvolve
Tree
p116
(dp117
g15
I0
sg16
I00
sbsg15
I1
sg20
(imyEvolve
Tree
p118
(dp119
g15
I0
sg35
F-1.1608927083942042
sg16
I01
sbsg17
I00
sg18
g26
sbsg17
I00
sg18
g26
sbsg17
I00
sg18
g43
sba(imyEvolve
Tree
p120
(dp121
g7
(imyEvolve
Tree
p122
(dp123
g10
(imyEvolve
Tree
p124
(dp125
g10
(imyEvolve
Tree
p126
(dp127
g7
(imyEvolve
Tree
p128
(dp129
g7
(imyEvolve
Tree
p130
(dp131
g15
I0
sg35
F-0.21640550541881964
sg16
I01
sbsg15
I1
sg17
I01
sg18
g79
sbsg15
I2
sg17
I01
sg18
g19
sbsg15
I3
sg20
(imyEvolve
Tree
p132
(dp133
g7
(imyEvolve
Tree
p134
(dp135
g7
(imyEvolve
Tree
p136
(dp137
g15
I0
sg35
F4.189804943670252
sg16
I01
sbsg15
I1
sg17
I01
sg18
g19
sbsg15
I2
sg17
I01
sg18
g79
sbsg17
I00
sg18
g36
sbsg15
I4
sg20
(imyEvolve
Tree
p138
(dp139
g7
(imyEvolve
Tree
p140
(dp141
g10
(imyEvolve
Tree
p142
(dp143
g10
(imyEvolve
Tree
p144
(dp145
g15
I0
sg35
F-0.42110337692014443
sg16
I01
sbsg15
I1
sg20
(imyEvolve
Tree
p146
(dp147
g15
I0
sg16
I00
sbsg17
I00
sg18
g43
sbsg15
I2
sg20
(imyEvolve
Tree
p148
(dp149
g10
(imyEvolve
Tree
p150
(dp151
g15
I0
sg35
F2.174813463627099
sg16
I01
sbsg15
I1
sg20
(imyEvolve
Tree
p152
(dp153
g15
I0
sg16
I00
sbsg17
I00
sg18
g36
sbsg17
I00
sg18
g36
sbsg15
I3
sg17
I01
sg18
g60
sbsg17
I00
sg18
g43
sbsg15
I5
sg17
I01
sg18
g19
sba(imyEvolve
Tree
p154
(dp155
g7
(imyEvolve
Tree
p156
(dp157
g10
(imyEvolve
Tree
p158
(dp159
g10
(imyEvolve
Tree
p160
(dp161
g10
(imyEvolve
Tree
p162
(dp163
g15
I0
sg35
F-3.708706885759232
sg16
I01
sbsg15
I1
sg20
(imyEvolve
Tree
p164
(dp165
g15
I0
sg16
I00
sbsg17
I00
sg18
g36
sbsg15
I2
sg20
(imyEvolve
Tree
p166
(dp167
g10
(imyEvolve
Tree
p168
(dp169
g15
I0
sg16
I00
sbsg15
I1
sg20
(imyEvolve
Tree
p170
(dp171
g15
I0
sg16
I00
sbsg17
I00
sg18
g36
sbsg17
I00
sg18
g43
sbsg15
I3
sg20
(imyEvolve
Tree
p172
(dp173
g7
(imyEvolve
Tree
p174
(dp175
g7
(imyEvolve
Tree
p176
(dp177
g15
I0
sg35
F2.741288991206935
sg16
I01
sbsg15
I1
sg17
I01
sg18
g25
sbsg15
I2
sg17
I01
sg18
g79
sbsg17
I00
sg18
g43
sbsg15
I4
sg17
I01
sg18
g60
sba(imyEvolve
Tree
p178
(dp179
g7
(imyEvolve
Tree
p180
(dp181
g7
(imyEvolve
Tree
p182
(dp183
g7
(imyEvolve
Tree
p184
(dp185
g7
(imyEvolve
Tree
p186
(dp187
g15
I0
sg35
F0.22559424830412844
sg16
I01
sbsg15
I1
sg17
I01
sg18
g25
sbsg15
I2
sg17
I01
sg18
g60
sbsg15
I3
sg17
I01
sg18
g79
sbsg15
I4
sg17
I01
sg18
g60
sba(imyEvolve
Tree
p188
(dp189
g10
(imyEvolve
Tree
p190
(dp191
g7
(imyEvolve
Tree
p192
(dp193
g10
(imyEvolve
Tree
p194
(dp195
g10
(imyEvolve
Tree
p196
(dp197
g15
I0
sg35
F1.8350864855726314
sg16
I01
sbsg15
I1
sg20
(imyEvolve
Tree
p198
(dp199
g15
I0
sg35
F-3.0034564982267264
sg16
I01
sbsg17
I00
sg18
g36
sbsg15
I2
sg20
(imyEvolve
Tree
p200
(dp201
g10
(imyEvolve
Tree
p202
(dp203
g15
I0
sg35
F-0.46726028503963946
sg16
I01
sbsg15
I1
sg20
(imyEvolve
Tree
p204
(dp205
g15
I0
sg35
F-1.3072025904848958
sg16
I01
sbsg17
I00
sg18
g43
sbsg17
I00
sg18
g43
sbsg15
I3
sg17
I01
sg18
g19
sbsg15
I4
sg20
(imyEvolve
Tree
p206
(dp207
g10
(imyEvolve
Tree
p208
(dp209
g10
(imyEvolve
Tree
p210
(dp211
g7
(imyEvolve
Tree
p212
(dp213
g15
I0
sg35
F-3.047439035591247
sg16
I01
sbsg15
I1
sg17
I01
sg18
g25
sbsg15
I2
sg20
(imyEvolve
Tree
p214
(dp215
g7
(imyEvolve
Tree
p216
(dp217
g15
I0
sg35
F-4.147117588052968
sg16
I01
sbsg15
I1
sg17
I01
sg18
g79
sbsg17
I00
sg18
g36
sbsg15
I3
sg20
(imyEvolve
Tree
p218
(dp219
g10
(imyEvolve
Tree
p220
(dp221
g10
(imyEvolve
Tree
p222
(dp223
g15
I0
sg35
F-2.2769031731218723
sg16
I01
sbsg15
I1
sg20
(imyEvolve
Tree
p224
(dp225
g15
I0
sg16
I00
sbsg17
I00
sg18
g26
sbsg15
I2
sg20
(imyEvolve
Tree
p226
(dp227
g7
(imyEvolve
Tree
p228
(dp229
g15
I0
sg16
I00
sbsg15
I1
sg17
I01
sg18
g60
sbsg17
I00
sg18
g26
sbsg17
I00
sg18
g36
sbsg17
I00
sg18
g43
sba(imyEvolve
Tree
p230
(dp231
g7
(imyEvolve
Tree
p232
(dp233
g7
(imyEvolve
Tree
p234
(dp235
g7
(imyEvolve
Tree
p236
(dp237
g15
I0
sg16
I00
sbsg15
I1
sg17
I01
sg18
g25
sbsg15
I2
sg17
I01
sg18
g19
sbsg15
I3
sg17
I01
sg18
g19
sba(imyEvolve
Tree
p238
(dp239
g7
(imyEvolve
Tree
p240
(dp241
g7
(imyEvolve
Tree
p242
(dp243
g15
I2
sg10
(imyEvolve
Tree
p244
(dp245
g7
(imyEvolve
Tree
p246
(dp247
g15
I0
sg35
F-0.10547026581321184
sg16
I01
sbsg15
I1
sg17
I01
sg18
g25
sbsg20
(imyEvolve
Tree
p248
(dp249
g7
(imyEvolve
Tree
p250
(dp251
g15
I0
sg16
I00
sbsg15
I1
sg17
I01
sg18
g19
sbsg17
I00
sg18
g43
sbsg15
I3
sg17
I01
sg18
g19
sbsg15
I4
sg17
I01
sg18
g79
sba(imyEvolve
Tree
p252
(dp253
g7
(imyEvolve
Tree
p254
(dp255
g7
(imyEvolve
Tree
p256
(dp257
g7
(imyEvolve
Tree
p258
(dp259
g7
(imyEvolve
Tree
p260
(dp261
g15
I0
sg35
F-2.3807552443199063
sg16
I01
sbsg15
I1
sg17
I01
sg18
g19
sbsg15
I2
sg17
I01
sg18
g25
sbsg15
I3
sg17
I01
sg18
g79
sbsg15
I4
sg17
I01
sg18
g25
sba(imyEvolve
Tree
p262
(dp263
g7
(imyEvolve
Tree
p264
(dp265
g7
(imyEvolve
Tree
p266
(dp267
g15
I0
sg35
F-0.6539168139617226
sg16
I01
sbsg15
I1
sg17
I01
sg18
g19
sbsg15
I2
sg17
I01
sg18
g79
sbaa(lp268
(imyEvolve
Tree
p269
(dp270
g7
(imyEvolve
Tree
p271
(dp272
g15
I2
sg10
(imyEvolve
Tree
p273
(dp274
g15
I1
sg10
(imyEvolve
Tree
p275
(dp276
g15
I0
sg16
I00
sbsg20
(imyEvolve
Tree
p277
(dp278
g15
I0
sg16
I00
sbsg17
I00
sg18
g26
sbsg20
(imyEvolve
Tree
p279
(dp280
g15
I1
sg10
(imyEvolve
Tree
p281
(dp282
g15
I0
sg16
I00
sbsg20
(imyEvolve
Tree
p283
(dp284
g15
I0
sg35
F-0.17239836644579842
sg16
I01
sbsg17
I00
sg18
g36
sbsg17
I00
sg18
g43
sbsg15
I3
sg17
I01
sg18
g25
sba(imyEvolve
Tree
p285
(dp286
g7
(imyEvolve
Tree
p287
(dp288
g10
(imyEvolve
Tree
p289
(dp290
g7
(imyEvolve
Tree
p291
(dp292
g7
(imyEvolve
Tree
p293
(dp294
g10
(imyEvolve
Tree
p295
(dp296
g15
I0
sg35
F2.614108993147531
sg16
I01
sbsg15
I1
sg20
(imyEvolve
Tree
p297
(dp298
g15
I0
sg35
F-1.2425068391727434
sg16
I01
sbsg17
I00
sg18
g43
sbsg15
I2
sg17
I01
sg18
g19
sbsg15
I3
sg17
I01
sg18
g25
sbsg15
I4
sg20
(imyEvolve
Tree
p299
(dp300
g7
(imyEvolve
Tree
p301
(dp302
g7
(imyEvolve
Tree
p303
(dp304
g10
(imyEvolve
Tree
p305
(dp306
g15
I0
sg16
I00
sbsg15
I1
sg20
(imyEvolve
Tree
p307
(dp308
g15
I0
sg35
F-4.684047032647596
sg16
I01
sbsg17
I00
sg18
g26
sbsg15
I2
sg17
I01
sg18
g25
sbsg15
I3
sg17
I01
sg18
g19
sbsg17
I00
sg18
g26
sbsg15
I5
sg17
I01
sg18
g25
sba(imyEvolve
Tree
p309
(dp310
g10
(imyEvolve
Tree
p311
(dp312
g10
(imyEvolve
Tree
p313
(dp314
g10
(imyEvolve
Tree
p315
(dp316
g15
I0
sg16
I00
sbsg15
I1
sg20
(imyEvolve
Tree
p317
(dp318
g15
I0
sg35
F2.990293128824457
sg16
I01
sbsg17
I00
sg18
g43
sbsg15
I2
sg20
(imyEvolve
Tree
p319
(dp320
g10
(imyEvolve
Tree
p321
(dp322
g15
I0
sg16
I00
sbsg15
I1
sg20
(imyEvolve
Tree
p323
(dp324
g15
I0
sg35
F4.9090558008745635
sg16
I01
sbsg17
I00
sg18
g43
sbsg17
I00
sg18
g36
sbsg15
I3
sg20
(imyEvolve
Tree
p325
(dp326
g10
(imyEvolve
Tree
p327
(dp328
g7
(imyEvolve
Tree
p329
(dp330
g15
I0
sg35
F1.2555744269221014
sg16
I01
sbsg15
I1
sg17
I01
sg18
g25
sbsg15
I2
sg20
(imyEvolve
Tree
p331
(dp332
g7
(imyEvolve
Tree
p333
(dp334
g15
I0
sg16
I00
sbsg15
I1
sg17
I01
sg18
g25
sbsg17
I00
sg18
g43
sbsg17
I00
sg18
g36
sba(imyEvolve
Tree
p335
(dp336
g7
(imyEvolve
Tree
p337
(dp338
g7
(imyEvolve
Tree
p339
(dp340
g15
I0
sg16
I00
sbsg15
I1
sg17
I01
sg18
g19
sbsg15
I2
sg17
I01
sg18
g79
sba(imyEvolve
Tree
p341
(dp342
g7
(imyEvolve
Tree
p343
(dp344
g7
(imyEvolve
Tree
p345
(dp346
g7
(imyEvolve
Tree
p347
(dp348
g15
I0
sg16
I00
sbsg15
I1
sg17
I01
sg18
g79
sbsg15
I2
sg17
I01
sg18
g19
sbsg15
I3
sg17
I01
sg18
g19
sba(imyEvolve
Tree
p349
(dp350
g7
(imyEvolve
Tree
p351
(dp352
g7
(imyEvolve
Tree
p353
(dp354
g15
I0
sg16
I00
sbsg15
I1
sg17
I01
sg18
g25
sbsg15
I2
sg17
I01
sg18
g79
sba(imyEvolve
Tree
p355
(dp356
g7
(imyEvolve
Tree
p357
(dp358
g15
I4
sg10
(imyEvolve
Tree
p359
(dp360
g7
(imyEvolve
Tree
p361
(dp362
g15
I2
sg10
(imyEvolve
Tree
p363
(dp364
g15
I1
sg10
(imyEvolve
Tree
p365
(dp366
g15
I0
sg16
I00
sbsg20
(imyEvolve
Tree
p367
(dp368
g15
I0
sg16
I00
sbsg17
I00
sg18
g36
sbsg20
(imyEvolve
Tree
p369
(dp370
g7
(imyEvolve
Tree
p371
(dp372
g15
I0
sg35
F2.696213569491757
sg16
I01
sbsg15
I1
sg17
I01
sg18
g60
sbsg17
I00
sg18
g26
sbsg15
I3
sg17
I01
sg18
g19
sbsg20
(imyEvolve
Tree
p373
(dp374
g7
(imyEvolve
Tree
p375
(dp376
g15
I2
sg10
(imyEvolve
Tree
p377
(dp378
g15
I1
sg10
(imyEvolve
Tree
p379
(dp380
g15
I0
sg35
F-1.9137077415352879
sg16
I01
sbsg20
(imyEvolve
Tree
p381
(dp382
g15
I0
sg35
F2.565311395368073
sg16
I01
sbsg17
I00
sg18
g26
sbsg20
(imyEvolve
Tree
p383
(dp384
g7
(imyEvolve
Tree
p385
(dp386
g15
I0
sg16
I00
sbsg15
I1
sg17
I01
sg18
g19
sbsg17
I00
sg18
g26
sbsg15
I3
sg17
I01
sg18
g19
sbsg17
I00
sg18
g36
sbsg15
I5
sg17
I01
sg18
g19
sba(imyEvolve
Tree
p387
(dp388
g10
(imyEvolve
Tree
p389
(dp390
g10
(imyEvolve
Tree
p391
(dp392
g10
(imyEvolve
Tree
p393
(dp394
g7
(imyEvolve
Tree
p395
(dp396
g7
(imyEvolve
Tree
p397
(dp398
g15
I0
sg16
I00
sbsg15
I1
sg17
I01
sg18
g25
sbsg15
I2
sg17
I01
sg18
g79
sbsg15
I3
sg20
(imyEvolve
Tree
p399
(dp400
g7
(imyEvolve
Tree
p401
(dp402
g10
(imyEvolve
Tree
p403
(dp404
g15
I0
sg35
F-1.240229286136889
sg16
I01
sbsg15
I1
sg20
(imyEvolve
Tree
p405
(dp406
g15
I0
sg35
F-1.6876441099316963
sg16
I01
sbsg17
I00
sg18
g36
sbsg15
I2
sg17
I01
sg18
g19
sbsg17
I00
sg18
g36
sbsg15
I4
sg20
(imyEvolve
Tree
p407
(dp408
g7
(imyEvolve
Tree
p409
(dp410
g7
(imyEvolve
Tree
p411
(dp412
g10
(imyEvolve
Tree
p413
(dp414
g15
I0
sg35
F2.3178851560157074
sg16
I01
sbsg15
I1
sg20
(imyEvolve
Tree
p415
(dp416
g15
I0
sg35
F3.3761057168468263
sg16
I01
sbsg17
I00
sg18
g26
sbsg15
I2
sg17
I01
sg18
g19
sbsg15
I3
sg17
I01
sg18
g19
sbsg17
I00
sg18
g26
sbsg15
I5
sg20
(imyEvolve
Tree
p417
(dp418
g10
(imyEvolve
Tree
p419
(dp420
g7
(imyEvolve
Tree
p421
(dp422
g7
(imyEvolve
Tree
p423
(dp424
g7
(imyEvolve
Tree
p425
(dp426
g15
I0
sg35
F0.31604404884666515
sg16
I01
sbsg15
I1
sg17
I01
sg18
g79
sbsg15
I2
sg17
I01
sg18
g25
sbsg15
I3
sg17
I01
sg18
g19
sbsg15
I4
sg20
(imyEvolve
Tree
p427
(dp428
g7
(imyEvolve
Tree
p429
(dp430
g7
(imyEvolve
Tree
p431
(dp432
g10
(imyEvolve
Tree
p433
(dp434
g15
I0
sg16
I00
sbsg15
I1
sg20
(imyEvolve
Tree
p435
(dp436
g15
I0
sg16
I00
sbsg17
I00
sg18
g26
sbsg15
I2
sg17
I01
sg18
g19
sbsg15
I3
sg17
I01
sg18
g79
sbsg17
I00
sg18
g26
sbsg17
I00
sg18
g43
sba(imyEvolve
Tree
p437
(dp438
g10
(imyEvolve
Tree
p439
(dp440
g7
(imyEvolve
Tree
p441
(dp442
g15
I0
sg35
F0.5955304716844445
sg16
I01
sbsg15
I1
sg17
I01
sg18
g79
sbsg15
I2
sg20
(imyEvolve
Tree
p443
(dp444
g7
(imyEvolve
Tree
p445
(dp446
g15
I0
sg35
F3.624182451095665
sg16
I01
sbsg15
I1
sg17
I01
sg18
g79
sbsg17
I00
sg18
g26
sba(imyEvolve
Tree
p447
(dp448
g7
(imyEvolve
Tree
p449
(dp450
g10
(imyEvolve
Tree
p451
(dp452
g10
(imyEvolve
Tree
p453
(dp454
g10
(imyEvolve
Tree
p455
(dp456
g7
(imyEvolve
Tree
p457
(dp458
g15
I0
sg35
F3.697586480831692
sg16
I01
sbsg15
I1
sg17
I01
sg18
g19
sbsg15
I2
sg20
(imyEvolve
Tree
p459
(dp460
g10
(imyEvolve
Tree
p461
(dp462
g15
I0
sg35
F0.5143511989658132
sg16
I01
sbsg15
I1
sg20
(imyEvolve
Tree
p463
(dp464
g15
I0
sg16
I00
sbsg17
I00
sg18
g26
sbsg17
I00
sg18
g43
sbsg15
I3
sg20
(imyEvolve
Tree
p465
(dp466
g10
(imyEvolve
Tree
p467
(dp468
g10
(imyEvolve
Tree
p469
(dp470
g15
I0
sg16
I00
sbsg15
I1
sg20
(imyEvolve
Tree
p471
(dp472
g15
I0
sg35
F0.9996839117788863
sg16
I01
sbsg17
I00
sg18
g36
sbsg15
I2
sg20
(imyEvolve
Tree
p473
(dp474
g7
(imyEvolve
Tree
p475
(dp476
g15
I0
sg16
I00
sbsg15
I1
sg17
I01
sg18
g60
sbsg17
I00
sg18
g26
sbsg17
I00
sg18
g36
sbsg15
I4
sg20
(imyEvolve
Tree
p477
(dp478
g7
(imyEvolve
Tree
p479
(dp480
g10
(imyEvolve
Tree
p481
(dp482
g7
(imyEvolve
Tree
p483
(dp484
g15
I0
sg35
F0.07527355194029184
sg16
I01
sbsg15
I1
sg17
I01
sg18
g25
sbsg15
I2
sg20
(imyEvolve
Tree
p485
(dp486
g7
(imyEvolve
Tree
p487
(dp488
g15
I0
sg16
I00
sbsg15
I1
sg17
I01
sg18
g60
sbsg17
I00
sg18
g36
sbsg15
I3
sg17
I01
sg18
g19
sbsg17
I00
sg18
g26
sbsg15
I5
sg17
I01
sg18
g19
sba(imyEvolve
Tree
p489
(dp490
g10
(imyEvolve
Tree
p491
(dp492
g10
(imyEvolve
Tree
p493
(dp494
g7
(imyEvolve
Tree
p495
(dp496
g15
I0
sg16
I00
sbsg15
I1
sg17
I01
sg18
g79
sbsg15
I2
sg20
(imyEvolve
Tree
p497
(dp498
g10
(imyEvolve
Tree
p499
(dp500
g15
I0
sg35
F3.4420438171397425
sg16
I01
sbsg15
I1
sg20
(imyEvolve
Tree
p501
(dp502
g15
I0
sg16
I00
sbsg17
I00
sg18
g26
sbsg17
I00
sg18
g43
sbsg15
I3
sg20
(imyEvolve
Tree
p503
(dp504
g10
(imyEvolve
Tree
p505
(dp506
g10
(imyEvolve
Tree
p507
(dp508
g15
I0
sg16
I00
sbsg15
I1
sg20
(imyEvolve
Tree
p509
(dp510
g15
I0
sg16
I00
sbsg17
I00
sg18
g26
sbsg15
I2
sg20
(imyEvolve
Tree
p511
(dp512
g7
(imyEvolve
Tree
p513
(dp514
g15
I0
sg35
F-3.405643021607742
sg16
I01
sbsg15
I1
sg17
I01
sg18
g79
sbsg17
I00
sg18
g36
sbsg17
I00
sg18
g36
sba(imyEvolve
Tree
p515
(dp516
g7
(imyEvolve
Tree
p517
(dp518
g7
(imyEvolve
Tree
p519
(dp520
g7
(imyEvolve
Tree
p521
(dp522
g10
(imyEvolve
Tree
p523
(dp524
g7
(imyEvolve
Tree
p525
(dp526
g15
I0
sg35
F1.562701981123233
sg16
I01
sbsg15
I1
sg17
I01
sg18
g79
sbsg15
I2
sg20
(imyEvolve
Tree
p527
(dp528
g7
(imyEvolve
Tree
p529
(dp530
g15
I0
sg35
F-4.431106215619116
sg16
I01
sbsg15
I1
sg17
I01
sg18
g79
sbsg17
I00
sg18
g43
sbsg15
I3
sg17
I01
sg18
g25
sbsg15
I4
sg17
I01
sg18
g25
sbsg15
I5
sg17
I01
sg18
g19
sba(imyEvolve
Tree
p531
(dp532
g7
(imyEvolve
Tree
p533
(dp534
g15
I2
sg10
(imyEvolve
Tree
p535
(dp536
g7
(imyEvolve
Tree
p537
(dp538
g15
I0
sg16
I00
sbsg15
I1
sg17
I01
sg18
g79
sbsg20
(imyEvolve
Tree
p539
(dp540
g15
I1
sg10
(imyEvolve
Tree
p541
(dp542
g15
I0
sg16
I00
sbsg20
(imyEvolve
Tree
p543
(dp544
g15
I0
sg16
I00
sbsg17
I00
sg18
g36
sbsg17
I00
sg18
g43
sbsg15
I3
sg17
I01
sg18
g79
sba(imyEvolve
Tree
p545
(dp546
g7
(imyEvolve
Tree
p547
(dp548
g7
(imyEvolve
Tree
p549
(dp550
g7
(imyEvolve
Tree
p551
(dp552
g10
(imyEvolve
Tree
p553
(dp554
g7
(imyEvolve
Tree
p555
(dp556
g15
I0
sg35
F-0.9498957414187341
sg16
I01
sbsg15
I1
sg17
I01
sg18
g79
sbsg15
I2
sg20
(imyEvolve
Tree
p557
(dp558
g7
(imyEvolve
Tree
p559
(dp560
g15
I0
sg35
F-2.071042229581983
sg16
I01
sbsg15
I1
sg17
I01
sg18
g25
sbsg17
I00
sg18
g43
sbsg15
I3
sg17
I01
sg18
g79
sbsg15
I4
sg17
I01
sg18
g19
sbsg15
I5
sg17
I01
sg18
g60
sba(imyEvolve
Tree
p561
(dp562
g7
(imyEvolve
Tree
p563
(dp564
g15
I1
sg10
(imyEvolve
Tree
p565
(dp566
g15
I0
sg35
F-4.709740447023116
sg16
I01
sbsg20
(imyEvolve
Tree
p567
(dp568
g15
I0
sg35
F-3.8265057632755504
sg16
I01
sbsg17
I00
sg18
g26
sbsg15
I2
sg17
I01
sg18
g60
sba(imyEvolve
Tree
p569
(dp570
g7
(imyEvolve
Tree
p571
(dp572
g10
(imyEvolve
Tree
p573
(dp574
g10
(imyEvolve
Tree
p575
(dp576
g10
(imyEvolve
Tree
p577
(dp578
g15
I0
sg16
I00
sbsg15
I1
sg20
(imyEvolve
Tree
p579
(dp580
g15
I0
sg35
F-3.1728552362278517
sg16
I01
sbsg17
I00
sg18
g36
sbsg15
I2
sg20
(imyEvolve
Tree
p581
(dp582
g10
(imyEvolve
Tree
p583
(dp584
g15
I0
sg16
I00
sbsg15
I1
sg20
(imyEvolve
Tree
p585
(dp586
g15
I0
sg35
F1.8388820017201146
sg16
I01
sbsg17
I00
sg18
g43
sbsg17
I00
sg18
g36
sbsg15
I3
sg20
(imyEvolve
Tree
p587
(dp588
g7
(imyEvolve
Tree
p589
(dp590
g10
(imyEvolve
Tree
p591
(dp592
g15
I0
sg16
I00
sbsg15
I1
sg20
(imyEvolve
Tree
p593
(dp594
g15
I0
sg35
F0.5987293816904158
sg16
I01
sbsg17
I00
sg18
g43
sbsg15
I2
sg17
I01
sg18
g25
sbsg17
I00
sg18
g43
sbsg15
I4
sg17
I01
sg18
g25
sba(imyEvolve
Tree
p595
(dp596
g7
(imyEvolve
Tree
p597
(dp598
g7
(imyEvolve
Tree
p599
(dp600
g10
(imyEvolve
Tree
p601
(dp602
g10
(imyEvolve
Tree
p603
(dp604
g7
(imyEvolve
Tree
p605
(dp606
g15
I0
sg16
I00
sbsg15
I1
sg17
I01
sg18
g60
sbsg15
I2
sg20
(imyEvolve
Tree
p607
(dp608
g10
(imyEvolve
Tree
p609
(dp610
g15
I0
sg35
F2.3817589044586738
sg16
I01
sbsg15
I1
sg20
(imyEvolve
Tree
p611
(dp612
g15
I0
sg16
I00
sbsg17
I00
sg18
g36
sbsg17
I00
sg18
g26
sbsg15
I3
sg20
(imyEvolve
Tree
p613
(dp614
g7
(imyEvolve
Tree
p615
(dp616
g10
(imyEvolve
Tree
p617
(dp618
g15
I0
sg16
I00
sbsg15
I1
sg20
(imyEvolve
Tree
p619
(dp620
g15
I0
sg35
F3.6685387771237696
sg16
I01
sbsg17
I00
sg18
g26
sbsg15
I2
sg17
I01
sg18
g25
sbsg17
I00
sg18
g36
sbsg15
I4
sg17
I01
sg18
g79
sbsg15
I5
sg17
I01
sg18
g25
sbaa(lp621
(imyEvolve
Tree
p622
(dp623
g7
(imyEvolve
Tree
p624
(dp625
g15
I1
sg10
(imyEvolve
Tree
p626
(dp627
g15
I0
sg35
F1.6285544884847525
sg16
I01
sbsg20
(imyEvolve
Tree
p628
(dp629
g15
I0
sg16
I00
sbsg17
I00
sg18
g43
sbsg15
I2
sg17
I01
sg18
g25
sba(imyEvolve
Tree
p630
(dp631
g7
(imyEvolve
Tree
p632
(dp633
g10
(imyEvolve
Tree
p634
(dp635
g15
I0
sg16
I00
sbsg15
I1
sg20
(imyEvolve
Tree
p636
(dp637
g15
I0
sg35
F-2.831558952170503
sg16
I01
sbsg17
I00
sg18
g43
sbsg15
I2
sg17
I01
sg18
g19
sba(imyEvolve
Tree
p638
(dp639
g10
(imyEvolve
Tree
p640
(dp641
g7
(imyEvolve
Tree
p642
(dp643
g15
I0
sg35
F-1.0895144454311403
sg16
I01
sbsg15
I1
sg17
I01
sg18
g25
sbsg15
I2
sg20
(imyEvolve
Tree
p644
(dp645
g7
(imyEvolve
Tree
p646
(dp647
g15
I0
sg16
I00
sbsg15
I1
sg17
I01
sg18
g79
sbsg17
I00
sg18
g43
sba(imyEvolve
Tree
p648
(dp649
g15
I5
sg10
(imyEvolve
Tree
p650
(dp651
g7
(imyEvolve
Tree
p652
(dp653
g15
I3
sg10
(imyEvolve
Tree
p654
(dp655
g7
(imyEvolve
Tree
p656
(dp657
g15
I1
sg10
(imyEvolve
Tree
p658
(dp659
g15
I0
sg16
I00
sbsg20
(imyEvolve
Tree
p660
(dp661
g15
I0
sg16
I00
sbsg17
I00
sg18
g26
sbsg15
I2
sg17
I01
sg18
g60
sbsg20
(imyEvolve
Tree
p662
(dp663
g15
I2
sg10
(imyEvolve
Tree
p664
(dp665
g7
(imyEvolve
Tree
p666
(dp667
g15
I0
sg35
F2.2436604479879785
sg16
I01
sbsg15
I1
sg17
I01
sg18
g60
sbsg20
(imyEvolve
Tree
p668
(dp669
g7
(imyEvolve
Tree
p670
(dp671
g15
I0
sg16
I00
sbsg15
I1
sg17
I01
sg18
g60
sbsg17
I00
sg18
g43
sbsg17
I00
sg18
g36
sbsg15
I4
sg17
I01
sg18
g60
sbsg20
(imyEvolve
Tree
p672
(dp673
g15
I4
sg10
(imyEvolve
Tree
p674
(dp675
g7
(imyEvolve
Tree
p676
(dp677
g7
(imyEvolve
Tree
p678
(dp679
g15
I1
sg10
(imyEvolve
Tree
p680
(dp681
g15
I0
sg35
F-2.9978453574590356
sg16
I01
sbsg20
(imyEvolve
Tree
p682
(dp683
g15
I0
sg16
I00
sbsg17
I00
sg18
g43
sbsg15
I2
sg17
I01
sg18
g60
sbsg15
I3
sg17
I01
sg18
g79
sbsg20
(imyEvolve
Tree
p684
(dp685
g7
(imyEvolve
Tree
p686
(dp687
g7
(imyEvolve
Tree
p688
(dp689
g15
I1
sg10
(imyEvolve
Tree
p690
(dp691
g15
I0
sg16
I00
sbsg20
(imyEvolve
Tree
p692
(dp693
g15
I0
sg16
I00
sbsg17
I00
sg18
g26
sbsg15
I2
sg17
I01
sg18
g19
sbsg15
I3
sg17
I01
sg18
g19
sbsg17
I00
sg18
g43
sbsg17
I00
sg18
g36
sba(imyEvolve
Tree
p694
(dp695
g7
(imyEvolve
Tree
p696
(dp697
g7
(imyEvolve
Tree
p698
(dp699
g10
(imyEvolve
Tree
p700
(dp701
g10
(imyEvolve
Tree
p702
(dp703
g7
(imyEvolve
Tree
p704
(dp705
g15
I0
sg35
F2.5926218817362425
sg16
I01
sbsg15
I1
sg17
I01
sg18
g60
sbsg15
I2
sg20
(imyEvolve
Tree
p706
(dp707
g7
(imyEvolve
Tree
p708
(dp709
g15
I0
sg35
F-0.45959643209134704
sg16
I01
sbsg15
I1
sg17
I01
sg18
g60
sbsg17
I00
sg18
g43
sbsg15
I3
sg20
(imyEvolve
Tree
p710
(dp711
g10
(imyEvolve
Tree
p712
(dp713
g10
(imyEvolve
Tree
p714
(dp715
g15
I0
sg35
F-4.361364717395535
sg16
I01
sbsg15
I1
sg20
(imyEvolve
Tree
p716
(dp717
g15
I0
sg35
F1.7752490353528056
sg16
I01
sbsg17
I00
sg18
g43
sbsg15
I2
sg20
(imyEvolve
Tree
p718
(dp719
g10
(imyEvolve
Tree
p720
(dp721
g15
I0
sg35
F0.43599663260302624
sg16
I01
sbsg15
I1
sg20
(imyEvolve
Tree
p722
(dp723
g15
I0
sg35
F0.44715213863757786
sg16
I01
sbsg17
I00
sg18
g26
sbsg17
I00
sg18
g26
sbsg17
I00
sg18
g26
sbsg15
I4
sg17
I01
sg18
g19
sbsg15
I5
sg17
I01
sg18
g25
sba(imyEvolve
Tree
p724
(dp725
g10
(imyEvolve
Tree
p726
(dp727
g7
(imyEvolve
Tree
p728
(dp729
g7
(imyEvolve
Tree
p730
(dp731
g10
(imyEvolve
Tree
p732
(dp733
g7
(imyEvolve
Tree
p734
(dp735
g15
I0
sg35
F-4.083010619636087
sg16
I01
sbsg15
I1
sg17
I01
sg18
g60
sbsg15
I2
sg20
(imyEvolve
Tree
p736
(dp737
g10
(imyEvolve
Tree
p738
(dp739
g15
I0
sg35
F-0.09718018710264076
sg16
I01
sbsg15
I1
sg20
(imyEvolve
Tree
p740
(dp741
g15
I0
sg35
F-0.2621862515918938
sg16
I01
sbsg17
I00
sg18
g43
sbsg17
I00
sg18
g26
sbsg15
I3
sg17
I01
sg18
g79
sbsg15
I4
sg17
I01
sg18
g25
sbsg15
I5
sg20
(imyEvolve
Tree
p742
(dp743
g10
(imyEvolve
Tree
p744
(dp745
g10
(imyEvolve
Tree
p746
(dp747
g7
(imyEvolve
Tree
p748
(dp749
g10
(imyEvolve
Tree
p750
(dp751
g15
I0
sg16
I00
sbsg15
I1
sg20
(imyEvolve
Tree
p752
(dp753
g15
I0
sg16
I00
sbsg17
I00
sg18
g26
sbsg15
I2
sg17
I01
sg18
g25
sbsg15
I3
sg20
(imyEvolve
Tree
p754
(dp755
g10
(imyEvolve
Tree
p756
(dp757
g7
(imyEvolve
Tree
p758
(dp759
g15
I0
sg16
I00
sbsg15
I1
sg17
I01
sg18
g60
sbsg15
I2
sg20
(imyEvolve
Tree
p760
(dp761
g7
(imyEvolve
Tree
p762
(dp763
g15
I0
sg35
F1.2627839341203595
sg16
I01
sbsg15
I1
sg17
I01
sg18
g25
sbsg17
I00
sg18
g36
sbsg17
I00
sg18
g26
sbsg15
I4
sg20
(imyEvolve
Tree
p764
(dp765
g7
(imyEvolve
Tree
p766
(dp767
g10
(imyEvolve
Tree
p768
(dp769
g10
(imyEvolve
Tree
p770
(dp771
g15
I0
sg16
I00
sbsg15
I1
sg20
(imyEvolve
Tree
p772
(dp773
g15
I0
sg35
F2.936507695421838
sg16
I01
sbsg17
I00
sg18
g26
sbsg15
I2
sg20
(imyEvolve
Tree
p774
(dp775
g10
(imyEvolve
Tree
p776
(dp777
g15
I0
sg16
I00
sbsg15
I1
sg20
(imyEvolve
Tree
p778
(dp779
g15
I0
sg16
I00
sbsg17
I00
sg18
g26
sbsg17
I00
sg18
g26
sbsg15
I3
sg17
I01
sg18
g79
sbsg17
I00
sg18
g43
sbsg17
I00
sg18
g26
sba(imyEvolve
Tree
p780
(dp781
g7
(imyEvolve
Tree
p782
(dp783
g15
I4
sg10
(imyEvolve
Tree
p784
(dp785
g7
(imyEvolve
Tree
p786
(dp787
g15
I2
sg10
(imyEvolve
Tree
p788
(dp789
g7
(imyEvolve
Tree
p790
(dp791
g15
I0
sg35
F1.0424403476544866
sg16
I01
sbsg15
I1
sg17
I01
sg18
g79
sbsg20
(imyEvolve
Tree
p792
(dp793
g15
I1
sg10
(imyEvolve
Tree
p794
(dp795
g15
I0
sg35
F1.7891766701891605
sg16
I01
sbsg20
(imyEvolve
Tree
p796
(dp797
g15
I0
sg35
F-2.45740201213529
sg16
I01
sbsg17
I00
sg18
g43
sbsg17
I00
sg18
g26
sbsg15
I3
sg17
I01
sg18
g79
sbsg20
(imyEvolve
Tree
p798
(dp799
g7
(imyEvolve
Tree
p800
(dp801
g7
(imyEvolve
Tree
p802
(dp803
g15
I1
sg10
(imyEvolve
Tree
p804
(dp805
g15
I0
sg16
I00
sbsg20
(imyEvolve
Tree
p806
(dp807
g15
I0
sg35
F-1.6124112710592131
sg16
I01
sbsg17
I00
sg18
g36
sbsg15
I2
sg17
I01
sg18
g79
sbsg15
I3
sg17
I01
sg18
g79
sbsg17
I00
sg18
g36
sbsg15
I5
sg17
I01
sg18
g60
sba(imyEvolve
Tree
p808
(dp809
g15
I4
sg10
(imyEvolve
Tree
p810
(dp811
g15
I3
sg10
(imyEvolve
Tree
p812
(dp813
g15
I2
sg10
(imyEvolve
Tree
p814
(dp815
g15
I1
sg10
(imyEvolve
Tree
p816
(dp817
g15
I0
sg35
F-4.6864068944446124
sg16
I01
sbsg20
(imyEvolve
Tree
p818
(dp819
g15
I0
sg16
I00
sbsg17
I00
sg18
g36
sbsg20
(imyEvolve
Tree
p820
(dp821
g15
I1
sg10
(imyEvolve
Tree
p822
(dp823
g15
I0
sg35
F-3.4797637193041364
sg16
I01
sbsg20
(imyEvolve
Tree
p824
(dp825
g15
I0
sg16
I00
sbsg17
I00
sg18
g43
sbsg17
I00
sg18
g26
sbsg20
(imyEvolve
Tree
p826
(dp827
g7
(imyEvolve
Tree
p828
(dp829
g7
(imyEvolve
Tree
p830
(dp831
g15
I0
sg16
I00
sbsg15
I1
sg17
I01
sg18
g79
sbsg15
I2
sg17
I01
sg18
g19
sbsg17
I00
sg18
g26
sbsg20
(imyEvolve
Tree
p832
(dp833
g7
(imyEvolve
Tree
p834
(dp835
g7
(imyEvolve
Tree
p836
(dp837
g15
I1
sg10
(imyEvolve
Tree
p838
(dp839
g15
I0
sg35
F2.440715396845956
sg16
I01
sbsg20
(imyEvolve
Tree
p840
(dp841
g15
I0
sg35
F-2.6393587341670677
sg16
I01
sbsg17
I00
sg18
g43
sbsg15
I2
sg17
I01
sg18
g19
sbsg15
I3
sg17
I01
sg18
g19
sbsg17
I00
sg18
g43
sba(imyEvolve
Tree
p842
(dp843
g10
(imyEvolve
Tree
p844
(dp845
g10
(imyEvolve
Tree
p846
(dp847
g15
I0
sg16
I00
sbsg15
I1
sg20
(imyEvolve
Tree
p848
(dp849
g15
I0
sg16
I00
sbsg17
I00
sg18
g26
sbsg15
I2
sg20
(imyEvolve
Tree
p850
(dp851
g7
(imyEvolve
Tree
p852
(dp853
g15
I0
sg35
F2.573320952615356
sg16
I01
sbsg15
I1
sg17
I01
sg18
g19
sbsg17
I00
sg18
g26
sba(imyEvolve
Tree
p854
(dp855
g10
(imyEvolve
Tree
p856
(dp857
g10
(imyEvolve
Tree
p858
(dp859
g15
I0
sg35
F0.9518227170328242
sg16
I01
sbsg15
I1
sg20
(imyEvolve
Tree
p860
(dp861
g15
I0
sg35
F4.584046267804091
sg16
I01
sbsg17
I00
sg18
g36
sbsg15
I2
sg20
(imyEvolve
Tree
p862
(dp863
g7
(imyEvolve
Tree
p864
(dp865
g15
I0
sg35
F-1.3794602726212024
sg16
I01
sbsg15
I1
sg17
I01
sg18
g25
sbsg17
I00
sg18
g36
sba(imyEvolve
Tree
p866
(dp867
g15
I2
sg10
(imyEvolve
Tree
p868
(dp869
g15
I1
sg10
(imyEvolve
Tree
p870
(dp871
g15
I0
sg16
I00
sbsg20
(imyEvolve
Tree
p872
(dp873
g15
I0
sg16
I00
sbsg17
I00
sg18
g26
sbsg20
(imyEvolve
Tree
p874
(dp875
g15
I1
sg10
(imyEvolve
Tree
p876
(dp877
g15
I0
sg35
F-0.5016355485232848
sg16
I01
sbsg20
(imyEvolve
Tree
p878
(dp879
g15
I0
sg35
F-1.099264879375541
sg16
I01
sbsg17
I00
sg18
g26
sbsg17
I00
sg18
g36
sba(imyEvolve
Tree
p880
(dp881
g10
(imyEvolve
Tree
p882
(dp883
g7
(imyEvolve
Tree
p884
(dp885
g10
(imyEvolve
Tree
p886
(dp887
g7
(imyEvolve
Tree
p888
(dp889
g7
(imyEvolve
Tree
p890
(dp891
g15
I0
sg16
I00
sbsg15
I1
sg17
I01
sg18
g79
sbsg15
I2
sg17
I01
sg18
g25
sbsg15
I3
sg20
(imyEvolve
Tree
p892
(dp893
g7
(imyEvolve
Tree
p894
(dp895
g7
(imyEvolve
Tree
p896
(dp897
g15
I0
sg16
I00
sbsg15
I1
sg17
I01
sg18
g60
sbsg15
I2
sg17
I01
sg18
g19
sbsg17
I00
sg18
g43
sbsg15
I4
sg17
I01
sg18
g79
sbsg15
I5
sg20
(imyEvolve
Tree
p898
(dp899
g10
(imyEvolve
Tree
p900
(dp901
g7
(imyEvolve
Tree
p902
(dp903
g7
(imyEvolve
Tree
p904
(dp905
g7
(imyEvolve
Tree
p906
(dp907
g15
I0
sg35
F3.2600198604411155
sg16
I01
sbsg15
I1
sg17
I01
sg18
g60
sbsg15
I2
sg17
I01
sg18
g25
sbsg15
I3
sg17
I01
sg18
g25
sbsg15
I4
sg20
(imyEvolve
Tree
p908
(dp909
g10
(imyEvolve
Tree
p910
(dp911
g7
(imyEvolve
Tree
p912
(dp913
g10
(imyEvolve
Tree
p914
(dp915
g15
I0
sg16
I00
sbsg15
I1
sg20
(imyEvolve
Tree
p916
(dp917
g15
I0
sg16
I00
sbsg17
I00
sg18
g43
sbsg15
I2
sg17
I01
sg18
g79
sbsg15
I3
sg20
(imyEvolve
Tree
p918
(dp919
g10
(imyEvolve
Tree
p920
(dp921
g7
(imyEvolve
Tree
p922
(dp923
g15
I0
sg35
F-4.612824562255577
sg16
I01
sbsg15
I1
sg17
I01
sg18
g79
sbsg15
I2
sg20
(imyEvolve
Tree
p924
(dp925
g10
(imyEvolve
Tree
p926
(dp927
g15
I0
sg35
F0.1635481450091527
sg16
I01
sbsg15
I1
sg20
(imyEvolve
Tree
p928
(dp929
g15
I0
sg16
I00
sbsg17
I00
sg18
g36
sbsg17
I00
sg18
g26
sbsg17
I00
sg18
g26
sbsg17
I00
sg18
g43
sbsg17
I00
sg18
g36
sba(imyEvolve
Tree
p930
(dp931
g15
I4
sg10
(imyEvolve
Tree
p932
(dp933
g15
I3
sg10
(imyEvolve
Tree
p934
(dp935
g7
(imyEvolve
Tree
p936
(dp937
g7
(imyEvolve
Tree
p938
(dp939
g15
I0
sg16
I00
sbsg15
I1
sg17
I01
sg18
g25
sbsg15
I2
sg17
I01
sg18
g79
sbsg20
(imyEvolve
Tree
p940
(dp941
g7
(imyEvolve
Tree
p942
(dp943
g15
I1
sg10
(imyEvolve
Tree
p944
(dp945
g15
I0
sg35
F1.131482318871079
sg16
I01
sbsg20
(imyEvolve
Tree
p946
(dp947
g15
I0
sg35
F-3.5127656944705556
sg16
I01
sbsg17
I00
sg18
g36
sbsg15
I2
sg17
I01
sg18
g19
sbsg17
I00
sg18
g43
sbsg20
(imyEvolve
Tree
p948
(dp949
g7
(imyEvolve
Tree
p950
(dp951
g15
I2
sg10
(imyEvolve
Tree
p952
(dp953
g7
(imyEvolve
Tree
p954
(dp955
g15
I0
sg16
I00
sbsg15
I1
sg17
I01
sg18
g60
sbsg20
(imyEvolve
Tree
p956
(dp957
g7
(imyEvolve
Tree
p958
(dp959
g15
I0
sg35
F3.2243300678165063
sg16
I01
sbsg15
I1
sg17
I01
sg18
g79
sbsg17
I00
sg18
g43
sbsg15
I3
sg17
I01
sg18
g19
sbsg17
I00
sg18
g43
sba(imyEvolve
Tree
p960
(dp961
g10
(imyEvolve
Tree
p962
(dp963
g10
(imyEvolve
Tree
p964
(dp965
g15
I0
sg35
F-2.9536163258247026
sg16
I01
sbsg15
I1
sg20
(imyEvolve
Tree
p966
(dp967
g15
I0
sg35
F-1.6670561860067523
sg16
I01
sbsg17
I00
sg18
g43
sbsg15
I2
sg20
(imyEvolve
Tree
p968
(dp969
g7
(imyEvolve
Tree
p970
(dp971
g15
I0
sg16
I00
sbsg15
I1
sg17
I01
sg18
g19
sbsg17
I00
sg18
g26
sba(imyEvolve
Tree
p972
(dp973
g10
(imyEvolve
Tree
p974
(dp975
g7
(imyEvolve
Tree
p976
(dp977
g10
(imyEvolve
Tree
p978
(dp979
g15
I0
sg16
I00
sbsg15
I1
sg20
(imyEvolve
Tree
p980
(dp981
g15
I0
sg35
F-0.02834982059538227
sg16
I01
sbsg17
I00
sg18
g26
sbsg15
I2
sg17
I01
sg18
g79
sbsg15
I3
sg20
(imyEvolve
Tree
p982
(dp983
g10
(imyEvolve
Tree
p984
(dp985
g7
(imyEvolve
Tree
p986
(dp987
g15
I0
sg16
I00
sbsg15
I1
sg17
I01
sg18
g25
sbsg15
I2
sg20
(imyEvolve
Tree
p988
(dp989
g10
(imyEvolve
Tree
p990
(dp991
g15
I0
sg16
I00
sbsg15
I1
sg20
(imyEvolve
Tree
p992
(dp993
g15
I0
sg35
F2.3351014017462726
sg16
I01
sbsg17
I00
sg18
g26
sbsg17
I00
sg18
g26
sbsg17
I00
sg18
g26
sba(imyEvolve
Tree
p994
(dp995
g10
(imyEvolve
Tree
p996
(dp997
g10
(imyEvolve
Tree
p998
(dp999
g7
(imyEvolve
Tree
p1000
(dp1001
g15
I0
sg35
F-3.450725471731453
sg16
I01
sbsg15
I1
sg17
I01
sg18
g25
sbsg15
I2
sg20
(imyEvolve
Tree
p1002
(dp1003
g7
(imyEvolve
Tree
p1004
(dp1005
g15
I0
sg16
I00
sbsg15
I1
sg17
I01
sg18
g19
sbsg17
I00
sg18
g36
sbsg15
I3
sg20
(imyEvolve
Tree
p1006
(dp1007
g10
(imyEvolve
Tree
p1008
(dp1009
g10
(imyEvolve
Tree
p1010
(dp1011
g15
I0
sg35
F1.7418202671002163
sg16
I01
sbsg15
I1
sg20
(imyEvolve
Tree
p1012
(dp1013
g15
I0
sg16
I00
sbsg17
I00
sg18
g43
sbsg15
I2
sg20
(imyEvolve
Tree
p1014
(dp1015
g7
(imyEvolve
Tree
p1016
(dp1017
g15
I0
sg16
I00
sbsg15
I1
sg17
I01
sg18
g79
sbsg17
I00
sg18
g43
sbsg17
I00
sg18
g43
sba(imyEvolve
Tree
p1018
(dp1019
g10
(imyEvolve
Tree
p1020
(dp1021
g10
(imyEvolve
Tree
p1022
(dp1023
g10
(imyEvolve
Tree
p1024
(dp1025
g7
(imyEvolve
Tree
p1026
(dp1027
g15
I0
sg35
F2.8048389280797714
sg16
I01
sbsg15
I1
sg17
I01
sg18
g60
sbsg15
I2
sg20
(imyEvolve
Tree
p1028
(dp1029
g10
(imyEvolve
Tree
p1030
(dp1031
g15
I0
sg35
F1.0378444848066
sg16
I01
sbsg15
I1
sg20
(imyEvolve
Tree
p1032
(dp1033
g15
I0
sg35
F2.2369877367530977
sg16
I01
sbsg17
I00
sg18
g43
sbsg17
I00
sg18
g26
sbsg15
I3
sg20
(imyEvolve
Tree
p1034
(dp1035
g10
(imyEvolve
Tree
p1036
(dp1037
g7
(imyEvolve
Tree
p1038
(dp1039
g15
I0
sg35
F-4.7118949049670364
sg16
I01
sbsg15
I1
sg17
I01
sg18
g19
sbsg15
I2
sg20
(imyEvolve
Tree
p1040
(dp1041
g10
(imyEvolve
Tree
p1042
(dp1043
g15
I0
sg35
F-0.04402812613342455
sg16
I01
sbsg15
I1
sg20
(imyEvolve
Tree
p1044
(dp1045
g15
I0
sg35
F-1.6790409857239643
sg16
I01
sbsg17
I00
sg18
g36
sbsg17
I00
sg18
g43
sbsg17
I00
sg18
g36
sbsg15
I4
sg20
(imyEvolve
Tree
p1046
(dp1047
g7
(imyEvolve
Tree
p1048
(dp1049
g10
(imyEvolve
Tree
p1050
(dp1051
g10
(imyEvolve
Tree
p1052
(dp1053
g15
I0
sg35
F-2.484365699439417
sg16
I01
sbsg15
I1
sg20
(imyEvolve
Tree
p1054
(dp1055
g15
I0
sg16
I00
sbsg17
I00
sg18
g43
sbsg15
I2
sg20
(imyEvolve
Tree
p1056
(dp1057
g10
(imyEvolve
Tree
p1058
(dp1059
g15
I0
sg16
I00
sbsg15
I1
sg20
(imyEvolve
Tree
p1060
(dp1061
g15
I0
sg35
F-1.8522587652902702
sg16
I01
sbsg17
I00
sg18
g43
sbsg17
I00
sg18
g43
sbsg15
I3
sg17
I01
sg18
g19
sbsg17
I00
sg18
g26
sbaasS'alpha'
p1062
F0.0036983268320204083
sS'fitness'
p1063
cnumpy.core.multiarray
scalar
p1064
(cnumpy
dtype
p1065
(S'f8'
p1066
I0
I1
tp1067
Rp1068
(I3
S'<'
p1069
NNNI-1
I-1
I0
tp1070
bS'6\xab>G\xbb/\xe6?'
p1071
tp1072
Rp1073
sS'weightSharing'
p1074
(lp1075
I00
asS'fitnessValid'
p1076
I00
sS'resolution'
p1077
I65
sb.