(imyEvolve
Individual
p0
(dp1
S'funcs'
p2
(lp3
(lp4
(imyEvolve
Tree
p5
(dp6
S'left'
p7
(imyEvolve
Tree
p8
(dp9
g7
(imyEvolve
Tree
p10
(dp11
S'below'
p12
(imyEvolve
Tree
p13
(dp14
g12
(imyEvolve
Tree
p15
(dp16
g7
(imyEvolve
Tree
p17
(dp18
S'depth'
p19
I0
sS'constant'
p20
F-0.820905403248271
sS'isConstant'
p21
I01
sbsg19
I1
sS'right'
p22
(imyEvolve
Tree
p23
(dp24
g19
I0
sg21
I00
sbsS'single'
p25
I00
sS'op'
p26
coperator
sub
p27
sbsg19
I2
sg25
I01
sg26
cmyEvolve
absSqrt
p28
sbsg19
I3
sg25
I01
sg26
cmath
cos
p29
sbsg19
I4
sg22
(imyEvolve
Tree
p30
(dp31
g12
(imyEvolve
Tree
p32
(dp33
g7
(imyEvolve
Tree
p34
(dp35
g12
(imyEvolve
Tree
p36
(dp37
g19
I0
sg20
F-2.4024472704446556
sg21
I01
sbsg19
I1
sg25
I01
sg26
cmyEvolve
square
p38
sbsg19
I2
sg22
(imyEvolve
Tree
p39
(dp40
g12
(imyEvolve
Tree
p41
(dp42
g19
I0
sg20
F-2.266019131571423
sg21
I01
sbsg19
I1
sg25
I01
sg26
cmath
sin
p43
sbsg25
I00
sg26
coperator
add
p44
sbsg19
I3
sg25
I01
sg26
g43
sbsg25
I00
sg26
g27
sbsg19
I5
sg22
(imyEvolve
Tree
p45
(dp46
g12
(imyEvolve
Tree
p47
(dp48
g7
(imyEvolve
Tree
p49
(dp50
g12
(imyEvolve
Tree
p51
(dp52
g7
(imyEvolve
Tree
p53
(dp54
g19
I0
sg21
I00
sbsg19
I1
sg22
(imyEvolve
Tree
p55
(dp56
g19
I0
sg20
F-4.478477798029309
sg21
I01
sbsg25
I00
sg26
coperator
mul
p57
sbsg19
I2
sg25
I01
sg26
g38
sbsg19
I3
sg22
(imyEvolve
Tree
p58
(dp59
g12
(imyEvolve
Tree
p60
(dp61
g7
(imyEvolve
Tree
p62
(dp63
g19
I0
sg20
F1.3568793180248306
sg21
I01
sbsg19
I1
sg22
(imyEvolve
Tree
p64
(dp65
g19
I0
sg20
F0.06625150833711224
sg21
I01
sbsg25
I00
sg26
g27
sbsg19
I2
sg25
I01
sg26
g43
sbsg25
I00
sg26
g27
sbsg19
I4
sg25
I01
sg26
g43
sbsg25
I00
sg26
g57
sba(imyEvolve
Tree
p66
(dp67
g7
(imyEvolve
Tree
p68
(dp69
g12
(imyEvolve
Tree
p70
(dp71
g7
(imyEvolve
Tree
p72
(dp73
g19
I0
sg20
F0.23403116206035524
sg21
I01
sbsg19
I1
sg22
(imyEvolve
Tree
p74
(dp75
g19
I0
sg21
I00
sbsg25
I00
sg26
g27
sbsg19
I2
sg25
I01
sg26
g38
sbsg19
I3
sg22
(imyEvolve
Tree
p76
(dp77
g7
(imyEvolve
Tree
p78
(dp79
g7
(imyEvolve
Tree
p80
(dp81
g19
I0
sg20
F3.5569515997570402
sg21
I01
sbsg19
I1
sg22
(imyEvolve
Tree
p82
(dp83
g19
I0
sg20
F2.219843764454441
sg21
I01
sbsg25
I00
sg26
g57
sbsg19
I2
sg22
(imyEvolve
Tree
p84
(dp85
g12
(imyEvolve
Tree
p86
(dp87
g19
I0
sg21
I00
sbsg19
I1
sg25
I01
sg26
g43
sbsg25
I00
sg26
g44
sbsg25
I00
sg26
g27
sba(imyEvolve
Tree
p88
(dp89
g7
(imyEvolve
Tree
p90
(dp91
g7
(imyEvolve
Tree
p92
(dp93
g19
I0
sg21
I00
sbsg19
I1
sg22
(imyEvolve
Tree
p94
(dp95
g19
I0
sg21
I00
sbsg25
I00
sg26
g27
sbsg19
I2
sg22
(imyEvolve
Tree
p96
(dp97
g7
(imyEvolve
Tree
p98
(dp99
g19
I0
sg21
I00
sbsg19
I1
sg22
(imyEvolve
Tree
p100
(dp101
g19
I0
sg20
F1.1997862212991812
sg21
I01
sbsg25
I00
sg26
g57
sbsg25
I00
sg26
g44
sba(imyEvolve
Tree
p102
(dp103
g12
(imyEvolve
Tree
p104
(dp105
g7
(imyEvolve
Tree
p106
(dp107
g7
(imyEvolve
Tree
p108
(dp109
g19
I0
sg20
F0.36826992967050387
sg21
I01
sbsg19
I1
sg22
(imyEvolve
Tree
p110
(dp111
g19
I0
sg20
F4.856780197386492
sg21
I01
sbsg25
I00
sg26
g27
sbsg19
I2
sg22
(imyEvolve
Tree
p112
(dp113
g7
(imyEvolve
Tree
p114
(dp115
g19
I0
sg20
F-0.5563782429086759
sg21
I01
sbsg19
I1
sg22
(imyEvolve
Tree
p116
(dp117
g19
I0
sg20
F3.779247722163099
sg21
I01
sbsg25
I00
sg26
g57
sbsg25
I00
sg26
g27
sbsg19
I3
sg25
I01
sg26
g43
sba(imyEvolve
Tree
p118
(dp119
g12
(imyEvolve
Tree
p120
(dp121
g7
(imyEvolve
Tree
p122
(dp123
g7
(imyEvolve
Tree
p124
(dp125
g19
I0
sg21
I00
sbsg19
I1
sg22
(imyEvolve
Tree
p126
(dp127
g19
I0
sg21
I00
sbsg25
I00
sg26
g57
sbsg19
I2
sg22
(imyEvolve
Tree
p128
(dp129
g7
(imyEvolve
Tree
p130
(dp131
g19
I0
sg20
F0.9827745072408769
sg21
I01
sbsg19
I1
sg22
(imyEvolve
Tree
p132
(dp133
g19
I0
sg20
F-4.647679124196761
sg21
I01
sbsg25
I00
sg26
g57
sbsg25
I00
sg26
g44
sbsg19
I3
sg25
I01
sg26
g43
sba(imyEvolve
Tree
p134
(dp135
g7
(imyEvolve
Tree
p136
(dp137
g7
(imyEvolve
Tree
p138
(dp139
g12
(imyEvolve
Tree
p140
(dp141
g19
I0
sg21
I00
sbsg19
I1
sg25
I01
sg26
g28
sbsg19
I2
sg22
(imyEvolve
Tree
p142
(dp143
g7
(imyEvolve
Tree
p144
(dp145
g19
I0
sg20
F1.6357787650675082
sg21
I01
sbsg19
I1
sg22
(imyEvolve
Tree
p146
(dp147
g19
I0
sg21
I00
sbsg25
I00
sg26
g27
sbsg25
I00
sg26
g27
sbsg19
I3
sg22
(imyEvolve
Tree
p148
(dp149
g12
(imyEvolve
Tree
p150
(dp151
g7
(imyEvolve
Tree
p152
(dp153
g19
I0
sg20
F-0.9555988417013017
sg21
I01
sbsg19
I1
sg22
(imyEvolve
Tree
p154
(dp155
g19
I0
sg21
I00
sbsg25
I00
sg26
g27
sbsg19
I2
sg25
I01
sg26
g29
sbsg25
I00
sg26
g27
sba(imyEvolve
Tree
p156
(dp157
g12
(imyEvolve
Tree
p158
(dp159
g7
(imyEvolve
Tree
p160
(dp161
g19
I0
sg20
F0.7333504045363748
sg21
I01
sbsg19
I1
sg22
(imyEvolve
Tree
p162
(dp163
g19
I0
sg21
I00
sbsg25
I00
sg26
g57
sbsg19
I2
sg25
I01
sg26
g28
sba(imyEvolve
Tree
p164
(dp165
g12
(imyEvolve
Tree
p166
(dp167
g12
(imyEvolve
Tree
p168
(dp169
g12
(imyEvolve
Tree
p170
(dp171
g7
(imyEvolve
Tree
p172
(dp173
g12
(imyEvolve
Tree
p174
(dp175
g19
I0
sg20
F-1.5266529772187711
sg21
I01
sbsg19
I1
sg25
I01
sg26
g29
sbsg19
I2
sg22
(imyEvolve
Tree
p176
(dp177
g7
(imyEvolve
Tree
p178
(dp179
g19
I0
sg20
F2.490962801265403
sg21
I01
sbsg19
I1
sg22
(imyEvolve
Tree
p180
(dp181
g19
I0
sg21
I00
sbsg25
I00
sg26
g27
sbsg25
I00
sg26
g44
sbsg19
I3
sg25
I01
sg26
g43
sbsg19
I4
sg25
I01
sg26
g28
sbsg19
I5
sg25
I01
sg26
g28
sba(imyEvolve
Tree
p182
(dp183
g19
I5
sg7
(imyEvolve
Tree
p184
(dp185
g19
I4
sg7
(imyEvolve
Tree
p186
(dp187
g12
(imyEvolve
Tree
p188
(dp189
g12
(imyEvolve
Tree
p190
(dp191
g19
I1
sg7
(imyEvolve
Tree
p192
(dp193
g19
I0
sg21
I00
sbsg22
(imyEvolve
Tree
p194
(dp195
g19
I0
sg21
I00
sbsg25
I00
sg26
g44
sbsg19
I2
sg25
I01
sg26
g43
sbsg19
I3
sg25
I01
sg26
g43
sbsg22
(imyEvolve
Tree
p196
(dp197
g19
I3
sg7
(imyEvolve
Tree
p198
(dp199
g12
(imyEvolve
Tree
p200
(dp201
g12
(imyEvolve
Tree
p202
(dp203
g19
I0
sg20
F-2.9111394320758235
sg21
I01
sbsg19
I1
sg25
I01
sg26
g38
sbsg19
I2
sg25
I01
sg26
g28
sbsg22
(imyEvolve
Tree
p204
(dp205
g12
(imyEvolve
Tree
p206
(dp207
g12
(imyEvolve
Tree
p208
(dp209
g19
I0
sg21
I00
sbsg19
I1
sg25
I01
sg26
g43
sbsg19
I2
sg25
I01
sg26
g38
sbsg25
I00
sg26
g27
sbsg25
I00
sg26
g57
sbsg22
(imyEvolve
Tree
p210
(dp211
g12
(imyEvolve
Tree
p212
(dp213
g19
I3
sg7
(imyEvolve
Tree
p214
(dp215
g19
I2
sg7
(imyEvolve
Tree
p216
(dp217
g12
(imyEvolve
Tree
p218
(dp219
g19
I0
sg21
I00
sbsg19
I1
sg25
I01
sg26
g38
sbsg22
(imyEvolve
Tree
p220
(dp221
g19
I1
sg7
(imyEvolve
Tree
p222
(dp223
g19
I0
sg20
F0.4476457824754849
sg21
I01
sbsg22
(imyEvolve
Tree
p224
(dp225
g19
I0
sg20
F-1.2472264764863938
sg21
I01
sbsg25
I00
sg26
g27
sbsg25
I00
sg26
g27
sbsg22
(imyEvolve
Tree
p226
(dp227
g12
(imyEvolve
Tree
p228
(dp229
g19
I1
sg7
(imyEvolve
Tree
p230
(dp231
g19
I0
sg21
I00
sbsg22
(imyEvolve
Tree
p232
(dp233
g19
I0
sg21
I00
sbsg25
I00
sg26
g44
sbsg19
I2
sg25
I01
sg26
g29
sbsg25
I00
sg26
g44
sbsg19
I4
sg25
I01
sg26
g29
sbsg25
I00
sg26
g57
sba(imyEvolve
Tree
p234
(dp235
g19
I3
sg7
(imyEvolve
Tree
p236
(dp237
g12
(imyEvolve
Tree
p238
(dp239
g12
(imyEvolve
Tree
p240
(dp241
g19
I0
sg20
F3.0129070726102256
sg21
I01
sbsg19
I1
sg25
I01
sg26
g28
sbsg19
I2
sg25
I01
sg26
g43
sbsg22
(imyEvolve
Tree
p242
(dp243
g19
I2
sg7
(imyEvolve
Tree
p244
(dp245
g19
I1
sg7
(imyEvolve
Tree
p246
(dp247
g19
I0
sg20
F-4.225436607788616
sg21
I01
sbsg22
(imyEvolve
Tree
p248
(dp249
g19
I0
sg20
F-0.42815799396381937
sg21
I01
sbsg25
I00
sg26
g27
sbsg22
(imyEvolve
Tree
p250
(dp251
g12
(imyEvolve
Tree
p252
(dp253
g19
I0
sg20
F2.766590286767161
sg21
I01
sbsg19
I1
sg25
I01
sg26
g38
sbsg25
I00
sg26
g27
sbsg25
I00
sg26
g57
sba(imyEvolve
Tree
p254
(dp255
g12
(imyEvolve
Tree
p256
(dp257
g12
(imyEvolve
Tree
p258
(dp259
g19
I1
sg7
(imyEvolve
Tree
p260
(dp261
g19
I0
sg20
F4.030081408739944
sg21
I01
sbsg22
(imyEvolve
Tree
p262
(dp263
g19
I0
sg20
F-2.4060337284676905
sg21
I01
sbsg25
I00
sg26
g27
sbsg19
I2
sg25
I01
sg26
g28
sbsg19
I3
sg25
I01
sg26
g38
sba(imyEvolve
Tree
p264
(dp265
g12
(imyEvolve
Tree
p266
(dp267
g19
I1
sg7
(imyEvolve
Tree
p268
(dp269
g19
I0
sg21
I00
sbsg22
(imyEvolve
Tree
p270
(dp271
g19
I0
sg20
F-2.647000626459568
sg21
I01
sbsg25
I00
sg26
g44
sbsg19
I2
sg25
I01
sg26
g29
sba(imyEvolve
Tree
p272
(dp273
g12
(imyEvolve
Tree
p274
(dp275
g7
(imyEvolve
Tree
p276
(dp277
g12
(imyEvolve
Tree
p278
(dp279
g7
(imyEvolve
Tree
p280
(dp281
g19
I0
sg20
F3.7580148290723816
sg21
I01
sbsg19
I1
sg22
(imyEvolve
Tree
p282
(dp283
g19
I0
sg21
I00
sbsg25
I00
sg26
g44
sbsg19
I2
sg25
I01
sg26
g28
sbsg19
I3
sg22
(imyEvolve
Tree
p284
(dp285
g7
(imyEvolve
Tree
p286
(dp287
g7
(imyEvolve
Tree
p288
(dp289
g19
I0
sg21
I00
sbsg19
I1
sg22
(imyEvolve
Tree
p290
(dp291
g19
I0
sg20
F4.258500687547135
sg21
I01
sbsg25
I00
sg26
g27
sbsg19
I2
sg22
(imyEvolve
Tree
p292
(dp293
g12
(imyEvolve
Tree
p294
(dp295
g19
I0
sg21
I00
sbsg19
I1
sg25
I01
sg26
g43
sbsg25
I00
sg26
g44
sbsg25
I00
sg26
g44
sbsg19
I4
sg25
I01
sg26
g43
sba(imyEvolve
Tree
p296
(dp297
g19
I2
sg7
(imyEvolve
Tree
p298
(dp299
g19
I1
sg7
(imyEvolve
Tree
p300
(dp301
g19
I0
sg21
I00
sbsg22
(imyEvolve
Tree
p302
(dp303
g19
I0
sg20
F-0.4541959943948557
sg21
I01
sbsg25
I00
sg26
g27
sbsg22
(imyEvolve
Tree
p304
(dp305
g19
I1
sg7
(imyEvolve
Tree
p306
(dp307
g19
I0
sg20
F-0.06287675523946668
sg21
I01
sbsg22
(imyEvolve
Tree
p308
(dp309
g19
I0
sg21
I00
sbsg25
I00
sg26
g44
sbsg25
I00
sg26
g57
sba(imyEvolve
Tree
p310
(dp311
g12
(imyEvolve
Tree
p312
(dp313
g19
I4
sg7
(imyEvolve
Tree
p314
(dp315
g19
I3
sg7
(imyEvolve
Tree
p316
(dp317
g19
I2
sg7
(imyEvolve
Tree
p318
(dp319
g19
I1
sg7
(imyEvolve
Tree
p320
(dp321
g19
I0
sg20
F0.2732662072886498
sg21
I01
sbsg22
(imyEvolve
Tree
p322
(dp323
g19
I0
sg20
F3.6933204678407012
sg21
I01
sbsg25
I00
sg26
g57
sbsg22
(imyEvolve
Tree
p324
(dp325
g12
(imyEvolve
Tree
p326
(dp327
g19
I0
sg21
I00
sbsg19
I1
sg25
I01
sg26
g28
sbsg25
I00
sg26
g27
sbsg22
(imyEvolve
Tree
p328
(dp329
g12
(imyEvolve
Tree
p330
(dp331
g19
I1
sg7
(imyEvolve
Tree
p332
(dp333
g19
I0
sg20
F-1.4889289504084524
sg21
I01
sbsg22
(imyEvolve
Tree
p334
(dp335
g19
I0
sg21
I00
sbsg25
I00
sg26
g57
sbsg19
I2
sg25
I01
sg26
g29
sbsg25
I00
sg26
g44
sbsg22
(imyEvolve
Tree
p336
(dp337
g19
I3
sg7
(imyEvolve
Tree
p338
(dp339
g19
I2
sg7
(imyEvolve
Tree
p340
(dp341
g19
I1
sg7
(imyEvolve
Tree
p342
(dp343
g19
I0
sg20
F4.0981106137292045
sg21
I01
sbsg22
(imyEvolve
Tree
p344
(dp345
g19
I0
sg20
F4.1115075517128865
sg21
I01
sbsg25
I00
sg26
g57
sbsg22
(imyEvolve
Tree
p346
(dp347
g12
(imyEvolve
Tree
p348
(dp349
g19
I0
sg20
F0.037930287025545795
sg21
I01
sbsg19
I1
sg25
I01
sg26
g38
sbsg25
I00
sg26
g57
sbsg22
(imyEvolve
Tree
p350
(dp351
g12
(imyEvolve
Tree
p352
(dp353
g19
I1
sg7
(imyEvolve
Tree
p354
(dp355
g19
I0
sg20
F0.40401447889908315
sg21
I01
sbsg22
(imyEvolve
Tree
p356
(dp357
g19
I0
sg20
F1.6738972392967488
sg21
I01
sbsg25
I00
sg26
g44
sbsg19
I2
sg25
I01
sg26
g29
sbsg25
I00
sg26
g57
sbsg25
I00
sg26
g27
sbsg19
I5
sg25
I01
sg26
g29
sba(imyEvolve
Tree
p358
(dp359
g12
(imyEvolve
Tree
p360
(dp361
g19
I2
sg7
(imyEvolve
Tree
p362
(dp363
g19
I1
sg7
(imyEvolve
Tree
p364
(dp365
g19
I0
sg20
F0.31370544987082916
sg21
I01
sbsg22
(imyEvolve
Tree
p366
(dp367
g19
I0
sg20
F4.130740086522293
sg21
I01
sbsg25
I00
sg26
g27
sbsg22
(imyEvolve
Tree
p368
(dp369
g12
(imyEvolve
Tree
p370
(dp371
g19
I0
sg21
I00
sbsg19
I1
sg25
I01
sg26
g29
sbsg25
I00
sg26
g27
sbsg19
I3
sg25
I01
sg26
g38
sba(imyEvolve
Tree
p372
(dp373
g7
(imyEvolve
Tree
p374
(dp375
g7
(imyEvolve
Tree
p376
(dp377
g12
(imyEvolve
Tree
p378
(dp379
g19
I0
sg20
F-1.5928010025755048
sg21
I01
sbsg19
I1
sg25
I01
sg26
g29
sbsg19
I2
sg22
(imyEvolve
Tree
p380
(dp381
g7
(imyEvolve
Tree
p382
(dp383
g19
I0
sg20
F-0.2856660002625251
sg21
I01
sbsg19
I1
sg22
(imyEvolve
Tree
p384
(dp385
g19
I0
sg20
F4.192145816549843
sg21
I01
sbsg25
I00
sg26
g57
sbsg25
I00
sg26
g27
sbsg19
I3
sg22
(imyEvolve
Tree
p386
(dp387
g7
(imyEvolve
Tree
p388
(dp389
g7
(imyEvolve
Tree
p390
(dp391
g19
I0
sg20
F4.963102354681556
sg21
I01
sbsg19
I1
sg22
(imyEvolve
Tree
p392
(dp393
g19
I0
sg21
I00
sbsg25
I00
sg26
g27
sbsg19
I2
sg22
(imyEvolve
Tree
p394
(dp395
g12
(imyEvolve
Tree
p396
(dp397
g19
I0
sg21
I00
sbsg19
I1
sg25
I01
sg26
g43
sbsg25
I00
sg26
g44
sbsg25
I00
sg26
g44
sba(imyEvolve
Tree
p398
(dp399
g7
(imyEvolve
Tree
p400
(dp401
g7
(imyEvolve
Tree
p402
(dp403
g12
(imyEvolve
Tree
p404
(dp405
g19
I0
sg21
I00
sbsg19
I1
sg25
I01
sg26
g43
sbsg19
I2
sg22
(imyEvolve
Tree
p406
(dp407
g7
(imyEvolve
Tree
p408
(dp409
g19
I0
sg20
F4.1338905392528975
sg21
I01
sbsg19
I1
sg22
(imyEvolve
Tree
p410
(dp411
g19
I0
sg20
F-3.429864847490137
sg21
I01
sbsg25
I00
sg26
g44
sbsg25
I00
sg26
g27
sbsg19
I3
sg22
(imyEvolve
Tree
p412
(dp413
g7
(imyEvolve
Tree
p414
(dp415
g12
(imyEvolve
Tree
p416
(dp417
g19
I0
sg21
I00
sbsg19
I1
sg25
I01
sg26
g38
sbsg19
I2
sg22
(imyEvolve
Tree
p418
(dp419
g7
(imyEvolve
Tree
p420
(dp421
g19
I0
sg21
I00
sbsg19
I1
sg22
(imyEvolve
Tree
p422
(dp423
g19
I0
sg21
I00
sbsg25
I00
sg26
g27
sbsg25
I00
sg26
g27
sbsg25
I00
sg26
g57
sba(imyEvolve
Tree
p424
(dp425
g12
(imyEvolve
Tree
p426
(dp427
g7
(imyEvolve
Tree
p428
(dp429
g12
(imyEvolve
Tree
p430
(dp431
g12
(imyEvolve
Tree
p432
(dp433
g12
(imyEvolve
Tree
p434
(dp435
g19
I0
sg20
F2.323600104004817
sg21
I01
sbsg19
I1
sg25
I01
sg26
g38
sbsg19
I2
sg25
I01
sg26
g28
sbsg19
I3
sg25
I01
sg26
g43
sbsg19
I4
sg22
(imyEvolve
Tree
p436
(dp437
g12
(imyEvolve
Tree
p438
(dp439
g7
(imyEvolve
Tree
p440
(dp441
g7
(imyEvolve
Tree
p442
(dp443
g19
I0
sg21
I00
sbsg19
I1
sg22
(imyEvolve
Tree
p444
(dp445
g19
I0
sg20
F4.859813911713006
sg21
I01
sbsg25
I00
sg26
g27
sbsg19
I2
sg22
(imyEvolve
Tree
p446
(dp447
g7
(imyEvolve
Tree
p448
(dp449
g19
I0
sg21
I00
sbsg19
I1
sg22
(imyEvolve
Tree
p450
(dp451
g19
I0
sg21
I00
sbsg25
I00
sg26
g27
sbsg25
I00
sg26
g57
sbsg19
I3
sg25
I01
sg26
g43
sbsg25
I00
sg26
g44
sbsg19
I5
sg25
I01
sg26
g38
sbaa(lp452
(imyEvolve
Tree
p453
(dp454
g12
(imyEvolve
Tree
p455
(dp456
g19
I4
sg7
(imyEvolve
Tree
p457
(dp458
g12
(imyEvolve
Tree
p459
(dp460
g19
I2
sg7
(imyEvolve
Tree
p461
(dp462
g12
(imyEvolve
Tree
p463
(dp464
g19
I0
sg20
F-3.41548393367483
sg21
I01
sbsg19
I1
sg25
I01
sg26
g29
sbsg22
(imyEvolve
Tree
p465
(dp466
g12
(imyEvolve
Tree
p467
(dp468
g19
I0
sg20
F3.2357462889525177
sg21
I01
sbsg19
I1
sg25
I01
sg26
g29
sbsg25
I00
sg26
g57
sbsg19
I3
sg25
I01
sg26
g43
sbsg22
(imyEvolve
Tree
p469
(dp470
g12
(imyEvolve
Tree
p471
(dp472
g19
I2
sg7
(imyEvolve
Tree
p473
(dp474
g12
(imyEvolve
Tree
p475
(dp476
g19
I0
sg20
F-1.8378074213923687
sg21
I01
sbsg19
I1
sg25
I01
sg26
g38
sbsg22
(imyEvolve
Tree
p477
(dp478
g19
I1
sg7
(imyEvolve
Tree
p479
(dp480
g19
I0
sg20
F-0.8137517286024156
sg21
I01
sbsg22
(imyEvolve
Tree
p481
(dp482
g19
I0
sg20
F-4.545574373038031
sg21
I01
sbsg25
I00
sg26
g57
sbsg25
I00
sg26
g44
sbsg19
I3
sg25
I01
sg26
g38
sbsg25
I00
sg26
g27
sbsg19
I5
sg25
I01
sg26
g43
sba(imyEvolve
Tree
p483
(dp484
g12
(imyEvolve
Tree
p485
(dp486
g12
(imyEvolve
Tree
p487
(dp488
g12
(imyEvolve
Tree
p489
(dp490
g19
I1
sg7
(imyEvolve
Tree
p491
(dp492
g19
I0
sg21
I00
sbsg22
(imyEvolve
Tree
p493
(dp494
g19
I0
sg20
F2.8784174619923792
sg21
I01
sbsg25
I00
sg26
g44
sbsg19
I2
sg25
I01
sg26
g29
sbsg19
I3
sg25
I01
sg26
g28
sbsg19
I4
sg25
I01
sg26
g38
sba(imyEvolve
Tree
p495
(dp496
g7
(imyEvolve
Tree
p497
(dp498
g12
(imyEvolve
Tree
p499
(dp500
g7
(imyEvolve
Tree
p501
(dp502
g12
(imyEvolve
Tree
p503
(dp504
g12
(imyEvolve
Tree
p505
(dp506
g19
I0
sg20
F-2.938164790465466
sg21
I01
sbsg19
I1
sg25
I01
sg26
g38
sbsg19
I2
sg25
I01
sg26
g38
sbsg19
I3
sg22
(imyEvolve
Tree
p507
(dp508
g7
(imyEvolve
Tree
p509
(dp510
g7
(imyEvolve
Tree
p511
(dp512
g19
I0
sg21
I00
sbsg19
I1
sg22
(imyEvolve
Tree
p513
(dp514
g19
I0
sg21
I00
sbsg25
I00
sg26
g44
sbsg19
I2
sg22
(imyEvolve
Tree
p515
(dp516
g7
(imyEvolve
Tree
p517
(dp518
g19
I0
sg21
I00
sbsg19
I1
sg22
(imyEvolve
Tree
p519
(dp520
g19
I0
sg20
F1.4930045785161639
sg21
I01
sbsg25
I00
sg26
g27
sbsg25
I00
sg26
g57
sbsg25
I00
sg26
g57
sbsg19
I4
sg25
I01
sg26
g29
sbsg19
I5
sg22
(imyEvolve
Tree
p521
(dp522
g7
(imyEvolve
Tree
p523
(dp524
g7
(imyEvolve
Tree
p525
(dp526
g7
(imyEvolve
Tree
p527
(dp528
g7
(imyEvolve
Tree
p529
(dp530
g19
I0
sg21
I00
sbsg19
I1
sg22
(imyEvolve
Tree
p531
(dp532
g19
I0
sg20
F-1.332231302334356
sg21
I01
sbsg25
I00
sg26
g44
sbsg19
I2
sg22
(imyEvolve
Tree
p533
(dp534
g12
(imyEvolve
Tree
p535
(dp536
g19
I0
sg21
I00
sbsg19
I1
sg25
I01
sg26
g43
sbsg25
I00
sg26
g44
sbsg19
I3
sg22
(imyEvolve
Tree
p537
(dp538
g12
(imyEvolve
Tree
p539
(dp540
g12
(imyEvolve
Tree
p541
(dp542
g19
I0
sg20
F3.7326041807392603
sg21
I01
sbsg19
I1
sg25
I01
sg26
g28
sbsg19
I2
sg25
I01
sg26
g28
sbsg25
I00
sg26
g57
sbsg19
I4
sg22
(imyEvolve
Tree
p543
(dp544
g12
(imyEvolve
Tree
p545
(dp546
g7
(imyEvolve
Tree
p547
(dp548
g7
(imyEvolve
Tree
p549
(dp550
g19
I0
sg20
F4.527674165386712
sg21
I01
sbsg19
I1
sg22
(imyEvolve
Tree
p551
(dp552
g19
I0
sg20
F-2.2994389364527414
sg21
I01
sbsg25
I00
sg26
g57
sbsg19
I2
sg22
(imyEvolve
Tree
p553
(dp554
g7
(imyEvolve
Tree
p555
(dp556
g19
I0
sg20
F-2.2359464661349406
sg21
I01
sbsg19
I1
sg22
(imyEvolve
Tree
p557
(dp558
g19
I0
sg20
F4.730216095558525
sg21
I01
sbsg25
I00
sg26
g57
sbsg25
I00
sg26
g27
sbsg19
I3
sg25
I01
sg26
g29
sbsg25
I00
sg26
g44
sbsg25
I00
sg26
g57
sba(imyEvolve
Tree
p559
(dp560
g12
(imyEvolve
Tree
p561
(dp562
g19
I1
sg7
(imyEvolve
Tree
p563
(dp564
g19
I0
sg20
F1.9442592261880822
sg21
I01
sbsg22
(imyEvolve
Tree
p565
(dp566
g19
I0
sg20
F-2.3713980629954357
sg21
I01
sbsg25
I00
sg26
g27
sbsg19
I2
sg25
I01
sg26
g28
sba(imyEvolve
Tree
p567
(dp568
g12
(imyEvolve
Tree
p569
(dp570
g7
(imyEvolve
Tree
p571
(dp572
g12
(imyEvolve
Tree
p573
(dp574
g19
I0
sg21
I00
sbsg19
I1
sg25
I01
sg26
g38
sbsg19
I2
sg22
(imyEvolve
Tree
p575
(dp576
g7
(imyEvolve
Tree
p577
(dp578
g19
I0
sg20
F-2.700757692288296
sg21
I01
sbsg19
I1
sg22
(imyEvolve
Tree
p579
(dp580
g19
I0
sg20
F-2.4673139301749893
sg21
I01
sbsg25
I00
sg26
g57
sbsg25
I00
sg26
g27
sbsg19
I3
sg25
I01
sg26
g43
sba(imyEvolve
Tree
p581
(dp582
g7
(imyEvolve
Tree
p583
(dp584
g7
(imyEvolve
Tree
p585
(dp586
g12
(imyEvolve
Tree
p587
(dp588
g7
(imyEvolve
Tree
p589
(dp590
g19
I0
sg21
I00
sbsg19
I1
sg22
(imyEvolve
Tree
p591
(dp592
g19
I0
sg21
I00
sbsg25
I00
sg26
g57
sbsg19
I2
sg25
I01
sg26
g38
sbsg19
I3
sg22
(imyEvolve
Tree
p593
(dp594
g7
(imyEvolve
Tree
p595
(dp596
g12
(imyEvolve
Tree
p597
(dp598
g19
I0
sg20
F4.497734608389969
sg21
I01
sbsg19
I1
sg25
I01
sg26
g28
sbsg19
I2
sg22
(imyEvolve
Tree
p599
(dp600
g7
(imyEvolve
Tree
p601
(dp602
g19
I0
sg20
F3.11461189347337
sg21
I01
sbsg19
I1
sg22
(imyEvolve
Tree
p603
(dp604
g19
I0
sg20
F-3.0537480652818747
sg21
I01
sbsg25
I00
sg26
g57
sbsg25
I00
sg26
g57
sbsg25
I00
sg26
g57
sbsg19
I4
sg22
(imyEvolve
Tree
p605
(dp606
g12
(imyEvolve
Tree
p607
(dp608
g12
(imyEvolve
Tree
p609
(dp610
g7
(imyEvolve
Tree
p611
(dp612
g19
I0
sg20
F1.9375955660859159
sg21
I01
sbsg19
I1
sg22
(imyEvolve
Tree
p613
(dp614
g19
I0
sg21
I00
sbsg25
I00
sg26
g57
sbsg19
I2
sg25
I01
sg26
g28
sbsg19
I3
sg25
I01
sg26
g43
sbsg25
I00
sg26
g27
sba(imyEvolve
Tree
p615
(dp616
g12
(imyEvolve
Tree
p617
(dp618
g12
(imyEvolve
Tree
p619
(dp620
g19
I0
sg21
I00
sbsg19
I1
sg25
I01
sg26
g29
sbsg19
I2
sg25
I01
sg26
g43
sba(imyEvolve
Tree
p621
(dp622
g7
(imyEvolve
Tree
p623
(dp624
g12
(imyEvolve
Tree
p625
(dp626
g7
(imyEvolve
Tree
p627
(dp628
g12
(imyEvolve
Tree
p629
(dp630
g19
I0
sg20
F-1.993995144124523
sg21
I01
sbsg19
I1
sg25
I01
sg26
g38
sbsg19
I2
sg22
(imyEvolve
Tree
p631
(dp632
g7
(imyEvolve
Tree
p633
(dp634
g19
I0
sg21
I00
sbsg19
I1
sg22
(imyEvolve
Tree
p635
(dp636
g19
I0
sg20
F-1.8928996244504734
sg21
I01
sbsg25
I00
sg26
g27
sbsg25
I00
sg26
g27
sbsg19
I3
sg25
I01
sg26
g43
sbsg19
I4
sg22
(imyEvolve
Tree
p637
(dp638
g7
(imyEvolve
Tree
p639
(dp640
g12
(imyEvolve
Tree
p641
(dp642
g12
(imyEvolve
Tree
p643
(dp644
g19
I0
sg21
I00
sbsg19
I1
sg25
I01
sg26
g43
sbsg19
I2
sg25
I01
sg26
g38
sbsg19
I3
sg22
(imyEvolve
Tree
p645
(dp646
g7
(imyEvolve
Tree
p647
(dp648
g7
(imyEvolve
Tree
p649
(dp650
g19
I0
sg20
F3.777299811553508
sg21
I01
sbsg19
I1
sg22
(imyEvolve
Tree
p651
(dp652
g19
I0
sg21
I00
sbsg25
I00
sg26
g27
sbsg19
I2
sg22
(imyEvolve
Tree
p653
(dp654
g7
(imyEvolve
Tree
p655
(dp656
g19
I0
sg20
F4.863781896011993
sg21
I01
sbsg19
I1
sg22
(imyEvolve
Tree
p657
(dp658
g19
I0
sg20
F2.366546521035514
sg21
I01
sbsg25
I00
sg26
g57
sbsg25
I00
sg26
g27
sbsg25
I00
sg26
g57
sbsg25
I00
sg26
g27
sba(imyEvolve
Tree
p659
(dp660
g12
(imyEvolve
Tree
p661
(dp662
g19
I4
sg7
(imyEvolve
Tree
p663
(dp664
g19
I3
sg7
(imyEvolve
Tree
p665
(dp666
g19
I2
sg7
(imyEvolve
Tree
p667
(dp668
g12
(imyEvolve
Tree
p669
(dp670
g19
I0
sg20
F3.3450672425906713
sg21
I01
sbsg19
I1
sg25
I01
sg26
g38
sbsg22
(imyEvolve
Tree
p671
(dp672
g12
(imyEvolve
Tree
p673
(dp674
g19
I0
sg21
I00
sbsg19
I1
sg25
I01
sg26
g43
sbsg25
I00
sg26
g57
sbsg22
(imyEvolve
Tree
p675
(dp676
g19
I2
sg7
(imyEvolve
Tree
p677
(dp678
g12
(imyEvolve
Tree
p679
(dp680
g19
I0
sg21
I00
sbsg19
I1
sg25
I01
sg26
g28
sbsg22
(imyEvolve
Tree
p681
(dp682
g12
(imyEvolve
Tree
p683
(dp684
g19
I0
sg20
F-2.7278583599550266
sg21
I01
sbsg19
I1
sg25
I01
sg26
g43
sbsg25
I00
sg26
g57
sbsg25
I00
sg26
g44
sbsg22
(imyEvolve
Tree
p685
(dp686
g12
(imyEvolve
Tree
p687
(dp688
g12
(imyEvolve
Tree
p689
(dp690
g19
I1
sg7
(imyEvolve
Tree
p691
(dp692
g19
I0
sg21
I00
sbsg22
(imyEvolve
Tree
p693
(dp694
g19
I0
sg20
F1.9961393396350235
sg21
I01
sbsg25
I00
sg26
g27
sbsg19
I2
sg25
I01
sg26
g38
sbsg19
I3
sg25
I01
sg26
g29
sbsg25
I00
sg26
g44
sbsg19
I5
sg25
I01
sg26
g38
sba(imyEvolve
Tree
p695
(dp696
g7
(imyEvolve
Tree
p697
(dp698
g7
(imyEvolve
Tree
p699
(dp700
g12
(imyEvolve
Tree
p701
(dp702
g7
(imyEvolve
Tree
p703
(dp704
g19
I0
sg20
F1.0119587020304497
sg21
I01
sbsg19
I1
sg22
(imyEvolve
Tree
p705
(dp706
g19
I0
sg20
F-4.336403324092059
sg21
I01
sbsg25
I00
sg26
g44
sbsg19
I2
sg25
I01
sg26
g43
sbsg19
I3
sg22
(imyEvolve
Tree
p707
(dp708
g12
(imyEvolve
Tree
p709
(dp710
g12
(imyEvolve
Tree
p711
(dp712
g19
I0
sg20
F4.287819345291265
sg21
I01
sbsg19
I1
sg25
I01
sg26
g38
sbsg19
I2
sg25
I01
sg26
g29
sbsg25
I00
sg26
g27
sbsg19
I4
sg22
(imyEvolve
Tree
p713
(dp714
g7
(imyEvolve
Tree
p715
(dp716
g7
(imyEvolve
Tree
p717
(dp718
g12
(imyEvolve
Tree
p719
(dp720
g19
I0
sg20
F-1.174851890815357
sg21
I01
sbsg19
I1
sg25
I01
sg26
g43
sbsg19
I2
sg22
(imyEvolve
Tree
p721
(dp722
g7
(imyEvolve
Tree
p723
(dp724
g19
I0
sg20
F4.544790417446032
sg21
I01
sbsg19
I1
sg22
(imyEvolve
Tree
p725
(dp726
g19
I0
sg20
F3.0250695198739503
sg21
I01
sbsg25
I00
sg26
g27
sbsg25
I00
sg26
g27
sbsg19
I3
sg22
(imyEvolve
Tree
p727
(dp728
g7
(imyEvolve
Tree
p729
(dp730
g7
(imyEvolve
Tree
p731
(dp732
g19
I0
sg20
F1.4573477107424608
sg21
I01
sbsg19
I1
sg22
(imyEvolve
Tree
p733
(dp734
g19
I0
sg20
F-1.55539114555412
sg21
I01
sbsg25
I00
sg26
g27
sbsg19
I2
sg22
(imyEvolve
Tree
p735
(dp736
g12
(imyEvolve
Tree
p737
(dp738
g19
I0
sg21
I00
sbsg19
I1
sg25
I01
sg26
g43
sbsg25
I00
sg26
g57
sbsg25
I00
sg26
g27
sbsg25
I00
sg26
g27
sba(imyEvolve
Tree
p739
(dp740
g7
(imyEvolve
Tree
p741
(dp742
g12
(imyEvolve
Tree
p743
(dp744
g12
(imyEvolve
Tree
p745
(dp746
g19
I0
sg20
F1.6929408264421202
sg21
I01
sbsg19
I1
sg25
I01
sg26
g28
sbsg19
I2
sg25
I01
sg26
g43
sbsg19
I3
sg22
(imyEvolve
Tree
p747
(dp748
g12
(imyEvolve
Tree
p749
(dp750
g12
(imyEvolve
Tree
p751
(dp752
g19
I0
sg20
F2.6007867663599926
sg21
I01
sbsg19
I1
sg25
I01
sg26
g38
sbsg19
I2
sg25
I01
sg26
g38
sbsg25
I00
sg26
g57
sba(imyEvolve
Tree
p753
(dp754
g12
(imyEvolve
Tree
p755
(dp756
g7
(imyEvolve
Tree
p757
(dp758
g7
(imyEvolve
Tree
p759
(dp760
g19
I0
sg20
F-0.41532056258376926
sg21
I01
sbsg19
I1
sg22
(imyEvolve
Tree
p761
(dp762
g19
I0
sg21
I00
sbsg25
I00
sg26
g27
sbsg19
I2
sg22
(imyEvolve
Tree
p763
(dp764
g12
(imyEvolve
Tree
p765
(dp766
g19
I0
sg20
F0.45881118724903125
sg21
I01
sbsg19
I1
sg25
I01
sg26
g28
sbsg25
I00
sg26
g27
sbsg19
I3
sg25
I01
sg26
g28
sba(imyEvolve
Tree
p767
(dp768
g7
(imyEvolve
Tree
p769
(dp770
g7
(imyEvolve
Tree
p771
(dp772
g12
(imyEvolve
Tree
p773
(dp774
g12
(imyEvolve
Tree
p775
(dp776
g19
I0
sg20
F2.867117121670865
sg21
I01
sbsg19
I1
sg25
I01
sg26
g38
sbsg19
I2
sg25
I01
sg26
g38
sbsg19
I3
sg22
(imyEvolve
Tree
p777
(dp778
g7
(imyEvolve
Tree
p779
(dp780
g7
(imyEvolve
Tree
p781
(dp782
g19
I0
sg21
I00
sbsg19
I1
sg22
(imyEvolve
Tree
p783
(dp784
g19
I0
sg20
F-0.5096482103935056
sg21
I01
sbsg25
I00
sg26
g57
sbsg19
I2
sg22
(imyEvolve
Tree
p785
(dp786
g12
(imyEvolve
Tree
p787
(dp788
g19
I0
sg21
I00
sbsg19
I1
sg25
I01
sg26
g29
sbsg25
I00
sg26
g27
sbsg25
I00
sg26
g57
sbsg19
I4
sg22
(imyEvolve
Tree
p789
(dp790
g12
(imyEvolve
Tree
p791
(dp792
g12
(imyEvolve
Tree
p793
(dp794
g7
(imyEvolve
Tree
p795
(dp796
g19
I0
sg20
F2.252572259569005
sg21
I01
sbsg19
I1
sg22
(imyEvolve
Tree
p797
(dp798
g19
I0
sg21
I00
sbsg25
I00
sg26
g57
sbsg19
I2
sg25
I01
sg26
g43
sbsg19
I3
sg25
I01
sg26
g28
sbsg25
I00
sg26
g27
sbaa(lp799
(imyEvolve
Tree
p800
(dp801
g7
(imyEvolve
Tree
p802
(dp803
g12
(imyEvolve
Tree
p804
(dp805
g12
(imyEvolve
Tree
p806
(dp807
g12
(imyEvolve
Tree
p808
(dp809
g7
(imyEvolve
Tree
p810
(dp811
g19
I0
sg21
I00
sbsg19
I1
sg22
(imyEvolve
Tree
p812
(dp813
g19
I0
sg20
F1.5111061961564856
sg21
I01
sbsg25
I00
sg26
g44
sbsg19
I2
sg25
I01
sg26
g29
sbsg19
I3
sg25
I01
sg26
g43
sbsg19
I4
sg25
I01
sg26
g38
sbsg19
I5
sg22
(imyEvolve
Tree
p814
(dp815
g12
(imyEvolve
Tree
p816
(dp817
g12
(imyEvolve
Tree
p818
(dp819
g12
(imyEvolve
Tree
p820
(dp821
g12
(imyEvolve
Tree
p822
(dp823
g19
I0
sg20
F3.3487763688746313
sg21
I01
sbsg19
I1
sg25
I01
sg26
g43
sbsg19
I2
sg25
I01
sg26
g43
sbsg19
I3
sg25
I01
sg26
g43
sbsg19
I4
sg25
I01
sg26
g29
sbsg25
I00
sg26
g57
sba(imyEvolve
Tree
p824
(dp825
g7
(imyEvolve
Tree
p826
(dp827
g12
(imyEvolve
Tree
p828
(dp829
g12
(imyEvolve
Tree
p830
(dp831
g19
I0
sg21
I00
sbsg19
I1
sg25
I01
sg26
g29
sbsg19
I2
sg25
I01
sg26
g38
sbsg19
I3
sg22
(imyEvolve
Tree
p832
(dp833
g12
(imyEvolve
Tree
p834
(dp835
g7
(imyEvolve
Tree
p836
(dp837
g19
I0
sg20
F4.813068387450961
sg21
I01
sbsg19
I1
sg22
(imyEvolve
Tree
p838
(dp839
g19
I0
sg20
F-4.889974293189803
sg21
I01
sbsg25
I00
sg26
g44
sbsg19
I2
sg25
I01
sg26
g29
sbsg25
I00
sg26
g27
sba(imyEvolve
Tree
p840
(dp841
g19
I4
sg7
(imyEvolve
Tree
p842
(dp843
g19
I3
sg7
(imyEvolve
Tree
p844
(dp845
g12
(imyEvolve
Tree
p846
(dp847
g19
I1
sg7
(imyEvolve
Tree
p848
(dp849
g19
I0
sg21
I00
sbsg22
(imyEvolve
Tree
p850
(dp851
g19
I0
sg20
F-3.171009762731525
sg21
I01
sbsg25
I00
sg26
g44
sbsg19
I2
sg25
I01
sg26
g38
sbsg22
(imyEvolve
Tree
p852
(dp853
g19
I2
sg7
(imyEvolve
Tree
p854
(dp855
g19
I1
sg7
(imyEvolve
Tree
p856
(dp857
g19
I0
sg20
F1.7306786234650016
sg21
I01
sbsg22
(imyEvolve
Tree
p858
(dp859
g19
I0
sg21
I00
sbsg25
I00
sg26
g57
sbsg22
(imyEvolve
Tree
p860
(dp861
g12
(imyEvolve
Tree
p862
(dp863
g19
I0
sg20
F-0.4115657216942692
sg21
I01
sbsg19
I1
sg25
I01
sg26
g43
sbsg25
I00
sg26
g44
sbsg25
I00
sg26
g44
sbsg22
(imyEvolve
Tree
p864
(dp865
g19
I3
sg7
(imyEvolve
Tree
p866
(dp867
g19
I2
sg7
(imyEvolve
Tree
p868
(dp869
g19
I1
sg7
(imyEvolve
Tree
p870
(dp871
g19
I0
sg21
I00
sbsg22
(imyEvolve
Tree
p872
(dp873
g19
I0
sg20
F4.407999711131076
sg21
I01
sbsg25
I00
sg26
g27
sbsg22
(imyEvolve
Tree
p874
(dp875
g12
(imyEvolve
Tree
p876
(dp877
g19
I0
sg21
I00
sbsg19
I1
sg25
I01
sg26
g28
sbsg25
I00
sg26
g44
sbsg22
(imyEvolve
Tree
p878
(dp879
g19
I2
sg7
(imyEvolve
Tree
p880
(dp881
g19
I1
sg7
(imyEvolve
Tree
p882
(dp883
g19
I0
sg21
I00
sbsg22
(imyEvolve
Tree
p884
(dp885
g19
I0
sg21
I00
sbsg25
I00
sg26
g27
sbsg22
(imyEvolve
Tree
p886
(dp887
g12
(imyEvolve
Tree
p888
(dp889
g19
I0
sg21
I00
sbsg19
I1
sg25
I01
sg26
g43
sbsg25
I00
sg26
g57
sbsg25
I00
sg26
g44
sbsg25
I00
sg26
g44
sba(imyEvolve
Tree
p890
(dp891
g7
(imyEvolve
Tree
p892
(dp893
g7
(imyEvolve
Tree
p894
(dp895
g7
(imyEvolve
Tree
p896
(dp897
g12
(imyEvolve
Tree
p898
(dp899
g12
(imyEvolve
Tree
p900
(dp901
g19
I0
sg20
F-2.1235614659139546
sg21
I01
sbsg19
I1
sg25
I01
sg26
g38
sbsg19
I2
sg25
I01
sg26
g29
sbsg19
I3
sg22
(imyEvolve
Tree
p902
(dp903
g12
(imyEvolve
Tree
p904
(dp905
g12
(imyEvolve
Tree
p906
(dp907
g19
I0
sg21
I00
sbsg19
I1
sg25
I01
sg26
g29
sbsg19
I2
sg25
I01
sg26
g43
sbsg25
I00
sg26
g57
sbsg19
I4
sg22
(imyEvolve
Tree
p908
(dp909
g12
(imyEvolve
Tree
p910
(dp911
g12
(imyEvolve
Tree
p912
(dp913
g12
(imyEvolve
Tree
p914
(dp915
g19
I0
sg21
I00
sbsg19
I1
sg25
I01
sg26
g38
sbsg19
I2
sg25
I01
sg26
g29
sbsg19
I3
sg25
I01
sg26
g28
sbsg25
I00
sg26
g27
sbsg19
I5
sg22
(imyEvolve
Tree
p916
(dp917
g7
(imyEvolve
Tree
p918
(dp919
g7
(imyEvolve
Tree
p920
(dp921
g7
(imyEvolve
Tree
p922
(dp923
g12
(imyEvolve
Tree
p924
(dp925
g19
I0
sg21
I00
sbsg19
I1
sg25
I01
sg26
g38
sbsg19
I2
sg22
(imyEvolve
Tree
p926
(dp927
g12
(imyEvolve
Tree
p928
(dp929
g19
I0
sg20
F-3.0734475442883324
sg21
I01
sbsg19
I1
sg25
I01
sg26
g38
sbsg25
I00
sg26
g44
sbsg19
I3
sg22
(imyEvolve
Tree
p930
(dp931
g12
(imyEvolve
Tree
p932
(dp933
g7
(imyEvolve
Tree
p934
(dp935
g19
I0
sg20
F0.8065632869274166
sg21
I01
sbsg19
I1
sg22
(imyEvolve
Tree
p936
(dp937
g19
I0
sg21
I00
sbsg25
I00
sg26
g44
sbsg19
I2
sg25
I01
sg26
g43
sbsg25
I00
sg26
g27
sbsg19
I4
sg22
(imyEvolve
Tree
p938
(dp939
g12
(imyEvolve
Tree
p940
(dp941
g7
(imyEvolve
Tree
p942
(dp943
g7
(imyEvolve
Tree
p944
(dp945
g19
I0
sg21
I00
sbsg19
I1
sg22
(imyEvolve
Tree
p946
(dp947
g19
I0
sg20
F4.301154903072307
sg21
I01
sbsg25
I00
sg26
g44
sbsg19
I2
sg22
(imyEvolve
Tree
p948
(dp949
g7
(imyEvolve
Tree
p950
(dp951
g19
I0
sg21
I00
sbsg19
I1
sg22
(imyEvolve
Tree
p952
(dp953
g19
I0
sg20
F-2.009175406477004
sg21
I01
sbsg25
I00
sg26
g27
sbsg25
I00
sg26
g27
sbsg19
I3
sg25
I01
sg26
g29
sbsg25
I00
sg26
g44
sbsg25
I00
sg26
g27
sba(imyEvolve
Tree
p954
(dp955
g12
(imyEvolve
Tree
p956
(dp957
g12
(imyEvolve
Tree
p958
(dp959
g7
(imyEvolve
Tree
p960
(dp961
g12
(imyEvolve
Tree
p962
(dp963
g19
I0
sg20
F1.079034952624581
sg21
I01
sbsg19
I1
sg25
I01
sg26
g28
sbsg19
I2
sg22
(imyEvolve
Tree
p964
(dp965
g12
(imyEvolve
Tree
p966
(dp967
g19
I0
sg21
I00
sbsg19
I1
sg25
I01
sg26
g43
sbsg25
I00
sg26
g57
sbsg19
I3
sg25
I01
sg26
g28
sbsg19
I4
sg25
I01
sg26
g29
sba(imyEvolve
Tree
p968
(dp969
g12
(imyEvolve
Tree
p970
(dp971
g12
(imyEvolve
Tree
p972
(dp973
g19
I0
sg20
F1.860302005130066
sg21
I01
sbsg19
I1
sg25
I01
sg26
g38
sbsg19
I2
sg25
I01
sg26
g28
sba(imyEvolve
Tree
p974
(dp975
g7
(imyEvolve
Tree
p976
(dp977
g12
(imyEvolve
Tree
p978
(dp979
g19
I0
sg20
F1.7198692565316556
sg21
I01
sbsg19
I1
sg25
I01
sg26
g43
sbsg19
I2
sg22
(imyEvolve
Tree
p980
(dp981
g12
(imyEvolve
Tree
p982
(dp983
g19
I0
sg20
F2.8804175337243523
sg21
I01
sbsg19
I1
sg25
I01
sg26
g28
sbsg25
I00
sg26
g44
sba(imyEvolve
Tree
p984
(dp985
g12
(imyEvolve
Tree
p986
(dp987
g7
(imyEvolve
Tree
p988
(dp989
g19
I0
sg20
F-0.26615797079395875
sg21
I01
sbsg19
I1
sg22
(imyEvolve
Tree
p990
(dp991
g19
I0
sg21
I00
sbsg25
I00
sg26
g27
sbsg19
I2
sg25
I01
sg26
g29
sba(imyEvolve
Tree
p992
(dp993
g12
(imyEvolve
Tree
p994
(dp995
g7
(imyEvolve
Tree
p996
(dp997
g7
(imyEvolve
Tree
p998
(dp999
g12
(imyEvolve
Tree
p1000
(dp1001
g19
I0
sg21
I00
sbsg19
I1
sg25
I01
sg26
g29
sbsg19
I2
sg22
(imyEvolve
Tree
p1002
(dp1003
g7
(imyEvolve
Tree
p1004
(dp1005
g19
I0
sg21
I00
sbsg19
I1
sg22
(imyEvolve
Tree
p1006
(dp1007
g19
I0
sg21
I00
sbsg25
I00
sg26
g57
sbsg25
I00
sg26
g27
sbsg19
I3
sg22
(imyEvolve
Tree
p1008
(dp1009
g12
(imyEvolve
Tree
p1010
(dp1011
g12
(imyEvolve
Tree
p1012
(dp1013
g19
I0
sg21
I00
sbsg19
I1
sg25
I01
sg26
g43
sbsg19
I2
sg25
I01
sg26
g29
sbsg25
I00
sg26
g27
sbsg19
I4
sg25
I01
sg26
g28
sba(imyEvolve
Tree
p1014
(dp1015
g7
(imyEvolve
Tree
p1016
(dp1017
g7
(imyEvolve
Tree
p1018
(dp1019
g12
(imyEvolve
Tree
p1020
(dp1021
g12
(imyEvolve
Tree
p1022
(dp1023
g19
I0
sg21
I00
sbsg19
I1
sg25
I01
sg26
g43
sbsg19
I2
sg25
I01
sg26
g28
sbsg19
I3
sg22
(imyEvolve
Tree
p1024
(dp1025
g7
(imyEvolve
Tree
p1026
(dp1027
g12
(imyEvolve
Tree
p1028
(dp1029
g19
I0
sg21
I00
sbsg19
I1
sg25
I01
sg26
g38
sbsg19
I2
sg22
(imyEvolve
Tree
p1030
(dp1031
g7
(imyEvolve
Tree
p1032
(dp1033
g19
I0
sg20
F0.5166643911859676
sg21
I01
sbsg19
I1
sg22
(imyEvolve
Tree
p1034
(dp1035
g19
I0
sg20
F2.545024982440367
sg21
I01
sbsg25
I00
sg26
g27
sbsg25
I00
sg26
g57
sbsg25
I00
sg26
g27
sbsg19
I4
sg22
(imyEvolve
Tree
p1036
(dp1037
g12
(imyEvolve
Tree
p1038
(dp1039
g7
(imyEvolve
Tree
p1040
(dp1041
g7
(imyEvolve
Tree
p1042
(dp1043
g19
I0
sg20
F3.0789206330565637
sg21
I01
sbsg19
I1
sg22
(imyEvolve
Tree
p1044
(dp1045
g19
I0
sg20
F0.5934033040547746
sg21
I01
sbsg25
I00
sg26
g27
sbsg19
I2
sg22
(imyEvolve
Tree
p1046
(dp1047
g12
(imyEvolve
Tree
p1048
(dp1049
g19
I0
sg21
I00
sbsg19
I1
sg25
I01
sg26
g29
sbsg25
I00
sg26
g27
sbsg19
I3
sg25
I01
sg26
g29
sbsg25
I00
sg26
g27
sba(imyEvolve
Tree
p1050
(dp1051
g12
(imyEvolve
Tree
p1052
(dp1053
g12
(imyEvolve
Tree
p1054
(dp1055
g7
(imyEvolve
Tree
p1056
(dp1057
g19
I0
sg20
F1.5540374423131
sg21
I01
sbsg19
I1
sg22
(imyEvolve
Tree
p1058
(dp1059
g19
I0
sg20
F-1.6027916877869708
sg21
I01
sbsg25
I00
sg26
g57
sbsg19
I2
sg25
I01
sg26
g43
sbsg19
I3
sg25
I01
sg26
g29
sba(imyEvolve
Tree
p1060
(dp1061
g19
I3
sg7
(imyEvolve
Tree
p1062
(dp1063
g19
I2
sg7
(imyEvolve
Tree
p1064
(dp1065
g19
I1
sg7
(imyEvolve
Tree
p1066
(dp1067
g19
I0
sg21
I00
sbsg22
(imyEvolve
Tree
p1068
(dp1069
g19
I0
sg21
I00
sbsg25
I00
sg26
g44
sbsg22
(imyEvolve
Tree
p1070
(dp1071
g12
(imyEvolve
Tree
p1072
(dp1073
g19
I0
sg20
F-4.960623006732467
sg21
I01
sbsg19
I1
sg25
I01
sg26
g38
sbsg25
I00
sg26
g57
sbsg22
(imyEvolve
Tree
p1074
(dp1075
g19
I2
sg7
(imyEvolve
Tree
p1076
(dp1077
g19
I1
sg7
(imyEvolve
Tree
p1078
(dp1079
g19
I0
sg21
I00
sbsg22
(imyEvolve
Tree
p1080
(dp1081
g19
I0
sg20
F-4.214380269876333
sg21
I01
sbsg25
I00
sg26
g27
sbsg22
(imyEvolve
Tree
p1082
(dp1083
g12
(imyEvolve
Tree
p1084
(dp1085
g19
I0
sg20
F-0.6206238162868294
sg21
I01
sbsg19
I1
sg25
I01
sg26
g28
sbsg25
I00
sg26
g44
sbsg25
I00
sg26
g57
sba(imyEvolve
Tree
p1086
(dp1087
g19
I2
sg7
(imyEvolve
Tree
p1088
(dp1089
g19
I1
sg7
(imyEvolve
Tree
p1090
(dp1091
g19
I0
sg20
F1.7696670523381837
sg21
I01
sbsg22
(imyEvolve
Tree
p1092
(dp1093
g19
I0
sg20
F4.5285813049430566
sg21
I01
sbsg25
I00
sg26
g57
sbsg22
(imyEvolve
Tree
p1094
(dp1095
g19
I1
sg7
(imyEvolve
Tree
p1096
(dp1097
g19
I0
sg20
F0.4486032755150102
sg21
I01
sbsg22
(imyEvolve
Tree
p1098
(dp1099
g19
I0
sg21
I00
sbsg25
I00
sg26
g57
sbsg25
I00
sg26
g27
sba(imyEvolve
Tree
p1100
(dp1101
g19
I3
sg7
(imyEvolve
Tree
p1102
(dp1103
g12
(imyEvolve
Tree
p1104
(dp1105
g19
I1
sg7
(imyEvolve
Tree
p1106
(dp1107
g19
I0
sg20
F-0.967588457686479
sg21
I01
sbsg22
(imyEvolve
Tree
p1108
(dp1109
g19
I0
sg21
I00
sbsg25
I00
sg26
g27
sbsg19
I2
sg25
I01
sg26
g29
sbsg22
(imyEvolve
Tree
p1110
(dp1111
g12
(imyEvolve
Tree
p1112
(dp1113
g19
I1
sg7
(imyEvolve
Tree
p1114
(dp1115
g19
I0
sg21
I00
sbsg22
(imyEvolve
Tree
p1116
(dp1117
g19
I0
sg21
I00
sbsg25
I00
sg26
g57
sbsg19
I2
sg25
I01
sg26
g29
sbsg25
I00
sg26
g57
sba(imyEvolve
Tree
p1118
(dp1119
g12
(imyEvolve
Tree
p1120
(dp1121
g12
(imyEvolve
Tree
p1122
(dp1123
g7
(imyEvolve
Tree
p1124
(dp1125
g19
I0
sg20
F-0.3723743554197121
sg21
I01
sbsg19
I1
sg22
(imyEvolve
Tree
p1126
(dp1127
g19
I0
sg20
F-3.974977288558379
sg21
I01
sbsg25
I00
sg26
g57
sbsg19
I2
sg25
I01
sg26
g43
sbsg19
I3
sg25
I01
sg26
g38
sba(imyEvolve
Tree
p1128
(dp1129
g12
(imyEvolve
Tree
p1130
(dp1131
g12
(imyEvolve
Tree
p1132
(dp1133
g19
I0
sg21
I00
sbsg19
I1
sg25
I01
sg26
g38
sbsg19
I2
sg25
I01
sg26
g43
sbaasS'alpha'
p1134
F0.0012068478921166473
sS'fitness'
p1135
cnumpy.core.multiarray
scalar
p1136
(cnumpy
dtype
p1137
(S'f8'
p1138
I0
I1
tp1139
Rp1140
(I3
S'<'
p1141
NNNI-1
I-1
I0
tp1142
bS'\xa2E\xb6\xb5\xcb\x1e\xe6?'
p1143
tp1144
Rp1145
sS'weightSharing'
p1146
(lp1147
I00
asS'fitnessValid'
p1148
I00
sS'resolution'
p1149
I81
sb.