(imyEvolve
Individual
p0
(dp1
S'funcs'
p2
(lp3
(lp4
(imyEvolve
Tree
p5
(dp6
S'left'
p7
(imyEvolve
Tree
p8
(dp9
S'below'
p10
(imyEvolve
Tree
p11
(dp12
S'depth'
p13
I0
sS'isConstant'
p14
I00
sbsg13
I1
sS'single'
p15
I01
sS'op'
p16
cmyEvolve
square
p17
sbsg13
I2
sS'right'
p18
(imyEvolve
Tree
p19
(dp20
g7
(imyEvolve
Tree
p21
(dp22
g13
I0
sS'constant'
p23
F-1.5327513289949044
sg14
I01
sbsg13
I1
sg18
(imyEvolve
Tree
p24
(dp25
g13
I0
sg23
F0.9729893646949375
sg14
I01
sbsg15
I00
sg16
coperator
mul
p26
sbsg15
I00
sg16
coperator
add
p27
sba(imyEvolve
Tree
p28
(dp29
g7
(imyEvolve
Tree
p30
(dp31
g7
(imyEvolve
Tree
p32
(dp33
g10
(imyEvolve
Tree
p34
(dp35
g7
(imyEvolve
Tree
p36
(dp37
g7
(imyEvolve
Tree
p38
(dp39
g13
I0
sg14
I00
sbsg13
I1
sg18
(imyEvolve
Tree
p40
(dp41
g13
I0
sg23
F2.4842166545595843
sg14
I01
sbsg15
I00
sg16
g27
sbsg13
I2
sg18
(imyEvolve
Tree
p42
(dp43
g10
(imyEvolve
Tree
p44
(dp45
g13
I0
sg23
F-0.48789877059713405
sg14
I01
sbsg13
I1
sg15
I01
sg16
cmyEvolve
absSqrt
p46
sbsg15
I00
sg16
g26
sbsg13
I3
sg15
I01
sg16
cmath
sin
p47
sbsg13
I4
sg18
(imyEvolve
Tree
p48
(dp49
g10
(imyEvolve
Tree
p50
(dp51
g7
(imyEvolve
Tree
p52
(dp53
g7
(imyEvolve
Tree
p54
(dp55
g13
I0
sg23
F4.612358454702882
sg14
I01
sbsg13
I1
sg18
(imyEvolve
Tree
p56
(dp57
g13
I0
sg14
I00
sbsg15
I00
sg16
coperator
sub
p58
sbsg13
I2
sg18
(imyEvolve
Tree
p59
(dp60
g7
(imyEvolve
Tree
p61
(dp62
g13
I0
sg23
F-4.035936047316724
sg14
I01
sbsg13
I1
sg18
(imyEvolve
Tree
p63
(dp64
g13
I0
sg23
F-1.9665436658018445
sg14
I01
sbsg15
I00
sg16
g27
sbsg15
I00
sg16
g58
sbsg13
I3
sg15
I01
sg16
g17
sbsg15
I00
sg16
g27
sbsg13
I5
sg18
(imyEvolve
Tree
p65
(dp66
g7
(imyEvolve
Tree
p67
(dp68
g7
(imyEvolve
Tree
p69
(dp70
g7
(imyEvolve
Tree
p71
(dp72
g7
(imyEvolve
Tree
p73
(dp74
g13
I0
sg23
F-0.35254300800329297
sg14
I01
sbsg13
I1
sg18
(imyEvolve
Tree
p75
(dp76
g13
I0
sg14
I00
sbsg15
I00
sg16
g27
sbsg13
I2
sg18
(imyEvolve
Tree
p77
(dp78
g10
(imyEvolve
Tree
p79
(dp80
g13
I0
sg23
F0.30344584753323645
sg14
I01
sbsg13
I1
sg15
I01
sg16
cmath
cos
p81
sbsg15
I00
sg16
g27
sbsg13
I3
sg18
(imyEvolve
Tree
p82
(dp83
g10
(imyEvolve
Tree
p84
(dp85
g7
(imyEvolve
Tree
p86
(dp87
g13
I0
sg23
F3.4034702550952165
sg14
I01
sbsg13
I1
sg18
(imyEvolve
Tree
p88
(dp89
g13
I0
sg14
I00
sbsg15
I00
sg16
g58
sbsg13
I2
sg15
I01
sg16
g46
sbsg15
I00
sg16
g58
sbsg13
I4
sg18
(imyEvolve
Tree
p90
(dp91
g10
(imyEvolve
Tree
p92
(dp93
g7
(imyEvolve
Tree
p94
(dp95
g10
(imyEvolve
Tree
p96
(dp97
g13
I0
sg23
F-0.7304050358150027
sg14
I01
sbsg13
I1
sg15
I01
sg16
g46
sbsg13
I2
sg18
(imyEvolve
Tree
p98
(dp99
g7
(imyEvolve
Tree
p100
(dp101
g13
I0
sg23
F-2.8963907036153023
sg14
I01
sbsg13
I1
sg18
(imyEvolve
Tree
p102
(dp103
g13
I0
sg14
I00
sbsg15
I00
sg16
g27
sbsg15
I00
sg16
g58
sbsg13
I3
sg15
I01
sg16
g17
sbsg15
I00
sg16
g27
sbsg15
I00
sg16
g27
sba(imyEvolve
Tree
p104
(dp105
g10
(imyEvolve
Tree
p106
(dp107
g7
(imyEvolve
Tree
p108
(dp109
g7
(imyEvolve
Tree
p110
(dp111
g10
(imyEvolve
Tree
p112
(dp113
g13
I0
sg14
I00
sbsg13
I1
sg15
I01
sg16
g47
sbsg13
I2
sg18
(imyEvolve
Tree
p114
(dp115
g10
(imyEvolve
Tree
p116
(dp117
g13
I0
sg14
I00
sbsg13
I1
sg15
I01
sg16
g17
sbsg15
I00
sg16
g26
sbsg13
I3
sg18
(imyEvolve
Tree
p118
(dp119
g7
(imyEvolve
Tree
p120
(dp121
g7
(imyEvolve
Tree
p122
(dp123
g13
I0
sg14
I00
sbsg13
I1
sg18
(imyEvolve
Tree
p124
(dp125
g13
I0
sg23
F-4.090391860496188
sg14
I01
sbsg15
I00
sg16
g58
sbsg13
I2
sg18
(imyEvolve
Tree
p126
(dp127
g10
(imyEvolve
Tree
p128
(dp129
g13
I0
sg23
F2.4475927049836157
sg14
I01
sbsg13
I1
sg15
I01
sg16
g81
sbsg15
I00
sg16
g58
sbsg15
I00
sg16
g26
sbsg13
I4
sg15
I01
sg16
g47
sba(imyEvolve
Tree
p130
(dp131
g10
(imyEvolve
Tree
p132
(dp133
g10
(imyEvolve
Tree
p134
(dp135
g10
(imyEvolve
Tree
p136
(dp137
g10
(imyEvolve
Tree
p138
(dp139
g7
(imyEvolve
Tree
p140
(dp141
g13
I0
sg14
I00
sbsg13
I1
sg18
(imyEvolve
Tree
p142
(dp143
g13
I0
sg23
F0.06780091458725135
sg14
I01
sbsg15
I00
sg16
g58
sbsg13
I2
sg15
I01
sg16
g46
sbsg13
I3
sg15
I01
sg16
g47
sbsg13
I4
sg15
I01
sg16
g81
sbsg13
I5
sg15
I01
sg16
g46
sba(imyEvolve
Tree
p144
(dp145
g10
(imyEvolve
Tree
p146
(dp147
g10
(imyEvolve
Tree
p148
(dp149
g10
(imyEvolve
Tree
p150
(dp151
g7
(imyEvolve
Tree
p152
(dp153
g7
(imyEvolve
Tree
p154
(dp155
g13
I0
sg14
I00
sbsg13
I1
sg18
(imyEvolve
Tree
p156
(dp157
g13
I0
sg23
F0.304838521791857
sg14
I01
sbsg15
I00
sg16
g27
sbsg13
I2
sg18
(imyEvolve
Tree
p158
(dp159
g10
(imyEvolve
Tree
p160
(dp161
g13
I0
sg23
F-1.5030482224032724
sg14
I01
sbsg13
I1
sg15
I01
sg16
g46
sbsg15
I00
sg16
g58
sbsg13
I3
sg15
I01
sg16
g46
sbsg13
I4
sg15
I01
sg16
g46
sbsg13
I5
sg15
I01
sg16
g17
sba(imyEvolve
Tree
p162
(dp163
g7
(imyEvolve
Tree
p164
(dp165
g10
(imyEvolve
Tree
p166
(dp167
g10
(imyEvolve
Tree
p168
(dp169
g7
(imyEvolve
Tree
p170
(dp171
g13
I0
sg23
F-3.8996145352988467
sg14
I01
sbsg13
I1
sg18
(imyEvolve
Tree
p172
(dp173
g13
I0
sg23
F-2.8168975876226234
sg14
I01
sbsg15
I00
sg16
g58
sbsg13
I2
sg15
I01
sg16
g81
sbsg13
I3
sg15
I01
sg16
g17
sbsg13
I4
sg18
(imyEvolve
Tree
p174
(dp175
g7
(imyEvolve
Tree
p176
(dp177
g7
(imyEvolve
Tree
p178
(dp179
g7
(imyEvolve
Tree
p180
(dp181
g13
I0
sg23
F-1.1818719150243986
sg14
I01
sbsg13
I1
sg18
(imyEvolve
Tree
p182
(dp183
g13
I0
sg14
I00
sbsg15
I00
sg16
g26
sbsg13
I2
sg18
(imyEvolve
Tree
p184
(dp185
g7
(imyEvolve
Tree
p186
(dp187
g13
I0
sg23
F-0.266751876691278
sg14
I01
sbsg13
I1
sg18
(imyEvolve
Tree
p188
(dp189
g13
I0
sg14
I00
sbsg15
I00
sg16
g58
sbsg15
I00
sg16
g27
sbsg13
I3
sg18
(imyEvolve
Tree
p190
(dp191
g7
(imyEvolve
Tree
p192
(dp193
g10
(imyEvolve
Tree
p194
(dp195
g13
I0
sg14
I00
sbsg13
I1
sg15
I01
sg16
g81
sbsg13
I2
sg18
(imyEvolve
Tree
p196
(dp197
g10
(imyEvolve
Tree
p198
(dp199
g13
I0
sg23
F0.5789172615681712
sg14
I01
sbsg13
I1
sg15
I01
sg16
g17
sbsg15
I00
sg16
g58
sbsg15
I00
sg16
g27
sbsg15
I00
sg16
g58
sba(imyEvolve
Tree
p200
(dp201
g13
I5
sg7
(imyEvolve
Tree
p202
(dp203
g10
(imyEvolve
Tree
p204
(dp205
g13
I3
sg7
(imyEvolve
Tree
p206
(dp207
g10
(imyEvolve
Tree
p208
(dp209
g10
(imyEvolve
Tree
p210
(dp211
g13
I0
sg14
I00
sbsg13
I1
sg15
I01
sg16
g46
sbsg13
I2
sg15
I01
sg16
g46
sbsg18
(imyEvolve
Tree
p212
(dp213
g13
I2
sg7
(imyEvolve
Tree
p214
(dp215
g10
(imyEvolve
Tree
p216
(dp217
g13
I0
sg14
I00
sbsg13
I1
sg15
I01
sg16
g17
sbsg18
(imyEvolve
Tree
p218
(dp219
g10
(imyEvolve
Tree
p220
(dp221
g13
I0
sg14
I00
sbsg13
I1
sg15
I01
sg16
g81
sbsg15
I00
sg16
g26
sbsg15
I00
sg16
g58
sbsg13
I4
sg15
I01
sg16
g17
sbsg18
(imyEvolve
Tree
p222
(dp223
g10
(imyEvolve
Tree
p224
(dp225
g10
(imyEvolve
Tree
p226
(dp227
g10
(imyEvolve
Tree
p228
(dp229
g10
(imyEvolve
Tree
p230
(dp231
g13
I0
sg14
I00
sbsg13
I1
sg15
I01
sg16
g17
sbsg13
I2
sg15
I01
sg16
g47
sbsg13
I3
sg15
I01
sg16
g47
sbsg13
I4
sg15
I01
sg16
g46
sbsg15
I00
sg16
g26
sba(imyEvolve
Tree
p232
(dp233
g10
(imyEvolve
Tree
p234
(dp235
g10
(imyEvolve
Tree
p236
(dp237
g10
(imyEvolve
Tree
p238
(dp239
g13
I0
sg14
I00
sbsg13
I1
sg15
I01
sg16
g47
sbsg13
I2
sg15
I01
sg16
g47
sbsg13
I3
sg15
I01
sg16
g46
sba(imyEvolve
Tree
p240
(dp241
g10
(imyEvolve
Tree
p242
(dp243
g7
(imyEvolve
Tree
p244
(dp245
g7
(imyEvolve
Tree
p246
(dp247
g13
I0
sg23
F-0.03993167120625429
sg14
I01
sbsg13
I1
sg18
(imyEvolve
Tree
p248
(dp249
g13
I0
sg23
F-0.5149591048081525
sg14
I01
sbsg15
I00
sg16
g58
sbsg13
I2
sg18
(imyEvolve
Tree
p250
(dp251
g7
(imyEvolve
Tree
p252
(dp253
g13
I0
sg23
F2.8233851811766097
sg14
I01
sbsg13
I1
sg18
(imyEvolve
Tree
p254
(dp255
g13
I0
sg23
F3.370592278098014
sg14
I01
sbsg15
I00
sg16
g26
sbsg15
I00
sg16
g58
sbsg13
I3
sg15
I01
sg16
g46
sba(imyEvolve
Tree
p256
(dp257
g10
(imyEvolve
Tree
p258
(dp259
g7
(imyEvolve
Tree
p260
(dp261
g10
(imyEvolve
Tree
p262
(dp263
g13
I0
sg23
F2.0522991062125326
sg14
I01
sbsg13
I1
sg15
I01
sg16
g81
sbsg13
I2
sg18
(imyEvolve
Tree
p264
(dp265
g10
(imyEvolve
Tree
p266
(dp267
g13
I0
sg14
I00
sbsg13
I1
sg15
I01
sg16
g47
sbsg15
I00
sg16
g58
sbsg13
I3
sg15
I01
sg16
g47
sba(imyEvolve
Tree
p268
(dp269
g7
(imyEvolve
Tree
p270
(dp271
g10
(imyEvolve
Tree
p272
(dp273
g13
I0
sg23
F-2.730835104919187
sg14
I01
sbsg13
I1
sg15
I01
sg16
g47
sbsg13
I2
sg18
(imyEvolve
Tree
p274
(dp275
g7
(imyEvolve
Tree
p276
(dp277
g13
I0
sg14
I00
sbsg13
I1
sg18
(imyEvolve
Tree
p278
(dp279
g13
I0
sg14
I00
sbsg15
I00
sg16
g27
sbsg15
I00
sg16
g58
sba(imyEvolve
Tree
p280
(dp281
g10
(imyEvolve
Tree
p282
(dp283
g7
(imyEvolve
Tree
p284
(dp285
g7
(imyEvolve
Tree
p286
(dp287
g10
(imyEvolve
Tree
p288
(dp289
g7
(imyEvolve
Tree
p290
(dp291
g13
I0
sg14
I00
sbsg13
I1
sg18
(imyEvolve
Tree
p292
(dp293
g13
I0
sg23
F-1.0113882231459828
sg14
I01
sbsg15
I00
sg16
g26
sbsg13
I2
sg15
I01
sg16
g17
sbsg13
I3
sg18
(imyEvolve
Tree
p294
(dp295
g7
(imyEvolve
Tree
p296
(dp297
g10
(imyEvolve
Tree
p298
(dp299
g13
I0
sg14
I00
sbsg13
I1
sg15
I01
sg16
g81
sbsg13
I2
sg18
(imyEvolve
Tree
p300
(dp301
g7
(imyEvolve
Tree
p302
(dp303
g13
I0
sg23
F3.210633958772343
sg14
I01
sbsg13
I1
sg18
(imyEvolve
Tree
p304
(dp305
g13
I0
sg23
F1.378123217879164
sg14
I01
sbsg15
I00
sg16
g26
sbsg15
I00
sg16
g27
sbsg15
I00
sg16
g58
sbsg13
I4
sg18
(imyEvolve
Tree
p306
(dp307
g7
(imyEvolve
Tree
p308
(dp309
g10
(imyEvolve
Tree
p310
(dp311
g7
(imyEvolve
Tree
p312
(dp313
g13
I0
sg23
F-2.1788627147389072
sg14
I01
sbsg13
I1
sg18
(imyEvolve
Tree
p314
(dp315
g13
I0
sg14
I00
sbsg15
I00
sg16
g26
sbsg13
I2
sg15
I01
sg16
g46
sbsg13
I3
sg18
(imyEvolve
Tree
p316
(dp317
g7
(imyEvolve
Tree
p318
(dp319
g7
(imyEvolve
Tree
p320
(dp321
g13
I0
sg14
I00
sbsg13
I1
sg18
(imyEvolve
Tree
p322
(dp323
g13
I0
sg14
I00
sbsg15
I00
sg16
g26
sbsg13
I2
sg18
(imyEvolve
Tree
p324
(dp325
g7
(imyEvolve
Tree
p326
(dp327
g13
I0
sg14
I00
sbsg13
I1
sg18
(imyEvolve
Tree
p328
(dp329
g13
I0
sg23
F2.5786830616325327
sg14
I01
sbsg15
I00
sg16
g58
sbsg15
I00
sg16
g26
sbsg15
I00
sg16
g26
sbsg15
I00
sg16
g26
sbsg13
I5
sg15
I01
sg16
g46
sba(imyEvolve
Tree
p330
(dp331
g10
(imyEvolve
Tree
p332
(dp333
g10
(imyEvolve
Tree
p334
(dp335
g10
(imyEvolve
Tree
p336
(dp337
g10
(imyEvolve
Tree
p338
(dp339
g13
I0
sg14
I00
sbsg13
I1
sg15
I01
sg16
g46
sbsg13
I2
sg15
I01
sg16
g46
sbsg13
I3
sg15
I01
sg16
g46
sbsg13
I4
sg15
I01
sg16
g47
sba(imyEvolve
Tree
p340
(dp341
g10
(imyEvolve
Tree
p342
(dp343
g7
(imyEvolve
Tree
p344
(dp345
g10
(imyEvolve
Tree
p346
(dp347
g10
(imyEvolve
Tree
p348
(dp349
g13
I0
sg14
I00
sbsg13
I1
sg15
I01
sg16
g47
sbsg13
I2
sg15
I01
sg16
g47
sbsg13
I3
sg18
(imyEvolve
Tree
p350
(dp351
g10
(imyEvolve
Tree
p352
(dp353
g10
(imyEvolve
Tree
p354
(dp355
g13
I0
sg14
I00
sbsg13
I1
sg15
I01
sg16
g81
sbsg13
I2
sg15
I01
sg16
g81
sbsg15
I00
sg16
g27
sbsg13
I4
sg15
I01
sg16
g17
sba(imyEvolve
Tree
p356
(dp357
g10
(imyEvolve
Tree
p358
(dp359
g7
(imyEvolve
Tree
p360
(dp361
g10
(imyEvolve
Tree
p362
(dp363
g10
(imyEvolve
Tree
p364
(dp365
g13
I0
sg23
F1.2673741460726085
sg14
I01
sbsg13
I1
sg15
I01
sg16
g47
sbsg13
I2
sg15
I01
sg16
g17
sbsg13
I3
sg18
(imyEvolve
Tree
p366
(dp367
g7
(imyEvolve
Tree
p368
(dp369
g7
(imyEvolve
Tree
p370
(dp371
g13
I0
sg14
I00
sbsg13
I1
sg18
(imyEvolve
Tree
p372
(dp373
g13
I0
sg23
F1.1813954358826475
sg14
I01
sbsg15
I00
sg16
g58
sbsg13
I2
sg18
(imyEvolve
Tree
p374
(dp375
g10
(imyEvolve
Tree
p376
(dp377
g13
I0
sg23
F1.9851409186653566
sg14
I01
sbsg13
I1
sg15
I01
sg16
g81
sbsg15
I00
sg16
g26
sbsg15
I00
sg16
g26
sbsg13
I4
sg15
I01
sg16
g46
sba(imyEvolve
Tree
p378
(dp379
g10
(imyEvolve
Tree
p380
(dp381
g13
I1
sg7
(imyEvolve
Tree
p382
(dp383
g13
I0
sg14
I00
sbsg18
(imyEvolve
Tree
p384
(dp385
g13
I0
sg14
I00
sbsg15
I00
sg16
g26
sbsg13
I2
sg15
I01
sg16
g47
sba(imyEvolve
Tree
p386
(dp387
g10
(imyEvolve
Tree
p388
(dp389
g7
(imyEvolve
Tree
p390
(dp391
g10
(imyEvolve
Tree
p392
(dp393
g10
(imyEvolve
Tree
p394
(dp395
g13
I0
sg23
F4.621639351528035
sg14
I01
sbsg13
I1
sg15
I01
sg16
g17
sbsg13
I2
sg15
I01
sg16
g17
sbsg13
I3
sg18
(imyEvolve
Tree
p396
(dp397
g10
(imyEvolve
Tree
p398
(dp399
g7
(imyEvolve
Tree
p400
(dp401
g13
I0
sg14
I00
sbsg13
I1
sg18
(imyEvolve
Tree
p402
(dp403
g13
I0
sg14
I00
sbsg15
I00
sg16
g26
sbsg13
I2
sg15
I01
sg16
g81
sbsg15
I00
sg16
g58
sbsg13
I4
sg15
I01
sg16
g81
sba(imyEvolve
Tree
p404
(dp405
g7
(imyEvolve
Tree
p406
(dp407
g10
(imyEvolve
Tree
p408
(dp409
g7
(imyEvolve
Tree
p410
(dp411
g7
(imyEvolve
Tree
p412
(dp413
g13
I0
sg23
F-2.333072058415188
sg14
I01
sbsg13
I1
sg18
(imyEvolve
Tree
p414
(dp415
g13
I0
sg14
I00
sbsg15
I00
sg16
g26
sbsg13
I2
sg18
(imyEvolve
Tree
p416
(dp417
g10
(imyEvolve
Tree
p418
(dp419
g13
I0
sg14
I00
sbsg13
I1
sg15
I01
sg16
g81
sbsg15
I00
sg16
g58
sbsg13
I3
sg15
I01
sg16
g81
sbsg13
I4
sg18
(imyEvolve
Tree
p420
(dp421
g7
(imyEvolve
Tree
p422
(dp423
g10
(imyEvolve
Tree
p424
(dp425
g10
(imyEvolve
Tree
p426
(dp427
g13
I0
sg14
I00
sbsg13
I1
sg15
I01
sg16
g81
sbsg13
I2
sg15
I01
sg16
g17
sbsg13
I3
sg18
(imyEvolve
Tree
p428
(dp429
g7
(imyEvolve
Tree
p430
(dp431
g10
(imyEvolve
Tree
p432
(dp433
g13
I0
sg23
F-1.1860108469205057
sg14
I01
sbsg13
I1
sg15
I01
sg16
g47
sbsg13
I2
sg18
(imyEvolve
Tree
p434
(dp435
g7
(imyEvolve
Tree
p436
(dp437
g13
I0
sg14
I00
sbsg13
I1
sg18
(imyEvolve
Tree
p438
(dp439
g13
I0
sg14
I00
sbsg15
I00
sg16
g26
sbsg15
I00
sg16
g26
sbsg15
I00
sg16
g26
sbsg15
I00
sg16
g58
sba(imyEvolve
Tree
p440
(dp441
g7
(imyEvolve
Tree
p442
(dp443
g7
(imyEvolve
Tree
p444
(dp445
g7
(imyEvolve
Tree
p446
(dp447
g7
(imyEvolve
Tree
p448
(dp449
g13
I0
sg23
F-1.3856725040700613
sg14
I01
sbsg13
I1
sg18
(imyEvolve
Tree
p450
(dp451
g13
I0
sg23
F-2.6666571928058036
sg14
I01
sbsg15
I00
sg16
g58
sbsg13
I2
sg18
(imyEvolve
Tree
p452
(dp453
g7
(imyEvolve
Tree
p454
(dp455
g13
I0
sg23
F4.74265453836958
sg14
I01
sbsg13
I1
sg18
(imyEvolve
Tree
p456
(dp457
g13
I0
sg14
I00
sbsg15
I00
sg16
g27
sbsg15
I00
sg16
g58
sbsg13
I3
sg18
(imyEvolve
Tree
p458
(dp459
g7
(imyEvolve
Tree
p460
(dp461
g7
(imyEvolve
Tree
p462
(dp463
g13
I0
sg23
F-4.571888899603472
sg14
I01
sbsg13
I1
sg18
(imyEvolve
Tree
p464
(dp465
g13
I0
sg14
I00
sbsg15
I00
sg16
g26
sbsg13
I2
sg18
(imyEvolve
Tree
p466
(dp467
g7
(imyEvolve
Tree
p468
(dp469
g13
I0
sg14
I00
sbsg13
I1
sg18
(imyEvolve
Tree
p470
(dp471
g13
I0
sg23
F-4.238122781513663
sg14
I01
sbsg15
I00
sg16
g58
sbsg15
I00
sg16
g27
sbsg15
I00
sg16
g58
sbsg13
I4
sg18
(imyEvolve
Tree
p472
(dp473
g10
(imyEvolve
Tree
p474
(dp475
g7
(imyEvolve
Tree
p476
(dp477
g10
(imyEvolve
Tree
p478
(dp479
g13
I0
sg23
F-4.899822936894786
sg14
I01
sbsg13
I1
sg15
I01
sg16
g81
sbsg13
I2
sg18
(imyEvolve
Tree
p480
(dp481
g10
(imyEvolve
Tree
p482
(dp483
g13
I0
sg23
F0.8133443715456803
sg14
I01
sbsg13
I1
sg15
I01
sg16
g81
sbsg15
I00
sg16
g26
sbsg13
I3
sg15
I01
sg16
g81
sbsg15
I00
sg16
g27
sbaa(lp484
(imyEvolve
Tree
p485
(dp486
g10
(imyEvolve
Tree
p487
(dp488
g7
(imyEvolve
Tree
p489
(dp490
g7
(imyEvolve
Tree
p491
(dp492
g10
(imyEvolve
Tree
p493
(dp494
g13
I0
sg23
F-0.5177396789217017
sg14
I01
sbsg13
I1
sg15
I01
sg16
g46
sbsg13
I2
sg18
(imyEvolve
Tree
p495
(dp496
g10
(imyEvolve
Tree
p497
(dp498
g13
I0
sg23
F-2.9952610245265
sg14
I01
sbsg13
I1
sg15
I01
sg16
g46
sbsg15
I00
sg16
g26
sbsg13
I3
sg18
(imyEvolve
Tree
p499
(dp500
g7
(imyEvolve
Tree
p501
(dp502
g10
(imyEvolve
Tree
p503
(dp504
g13
I0
sg23
F4.85832124502879
sg14
I01
sbsg13
I1
sg15
I01
sg16
g47
sbsg13
I2
sg18
(imyEvolve
Tree
p505
(dp506
g10
(imyEvolve
Tree
p507
(dp508
g13
I0
sg14
I00
sbsg13
I1
sg15
I01
sg16
g17
sbsg15
I00
sg16
g58
sbsg15
I00
sg16
g58
sbsg13
I4
sg15
I01
sg16
g46
sba(imyEvolve
Tree
p509
(dp510
g7
(imyEvolve
Tree
p511
(dp512
g10
(imyEvolve
Tree
p513
(dp514
g13
I0
sg23
F-4.102018097452792
sg14
I01
sbsg13
I1
sg15
I01
sg16
g47
sbsg13
I2
sg18
(imyEvolve
Tree
p515
(dp516
g10
(imyEvolve
Tree
p517
(dp518
g13
I0
sg23
F-1.103799335200696
sg14
I01
sbsg13
I1
sg15
I01
sg16
g17
sbsg15
I00
sg16
g58
sba(imyEvolve
Tree
p519
(dp520
g7
(imyEvolve
Tree
p521
(dp522
g10
(imyEvolve
Tree
p523
(dp524
g13
I0
sg14
I00
sbsg13
I1
sg15
I01
sg16
g81
sbsg13
I2
sg18
(imyEvolve
Tree
p525
(dp526
g7
(imyEvolve
Tree
p527
(dp528
g13
I0
sg14
I00
sbsg13
I1
sg18
(imyEvolve
Tree
p529
(dp530
g13
I0
sg14
I00
sbsg15
I00
sg16
g27
sbsg15
I00
sg16
g27
sba(imyEvolve
Tree
p531
(dp532
g7
(imyEvolve
Tree
p533
(dp534
g10
(imyEvolve
Tree
p535
(dp536
g7
(imyEvolve
Tree
p537
(dp538
g10
(imyEvolve
Tree
p539
(dp540
g13
I0
sg14
I00
sbsg13
I1
sg15
I01
sg16
g46
sbsg13
I2
sg18
(imyEvolve
Tree
p541
(dp542
g7
(imyEvolve
Tree
p543
(dp544
g13
I0
sg23
F-1.3856565181639366
sg14
I01
sbsg13
I1
sg18
(imyEvolve
Tree
p545
(dp546
g13
I0
sg14
I00
sbsg15
I00
sg16
g26
sbsg15
I00
sg16
g58
sbsg13
I3
sg15
I01
sg16
g47
sbsg13
I4
sg18
(imyEvolve
Tree
p547
(dp548
g7
(imyEvolve
Tree
p549
(dp550
g10
(imyEvolve
Tree
p551
(dp552
g10
(imyEvolve
Tree
p553
(dp554
g13
I0
sg23
F-4.664571699332604
sg14
I01
sbsg13
I1
sg15
I01
sg16
g17
sbsg13
I2
sg15
I01
sg16
g81
sbsg13
I3
sg18
(imyEvolve
Tree
p555
(dp556
g7
(imyEvolve
Tree
p557
(dp558
g7
(imyEvolve
Tree
p559
(dp560
g13
I0
sg14
I00
sbsg13
I1
sg18
(imyEvolve
Tree
p561
(dp562
g13
I0
sg23
F4.061115404924191
sg14
I01
sbsg15
I00
sg16
g58
sbsg13
I2
sg18
(imyEvolve
Tree
p563
(dp564
g7
(imyEvolve
Tree
p565
(dp566
g13
I0
sg14
I00
sbsg13
I1
sg18
(imyEvolve
Tree
p567
(dp568
g13
I0
sg23
F-0.8345457042793845
sg14
I01
sbsg15
I00
sg16
g27
sbsg15
I00
sg16
g27
sbsg15
I00
sg16
g27
sbsg15
I00
sg16
g27
sba(imyEvolve
Tree
p569
(dp570
g7
(imyEvolve
Tree
p571
(dp572
g7
(imyEvolve
Tree
p573
(dp574
g10
(imyEvolve
Tree
p575
(dp576
g7
(imyEvolve
Tree
p577
(dp578
g10
(imyEvolve
Tree
p579
(dp580
g13
I0
sg14
I00
sbsg13
I1
sg15
I01
sg16
g47
sbsg13
I2
sg18
(imyEvolve
Tree
p581
(dp582
g10
(imyEvolve
Tree
p583
(dp584
g13
I0
sg23
F-1.495007676420422
sg14
I01
sbsg13
I1
sg15
I01
sg16
g17
sbsg15
I00
sg16
g27
sbsg13
I3
sg15
I01
sg16
g81
sbsg13
I4
sg18
(imyEvolve
Tree
p585
(dp586
g7
(imyEvolve
Tree
p587
(dp588
g10
(imyEvolve
Tree
p589
(dp590
g10
(imyEvolve
Tree
p591
(dp592
g13
I0
sg23
F-1.0584899895778257
sg14
I01
sbsg13
I1
sg15
I01
sg16
g81
sbsg13
I2
sg15
I01
sg16
g47
sbsg13
I3
sg18
(imyEvolve
Tree
p593
(dp594
g10
(imyEvolve
Tree
p595
(dp596
g7
(imyEvolve
Tree
p597
(dp598
g13
I0
sg14
I00
sbsg13
I1
sg18
(imyEvolve
Tree
p599
(dp600
g13
I0
sg14
I00
sbsg15
I00
sg16
g58
sbsg13
I2
sg15
I01
sg16
g47
sbsg15
I00
sg16
g58
sbsg15
I00
sg16
g58
sbsg13
I5
sg18
(imyEvolve
Tree
p601
(dp602
g7
(imyEvolve
Tree
p603
(dp604
g10
(imyEvolve
Tree
p605
(dp606
g10
(imyEvolve
Tree
p607
(dp608
g7
(imyEvolve
Tree
p609
(dp610
g13
I0
sg23
F-4.053300571933121
sg14
I01
sbsg13
I1
sg18
(imyEvolve
Tree
p611
(dp612
g13
I0
sg14
I00
sbsg15
I00
sg16
g26
sbsg13
I2
sg15
I01
sg16
g46
sbsg13
I3
sg15
I01
sg16
g17
sbsg13
I4
sg18
(imyEvolve
Tree
p613
(dp614
g7
(imyEvolve
Tree
p615
(dp616
g7
(imyEvolve
Tree
p617
(dp618
g10
(imyEvolve
Tree
p619
(dp620
g13
I0
sg14
I00
sbsg13
I1
sg15
I01
sg16
g81
sbsg13
I2
sg18
(imyEvolve
Tree
p621
(dp622
g10
(imyEvolve
Tree
p623
(dp624
g13
I0
sg23
F-1.716418313909621
sg14
I01
sbsg13
I1
sg15
I01
sg16
g47
sbsg15
I00
sg16
g58
sbsg13
I3
sg18
(imyEvolve
Tree
p625
(dp626
g7
(imyEvolve
Tree
p627
(dp628
g7
(imyEvolve
Tree
p629
(dp630
g13
I0
sg23
F4.600271725428852
sg14
I01
sbsg13
I1
sg18
(imyEvolve
Tree
p631
(dp632
g13
I0
sg23
F1.686821794750771
sg14
I01
sbsg15
I00
sg16
g26
sbsg13
I2
sg18
(imyEvolve
Tree
p633
(dp634
g10
(imyEvolve
Tree
p635
(dp636
g13
I0
sg23
F4.459644316834634
sg14
I01
sbsg13
I1
sg15
I01
sg16
g81
sbsg15
I00
sg16
g26
sbsg15
I00
sg16
g26
sbsg15
I00
sg16
g26
sbsg15
I00
sg16
g27
sba(imyEvolve
Tree
p637
(dp638
g7
(imyEvolve
Tree
p639
(dp640
g7
(imyEvolve
Tree
p641
(dp642
g10
(imyEvolve
Tree
p643
(dp644
g13
I0
sg14
I00
sbsg13
I1
sg15
I01
sg16
g47
sbsg13
I2
sg18
(imyEvolve
Tree
p645
(dp646
g10
(imyEvolve
Tree
p647
(dp648
g13
I0
sg23
F-2.714371031844326
sg14
I01
sbsg13
I1
sg15
I01
sg16
g17
sbsg15
I00
sg16
g26
sbsg13
I3
sg18
(imyEvolve
Tree
p649
(dp650
g10
(imyEvolve
Tree
p651
(dp652
g10
(imyEvolve
Tree
p653
(dp654
g13
I0
sg23
F-0.4915607658529506
sg14
I01
sbsg13
I1
sg15
I01
sg16
g17
sbsg13
I2
sg15
I01
sg16
g81
sbsg15
I00
sg16
g26
sba(imyEvolve
Tree
p655
(dp656
g13
I3
sg7
(imyEvolve
Tree
p657
(dp658
g13
I2
sg7
(imyEvolve
Tree
p659
(dp660
g10
(imyEvolve
Tree
p661
(dp662
g13
I0
sg14
I00
sbsg13
I1
sg15
I01
sg16
g47
sbsg18
(imyEvolve
Tree
p663
(dp664
g10
(imyEvolve
Tree
p665
(dp666
g13
I0
sg23
F-1.3218519095235095
sg14
I01
sbsg13
I1
sg15
I01
sg16
g46
sbsg15
I00
sg16
g26
sbsg18
(imyEvolve
Tree
p667
(dp668
g10
(imyEvolve
Tree
p669
(dp670
g13
I1
sg7
(imyEvolve
Tree
p671
(dp672
g13
I0
sg23
F4.913712509239684
sg14
I01
sbsg18
(imyEvolve
Tree
p673
(dp674
g13
I0
sg14
I00
sbsg15
I00
sg16
g58
sbsg13
I2
sg15
I01
sg16
g47
sbsg15
I00
sg16
g58
sba(imyEvolve
Tree
p675
(dp676
g7
(imyEvolve
Tree
p677
(dp678
g10
(imyEvolve
Tree
p679
(dp680
g7
(imyEvolve
Tree
p681
(dp682
g7
(imyEvolve
Tree
p683
(dp684
g10
(imyEvolve
Tree
p685
(dp686
g13
I0
sg23
F0.07053482830773916
sg14
I01
sbsg13
I1
sg15
I01
sg16
g47
sbsg13
I2
sg18
(imyEvolve
Tree
p687
(dp688
g7
(imyEvolve
Tree
p689
(dp690
g13
I0
sg14
I00
sbsg13
I1
sg18
(imyEvolve
Tree
p691
(dp692
g13
I0
sg14
I00
sbsg15
I00
sg16
g27
sbsg15
I00
sg16
g27
sbsg13
I3
sg18
(imyEvolve
Tree
p693
(dp694
g7
(imyEvolve
Tree
p695
(dp696
g7
(imyEvolve
Tree
p697
(dp698
g13
I0
sg14
I00
sbsg13
I1
sg18
(imyEvolve
Tree
p699
(dp700
g13
I0
sg14
I00
sbsg15
I00
sg16
g27
sbsg13
I2
sg18
(imyEvolve
Tree
p701
(dp702
g7
(imyEvolve
Tree
p703
(dp704
g13
I0
sg14
I00
sbsg13
I1
sg18
(imyEvolve
Tree
p705
(dp706
g13
I0
sg14
I00
sbsg15
I00
sg16
g26
sbsg15
I00
sg16
g58
sbsg15
I00
sg16
g58
sbsg13
I4
sg15
I01
sg16
g81
sbsg13
I5
sg18
(imyEvolve
Tree
p707
(dp708
g10
(imyEvolve
Tree
p709
(dp710
g7
(imyEvolve
Tree
p711
(dp712
g7
(imyEvolve
Tree
p713
(dp714
g7
(imyEvolve
Tree
p715
(dp716
g13
I0
sg14
I00
sbsg13
I1
sg18
(imyEvolve
Tree
p717
(dp718
g13
I0
sg14
I00
sbsg15
I00
sg16
g26
sbsg13
I2
sg18
(imyEvolve
Tree
p719
(dp720
g7
(imyEvolve
Tree
p721
(dp722
g13
I0
sg23
F3.051346654255127
sg14
I01
sbsg13
I1
sg18
(imyEvolve
Tree
p723
(dp724
g13
I0
sg14
I00
sbsg15
I00
sg16
g27
sbsg15
I00
sg16
g26
sbsg13
I3
sg18
(imyEvolve
Tree
p725
(dp726
g7
(imyEvolve
Tree
p727
(dp728
g7
(imyEvolve
Tree
p729
(dp730
g13
I0
sg14
I00
sbsg13
I1
sg18
(imyEvolve
Tree
p731
(dp732
g13
I0
sg14
I00
sbsg15
I00
sg16
g58
sbsg13
I2
sg18
(imyEvolve
Tree
p733
(dp734
g10
(imyEvolve
Tree
p735
(dp736
g13
I0
sg14
I00
sbsg13
I1
sg15
I01
sg16
g46
sbsg15
I00
sg16
g27
sbsg15
I00
sg16
g27
sbsg13
I4
sg15
I01
sg16
g47
sbsg15
I00
sg16
g27
sba(imyEvolve
Tree
p737
(dp738
g7
(imyEvolve
Tree
p739
(dp740
g7
(imyEvolve
Tree
p741
(dp742
g13
I0
sg23
F-4.477638229545947
sg14
I01
sbsg13
I1
sg18
(imyEvolve
Tree
p743
(dp744
g13
I0
sg14
I00
sbsg15
I00
sg16
g26
sbsg13
I2
sg18
(imyEvolve
Tree
p745
(dp746
g10
(imyEvolve
Tree
p747
(dp748
g13
I0
sg23
F3.587499140363162
sg14
I01
sbsg13
I1
sg15
I01
sg16
g46
sbsg15
I00
sg16
g58
sba(imyEvolve
Tree
p749
(dp750
g10
(imyEvolve
Tree
p751
(dp752
g10
(imyEvolve
Tree
p753
(dp754
g10
(imyEvolve
Tree
p755
(dp756
g7
(imyEvolve
Tree
p757
(dp758
g13
I0
sg23
F4.004720502461838
sg14
I01
sbsg13
I1
sg18
(imyEvolve
Tree
p759
(dp760
g13
I0
sg14
I00
sbsg15
I00
sg16
g26
sbsg13
I2
sg15
I01
sg16
g47
sbsg13
I3
sg15
I01
sg16
g46
sbsg13
I4
sg15
I01
sg16
g17
sba(imyEvolve
Tree
p761
(dp762
g10
(imyEvolve
Tree
p763
(dp764
g7
(imyEvolve
Tree
p765
(dp766
g13
I0
sg23
F-3.479478107695284
sg14
I01
sbsg13
I1
sg18
(imyEvolve
Tree
p767
(dp768
g13
I0
sg23
F-1.6758953675370467
sg14
I01
sbsg15
I00
sg16
g58
sbsg13
I2
sg15
I01
sg16
g81
sba(imyEvolve
Tree
p769
(dp770
g7
(imyEvolve
Tree
p771
(dp772
g10
(imyEvolve
Tree
p773
(dp774
g10
(imyEvolve
Tree
p775
(dp776
g10
(imyEvolve
Tree
p777
(dp778
g13
I0
sg14
I00
sbsg13
I1
sg15
I01
sg16
g46
sbsg13
I2
sg15
I01
sg16
g17
sbsg13
I3
sg15
I01
sg16
g81
sbsg13
I4
sg18
(imyEvolve
Tree
p779
(dp780
g10
(imyEvolve
Tree
p781
(dp782
g7
(imyEvolve
Tree
p783
(dp784
g7
(imyEvolve
Tree
p785
(dp786
g13
I0
sg23
F0.8533206227983179
sg14
I01
sbsg13
I1
sg18
(imyEvolve
Tree
p787
(dp788
g13
I0
sg14
I00
sbsg15
I00
sg16
g58
sbsg13
I2
sg18
(imyEvolve
Tree
p789
(dp790
g10
(imyEvolve
Tree
p791
(dp792
g13
I0
sg14
I00
sbsg13
I1
sg15
I01
sg16
g17
sbsg15
I00
sg16
g58
sbsg13
I3
sg15
I01
sg16
g47
sbsg15
I00
sg16
g27
sba(imyEvolve
Tree
p793
(dp794
g10
(imyEvolve
Tree
p795
(dp796
g7
(imyEvolve
Tree
p797
(dp798
g13
I0
sg23
F0.5924679435789333
sg14
I01
sbsg13
I1
sg18
(imyEvolve
Tree
p799
(dp800
g13
I0
sg14
I00
sbsg15
I00
sg16
g26
sbsg13
I2
sg15
I01
sg16
g81
sba(imyEvolve
Tree
p801
(dp802
g7
(imyEvolve
Tree
p803
(dp804
g10
(imyEvolve
Tree
p805
(dp806
g10
(imyEvolve
Tree
p807
(dp808
g10
(imyEvolve
Tree
p809
(dp810
g10
(imyEvolve
Tree
p811
(dp812
g13
I0
sg23
F-1.580039613297969
sg14
I01
sbsg13
I1
sg15
I01
sg16
g46
sbsg13
I2
sg15
I01
sg16
g17
sbsg13
I3
sg15
I01
sg16
g17
sbsg13
I4
sg15
I01
sg16
g17
sbsg13
I5
sg18
(imyEvolve
Tree
p813
(dp814
g7
(imyEvolve
Tree
p815
(dp816
g10
(imyEvolve
Tree
p817
(dp818
g10
(imyEvolve
Tree
p819
(dp820
g7
(imyEvolve
Tree
p821
(dp822
g13
I0
sg14
I00
sbsg13
I1
sg18
(imyEvolve
Tree
p823
(dp824
g13
I0
sg14
I00
sbsg15
I00
sg16
g27
sbsg13
I2
sg15
I01
sg16
g17
sbsg13
I3
sg15
I01
sg16
g17
sbsg13
I4
sg18
(imyEvolve
Tree
p825
(dp826
g10
(imyEvolve
Tree
p827
(dp828
g10
(imyEvolve
Tree
p829
(dp830
g10
(imyEvolve
Tree
p831
(dp832
g13
I0
sg23
F-1.3052000480599588
sg14
I01
sbsg13
I1
sg15
I01
sg16
g17
sbsg13
I2
sg15
I01
sg16
g46
sbsg13
I3
sg15
I01
sg16
g17
sbsg15
I00
sg16
g58
sbsg15
I00
sg16
g27
sba(imyEvolve
Tree
p833
(dp834
g7
(imyEvolve
Tree
p835
(dp836
g7
(imyEvolve
Tree
p837
(dp838
g7
(imyEvolve
Tree
p839
(dp840
g10
(imyEvolve
Tree
p841
(dp842
g13
I0
sg23
F3.110522686969542
sg14
I01
sbsg13
I1
sg15
I01
sg16
g46
sbsg13
I2
sg18
(imyEvolve
Tree
p843
(dp844
g7
(imyEvolve
Tree
p845
(dp846
g13
I0
sg23
F3.5497262842872743
sg14
I01
sbsg13
I1
sg18
(imyEvolve
Tree
p847
(dp848
g13
I0
sg23
F4.287766952472632
sg14
I01
sbsg15
I00
sg16
g58
sbsg15
I00
sg16
g58
sbsg13
I3
sg18
(imyEvolve
Tree
p849
(dp850
g10
(imyEvolve
Tree
p851
(dp852
g7
(imyEvolve
Tree
p853
(dp854
g13
I0
sg23
F2.819410729463386
sg14
I01
sbsg13
I1
sg18
(imyEvolve
Tree
p855
(dp856
g13
I0
sg23
F-1.1342960213841713
sg14
I01
sbsg15
I00
sg16
g26
sbsg13
I2
sg15
I01
sg16
g17
sbsg15
I00
sg16
g27
sbsg13
I4
sg18
(imyEvolve
Tree
p857
(dp858
g10
(imyEvolve
Tree
p859
(dp860
g10
(imyEvolve
Tree
p861
(dp862
g10
(imyEvolve
Tree
p863
(dp864
g13
I0
sg14
I00
sbsg13
I1
sg15
I01
sg16
g46
sbsg13
I2
sg15
I01
sg16
g17
sbsg13
I3
sg15
I01
sg16
g47
sbsg15
I00
sg16
g58
sba(imyEvolve
Tree
p865
(dp866
g7
(imyEvolve
Tree
p867
(dp868
g7
(imyEvolve
Tree
p869
(dp870
g7
(imyEvolve
Tree
p871
(dp872
g10
(imyEvolve
Tree
p873
(dp874
g13
I0
sg14
I00
sbsg13
I1
sg15
I01
sg16
g47
sbsg13
I2
sg18
(imyEvolve
Tree
p875
(dp876
g7
(imyEvolve
Tree
p877
(dp878
g13
I0
sg14
I00
sbsg13
I1
sg18
(imyEvolve
Tree
p879
(dp880
g13
I0
sg23
F-4.920340509286749
sg14
I01
sbsg15
I00
sg16
g26
sbsg15
I00
sg16
g58
sbsg13
I3
sg18
(imyEvolve
Tree
p881
(dp882
g10
(imyEvolve
Tree
p883
(dp884
g7
(imyEvolve
Tree
p885
(dp886
g13
I0
sg14
I00
sbsg13
I1
sg18
(imyEvolve
Tree
p887
(dp888
g13
I0
sg23
F4.575555976558526
sg14
I01
sbsg15
I00
sg16
g27
sbsg13
I2
sg15
I01
sg16
g46
sbsg15
I00
sg16
g27
sbsg13
I4
sg18
(imyEvolve
Tree
p889
(dp890
g7
(imyEvolve
Tree
p891
(dp892
g10
(imyEvolve
Tree
p893
(dp894
g10
(imyEvolve
Tree
p895
(dp896
g13
I0
sg23
F0.1331008107027012
sg14
I01
sbsg13
I1
sg15
I01
sg16
g17
sbsg13
I2
sg15
I01
sg16
g47
sbsg13
I3
sg18
(imyEvolve
Tree
p897
(dp898
g7
(imyEvolve
Tree
p899
(dp900
g10
(imyEvolve
Tree
p901
(dp902
g13
I0
sg23
F-2.7967584422862766
sg14
I01
sbsg13
I1
sg15
I01
sg16
g46
sbsg13
I2
sg18
(imyEvolve
Tree
p903
(dp904
g10
(imyEvolve
Tree
p905
(dp906
g13
I0
sg23
F3.7810310734289594
sg14
I01
sbsg13
I1
sg15
I01
sg16
g17
sbsg15
I00
sg16
g58
sbsg15
I00
sg16
g58
sbsg15
I00
sg16
g26
sba(imyEvolve
Tree
p907
(dp908
g7
(imyEvolve
Tree
p909
(dp910
g7
(imyEvolve
Tree
p911
(dp912
g10
(imyEvolve
Tree
p913
(dp914
g10
(imyEvolve
Tree
p915
(dp916
g13
I0
sg14
I00
sbsg13
I1
sg15
I01
sg16
g81
sbsg13
I2
sg15
I01
sg16
g46
sbsg13
I3
sg18
(imyEvolve
Tree
p917
(dp918
g7
(imyEvolve
Tree
p919
(dp920
g10
(imyEvolve
Tree
p921
(dp922
g13
I0
sg14
I00
sbsg13
I1
sg15
I01
sg16
g47
sbsg13
I2
sg18
(imyEvolve
Tree
p923
(dp924
g7
(imyEvolve
Tree
p925
(dp926
g13
I0
sg14
I00
sbsg13
I1
sg18
(imyEvolve
Tree
p927
(dp928
g13
I0
sg23
F4.863990904785201
sg14
I01
sbsg15
I00
sg16
g26
sbsg15
I00
sg16
g26
sbsg15
I00
sg16
g26
sbsg13
I4
sg18
(imyEvolve
Tree
p929
(dp930
g10
(imyEvolve
Tree
p931
(dp932
g10
(imyEvolve
Tree
p933
(dp934
g7
(imyEvolve
Tree
p935
(dp936
g13
I0
sg23
F3.6586648237888557
sg14
I01
sbsg13
I1
sg18
(imyEvolve
Tree
p937
(dp938
g13
I0
sg14
I00
sbsg15
I00
sg16
g26
sbsg13
I2
sg15
I01
sg16
g17
sbsg13
I3
sg15
I01
sg16
g46
sbsg15
I00
sg16
g58
sbaa(lp939
(imyEvolve
Tree
p940
(dp941
g10
(imyEvolve
Tree
p942
(dp943
g7
(imyEvolve
Tree
p944
(dp945
g7
(imyEvolve
Tree
p946
(dp947
g7
(imyEvolve
Tree
p948
(dp949
g7
(imyEvolve
Tree
p950
(dp951
g13
I0
sg14
I00
sbsg13
I1
sg18
(imyEvolve
Tree
p952
(dp953
g13
I0
sg23
F-1.3956777795380306
sg14
I01
sbsg15
I00
sg16
g58
sbsg13
I2
sg18
(imyEvolve
Tree
p954
(dp955
g10
(imyEvolve
Tree
p956
(dp957
g13
I0
sg14
I00
sbsg13
I1
sg15
I01
sg16
g81
sbsg15
I00
sg16
g58
sbsg13
I3
sg18
(imyEvolve
Tree
p958
(dp959
g10
(imyEvolve
Tree
p960
(dp961
g10
(imyEvolve
Tree
p962
(dp963
g13
I0
sg14
I00
sbsg13
I1
sg15
I01
sg16
g46
sbsg13
I2
sg15
I01
sg16
g47
sbsg15
I00
sg16
g27
sbsg13
I4
sg18
(imyEvolve
Tree
p964
(dp965
g10
(imyEvolve
Tree
p966
(dp967
g10
(imyEvolve
Tree
p968
(dp969
g7
(imyEvolve
Tree
p970
(dp971
g13
I0
sg14
I00
sbsg13
I1
sg18
(imyEvolve
Tree
p972
(dp973
g13
I0
sg14
I00
sbsg15
I00
sg16
g26
sbsg13
I2
sg15
I01
sg16
g17
sbsg13
I3
sg15
I01
sg16
g17
sbsg15
I00
sg16
g26
sbsg13
I5
sg15
I01
sg16
g17
sba(imyEvolve
Tree
p974
(dp975
g7
(imyEvolve
Tree
p976
(dp977
g7
(imyEvolve
Tree
p978
(dp979
g10
(imyEvolve
Tree
p980
(dp981
g7
(imyEvolve
Tree
p982
(dp983
g10
(imyEvolve
Tree
p984
(dp985
g13
I0
sg14
I00
sbsg13
I1
sg15
I01
sg16
g17
sbsg13
I2
sg18
(imyEvolve
Tree
p986
(dp987
g7
(imyEvolve
Tree
p988
(dp989
g13
I0
sg14
I00
sbsg13
I1
sg18
(imyEvolve
Tree
p990
(dp991
g13
I0
sg14
I00
sbsg15
I00
sg16
g27
sbsg15
I00
sg16
g27
sbsg13
I3
sg15
I01
sg16
g81
sbsg13
I4
sg18
(imyEvolve
Tree
p992
(dp993
g10
(imyEvolve
Tree
p994
(dp995
g7
(imyEvolve
Tree
p996
(dp997
g7
(imyEvolve
Tree
p998
(dp999
g13
I0
sg23
F0.032535151273632934
sg14
I01
sbsg13
I1
sg18
(imyEvolve
Tree
p1000
(dp1001
g13
I0
sg23
F-4.010705466895673
sg14
I01
sbsg15
I00
sg16
g26
sbsg13
I2
sg18
(imyEvolve
Tree
p1002
(dp1003
g7
(imyEvolve
Tree
p1004
(dp1005
g13
I0
sg14
I00
sbsg13
I1
sg18
(imyEvolve
Tree
p1006
(dp1007
g13
I0
sg23
F3.0567870152411345
sg14
I01
sbsg15
I00
sg16
g26
sbsg15
I00
sg16
g27
sbsg13
I3
sg15
I01
sg16
g46
sbsg15
I00
sg16
g58
sbsg13
I5
sg18
(imyEvolve
Tree
p1008
(dp1009
g10
(imyEvolve
Tree
p1010
(dp1011
g10
(imyEvolve
Tree
p1012
(dp1013
g7
(imyEvolve
Tree
p1014
(dp1015
g7
(imyEvolve
Tree
p1016
(dp1017
g13
I0
sg23
F1.3566357771950122
sg14
I01
sbsg13
I1
sg18
(imyEvolve
Tree
p1018
(dp1019
g13
I0
sg23
F-1.7038694910070817
sg14
I01
sbsg15
I00
sg16
g58
sbsg13
I2
sg18
(imyEvolve
Tree
p1020
(dp1021
g7
(imyEvolve
Tree
p1022
(dp1023
g13
I0
sg23
F-4.805202609685566
sg14
I01
sbsg13
I1
sg18
(imyEvolve
Tree
p1024
(dp1025
g13
I0
sg14
I00
sbsg15
I00
sg16
g26
sbsg15
I00
sg16
g27
sbsg13
I3
sg15
I01
sg16
g47
sbsg13
I4
sg15
I01
sg16
g46
sbsg15
I00
sg16
g26
sba(imyEvolve
Tree
p1026
(dp1027
g10
(imyEvolve
Tree
p1028
(dp1029
g7
(imyEvolve
Tree
p1030
(dp1031
g7
(imyEvolve
Tree
p1032
(dp1033
g13
I0
sg23
F3.1456975748575573
sg14
I01
sbsg13
I1
sg18
(imyEvolve
Tree
p1034
(dp1035
g13
I0
sg14
I00
sbsg15
I00
sg16
g58
sbsg13
I2
sg18
(imyEvolve
Tree
p1036
(dp1037
g10
(imyEvolve
Tree
p1038
(dp1039
g13
I0
sg14
I00
sbsg13
I1
sg15
I01
sg16
g17
sbsg15
I00
sg16
g26
sbsg13
I3
sg15
I01
sg16
g17
sba(imyEvolve
Tree
p1040
(dp1041
g7
(imyEvolve
Tree
p1042
(dp1043
g10
(imyEvolve
Tree
p1044
(dp1045
g13
I0
sg14
I00
sbsg13
I1
sg15
I01
sg16
g81
sbsg13
I2
sg18
(imyEvolve
Tree
p1046
(dp1047
g7
(imyEvolve
Tree
p1048
(dp1049
g13
I0
sg23
F1.0073655632145915
sg14
I01
sbsg13
I1
sg18
(imyEvolve
Tree
p1050
(dp1051
g13
I0
sg14
I00
sbsg15
I00
sg16
g27
sbsg15
I00
sg16
g58
sba(imyEvolve
Tree
p1052
(dp1053
g10
(imyEvolve
Tree
p1054
(dp1055
g10
(imyEvolve
Tree
p1056
(dp1057
g7
(imyEvolve
Tree
p1058
(dp1059
g10
(imyEvolve
Tree
p1060
(dp1061
g13
I0
sg23
F1.2792557121007562
sg14
I01
sbsg13
I1
sg15
I01
sg16
g47
sbsg13
I2
sg18
(imyEvolve
Tree
p1062
(dp1063
g7
(imyEvolve
Tree
p1064
(dp1065
g13
I0
sg14
I00
sbsg13
I1
sg18
(imyEvolve
Tree
p1066
(dp1067
g13
I0
sg23
F-1.933007594728763
sg14
I01
sbsg15
I00
sg16
g58
sbsg15
I00
sg16
g27
sbsg13
I3
sg15
I01
sg16
g46
sbsg13
I4
sg15
I01
sg16
g47
sba(imyEvolve
Tree
p1068
(dp1069
g10
(imyEvolve
Tree
p1070
(dp1071
g10
(imyEvolve
Tree
p1072
(dp1073
g10
(imyEvolve
Tree
p1074
(dp1075
g7
(imyEvolve
Tree
p1076
(dp1077
g10
(imyEvolve
Tree
p1078
(dp1079
g13
I0
sg23
F0.4238345021920109
sg14
I01
sbsg13
I1
sg15
I01
sg16
g47
sbsg13
I2
sg18
(imyEvolve
Tree
p1080
(dp1081
g7
(imyEvolve
Tree
p1082
(dp1083
g13
I0
sg23
F-4.0424621588014755
sg14
I01
sbsg13
I1
sg18
(imyEvolve
Tree
p1084
(dp1085
g13
I0
sg23
F-0.5251291177365509
sg14
I01
sbsg15
I00
sg16
g27
sbsg15
I00
sg16
g26
sbsg13
I3
sg15
I01
sg16
g47
sbsg13
I4
sg15
I01
sg16
g47
sbsg13
I5
sg15
I01
sg16
g46
sba(imyEvolve
Tree
p1086
(dp1087
g10
(imyEvolve
Tree
p1088
(dp1089
g7
(imyEvolve
Tree
p1090
(dp1091
g13
I0
sg14
I00
sbsg13
I1
sg18
(imyEvolve
Tree
p1092
(dp1093
g13
I0
sg23
F2.8982093822512036
sg14
I01
sbsg15
I00
sg16
g58
sbsg13
I2
sg15
I01
sg16
g17
sba(imyEvolve
Tree
p1094
(dp1095
g7
(imyEvolve
Tree
p1096
(dp1097
g7
(imyEvolve
Tree
p1098
(dp1099
g13
I0
sg23
F1.909221571340999
sg14
I01
sbsg13
I1
sg18
(imyEvolve
Tree
p1100
(dp1101
g13
I0
sg23
F0.1717035768885724
sg14
I01
sbsg15
I00
sg16
g27
sbsg13
I2
sg18
(imyEvolve
Tree
p1102
(dp1103
g10
(imyEvolve
Tree
p1104
(dp1105
g13
I0
sg23
F-1.1466521072567781
sg14
I01
sbsg13
I1
sg15
I01
sg16
g47
sbsg15
I00
sg16
g27
sba(imyEvolve
Tree
p1106
(dp1107
g7
(imyEvolve
Tree
p1108
(dp1109
g10
(imyEvolve
Tree
p1110
(dp1111
g13
I0
sg23
F2.0040809612078325
sg14
I01
sbsg13
I1
sg15
I01
sg16
g46
sbsg13
I2
sg18
(imyEvolve
Tree
p1112
(dp1113
g10
(imyEvolve
Tree
p1114
(dp1115
g13
I0
sg23
F-1.5210632673941293
sg14
I01
sbsg13
I1
sg15
I01
sg16
g81
sbsg15
I00
sg16
g26
sba(imyEvolve
Tree
p1116
(dp1117
g13
I5
sg7
(imyEvolve
Tree
p1118
(dp1119
g10
(imyEvolve
Tree
p1120
(dp1121
g13
I3
sg7
(imyEvolve
Tree
p1122
(dp1123
g13
I2
sg7
(imyEvolve
Tree
p1124
(dp1125
g13
I1
sg7
(imyEvolve
Tree
p1126
(dp1127
g13
I0
sg14
I00
sbsg18
(imyEvolve
Tree
p1128
(dp1129
g13
I0
sg14
I00
sbsg15
I00
sg16
g27
sbsg18
(imyEvolve
Tree
p1130
(dp1131
g10
(imyEvolve
Tree
p1132
(dp1133
g13
I0
sg23
F1.455636884225978
sg14
I01
sbsg13
I1
sg15
I01
sg16
g81
sbsg15
I00
sg16
g27
sbsg18
(imyEvolve
Tree
p1134
(dp1135
g10
(imyEvolve
Tree
p1136
(dp1137
g13
I1
sg7
(imyEvolve
Tree
p1138
(dp1139
g13
I0
sg14
I00
sbsg18
(imyEvolve
Tree
p1140
(dp1141
g13
I0
sg23
F-4.524149379172943
sg14
I01
sbsg15
I00
sg16
g26
sbsg13
I2
sg15
I01
sg16
g17
sbsg15
I00
sg16
g27
sbsg13
I4
sg15
I01
sg16
g47
sbsg18
(imyEvolve
Tree
p1142
(dp1143
g13
I4
sg7
(imyEvolve
Tree
p1144
(dp1145
g13
I3
sg7
(imyEvolve
Tree
p1146
(dp1147
g10
(imyEvolve
Tree
p1148
(dp1149
g10
(imyEvolve
Tree
p1150
(dp1151
g13
I0
sg23
F1.2147737366561149
sg14
I01
sbsg13
I1
sg15
I01
sg16
g81
sbsg13
I2
sg15
I01
sg16
g47
sbsg18
(imyEvolve
Tree
p1152
(dp1153
g13
I2
sg7
(imyEvolve
Tree
p1154
(dp1155
g13
I1
sg7
(imyEvolve
Tree
p1156
(dp1157
g13
I0
sg14
I00
sbsg18
(imyEvolve
Tree
p1158
(dp1159
g13
I0
sg23
F-0.6345073891577071
sg14
I01
sbsg15
I00
sg16
g27
sbsg18
(imyEvolve
Tree
p1160
(dp1161
g13
I1
sg7
(imyEvolve
Tree
p1162
(dp1163
g13
I0
sg14
I00
sbsg18
(imyEvolve
Tree
p1164
(dp1165
g13
I0
sg23
F-4.78694639740472
sg14
I01
sbsg15
I00
sg16
g27
sbsg15
I00
sg16
g27
sbsg15
I00
sg16
g58
sbsg18
(imyEvolve
Tree
p1166
(dp1167
g13
I3
sg7
(imyEvolve
Tree
p1168
(dp1169
g13
I2
sg7
(imyEvolve
Tree
p1170
(dp1171
g10
(imyEvolve
Tree
p1172
(dp1173
g13
I0
sg23
F1.9089568606989786
sg14
I01
sbsg13
I1
sg15
I01
sg16
g46
sbsg18
(imyEvolve
Tree
p1174
(dp1175
g13
I1
sg7
(imyEvolve
Tree
p1176
(dp1177
g13
I0
sg23
F0.12314216475079753
sg14
I01
sbsg18
(imyEvolve
Tree
p1178
(dp1179
g13
I0
sg23
F-1.6525359531490613
sg14
I01
sbsg15
I00
sg16
g27
sbsg15
I00
sg16
g27
sbsg18
(imyEvolve
Tree
p1180
(dp1181
g13
I2
sg7
(imyEvolve
Tree
p1182
(dp1183
g13
I1
sg7
(imyEvolve
Tree
p1184
(dp1185
g13
I0
sg14
I00
sbsg18
(imyEvolve
Tree
p1186
(dp1187
g13
I0
sg23
F2.871600800453522
sg14
I01
sbsg15
I00
sg16
g26
sbsg18
(imyEvolve
Tree
p1188
(dp1189
g10
(imyEvolve
Tree
p1190
(dp1191
g13
I0
sg14
I00
sbsg13
I1
sg15
I01
sg16
g47
sbsg15
I00
sg16
g58
sbsg15
I00
sg16
g26
sbsg15
I00
sg16
g27
sbsg15
I00
sg16
g27
sba(imyEvolve
Tree
p1192
(dp1193
g10
(imyEvolve
Tree
p1194
(dp1195
g13
I4
sg7
(imyEvolve
Tree
p1196
(dp1197
g13
I3
sg7
(imyEvolve
Tree
p1198
(dp1199
g13
I2
sg7
(imyEvolve
Tree
p1200
(dp1201
g10
(imyEvolve
Tree
p1202
(dp1203
g13
I0
sg14
I00
sbsg13
I1
sg15
I01
sg16
g17
sbsg18
(imyEvolve
Tree
p1204
(dp1205
g13
I1
sg7
(imyEvolve
Tree
p1206
(dp1207
g13
I0
sg14
I00
sbsg18
(imyEvolve
Tree
p1208
(dp1209
g13
I0
sg23
F-4.6550742943067025
sg14
I01
sbsg15
I00
sg16
g26
sbsg15
I00
sg16
g26
sbsg18
(imyEvolve
Tree
p1210
(dp1211
g13
I2
sg7
(imyEvolve
Tree
p1212
(dp1213
g10
(imyEvolve
Tree
p1214
(dp1215
g13
I0
sg14
I00
sbsg13
I1
sg15
I01
sg16
g17
sbsg18
(imyEvolve
Tree
p1216
(dp1217
g13
I1
sg7
(imyEvolve
Tree
p1218
(dp1219
g13
I0
sg14
I00
sbsg18
(imyEvolve
Tree
p1220
(dp1221
g13
I0
sg14
I00
sbsg15
I00
sg16
g27
sbsg15
I00
sg16
g27
sbsg15
I00
sg16
g27
sbsg18
(imyEvolve
Tree
p1222
(dp1223
g13
I3
sg7
(imyEvolve
Tree
p1224
(dp1225
g10
(imyEvolve
Tree
p1226
(dp1227
g13
I1
sg7
(imyEvolve
Tree
p1228
(dp1229
g13
I0
sg23
F2.51618449150659
sg14
I01
sbsg18
(imyEvolve
Tree
p1230
(dp1231
g13
I0
sg23
F3.7286389436054392
sg14
I01
sbsg15
I00
sg16
g27
sbsg13
I2
sg15
I01
sg16
g81
sbsg18
(imyEvolve
Tree
p1232
(dp1233
g10
(imyEvolve
Tree
p1234
(dp1235
g10
(imyEvolve
Tree
p1236
(dp1237
g13
I0
sg14
I00
sbsg13
I1
sg15
I01
sg16
g81
sbsg13
I2
sg15
I01
sg16
g46
sbsg15
I00
sg16
g27
sbsg15
I00
sg16
g26
sbsg13
I5
sg15
I01
sg16
g47
sba(imyEvolve
Tree
p1238
(dp1239
g13
I2
sg7
(imyEvolve
Tree
p1240
(dp1241
g13
I1
sg7
(imyEvolve
Tree
p1242
(dp1243
g13
I0
sg23
F0.28543433979037935
sg14
I01
sbsg18
(imyEvolve
Tree
p1244
(dp1245
g13
I0
sg23
F-2.7787492214845013
sg14
I01
sbsg15
I00
sg16
g26
sbsg18
(imyEvolve
Tree
p1246
(dp1247
g10
(imyEvolve
Tree
p1248
(dp1249
g13
I0
sg14
I00
sbsg13
I1
sg15
I01
sg16
g47
sbsg15
I00
sg16
g58
sbaa(lp1250
(imyEvolve
Tree
p1251
(dp1252
g7
(imyEvolve
Tree
p1253
(dp1254
g7
(imyEvolve
Tree
p1255
(dp1256
g7
(imyEvolve
Tree
p1257
(dp1258
g7
(imyEvolve
Tree
p1259
(dp1260
g10
(imyEvolve
Tree
p1261
(dp1262
g13
I0
sg14
I00
sbsg13
I1
sg15
I01
sg16
g81
sbsg13
I2
sg18
(imyEvolve
Tree
p1263
(dp1264
g7
(imyEvolve
Tree
p1265
(dp1266
g13
I0
sg23
F-2.743911455839384
sg14
I01
sbsg13
I1
sg18
(imyEvolve
Tree
p1267
(dp1268
g13
I0
sg23
F-1.7772390996308953
sg14
I01
sbsg15
I00
sg16
g58
sbsg15
I00
sg16
g27
sbsg13
I3
sg18
(imyEvolve
Tree
p1269
(dp1270
g10
(imyEvolve
Tree
p1271
(dp1272
g7
(imyEvolve
Tree
p1273
(dp1274
g13
I0
sg23
F1.1383517873787063
sg14
I01
sbsg13
I1
sg18
(imyEvolve
Tree
p1275
(dp1276
g13
I0
sg23
F-4.877651328175979
sg14
I01
sbsg15
I00
sg16
g27
sbsg13
I2
sg15
I01
sg16
g46
sbsg15
I00
sg16
g58
sbsg13
I4
sg18
(imyEvolve
Tree
p1277
(dp1278
g7
(imyEvolve
Tree
p1279
(dp1280
g10
(imyEvolve
Tree
p1281
(dp1282
g10
(imyEvolve
Tree
p1283
(dp1284
g13
I0
sg14
I00
sbsg13
I1
sg15
I01
sg16
g46
sbsg13
I2
sg15
I01
sg16
g46
sbsg13
I3
sg18
(imyEvolve
Tree
p1285
(dp1286
g7
(imyEvolve
Tree
p1287
(dp1288
g10
(imyEvolve
Tree
p1289
(dp1290
g13
I0
sg14
I00
sbsg13
I1
sg15
I01
sg16
g81
sbsg13
I2
sg18
(imyEvolve
Tree
p1291
(dp1292
g10
(imyEvolve
Tree
p1293
(dp1294
g13
I0
sg14
I00
sbsg13
I1
sg15
I01
sg16
g81
sbsg15
I00
sg16
g27
sbsg15
I00
sg16
g27
sbsg15
I00
sg16
g27
sbsg13
I5
sg18
(imyEvolve
Tree
p1295
(dp1296
g10
(imyEvolve
Tree
p1297
(dp1298
g10
(imyEvolve
Tree
p1299
(dp1300
g10
(imyEvolve
Tree
p1301
(dp1302
g10
(imyEvolve
Tree
p1303
(dp1304
g13
I0
sg14
I00
sbsg13
I1
sg15
I01
sg16
g81
sbsg13
I2
sg15
I01
sg16
g81
sbsg13
I3
sg15
I01
sg16
g46
sbsg13
I4
sg15
I01
sg16
g81
sbsg15
I00
sg16
g58
sba(imyEvolve
Tree
p1305
(dp1306
g10
(imyEvolve
Tree
p1307
(dp1308
g10
(imyEvolve
Tree
p1309
(dp1310
g10
(imyEvolve
Tree
p1311
(dp1312
g13
I1
sg7
(imyEvolve
Tree
p1313
(dp1314
g13
I0
sg14
I00
sbsg18
(imyEvolve
Tree
p1315
(dp1316
g13
I0
sg14
I00
sbsg15
I00
sg16
g27
sbsg13
I2
sg15
I01
sg16
g17
sbsg13
I3
sg15
I01
sg16
g81
sbsg13
I4
sg15
I01
sg16
g81
sba(imyEvolve
Tree
p1317
(dp1318
g10
(imyEvolve
Tree
p1319
(dp1320
g10
(imyEvolve
Tree
p1321
(dp1322
g7
(imyEvolve
Tree
p1323
(dp1324
g7
(imyEvolve
Tree
p1325
(dp1326
g7
(imyEvolve
Tree
p1327
(dp1328
g13
I0
sg14
I00
sbsg13
I1
sg18
(imyEvolve
Tree
p1329
(dp1330
g13
I0
sg23
F-0.6433655500260986
sg14
I01
sbsg15
I00
sg16
g26
sbsg13
I2
sg18
(imyEvolve
Tree
p1331
(dp1332
g7
(imyEvolve
Tree
p1333
(dp1334
g13
I0
sg14
I00
sbsg13
I1
sg18
(imyEvolve
Tree
p1335
(dp1336
g13
I0
sg14
I00
sbsg15
I00
sg16
g26
sbsg15
I00
sg16
g27
sbsg13
I3
sg18
(imyEvolve
Tree
p1337
(dp1338
g10
(imyEvolve
Tree
p1339
(dp1340
g7
(imyEvolve
Tree
p1341
(dp1342
g13
I0
sg14
I00
sbsg13
I1
sg18
(imyEvolve
Tree
p1343
(dp1344
g13
I0
sg23
F2.94861295901791
sg14
I01
sbsg15
I00
sg16
g27
sbsg13
I2
sg15
I01
sg16
g47
sbsg15
I00
sg16
g26
sbsg13
I4
sg15
I01
sg16
g81
sbsg13
I5
sg15
I01
sg16
g47
sba(imyEvolve
Tree
p1345
(dp1346
g13
I5
sg7
(imyEvolve
Tree
p1347
(dp1348
g10
(imyEvolve
Tree
p1349
(dp1350
g13
I3
sg7
(imyEvolve
Tree
p1351
(dp1352
g10
(imyEvolve
Tree
p1353
(dp1354
g10
(imyEvolve
Tree
p1355
(dp1356
g13
I0
sg23
F-1.7443980754137058
sg14
I01
sbsg13
I1
sg15
I01
sg16
g81
sbsg13
I2
sg15
I01
sg16
g46
sbsg18
(imyEvolve
Tree
p1357
(dp1358
g13
I2
sg7
(imyEvolve
Tree
p1359
(dp1360
g10
(imyEvolve
Tree
p1361
(dp1362
g13
I0
sg23
F4.702349415594851
sg14
I01
sbsg13
I1
sg15
I01
sg16
g46
sbsg18
(imyEvolve
Tree
p1363
(dp1364
g13
I1
sg7
(imyEvolve
Tree
p1365
(dp1366
g13
I0
sg14
I00
sbsg18
(imyEvolve
Tree
p1367
(dp1368
g13
I0
sg14
I00
sbsg15
I00
sg16
g27
sbsg15
I00
sg16
g58
sbsg15
I00
sg16
g26
sbsg13
I4
sg15
I01
sg16
g17
sbsg18
(imyEvolve
Tree
p1369
(dp1370
g10
(imyEvolve
Tree
p1371
(dp1372
g13
I3
sg7
(imyEvolve
Tree
p1373
(dp1374
g13
I2
sg7
(imyEvolve
Tree
p1375
(dp1376
g10
(imyEvolve
Tree
p1377
(dp1378
g13
I0
sg14
I00
sbsg13
I1
sg15
I01
sg16
g81
sbsg18
(imyEvolve
Tree
p1379
(dp1380
g13
I1
sg7
(imyEvolve
Tree
p1381
(dp1382
g13
I0
sg23
F1.1069472598957129
sg14
I01
sbsg18
(imyEvolve
Tree
p1383
(dp1384
g13
I0
sg14
I00
sbsg15
I00
sg16
g58
sbsg15
I00
sg16
g26
sbsg18
(imyEvolve
Tree
p1385
(dp1386
g10
(imyEvolve
Tree
p1387
(dp1388
g13
I1
sg7
(imyEvolve
Tree
p1389
(dp1390
g13
I0
sg23
F-4.2717255164122925
sg14
I01
sbsg18
(imyEvolve
Tree
p1391
(dp1392
g13
I0
sg14
I00
sbsg15
I00
sg16
g58
sbsg13
I2
sg15
I01
sg16
g46
sbsg15
I00
sg16
g26
sbsg13
I4
sg15
I01
sg16
g81
sbsg15
I00
sg16
g26
sba(imyEvolve
Tree
p1393
(dp1394
g7
(imyEvolve
Tree
p1395
(dp1396
g10
(imyEvolve
Tree
p1397
(dp1398
g10
(imyEvolve
Tree
p1399
(dp1400
g10
(imyEvolve
Tree
p1401
(dp1402
g10
(imyEvolve
Tree
p1403
(dp1404
g13
I0
sg23
F-3.001831422167476
sg14
I01
sbsg13
I1
sg15
I01
sg16
g81
sbsg13
I2
sg15
I01
sg16
g46
sbsg13
I3
sg15
I01
sg16
g46
sbsg13
I4
sg15
I01
sg16
g81
sbsg13
I5
sg18
(imyEvolve
Tree
p1405
(dp1406
g7
(imyEvolve
Tree
p1407
(dp1408
g10
(imyEvolve
Tree
p1409
(dp1410
g7
(imyEvolve
Tree
p1411
(dp1412
g10
(imyEvolve
Tree
p1413
(dp1414
g13
I0
sg23
F-1.8652378696750205
sg14
I01
sbsg13
I1
sg15
I01
sg16
g81
sbsg13
I2
sg18
(imyEvolve
Tree
p1415
(dp1416
g10
(imyEvolve
Tree
p1417
(dp1418
g13
I0
sg23
F0.2310779613222298
sg14
I01
sbsg13
I1
sg15
I01
sg16
g17
sbsg15
I00
sg16
g26
sbsg13
I3
sg15
I01
sg16
g17
sbsg13
I4
sg18
(imyEvolve
Tree
p1419
(dp1420
g10
(imyEvolve
Tree
p1421
(dp1422
g10
(imyEvolve
Tree
p1423
(dp1424
g10
(imyEvolve
Tree
p1425
(dp1426
g13
I0
sg14
I00
sbsg13
I1
sg15
I01
sg16
g17
sbsg13
I2
sg15
I01
sg16
g81
sbsg13
I3
sg15
I01
sg16
g46
sbsg15
I00
sg16
g26
sbsg15
I00
sg16
g26
sba(imyEvolve
Tree
p1427
(dp1428
g13
I5
sg7
(imyEvolve
Tree
p1429
(dp1430
g13
I4
sg7
(imyEvolve
Tree
p1431
(dp1432
g10
(imyEvolve
Tree
p1433
(dp1434
g10
(imyEvolve
Tree
p1435
(dp1436
g10
(imyEvolve
Tree
p1437
(dp1438
g13
I0
sg23
F1.7697278214462298
sg14
I01
sbsg13
I1
sg15
I01
sg16
g17
sbsg13
I2
sg15
I01
sg16
g17
sbsg13
I3
sg15
I01
sg16
g46
sbsg18
(imyEvolve
Tree
p1439
(dp1440
g10
(imyEvolve
Tree
p1441
(dp1442
g13
I2
sg7
(imyEvolve
Tree
p1443
(dp1444
g13
I1
sg7
(imyEvolve
Tree
p1445
(dp1446
g13
I0
sg23
F-2.7631286990209034
sg14
I01
sbsg18
(imyEvolve
Tree
p1447
(dp1448
g13
I0
sg23
F-4.87602349684223
sg14
I01
sbsg15
I00
sg16
g58
sbsg18
(imyEvolve
Tree
p1449
(dp1450
g13
I1
sg7
(imyEvolve
Tree
p1451
(dp1452
g13
I0
sg14
I00
sbsg18
(imyEvolve
Tree
p1453
(dp1454
g13
I0
sg23
F-2.3877907323868564
sg14
I01
sbsg15
I00
sg16
g58
sbsg15
I00
sg16
g26
sbsg13
I3
sg15
I01
sg16
g17
sbsg15
I00
sg16
g27
sbsg18
(imyEvolve
Tree
p1455
(dp1456
g10
(imyEvolve
Tree
p1457
(dp1458
g13
I3
sg7
(imyEvolve
Tree
p1459
(dp1460
g10
(imyEvolve
Tree
p1461
(dp1462
g13
I1
sg7
(imyEvolve
Tree
p1463
(dp1464
g13
I0
sg14
I00
sbsg18
(imyEvolve
Tree
p1465
(dp1466
g13
I0
sg23
F-1.1497322984629244
sg14
I01
sbsg15
I00
sg16
g27
sbsg13
I2
sg15
I01
sg16
g81
sbsg18
(imyEvolve
Tree
p1467
(dp1468
g10
(imyEvolve
Tree
p1469
(dp1470
g10
(imyEvolve
Tree
p1471
(dp1472
g13
I0
sg23
F4.455385774394115
sg14
I01
sbsg13
I1
sg15
I01
sg16
g17
sbsg13
I2
sg15
I01
sg16
g81
sbsg15
I00
sg16
g27
sbsg13
I4
sg15
I01
sg16
g17
sbsg15
I00
sg16
g27
sba(imyEvolve
Tree
p1473
(dp1474
g10
(imyEvolve
Tree
p1475
(dp1476
g13
I4
sg7
(imyEvolve
Tree
p1477
(dp1478
g13
I3
sg7
(imyEvolve
Tree
p1479
(dp1480
g10
(imyEvolve
Tree
p1481
(dp1482
g13
I1
sg7
(imyEvolve
Tree
p1483
(dp1484
g13
I0
sg23
F-4.7698227472854455
sg14
I01
sbsg18
(imyEvolve
Tree
p1485
(dp1486
g13
I0
sg23
F3.2831414120592566
sg14
I01
sbsg15
I00
sg16
g27
sbsg13
I2
sg15
I01
sg16
g47
sbsg18
(imyEvolve
Tree
p1487
(dp1488
g13
I2
sg7
(imyEvolve
Tree
p1489
(dp1490
g13
I1
sg7
(imyEvolve
Tree
p1491
(dp1492
g13
I0
sg23
F1.5001562999000804
sg14
I01
sbsg18
(imyEvolve
Tree
p1493
(dp1494
g13
I0
sg23
F-0.8083165118316504
sg14
I01
sbsg15
I00
sg16
g26
sbsg18
(imyEvolve
Tree
p1495
(dp1496
g10
(imyEvolve
Tree
p1497
(dp1498
g13
I0
sg23
F1.2874556993097697
sg14
I01
sbsg13
I1
sg15
I01
sg16
g81
sbsg15
I00
sg16
g27
sbsg15
I00
sg16
g27
sbsg18
(imyEvolve
Tree
p1499
(dp1500
g10
(imyEvolve
Tree
p1501
(dp1502
g13
I2
sg7
(imyEvolve
Tree
p1503
(dp1504
g13
I1
sg7
(imyEvolve
Tree
p1505
(dp1506
g13
I0
sg14
I00
sbsg18
(imyEvolve
Tree
p1507
(dp1508
g13
I0
sg14
I00
sbsg15
I00
sg16
g58
sbsg18
(imyEvolve
Tree
p1509
(dp1510
g10
(imyEvolve
Tree
p1511
(dp1512
g13
I0
sg14
I00
sbsg13
I1
sg15
I01
sg16
g17
sbsg15
I00
sg16
g58
sbsg13
I3
sg15
I01
sg16
g46
sbsg15
I00
sg16
g26
sbsg13
I5
sg15
I01
sg16
g17
sba(imyEvolve
Tree
p1513
(dp1514
g13
I3
sg7
(imyEvolve
Tree
p1515
(dp1516
g10
(imyEvolve
Tree
p1517
(dp1518
g10
(imyEvolve
Tree
p1519
(dp1520
g13
I0
sg23
F-4.8105470888625295
sg14
I01
sbsg13
I1
sg15
I01
sg16
g17
sbsg13
I2
sg15
I01
sg16
g47
sbsg18
(imyEvolve
Tree
p1521
(dp1522
g10
(imyEvolve
Tree
p1523
(dp1524
g13
I1
sg7
(imyEvolve
Tree
p1525
(dp1526
g13
I0
sg14
I00
sbsg18
(imyEvolve
Tree
p1527
(dp1528
g13
I0
sg14
I00
sbsg15
I00
sg16
g26
sbsg13
I2
sg15
I01
sg16
g17
sbsg15
I00
sg16
g58
sba(imyEvolve
Tree
p1529
(dp1530
g7
(imyEvolve
Tree
p1531
(dp1532
g10
(imyEvolve
Tree
p1533
(dp1534
g13
I0
sg23
F-4.313384958442853
sg14
I01
sbsg13
I1
sg15
I01
sg16
g81
sbsg13
I2
sg18
(imyEvolve
Tree
p1535
(dp1536
g7
(imyEvolve
Tree
p1537
(dp1538
g13
I0
sg23
F2.748024528332609
sg14
I01
sbsg13
I1
sg18
(imyEvolve
Tree
p1539
(dp1540
g13
I0
sg14
I00
sbsg15
I00
sg16
g26
sbsg15
I00
sg16
g26
sba(imyEvolve
Tree
p1541
(dp1542
g13
I4
sg7
(imyEvolve
Tree
p1543
(dp1544
g10
(imyEvolve
Tree
p1545
(dp1546
g13
I2
sg7
(imyEvolve
Tree
p1547
(dp1548
g13
I1
sg7
(imyEvolve
Tree
p1549
(dp1550
g13
I0
sg23
F3.153352971966573
sg14
I01
sbsg18
(imyEvolve
Tree
p1551
(dp1552
g13
I0
sg23
F-4.470936238454202
sg14
I01
sbsg15
I00
sg16
g26
sbsg18
(imyEvolve
Tree
p1553
(dp1554
g10
(imyEvolve
Tree
p1555
(dp1556
g13
I0
sg23
F-0.5787293166244636
sg14
I01
sbsg13
I1
sg15
I01
sg16
g17
sbsg15
I00
sg16
g26
sbsg13
I3
sg15
I01
sg16
g46
sbsg18
(imyEvolve
Tree
p1557
(dp1558
g10
(imyEvolve
Tree
p1559
(dp1560
g13
I2
sg7
(imyEvolve
Tree
p1561
(dp1562
g13
I1
sg7
(imyEvolve
Tree
p1563
(dp1564
g13
I0
sg23
F1.4051000334563826
sg14
I01
sbsg18
(imyEvolve
Tree
p1565
(dp1566
g13
I0
sg23
F-3.71343200912471
sg14
I01
sbsg15
I00
sg16
g58
sbsg18
(imyEvolve
Tree
p1567
(dp1568
g10
(imyEvolve
Tree
p1569
(dp1570
g13
I0
sg14
I00
sbsg13
I1
sg15
I01
sg16
g17
sbsg15
I00
sg16
g58
sbsg13
I3
sg15
I01
sg16
g46
sbsg15
I00
sg16
g27
sba(imyEvolve
Tree
p1571
(dp1572
g10
(imyEvolve
Tree
p1573
(dp1574
g10
(imyEvolve
Tree
p1575
(dp1576
g13
I0
sg23
F2.291281480866145
sg14
I01
sbsg13
I1
sg15
I01
sg16
g81
sbsg13
I2
sg15
I01
sg16
g47
sba(imyEvolve
Tree
p1577
(dp1578
g10
(imyEvolve
Tree
p1579
(dp1580
g10
(imyEvolve
Tree
p1581
(dp1582
g10
(imyEvolve
Tree
p1583
(dp1584
g13
I0
sg23
F-0.2566455936625287
sg14
I01
sbsg13
I1
sg15
I01
sg16
g17
sbsg13
I2
sg15
I01
sg16
g47
sbsg13
I3
sg15
I01
sg16
g47
sba(imyEvolve
Tree
p1585
(dp1586
g10
(imyEvolve
Tree
p1587
(dp1588
g7
(imyEvolve
Tree
p1589
(dp1590
g7
(imyEvolve
Tree
p1591
(dp1592
g7
(imyEvolve
Tree
p1593
(dp1594
g7
(imyEvolve
Tree
p1595
(dp1596
g13
I0
sg14
I00
sbsg13
I1
sg18
(imyEvolve
Tree
p1597
(dp1598
g13
I0
sg23
F-4.549928205391498
sg14
I01
sbsg15
I00
sg16
g58
sbsg13
I2
sg18
(imyEvolve
Tree
p1599
(dp1600
g10
(imyEvolve
Tree
p1601
(dp1602
g13
I0
sg14
I00
sbsg13
I1
sg15
I01
sg16
g81
sbsg15
I00
sg16
g26
sbsg13
I3
sg18
(imyEvolve
Tree
p1603
(dp1604
g10
(imyEvolve
Tree
p1605
(dp1606
g10
(imyEvolve
Tree
p1607
(dp1608
g13
I0
sg23
F-2.3494068433804207
sg14
I01
sbsg13
I1
sg15
I01
sg16
g47
sbsg13
I2
sg15
I01
sg16
g46
sbsg15
I00
sg16
g26
sbsg13
I4
sg18
(imyEvolve
Tree
p1609
(dp1610
g10
(imyEvolve
Tree
p1611
(dp1612
g10
(imyEvolve
Tree
p1613
(dp1614
g7
(imyEvolve
Tree
p1615
(dp1616
g13
I0
sg23
F3.9893312898646816
sg14
I01
sbsg13
I1
sg18
(imyEvolve
Tree
p1617
(dp1618
g13
I0
sg23
F0.4108753836374843
sg14
I01
sbsg15
I00
sg16
g26
sbsg13
I2
sg15
I01
sg16
g47
sbsg13
I3
sg15
I01
sg16
g17
sbsg15
I00
sg16
g26
sbsg13
I5
sg15
I01
sg16
g17
sba(imyEvolve
Tree
p1619
(dp1620
g10
(imyEvolve
Tree
p1621
(dp1622
g10
(imyEvolve
Tree
p1623
(dp1624
g7
(imyEvolve
Tree
p1625
(dp1626
g13
I0
sg23
F0.5691938618860579
sg14
I01
sbsg13
I1
sg18
(imyEvolve
Tree
p1627
(dp1628
g13
I0
sg23
F-1.6410647166317958
sg14
I01
sbsg15
I00
sg16
g27
sbsg13
I2
sg15
I01
sg16
g47
sbsg13
I3
sg15
I01
sg16
g46
sba(imyEvolve
Tree
p1629
(dp1630
g10
(imyEvolve
Tree
p1631
(dp1632
g7
(imyEvolve
Tree
p1633
(dp1634
g13
I0
sg14
I00
sbsg13
I1
sg18
(imyEvolve
Tree
p1635
(dp1636
g13
I0
sg23
F-4.581935344887381
sg14
I01
sbsg15
I00
sg16
g26
sbsg13
I2
sg15
I01
sg16
g47
sba(imyEvolve
Tree
p1637
(dp1638
g13
I3
sg7
(imyEvolve
Tree
p1639
(dp1640
g13
I2
sg7
(imyEvolve
Tree
p1641
(dp1642
g13
I1
sg7
(imyEvolve
Tree
p1643
(dp1644
g13
I0
sg23
F4.536674104035441
sg14
I01
sbsg18
(imyEvolve
Tree
p1645
(dp1646
g13
I0
sg23
F3.190925881591152
sg14
I01
sbsg15
I00
sg16
g26
sbsg18
(imyEvolve
Tree
p1647
(dp1648
g10
(imyEvolve
Tree
p1649
(dp1650
g13
I0
sg23
F1.7902844549102515
sg14
I01
sbsg13
I1
sg15
I01
sg16
g81
sbsg15
I00
sg16
g26
sbsg18
(imyEvolve
Tree
p1651
(dp1652
g13
I2
sg7
(imyEvolve
Tree
p1653
(dp1654
g10
(imyEvolve
Tree
p1655
(dp1656
g13
I0
sg14
I00
sbsg13
I1
sg15
I01
sg16
g81
sbsg18
(imyEvolve
Tree
p1657
(dp1658
g10
(imyEvolve
Tree
p1659
(dp1660
g13
I0
sg14
I00
sbsg13
I1
sg15
I01
sg16
g81
sbsg15
I00
sg16
g58
sbsg15
I00
sg16
g58
sba(imyEvolve
Tree
p1661
(dp1662
g7
(imyEvolve
Tree
p1663
(dp1664
g7
(imyEvolve
Tree
p1665
(dp1666
g10
(imyEvolve
Tree
p1667
(dp1668
g10
(imyEvolve
Tree
p1669
(dp1670
g10
(imyEvolve
Tree
p1671
(dp1672
g13
I0
sg23
F-1.2940471204908919
sg14
I01
sbsg13
I1
sg15
I01
sg16
g81
sbsg13
I2
sg15
I01
sg16
g81
sbsg13
I3
sg15
I01
sg16
g47
sbsg13
I4
sg18
(imyEvolve
Tree
p1673
(dp1674
g7
(imyEvolve
Tree
p1675
(dp1676
g7
(imyEvolve
Tree
p1677
(dp1678
g10
(imyEvolve
Tree
p1679
(dp1680
g13
I0
sg23
F0.8758270607402752
sg14
I01
sbsg13
I1
sg15
I01
sg16
g17
sbsg13
I2
sg18
(imyEvolve
Tree
p1681
(dp1682
g10
(imyEvolve
Tree
p1683
(dp1684
g13
I0
sg23
F3.72760214680579
sg14
I01
sbsg13
I1
sg15
I01
sg16
g46
sbsg15
I00
sg16
g58
sbsg13
I3
sg18
(imyEvolve
Tree
p1685
(dp1686
g7
(imyEvolve
Tree
p1687
(dp1688
g7
(imyEvolve
Tree
p1689
(dp1690
g13
I0
sg14
I00
sbsg13
I1
sg18
(imyEvolve
Tree
p1691
(dp1692
g13
I0
sg14
I00
sbsg15
I00
sg16
g27
sbsg13
I2
sg18
(imyEvolve
Tree
p1693
(dp1694
g7
(imyEvolve
Tree
p1695
(dp1696
g13
I0
sg14
I00
sbsg13
I1
sg18
(imyEvolve
Tree
p1697
(dp1698
g13
I0
sg14
I00
sbsg15
I00
sg16
g26
sbsg15
I00
sg16
g26
sbsg15
I00
sg16
g26
sbsg15
I00
sg16
g27
sbsg13
I5
sg18
(imyEvolve
Tree
p1699
(dp1700
g10
(imyEvolve
Tree
p1701
(dp1702
g10
(imyEvolve
Tree
p1703
(dp1704
g7
(imyEvolve
Tree
p1705
(dp1706
g10
(imyEvolve
Tree
p1707
(dp1708
g13
I0
sg14
I00
sbsg13
I1
sg15
I01
sg16
g17
sbsg13
I2
sg18
(imyEvolve
Tree
p1709
(dp1710
g7
(imyEvolve
Tree
p1711
(dp1712
g13
I0
sg14
I00
sbsg13
I1
sg18
(imyEvolve
Tree
p1713
(dp1714
g13
I0
sg23
F-4.829857477061563
sg14
I01
sbsg15
I00
sg16
g27
sbsg15
I00
sg16
g27
sbsg13
I3
sg15
I01
sg16
g46
sbsg13
I4
sg15
I01
sg16
g81
sbsg15
I00
sg16
g58
sba(imyEvolve
Tree
p1715
(dp1716
g10
(imyEvolve
Tree
p1717
(dp1718
g10
(imyEvolve
Tree
p1719
(dp1720
g10
(imyEvolve
Tree
p1721
(dp1722
g7
(imyEvolve
Tree
p1723
(dp1724
g10
(imyEvolve
Tree
p1725
(dp1726
g13
I0
sg23
F3.652123850910918
sg14
I01
sbsg13
I1
sg15
I01
sg16
g81
sbsg13
I2
sg18
(imyEvolve
Tree
p1727
(dp1728
g10
(imyEvolve
Tree
p1729
(dp1730
g13
I0
sg14
I00
sbsg13
I1
sg15
I01
sg16
g81
sbsg15
I00
sg16
g26
sbsg13
I3
sg15
I01
sg16
g81
sbsg13
I4
sg15
I01
sg16
g81
sbsg13
I5
sg15
I01
sg16
g17
sbaa(lp1731
(imyEvolve
Tree
p1732
(dp1733
g10
(imyEvolve
Tree
p1734
(dp1735
g10
(imyEvolve
Tree
p1736
(dp1737
g13
I0
sg23
F-1.8591403602891599
sg14
I01
sbsg13
I1
sg15
I01
sg16
g81
sbsg13
I2
sg15
I01
sg16
g46
sba(imyEvolve
Tree
p1738
(dp1739
g13
I2
sg7
(imyEvolve
Tree
p1740
(dp1741
g13
I1
sg7
(imyEvolve
Tree
p1742
(dp1743
g13
I0
sg23
F-0.6696902046982478
sg14
I01
sbsg18
(imyEvolve
Tree
p1744
(dp1745
g13
I0
sg23
F1.5444807398225926
sg14
I01
sbsg15
I00
sg16
g27
sbsg18
(imyEvolve
Tree
p1746
(dp1747
g10
(imyEvolve
Tree
p1748
(dp1749
g13
I0
sg14
I00
sbsg13
I1
sg15
I01
sg16
g81
sbsg15
I00
sg16
g27
sba(imyEvolve
Tree
p1750
(dp1751
g7
(imyEvolve
Tree
p1752
(dp1753
g10
(imyEvolve
Tree
p1754
(dp1755
g10
(imyEvolve
Tree
p1756
(dp1757
g10
(imyEvolve
Tree
p1758
(dp1759
g10
(imyEvolve
Tree
p1760
(dp1761
g13
I0
sg23
F1.6064537190007497
sg14
I01
sbsg13
I1
sg15
I01
sg16
g81
sbsg13
I2
sg15
I01
sg16
g47
sbsg13
I3
sg15
I01
sg16
g81
sbsg13
I4
sg15
I01
sg16
g17
sbsg13
I5
sg18
(imyEvolve
Tree
p1762
(dp1763
g10
(imyEvolve
Tree
p1764
(dp1765
g7
(imyEvolve
Tree
p1766
(dp1767
g10
(imyEvolve
Tree
p1768
(dp1769
g10
(imyEvolve
Tree
p1770
(dp1771
g13
I0
sg23
F-0.4523132483933612
sg14
I01
sbsg13
I1
sg15
I01
sg16
g81
sbsg13
I2
sg15
I01
sg16
g81
sbsg13
I3
sg18
(imyEvolve
Tree
p1772
(dp1773
g10
(imyEvolve
Tree
p1774
(dp1775
g7
(imyEvolve
Tree
p1776
(dp1777
g13
I0
sg23
F3.917590243693928
sg14
I01
sbsg13
I1
sg18
(imyEvolve
Tree
p1778
(dp1779
g13
I0
sg23
F-2.6463471473152325
sg14
I01
sbsg15
I00
sg16
g26
sbsg13
I2
sg15
I01
sg16
g47
sbsg15
I00
sg16
g27
sbsg13
I4
sg15
I01
sg16
g81
sbsg15
I00
sg16
g58
sba(imyEvolve
Tree
p1780
(dp1781
g10
(imyEvolve
Tree
p1782
(dp1783
g10
(imyEvolve
Tree
p1784
(dp1785
g7
(imyEvolve
Tree
p1786
(dp1787
g7
(imyEvolve
Tree
p1788
(dp1789
g13
I0
sg23
F4.790517447131739
sg14
I01
sbsg13
I1
sg18
(imyEvolve
Tree
p1790
(dp1791
g13
I0
sg14
I00
sbsg15
I00
sg16
g27
sbsg13
I2
sg18
(imyEvolve
Tree
p1792
(dp1793
g10
(imyEvolve
Tree
p1794
(dp1795
g13
I0
sg14
I00
sbsg13
I1
sg15
I01
sg16
g46
sbsg15
I00
sg16
g26
sbsg13
I3
sg15
I01
sg16
g46
sbsg13
I4
sg15
I01
sg16
g47
sba(imyEvolve
Tree
p1796
(dp1797
g10
(imyEvolve
Tree
p1798
(dp1799
g13
I1
sg7
(imyEvolve
Tree
p1800
(dp1801
g13
I0
sg23
F-4.926739659492748
sg14
I01
sbsg18
(imyEvolve
Tree
p1802
(dp1803
g13
I0
sg14
I00
sbsg15
I00
sg16
g26
sbsg13
I2
sg15
I01
sg16
g17
sba(imyEvolve
Tree
p1804
(dp1805
g7
(imyEvolve
Tree
p1806
(dp1807
g7
(imyEvolve
Tree
p1808
(dp1809
g13
I0
sg23
F0.1284264709628129
sg14
I01
sbsg13
I1
sg18
(imyEvolve
Tree
p1810
(dp1811
g13
I0
sg14
I00
sbsg15
I00
sg16
g26
sbsg13
I2
sg18
(imyEvolve
Tree
p1812
(dp1813
g10
(imyEvolve
Tree
p1814
(dp1815
g13
I0
sg14
I00
sbsg13
I1
sg15
I01
sg16
g46
sbsg15
I00
sg16
g27
sba(imyEvolve
Tree
p1816
(dp1817
g13
I2
sg7
(imyEvolve
Tree
p1818
(dp1819
g13
I1
sg7
(imyEvolve
Tree
p1820
(dp1821
g13
I0
sg14
I00
sbsg18
(imyEvolve
Tree
p1822
(dp1823
g13
I0
sg23
F-0.931468339819574
sg14
I01
sbsg15
I00
sg16
g58
sbsg18
(imyEvolve
Tree
p1824
(dp1825
g13
I1
sg7
(imyEvolve
Tree
p1826
(dp1827
g13
I0
sg14
I00
sbsg18
(imyEvolve
Tree
p1828
(dp1829
g13
I0
sg14
I00
sbsg15
I00
sg16
g58
sbsg15
I00
sg16
g26
sba(imyEvolve
Tree
p1830
(dp1831
g10
(imyEvolve
Tree
p1832
(dp1833
g10
(imyEvolve
Tree
p1834
(dp1835
g10
(imyEvolve
Tree
p1836
(dp1837
g10
(imyEvolve
Tree
p1838
(dp1839
g13
I0
sg23
F-2.6745208663454187
sg14
I01
sbsg13
I1
sg15
I01
sg16
g46
sbsg13
I2
sg15
I01
sg16
g46
sbsg13
I3
sg15
I01
sg16
g81
sbsg13
I4
sg15
I01
sg16
g17
sba(imyEvolve
Tree
p1840
(dp1841
g10
(imyEvolve
Tree
p1842
(dp1843
g10
(imyEvolve
Tree
p1844
(dp1845
g7
(imyEvolve
Tree
p1846
(dp1847
g10
(imyEvolve
Tree
p1848
(dp1849
g7
(imyEvolve
Tree
p1850
(dp1851
g13
I0
sg23
F-0.6080087650503998
sg14
I01
sbsg13
I1
sg18
(imyEvolve
Tree
p1852
(dp1853
g13
I0
sg14
I00
sbsg15
I00
sg16
g27
sbsg13
I2
sg15
I01
sg16
g46
sbsg13
I3
sg18
(imyEvolve
Tree
p1854
(dp1855
g10
(imyEvolve
Tree
p1856
(dp1857
g7
(imyEvolve
Tree
p1858
(dp1859
g13
I0
sg23
F-3.4187239164983896
sg14
I01
sbsg13
I1
sg18
(imyEvolve
Tree
p1860
(dp1861
g13
I0
sg23
F2.8769472926969497
sg14
I01
sbsg15
I00
sg16
g58
sbsg13
I2
sg15
I01
sg16
g47
sbsg15
I00
sg16
g58
sbsg13
I4
sg15
I01
sg16
g81
sbsg13
I5
sg15
I01
sg16
g17
sba(imyEvolve
Tree
p1862
(dp1863
g10
(imyEvolve
Tree
p1864
(dp1865
g10
(imyEvolve
Tree
p1866
(dp1867
g10
(imyEvolve
Tree
p1868
(dp1869
g10
(imyEvolve
Tree
p1870
(dp1871
g13
I0
sg23
F4.441685344314276
sg14
I01
sbsg13
I1
sg15
I01
sg16
g46
sbsg13
I2
sg15
I01
sg16
g17
sbsg13
I3
sg15
I01
sg16
g81
sbsg13
I4
sg15
I01
sg16
g81
sbaasS'alpha'
p1872
F0.006235283429227879
sS'fitness'
p1873
cnumpy.core.multiarray
scalar
p1874
(cnumpy
dtype
p1875
(S'f8'
p1876
I0
I1
tp1877
Rp1878
(I3
S'<'
p1879
NNNI-1
I-1
I0
tp1880
bS'\x00\x88\xb0\xe1q\xa01\xbf'
p1881
tp1882
Rp1883
sS'weightSharing'
p1884
(lp1885
I01
aI00
asS'fitnessValid'
p1886
I00
sS'resolution'
p1887
I84
sb.