(imyEvolve
Individual
p0
(dp1
S'funcs'
p2
(lp3
(lp4
(imyEvolve
Tree
p5
(dp6
S'depth'
p7
I2
sS'left'
p8
(imyEvolve
Tree
p9
(dp10
S'below'
p11
(imyEvolve
Tree
p12
(dp13
g7
I0
sS'isConstant'
p14
I00
sbsg7
I1
sS'single'
p15
I01
sS'op'
p16
cmath
cos
p17
sbsS'right'
p18
(imyEvolve
Tree
p19
(dp20
g11
(imyEvolve
Tree
p21
(dp22
g7
I0
sg14
I00
sbsg7
I1
sg15
I01
sg16
cmath
sin
p23
sbsg15
I00
sg16
coperator
mul
p24
sba(imyEvolve
Tree
p25
(dp26
g11
(imyEvolve
Tree
p27
(dp28
g7
I1
sg8
(imyEvolve
Tree
p29
(dp30
g7
I0
sS'constant'
p31
F-1.4736295550124634
sg14
I01
sbsg18
(imyEvolve
Tree
p32
(dp33
g7
I0
sg14
I00
sbsg15
I00
sg16
coperator
add
p34
sbsg7
I2
sg15
I01
sg16
cmyEvolve
absSqrt
p35
sba(imyEvolve
Tree
p36
(dp37
g11
(imyEvolve
Tree
p38
(dp39
g11
(imyEvolve
Tree
p40
(dp41
g7
I2
sg8
(imyEvolve
Tree
p42
(dp43
g7
I1
sg8
(imyEvolve
Tree
p44
(dp45
g7
I0
sg31
F-1.6489963147961486
sg14
I01
sbsg18
(imyEvolve
Tree
p46
(dp47
g7
I0
sg14
I00
sbsg15
I00
sg16
g34
sbsg18
(imyEvolve
Tree
p48
(dp49
g11
(imyEvolve
Tree
p50
(dp51
g7
I0
sg31
F1.334530642575542
sg14
I01
sbsg7
I1
sg15
I01
sg16
cmyEvolve
square
p52
sbsg15
I00
sg16
g24
sbsg7
I3
sg15
I01
sg16
g52
sbsg7
I4
sg15
I01
sg16
g23
sba(imyEvolve
Tree
p53
(dp54
g7
I3
sg8
(imyEvolve
Tree
p55
(dp56
g7
I2
sg8
(imyEvolve
Tree
p57
(dp58
g11
(imyEvolve
Tree
p59
(dp60
g7
I0
sg14
I00
sbsg7
I1
sg15
I01
sg16
g23
sbsg18
(imyEvolve
Tree
p61
(dp62
g7
I1
sg8
(imyEvolve
Tree
p63
(dp64
g7
I0
sg14
I00
sbsg18
(imyEvolve
Tree
p65
(dp66
g7
I0
sg14
I00
sbsg15
I00
sg16
g24
sbsg15
I00
sg16
coperator
sub
p67
sbsg18
(imyEvolve
Tree
p68
(dp69
g7
I2
sg8
(imyEvolve
Tree
p70
(dp71
g11
(imyEvolve
Tree
p72
(dp73
g7
I0
sg14
I00
sbsg7
I1
sg15
I01
sg16
g35
sbsg18
(imyEvolve
Tree
p74
(dp75
g7
I1
sg8
(imyEvolve
Tree
p76
(dp77
g7
I0
sg14
I00
sbsg18
(imyEvolve
Tree
p78
(dp79
g7
I0
sg31
F2.3333355995051193
sg14
I01
sbsg15
I00
sg16
g67
sbsg15
I00
sg16
g34
sbsg15
I00
sg16
g67
sba(imyEvolve
Tree
p80
(dp81
g7
I5
sg8
(imyEvolve
Tree
p82
(dp83
g7
I4
sg8
(imyEvolve
Tree
p84
(dp85
g7
I3
sg8
(imyEvolve
Tree
p86
(dp87
g7
I2
sg8
(imyEvolve
Tree
p88
(dp89
g11
(imyEvolve
Tree
p90
(dp91
g7
I0
sg14
I00
sbsg7
I1
sg15
I01
sg16
g23
sbsg18
(imyEvolve
Tree
p92
(dp93
g7
I1
sg8
(imyEvolve
Tree
p94
(dp95
g7
I0
sg14
I00
sbsg18
(imyEvolve
Tree
p96
(dp97
g7
I0
sg14
I00
sbsg15
I00
sg16
g34
sbsg15
I00
sg16
g67
sbsg18
(imyEvolve
Tree
p98
(dp99
g11
(imyEvolve
Tree
p100
(dp101
g7
I1
sg8
(imyEvolve
Tree
p102
(dp103
g7
I0
sg31
F-4.032925697916893
sg14
I01
sbsg18
(imyEvolve
Tree
p104
(dp105
g7
I0
sg14
I00
sbsg15
I00
sg16
g34
sbsg7
I2
sg15
I01
sg16
g23
sbsg15
I00
sg16
g34
sbsg18
(imyEvolve
Tree
p106
(dp107
g11
(imyEvolve
Tree
p108
(dp109
g7
I2
sg8
(imyEvolve
Tree
p110
(dp111
g7
I1
sg8
(imyEvolve
Tree
p112
(dp113
g7
I0
sg14
I00
sbsg18
(imyEvolve
Tree
p114
(dp115
g7
I0
sg31
F1.1870095852474165
sg14
I01
sbsg15
I00
sg16
g67
sbsg18
(imyEvolve
Tree
p116
(dp117
g11
(imyEvolve
Tree
p118
(dp119
g7
I0
sg31
F0.7020851912815393
sg14
I01
sbsg7
I1
sg15
I01
sg16
g17
sbsg15
I00
sg16
g24
sbsg7
I3
sg15
I01
sg16
g23
sbsg15
I00
sg16
g67
sbsg18
(imyEvolve
Tree
p120
(dp121
g11
(imyEvolve
Tree
p122
(dp123
g7
I3
sg8
(imyEvolve
Tree
p124
(dp125
g7
I2
sg8
(imyEvolve
Tree
p126
(dp127
g7
I1
sg8
(imyEvolve
Tree
p128
(dp129
g7
I0
sg14
I00
sbsg18
(imyEvolve
Tree
p130
(dp131
g7
I0
sg14
I00
sbsg15
I00
sg16
g24
sbsg18
(imyEvolve
Tree
p132
(dp133
g11
(imyEvolve
Tree
p134
(dp135
g7
I0
sg31
F-0.14073574287917268
sg14
I01
sbsg7
I1
sg15
I01
sg16
g23
sbsg15
I00
sg16
g24
sbsg18
(imyEvolve
Tree
p136
(dp137
g11
(imyEvolve
Tree
p138
(dp139
g7
I1
sg8
(imyEvolve
Tree
p140
(dp141
g7
I0
sg14
I00
sbsg18
(imyEvolve
Tree
p142
(dp143
g7
I0
sg31
F-0.3607276385115785
sg14
I01
sbsg15
I00
sg16
g24
sbsg7
I2
sg15
I01
sg16
g52
sbsg15
I00
sg16
g34
sbsg7
I4
sg15
I01
sg16
g52
sbsg15
I00
sg16
g67
sba(imyEvolve
Tree
p144
(dp145
g11
(imyEvolve
Tree
p146
(dp147
g11
(imyEvolve
Tree
p148
(dp149
g7
I0
sg31
F-4.305328268677431
sg14
I01
sbsg7
I1
sg15
I01
sg16
g23
sbsg7
I2
sg15
I01
sg16
g17
sba(imyEvolve
Tree
p150
(dp151
g11
(imyEvolve
Tree
p152
(dp153
g11
(imyEvolve
Tree
p154
(dp155
g11
(imyEvolve
Tree
p156
(dp157
g7
I0
sg31
F2.0060235762574363
sg14
I01
sbsg7
I1
sg15
I01
sg16
g35
sbsg7
I2
sg15
I01
sg16
g35
sbsg7
I3
sg15
I01
sg16
g17
sba(imyEvolve
Tree
p158
(dp159
g11
(imyEvolve
Tree
p160
(dp161
g7
I2
sg8
(imyEvolve
Tree
p162
(dp163
g7
I1
sg8
(imyEvolve
Tree
p164
(dp165
g7
I0
sg14
I00
sbsg18
(imyEvolve
Tree
p166
(dp167
g7
I0
sg31
F-0.11818543602780629
sg14
I01
sbsg15
I00
sg16
g24
sbsg18
(imyEvolve
Tree
p168
(dp169
g7
I1
sg8
(imyEvolve
Tree
p170
(dp171
g7
I0
sg14
I00
sbsg18
(imyEvolve
Tree
p172
(dp173
g7
I0
sg14
I00
sbsg15
I00
sg16
g34
sbsg15
I00
sg16
g67
sbsg7
I3
sg15
I01
sg16
g17
sba(imyEvolve
Tree
p174
(dp175
g7
I3
sg8
(imyEvolve
Tree
p176
(dp177
g7
I2
sg8
(imyEvolve
Tree
p178
(dp179
g7
I1
sg8
(imyEvolve
Tree
p180
(dp181
g7
I0
sg31
F3.429760756368962
sg14
I01
sbsg18
(imyEvolve
Tree
p182
(dp183
g7
I0
sg31
F3.1038089155380213
sg14
I01
sbsg15
I00
sg16
g34
sbsg18
(imyEvolve
Tree
p184
(dp185
g11
(imyEvolve
Tree
p186
(dp187
g7
I0
sg14
I00
sbsg7
I1
sg15
I01
sg16
g52
sbsg15
I00
sg16
g24
sbsg18
(imyEvolve
Tree
p188
(dp189
g11
(imyEvolve
Tree
p190
(dp191
g11
(imyEvolve
Tree
p192
(dp193
g7
I0
sg14
I00
sbsg7
I1
sg15
I01
sg16
g17
sbsg7
I2
sg15
I01
sg16
g23
sbsg15
I00
sg16
g67
sba(imyEvolve
Tree
p194
(dp195
g11
(imyEvolve
Tree
p196
(dp197
g7
I2
sg8
(imyEvolve
Tree
p198
(dp199
g7
I1
sg8
(imyEvolve
Tree
p200
(dp201
g7
I0
sg31
F-0.6986322863147709
sg14
I01
sbsg18
(imyEvolve
Tree
p202
(dp203
g7
I0
sg31
F-3.312030485349482
sg14
I01
sbsg15
I00
sg16
g24
sbsg18
(imyEvolve
Tree
p204
(dp205
g7
I1
sg8
(imyEvolve
Tree
p206
(dp207
g7
I0
sg31
F1.6495603957544844
sg14
I01
sbsg18
(imyEvolve
Tree
p208
(dp209
g7
I0
sg31
F-3.8470514647722833
sg14
I01
sbsg15
I00
sg16
g34
sbsg15
I00
sg16
g34
sbsg7
I3
sg15
I01
sg16
g23
sba(imyEvolve
Tree
p210
(dp211
g11
(imyEvolve
Tree
p212
(dp213
g11
(imyEvolve
Tree
p214
(dp215
g7
I0
sg14
I00
sbsg7
I1
sg15
I01
sg16
g23
sbsg7
I2
sg15
I01
sg16
g17
sba(imyEvolve
Tree
p216
(dp217
g7
I3
sg8
(imyEvolve
Tree
p218
(dp219
g7
I2
sg8
(imyEvolve
Tree
p220
(dp221
g11
(imyEvolve
Tree
p222
(dp223
g7
I0
sg14
I00
sbsg7
I1
sg15
I01
sg16
g35
sbsg18
(imyEvolve
Tree
p224
(dp225
g11
(imyEvolve
Tree
p226
(dp227
g7
I0
sg31
F-3.452082204479953
sg14
I01
sbsg7
I1
sg15
I01
sg16
g52
sbsg15
I00
sg16
g67
sbsg18
(imyEvolve
Tree
p228
(dp229
g11
(imyEvolve
Tree
p230
(dp231
g11
(imyEvolve
Tree
p232
(dp233
g7
I0
sg14
I00
sbsg7
I1
sg15
I01
sg16
g23
sbsg7
I2
sg15
I01
sg16
g35
sbsg15
I00
sg16
g24
sba(imyEvolve
Tree
p234
(dp235
g7
I4
sg8
(imyEvolve
Tree
p236
(dp237
g11
(imyEvolve
Tree
p238
(dp239
g11
(imyEvolve
Tree
p240
(dp241
g7
I1
sg8
(imyEvolve
Tree
p242
(dp243
g7
I0
sg31
F-4.017030873925246
sg14
I01
sbsg18
(imyEvolve
Tree
p244
(dp245
g7
I0
sg31
F-1.5288703906005652
sg14
I01
sbsg15
I00
sg16
g24
sbsg7
I2
sg15
I01
sg16
g35
sbsg7
I3
sg15
I01
sg16
g52
sbsg18
(imyEvolve
Tree
p246
(dp247
g11
(imyEvolve
Tree
p248
(dp249
g11
(imyEvolve
Tree
p250
(dp251
g7
I1
sg8
(imyEvolve
Tree
p252
(dp253
g7
I0
sg14
I00
sbsg18
(imyEvolve
Tree
p254
(dp255
g7
I0
sg14
I00
sbsg15
I00
sg16
g34
sbsg7
I2
sg15
I01
sg16
g52
sbsg7
I3
sg15
I01
sg16
g52
sbsg15
I00
sg16
g34
sba(imyEvolve
Tree
p256
(dp257
g7
I2
sg8
(imyEvolve
Tree
p258
(dp259
g7
I1
sg8
(imyEvolve
Tree
p260
(dp261
g7
I0
sg31
F0.5678344424146298
sg14
I01
sbsg18
(imyEvolve
Tree
p262
(dp263
g7
I0
sg14
I00
sbsg15
I00
sg16
g34
sbsg18
(imyEvolve
Tree
p264
(dp265
g7
I1
sg8
(imyEvolve
Tree
p266
(dp267
g7
I0
sg31
F4.093576672229856
sg14
I01
sbsg18
(imyEvolve
Tree
p268
(dp269
g7
I0
sg14
I00
sbsg15
I00
sg16
g67
sbsg15
I00
sg16
g24
sba(imyEvolve
Tree
p270
(dp271
g7
I2
sg8
(imyEvolve
Tree
p272
(dp273
g11
(imyEvolve
Tree
p274
(dp275
g7
I0
sg14
I00
sbsg7
I1
sg15
I01
sg16
g23
sbsg18
(imyEvolve
Tree
p276
(dp277
g7
I1
sg8
(imyEvolve
Tree
p278
(dp279
g7
I0
sg14
I00
sbsg18
(imyEvolve
Tree
p280
(dp281
g7
I0
sg14
I00
sbsg15
I00
sg16
g34
sbsg15
I00
sg16
g67
sba(imyEvolve
Tree
p282
(dp283
g7
I4
sg8
(imyEvolve
Tree
p284
(dp285
g11
(imyEvolve
Tree
p286
(dp287
g7
I2
sg8
(imyEvolve
Tree
p288
(dp289
g7
I1
sg8
(imyEvolve
Tree
p290
(dp291
g7
I0
sg14
I00
sbsg18
(imyEvolve
Tree
p292
(dp293
g7
I0
sg14
I00
sbsg15
I00
sg16
g67
sbsg18
(imyEvolve
Tree
p294
(dp295
g11
(imyEvolve
Tree
p296
(dp297
g7
I0
sg31
F1.311266165229494
sg14
I01
sbsg7
I1
sg15
I01
sg16
g52
sbsg15
I00
sg16
g67
sbsg7
I3
sg15
I01
sg16
g17
sbsg18
(imyEvolve
Tree
p298
(dp299
g11
(imyEvolve
Tree
p300
(dp301
g11
(imyEvolve
Tree
p302
(dp303
g11
(imyEvolve
Tree
p304
(dp305
g7
I0
sg31
F3.806890814201255
sg14
I01
sbsg7
I1
sg15
I01
sg16
g23
sbsg7
I2
sg15
I01
sg16
g17
sbsg7
I3
sg15
I01
sg16
g23
sbsg15
I00
sg16
g24
sbaa(lp306
(imyEvolve
Tree
p307
(dp308
g11
(imyEvolve
Tree
p309
(dp310
g7
I1
sg8
(imyEvolve
Tree
p311
(dp312
g7
I0
sg14
I00
sbsg18
(imyEvolve
Tree
p313
(dp314
g7
I0
sg31
F-0.4897736281878746
sg14
I01
sbsg15
I00
sg16
g24
sbsg7
I2
sg15
I01
sg16
g52
sba(imyEvolve
Tree
p315
(dp316
g7
I3
sg8
(imyEvolve
Tree
p317
(dp318
g11
(imyEvolve
Tree
p319
(dp320
g7
I1
sg8
(imyEvolve
Tree
p321
(dp322
g7
I0
sg31
F1.6635804640330392
sg14
I01
sbsg18
(imyEvolve
Tree
p323
(dp324
g7
I0
sg14
I00
sbsg15
I00
sg16
g24
sbsg7
I2
sg15
I01
sg16
g35
sbsg18
(imyEvolve
Tree
p325
(dp326
g7
I2
sg8
(imyEvolve
Tree
p327
(dp328
g11
(imyEvolve
Tree
p329
(dp330
g7
I0
sg14
I00
sbsg7
I1
sg15
I01
sg16
g52
sbsg18
(imyEvolve
Tree
p331
(dp332
g11
(imyEvolve
Tree
p333
(dp334
g7
I0
sg14
I00
sbsg7
I1
sg15
I01
sg16
g23
sbsg15
I00
sg16
g67
sbsg15
I00
sg16
g67
sba(imyEvolve
Tree
p335
(dp336
g11
(imyEvolve
Tree
p337
(dp338
g11
(imyEvolve
Tree
p339
(dp340
g11
(imyEvolve
Tree
p341
(dp342
g7
I0
sg14
I00
sbsg7
I1
sg15
I01
sg16
g17
sbsg7
I2
sg15
I01
sg16
g35
sbsg7
I3
sg15
I01
sg16
g52
sba(imyEvolve
Tree
p343
(dp344
g11
(imyEvolve
Tree
p345
(dp346
g11
(imyEvolve
Tree
p347
(dp348
g7
I1
sg8
(imyEvolve
Tree
p349
(dp350
g7
I0
sg31
F-4.322565269826447
sg14
I01
sbsg18
(imyEvolve
Tree
p351
(dp352
g7
I0
sg14
I00
sbsg15
I00
sg16
g24
sbsg7
I2
sg15
I01
sg16
g17
sbsg7
I3
sg15
I01
sg16
g35
sba(imyEvolve
Tree
p353
(dp354
g7
I3
sg8
(imyEvolve
Tree
p355
(dp356
g7
I2
sg8
(imyEvolve
Tree
p357
(dp358
g11
(imyEvolve
Tree
p359
(dp360
g7
I0
sg14
I00
sbsg7
I1
sg15
I01
sg16
g52
sbsg18
(imyEvolve
Tree
p361
(dp362
g7
I1
sg8
(imyEvolve
Tree
p363
(dp364
g7
I0
sg14
I00
sbsg18
(imyEvolve
Tree
p365
(dp366
g7
I0
sg14
I00
sbsg15
I00
sg16
g34
sbsg15
I00
sg16
g24
sbsg18
(imyEvolve
Tree
p367
(dp368
g11
(imyEvolve
Tree
p369
(dp370
g11
(imyEvolve
Tree
p371
(dp372
g7
I0
sg14
I00
sbsg7
I1
sg15
I01
sg16
g35
sbsg7
I2
sg15
I01
sg16
g23
sbsg15
I00
sg16
g67
sba(imyEvolve
Tree
p373
(dp374
g7
I3
sg8
(imyEvolve
Tree
p375
(dp376
g11
(imyEvolve
Tree
p377
(dp378
g11
(imyEvolve
Tree
p379
(dp380
g7
I0
sg31
F1.2001839311323925
sg14
I01
sbsg7
I1
sg15
I01
sg16
g52
sbsg7
I2
sg15
I01
sg16
g23
sbsg18
(imyEvolve
Tree
p381
(dp382
g7
I2
sg8
(imyEvolve
Tree
p383
(dp384
g11
(imyEvolve
Tree
p385
(dp386
g7
I0
sg31
F-1.4217326592617088
sg14
I01
sbsg7
I1
sg15
I01
sg16
g23
sbsg18
(imyEvolve
Tree
p387
(dp388
g11
(imyEvolve
Tree
p389
(dp390
g7
I0
sg31
F-4.156337196158412
sg14
I01
sbsg7
I1
sg15
I01
sg16
g35
sbsg15
I00
sg16
g34
sbsg15
I00
sg16
g24
sba(imyEvolve
Tree
p391
(dp392
g7
I3
sg8
(imyEvolve
Tree
p393
(dp394
g11
(imyEvolve
Tree
p395
(dp396
g11
(imyEvolve
Tree
p397
(dp398
g7
I0
sg14
I00
sbsg7
I1
sg15
I01
sg16
g17
sbsg7
I2
sg15
I01
sg16
g52
sbsg18
(imyEvolve
Tree
p399
(dp400
g7
I2
sg8
(imyEvolve
Tree
p401
(dp402
g7
I1
sg8
(imyEvolve
Tree
p403
(dp404
g7
I0
sg14
I00
sbsg18
(imyEvolve
Tree
p405
(dp406
g7
I0
sg31
F1.1050366397987794
sg14
I01
sbsg15
I00
sg16
g34
sbsg18
(imyEvolve
Tree
p407
(dp408
g11
(imyEvolve
Tree
p409
(dp410
g7
I0
sg31
F1.4019778796855986
sg14
I01
sbsg7
I1
sg15
I01
sg16
g17
sbsg15
I00
sg16
g67
sbsg15
I00
sg16
g67
sba(imyEvolve
Tree
p411
(dp412
g7
I4
sg8
(imyEvolve
Tree
p413
(dp414
g11
(imyEvolve
Tree
p415
(dp416
g7
I2
sg8
(imyEvolve
Tree
p417
(dp418
g11
(imyEvolve
Tree
p419
(dp420
g7
I0
sg31
F-2.2640298753341237
sg14
I01
sbsg7
I1
sg15
I01
sg16
g17
sbsg18
(imyEvolve
Tree
p421
(dp422
g11
(imyEvolve
Tree
p423
(dp424
g7
I0
sg14
I00
sbsg7
I1
sg15
I01
sg16
g52
sbsg15
I00
sg16
g67
sbsg7
I3
sg15
I01
sg16
g35
sbsg18
(imyEvolve
Tree
p425
(dp426
g11
(imyEvolve
Tree
p427
(dp428
g11
(imyEvolve
Tree
p429
(dp430
g7
I1
sg8
(imyEvolve
Tree
p431
(dp432
g7
I0
sg14
I00
sbsg18
(imyEvolve
Tree
p433
(dp434
g7
I0
sg14
I00
sbsg15
I00
sg16
g67
sbsg7
I2
sg15
I01
sg16
g52
sbsg7
I3
sg15
I01
sg16
g23
sbsg15
I00
sg16
g24
sba(imyEvolve
Tree
p435
(dp436
g7
I4
sg8
(imyEvolve
Tree
p437
(dp438
g7
I3
sg8
(imyEvolve
Tree
p439
(dp440
g11
(imyEvolve
Tree
p441
(dp442
g7
I1
sg8
(imyEvolve
Tree
p443
(dp444
g7
I0
sg31
F1.4620779416132095
sg14
I01
sbsg18
(imyEvolve
Tree
p445
(dp446
g7
I0
sg14
I00
sbsg15
I00
sg16
g34
sbsg7
I2
sg15
I01
sg16
g35
sbsg18
(imyEvolve
Tree
p447
(dp448
g11
(imyEvolve
Tree
p449
(dp450
g11
(imyEvolve
Tree
p451
(dp452
g7
I0
sg14
I00
sbsg7
I1
sg15
I01
sg16
g35
sbsg7
I2
sg15
I01
sg16
g17
sbsg15
I00
sg16
g34
sbsg18
(imyEvolve
Tree
p453
(dp454
g7
I3
sg8
(imyEvolve
Tree
p455
(dp456
g7
I2
sg8
(imyEvolve
Tree
p457
(dp458
g11
(imyEvolve
Tree
p459
(dp460
g7
I0
sg31
F-2.923424910019391
sg14
I01
sbsg7
I1
sg15
I01
sg16
g35
sbsg18
(imyEvolve
Tree
p461
(dp462
g11
(imyEvolve
Tree
p463
(dp464
g7
I0
sg14
I00
sbsg7
I1
sg15
I01
sg16
g35
sbsg15
I00
sg16
g67
sbsg18
(imyEvolve
Tree
p465
(dp466
g7
I2
sg8
(imyEvolve
Tree
p467
(dp468
g11
(imyEvolve
Tree
p469
(dp470
g7
I0
sg14
I00
sbsg7
I1
sg15
I01
sg16
g52
sbsg18
(imyEvolve
Tree
p471
(dp472
g11
(imyEvolve
Tree
p473
(dp474
g7
I0
sg14
I00
sbsg7
I1
sg15
I01
sg16
g35
sbsg15
I00
sg16
g24
sbsg15
I00
sg16
g67
sbsg15
I00
sg16
g67
sba(imyEvolve
Tree
p475
(dp476
g7
I5
sg8
(imyEvolve
Tree
p477
(dp478
g11
(imyEvolve
Tree
p479
(dp480
g7
I3
sg8
(imyEvolve
Tree
p481
(dp482
g7
I2
sg8
(imyEvolve
Tree
p483
(dp484
g11
(imyEvolve
Tree
p485
(dp486
g7
I0
sg14
I00
sbsg7
I1
sg15
I01
sg16
g17
sbsg18
(imyEvolve
Tree
p487
(dp488
g7
I1
sg8
(imyEvolve
Tree
p489
(dp490
g7
I0
sg31
F-4.296065313452201
sg14
I01
sbsg18
(imyEvolve
Tree
p491
(dp492
g7
I0
sg14
I00
sbsg15
I00
sg16
g67
sbsg15
I00
sg16
g67
sbsg18
(imyEvolve
Tree
p493
(dp494
g7
I2
sg8
(imyEvolve
Tree
p495
(dp496
g11
(imyEvolve
Tree
p497
(dp498
g7
I0
sg31
F0.598494188790486
sg14
I01
sbsg7
I1
sg15
I01
sg16
g23
sbsg18
(imyEvolve
Tree
p499
(dp500
g7
I1
sg8
(imyEvolve
Tree
p501
(dp502
g7
I0
sg14
I00
sbsg18
(imyEvolve
Tree
p503
(dp504
g7
I0
sg14
I00
sbsg15
I00
sg16
g67
sbsg15
I00
sg16
g24
sbsg15
I00
sg16
g34
sbsg7
I4
sg15
I01
sg16
g17
sbsg18
(imyEvolve
Tree
p505
(dp506
g7
I4
sg8
(imyEvolve
Tree
p507
(dp508
g11
(imyEvolve
Tree
p509
(dp510
g11
(imyEvolve
Tree
p511
(dp512
g11
(imyEvolve
Tree
p513
(dp514
g7
I0
sg14
I00
sbsg7
I1
sg15
I01
sg16
g35
sbsg7
I2
sg15
I01
sg16
g17
sbsg7
I3
sg15
I01
sg16
g17
sbsg18
(imyEvolve
Tree
p515
(dp516
g7
I3
sg8
(imyEvolve
Tree
p517
(dp518
g11
(imyEvolve
Tree
p519
(dp520
g7
I1
sg8
(imyEvolve
Tree
p521
(dp522
g7
I0
sg31
F1.7985793882524783
sg14
I01
sbsg18
(imyEvolve
Tree
p523
(dp524
g7
I0
sg14
I00
sbsg15
I00
sg16
g24
sbsg7
I2
sg15
I01
sg16
g17
sbsg18
(imyEvolve
Tree
p525
(dp526
g11
(imyEvolve
Tree
p527
(dp528
g11
(imyEvolve
Tree
p529
(dp530
g7
I0
sg31
F2.828654253379538
sg14
I01
sbsg7
I1
sg15
I01
sg16
g52
sbsg7
I2
sg15
I01
sg16
g35
sbsg15
I00
sg16
g34
sbsg15
I00
sg16
g34
sbsg15
I00
sg16
g34
sba(imyEvolve
Tree
p531
(dp532
g7
I5
sg8
(imyEvolve
Tree
p533
(dp534
g11
(imyEvolve
Tree
p535
(dp536
g11
(imyEvolve
Tree
p537
(dp538
g7
I2
sg8
(imyEvolve
Tree
p539
(dp540
g7
I1
sg8
(imyEvolve
Tree
p541
(dp542
g7
I0
sg14
I00
sbsg18
(imyEvolve
Tree
p543
(dp544
g7
I0
sg14
I00
sbsg15
I00
sg16
g34
sbsg18
(imyEvolve
Tree
p545
(dp546
g7
I1
sg8
(imyEvolve
Tree
p547
(dp548
g7
I0
sg31
F-1.174086358829205
sg14
I01
sbsg18
(imyEvolve
Tree
p549
(dp550
g7
I0
sg31
F-0.7918774466180469
sg14
I01
sbsg15
I00
sg16
g24
sbsg15
I00
sg16
g67
sbsg7
I3
sg15
I01
sg16
g35
sbsg7
I4
sg15
I01
sg16
g35
sbsg18
(imyEvolve
Tree
p551
(dp552
g11
(imyEvolve
Tree
p553
(dp554
g11
(imyEvolve
Tree
p555
(dp556
g7
I2
sg8
(imyEvolve
Tree
p557
(dp558
g7
I1
sg8
(imyEvolve
Tree
p559
(dp560
g7
I0
sg31
F-2.131967875694526
sg14
I01
sbsg18
(imyEvolve
Tree
p561
(dp562
g7
I0
sg31
F4.1302927951101704
sg14
I01
sbsg15
I00
sg16
g24
sbsg18
(imyEvolve
Tree
p563
(dp564
g11
(imyEvolve
Tree
p565
(dp566
g7
I0
sg14
I00
sbsg7
I1
sg15
I01
sg16
g35
sbsg15
I00
sg16
g67
sbsg7
I3
sg15
I01
sg16
g35
sbsg7
I4
sg15
I01
sg16
g23
sbsg15
I00
sg16
g34
sba(imyEvolve
Tree
p567
(dp568
g11
(imyEvolve
Tree
p569
(dp570
g7
I2
sg8
(imyEvolve
Tree
p571
(dp572
g11
(imyEvolve
Tree
p573
(dp574
g7
I0
sg14
I00
sbsg7
I1
sg15
I01
sg16
g17
sbsg18
(imyEvolve
Tree
p575
(dp576
g7
I1
sg8
(imyEvolve
Tree
p577
(dp578
g7
I0
sg14
I00
sbsg18
(imyEvolve
Tree
p579
(dp580
g7
I0
sg14
I00
sbsg15
I00
sg16
g24
sbsg15
I00
sg16
g67
sbsg7
I3
sg15
I01
sg16
g52
sbaasS'weightSharing'
p581
(lp582
I00
aI00
asS'fitnessValid'
p583
I00
sS'fitness'
p584
cnumpy.core.multiarray
scalar
p585
(cnumpy
dtype
p586
(S'f8'
p587
I0
I1
tp588
Rp589
(I3
S'<'
p590
NNNI-1
I-1
I0
tp591
bS'\x00\xc4\xb1.\n\x8e\\?'
p592
tp593
Rp594
sS'alpha'
p595
F0.005766502327824518
sS'resolution'
p596
I70
sb.