(imyEvolve
Individual
p0
(dp1
S'funcs'
p2
(lp3
(lp4
(imyEvolve
Tree
p5
(dp6
S'depth'
p7
I3
sS'left'
p8
(imyEvolve
Tree
p9
(dp10
S'below'
p11
(imyEvolve
Tree
p12
(dp13
g11
(imyEvolve
Tree
p14
(dp15
g7
I0
sS'constant'
p16
F-3.844949732784144
sS'isConstant'
p17
I01
sbsg7
I1
sS'single'
p18
I01
sS'op'
p19
cmyEvolve
square
p20
sbsg7
I2
sg18
I01
sg19
g20
sbsS'right'
p21
(imyEvolve
Tree
p22
(dp23
g11
(imyEvolve
Tree
p24
(dp25
g11
(imyEvolve
Tree
p26
(dp27
g7
I0
sg16
F0.9357483577926997
sg17
I01
sbsg7
I1
sg18
I01
sg19
cmyEvolve
absSqrt
p28
sbsg7
I2
sg18
I01
sg19
g28
sbsg18
I00
sg19
coperator
mul
p29
sba(imyEvolve
Tree
p30
(dp31
g11
(imyEvolve
Tree
p32
(dp33
g7
I2
sg8
(imyEvolve
Tree
p34
(dp35
g11
(imyEvolve
Tree
p36
(dp37
g7
I0
sg16
F-0.7573524128027485
sg17
I01
sbsg7
I1
sg18
I01
sg19
cmath
sin
p38
sbsg21
(imyEvolve
Tree
p39
(dp40
g7
I1
sg8
(imyEvolve
Tree
p41
(dp42
g7
I0
sg16
F-0.4033370162106902
sg17
I01
sbsg21
(imyEvolve
Tree
p43
(dp44
g7
I0
sg16
F0.9046919294210376
sg17
I01
sbsg18
I00
sg19
g29
sbsg18
I00
sg19
coperator
add
p45
sbsg7
I3
sg18
I01
sg19
g38
sba(imyEvolve
Tree
p46
(dp47
g11
(imyEvolve
Tree
p48
(dp49
g7
I1
sg8
(imyEvolve
Tree
p50
(dp51
g7
I0
sg17
I00
sbsg21
(imyEvolve
Tree
p52
(dp53
g7
I0
sg16
F-1.5297780222098778
sg17
I01
sbsg18
I00
sg19
g45
sbsg7
I2
sg18
I01
sg19
g20
sba(imyEvolve
Tree
p54
(dp55
g7
I5
sg8
(imyEvolve
Tree
p56
(dp57
g7
I4
sg8
(imyEvolve
Tree
p58
(dp59
g11
(imyEvolve
Tree
p60
(dp61
g7
I2
sg8
(imyEvolve
Tree
p62
(dp63
g11
(imyEvolve
Tree
p64
(dp65
g7
I0
sg16
F-1.4627284152354947
sg17
I01
sbsg7
I1
sg18
I01
sg19
g28
sbsg21
(imyEvolve
Tree
p66
(dp67
g7
I1
sg8
(imyEvolve
Tree
p68
(dp69
g7
I0
sg17
I00
sbsg21
(imyEvolve
Tree
p70
(dp71
g7
I0
sg17
I00
sbsg18
I00
sg19
g29
sbsg18
I00
sg19
g29
sbsg7
I3
sg18
I01
sg19
g28
sbsg21
(imyEvolve
Tree
p72
(dp73
g11
(imyEvolve
Tree
p74
(dp75
g7
I2
sg8
(imyEvolve
Tree
p76
(dp77
g11
(imyEvolve
Tree
p78
(dp79
g7
I0
sg16
F-4.178526413143969
sg17
I01
sbsg7
I1
sg18
I01
sg19
g28
sbsg21
(imyEvolve
Tree
p80
(dp81
g7
I1
sg8
(imyEvolve
Tree
p82
(dp83
g7
I0
sg16
F-0.3947798601193728
sg17
I01
sbsg21
(imyEvolve
Tree
p84
(dp85
g7
I0
sg16
F-3.688284187974149
sg17
I01
sbsg18
I00
sg19
g29
sbsg18
I00
sg19
g29
sbsg7
I3
sg18
I01
sg19
g38
sbsg18
I00
sg19
coperator
sub
p86
sbsg21
(imyEvolve
Tree
p87
(dp88
g7
I4
sg8
(imyEvolve
Tree
p89
(dp90
g11
(imyEvolve
Tree
p91
(dp92
g7
I2
sg8
(imyEvolve
Tree
p93
(dp94
g11
(imyEvolve
Tree
p95
(dp96
g7
I0
sg17
I00
sbsg7
I1
sg18
I01
sg19
g20
sbsg21
(imyEvolve
Tree
p97
(dp98
g7
I1
sg8
(imyEvolve
Tree
p99
(dp100
g7
I0
sg17
I00
sbsg21
(imyEvolve
Tree
p101
(dp102
g7
I0
sg17
I00
sbsg18
I00
sg19
g29
sbsg18
I00
sg19
g45
sbsg7
I3
sg18
I01
sg19
g20
sbsg21
(imyEvolve
Tree
p103
(dp104
g7
I3
sg8
(imyEvolve
Tree
p105
(dp106
g11
(imyEvolve
Tree
p107
(dp108
g7
I1
sg8
(imyEvolve
Tree
p109
(dp110
g7
I0
sg16
F3.435970457466368
sg17
I01
sbsg21
(imyEvolve
Tree
p111
(dp112
g7
I0
sg16
F-1.8967526745248176
sg17
I01
sbsg18
I00
sg19
g86
sbsg7
I2
sg18
I01
sg19
cmath
cos
p113
sbsg21
(imyEvolve
Tree
p114
(dp115
g7
I2
sg8
(imyEvolve
Tree
p116
(dp117
g7
I1
sg8
(imyEvolve
Tree
p118
(dp119
g7
I0
sg17
I00
sbsg21
(imyEvolve
Tree
p120
(dp121
g7
I0
sg17
I00
sbsg18
I00
sg19
g45
sbsg21
(imyEvolve
Tree
p122
(dp123
g7
I1
sg8
(imyEvolve
Tree
p124
(dp125
g7
I0
sg16
F-4.261280436482378
sg17
I01
sbsg21
(imyEvolve
Tree
p126
(dp127
g7
I0
sg17
I00
sbsg18
I00
sg19
g45
sbsg18
I00
sg19
g29
sbsg18
I00
sg19
g86
sbsg18
I00
sg19
g45
sbsg18
I00
sg19
g86
sba(imyEvolve
Tree
p128
(dp129
g11
(imyEvolve
Tree
p130
(dp131
g7
I4
sg8
(imyEvolve
Tree
p132
(dp133
g7
I3
sg8
(imyEvolve
Tree
p134
(dp135
g11
(imyEvolve
Tree
p136
(dp137
g11
(imyEvolve
Tree
p138
(dp139
g7
I0
sg17
I00
sbsg7
I1
sg18
I01
sg19
g38
sbsg7
I2
sg18
I01
sg19
g28
sbsg21
(imyEvolve
Tree
p140
(dp141
g7
I2
sg8
(imyEvolve
Tree
p142
(dp143
g11
(imyEvolve
Tree
p144
(dp145
g7
I0
sg16
F1.6332381595393155
sg17
I01
sbsg7
I1
sg18
I01
sg19
g28
sbsg21
(imyEvolve
Tree
p146
(dp147
g11
(imyEvolve
Tree
p148
(dp149
g7
I0
sg17
I00
sbsg7
I1
sg18
I01
sg19
g20
sbsg18
I00
sg19
g45
sbsg18
I00
sg19
g45
sbsg21
(imyEvolve
Tree
p150
(dp151
g11
(imyEvolve
Tree
p152
(dp153
g7
I2
sg8
(imyEvolve
Tree
p154
(dp155
g7
I1
sg8
(imyEvolve
Tree
p156
(dp157
g7
I0
sg16
F4.8524345854550965
sg17
I01
sbsg21
(imyEvolve
Tree
p158
(dp159
g7
I0
sg16
F0.8169634613320884
sg17
I01
sbsg18
I00
sg19
g29
sbsg21
(imyEvolve
Tree
p160
(dp161
g11
(imyEvolve
Tree
p162
(dp163
g7
I0
sg17
I00
sbsg7
I1
sg18
I01
sg19
g20
sbsg18
I00
sg19
g86
sbsg7
I3
sg18
I01
sg19
g38
sbsg18
I00
sg19
g29
sbsg7
I5
sg18
I01
sg19
g20
sba(imyEvolve
Tree
p164
(dp165
g11
(imyEvolve
Tree
p166
(dp167
g7
I2
sg8
(imyEvolve
Tree
p168
(dp169
g11
(imyEvolve
Tree
p170
(dp171
g7
I0
sg17
I00
sbsg7
I1
sg18
I01
sg19
g28
sbsg21
(imyEvolve
Tree
p172
(dp173
g7
I1
sg8
(imyEvolve
Tree
p174
(dp175
g7
I0
sg16
F-3.4731268840405005
sg17
I01
sbsg21
(imyEvolve
Tree
p176
(dp177
g7
I0
sg16
F0.7724480232484101
sg17
I01
sbsg18
I00
sg19
g45
sbsg18
I00
sg19
g29
sbsg7
I3
sg18
I01
sg19
g113
sba(imyEvolve
Tree
p178
(dp179
g7
I5
sg8
(imyEvolve
Tree
p180
(dp181
g11
(imyEvolve
Tree
p182
(dp183
g7
I3
sg8
(imyEvolve
Tree
p184
(dp185
g11
(imyEvolve
Tree
p186
(dp187
g7
I1
sg8
(imyEvolve
Tree
p188
(dp189
g7
I0
sg17
I00
sbsg21
(imyEvolve
Tree
p190
(dp191
g7
I0
sg16
F-3.280107237908949
sg17
I01
sbsg18
I00
sg19
g45
sbsg7
I2
sg18
I01
sg19
g20
sbsg21
(imyEvolve
Tree
p192
(dp193
g7
I2
sg8
(imyEvolve
Tree
p194
(dp195
g11
(imyEvolve
Tree
p196
(dp197
g7
I0
sg17
I00
sbsg7
I1
sg18
I01
sg19
g28
sbsg21
(imyEvolve
Tree
p198
(dp199
g11
(imyEvolve
Tree
p200
(dp201
g7
I0
sg17
I00
sbsg7
I1
sg18
I01
sg19
g20
sbsg18
I00
sg19
g45
sbsg18
I00
sg19
g45
sbsg7
I4
sg18
I01
sg19
g20
sbsg21
(imyEvolve
Tree
p202
(dp203
g7
I4
sg8
(imyEvolve
Tree
p204
(dp205
g7
I3
sg8
(imyEvolve
Tree
p206
(dp207
g11
(imyEvolve
Tree
p208
(dp209
g11
(imyEvolve
Tree
p210
(dp211
g7
I0
sg16
F0.21132415384433134
sg17
I01
sbsg7
I1
sg18
I01
sg19
g28
sbsg7
I2
sg18
I01
sg19
g113
sbsg21
(imyEvolve
Tree
p212
(dp213
g7
I2
sg8
(imyEvolve
Tree
p214
(dp215
g7
I1
sg8
(imyEvolve
Tree
p216
(dp217
g7
I0
sg17
I00
sbsg21
(imyEvolve
Tree
p218
(dp219
g7
I0
sg17
I00
sbsg18
I00
sg19
g29
sbsg21
(imyEvolve
Tree
p220
(dp221
g7
I1
sg8
(imyEvolve
Tree
p222
(dp223
g7
I0
sg17
I00
sbsg21
(imyEvolve
Tree
p224
(dp225
g7
I0
sg17
I00
sbsg18
I00
sg19
g29
sbsg18
I00
sg19
g45
sbsg18
I00
sg19
g45
sbsg21
(imyEvolve
Tree
p226
(dp227
g11
(imyEvolve
Tree
p228
(dp229
g11
(imyEvolve
Tree
p230
(dp231
g7
I1
sg8
(imyEvolve
Tree
p232
(dp233
g7
I0
sg17
I00
sbsg21
(imyEvolve
Tree
p234
(dp235
g7
I0
sg17
I00
sbsg18
I00
sg19
g86
sbsg7
I2
sg18
I01
sg19
g113
sbsg7
I3
sg18
I01
sg19
g113
sbsg18
I00
sg19
g86
sbsg18
I00
sg19
g29
sba(imyEvolve
Tree
p236
(dp237
g11
(imyEvolve
Tree
p238
(dp239
g11
(imyEvolve
Tree
p240
(dp241
g7
I0
sg16
F0.2913606689884407
sg17
I01
sbsg7
I1
sg18
I01
sg19
g28
sbsg7
I2
sg18
I01
sg19
g113
sba(imyEvolve
Tree
p242
(dp243
g11
(imyEvolve
Tree
p244
(dp245
g11
(imyEvolve
Tree
p246
(dp247
g7
I2
sg8
(imyEvolve
Tree
p248
(dp249
g7
I1
sg8
(imyEvolve
Tree
p250
(dp251
g7
I0
sg16
F-2.029690646546981
sg17
I01
sbsg21
(imyEvolve
Tree
p252
(dp253
g7
I0
sg16
F3.739655075523169
sg17
I01
sbsg18
I00
sg19
g45
sbsg21
(imyEvolve
Tree
p254
(dp255
g7
I1
sg8
(imyEvolve
Tree
p256
(dp257
g7
I0
sg17
I00
sbsg21
(imyEvolve
Tree
p258
(dp259
g7
I0
sg17
I00
sbsg18
I00
sg19
g29
sbsg18
I00
sg19
g45
sbsg7
I3
sg18
I01
sg19
g113
sbsg7
I4
sg18
I01
sg19
g38
sba(imyEvolve
Tree
p260
(dp261
g11
(imyEvolve
Tree
p262
(dp263
g11
(imyEvolve
Tree
p264
(dp265
g7
I2
sg8
(imyEvolve
Tree
p266
(dp267
g7
I1
sg8
(imyEvolve
Tree
p268
(dp269
g7
I0
sg17
I00
sbsg21
(imyEvolve
Tree
p270
(dp271
g7
I0
sg17
I00
sbsg18
I00
sg19
g45
sbsg21
(imyEvolve
Tree
p272
(dp273
g11
(imyEvolve
Tree
p274
(dp275
g7
I0
sg17
I00
sbsg7
I1
sg18
I01
sg19
g28
sbsg18
I00
sg19
g86
sbsg7
I3
sg18
I01
sg19
g38
sbsg7
I4
sg18
I01
sg19
g38
sba(imyEvolve
Tree
p276
(dp277
g7
I2
sg8
(imyEvolve
Tree
p278
(dp279
g7
I1
sg8
(imyEvolve
Tree
p280
(dp281
g7
I0
sg17
I00
sbsg21
(imyEvolve
Tree
p282
(dp283
g7
I0
sg17
I00
sbsg18
I00
sg19
g29
sbsg21
(imyEvolve
Tree
p284
(dp285
g11
(imyEvolve
Tree
p286
(dp287
g7
I0
sg17
I00
sbsg7
I1
sg18
I01
sg19
g113
sbsg18
I00
sg19
g29
sba(imyEvolve
Tree
p288
(dp289
g7
I2
sg8
(imyEvolve
Tree
p290
(dp291
g7
I1
sg8
(imyEvolve
Tree
p292
(dp293
g7
I0
sg17
I00
sbsg21
(imyEvolve
Tree
p294
(dp295
g7
I0
sg16
F3.550381872075338
sg17
I01
sbsg18
I00
sg19
g86
sbsg21
(imyEvolve
Tree
p296
(dp297
g7
I1
sg8
(imyEvolve
Tree
p298
(dp299
g7
I0
sg17
I00
sbsg21
(imyEvolve
Tree
p300
(dp301
g7
I0
sg16
F3.361405058196036
sg17
I01
sbsg18
I00
sg19
g45
sbsg18
I00
sg19
g29
sba(imyEvolve
Tree
p302
(dp303
g11
(imyEvolve
Tree
p304
(dp305
g11
(imyEvolve
Tree
p306
(dp307
g7
I1
sg8
(imyEvolve
Tree
p308
(dp309
g7
I0
sg16
F0.9814768532098928
sg17
I01
sbsg21
(imyEvolve
Tree
p310
(dp311
g7
I0
sg17
I00
sbsg18
I00
sg19
g86
sbsg7
I2
sg18
I01
sg19
g20
sbsg7
I3
sg18
I01
sg19
g113
sba(imyEvolve
Tree
p312
(dp313
g7
I4
sg8
(imyEvolve
Tree
p314
(dp315
g11
(imyEvolve
Tree
p316
(dp317
g11
(imyEvolve
Tree
p318
(dp319
g7
I1
sg8
(imyEvolve
Tree
p320
(dp321
g7
I0
sg17
I00
sbsg21
(imyEvolve
Tree
p322
(dp323
g7
I0
sg16
F-4.2658845076695435
sg17
I01
sbsg18
I00
sg19
g45
sbsg7
I2
sg18
I01
sg19
g28
sbsg7
I3
sg18
I01
sg19
g113
sbsg21
(imyEvolve
Tree
p324
(dp325
g7
I3
sg8
(imyEvolve
Tree
p326
(dp327
g7
I2
sg8
(imyEvolve
Tree
p328
(dp329
g11
(imyEvolve
Tree
p330
(dp331
g7
I0
sg16
F-0.7151891930270349
sg17
I01
sbsg7
I1
sg18
I01
sg19
g38
sbsg21
(imyEvolve
Tree
p332
(dp333
g7
I1
sg8
(imyEvolve
Tree
p334
(dp335
g7
I0
sg17
I00
sbsg21
(imyEvolve
Tree
p336
(dp337
g7
I0
sg17
I00
sbsg18
I00
sg19
g86
sbsg18
I00
sg19
g45
sbsg21
(imyEvolve
Tree
p338
(dp339
g7
I2
sg8
(imyEvolve
Tree
p340
(dp341
g7
I1
sg8
(imyEvolve
Tree
p342
(dp343
g7
I0
sg17
I00
sbsg21
(imyEvolve
Tree
p344
(dp345
g7
I0
sg17
I00
sbsg18
I00
sg19
g86
sbsg21
(imyEvolve
Tree
p346
(dp347
g11
(imyEvolve
Tree
p348
(dp349
g7
I0
sg17
I00
sbsg7
I1
sg18
I01
sg19
g28
sbsg18
I00
sg19
g29
sbsg18
I00
sg19
g45
sbsg18
I00
sg19
g86
sba(imyEvolve
Tree
p350
(dp351
g11
(imyEvolve
Tree
p352
(dp353
g7
I2
sg8
(imyEvolve
Tree
p354
(dp355
g11
(imyEvolve
Tree
p356
(dp357
g7
I0
sg17
I00
sbsg7
I1
sg18
I01
sg19
g38
sbsg21
(imyEvolve
Tree
p358
(dp359
g7
I1
sg8
(imyEvolve
Tree
p360
(dp361
g7
I0
sg17
I00
sbsg21
(imyEvolve
Tree
p362
(dp363
g7
I0
sg17
I00
sbsg18
I00
sg19
g86
sbsg18
I00
sg19
g86
sbsg7
I3
sg18
I01
sg19
g28
sba(imyEvolve
Tree
p364
(dp365
g7
I2
sg8
(imyEvolve
Tree
p366
(dp367
g7
I1
sg8
(imyEvolve
Tree
p368
(dp369
g7
I0
sg16
F-2.6035793568859567
sg17
I01
sbsg21
(imyEvolve
Tree
p370
(dp371
g7
I0
sg17
I00
sbsg18
I00
sg19
g45
sbsg21
(imyEvolve
Tree
p372
(dp373
g7
I1
sg8
(imyEvolve
Tree
p374
(dp375
g7
I0
sg17
I00
sbsg21
(imyEvolve
Tree
p376
(dp377
g7
I0
sg17
I00
sbsg18
I00
sg19
g86
sbsg18
I00
sg19
g86
sba(imyEvolve
Tree
p378
(dp379
g11
(imyEvolve
Tree
p380
(dp381
g11
(imyEvolve
Tree
p382
(dp383
g7
I0
sg16
F3.384586112183481
sg17
I01
sbsg7
I1
sg18
I01
sg19
g38
sbsg7
I2
sg18
I01
sg19
g28
sba(imyEvolve
Tree
p384
(dp385
g7
I2
sg8
(imyEvolve
Tree
p386
(dp387
g7
I1
sg8
(imyEvolve
Tree
p388
(dp389
g7
I0
sg16
F3.178338160170977
sg17
I01
sbsg21
(imyEvolve
Tree
p390
(dp391
g7
I0
sg17
I00
sbsg18
I00
sg19
g86
sbsg21
(imyEvolve
Tree
p392
(dp393
g7
I1
sg8
(imyEvolve
Tree
p394
(dp395
g7
I0
sg16
F4.65916394773997
sg17
I01
sbsg21
(imyEvolve
Tree
p396
(dp397
g7
I0
sg17
I00
sbsg18
I00
sg19
g45
sbsg18
I00
sg19
g29
sbaa(lp398
(imyEvolve
Tree
p399
(dp400
g11
(imyEvolve
Tree
p401
(dp402
g7
I2
sg8
(imyEvolve
Tree
p403
(dp404
g7
I1
sg8
(imyEvolve
Tree
p405
(dp406
g7
I0
sg17
I00
sbsg21
(imyEvolve
Tree
p407
(dp408
g7
I0
sg17
I00
sbsg18
I00
sg19
g45
sbsg21
(imyEvolve
Tree
p409
(dp410
g11
(imyEvolve
Tree
p411
(dp412
g7
I0
sg17
I00
sbsg7
I1
sg18
I01
sg19
g28
sbsg18
I00
sg19
g86
sbsg7
I3
sg18
I01
sg19
g20
sba(imyEvolve
Tree
p413
(dp414
g11
(imyEvolve
Tree
p415
(dp416
g7
I3
sg8
(imyEvolve
Tree
p417
(dp418
g7
I2
sg8
(imyEvolve
Tree
p419
(dp420
g11
(imyEvolve
Tree
p421
(dp422
g7
I0
sg17
I00
sbsg7
I1
sg18
I01
sg19
g20
sbsg21
(imyEvolve
Tree
p423
(dp424
g11
(imyEvolve
Tree
p425
(dp426
g7
I0
sg17
I00
sbsg7
I1
sg18
I01
sg19
g28
sbsg18
I00
sg19
g45
sbsg21
(imyEvolve
Tree
p427
(dp428
g7
I2
sg8
(imyEvolve
Tree
p429
(dp430
g11
(imyEvolve
Tree
p431
(dp432
g7
I0
sg17
I00
sbsg7
I1
sg18
I01
sg19
g28
sbsg21
(imyEvolve
Tree
p433
(dp434
g7
I1
sg8
(imyEvolve
Tree
p435
(dp436
g7
I0
sg16
F-0.49695795130495135
sg17
I01
sbsg21
(imyEvolve
Tree
p437
(dp438
g7
I0
sg17
I00
sbsg18
I00
sg19
g29
sbsg18
I00
sg19
g29
sbsg18
I00
sg19
g29
sbsg7
I4
sg18
I01
sg19
g28
sba(imyEvolve
Tree
p439
(dp440
g7
I5
sg8
(imyEvolve
Tree
p441
(dp442
g11
(imyEvolve
Tree
p443
(dp444
g11
(imyEvolve
Tree
p445
(dp446
g11
(imyEvolve
Tree
p447
(dp448
g11
(imyEvolve
Tree
p449
(dp450
g7
I0
sg17
I00
sbsg7
I1
sg18
I01
sg19
g20
sbsg7
I2
sg18
I01
sg19
g38
sbsg7
I3
sg18
I01
sg19
g28
sbsg7
I4
sg18
I01
sg19
g28
sbsg21
(imyEvolve
Tree
p451
(dp452
g11
(imyEvolve
Tree
p453
(dp454
g7
I3
sg8
(imyEvolve
Tree
p455
(dp456
g11
(imyEvolve
Tree
p457
(dp458
g11
(imyEvolve
Tree
p459
(dp460
g7
I0
sg17
I00
sbsg7
I1
sg18
I01
sg19
g20
sbsg7
I2
sg18
I01
sg19
g113
sbsg21
(imyEvolve
Tree
p461
(dp462
g11
(imyEvolve
Tree
p463
(dp464
g7
I1
sg8
(imyEvolve
Tree
p465
(dp466
g7
I0
sg16
F0.7053577025429858
sg17
I01
sbsg21
(imyEvolve
Tree
p467
(dp468
g7
I0
sg17
I00
sbsg18
I00
sg19
g86
sbsg7
I2
sg18
I01
sg19
g38
sbsg18
I00
sg19
g45
sbsg7
I4
sg18
I01
sg19
g113
sbsg18
I00
sg19
g45
sba(imyEvolve
Tree
p469
(dp470
g7
I2
sg8
(imyEvolve
Tree
p471
(dp472
g7
I1
sg8
(imyEvolve
Tree
p473
(dp474
g7
I0
sg16
F-3.0558260228894008
sg17
I01
sbsg21
(imyEvolve
Tree
p475
(dp476
g7
I0
sg17
I00
sbsg18
I00
sg19
g45
sbsg21
(imyEvolve
Tree
p477
(dp478
g7
I1
sg8
(imyEvolve
Tree
p479
(dp480
g7
I0
sg16
F-1.4200020506221467
sg17
I01
sbsg21
(imyEvolve
Tree
p481
(dp482
g7
I0
sg17
I00
sbsg18
I00
sg19
g29
sbsg18
I00
sg19
g45
sba(imyEvolve
Tree
p483
(dp484
g7
I4
sg8
(imyEvolve
Tree
p485
(dp486
g7
I3
sg8
(imyEvolve
Tree
p487
(dp488
g11
(imyEvolve
Tree
p489
(dp490
g11
(imyEvolve
Tree
p491
(dp492
g7
I0
sg17
I00
sbsg7
I1
sg18
I01
sg19
g38
sbsg7
I2
sg18
I01
sg19
g20
sbsg21
(imyEvolve
Tree
p493
(dp494
g11
(imyEvolve
Tree
p495
(dp496
g11
(imyEvolve
Tree
p497
(dp498
g7
I0
sg16
F1.0001772943947085
sg17
I01
sbsg7
I1
sg18
I01
sg19
g38
sbsg7
I2
sg18
I01
sg19
g113
sbsg18
I00
sg19
g45
sbsg21
(imyEvolve
Tree
p499
(dp500
g7
I3
sg8
(imyEvolve
Tree
p501
(dp502
g7
I2
sg8
(imyEvolve
Tree
p503
(dp504
g7
I1
sg8
(imyEvolve
Tree
p505
(dp506
g7
I0
sg17
I00
sbsg21
(imyEvolve
Tree
p507
(dp508
g7
I0
sg16
F-4.020805249285849
sg17
I01
sbsg18
I00
sg19
g86
sbsg21
(imyEvolve
Tree
p509
(dp510
g11
(imyEvolve
Tree
p511
(dp512
g7
I0
sg16
F1.3094354558865309
sg17
I01
sbsg7
I1
sg18
I01
sg19
g28
sbsg18
I00
sg19
g86
sbsg21
(imyEvolve
Tree
p513
(dp514
g11
(imyEvolve
Tree
p515
(dp516
g7
I1
sg8
(imyEvolve
Tree
p517
(dp518
g7
I0
sg16
F-3.0168504602466117
sg17
I01
sbsg21
(imyEvolve
Tree
p519
(dp520
g7
I0
sg16
F0.044594014025860496
sg17
I01
sbsg18
I00
sg19
g29
sbsg7
I2
sg18
I01
sg19
g20
sbsg18
I00
sg19
g29
sbsg18
I00
sg19
g29
sba(imyEvolve
Tree
p521
(dp522
g11
(imyEvolve
Tree
p523
(dp524
g11
(imyEvolve
Tree
p525
(dp526
g11
(imyEvolve
Tree
p527
(dp528
g7
I2
sg8
(imyEvolve
Tree
p529
(dp530
g11
(imyEvolve
Tree
p531
(dp532
g7
I0
sg16
F-3.982236252416792
sg17
I01
sbsg7
I1
sg18
I01
sg19
g113
sbsg21
(imyEvolve
Tree
p533
(dp534
g7
I1
sg8
(imyEvolve
Tree
p535
(dp536
g7
I0
sg17
I00
sbsg21
(imyEvolve
Tree
p537
(dp538
g7
I0
sg16
F-0.7219055781401007
sg17
I01
sbsg18
I00
sg19
g29
sbsg18
I00
sg19
g45
sbsg7
I3
sg18
I01
sg19
g38
sbsg7
I4
sg18
I01
sg19
g20
sbsg7
I5
sg18
I01
sg19
g113
sba(imyEvolve
Tree
p539
(dp540
g7
I2
sg8
(imyEvolve
Tree
p541
(dp542
g11
(imyEvolve
Tree
p543
(dp544
g7
I0
sg16
F-1.8765376310571802
sg17
I01
sbsg7
I1
sg18
I01
sg19
g113
sbsg21
(imyEvolve
Tree
p545
(dp546
g7
I1
sg8
(imyEvolve
Tree
p547
(dp548
g7
I0
sg16
F-4.3464385475649445
sg17
I01
sbsg21
(imyEvolve
Tree
p549
(dp550
g7
I0
sg16
F-2.5143004447572515
sg17
I01
sbsg18
I00
sg19
g45
sbsg18
I00
sg19
g29
sba(imyEvolve
Tree
p551
(dp552
g11
(imyEvolve
Tree
p553
(dp554
g11
(imyEvolve
Tree
p555
(dp556
g7
I3
sg8
(imyEvolve
Tree
p557
(dp558
g11
(imyEvolve
Tree
p559
(dp560
g7
I1
sg8
(imyEvolve
Tree
p561
(dp562
g7
I0
sg16
F4.724329071510255
sg17
I01
sbsg21
(imyEvolve
Tree
p563
(dp564
g7
I0
sg17
I00
sbsg18
I00
sg19
g29
sbsg7
I2
sg18
I01
sg19
g20
sbsg21
(imyEvolve
Tree
p565
(dp566
g7
I2
sg8
(imyEvolve
Tree
p567
(dp568
g11
(imyEvolve
Tree
p569
(dp570
g7
I0
sg16
F3.1712726919715237
sg17
I01
sbsg7
I1
sg18
I01
sg19
g20
sbsg21
(imyEvolve
Tree
p571
(dp572
g11
(imyEvolve
Tree
p573
(dp574
g7
I0
sg16
F-2.4378044028652592
sg17
I01
sbsg7
I1
sg18
I01
sg19
g20
sbsg18
I00
sg19
g86
sbsg18
I00
sg19
g86
sbsg7
I4
sg18
I01
sg19
g38
sbsg7
I5
sg18
I01
sg19
g28
sba(imyEvolve
Tree
p575
(dp576
g11
(imyEvolve
Tree
p577
(dp578
g11
(imyEvolve
Tree
p579
(dp580
g7
I2
sg8
(imyEvolve
Tree
p581
(dp582
g7
I1
sg8
(imyEvolve
Tree
p583
(dp584
g7
I0
sg16
F-0.9638951237623434
sg17
I01
sbsg21
(imyEvolve
Tree
p585
(dp586
g7
I0
sg17
I00
sbsg18
I00
sg19
g29
sbsg21
(imyEvolve
Tree
p587
(dp588
g7
I1
sg8
(imyEvolve
Tree
p589
(dp590
g7
I0
sg16
F0.9251340411452533
sg17
I01
sbsg21
(imyEvolve
Tree
p591
(dp592
g7
I0
sg16
F4.627826208692214
sg17
I01
sbsg18
I00
sg19
g86
sbsg18
I00
sg19
g86
sbsg7
I3
sg18
I01
sg19
g113
sbsg7
I4
sg18
I01
sg19
g20
sba(imyEvolve
Tree
p593
(dp594
g7
I4
sg8
(imyEvolve
Tree
p595
(dp596
g7
I3
sg8
(imyEvolve
Tree
p597
(dp598
g11
(imyEvolve
Tree
p599
(dp600
g11
(imyEvolve
Tree
p601
(dp602
g7
I0
sg16
F2.493071552530779
sg17
I01
sbsg7
I1
sg18
I01
sg19
g20
sbsg7
I2
sg18
I01
sg19
g28
sbsg21
(imyEvolve
Tree
p603
(dp604
g11
(imyEvolve
Tree
p605
(dp606
g7
I1
sg8
(imyEvolve
Tree
p607
(dp608
g7
I0
sg16
F-1.9688625640355184
sg17
I01
sbsg21
(imyEvolve
Tree
p609
(dp610
g7
I0
sg16
F0.8183637529579553
sg17
I01
sbsg18
I00
sg19
g86
sbsg7
I2
sg18
I01
sg19
g28
sbsg18
I00
sg19
g45
sbsg21
(imyEvolve
Tree
p611
(dp612
g7
I3
sg8
(imyEvolve
Tree
p613
(dp614
g11
(imyEvolve
Tree
p615
(dp616
g7
I1
sg8
(imyEvolve
Tree
p617
(dp618
g7
I0
sg16
F-2.2051375433970644
sg17
I01
sbsg21
(imyEvolve
Tree
p619
(dp620
g7
I0
sg17
I00
sbsg18
I00
sg19
g45
sbsg7
I2
sg18
I01
sg19
g113
sbsg21
(imyEvolve
Tree
p621
(dp622
g7
I2
sg8
(imyEvolve
Tree
p623
(dp624
g7
I1
sg8
(imyEvolve
Tree
p625
(dp626
g7
I0
sg16
F2.904198862706444
sg17
I01
sbsg21
(imyEvolve
Tree
p627
(dp628
g7
I0
sg17
I00
sbsg18
I00
sg19
g45
sbsg21
(imyEvolve
Tree
p629
(dp630
g7
I1
sg8
(imyEvolve
Tree
p631
(dp632
g7
I0
sg17
I00
sbsg21
(imyEvolve
Tree
p633
(dp634
g7
I0
sg17
I00
sbsg18
I00
sg19
g45
sbsg18
I00
sg19
g29
sbsg18
I00
sg19
g29
sbsg18
I00
sg19
g86
sba(imyEvolve
Tree
p635
(dp636
g11
(imyEvolve
Tree
p637
(dp638
g11
(imyEvolve
Tree
p639
(dp640
g7
I2
sg8
(imyEvolve
Tree
p641
(dp642
g7
I1
sg8
(imyEvolve
Tree
p643
(dp644
g7
I0
sg16
F1.6054879235135502
sg17
I01
sbsg21
(imyEvolve
Tree
p645
(dp646
g7
I0
sg17
I00
sbsg18
I00
sg19
g45
sbsg21
(imyEvolve
Tree
p647
(dp648
g11
(imyEvolve
Tree
p649
(dp650
g7
I0
sg16
F-0.1047063834828057
sg17
I01
sbsg7
I1
sg18
I01
sg19
g38
sbsg18
I00
sg19
g86
sbsg7
I3
sg18
I01
sg19
g113
sbsg7
I4
sg18
I01
sg19
g28
sba(imyEvolve
Tree
p651
(dp652
g7
I3
sg8
(imyEvolve
Tree
p653
(dp654
g7
I2
sg8
(imyEvolve
Tree
p655
(dp656
g11
(imyEvolve
Tree
p657
(dp658
g7
I0
sg16
F-4.214676492199663
sg17
I01
sbsg7
I1
sg18
I01
sg19
g28
sbsg21
(imyEvolve
Tree
p659
(dp660
g11
(imyEvolve
Tree
p661
(dp662
g7
I0
sg17
I00
sbsg7
I1
sg18
I01
sg19
g20
sbsg18
I00
sg19
g86
sbsg21
(imyEvolve
Tree
p663
(dp664
g7
I2
sg8
(imyEvolve
Tree
p665
(dp666
g11
(imyEvolve
Tree
p667
(dp668
g7
I0
sg16
F-1.3479012570209257
sg17
I01
sbsg7
I1
sg18
I01
sg19
g20
sbsg21
(imyEvolve
Tree
p669
(dp670
g7
I1
sg8
(imyEvolve
Tree
p671
(dp672
g7
I0
sg16
F-0.5293546841931214
sg17
I01
sbsg21
(imyEvolve
Tree
p673
(dp674
g7
I0
sg17
I00
sbsg18
I00
sg19
g45
sbsg18
I00
sg19
g45
sbsg18
I00
sg19
g45
sba(imyEvolve
Tree
p675
(dp676
g11
(imyEvolve
Tree
p677
(dp678
g11
(imyEvolve
Tree
p679
(dp680
g7
I0
sg16
F4.467544528962547
sg17
I01
sbsg7
I1
sg18
I01
sg19
g28
sbsg7
I2
sg18
I01
sg19
g28
sba(imyEvolve
Tree
p681
(dp682
g7
I5
sg8
(imyEvolve
Tree
p683
(dp684
g11
(imyEvolve
Tree
p685
(dp686
g11
(imyEvolve
Tree
p687
(dp688
g7
I2
sg8
(imyEvolve
Tree
p689
(dp690
g11
(imyEvolve
Tree
p691
(dp692
g7
I0
sg17
I00
sbsg7
I1
sg18
I01
sg19
g20
sbsg21
(imyEvolve
Tree
p693
(dp694
g11
(imyEvolve
Tree
p695
(dp696
g7
I0
sg16
F-0.03294635525347367
sg17
I01
sbsg7
I1
sg18
I01
sg19
g38
sbsg18
I00
sg19
g86
sbsg7
I3
sg18
I01
sg19
g28
sbsg7
I4
sg18
I01
sg19
g38
sbsg21
(imyEvolve
Tree
p697
(dp698
g7
I4
sg8
(imyEvolve
Tree
p699
(dp700
g7
I3
sg8
(imyEvolve
Tree
p701
(dp702
g7
I2
sg8
(imyEvolve
Tree
p703
(dp704
g7
I1
sg8
(imyEvolve
Tree
p705
(dp706
g7
I0
sg16
F3.5746065104116163
sg17
I01
sbsg21
(imyEvolve
Tree
p707
(dp708
g7
I0
sg17
I00
sbsg18
I00
sg19
g45
sbsg21
(imyEvolve
Tree
p709
(dp710
g11
(imyEvolve
Tree
p711
(dp712
g7
I0
sg16
F1.8914341788979359
sg17
I01
sbsg7
I1
sg18
I01
sg19
g28
sbsg18
I00
sg19
g86
sbsg21
(imyEvolve
Tree
p713
(dp714
g11
(imyEvolve
Tree
p715
(dp716
g11
(imyEvolve
Tree
p717
(dp718
g7
I0
sg17
I00
sbsg7
I1
sg18
I01
sg19
g113
sbsg7
I2
sg18
I01
sg19
g113
sbsg18
I00
sg19
g45
sbsg21
(imyEvolve
Tree
p719
(dp720
g7
I3
sg8
(imyEvolve
Tree
p721
(dp722
g11
(imyEvolve
Tree
p723
(dp724
g7
I1
sg8
(imyEvolve
Tree
p725
(dp726
g7
I0
sg16
F4.407086264078725
sg17
I01
sbsg21
(imyEvolve
Tree
p727
(dp728
g7
I0
sg17
I00
sbsg18
I00
sg19
g45
sbsg7
I2
sg18
I01
sg19
g38
sbsg21
(imyEvolve
Tree
p729
(dp730
g11
(imyEvolve
Tree
p731
(dp732
g7
I1
sg8
(imyEvolve
Tree
p733
(dp734
g7
I0
sg17
I00
sbsg21
(imyEvolve
Tree
p735
(dp736
g7
I0
sg17
I00
sbsg18
I00
sg19
g45
sbsg7
I2
sg18
I01
sg19
g113
sbsg18
I00
sg19
g45
sbsg18
I00
sg19
g29
sbsg18
I00
sg19
g29
sba(imyEvolve
Tree
p737
(dp738
g7
I3
sg8
(imyEvolve
Tree
p739
(dp740
g7
I2
sg8
(imyEvolve
Tree
p741
(dp742
g7
I1
sg8
(imyEvolve
Tree
p743
(dp744
g7
I0
sg17
I00
sbsg21
(imyEvolve
Tree
p745
(dp746
g7
I0
sg17
I00
sbsg18
I00
sg19
g86
sbsg21
(imyEvolve
Tree
p747
(dp748
g11
(imyEvolve
Tree
p749
(dp750
g7
I0
sg16
F-4.895568681079007
sg17
I01
sbsg7
I1
sg18
I01
sg19
g38
sbsg18
I00
sg19
g86
sbsg21
(imyEvolve
Tree
p751
(dp752
g7
I2
sg8
(imyEvolve
Tree
p753
(dp754
g11
(imyEvolve
Tree
p755
(dp756
g7
I0
sg17
I00
sbsg7
I1
sg18
I01
sg19
g28
sbsg21
(imyEvolve
Tree
p757
(dp758
g11
(imyEvolve
Tree
p759
(dp760
g7
I0
sg17
I00
sbsg7
I1
sg18
I01
sg19
g20
sbsg18
I00
sg19
g29
sbsg18
I00
sg19
g86
sba(imyEvolve
Tree
p761
(dp762
g7
I2
sg8
(imyEvolve
Tree
p763
(dp764
g11
(imyEvolve
Tree
p765
(dp766
g7
I0
sg17
I00
sbsg7
I1
sg18
I01
sg19
g20
sbsg21
(imyEvolve
Tree
p767
(dp768
g11
(imyEvolve
Tree
p769
(dp770
g7
I0
sg16
F4.337476903860351
sg17
I01
sbsg7
I1
sg18
I01
sg19
g38
sbsg18
I00
sg19
g29
sba(imyEvolve
Tree
p771
(dp772
g11
(imyEvolve
Tree
p773
(dp774
g7
I2
sg8
(imyEvolve
Tree
p775
(dp776
g7
I1
sg8
(imyEvolve
Tree
p777
(dp778
g7
I0
sg17
I00
sbsg21
(imyEvolve
Tree
p779
(dp780
g7
I0
sg17
I00
sbsg18
I00
sg19
g86
sbsg21
(imyEvolve
Tree
p781
(dp782
g11
(imyEvolve
Tree
p783
(dp784
g7
I0
sg16
F-4.706496241494607
sg17
I01
sbsg7
I1
sg18
I01
sg19
g20
sbsg18
I00
sg19
g45
sbsg7
I3
sg18
I01
sg19
g20
sba(imyEvolve
Tree
p785
(dp786
g7
I5
sg8
(imyEvolve
Tree
p787
(dp788
g11
(imyEvolve
Tree
p789
(dp790
g7
I3
sg8
(imyEvolve
Tree
p791
(dp792
g7
I2
sg8
(imyEvolve
Tree
p793
(dp794
g11
(imyEvolve
Tree
p795
(dp796
g7
I0
sg17
I00
sbsg7
I1
sg18
I01
sg19
g20
sbsg21
(imyEvolve
Tree
p797
(dp798
g11
(imyEvolve
Tree
p799
(dp800
g7
I0
sg17
I00
sbsg7
I1
sg18
I01
sg19
g38
sbsg18
I00
sg19
g29
sbsg21
(imyEvolve
Tree
p801
(dp802
g7
I2
sg8
(imyEvolve
Tree
p803
(dp804
g11
(imyEvolve
Tree
p805
(dp806
g7
I0
sg17
I00
sbsg7
I1
sg18
I01
sg19
g38
sbsg21
(imyEvolve
Tree
p807
(dp808
g7
I1
sg8
(imyEvolve
Tree
p809
(dp810
g7
I0
sg16
F-4.378350185480336
sg17
I01
sbsg21
(imyEvolve
Tree
p811
(dp812
g7
I0
sg17
I00
sbsg18
I00
sg19
g86
sbsg18
I00
sg19
g29
sbsg18
I00
sg19
g45
sbsg7
I4
sg18
I01
sg19
g38
sbsg21
(imyEvolve
Tree
p813
(dp814
g11
(imyEvolve
Tree
p815
(dp816
g11
(imyEvolve
Tree
p817
(dp818
g11
(imyEvolve
Tree
p819
(dp820
g7
I1
sg8
(imyEvolve
Tree
p821
(dp822
g7
I0
sg16
F-4.466750014225425
sg17
I01
sbsg21
(imyEvolve
Tree
p823
(dp824
g7
I0
sg16
F0.9530944139931474
sg17
I01
sbsg18
I00
sg19
g29
sbsg7
I2
sg18
I01
sg19
g28
sbsg7
I3
sg18
I01
sg19
g28
sbsg7
I4
sg18
I01
sg19
g28
sbsg18
I00
sg19
g86
sba(imyEvolve
Tree
p825
(dp826
g7
I2
sg8
(imyEvolve
Tree
p827
(dp828
g11
(imyEvolve
Tree
p829
(dp830
g7
I0
sg17
I00
sbsg7
I1
sg18
I01
sg19
g20
sbsg21
(imyEvolve
Tree
p831
(dp832
g7
I1
sg8
(imyEvolve
Tree
p833
(dp834
g7
I0
sg17
I00
sbsg21
(imyEvolve
Tree
p835
(dp836
g7
I0
sg17
I00
sbsg18
I00
sg19
g45
sbsg18
I00
sg19
g86
sbaasS'weightSharing'
p837
(lp838
I01
asS'fitnessValid'
p839
I00
sS'fitness'
p840
cnumpy.core.multiarray
scalar
p841
(cnumpy
dtype
p842
(S'f8'
p843
I0
I1
tp844
Rp845
(I3
S'<'
p846
NNNI-1
I-1
I0
tp847
bS'\xee|?\xec\xb2\x1a\xe6?'
p848
tp849
Rp850
sS'alpha'
p851
F0.0025506773862888268
sS'resolution'
p852
I78
sb.