(imyEvolve
Individual
p0
(dp1
S'funcs'
p2
(lp3
(lp4
(imyEvolve
Tree
p5
(dp6
S'below'
p7
(imyEvolve
Tree
p8
(dp9
S'depth'
p10
I2
sS'left'
p11
(imyEvolve
Tree
p12
(dp13
g7
(imyEvolve
Tree
p14
(dp15
g10
I0
sS'isConstant'
p16
I00
sbsg10
I1
sS'single'
p17
I01
sS'op'
p18
cmath
sin
p19
sbsS'right'
p20
(imyEvolve
Tree
p21
(dp22
g7
(imyEvolve
Tree
p23
(dp24
g10
I0
sg16
I00
sbsg10
I1
sg17
I01
sg18
cmath
cos
p25
sbsg17
I00
sg18
coperator
mul
p26
sbsg10
I3
sg17
I01
sg18
g19
sba(imyEvolve
Tree
p27
(dp28
g10
I5
sg11
(imyEvolve
Tree
p29
(dp30
g7
(imyEvolve
Tree
p31
(dp32
g10
I3
sg11
(imyEvolve
Tree
p33
(dp34
g7
(imyEvolve
Tree
p35
(dp36
g10
I1
sg11
(imyEvolve
Tree
p37
(dp38
g10
I0
sS'constant'
p39
F-1.8852020417105475
sg16
I01
sbsg20
(imyEvolve
Tree
p40
(dp41
g10
I0
sg16
I00
sbsg17
I00
sg18
g26
sbsg10
I2
sg17
I01
sg18
g19
sbsg20
(imyEvolve
Tree
p42
(dp43
g7
(imyEvolve
Tree
p44
(dp45
g10
I1
sg11
(imyEvolve
Tree
p46
(dp47
g10
I0
sg16
I00
sbsg20
(imyEvolve
Tree
p48
(dp49
g10
I0
sg16
I00
sbsg17
I00
sg18
coperator
sub
p50
sbsg10
I2
sg17
I01
sg18
g25
sbsg17
I00
sg18
g50
sbsg10
I4
sg17
I01
sg18
g19
sbsg20
(imyEvolve
Tree
p51
(dp52
g10
I4
sg11
(imyEvolve
Tree
p53
(dp54
g7
(imyEvolve
Tree
p55
(dp56
g7
(imyEvolve
Tree
p57
(dp58
g7
(imyEvolve
Tree
p59
(dp60
g10
I0
sg39
F-2.3911344333118754
sg16
I01
sbsg10
I1
sg17
I01
sg18
cmyEvolve
absSqrt
p61
sbsg10
I2
sg17
I01
sg18
g61
sbsg10
I3
sg17
I01
sg18
g61
sbsg20
(imyEvolve
Tree
p62
(dp63
g7
(imyEvolve
Tree
p64
(dp65
g10
I2
sg11
(imyEvolve
Tree
p66
(dp67
g10
I1
sg11
(imyEvolve
Tree
p68
(dp69
g10
I0
sg16
I00
sbsg20
(imyEvolve
Tree
p70
(dp71
g10
I0
sg16
I00
sbsg17
I00
sg18
g26
sbsg20
(imyEvolve
Tree
p72
(dp73
g7
(imyEvolve
Tree
p74
(dp75
g10
I0
sg39
F-4.751230714900078
sg16
I01
sbsg10
I1
sg17
I01
sg18
g25
sbsg17
I00
sg18
g50
sbsg10
I3
sg17
I01
sg18
cmyEvolve
square
p76
sbsg17
I00
sg18
coperator
add
p77
sbsg17
I00
sg18
g50
sba(imyEvolve
Tree
p78
(dp79
g10
I2
sg11
(imyEvolve
Tree
p80
(dp81
g7
(imyEvolve
Tree
p82
(dp83
g10
I0
sg39
F0.2730420576284631
sg16
I01
sbsg10
I1
sg17
I01
sg18
g25
sbsg20
(imyEvolve
Tree
p84
(dp85
g10
I1
sg11
(imyEvolve
Tree
p86
(dp87
g10
I0
sg39
F1.9902173849311398
sg16
I01
sbsg20
(imyEvolve
Tree
p88
(dp89
g10
I0
sg16
I00
sbsg17
I00
sg18
g77
sbsg17
I00
sg18
g77
sba(imyEvolve
Tree
p90
(dp91
g7
(imyEvolve
Tree
p92
(dp93
g7
(imyEvolve
Tree
p94
(dp95
g10
I3
sg11
(imyEvolve
Tree
p96
(dp97
g7
(imyEvolve
Tree
p98
(dp99
g7
(imyEvolve
Tree
p100
(dp101
g10
I0
sg16
I00
sbsg10
I1
sg17
I01
sg18
g25
sbsg10
I2
sg17
I01
sg18
g19
sbsg20
(imyEvolve
Tree
p102
(dp103
g7
(imyEvolve
Tree
p104
(dp105
g10
I1
sg11
(imyEvolve
Tree
p106
(dp107
g10
I0
sg39
F-0.3133742855526167
sg16
I01
sbsg20
(imyEvolve
Tree
p108
(dp109
g10
I0
sg39
F1.7756104186593475
sg16
I01
sbsg17
I00
sg18
g50
sbsg10
I2
sg17
I01
sg18
g61
sbsg17
I00
sg18
g26
sbsg10
I4
sg17
I01
sg18
g61
sbsg10
I5
sg17
I01
sg18
g25
sba(imyEvolve
Tree
p110
(dp111
g10
I2
sg11
(imyEvolve
Tree
p112
(dp113
g7
(imyEvolve
Tree
p114
(dp115
g10
I0
sg39
F1.540130676195317
sg16
I01
sbsg10
I1
sg17
I01
sg18
g25
sbsg20
(imyEvolve
Tree
p116
(dp117
g10
I1
sg11
(imyEvolve
Tree
p118
(dp119
g10
I0
sg39
F-0.9588984107274232
sg16
I01
sbsg20
(imyEvolve
Tree
p120
(dp121
g10
I0
sg39
F-4.090736407187617
sg16
I01
sbsg17
I00
sg18
g50
sbsg17
I00
sg18
g50
sba(imyEvolve
Tree
p122
(dp123
g10
I5
sg11
(imyEvolve
Tree
p124
(dp125
g10
I4
sg11
(imyEvolve
Tree
p126
(dp127
g7
(imyEvolve
Tree
p128
(dp129
g10
I2
sg11
(imyEvolve
Tree
p130
(dp131
g10
I1
sg11
(imyEvolve
Tree
p132
(dp133
g10
I0
sg39
F1.050179953728251
sg16
I01
sbsg20
(imyEvolve
Tree
p134
(dp135
g10
I0
sg39
F0.7413863856758276
sg16
I01
sbsg17
I00
sg18
g26
sbsg20
(imyEvolve
Tree
p136
(dp137
g10
I1
sg11
(imyEvolve
Tree
p138
(dp139
g10
I0
sg39
F-3.5604066525416656
sg16
I01
sbsg20
(imyEvolve
Tree
p140
(dp141
g10
I0
sg39
F4.158906830825517
sg16
I01
sbsg17
I00
sg18
g26
sbsg17
I00
sg18
g50
sbsg10
I3
sg17
I01
sg18
g19
sbsg20
(imyEvolve
Tree
p142
(dp143
g7
(imyEvolve
Tree
p144
(dp145
g7
(imyEvolve
Tree
p146
(dp147
g7
(imyEvolve
Tree
p148
(dp149
g10
I0
sg39
F3.9921925662834052
sg16
I01
sbsg10
I1
sg17
I01
sg18
g61
sbsg10
I2
sg17
I01
sg18
g19
sbsg10
I3
sg17
I01
sg18
g61
sbsg17
I00
sg18
g77
sbsg20
(imyEvolve
Tree
p150
(dp151
g7
(imyEvolve
Tree
p152
(dp153
g7
(imyEvolve
Tree
p154
(dp155
g10
I2
sg11
(imyEvolve
Tree
p156
(dp157
g7
(imyEvolve
Tree
p158
(dp159
g10
I0
sg16
I00
sbsg10
I1
sg17
I01
sg18
g25
sbsg20
(imyEvolve
Tree
p160
(dp161
g10
I1
sg11
(imyEvolve
Tree
p162
(dp163
g10
I0
sg39
F-0.69210504404478
sg16
I01
sbsg20
(imyEvolve
Tree
p164
(dp165
g10
I0
sg39
F2.638482790911471
sg16
I01
sbsg17
I00
sg18
g77
sbsg17
I00
sg18
g50
sbsg10
I3
sg17
I01
sg18
g19
sbsg10
I4
sg17
I01
sg18
g76
sbsg17
I00
sg18
g26
sba(imyEvolve
Tree
p166
(dp167
g10
I2
sg11
(imyEvolve
Tree
p168
(dp169
g10
I1
sg11
(imyEvolve
Tree
p170
(dp171
g10
I0
sg16
I00
sbsg20
(imyEvolve
Tree
p172
(dp173
g10
I0
sg16
I00
sbsg17
I00
sg18
g50
sbsg20
(imyEvolve
Tree
p174
(dp175
g7
(imyEvolve
Tree
p176
(dp177
g10
I0
sg16
I00
sbsg10
I1
sg17
I01
sg18
g25
sbsg17
I00
sg18
g50
sba(imyEvolve
Tree
p178
(dp179
g10
I5
sg11
(imyEvolve
Tree
p180
(dp181
g10
I4
sg11
(imyEvolve
Tree
p182
(dp183
g7
(imyEvolve
Tree
p184
(dp185
g10
I2
sg11
(imyEvolve
Tree
p186
(dp187
g10
I1
sg11
(imyEvolve
Tree
p188
(dp189
g10
I0
sg16
I00
sbsg20
(imyEvolve
Tree
p190
(dp191
g10
I0
sg39
F-0.5875709568571725
sg16
I01
sbsg17
I00
sg18
g77
sbsg20
(imyEvolve
Tree
p192
(dp193
g10
I1
sg11
(imyEvolve
Tree
p194
(dp195
g10
I0
sg39
F-3.5458461057784163
sg16
I01
sbsg20
(imyEvolve
Tree
p196
(dp197
g10
I0
sg39
F1.8514201474796286
sg16
I01
sbsg17
I00
sg18
g77
sbsg17
I00
sg18
g77
sbsg10
I3
sg17
I01
sg18
g19
sbsg20
(imyEvolve
Tree
p198
(dp199
g7
(imyEvolve
Tree
p200
(dp201
g10
I2
sg11
(imyEvolve
Tree
p202
(dp203
g7
(imyEvolve
Tree
p204
(dp205
g10
I0
sg16
I00
sbsg10
I1
sg17
I01
sg18
g61
sbsg20
(imyEvolve
Tree
p206
(dp207
g10
I1
sg11
(imyEvolve
Tree
p208
(dp209
g10
I0
sg16
I00
sbsg20
(imyEvolve
Tree
p210
(dp211
g10
I0
sg16
I00
sbsg17
I00
sg18
g77
sbsg17
I00
sg18
g77
sbsg10
I3
sg17
I01
sg18
g76
sbsg17
I00
sg18
g50
sbsg20
(imyEvolve
Tree
p212
(dp213
g10
I4
sg11
(imyEvolve
Tree
p214
(dp215
g7
(imyEvolve
Tree
p216
(dp217
g7
(imyEvolve
Tree
p218
(dp219
g10
I1
sg11
(imyEvolve
Tree
p220
(dp221
g10
I0
sg39
F2.9916687244646702
sg16
I01
sbsg20
(imyEvolve
Tree
p222
(dp223
g10
I0
sg39
F0.35505297883865605
sg16
I01
sbsg17
I00
sg18
g77
sbsg10
I2
sg17
I01
sg18
g76
sbsg10
I3
sg17
I01
sg18
g61
sbsg20
(imyEvolve
Tree
p224
(dp225
g10
I3
sg11
(imyEvolve
Tree
p226
(dp227
g7
(imyEvolve
Tree
p228
(dp229
g10
I1
sg11
(imyEvolve
Tree
p230
(dp231
g10
I0
sg16
I00
sbsg20
(imyEvolve
Tree
p232
(dp233
g10
I0
sg16
I00
sbsg17
I00
sg18
g26
sbsg10
I2
sg17
I01
sg18
g61
sbsg20
(imyEvolve
Tree
p234
(dp235
g7
(imyEvolve
Tree
p236
(dp237
g10
I1
sg11
(imyEvolve
Tree
p238
(dp239
g10
I0
sg39
F-1.0100322666917396
sg16
I01
sbsg20
(imyEvolve
Tree
p240
(dp241
g10
I0
sg16
I00
sbsg17
I00
sg18
g77
sbsg10
I2
sg17
I01
sg18
g25
sbsg17
I00
sg18
g26
sbsg17
I00
sg18
g26
sbsg17
I00
sg18
g26
sba(imyEvolve
Tree
p242
(dp243
g10
I4
sg11
(imyEvolve
Tree
p244
(dp245
g10
I3
sg11
(imyEvolve
Tree
p246
(dp247
g7
(imyEvolve
Tree
p248
(dp249
g10
I1
sg11
(imyEvolve
Tree
p250
(dp251
g10
I0
sg39
F-1.0525298998014119
sg16
I01
sbsg20
(imyEvolve
Tree
p252
(dp253
g10
I0
sg39
F0.9916765597952102
sg16
I01
sbsg17
I00
sg18
g50
sbsg10
I2
sg17
I01
sg18
g25
sbsg20
(imyEvolve
Tree
p254
(dp255
g7
(imyEvolve
Tree
p256
(dp257
g10
I1
sg11
(imyEvolve
Tree
p258
(dp259
g10
I0
sg16
I00
sbsg20
(imyEvolve
Tree
p260
(dp261
g10
I0
sg39
F0.8124714620832822
sg16
I01
sbsg17
I00
sg18
g77
sbsg10
I2
sg17
I01
sg18
g25
sbsg17
I00
sg18
g77
sbsg20
(imyEvolve
Tree
p262
(dp263
g7
(imyEvolve
Tree
p264
(dp265
g10
I2
sg11
(imyEvolve
Tree
p266
(dp267
g10
I1
sg11
(imyEvolve
Tree
p268
(dp269
g10
I0
sg16
I00
sbsg20
(imyEvolve
Tree
p270
(dp271
g10
I0
sg39
F1.8467253504164418
sg16
I01
sbsg17
I00
sg18
g50
sbsg20
(imyEvolve
Tree
p272
(dp273
g10
I1
sg11
(imyEvolve
Tree
p274
(dp275
g10
I0
sg16
I00
sbsg20
(imyEvolve
Tree
p276
(dp277
g10
I0
sg39
F4.981842417920429
sg16
I01
sbsg17
I00
sg18
g77
sbsg17
I00
sg18
g26
sbsg10
I3
sg17
I01
sg18
g76
sbsg17
I00
sg18
g26
sba(imyEvolve
Tree
p278
(dp279
g7
(imyEvolve
Tree
p280
(dp281
g10
I4
sg11
(imyEvolve
Tree
p282
(dp283
g7
(imyEvolve
Tree
p284
(dp285
g7
(imyEvolve
Tree
p286
(dp287
g10
I1
sg11
(imyEvolve
Tree
p288
(dp289
g10
I0
sg39
F-3.677121569566336
sg16
I01
sbsg20
(imyEvolve
Tree
p290
(dp291
g10
I0
sg39
F-1.1620051346749252
sg16
I01
sbsg17
I00
sg18
g77
sbsg10
I2
sg17
I01
sg18
g19
sbsg10
I3
sg17
I01
sg18
g25
sbsg20
(imyEvolve
Tree
p292
(dp293
g10
I3
sg11
(imyEvolve
Tree
p294
(dp295
g7
(imyEvolve
Tree
p296
(dp297
g7
(imyEvolve
Tree
p298
(dp299
g10
I0
sg39
F2.2231772150850917
sg16
I01
sbsg10
I1
sg17
I01
sg18
g25
sbsg10
I2
sg17
I01
sg18
g61
sbsg20
(imyEvolve
Tree
p300
(dp301
g10
I2
sg11
(imyEvolve
Tree
p302
(dp303
g7
(imyEvolve
Tree
p304
(dp305
g10
I0
sg16
I00
sbsg10
I1
sg17
I01
sg18
g19
sbsg20
(imyEvolve
Tree
p306
(dp307
g7
(imyEvolve
Tree
p308
(dp309
g10
I0
sg39
F4.605650138858772
sg16
I01
sbsg10
I1
sg17
I01
sg18
g19
sbsg17
I00
sg18
g26
sbsg17
I00
sg18
g26
sbsg17
I00
sg18
g26
sbsg10
I5
sg17
I01
sg18
g61
sba(imyEvolve
Tree
p310
(dp311
g7
(imyEvolve
Tree
p312
(dp313
g10
I3
sg11
(imyEvolve
Tree
p314
(dp315
g7
(imyEvolve
Tree
p316
(dp317
g7
(imyEvolve
Tree
p318
(dp319
g10
I0
sg16
I00
sbsg10
I1
sg17
I01
sg18
g61
sbsg10
I2
sg17
I01
sg18
g19
sbsg20
(imyEvolve
Tree
p320
(dp321
g10
I2
sg11
(imyEvolve
Tree
p322
(dp323
g10
I1
sg11
(imyEvolve
Tree
p324
(dp325
g10
I0
sg16
I00
sbsg20
(imyEvolve
Tree
p326
(dp327
g10
I0
sg16
I00
sbsg17
I00
sg18
g77
sbsg20
(imyEvolve
Tree
p328
(dp329
g7
(imyEvolve
Tree
p330
(dp331
g10
I0
sg39
F0.7595092593672925
sg16
I01
sbsg10
I1
sg17
I01
sg18
g61
sbsg17
I00
sg18
g77
sbsg17
I00
sg18
g26
sbsg10
I4
sg17
I01
sg18
g25
sba(imyEvolve
Tree
p332
(dp333
g7
(imyEvolve
Tree
p334
(dp335
g7
(imyEvolve
Tree
p336
(dp337
g7
(imyEvolve
Tree
p338
(dp339
g10
I0
sg16
I00
sbsg10
I1
sg17
I01
sg18
g76
sbsg10
I2
sg17
I01
sg18
g19
sbsg10
I3
sg17
I01
sg18
g61
sba(imyEvolve
Tree
p340
(dp341
g10
I4
sg11
(imyEvolve
Tree
p342
(dp343
g10
I3
sg11
(imyEvolve
Tree
p344
(dp345
g7
(imyEvolve
Tree
p346
(dp347
g10
I1
sg11
(imyEvolve
Tree
p348
(dp349
g10
I0
sg16
I00
sbsg20
(imyEvolve
Tree
p350
(dp351
g10
I0
sg16
I00
sbsg17
I00
sg18
g77
sbsg10
I2
sg17
I01
sg18
g61
sbsg20
(imyEvolve
Tree
p352
(dp353
g10
I2
sg11
(imyEvolve
Tree
p354
(dp355
g10
I1
sg11
(imyEvolve
Tree
p356
(dp357
g10
I0
sg16
I00
sbsg20
(imyEvolve
Tree
p358
(dp359
g10
I0
sg39
F-4.21863239573643
sg16
I01
sbsg17
I00
sg18
g26
sbsg20
(imyEvolve
Tree
p360
(dp361
g7
(imyEvolve
Tree
p362
(dp363
g10
I0
sg16
I00
sbsg10
I1
sg17
I01
sg18
g61
sbsg17
I00
sg18
g50
sbsg17
I00
sg18
g50
sbsg20
(imyEvolve
Tree
p364
(dp365
g10
I3
sg11
(imyEvolve
Tree
p366
(dp367
g7
(imyEvolve
Tree
p368
(dp369
g10
I1
sg11
(imyEvolve
Tree
p370
(dp371
g10
I0
sg39
F2.925356820523022
sg16
I01
sbsg20
(imyEvolve
Tree
p372
(dp373
g10
I0
sg39
F-4.229747189459971
sg16
I01
sbsg17
I00
sg18
g77
sbsg10
I2
sg17
I01
sg18
g25
sbsg20
(imyEvolve
Tree
p374
(dp375
g10
I2
sg11
(imyEvolve
Tree
p376
(dp377
g7
(imyEvolve
Tree
p378
(dp379
g10
I0
sg39
F2.9773977615472447
sg16
I01
sbsg10
I1
sg17
I01
sg18
g76
sbsg20
(imyEvolve
Tree
p380
(dp381
g7
(imyEvolve
Tree
p382
(dp383
g10
I0
sg39
F-4.71905368171544
sg16
I01
sbsg10
I1
sg17
I01
sg18
g61
sbsg17
I00
sg18
g77
sbsg17
I00
sg18
g77
sbsg17
I00
sg18
g26
sba(imyEvolve
Tree
p384
(dp385
g10
I4
sg11
(imyEvolve
Tree
p386
(dp387
g10
I3
sg11
(imyEvolve
Tree
p388
(dp389
g7
(imyEvolve
Tree
p390
(dp391
g10
I1
sg11
(imyEvolve
Tree
p392
(dp393
g10
I0
sg39
F4.447320225789246
sg16
I01
sbsg20
(imyEvolve
Tree
p394
(dp395
g10
I0
sg39
F2.193277480469363
sg16
I01
sbsg17
I00
sg18
g50
sbsg10
I2
sg17
I01
sg18
g61
sbsg20
(imyEvolve
Tree
p396
(dp397
g10
I2
sg11
(imyEvolve
Tree
p398
(dp399
g7
(imyEvolve
Tree
p400
(dp401
g10
I0
sg39
F-3.0243299077894923
sg16
I01
sbsg10
I1
sg17
I01
sg18
g25
sbsg20
(imyEvolve
Tree
p402
(dp403
g10
I1
sg11
(imyEvolve
Tree
p404
(dp405
g10
I0
sg39
F-4.509259971850272
sg16
I01
sbsg20
(imyEvolve
Tree
p406
(dp407
g10
I0
sg39
F-4.593881008024063
sg16
I01
sbsg17
I00
sg18
g77
sbsg17
I00
sg18
g26
sbsg17
I00
sg18
g26
sbsg20
(imyEvolve
Tree
p408
(dp409
g7
(imyEvolve
Tree
p410
(dp411
g10
I2
sg11
(imyEvolve
Tree
p412
(dp413
g10
I1
sg11
(imyEvolve
Tree
p414
(dp415
g10
I0
sg39
F-2.108362853698967
sg16
I01
sbsg20
(imyEvolve
Tree
p416
(dp417
g10
I0
sg16
I00
sbsg17
I00
sg18
g26
sbsg20
(imyEvolve
Tree
p418
(dp419
g10
I1
sg11
(imyEvolve
Tree
p420
(dp421
g10
I0
sg39
F0.2344168582374202
sg16
I01
sbsg20
(imyEvolve
Tree
p422
(dp423
g10
I0
sg39
F-4.185818463170587
sg16
I01
sbsg17
I00
sg18
g77
sbsg17
I00
sg18
g26
sbsg10
I3
sg17
I01
sg18
g76
sbsg17
I00
sg18
g50
sbaa(lp424
(imyEvolve
Tree
p425
(dp426
g7
(imyEvolve
Tree
p427
(dp428
g10
I3
sg11
(imyEvolve
Tree
p429
(dp430
g10
I2
sg11
(imyEvolve
Tree
p431
(dp432
g10
I1
sg11
(imyEvolve
Tree
p433
(dp434
g10
I0
sg16
I00
sbsg20
(imyEvolve
Tree
p435
(dp436
g10
I0
sg16
I00
sbsg17
I00
sg18
g26
sbsg20
(imyEvolve
Tree
p437
(dp438
g7
(imyEvolve
Tree
p439
(dp440
g10
I0
sg39
F1.6773417513410207
sg16
I01
sbsg10
I1
sg17
I01
sg18
g61
sbsg17
I00
sg18
g26
sbsg20
(imyEvolve
Tree
p441
(dp442
g10
I2
sg11
(imyEvolve
Tree
p443
(dp444
g10
I1
sg11
(imyEvolve
Tree
p445
(dp446
g10
I0
sg16
I00
sbsg20
(imyEvolve
Tree
p447
(dp448
g10
I0
sg39
F2.6015714183209777
sg16
I01
sbsg17
I00
sg18
g77
sbsg20
(imyEvolve
Tree
p449
(dp450
g7
(imyEvolve
Tree
p451
(dp452
g10
I0
sg39
F-3.1631963277480546
sg16
I01
sbsg10
I1
sg17
I01
sg18
g61
sbsg17
I00
sg18
g26
sbsg17
I00
sg18
g50
sbsg10
I4
sg17
I01
sg18
g19
sba(imyEvolve
Tree
p453
(dp454
g10
I3
sg11
(imyEvolve
Tree
p455
(dp456
g7
(imyEvolve
Tree
p457
(dp458
g7
(imyEvolve
Tree
p459
(dp460
g10
I0
sg39
F-3.2142807477047155
sg16
I01
sbsg10
I1
sg17
I01
sg18
g25
sbsg10
I2
sg17
I01
sg18
g61
sbsg20
(imyEvolve
Tree
p461
(dp462
g10
I2
sg11
(imyEvolve
Tree
p463
(dp464
g7
(imyEvolve
Tree
p465
(dp466
g10
I0
sg16
I00
sbsg10
I1
sg17
I01
sg18
g19
sbsg20
(imyEvolve
Tree
p467
(dp468
g10
I1
sg11
(imyEvolve
Tree
p469
(dp470
g10
I0
sg16
I00
sbsg20
(imyEvolve
Tree
p471
(dp472
g10
I0
sg39
F3.0982067592259224
sg16
I01
sbsg17
I00
sg18
g26
sbsg17
I00
sg18
g77
sbsg17
I00
sg18
g26
sba(imyEvolve
Tree
p473
(dp474
g7
(imyEvolve
Tree
p475
(dp476
g10
I2
sg11
(imyEvolve
Tree
p477
(dp478
g7
(imyEvolve
Tree
p479
(dp480
g10
I0
sg16
I00
sbsg10
I1
sg17
I01
sg18
g19
sbsg20
(imyEvolve
Tree
p481
(dp482
g7
(imyEvolve
Tree
p483
(dp484
g10
I0
sg39
F-2.869515654985526
sg16
I01
sbsg10
I1
sg17
I01
sg18
g76
sbsg17
I00
sg18
g50
sbsg10
I3
sg17
I01
sg18
g19
sba(imyEvolve
Tree
p485
(dp486
g7
(imyEvolve
Tree
p487
(dp488
g10
I3
sg11
(imyEvolve
Tree
p489
(dp490
g10
I2
sg11
(imyEvolve
Tree
p491
(dp492
g10
I1
sg11
(imyEvolve
Tree
p493
(dp494
g10
I0
sg39
F4.764763195664994
sg16
I01
sbsg20
(imyEvolve
Tree
p495
(dp496
g10
I0
sg16
I00
sbsg17
I00
sg18
g26
sbsg20
(imyEvolve
Tree
p497
(dp498
g10
I1
sg11
(imyEvolve
Tree
p499
(dp500
g10
I0
sg39
F3.82831528215198
sg16
I01
sbsg20
(imyEvolve
Tree
p501
(dp502
g10
I0
sg39
F-1.7080720841475339
sg16
I01
sbsg17
I00
sg18
g26
sbsg17
I00
sg18
g77
sbsg20
(imyEvolve
Tree
p503
(dp504
g7
(imyEvolve
Tree
p505
(dp506
g10
I1
sg11
(imyEvolve
Tree
p507
(dp508
g10
I0
sg16
I00
sbsg20
(imyEvolve
Tree
p509
(dp510
g10
I0
sg39
F-3.9958980544739306
sg16
I01
sbsg17
I00
sg18
g26
sbsg10
I2
sg17
I01
sg18
g76
sbsg17
I00
sg18
g50
sbsg10
I4
sg17
I01
sg18
g25
sba(imyEvolve
Tree
p511
(dp512
g7
(imyEvolve
Tree
p513
(dp514
g7
(imyEvolve
Tree
p515
(dp516
g10
I0
sg16
I00
sbsg10
I1
sg17
I01
sg18
g76
sbsg10
I2
sg17
I01
sg18
g76
sba(imyEvolve
Tree
p517
(dp518
g10
I4
sg11
(imyEvolve
Tree
p519
(dp520
g7
(imyEvolve
Tree
p521
(dp522
g7
(imyEvolve
Tree
p523
(dp524
g10
I1
sg11
(imyEvolve
Tree
p525
(dp526
g10
I0
sg39
F-4.119853010450042
sg16
I01
sbsg20
(imyEvolve
Tree
p527
(dp528
g10
I0
sg39
F1.735706616475139
sg16
I01
sbsg17
I00
sg18
g26
sbsg10
I2
sg17
I01
sg18
g61
sbsg10
I3
sg17
I01
sg18
g19
sbsg20
(imyEvolve
Tree
p529
(dp530
g7
(imyEvolve
Tree
p531
(dp532
g7
(imyEvolve
Tree
p533
(dp534
g7
(imyEvolve
Tree
p535
(dp536
g10
I0
sg16
I00
sbsg10
I1
sg17
I01
sg18
g76
sbsg10
I2
sg17
I01
sg18
g61
sbsg10
I3
sg17
I01
sg18
g19
sbsg17
I00
sg18
g26
sba(imyEvolve
Tree
p537
(dp538
g7
(imyEvolve
Tree
p539
(dp540
g10
I3
sg11
(imyEvolve
Tree
p541
(dp542
g10
I2
sg11
(imyEvolve
Tree
p543
(dp544
g10
I1
sg11
(imyEvolve
Tree
p545
(dp546
g10
I0
sg39
F-2.4925437637794126
sg16
I01
sbsg20
(imyEvolve
Tree
p547
(dp548
g10
I0
sg39
F-0.9404783462409672
sg16
I01
sbsg17
I00
sg18
g50
sbsg20
(imyEvolve
Tree
p549
(dp550
g10
I1
sg11
(imyEvolve
Tree
p551
(dp552
g10
I0
sg16
I00
sbsg20
(imyEvolve
Tree
p553
(dp554
g10
I0
sg39
F-0.6057607813101935
sg16
I01
sbsg17
I00
sg18
g77
sbsg17
I00
sg18
g26
sbsg20
(imyEvolve
Tree
p555
(dp556
g7
(imyEvolve
Tree
p557
(dp558
g7
(imyEvolve
Tree
p559
(dp560
g10
I0
sg16
I00
sbsg10
I1
sg17
I01
sg18
g25
sbsg10
I2
sg17
I01
sg18
g25
sbsg17
I00
sg18
g50
sbsg10
I4
sg17
I01
sg18
g76
sba(imyEvolve
Tree
p561
(dp562
g7
(imyEvolve
Tree
p563
(dp564
g10
I2
sg11
(imyEvolve
Tree
p565
(dp566
g7
(imyEvolve
Tree
p567
(dp568
g10
I0
sg39
F-0.8056164900589655
sg16
I01
sbsg10
I1
sg17
I01
sg18
g25
sbsg20
(imyEvolve
Tree
p569
(dp570
g7
(imyEvolve
Tree
p571
(dp572
g10
I0
sg39
F-1.0444654983614265
sg16
I01
sbsg10
I1
sg17
I01
sg18
g19
sbsg17
I00
sg18
g26
sbsg10
I3
sg17
I01
sg18
g25
sba(imyEvolve
Tree
p573
(dp574
g7
(imyEvolve
Tree
p575
(dp576
g7
(imyEvolve
Tree
p577
(dp578
g7
(imyEvolve
Tree
p579
(dp580
g7
(imyEvolve
Tree
p581
(dp582
g10
I0
sg16
I00
sbsg10
I1
sg17
I01
sg18
g25
sbsg10
I2
sg17
I01
sg18
g76
sbsg10
I3
sg17
I01
sg18
g25
sbsg10
I4
sg17
I01
sg18
g76
sba(imyEvolve
Tree
p583
(dp584
g10
I3
sg11
(imyEvolve
Tree
p585
(dp586
g10
I2
sg11
(imyEvolve
Tree
p587
(dp588
g7
(imyEvolve
Tree
p589
(dp590
g10
I0
sg39
F-1.6484371062130885
sg16
I01
sbsg10
I1
sg17
I01
sg18
g25
sbsg20
(imyEvolve
Tree
p591
(dp592
g7
(imyEvolve
Tree
p593
(dp594
g10
I0
sg16
I00
sbsg10
I1
sg17
I01
sg18
g25
sbsg17
I00
sg18
g26
sbsg20
(imyEvolve
Tree
p595
(dp596
g7
(imyEvolve
Tree
p597
(dp598
g10
I1
sg11
(imyEvolve
Tree
p599
(dp600
g10
I0
sg39
F2.9114094285983025
sg16
I01
sbsg20
(imyEvolve
Tree
p601
(dp602
g10
I0
sg39
F4.40669520940542
sg16
I01
sbsg17
I00
sg18
g50
sbsg10
I2
sg17
I01
sg18
g19
sbsg17
I00
sg18
g77
sba(imyEvolve
Tree
p603
(dp604
g10
I3
sg11
(imyEvolve
Tree
p605
(dp606
g7
(imyEvolve
Tree
p607
(dp608
g7
(imyEvolve
Tree
p609
(dp610
g10
I0
sg16
I00
sbsg10
I1
sg17
I01
sg18
g61
sbsg10
I2
sg17
I01
sg18
g76
sbsg20
(imyEvolve
Tree
p611
(dp612
g7
(imyEvolve
Tree
p613
(dp614
g7
(imyEvolve
Tree
p615
(dp616
g10
I0
sg39
F2.1093501907239105
sg16
I01
sbsg10
I1
sg17
I01
sg18
g19
sbsg10
I2
sg17
I01
sg18
g76
sbsg17
I00
sg18
g50
sbaa(lp617
(imyEvolve
Tree
p618
(dp619
g7
(imyEvolve
Tree
p620
(dp621
g7
(imyEvolve
Tree
p622
(dp623
g10
I0
sg16
I00
sbsg10
I1
sg17
I01
sg18
g25
sbsg10
I2
sg17
I01
sg18
g25
sba(imyEvolve
Tree
p624
(dp625
g7
(imyEvolve
Tree
p626
(dp627
g7
(imyEvolve
Tree
p628
(dp629
g7
(imyEvolve
Tree
p630
(dp631
g10
I2
sg11
(imyEvolve
Tree
p632
(dp633
g10
I1
sg11
(imyEvolve
Tree
p634
(dp635
g10
I0
sg39
F-2.2236436194313045
sg16
I01
sbsg20
(imyEvolve
Tree
p636
(dp637
g10
I0
sg39
F0.12754364684110264
sg16
I01
sbsg17
I00
sg18
g50
sbsg20
(imyEvolve
Tree
p638
(dp639
g10
I1
sg11
(imyEvolve
Tree
p640
(dp641
g10
I0
sg39
F4.422341428221483
sg16
I01
sbsg20
(imyEvolve
Tree
p642
(dp643
g10
I0
sg39
F0.434282582157115
sg16
I01
sbsg17
I00
sg18
g26
sbsg17
I00
sg18
g77
sbsg10
I3
sg17
I01
sg18
g76
sbsg10
I4
sg17
I01
sg18
g25
sbsg10
I5
sg17
I01
sg18
g19
sba(imyEvolve
Tree
p644
(dp645
g10
I2
sg11
(imyEvolve
Tree
p646
(dp647
g10
I1
sg11
(imyEvolve
Tree
p648
(dp649
g10
I0
sg39
F2.983627471821885
sg16
I01
sbsg20
(imyEvolve
Tree
p650
(dp651
g10
I0
sg16
I00
sbsg17
I00
sg18
g77
sbsg20
(imyEvolve
Tree
p652
(dp653
g7
(imyEvolve
Tree
p654
(dp655
g10
I0
sg39
F-4.911358705960341
sg16
I01
sbsg10
I1
sg17
I01
sg18
g19
sbsg17
I00
sg18
g26
sba(imyEvolve
Tree
p656
(dp657
g10
I2
sg11
(imyEvolve
Tree
p658
(dp659
g7
(imyEvolve
Tree
p660
(dp661
g10
I0
sg39
F1.9232986796140539
sg16
I01
sbsg10
I1
sg17
I01
sg18
g61
sbsg20
(imyEvolve
Tree
p662
(dp663
g7
(imyEvolve
Tree
p664
(dp665
g10
I0
sg39
F4.392902020626009
sg16
I01
sbsg10
I1
sg17
I01
sg18
g25
sbsg17
I00
sg18
g50
sba(imyEvolve
Tree
p666
(dp667
g7
(imyEvolve
Tree
p668
(dp669
g7
(imyEvolve
Tree
p670
(dp671
g10
I3
sg11
(imyEvolve
Tree
p672
(dp673
g7
(imyEvolve
Tree
p674
(dp675
g10
I1
sg11
(imyEvolve
Tree
p676
(dp677
g10
I0
sg16
I00
sbsg20
(imyEvolve
Tree
p678
(dp679
g10
I0
sg16
I00
sbsg17
I00
sg18
g77
sbsg10
I2
sg17
I01
sg18
g19
sbsg20
(imyEvolve
Tree
p680
(dp681
g10
I2
sg11
(imyEvolve
Tree
p682
(dp683
g10
I1
sg11
(imyEvolve
Tree
p684
(dp685
g10
I0
sg39
F4.2560841121260236
sg16
I01
sbsg20
(imyEvolve
Tree
p686
(dp687
g10
I0
sg39
F2.4338628508567695
sg16
I01
sbsg17
I00
sg18
g77
sbsg20
(imyEvolve
Tree
p688
(dp689
g7
(imyEvolve
Tree
p690
(dp691
g10
I0
sg16
I00
sbsg10
I1
sg17
I01
sg18
g76
sbsg17
I00
sg18
g77
sbsg17
I00
sg18
g77
sbsg10
I4
sg17
I01
sg18
g61
sbsg10
I5
sg17
I01
sg18
g76
sba(imyEvolve
Tree
p692
(dp693
g7
(imyEvolve
Tree
p694
(dp695
g10
I2
sg11
(imyEvolve
Tree
p696
(dp697
g10
I1
sg11
(imyEvolve
Tree
p698
(dp699
g10
I0
sg39
F2.0933818971373093
sg16
I01
sbsg20
(imyEvolve
Tree
p700
(dp701
g10
I0
sg39
F3.0548121478905994
sg16
I01
sbsg17
I00
sg18
g50
sbsg20
(imyEvolve
Tree
p702
(dp703
g7
(imyEvolve
Tree
p704
(dp705
g10
I0
sg16
I00
sbsg10
I1
sg17
I01
sg18
g19
sbsg17
I00
sg18
g77
sbsg10
I3
sg17
I01
sg18
g76
sba(imyEvolve
Tree
p706
(dp707
g10
I5
sg11
(imyEvolve
Tree
p708
(dp709
g10
I4
sg11
(imyEvolve
Tree
p710
(dp711
g7
(imyEvolve
Tree
p712
(dp713
g10
I2
sg11
(imyEvolve
Tree
p714
(dp715
g7
(imyEvolve
Tree
p716
(dp717
g10
I0
sg16
I00
sbsg10
I1
sg17
I01
sg18
g25
sbsg20
(imyEvolve
Tree
p718
(dp719
g10
I1
sg11
(imyEvolve
Tree
p720
(dp721
g10
I0
sg16
I00
sbsg20
(imyEvolve
Tree
p722
(dp723
g10
I0
sg16
I00
sbsg17
I00
sg18
g26
sbsg17
I00
sg18
g26
sbsg10
I3
sg17
I01
sg18
g76
sbsg20
(imyEvolve
Tree
p724
(dp725
g7
(imyEvolve
Tree
p726
(dp727
g7
(imyEvolve
Tree
p728
(dp729
g7
(imyEvolve
Tree
p730
(dp731
g10
I0
sg39
F-2.2038183002636993
sg16
I01
sbsg10
I1
sg17
I01
sg18
g19
sbsg10
I2
sg17
I01
sg18
g61
sbsg10
I3
sg17
I01
sg18
g76
sbsg17
I00
sg18
g26
sbsg20
(imyEvolve
Tree
p732
(dp733
g10
I4
sg11
(imyEvolve
Tree
p734
(dp735
g7
(imyEvolve
Tree
p736
(dp737
g10
I2
sg11
(imyEvolve
Tree
p738
(dp739
g7
(imyEvolve
Tree
p740
(dp741
g10
I0
sg39
F-0.6401864606350856
sg16
I01
sbsg10
I1
sg17
I01
sg18
g25
sbsg20
(imyEvolve
Tree
p742
(dp743
g7
(imyEvolve
Tree
p744
(dp745
g10
I0
sg39
F1.6057251832214812
sg16
I01
sbsg10
I1
sg17
I01
sg18
g76
sbsg17
I00
sg18
g77
sbsg10
I3
sg17
I01
sg18
g76
sbsg20
(imyEvolve
Tree
p746
(dp747
g7
(imyEvolve
Tree
p748
(dp749
g7
(imyEvolve
Tree
p750
(dp751
g7
(imyEvolve
Tree
p752
(dp753
g10
I0
sg16
I00
sbsg10
I1
sg17
I01
sg18
g61
sbsg10
I2
sg17
I01
sg18
g25
sbsg10
I3
sg17
I01
sg18
g19
sbsg17
I00
sg18
g50
sbsg17
I00
sg18
g77
sba(imyEvolve
Tree
p754
(dp755
g10
I4
sg11
(imyEvolve
Tree
p756
(dp757
g7
(imyEvolve
Tree
p758
(dp759
g7
(imyEvolve
Tree
p760
(dp761
g7
(imyEvolve
Tree
p762
(dp763
g10
I0
sg16
I00
sbsg10
I1
sg17
I01
sg18
g61
sbsg10
I2
sg17
I01
sg18
g76
sbsg10
I3
sg17
I01
sg18
g19
sbsg20
(imyEvolve
Tree
p764
(dp765
g7
(imyEvolve
Tree
p766
(dp767
g10
I2
sg11
(imyEvolve
Tree
p768
(dp769
g7
(imyEvolve
Tree
p770
(dp771
g10
I0
sg16
I00
sbsg10
I1
sg17
I01
sg18
g61
sbsg20
(imyEvolve
Tree
p772
(dp773
g7
(imyEvolve
Tree
p774
(dp775
g10
I0
sg39
F-2.0041728610263556
sg16
I01
sbsg10
I1
sg17
I01
sg18
g76
sbsg17
I00
sg18
g50
sbsg10
I3
sg17
I01
sg18
g19
sbsg17
I00
sg18
g50
sbaa(lp776
(imyEvolve
Tree
p777
(dp778
g7
(imyEvolve
Tree
p779
(dp780
g7
(imyEvolve
Tree
p781
(dp782
g7
(imyEvolve
Tree
p783
(dp784
g7
(imyEvolve
Tree
p785
(dp786
g10
I0
sg16
I00
sbsg10
I1
sg17
I01
sg18
g76
sbsg10
I2
sg17
I01
sg18
g25
sbsg10
I3
sg17
I01
sg18
g76
sbsg10
I4
sg17
I01
sg18
g25
sba(imyEvolve
Tree
p787
(dp788
g10
I2
sg11
(imyEvolve
Tree
p789
(dp790
g10
I1
sg11
(imyEvolve
Tree
p791
(dp792
g10
I0
sg16
I00
sbsg20
(imyEvolve
Tree
p793
(dp794
g10
I0
sg39
F-2.9138452113386992
sg16
I01
sbsg17
I00
sg18
g50
sbsg20
(imyEvolve
Tree
p795
(dp796
g7
(imyEvolve
Tree
p797
(dp798
g10
I0
sg39
F2.0137620083473076
sg16
I01
sbsg10
I1
sg17
I01
sg18
g25
sbsg17
I00
sg18
g50
sba(imyEvolve
Tree
p799
(dp800
g10
I2
sg11
(imyEvolve
Tree
p801
(dp802
g7
(imyEvolve
Tree
p803
(dp804
g10
I0
sg39
F-1.3760551956305367
sg16
I01
sbsg10
I1
sg17
I01
sg18
g61
sbsg20
(imyEvolve
Tree
p805
(dp806
g10
I1
sg11
(imyEvolve
Tree
p807
(dp808
g10
I0
sg16
I00
sbsg20
(imyEvolve
Tree
p809
(dp810
g10
I0
sg39
F2.3835948315218918
sg16
I01
sbsg17
I00
sg18
g77
sbsg17
I00
sg18
g26
sba(imyEvolve
Tree
p811
(dp812
g10
I4
sg11
(imyEvolve
Tree
p813
(dp814
g7
(imyEvolve
Tree
p815
(dp816
g7
(imyEvolve
Tree
p817
(dp818
g7
(imyEvolve
Tree
p819
(dp820
g10
I0
sg16
I00
sbsg10
I1
sg17
I01
sg18
g19
sbsg10
I2
sg17
I01
sg18
g19
sbsg10
I3
sg17
I01
sg18
g19
sbsg20
(imyEvolve
Tree
p821
(dp822
g7
(imyEvolve
Tree
p823
(dp824
g7
(imyEvolve
Tree
p825
(dp826
g10
I1
sg11
(imyEvolve
Tree
p827
(dp828
g10
I0
sg39
F2.0913361716456658
sg16
I01
sbsg20
(imyEvolve
Tree
p829
(dp830
g10
I0
sg39
F-4.651881283003048
sg16
I01
sbsg17
I00
sg18
g26
sbsg10
I2
sg17
I01
sg18
g25
sbsg10
I3
sg17
I01
sg18
g61
sbsg17
I00
sg18
g77
sba(imyEvolve
Tree
p831
(dp832
g10
I5
sg11
(imyEvolve
Tree
p833
(dp834
g10
I4
sg11
(imyEvolve
Tree
p835
(dp836
g10
I3
sg11
(imyEvolve
Tree
p837
(dp838
g10
I2
sg11
(imyEvolve
Tree
p839
(dp840
g7
(imyEvolve
Tree
p841
(dp842
g10
I0
sg16
I00
sbsg10
I1
sg17
I01
sg18
g61
sbsg20
(imyEvolve
Tree
p843
(dp844
g10
I1
sg11
(imyEvolve
Tree
p845
(dp846
g10
I0
sg16
I00
sbsg20
(imyEvolve
Tree
p847
(dp848
g10
I0
sg39
F-2.4182644352039304
sg16
I01
sbsg17
I00
sg18
g77
sbsg17
I00
sg18
g26
sbsg20
(imyEvolve
Tree
p849
(dp850
g10
I2
sg11
(imyEvolve
Tree
p851
(dp852
g10
I1
sg11
(imyEvolve
Tree
p853
(dp854
g10
I0
sg39
F-3.538569892501273
sg16
I01
sbsg20
(imyEvolve
Tree
p855
(dp856
g10
I0
sg39
F-2.5165362755047105
sg16
I01
sbsg17
I00
sg18
g77
sbsg20
(imyEvolve
Tree
p857
(dp858
g10
I1
sg11
(imyEvolve
Tree
p859
(dp860
g10
I0
sg39
F-0.348579321552557
sg16
I01
sbsg20
(imyEvolve
Tree
p861
(dp862
g10
I0
sg16
I00
sbsg17
I00
sg18
g50
sbsg17
I00
sg18
g50
sbsg17
I00
sg18
g26
sbsg20
(imyEvolve
Tree
p863
(dp864
g7
(imyEvolve
Tree
p865
(dp866
g7
(imyEvolve
Tree
p867
(dp868
g10
I1
sg11
(imyEvolve
Tree
p869
(dp870
g10
I0
sg39
F1.0999632179599974
sg16
I01
sbsg20
(imyEvolve
Tree
p871
(dp872
g10
I0
sg39
F2.5055484234186407
sg16
I01
sbsg17
I00
sg18
g26
sbsg10
I2
sg17
I01
sg18
g25
sbsg10
I3
sg17
I01
sg18
g76
sbsg17
I00
sg18
g77
sbsg20
(imyEvolve
Tree
p873
(dp874
g7
(imyEvolve
Tree
p875
(dp876
g10
I3
sg11
(imyEvolve
Tree
p877
(dp878
g7
(imyEvolve
Tree
p879
(dp880
g10
I1
sg11
(imyEvolve
Tree
p881
(dp882
g10
I0
sg16
I00
sbsg20
(imyEvolve
Tree
p883
(dp884
g10
I0
sg39
F1.8436791326072663
sg16
I01
sbsg17
I00
sg18
g26
sbsg10
I2
sg17
I01
sg18
g25
sbsg20
(imyEvolve
Tree
p885
(dp886
g10
I2
sg11
(imyEvolve
Tree
p887
(dp888
g10
I1
sg11
(imyEvolve
Tree
p889
(dp890
g10
I0
sg16
I00
sbsg20
(imyEvolve
Tree
p891
(dp892
g10
I0
sg16
I00
sbsg17
I00
sg18
g50
sbsg20
(imyEvolve
Tree
p893
(dp894
g10
I1
sg11
(imyEvolve
Tree
p895
(dp896
g10
I0
sg16
I00
sbsg20
(imyEvolve
Tree
p897
(dp898
g10
I0
sg16
I00
sbsg17
I00
sg18
g26
sbsg17
I00
sg18
g77
sbsg17
I00
sg18
g50
sbsg10
I4
sg17
I01
sg18
g25
sbsg17
I00
sg18
g50
sba(imyEvolve
Tree
p899
(dp900
g10
I3
sg11
(imyEvolve
Tree
p901
(dp902
g7
(imyEvolve
Tree
p903
(dp904
g7
(imyEvolve
Tree
p905
(dp906
g10
I0
sg39
F4.4688456535486605
sg16
I01
sbsg10
I1
sg17
I01
sg18
g19
sbsg10
I2
sg17
I01
sg18
g25
sbsg20
(imyEvolve
Tree
p907
(dp908
g7
(imyEvolve
Tree
p909
(dp910
g10
I1
sg11
(imyEvolve
Tree
p911
(dp912
g10
I0
sg39
F1.2597983243018183
sg16
I01
sbsg20
(imyEvolve
Tree
p913
(dp914
g10
I0
sg39
F-1.0836263808812898
sg16
I01
sbsg17
I00
sg18
g77
sbsg10
I2
sg17
I01
sg18
g61
sbsg17
I00
sg18
g77
sba(imyEvolve
Tree
p915
(dp916
g10
I4
sg11
(imyEvolve
Tree
p917
(dp918
g7
(imyEvolve
Tree
p919
(dp920
g7
(imyEvolve
Tree
p921
(dp922
g10
I1
sg11
(imyEvolve
Tree
p923
(dp924
g10
I0
sg16
I00
sbsg20
(imyEvolve
Tree
p925
(dp926
g10
I0
sg39
F4.4047687441104895
sg16
I01
sbsg17
I00
sg18
g77
sbsg10
I2
sg17
I01
sg18
g76
sbsg10
I3
sg17
I01
sg18
g61
sbsg20
(imyEvolve
Tree
p927
(dp928
g7
(imyEvolve
Tree
p929
(dp930
g7
(imyEvolve
Tree
p931
(dp932
g7
(imyEvolve
Tree
p933
(dp934
g10
I0
sg39
F1.8027788536051936
sg16
I01
sbsg10
I1
sg17
I01
sg18
g61
sbsg10
I2
sg17
I01
sg18
g25
sbsg10
I3
sg17
I01
sg18
g25
sbsg17
I00
sg18
g77
sba(imyEvolve
Tree
p935
(dp936
g10
I5
sg11
(imyEvolve
Tree
p937
(dp938
g7
(imyEvolve
Tree
p939
(dp940
g7
(imyEvolve
Tree
p941
(dp942
g10
I2
sg11
(imyEvolve
Tree
p943
(dp944
g10
I1
sg11
(imyEvolve
Tree
p945
(dp946
g10
I0
sg39
F-1.9107250701277714
sg16
I01
sbsg20
(imyEvolve
Tree
p947
(dp948
g10
I0
sg39
F-1.1476100248665402
sg16
I01
sbsg17
I00
sg18
g50
sbsg20
(imyEvolve
Tree
p949
(dp950
g7
(imyEvolve
Tree
p951
(dp952
g10
I0
sg16
I00
sbsg10
I1
sg17
I01
sg18
g61
sbsg17
I00
sg18
g26
sbsg10
I3
sg17
I01
sg18
g19
sbsg10
I4
sg17
I01
sg18
g61
sbsg20
(imyEvolve
Tree
p953
(dp954
g7
(imyEvolve
Tree
p955
(dp956
g7
(imyEvolve
Tree
p957
(dp958
g10
I2
sg11
(imyEvolve
Tree
p959
(dp960
g10
I1
sg11
(imyEvolve
Tree
p961
(dp962
g10
I0
sg39
F0.5738200546466832
sg16
I01
sbsg20
(imyEvolve
Tree
p963
(dp964
g10
I0
sg16
I00
sbsg17
I00
sg18
g26
sbsg20
(imyEvolve
Tree
p965
(dp966
g10
I1
sg11
(imyEvolve
Tree
p967
(dp968
g10
I0
sg39
F1.1772669874547281
sg16
I01
sbsg20
(imyEvolve
Tree
p969
(dp970
g10
I0
sg39
F-0.4721456158936004
sg16
I01
sbsg17
I00
sg18
g77
sbsg17
I00
sg18
g50
sbsg10
I3
sg17
I01
sg18
g76
sbsg10
I4
sg17
I01
sg18
g76
sbsg17
I00
sg18
g50
sba(imyEvolve
Tree
p971
(dp972
g10
I3
sg11
(imyEvolve
Tree
p973
(dp974
g7
(imyEvolve
Tree
p975
(dp976
g10
I1
sg11
(imyEvolve
Tree
p977
(dp978
g10
I0
sg16
I00
sbsg20
(imyEvolve
Tree
p979
(dp980
g10
I0
sg16
I00
sbsg17
I00
sg18
g77
sbsg10
I2
sg17
I01
sg18
g76
sbsg20
(imyEvolve
Tree
p981
(dp982
g7
(imyEvolve
Tree
p983
(dp984
g7
(imyEvolve
Tree
p985
(dp986
g10
I0
sg39
F1.4753982368029295
sg16
I01
sbsg10
I1
sg17
I01
sg18
g76
sbsg10
I2
sg17
I01
sg18
g19
sbsg17
I00
sg18
g77
sba(imyEvolve
Tree
p987
(dp988
g7
(imyEvolve
Tree
p989
(dp990
g7
(imyEvolve
Tree
p991
(dp992
g10
I0
sg16
I00
sbsg10
I1
sg17
I01
sg18
g76
sbsg10
I2
sg17
I01
sg18
g25
sba(imyEvolve
Tree
p993
(dp994
g7
(imyEvolve
Tree
p995
(dp996
g10
I2
sg11
(imyEvolve
Tree
p997
(dp998
g10
I1
sg11
(imyEvolve
Tree
p999
(dp1000
g10
I0
sg39
F4.153887024321891
sg16
I01
sbsg20
(imyEvolve
Tree
p1001
(dp1002
g10
I0
sg39
F3.899706645037382
sg16
I01
sbsg17
I00
sg18
g50
sbsg20
(imyEvolve
Tree
p1003
(dp1004
g10
I1
sg11
(imyEvolve
Tree
p1005
(dp1006
g10
I0
sg16
I00
sbsg20
(imyEvolve
Tree
p1007
(dp1008
g10
I0
sg39
F3.429975853376707
sg16
I01
sbsg17
I00
sg18
g50
sbsg17
I00
sg18
g77
sbsg10
I3
sg17
I01
sg18
g61
sba(imyEvolve
Tree
p1009
(dp1010
g7
(imyEvolve
Tree
p1011
(dp1012
g10
I2
sg11
(imyEvolve
Tree
p1013
(dp1014
g7
(imyEvolve
Tree
p1015
(dp1016
g10
I0
sg39
F-3.878323312612352
sg16
I01
sbsg10
I1
sg17
I01
sg18
g19
sbsg20
(imyEvolve
Tree
p1017
(dp1018
g10
I1
sg11
(imyEvolve
Tree
p1019
(dp1020
g10
I0
sg16
I00
sbsg20
(imyEvolve
Tree
p1021
(dp1022
g10
I0
sg16
I00
sbsg17
I00
sg18
g77
sbsg17
I00
sg18
g26
sbsg10
I3
sg17
I01
sg18
g76
sba(imyEvolve
Tree
p1023
(dp1024
g7
(imyEvolve
Tree
p1025
(dp1026
g10
I2
sg11
(imyEvolve
Tree
p1027
(dp1028
g10
I1
sg11
(imyEvolve
Tree
p1029
(dp1030
g10
I0
sg39
F0.6173019567805058
sg16
I01
sbsg20
(imyEvolve
Tree
p1031
(dp1032
g10
I0
sg16
I00
sbsg17
I00
sg18
g50
sbsg20
(imyEvolve
Tree
p1033
(dp1034
g10
I1
sg11
(imyEvolve
Tree
p1035
(dp1036
g10
I0
sg39
F-2.841240499516262
sg16
I01
sbsg20
(imyEvolve
Tree
p1037
(dp1038
g10
I0
sg39
F-4.733918548639899
sg16
I01
sbsg17
I00
sg18
g26
sbsg17
I00
sg18
g50
sbsg10
I3
sg17
I01
sg18
g61
sba(imyEvolve
Tree
p1039
(dp1040
g10
I2
sg11
(imyEvolve
Tree
p1041
(dp1042
g10
I1
sg11
(imyEvolve
Tree
p1043
(dp1044
g10
I0
sg39
F-0.025820822700129753
sg16
I01
sbsg20
(imyEvolve
Tree
p1045
(dp1046
g10
I0
sg39
F1.2942071850097001
sg16
I01
sbsg17
I00
sg18
g50
sbsg20
(imyEvolve
Tree
p1047
(dp1048
g10
I1
sg11
(imyEvolve
Tree
p1049
(dp1050
g10
I0
sg39
F2.068936846414612
sg16
I01
sbsg20
(imyEvolve
Tree
p1051
(dp1052
g10
I0
sg39
F-4.35179060141961
sg16
I01
sbsg17
I00
sg18
g26
sbsg17
I00
sg18
g26
sbaa(lp1053
(imyEvolve
Tree
p1054
(dp1055
g10
I5
sg11
(imyEvolve
Tree
p1056
(dp1057
g7
(imyEvolve
Tree
p1058
(dp1059
g7
(imyEvolve
Tree
p1060
(dp1061
g10
I2
sg11
(imyEvolve
Tree
p1062
(dp1063
g10
I1
sg11
(imyEvolve
Tree
p1064
(dp1065
g10
I0
sg39
F3.8140985284085787
sg16
I01
sbsg20
(imyEvolve
Tree
p1066
(dp1067
g10
I0
sg39
F3.898782404690836
sg16
I01
sbsg17
I00
sg18
g77
sbsg20
(imyEvolve
Tree
p1068
(dp1069
g7
(imyEvolve
Tree
p1070
(dp1071
g10
I0
sg39
F0.2763255435518106
sg16
I01
sbsg10
I1
sg17
I01
sg18
g19
sbsg17
I00
sg18
g26
sbsg10
I3
sg17
I01
sg18
g25
sbsg10
I4
sg17
I01
sg18
g25
sbsg20
(imyEvolve
Tree
p1072
(dp1073
g7
(imyEvolve
Tree
p1074
(dp1075
g10
I3
sg11
(imyEvolve
Tree
p1076
(dp1077
g7
(imyEvolve
Tree
p1078
(dp1079
g10
I1
sg11
(imyEvolve
Tree
p1080
(dp1081
g10
I0
sg39
F-1.262883475138481
sg16
I01
sbsg20
(imyEvolve
Tree
p1082
(dp1083
g10
I0
sg39
F4.941361027547526
sg16
I01
sbsg17
I00
sg18
g26
sbsg10
I2
sg17
I01
sg18
g61
sbsg20
(imyEvolve
Tree
p1084
(dp1085
g7
(imyEvolve
Tree
p1086
(dp1087
g7
(imyEvolve
Tree
p1088
(dp1089
g10
I0
sg39
F-0.1486547186175926
sg16
I01
sbsg10
I1
sg17
I01
sg18
g19
sbsg10
I2
sg17
I01
sg18
g25
sbsg17
I00
sg18
g77
sbsg10
I4
sg17
I01
sg18
g61
sbsg17
I00
sg18
g26
sba(imyEvolve
Tree
p1090
(dp1091
g10
I3
sg11
(imyEvolve
Tree
p1092
(dp1093
g10
I2
sg11
(imyEvolve
Tree
p1094
(dp1095
g10
I1
sg11
(imyEvolve
Tree
p1096
(dp1097
g10
I0
sg39
F0.19510394841202938
sg16
I01
sbsg20
(imyEvolve
Tree
p1098
(dp1099
g10
I0
sg39
F1.2275610721916932
sg16
I01
sbsg17
I00
sg18
g50
sbsg20
(imyEvolve
Tree
p1100
(dp1101
g7
(imyEvolve
Tree
p1102
(dp1103
g10
I0
sg39
F4.09864597626224
sg16
I01
sbsg10
I1
sg17
I01
sg18
g19
sbsg17
I00
sg18
g26
sbsg20
(imyEvolve
Tree
p1104
(dp1105
g10
I2
sg11
(imyEvolve
Tree
p1106
(dp1107
g7
(imyEvolve
Tree
p1108
(dp1109
g10
I0
sg39
F0.9341571227501397
sg16
I01
sbsg10
I1
sg17
I01
sg18
g76
sbsg20
(imyEvolve
Tree
p1110
(dp1111
g10
I1
sg11
(imyEvolve
Tree
p1112
(dp1113
g10
I0
sg16
I00
sbsg20
(imyEvolve
Tree
p1114
(dp1115
g10
I0
sg16
I00
sbsg17
I00
sg18
g50
sbsg17
I00
sg18
g77
sbsg17
I00
sg18
g50
sba(imyEvolve
Tree
p1116
(dp1117
g7
(imyEvolve
Tree
p1118
(dp1119
g7
(imyEvolve
Tree
p1120
(dp1121
g10
I0
sg39
F1.1729085061080706
sg16
I01
sbsg10
I1
sg17
I01
sg18
g19
sbsg10
I2
sg17
I01
sg18
g76
sba(imyEvolve
Tree
p1122
(dp1123
g10
I2
sg11
(imyEvolve
Tree
p1124
(dp1125
g7
(imyEvolve
Tree
p1126
(dp1127
g10
I0
sg16
I00
sbsg10
I1
sg17
I01
sg18
g19
sbsg20
(imyEvolve
Tree
p1128
(dp1129
g10
I1
sg11
(imyEvolve
Tree
p1130
(dp1131
g10
I0
sg39
F-1.0764999291549326
sg16
I01
sbsg20
(imyEvolve
Tree
p1132
(dp1133
g10
I0
sg39
F2.2146966810837663
sg16
I01
sbsg17
I00
sg18
g50
sbsg17
I00
sg18
g50
sba(imyEvolve
Tree
p1134
(dp1135
g10
I2
sg11
(imyEvolve
Tree
p1136
(dp1137
g10
I1
sg11
(imyEvolve
Tree
p1138
(dp1139
g10
I0
sg16
I00
sbsg20
(imyEvolve
Tree
p1140
(dp1141
g10
I0
sg39
F-4.2927825334949095
sg16
I01
sbsg17
I00
sg18
g26
sbsg20
(imyEvolve
Tree
p1142
(dp1143
g10
I1
sg11
(imyEvolve
Tree
p1144
(dp1145
g10
I0
sg39
F-4.008066245674435
sg16
I01
sbsg20
(imyEvolve
Tree
p1146
(dp1147
g10
I0
sg16
I00
sbsg17
I00
sg18
g50
sbsg17
I00
sg18
g77
sba(imyEvolve
Tree
p1148
(dp1149
g7
(imyEvolve
Tree
p1150
(dp1151
g10
I4
sg11
(imyEvolve
Tree
p1152
(dp1153
g10
I3
sg11
(imyEvolve
Tree
p1154
(dp1155
g10
I2
sg11
(imyEvolve
Tree
p1156
(dp1157
g10
I1
sg11
(imyEvolve
Tree
p1158
(dp1159
g10
I0
sg16
I00
sbsg20
(imyEvolve
Tree
p1160
(dp1161
g10
I0
sg39
F-3.0198167339879145
sg16
I01
sbsg17
I00
sg18
g26
sbsg20
(imyEvolve
Tree
p1162
(dp1163
g7
(imyEvolve
Tree
p1164
(dp1165
g10
I0
sg39
F2.6082773584805636
sg16
I01
sbsg10
I1
sg17
I01
sg18
g19
sbsg17
I00
sg18
g26
sbsg20
(imyEvolve
Tree
p1166
(dp1167
g7
(imyEvolve
Tree
p1168
(dp1169
g10
I1
sg11
(imyEvolve
Tree
p1170
(dp1171
g10
I0
sg16
I00
sbsg20
(imyEvolve
Tree
p1172
(dp1173
g10
I0
sg39
F0.09089342950048973
sg16
I01
sbsg17
I00
sg18
g50
sbsg10
I2
sg17
I01
sg18
g61
sbsg17
I00
sg18
g50
sbsg20
(imyEvolve
Tree
p1174
(dp1175
g10
I3
sg11
(imyEvolve
Tree
p1176
(dp1177
g10
I2
sg11
(imyEvolve
Tree
p1178
(dp1179
g7
(imyEvolve
Tree
p1180
(dp1181
g10
I0
sg39
F3.981542985191993
sg16
I01
sbsg10
I1
sg17
I01
sg18
g25
sbsg20
(imyEvolve
Tree
p1182
(dp1183
g10
I1
sg11
(imyEvolve
Tree
p1184
(dp1185
g10
I0
sg39
F-3.659906082842803
sg16
I01
sbsg20
(imyEvolve
Tree
p1186
(dp1187
g10
I0
sg16
I00
sbsg17
I00
sg18
g26
sbsg17
I00
sg18
g26
sbsg20
(imyEvolve
Tree
p1188
(dp1189
g7
(imyEvolve
Tree
p1190
(dp1191
g10
I1
sg11
(imyEvolve
Tree
p1192
(dp1193
g10
I0
sg16
I00
sbsg20
(imyEvolve
Tree
p1194
(dp1195
g10
I0
sg16
I00
sbsg17
I00
sg18
g77
sbsg10
I2
sg17
I01
sg18
g25
sbsg17
I00
sg18
g77
sbsg17
I00
sg18
g26
sbsg10
I5
sg17
I01
sg18
g19
sba(imyEvolve
Tree
p1196
(dp1197
g7
(imyEvolve
Tree
p1198
(dp1199
g10
I1
sg11
(imyEvolve
Tree
p1200
(dp1201
g10
I0
sg16
I00
sbsg20
(imyEvolve
Tree
p1202
(dp1203
g10
I0
sg16
I00
sbsg17
I00
sg18
g50
sbsg10
I2
sg17
I01
sg18
g76
sba(imyEvolve
Tree
p1204
(dp1205
g7
(imyEvolve
Tree
p1206
(dp1207
g7
(imyEvolve
Tree
p1208
(dp1209
g7
(imyEvolve
Tree
p1210
(dp1211
g10
I2
sg11
(imyEvolve
Tree
p1212
(dp1213
g10
I1
sg11
(imyEvolve
Tree
p1214
(dp1215
g10
I0
sg39
F-2.294539809356413
sg16
I01
sbsg20
(imyEvolve
Tree
p1216
(dp1217
g10
I0
sg16
I00
sbsg17
I00
sg18
g50
sbsg20
(imyEvolve
Tree
p1218
(dp1219
g7
(imyEvolve
Tree
p1220
(dp1221
g10
I0
sg39
F-1.149481541091757
sg16
I01
sbsg10
I1
sg17
I01
sg18
g19
sbsg17
I00
sg18
g50
sbsg10
I3
sg17
I01
sg18
g19
sbsg10
I4
sg17
I01
sg18
g19
sbsg10
I5
sg17
I01
sg18
g76
sbaasS'weightSharing'
p1222
(lp1223
I00
aI00
asS'fitnessValid'
p1224
I00
sS'fitness'
p1225
cnumpy.core.multiarray
scalar
p1226
(cnumpy
dtype
p1227
(S'f8'
p1228
I0
I1
tp1229
Rp1230
(I3
S'<'
p1231
NNNI-1
I-1
I0
tp1232
bS'\x00\x8bl\xe7\xad\xd0l\xbf'
p1233
tp1234
Rp1235
sS'alpha'
p1236
F0.0032781223140656117
sS'resolution'
p1237
I41
sb.