(imyEvolve
Individual
p0
(dp1
S'funcs'
p2
(lp3
(lp4
(imyEvolve
Tree
p5
(dp6
S'left'
p7
(imyEvolve
Tree
p8
(dp9
g7
(imyEvolve
Tree
p10
(dp11
g7
(imyEvolve
Tree
p12
(dp13
S'below'
p14
(imyEvolve
Tree
p15
(dp16
S'depth'
p17
I0
sS'constant'
p18
F-4.4590358592361135
sS'isConstant'
p19
I01
sbsg17
I1
sS'single'
p20
I01
sS'op'
p21
cmath
sin
p22
sbsg17
I2
sS'right'
p23
(imyEvolve
Tree
p24
(dp25
g14
(imyEvolve
Tree
p26
(dp27
g17
I0
sg18
F-3.8868358677178003
sg19
I01
sbsg17
I1
sg20
I01
sg21
g22
sbsg20
I00
sg21
coperator
sub
p28
sbsg17
I3
sg23
(imyEvolve
Tree
p29
(dp30
g7
(imyEvolve
Tree
p31
(dp32
g14
(imyEvolve
Tree
p33
(dp34
g17
I0
sg19
I00
sbsg17
I1
sg20
I01
sg21
cmyEvolve
absSqrt
p35
sbsg17
I2
sg23
(imyEvolve
Tree
p36
(dp37
g7
(imyEvolve
Tree
p38
(dp39
g17
I0
sg18
F-0.724028644863516
sg19
I01
sbsg17
I1
sg23
(imyEvolve
Tree
p40
(dp41
g17
I0
sg18
F-4.484443587158648
sg19
I01
sbsg20
I00
sg21
coperator
add
p42
sbsg20
I00
sg21
g28
sbsg20
I00
sg21
coperator
mul
p43
sbsg17
I4
sg23
(imyEvolve
Tree
p44
(dp45
g7
(imyEvolve
Tree
p46
(dp47
g7
(imyEvolve
Tree
p48
(dp49
g7
(imyEvolve
Tree
p50
(dp51
g17
I0
sg18
F0.9673238546036531
sg19
I01
sbsg17
I1
sg23
(imyEvolve
Tree
p52
(dp53
g17
I0
sg19
I00
sbsg20
I00
sg21
g28
sbsg17
I2
sg23
(imyEvolve
Tree
p54
(dp55
g14
(imyEvolve
Tree
p56
(dp57
g17
I0
sg18
F-2.290018084195787
sg19
I01
sbsg17
I1
sg20
I01
sg21
g22
sbsg20
I00
sg21
g43
sbsg17
I3
sg23
(imyEvolve
Tree
p58
(dp59
g7
(imyEvolve
Tree
p60
(dp61
g14
(imyEvolve
Tree
p62
(dp63
g17
I0
sg18
F3.5812980826667093
sg19
I01
sbsg17
I1
sg20
I01
sg21
g22
sbsg17
I2
sg23
(imyEvolve
Tree
p64
(dp65
g14
(imyEvolve
Tree
p66
(dp67
g17
I0
sg18
F-4.775513033527141
sg19
I01
sbsg17
I1
sg20
I01
sg21
g35
sbsg20
I00
sg21
g43
sbsg20
I00
sg21
g28
sbsg20
I00
sg21
g42
sba(imyEvolve
Tree
p68
(dp69
g14
(imyEvolve
Tree
p70
(dp71
g7
(imyEvolve
Tree
p72
(dp73
g14
(imyEvolve
Tree
p74
(dp75
g7
(imyEvolve
Tree
p76
(dp77
g17
I0
sg18
F-1.9195401520068875
sg19
I01
sbsg17
I1
sg23
(imyEvolve
Tree
p78
(dp79
g17
I0
sg18
F3.1399231440303037
sg19
I01
sbsg20
I00
sg21
g43
sbsg17
I2
sg20
I01
sg21
g22
sbsg17
I3
sg23
(imyEvolve
Tree
p80
(dp81
g7
(imyEvolve
Tree
p82
(dp83
g14
(imyEvolve
Tree
p84
(dp85
g17
I0
sg19
I00
sbsg17
I1
sg20
I01
sg21
cmath
cos
p86
sbsg17
I2
sg23
(imyEvolve
Tree
p87
(dp88
g7
(imyEvolve
Tree
p89
(dp90
g17
I0
sg18
F3.605294997294534
sg19
I01
sbsg17
I1
sg23
(imyEvolve
Tree
p91
(dp92
g17
I0
sg19
I00
sbsg20
I00
sg21
g28
sbsg20
I00
sg21
g28
sbsg20
I00
sg21
g43
sbsg17
I4
sg20
I01
sg21
g86
sba(imyEvolve
Tree
p93
(dp94
g7
(imyEvolve
Tree
p95
(dp96
g7
(imyEvolve
Tree
p97
(dp98
g14
(imyEvolve
Tree
p99
(dp100
g17
I0
sg19
I00
sbsg17
I1
sg20
I01
sg21
cmyEvolve
square
p101
sbsg17
I2
sg23
(imyEvolve
Tree
p102
(dp103
g7
(imyEvolve
Tree
p104
(dp105
g17
I0
sg18
F-3.032380191598122
sg19
I01
sbsg17
I1
sg23
(imyEvolve
Tree
p106
(dp107
g17
I0
sg19
I00
sbsg20
I00
sg21
g42
sbsg20
I00
sg21
g42
sbsg17
I3
sg23
(imyEvolve
Tree
p108
(dp109
g14
(imyEvolve
Tree
p110
(dp111
g7
(imyEvolve
Tree
p112
(dp113
g17
I0
sg18
F-1.8707328902086218
sg19
I01
sbsg17
I1
sg23
(imyEvolve
Tree
p114
(dp115
g17
I0
sg19
I00
sbsg20
I00
sg21
g43
sbsg17
I2
sg20
I01
sg21
g86
sbsg20
I00
sg21
g28
sba(imyEvolve
Tree
p116
(dp117
g14
(imyEvolve
Tree
p118
(dp119
g14
(imyEvolve
Tree
p120
(dp121
g17
I0
sg19
I00
sbsg17
I1
sg20
I01
sg21
g22
sbsg17
I2
sg20
I01
sg21
g35
sba(imyEvolve
Tree
p122
(dp123
g7
(imyEvolve
Tree
p124
(dp125
g14
(imyEvolve
Tree
p126
(dp127
g7
(imyEvolve
Tree
p128
(dp129
g17
I0
sg19
I00
sbsg17
I1
sg23
(imyEvolve
Tree
p130
(dp131
g17
I0
sg19
I00
sbsg20
I00
sg21
g43
sbsg17
I2
sg20
I01
sg21
g101
sbsg17
I3
sg23
(imyEvolve
Tree
p132
(dp133
g7
(imyEvolve
Tree
p134
(dp135
g14
(imyEvolve
Tree
p136
(dp137
g17
I0
sg18
F3.7719965867171936
sg19
I01
sbsg17
I1
sg20
I01
sg21
g35
sbsg17
I2
sg23
(imyEvolve
Tree
p138
(dp139
g14
(imyEvolve
Tree
p140
(dp141
g17
I0
sg18
F1.4211872113203006
sg19
I01
sbsg17
I1
sg20
I01
sg21
g101
sbsg20
I00
sg21
g42
sbsg20
I00
sg21
g43
sba(imyEvolve
Tree
p142
(dp143
g14
(imyEvolve
Tree
p144
(dp145
g17
I3
sg7
(imyEvolve
Tree
p146
(dp147
g14
(imyEvolve
Tree
p148
(dp149
g17
I1
sg7
(imyEvolve
Tree
p150
(dp151
g17
I0
sg18
F-2.8748687232251235
sg19
I01
sbsg23
(imyEvolve
Tree
p152
(dp153
g17
I0
sg18
F3.9180036891761887
sg19
I01
sbsg20
I00
sg21
g43
sbsg17
I2
sg20
I01
sg21
g86
sbsg23
(imyEvolve
Tree
p154
(dp155
g14
(imyEvolve
Tree
p156
(dp157
g17
I1
sg7
(imyEvolve
Tree
p158
(dp159
g17
I0
sg19
I00
sbsg23
(imyEvolve
Tree
p160
(dp161
g17
I0
sg18
F3.5635609551671585
sg19
I01
sbsg20
I00
sg21
g42
sbsg17
I2
sg20
I01
sg21
g101
sbsg20
I00
sg21
g28
sbsg17
I4
sg20
I01
sg21
g22
sba(imyEvolve
Tree
p162
(dp163
g17
I4
sg7
(imyEvolve
Tree
p164
(dp165
g17
I3
sg7
(imyEvolve
Tree
p166
(dp167
g17
I2
sg7
(imyEvolve
Tree
p168
(dp169
g17
I1
sg7
(imyEvolve
Tree
p170
(dp171
g17
I0
sg18
F-2.354617814109746
sg19
I01
sbsg23
(imyEvolve
Tree
p172
(dp173
g17
I0
sg19
I00
sbsg20
I00
sg21
g28
sbsg23
(imyEvolve
Tree
p174
(dp175
g17
I1
sg7
(imyEvolve
Tree
p176
(dp177
g17
I0
sg18
F0.39134426168267566
sg19
I01
sbsg23
(imyEvolve
Tree
p178
(dp179
g17
I0
sg18
F-0.36019303566022476
sg19
I01
sbsg20
I00
sg21
g42
sbsg20
I00
sg21
g28
sbsg23
(imyEvolve
Tree
p180
(dp181
g17
I2
sg7
(imyEvolve
Tree
p182
(dp183
g14
(imyEvolve
Tree
p184
(dp185
g17
I0
sg19
I00
sbsg17
I1
sg20
I01
sg21
g35
sbsg23
(imyEvolve
Tree
p186
(dp187
g17
I1
sg7
(imyEvolve
Tree
p188
(dp189
g17
I0
sg19
I00
sbsg23
(imyEvolve
Tree
p190
(dp191
g17
I0
sg19
I00
sbsg20
I00
sg21
g43
sbsg20
I00
sg21
g28
sbsg20
I00
sg21
g43
sbsg23
(imyEvolve
Tree
p192
(dp193
g17
I3
sg7
(imyEvolve
Tree
p194
(dp195
g17
I2
sg7
(imyEvolve
Tree
p196
(dp197
g17
I1
sg7
(imyEvolve
Tree
p198
(dp199
g17
I0
sg19
I00
sbsg23
(imyEvolve
Tree
p200
(dp201
g17
I0
sg18
F-4.9612487007086825
sg19
I01
sbsg20
I00
sg21
g42
sbsg23
(imyEvolve
Tree
p202
(dp203
g14
(imyEvolve
Tree
p204
(dp205
g17
I0
sg18
F0.08616759585129419
sg19
I01
sbsg17
I1
sg20
I01
sg21
g22
sbsg20
I00
sg21
g43
sbsg23
(imyEvolve
Tree
p206
(dp207
g17
I2
sg7
(imyEvolve
Tree
p208
(dp209
g14
(imyEvolve
Tree
p210
(dp211
g17
I0
sg18
F2.187223760802305
sg19
I01
sbsg17
I1
sg20
I01
sg21
g86
sbsg23
(imyEvolve
Tree
p212
(dp213
g17
I1
sg7
(imyEvolve
Tree
p214
(dp215
g17
I0
sg19
I00
sbsg23
(imyEvolve
Tree
p216
(dp217
g17
I0
sg19
I00
sbsg20
I00
sg21
g42
sbsg20
I00
sg21
g43
sbsg20
I00
sg21
g43
sbsg20
I00
sg21
g28
sba(imyEvolve
Tree
p218
(dp219
g17
I3
sg7
(imyEvolve
Tree
p220
(dp221
g14
(imyEvolve
Tree
p222
(dp223
g17
I1
sg7
(imyEvolve
Tree
p224
(dp225
g17
I0
sg18
F2.837297990342109
sg19
I01
sbsg23
(imyEvolve
Tree
p226
(dp227
g17
I0
sg19
I00
sbsg20
I00
sg21
g42
sbsg17
I2
sg20
I01
sg21
g35
sbsg23
(imyEvolve
Tree
p228
(dp229
g14
(imyEvolve
Tree
p230
(dp231
g14
(imyEvolve
Tree
p232
(dp233
g17
I0
sg18
F-1.9652905781623842
sg19
I01
sbsg17
I1
sg20
I01
sg21
g35
sbsg17
I2
sg20
I01
sg21
g101
sbsg20
I00
sg21
g43
sba(imyEvolve
Tree
p234
(dp235
g7
(imyEvolve
Tree
p236
(dp237
g7
(imyEvolve
Tree
p238
(dp239
g17
I0
sg18
F-0.8599608241347321
sg19
I01
sbsg17
I1
sg23
(imyEvolve
Tree
p240
(dp241
g17
I0
sg18
F-2.8794523240010372
sg19
I01
sbsg20
I00
sg21
g28
sbsg17
I2
sg23
(imyEvolve
Tree
p242
(dp243
g14
(imyEvolve
Tree
p244
(dp245
g17
I0
sg19
I00
sbsg17
I1
sg20
I01
sg21
g35
sbsg20
I00
sg21
g28
sba(imyEvolve
Tree
p246
(dp247
g7
(imyEvolve
Tree
p248
(dp249
g14
(imyEvolve
Tree
p250
(dp251
g14
(imyEvolve
Tree
p252
(dp253
g17
I0
sg19
I00
sbsg17
I1
sg20
I01
sg21
g22
sbsg17
I2
sg20
I01
sg21
g86
sbsg17
I3
sg23
(imyEvolve
Tree
p254
(dp255
g14
(imyEvolve
Tree
p256
(dp257
g14
(imyEvolve
Tree
p258
(dp259
g17
I0
sg19
I00
sbsg17
I1
sg20
I01
sg21
g86
sbsg17
I2
sg20
I01
sg21
g101
sbsg20
I00
sg21
g43
sba(imyEvolve
Tree
p260
(dp261
g7
(imyEvolve
Tree
p262
(dp263
g14
(imyEvolve
Tree
p264
(dp265
g17
I0
sg19
I00
sbsg17
I1
sg20
I01
sg21
g22
sbsg17
I2
sg23
(imyEvolve
Tree
p266
(dp267
g7
(imyEvolve
Tree
p268
(dp269
g17
I0
sg19
I00
sbsg17
I1
sg23
(imyEvolve
Tree
p270
(dp271
g17
I0
sg18
F-2.143070297015303
sg19
I01
sbsg20
I00
sg21
g28
sbsg20
I00
sg21
g42
sba(imyEvolve
Tree
p272
(dp273
g14
(imyEvolve
Tree
p274
(dp275
g17
I2
sg7
(imyEvolve
Tree
p276
(dp277
g14
(imyEvolve
Tree
p278
(dp279
g17
I0
sg18
F2.3973325975152937
sg19
I01
sbsg17
I1
sg20
I01
sg21
g86
sbsg23
(imyEvolve
Tree
p280
(dp281
g14
(imyEvolve
Tree
p282
(dp283
g17
I0
sg18
F-3.670292520281808
sg19
I01
sbsg17
I1
sg20
I01
sg21
g35
sbsg20
I00
sg21
g43
sbsg17
I3
sg20
I01
sg21
g35
sba(imyEvolve
Tree
p284
(dp285
g7
(imyEvolve
Tree
p286
(dp287
g14
(imyEvolve
Tree
p288
(dp289
g14
(imyEvolve
Tree
p290
(dp291
g17
I0
sg18
F4.005610681424592
sg19
I01
sbsg17
I1
sg20
I01
sg21
g101
sbsg17
I2
sg20
I01
sg21
g101
sbsg17
I3
sg23
(imyEvolve
Tree
p292
(dp293
g7
(imyEvolve
Tree
p294
(dp295
g14
(imyEvolve
Tree
p296
(dp297
g17
I0
sg19
I00
sbsg17
I1
sg20
I01
sg21
g101
sbsg17
I2
sg23
(imyEvolve
Tree
p298
(dp299
g14
(imyEvolve
Tree
p300
(dp301
g17
I0
sg19
I00
sbsg17
I1
sg20
I01
sg21
g35
sbsg20
I00
sg21
g42
sbsg20
I00
sg21
g28
sba(imyEvolve
Tree
p302
(dp303
g14
(imyEvolve
Tree
p304
(dp305
g17
I2
sg7
(imyEvolve
Tree
p306
(dp307
g17
I1
sg7
(imyEvolve
Tree
p308
(dp309
g17
I0
sg19
I00
sbsg23
(imyEvolve
Tree
p310
(dp311
g17
I0
sg18
F0.1751590792205029
sg19
I01
sbsg20
I00
sg21
g42
sbsg23
(imyEvolve
Tree
p312
(dp313
g17
I1
sg7
(imyEvolve
Tree
p314
(dp315
g17
I0
sg19
I00
sbsg23
(imyEvolve
Tree
p316
(dp317
g17
I0
sg19
I00
sbsg20
I00
sg21
g28
sbsg20
I00
sg21
g42
sbsg17
I3
sg20
I01
sg21
g22
sba(imyEvolve
Tree
p318
(dp319
g14
(imyEvolve
Tree
p320
(dp321
g14
(imyEvolve
Tree
p322
(dp323
g14
(imyEvolve
Tree
p324
(dp325
g14
(imyEvolve
Tree
p326
(dp327
g17
I0
sg19
I00
sbsg17
I1
sg20
I01
sg21
g101
sbsg17
I2
sg20
I01
sg21
g86
sbsg17
I3
sg20
I01
sg21
g35
sbsg17
I4
sg20
I01
sg21
g86
sbaa(lp328
(imyEvolve
Tree
p329
(dp330
g7
(imyEvolve
Tree
p331
(dp332
g7
(imyEvolve
Tree
p333
(dp334
g7
(imyEvolve
Tree
p335
(dp336
g14
(imyEvolve
Tree
p337
(dp338
g17
I0
sg19
I00
sbsg17
I1
sg20
I01
sg21
g101
sbsg17
I2
sg23
(imyEvolve
Tree
p339
(dp340
g7
(imyEvolve
Tree
p341
(dp342
g17
I0
sg18
F2.7425479563792976
sg19
I01
sbsg17
I1
sg23
(imyEvolve
Tree
p343
(dp344
g17
I0
sg18
F-3.292245874052284
sg19
I01
sbsg20
I00
sg21
g43
sbsg20
I00
sg21
g43
sbsg17
I3
sg23
(imyEvolve
Tree
p345
(dp346
g7
(imyEvolve
Tree
p347
(dp348
g7
(imyEvolve
Tree
p349
(dp350
g17
I0
sg18
F-0.8385714682470624
sg19
I01
sbsg17
I1
sg23
(imyEvolve
Tree
p351
(dp352
g17
I0
sg19
I00
sbsg20
I00
sg21
g42
sbsg17
I2
sg23
(imyEvolve
Tree
p353
(dp354
g14
(imyEvolve
Tree
p355
(dp356
g17
I0
sg19
I00
sbsg17
I1
sg20
I01
sg21
g22
sbsg20
I00
sg21
g28
sbsg20
I00
sg21
g28
sbsg17
I4
sg23
(imyEvolve
Tree
p357
(dp358
g14
(imyEvolve
Tree
p359
(dp360
g7
(imyEvolve
Tree
p361
(dp362
g7
(imyEvolve
Tree
p363
(dp364
g17
I0
sg19
I00
sbsg17
I1
sg23
(imyEvolve
Tree
p365
(dp366
g17
I0
sg19
I00
sbsg20
I00
sg21
g42
sbsg17
I2
sg23
(imyEvolve
Tree
p367
(dp368
g7
(imyEvolve
Tree
p369
(dp370
g17
I0
sg19
I00
sbsg17
I1
sg23
(imyEvolve
Tree
p371
(dp372
g17
I0
sg18
F3.758704124851013
sg19
I01
sbsg20
I00
sg21
g28
sbsg20
I00
sg21
g28
sbsg17
I3
sg20
I01
sg21
g101
sbsg20
I00
sg21
g42
sba(imyEvolve
Tree
p373
(dp374
g14
(imyEvolve
Tree
p375
(dp376
g14
(imyEvolve
Tree
p377
(dp378
g17
I0
sg18
F4.321177834217041
sg19
I01
sbsg17
I1
sg20
I01
sg21
g22
sbsg17
I2
sg20
I01
sg21
g86
sba(imyEvolve
Tree
p379
(dp380
g14
(imyEvolve
Tree
p381
(dp382
g7
(imyEvolve
Tree
p383
(dp384
g14
(imyEvolve
Tree
p385
(dp386
g14
(imyEvolve
Tree
p387
(dp388
g17
I0
sg19
I00
sbsg17
I1
sg20
I01
sg21
g22
sbsg17
I2
sg20
I01
sg21
g101
sbsg17
I3
sg23
(imyEvolve
Tree
p389
(dp390
g14
(imyEvolve
Tree
p391
(dp392
g14
(imyEvolve
Tree
p393
(dp394
g17
I0
sg19
I00
sbsg17
I1
sg20
I01
sg21
g35
sbsg17
I2
sg20
I01
sg21
g22
sbsg20
I00
sg21
g43
sbsg17
I4
sg20
I01
sg21
g35
sba(imyEvolve
Tree
p395
(dp396
g14
(imyEvolve
Tree
p397
(dp398
g7
(imyEvolve
Tree
p399
(dp400
g14
(imyEvolve
Tree
p401
(dp402
g7
(imyEvolve
Tree
p403
(dp404
g7
(imyEvolve
Tree
p405
(dp406
g17
I0
sg18
F4.501624481026063
sg19
I01
sbsg17
I1
sg23
(imyEvolve
Tree
p407
(dp408
g17
I0
sg18
F1.3137790738959847
sg19
I01
sbsg20
I00
sg21
g43
sbsg17
I2
sg23
(imyEvolve
Tree
p409
(dp410
g7
(imyEvolve
Tree
p411
(dp412
g17
I0
sg19
I00
sbsg17
I1
sg23
(imyEvolve
Tree
p413
(dp414
g17
I0
sg18
F4.671861384209839
sg19
I01
sbsg20
I00
sg21
g28
sbsg20
I00
sg21
g43
sbsg17
I3
sg20
I01
sg21
g101
sbsg17
I4
sg23
(imyEvolve
Tree
p415
(dp416
g14
(imyEvolve
Tree
p417
(dp418
g7
(imyEvolve
Tree
p419
(dp420
g14
(imyEvolve
Tree
p421
(dp422
g17
I0
sg18
F4.579144577383429
sg19
I01
sbsg17
I1
sg20
I01
sg21
g101
sbsg17
I2
sg23
(imyEvolve
Tree
p423
(dp424
g14
(imyEvolve
Tree
p425
(dp426
g17
I0
sg19
I00
sbsg17
I1
sg20
I01
sg21
g22
sbsg20
I00
sg21
g42
sbsg17
I3
sg20
I01
sg21
g86
sbsg20
I00
sg21
g42
sbsg17
I5
sg20
I01
sg21
g22
sba(imyEvolve
Tree
p427
(dp428
g7
(imyEvolve
Tree
p429
(dp430
g7
(imyEvolve
Tree
p431
(dp432
g17
I0
sg19
I00
sbsg17
I1
sg23
(imyEvolve
Tree
p433
(dp434
g17
I0
sg18
F-4.5864258147774075
sg19
I01
sbsg20
I00
sg21
g42
sbsg17
I2
sg23
(imyEvolve
Tree
p435
(dp436
g14
(imyEvolve
Tree
p437
(dp438
g17
I0
sg18
F-3.8022819772201077
sg19
I01
sbsg17
I1
sg20
I01
sg21
g101
sbsg20
I00
sg21
g28
sba(imyEvolve
Tree
p439
(dp440
g14
(imyEvolve
Tree
p441
(dp442
g14
(imyEvolve
Tree
p443
(dp444
g7
(imyEvolve
Tree
p445
(dp446
g14
(imyEvolve
Tree
p447
(dp448
g7
(imyEvolve
Tree
p449
(dp450
g17
I0
sg19
I00
sbsg17
I1
sg23
(imyEvolve
Tree
p451
(dp452
g17
I0
sg18
F-1.0850829221101446
sg19
I01
sbsg20
I00
sg21
g28
sbsg17
I2
sg20
I01
sg21
g35
sbsg17
I3
sg23
(imyEvolve
Tree
p453
(dp454
g7
(imyEvolve
Tree
p455
(dp456
g14
(imyEvolve
Tree
p457
(dp458
g17
I0
sg19
I00
sbsg17
I1
sg20
I01
sg21
g22
sbsg17
I2
sg23
(imyEvolve
Tree
p459
(dp460
g7
(imyEvolve
Tree
p461
(dp462
g17
I0
sg18
F-1.3833339981765933
sg19
I01
sbsg17
I1
sg23
(imyEvolve
Tree
p463
(dp464
g17
I0
sg19
I00
sbsg20
I00
sg21
g43
sbsg20
I00
sg21
g28
sbsg20
I00
sg21
g43
sbsg17
I4
sg20
I01
sg21
g22
sbsg17
I5
sg20
I01
sg21
g22
sba(imyEvolve
Tree
p465
(dp466
g7
(imyEvolve
Tree
p467
(dp468
g14
(imyEvolve
Tree
p469
(dp470
g14
(imyEvolve
Tree
p471
(dp472
g17
I0
sg18
F1.1680864695411666
sg19
I01
sbsg17
I1
sg20
I01
sg21
g86
sbsg17
I2
sg20
I01
sg21
g101
sbsg17
I3
sg23
(imyEvolve
Tree
p473
(dp474
g14
(imyEvolve
Tree
p475
(dp476
g14
(imyEvolve
Tree
p477
(dp478
g17
I0
sg19
I00
sbsg17
I1
sg20
I01
sg21
g35
sbsg17
I2
sg20
I01
sg21
g86
sbsg20
I00
sg21
g28
sba(imyEvolve
Tree
p479
(dp480
g7
(imyEvolve
Tree
p481
(dp482
g14
(imyEvolve
Tree
p483
(dp484
g17
I0
sg19
I00
sbsg17
I1
sg20
I01
sg21
g86
sbsg17
I2
sg23
(imyEvolve
Tree
p485
(dp486
g7
(imyEvolve
Tree
p487
(dp488
g17
I0
sg18
F3.40606619897736
sg19
I01
sbsg17
I1
sg23
(imyEvolve
Tree
p489
(dp490
g17
I0
sg19
I00
sbsg20
I00
sg21
g42
sbsg20
I00
sg21
g28
sba(imyEvolve
Tree
p491
(dp492
g7
(imyEvolve
Tree
p493
(dp494
g7
(imyEvolve
Tree
p495
(dp496
g7
(imyEvolve
Tree
p497
(dp498
g7
(imyEvolve
Tree
p499
(dp500
g7
(imyEvolve
Tree
p501
(dp502
g17
I0
sg18
F1.2456202243567986
sg19
I01
sbsg17
I1
sg23
(imyEvolve
Tree
p503
(dp504
g17
I0
sg19
I00
sbsg20
I00
sg21
g28
sbsg17
I2
sg23
(imyEvolve
Tree
p505
(dp506
g14
(imyEvolve
Tree
p507
(dp508
g17
I0
sg19
I00
sbsg17
I1
sg20
I01
sg21
g86
sbsg20
I00
sg21
g28
sbsg17
I3
sg23
(imyEvolve
Tree
p509
(dp510
g14
(imyEvolve
Tree
p511
(dp512
g7
(imyEvolve
Tree
p513
(dp514
g17
I0
sg19
I00
sbsg17
I1
sg23
(imyEvolve
Tree
p515
(dp516
g17
I0
sg18
F2.9183720025202584
sg19
I01
sbsg20
I00
sg21
g28
sbsg17
I2
sg20
I01
sg21
g35
sbsg20
I00
sg21
g42
sbsg17
I4
sg23
(imyEvolve
Tree
p517
(dp518
g14
(imyEvolve
Tree
p519
(dp520
g14
(imyEvolve
Tree
p521
(dp522
g7
(imyEvolve
Tree
p523
(dp524
g17
I0
sg18
F2.502725343363304
sg19
I01
sbsg17
I1
sg23
(imyEvolve
Tree
p525
(dp526
g17
I0
sg19
I00
sbsg20
I00
sg21
g42
sbsg17
I2
sg20
I01
sg21
g86
sbsg17
I3
sg20
I01
sg21
g22
sbsg20
I00
sg21
g42
sbsg17
I5
sg23
(imyEvolve
Tree
p527
(dp528
g14
(imyEvolve
Tree
p529
(dp530
g14
(imyEvolve
Tree
p531
(dp532
g14
(imyEvolve
Tree
p533
(dp534
g7
(imyEvolve
Tree
p535
(dp536
g17
I0
sg19
I00
sbsg17
I1
sg23
(imyEvolve
Tree
p537
(dp538
g17
I0
sg18
F1.520877054189854
sg19
I01
sbsg20
I00
sg21
g28
sbsg17
I2
sg20
I01
sg21
g86
sbsg17
I3
sg20
I01
sg21
g86
sbsg17
I4
sg20
I01
sg21
g86
sbsg20
I00
sg21
g42
sba(imyEvolve
Tree
p539
(dp540
g7
(imyEvolve
Tree
p541
(dp542
g7
(imyEvolve
Tree
p543
(dp544
g7
(imyEvolve
Tree
p545
(dp546
g14
(imyEvolve
Tree
p547
(dp548
g17
I0
sg19
I00
sbsg17
I1
sg20
I01
sg21
g101
sbsg17
I2
sg23
(imyEvolve
Tree
p549
(dp550
g14
(imyEvolve
Tree
p551
(dp552
g17
I0
sg19
I00
sbsg17
I1
sg20
I01
sg21
g22
sbsg20
I00
sg21
g42
sbsg17
I3
sg23
(imyEvolve
Tree
p553
(dp554
g7
(imyEvolve
Tree
p555
(dp556
g7
(imyEvolve
Tree
p557
(dp558
g17
I0
sg18
F4.589783532565184
sg19
I01
sbsg17
I1
sg23
(imyEvolve
Tree
p559
(dp560
g17
I0
sg18
F4.506355044068233
sg19
I01
sbsg20
I00
sg21
g28
sbsg17
I2
sg23
(imyEvolve
Tree
p561
(dp562
g7
(imyEvolve
Tree
p563
(dp564
g17
I0
sg18
F0.3966439209885406
sg19
I01
sbsg17
I1
sg23
(imyEvolve
Tree
p565
(dp566
g17
I0
sg18
F-1.1413834172911197
sg19
I01
sbsg20
I00
sg21
g28
sbsg20
I00
sg21
g28
sbsg20
I00
sg21
g28
sbsg17
I4
sg23
(imyEvolve
Tree
p567
(dp568
g14
(imyEvolve
Tree
p569
(dp570
g7
(imyEvolve
Tree
p571
(dp572
g7
(imyEvolve
Tree
p573
(dp574
g17
I0
sg19
I00
sbsg17
I1
sg23
(imyEvolve
Tree
p575
(dp576
g17
I0
sg19
I00
sbsg20
I00
sg21
g42
sbsg17
I2
sg23
(imyEvolve
Tree
p577
(dp578
g7
(imyEvolve
Tree
p579
(dp580
g17
I0
sg18
F-4.176226819191146
sg19
I01
sbsg17
I1
sg23
(imyEvolve
Tree
p581
(dp582
g17
I0
sg18
F-3.072843717746844
sg19
I01
sbsg20
I00
sg21
g42
sbsg20
I00
sg21
g42
sbsg17
I3
sg20
I01
sg21
g101
sbsg20
I00
sg21
g43
sba(imyEvolve
Tree
p583
(dp584
g7
(imyEvolve
Tree
p585
(dp586
g7
(imyEvolve
Tree
p587
(dp588
g7
(imyEvolve
Tree
p589
(dp590
g7
(imyEvolve
Tree
p591
(dp592
g17
I0
sg18
F0.7631836611912437
sg19
I01
sbsg17
I1
sg23
(imyEvolve
Tree
p593
(dp594
g17
I0
sg19
I00
sbsg20
I00
sg21
g43
sbsg17
I2
sg23
(imyEvolve
Tree
p595
(dp596
g7
(imyEvolve
Tree
p597
(dp598
g17
I0
sg18
F-3.1957274915397904
sg19
I01
sbsg17
I1
sg23
(imyEvolve
Tree
p599
(dp600
g17
I0
sg18
F-1.2360103526208341
sg19
I01
sbsg20
I00
sg21
g28
sbsg20
I00
sg21
g42
sbsg17
I3
sg23
(imyEvolve
Tree
p601
(dp602
g7
(imyEvolve
Tree
p603
(dp604
g14
(imyEvolve
Tree
p605
(dp606
g17
I0
sg18
F-2.044025678075939
sg19
I01
sbsg17
I1
sg20
I01
sg21
g101
sbsg17
I2
sg23
(imyEvolve
Tree
p607
(dp608
g14
(imyEvolve
Tree
p609
(dp610
g17
I0
sg18
F-1.3071105960695526
sg19
I01
sbsg17
I1
sg20
I01
sg21
g86
sbsg20
I00
sg21
g28
sbsg20
I00
sg21
g42
sbsg17
I4
sg23
(imyEvolve
Tree
p611
(dp612
g7
(imyEvolve
Tree
p613
(dp614
g14
(imyEvolve
Tree
p615
(dp616
g7
(imyEvolve
Tree
p617
(dp618
g17
I0
sg19
I00
sbsg17
I1
sg23
(imyEvolve
Tree
p619
(dp620
g17
I0
sg19
I00
sbsg20
I00
sg21
g43
sbsg17
I2
sg20
I01
sg21
g35
sbsg17
I3
sg23
(imyEvolve
Tree
p621
(dp622
g14
(imyEvolve
Tree
p623
(dp624
g14
(imyEvolve
Tree
p625
(dp626
g17
I0
sg19
I00
sbsg17
I1
sg20
I01
sg21
g101
sbsg17
I2
sg20
I01
sg21
g22
sbsg20
I00
sg21
g43
sbsg20
I00
sg21
g28
sba(imyEvolve
Tree
p627
(dp628
g14
(imyEvolve
Tree
p629
(dp630
g14
(imyEvolve
Tree
p631
(dp632
g17
I2
sg7
(imyEvolve
Tree
p633
(dp634
g17
I1
sg7
(imyEvolve
Tree
p635
(dp636
g17
I0
sg19
I00
sbsg23
(imyEvolve
Tree
p637
(dp638
g17
I0
sg19
I00
sbsg20
I00
sg21
g42
sbsg23
(imyEvolve
Tree
p639
(dp640
g14
(imyEvolve
Tree
p641
(dp642
g17
I0
sg18
F-3.1787327727917605
sg19
I01
sbsg17
I1
sg20
I01
sg21
g35
sbsg20
I00
sg21
g28
sbsg17
I3
sg20
I01
sg21
g86
sbsg17
I4
sg20
I01
sg21
g101
sba(imyEvolve
Tree
p643
(dp644
g14
(imyEvolve
Tree
p645
(dp646
g17
I2
sg7
(imyEvolve
Tree
p647
(dp648
g14
(imyEvolve
Tree
p649
(dp650
g17
I0
sg18
F0.5208603008239869
sg19
I01
sbsg17
I1
sg20
I01
sg21
g101
sbsg23
(imyEvolve
Tree
p651
(dp652
g14
(imyEvolve
Tree
p653
(dp654
g17
I0
sg18
F0.7489999061050012
sg19
I01
sbsg17
I1
sg20
I01
sg21
g101
sbsg20
I00
sg21
g43
sbsg17
I3
sg20
I01
sg21
g22
sba(imyEvolve
Tree
p655
(dp656
g14
(imyEvolve
Tree
p657
(dp658
g14
(imyEvolve
Tree
p659
(dp660
g7
(imyEvolve
Tree
p661
(dp662
g14
(imyEvolve
Tree
p663
(dp664
g14
(imyEvolve
Tree
p665
(dp666
g17
I0
sg18
F-4.505645658621526
sg19
I01
sbsg17
I1
sg20
I01
sg21
g35
sbsg17
I2
sg20
I01
sg21
g86
sbsg17
I3
sg23
(imyEvolve
Tree
p667
(dp668
g14
(imyEvolve
Tree
p669
(dp670
g14
(imyEvolve
Tree
p671
(dp672
g17
I0
sg18
F1.5873823350209388
sg19
I01
sbsg17
I1
sg20
I01
sg21
g101
sbsg17
I2
sg20
I01
sg21
g35
sbsg20
I00
sg21
g43
sbsg17
I4
sg20
I01
sg21
g35
sbsg17
I5
sg20
I01
sg21
g86
sba(imyEvolve
Tree
p673
(dp674
g14
(imyEvolve
Tree
p675
(dp676
g7
(imyEvolve
Tree
p677
(dp678
g14
(imyEvolve
Tree
p679
(dp680
g14
(imyEvolve
Tree
p681
(dp682
g17
I0
sg19
I00
sbsg17
I1
sg20
I01
sg21
g86
sbsg17
I2
sg20
I01
sg21
g22
sbsg17
I3
sg23
(imyEvolve
Tree
p683
(dp684
g14
(imyEvolve
Tree
p685
(dp686
g7
(imyEvolve
Tree
p687
(dp688
g17
I0
sg18
F0.9613984775954334
sg19
I01
sbsg17
I1
sg23
(imyEvolve
Tree
p689
(dp690
g17
I0
sg18
F-3.4249081922598146
sg19
I01
sbsg20
I00
sg21
g42
sbsg17
I2
sg20
I01
sg21
g35
sbsg20
I00
sg21
g43
sbsg17
I4
sg20
I01
sg21
g86
sbaa(lp691
(imyEvolve
Tree
p692
(dp693
g14
(imyEvolve
Tree
p694
(dp695
g14
(imyEvolve
Tree
p696
(dp697
g17
I0
sg18
F-1.6057170811347077
sg19
I01
sbsg17
I1
sg20
I01
sg21
g22
sbsg17
I2
sg20
I01
sg21
g35
sba(imyEvolve
Tree
p698
(dp699
g14
(imyEvolve
Tree
p700
(dp701
g17
I2
sg7
(imyEvolve
Tree
p702
(dp703
g14
(imyEvolve
Tree
p704
(dp705
g17
I0
sg19
I00
sbsg17
I1
sg20
I01
sg21
g101
sbsg23
(imyEvolve
Tree
p706
(dp707
g14
(imyEvolve
Tree
p708
(dp709
g17
I0
sg19
I00
sbsg17
I1
sg20
I01
sg21
g101
sbsg20
I00
sg21
g42
sbsg17
I3
sg20
I01
sg21
g86
sba(imyEvolve
Tree
p710
(dp711
g17
I5
sg7
(imyEvolve
Tree
p712
(dp713
g17
I4
sg7
(imyEvolve
Tree
p714
(dp715
g17
I3
sg7
(imyEvolve
Tree
p716
(dp717
g17
I2
sg7
(imyEvolve
Tree
p718
(dp719
g14
(imyEvolve
Tree
p720
(dp721
g17
I0
sg19
I00
sbsg17
I1
sg20
I01
sg21
g22
sbsg23
(imyEvolve
Tree
p722
(dp723
g14
(imyEvolve
Tree
p724
(dp725
g17
I0
sg19
I00
sbsg17
I1
sg20
I01
sg21
g86
sbsg20
I00
sg21
g42
sbsg23
(imyEvolve
Tree
p726
(dp727
g14
(imyEvolve
Tree
p728
(dp729
g14
(imyEvolve
Tree
p730
(dp731
g17
I0
sg18
F4.391700149813479
sg19
I01
sbsg17
I1
sg20
I01
sg21
g22
sbsg17
I2
sg20
I01
sg21
g101
sbsg20
I00
sg21
g42
sbsg23
(imyEvolve
Tree
p732
(dp733
g17
I3
sg7
(imyEvolve
Tree
p734
(dp735
g17
I2
sg7
(imyEvolve
Tree
p736
(dp737
g17
I1
sg7
(imyEvolve
Tree
p738
(dp739
g17
I0
sg19
I00
sbsg23
(imyEvolve
Tree
p740
(dp741
g17
I0
sg18
F0.42356553439446465
sg19
I01
sbsg20
I00
sg21
g43
sbsg23
(imyEvolve
Tree
p742
(dp743
g14
(imyEvolve
Tree
p744
(dp745
g17
I0
sg18
F-3.9318290276755974
sg19
I01
sbsg17
I1
sg20
I01
sg21
g86
sbsg20
I00
sg21
g28
sbsg23
(imyEvolve
Tree
p746
(dp747
g17
I2
sg7
(imyEvolve
Tree
p748
(dp749
g17
I1
sg7
(imyEvolve
Tree
p750
(dp751
g17
I0
sg19
I00
sbsg23
(imyEvolve
Tree
p752
(dp753
g17
I0
sg19
I00
sbsg20
I00
sg21
g43
sbsg23
(imyEvolve
Tree
p754
(dp755
g17
I1
sg7
(imyEvolve
Tree
p756
(dp757
g17
I0
sg19
I00
sbsg23
(imyEvolve
Tree
p758
(dp759
g17
I0
sg18
F1.4251958449430067
sg19
I01
sbsg20
I00
sg21
g28
sbsg20
I00
sg21
g42
sbsg20
I00
sg21
g43
sbsg20
I00
sg21
g28
sbsg23
(imyEvolve
Tree
p760
(dp761
g14
(imyEvolve
Tree
p762
(dp763
g17
I3
sg7
(imyEvolve
Tree
p764
(dp765
g17
I2
sg7
(imyEvolve
Tree
p766
(dp767
g17
I1
sg7
(imyEvolve
Tree
p768
(dp769
g17
I0
sg19
I00
sbsg23
(imyEvolve
Tree
p770
(dp771
g17
I0
sg18
F4.1846273628985795
sg19
I01
sbsg20
I00
sg21
g28
sbsg23
(imyEvolve
Tree
p772
(dp773
g14
(imyEvolve
Tree
p774
(dp775
g17
I0
sg18
F-0.8488045708996603
sg19
I01
sbsg17
I1
sg20
I01
sg21
g35
sbsg20
I00
sg21
g42
sbsg23
(imyEvolve
Tree
p776
(dp777
g14
(imyEvolve
Tree
p778
(dp779
g17
I1
sg7
(imyEvolve
Tree
p780
(dp781
g17
I0
sg18
F-0.3421897094317048
sg19
I01
sbsg23
(imyEvolve
Tree
p782
(dp783
g17
I0
sg19
I00
sbsg20
I00
sg21
g42
sbsg17
I2
sg20
I01
sg21
g86
sbsg20
I00
sg21
g28
sbsg17
I4
sg20
I01
sg21
g101
sbsg20
I00
sg21
g42
sba(imyEvolve
Tree
p784
(dp785
g17
I3
sg7
(imyEvolve
Tree
p786
(dp787
g14
(imyEvolve
Tree
p788
(dp789
g17
I1
sg7
(imyEvolve
Tree
p790
(dp791
g17
I0
sg19
I00
sbsg23
(imyEvolve
Tree
p792
(dp793
g17
I0
sg18
F0.08984159135254544
sg19
I01
sbsg20
I00
sg21
g28
sbsg17
I2
sg20
I01
sg21
g101
sbsg23
(imyEvolve
Tree
p794
(dp795
g17
I2
sg7
(imyEvolve
Tree
p796
(dp797
g14
(imyEvolve
Tree
p798
(dp799
g17
I0
sg19
I00
sbsg17
I1
sg20
I01
sg21
g22
sbsg23
(imyEvolve
Tree
p800
(dp801
g17
I1
sg7
(imyEvolve
Tree
p802
(dp803
g17
I0
sg19
I00
sbsg23
(imyEvolve
Tree
p804
(dp805
g17
I0
sg18
F-0.45687331260786035
sg19
I01
sbsg20
I00
sg21
g43
sbsg20
I00
sg21
g42
sbsg20
I00
sg21
g43
sba(imyEvolve
Tree
p806
(dp807
g14
(imyEvolve
Tree
p808
(dp809
g14
(imyEvolve
Tree
p810
(dp811
g14
(imyEvolve
Tree
p812
(dp813
g17
I2
sg7
(imyEvolve
Tree
p814
(dp815
g14
(imyEvolve
Tree
p816
(dp817
g17
I0
sg19
I00
sbsg17
I1
sg20
I01
sg21
g86
sbsg23
(imyEvolve
Tree
p818
(dp819
g14
(imyEvolve
Tree
p820
(dp821
g17
I0
sg18
F-4.806530737030324
sg19
I01
sbsg17
I1
sg20
I01
sg21
g86
sbsg20
I00
sg21
g28
sbsg17
I3
sg20
I01
sg21
g101
sbsg17
I4
sg20
I01
sg21
g86
sbsg17
I5
sg20
I01
sg21
g86
sba(imyEvolve
Tree
p822
(dp823
g14
(imyEvolve
Tree
p824
(dp825
g14
(imyEvolve
Tree
p826
(dp827
g14
(imyEvolve
Tree
p828
(dp829
g17
I0
sg19
I00
sbsg17
I1
sg20
I01
sg21
g22
sbsg17
I2
sg20
I01
sg21
g22
sbsg17
I3
sg20
I01
sg21
g22
sba(imyEvolve
Tree
p830
(dp831
g14
(imyEvolve
Tree
p832
(dp833
g14
(imyEvolve
Tree
p834
(dp835
g17
I3
sg7
(imyEvolve
Tree
p836
(dp837
g14
(imyEvolve
Tree
p838
(dp839
g14
(imyEvolve
Tree
p840
(dp841
g17
I0
sg18
F3.2412732526135493
sg19
I01
sbsg17
I1
sg20
I01
sg21
g86
sbsg17
I2
sg20
I01
sg21
g86
sbsg23
(imyEvolve
Tree
p842
(dp843
g14
(imyEvolve
Tree
p844
(dp845
g14
(imyEvolve
Tree
p846
(dp847
g17
I0
sg18
F-1.4226059779833822
sg19
I01
sbsg17
I1
sg20
I01
sg21
g101
sbsg17
I2
sg20
I01
sg21
g86
sbsg20
I00
sg21
g42
sbsg17
I4
sg20
I01
sg21
g22
sbsg17
I5
sg20
I01
sg21
g22
sba(imyEvolve
Tree
p848
(dp849
g17
I5
sg7
(imyEvolve
Tree
p850
(dp851
g17
I4
sg7
(imyEvolve
Tree
p852
(dp853
g17
I3
sg7
(imyEvolve
Tree
p854
(dp855
g17
I2
sg7
(imyEvolve
Tree
p856
(dp857
g14
(imyEvolve
Tree
p858
(dp859
g17
I0
sg18
F-2.5876046218758395
sg19
I01
sbsg17
I1
sg20
I01
sg21
g22
sbsg23
(imyEvolve
Tree
p860
(dp861
g17
I1
sg7
(imyEvolve
Tree
p862
(dp863
g17
I0
sg19
I00
sbsg23
(imyEvolve
Tree
p864
(dp865
g17
I0
sg19
I00
sbsg20
I00
sg21
g28
sbsg20
I00
sg21
g42
sbsg23
(imyEvolve
Tree
p866
(dp867
g17
I2
sg7
(imyEvolve
Tree
p868
(dp869
g17
I1
sg7
(imyEvolve
Tree
p870
(dp871
g17
I0
sg18
F1.323912458340427
sg19
I01
sbsg23
(imyEvolve
Tree
p872
(dp873
g17
I0
sg18
F1.8165009141020025
sg19
I01
sbsg20
I00
sg21
g42
sbsg23
(imyEvolve
Tree
p874
(dp875
g17
I1
sg7
(imyEvolve
Tree
p876
(dp877
g17
I0
sg18
F-0.526780672264799
sg19
I01
sbsg23
(imyEvolve
Tree
p878
(dp879
g17
I0
sg18
F-3.7347696656134746
sg19
I01
sbsg20
I00
sg21
g28
sbsg20
I00
sg21
g42
sbsg20
I00
sg21
g28
sbsg23
(imyEvolve
Tree
p880
(dp881
g17
I3
sg7
(imyEvolve
Tree
p882
(dp883
g14
(imyEvolve
Tree
p884
(dp885
g14
(imyEvolve
Tree
p886
(dp887
g17
I0
sg19
I00
sbsg17
I1
sg20
I01
sg21
g86
sbsg17
I2
sg20
I01
sg21
g22
sbsg23
(imyEvolve
Tree
p888
(dp889
g17
I2
sg7
(imyEvolve
Tree
p890
(dp891
g17
I1
sg7
(imyEvolve
Tree
p892
(dp893
g17
I0
sg18
F2.885040490266853
sg19
I01
sbsg23
(imyEvolve
Tree
p894
(dp895
g17
I0
sg19
I00
sbsg20
I00
sg21
g28
sbsg23
(imyEvolve
Tree
p896
(dp897
g14
(imyEvolve
Tree
p898
(dp899
g17
I0
sg18
F-0.2109431663091046
sg19
I01
sbsg17
I1
sg20
I01
sg21
g86
sbsg20
I00
sg21
g43
sbsg20
I00
sg21
g42
sbsg20
I00
sg21
g28
sbsg23
(imyEvolve
Tree
p900
(dp901
g17
I4
sg7
(imyEvolve
Tree
p902
(dp903
g17
I3
sg7
(imyEvolve
Tree
p904
(dp905
g17
I2
sg7
(imyEvolve
Tree
p906
(dp907
g14
(imyEvolve
Tree
p908
(dp909
g17
I0
sg19
I00
sbsg17
I1
sg20
I01
sg21
g101
sbsg23
(imyEvolve
Tree
p910
(dp911
g17
I1
sg7
(imyEvolve
Tree
p912
(dp913
g17
I0
sg18
F-0.32208532485466623
sg19
I01
sbsg23
(imyEvolve
Tree
p914
(dp915
g17
I0
sg18
F-4.383696806037928
sg19
I01
sbsg20
I00
sg21
g28
sbsg20
I00
sg21
g42
sbsg23
(imyEvolve
Tree
p916
(dp917
g14
(imyEvolve
Tree
p918
(dp919
g14
(imyEvolve
Tree
p920
(dp921
g17
I0
sg19
I00
sbsg17
I1
sg20
I01
sg21
g22
sbsg17
I2
sg20
I01
sg21
g86
sbsg20
I00
sg21
g42
sbsg23
(imyEvolve
Tree
p922
(dp923
g14
(imyEvolve
Tree
p924
(dp925
g14
(imyEvolve
Tree
p926
(dp927
g14
(imyEvolve
Tree
p928
(dp929
g17
I0
sg19
I00
sbsg17
I1
sg20
I01
sg21
g101
sbsg17
I2
sg20
I01
sg21
g101
sbsg17
I3
sg20
I01
sg21
g101
sbsg20
I00
sg21
g28
sbsg20
I00
sg21
g42
sba(imyEvolve
Tree
p930
(dp931
g14
(imyEvolve
Tree
p932
(dp933
g14
(imyEvolve
Tree
p934
(dp935
g14
(imyEvolve
Tree
p936
(dp937
g17
I0
sg18
F-0.7212018182476942
sg19
I01
sbsg17
I1
sg20
I01
sg21
g35
sbsg17
I2
sg20
I01
sg21
g35
sbsg17
I3
sg20
I01
sg21
g101
sbaasS'alpha'
p938
F0.006081428776862099
sS'fitness'
p939
cnumpy.core.multiarray
scalar
p940
(cnumpy
dtype
p941
(S'f8'
p942
I0
I1
tp943
Rp944
(I3
S'<'
p945
NNNI-1
I-1
I0
tp946
bS'\x00\xe4\xc7\x98{\x90W\xbf'
p947
tp948
Rp949
sS'weightSharing'
p950
(lp951
I01
aI01
asS'fitnessValid'
p952
I00
sS'resolution'
p953
I99
sb.