(imyEvolve
Individual
p0
(dp1
S'funcs'
p2
(lp3
(lp4
(imyEvolve
Tree
p5
(dp6
S'below'
p7
(imyEvolve
Tree
p8
(dp9
S'depth'
p10
I2
sS'left'
p11
(imyEvolve
Tree
p12
(dp13
g7
(imyEvolve
Tree
p14
(dp15
g10
I0
sS'constant'
p16
F1.6229523920504239
sS'isConstant'
p17
I01
sbsg10
I1
sS'single'
p18
I01
sS'op'
p19
cmath
sin
p20
sbsS'right'
p21
(imyEvolve
Tree
p22
(dp23
g10
I1
sg11
(imyEvolve
Tree
p24
(dp25
g10
I0
sg17
I00
sbsg21
(imyEvolve
Tree
p26
(dp27
g10
I0
sg17
I00
sbsg18
I00
sg19
coperator
add
p28
sbsg18
I00
sg19
coperator
sub
p29
sbsg10
I3
sg18
I01
sg19
cmath
cos
p30
sba(imyEvolve
Tree
p31
(dp32
g7
(imyEvolve
Tree
p33
(dp34
g10
I1
sg11
(imyEvolve
Tree
p35
(dp36
g10
I0
sg16
F-1.3144594805802767
sg17
I01
sbsg21
(imyEvolve
Tree
p37
(dp38
g10
I0
sg17
I00
sbsg18
I00
sg19
g28
sbsg10
I2
sg18
I01
sg19
g20
sba(imyEvolve
Tree
p39
(dp40
g10
I5
sg11
(imyEvolve
Tree
p41
(dp42
g7
(imyEvolve
Tree
p43
(dp44
g10
I3
sg11
(imyEvolve
Tree
p45
(dp46
g10
I2
sg11
(imyEvolve
Tree
p47
(dp48
g10
I1
sg11
(imyEvolve
Tree
p49
(dp50
g10
I0
sg17
I00
sbsg21
(imyEvolve
Tree
p51
(dp52
g10
I0
sg17
I00
sbsg18
I00
sg19
coperator
mul
p53
sbsg21
(imyEvolve
Tree
p54
(dp55
g7
(imyEvolve
Tree
p56
(dp57
g10
I0
sg17
I00
sbsg10
I1
sg18
I01
sg19
cmyEvolve
square
p58
sbsg18
I00
sg19
g53
sbsg21
(imyEvolve
Tree
p59
(dp60
g10
I2
sg11
(imyEvolve
Tree
p61
(dp62
g10
I1
sg11
(imyEvolve
Tree
p63
(dp64
g10
I0
sg16
F2.398607013650471
sg17
I01
sbsg21
(imyEvolve
Tree
p65
(dp66
g10
I0
sg17
I00
sbsg18
I00
sg19
g53
sbsg21
(imyEvolve
Tree
p67
(dp68
g10
I1
sg11
(imyEvolve
Tree
p69
(dp70
g10
I0
sg16
F4.710388821879043
sg17
I01
sbsg21
(imyEvolve
Tree
p71
(dp72
g10
I0
sg17
I00
sbsg18
I00
sg19
g53
sbsg18
I00
sg19
g53
sbsg18
I00
sg19
g53
sbsg10
I4
sg18
I01
sg19
g30
sbsg21
(imyEvolve
Tree
p73
(dp74
g10
I4
sg11
(imyEvolve
Tree
p75
(dp76
g7
(imyEvolve
Tree
p77
(dp78
g7
(imyEvolve
Tree
p79
(dp80
g10
I1
sg11
(imyEvolve
Tree
p81
(dp82
g10
I0
sg17
I00
sbsg21
(imyEvolve
Tree
p83
(dp84
g10
I0
sg17
I00
sbsg18
I00
sg19
g53
sbsg10
I2
sg18
I01
sg19
g58
sbsg10
I3
sg18
I01
sg19
cmyEvolve
absSqrt
p85
sbsg21
(imyEvolve
Tree
p86
(dp87
g7
(imyEvolve
Tree
p88
(dp89
g7
(imyEvolve
Tree
p90
(dp91
g10
I1
sg11
(imyEvolve
Tree
p92
(dp93
g10
I0
sg16
F4.440460034993251
sg17
I01
sbsg21
(imyEvolve
Tree
p94
(dp95
g10
I0
sg16
F2.3525938893259193
sg17
I01
sbsg18
I00
sg19
g28
sbsg10
I2
sg18
I01
sg19
g30
sbsg10
I3
sg18
I01
sg19
g85
sbsg18
I00
sg19
g28
sbsg18
I00
sg19
g29
sba(imyEvolve
Tree
p96
(dp97
g10
I4
sg11
(imyEvolve
Tree
p98
(dp99
g7
(imyEvolve
Tree
p100
(dp101
g10
I2
sg11
(imyEvolve
Tree
p102
(dp103
g7
(imyEvolve
Tree
p104
(dp105
g10
I0
sg16
F3.2929254313668093
sg17
I01
sbsg10
I1
sg18
I01
sg19
g30
sbsg21
(imyEvolve
Tree
p106
(dp107
g7
(imyEvolve
Tree
p108
(dp109
g10
I0
sg16
F-2.122764806979145
sg17
I01
sbsg10
I1
sg18
I01
sg19
g58
sbsg18
I00
sg19
g28
sbsg10
I3
sg18
I01
sg19
g20
sbsg21
(imyEvolve
Tree
p110
(dp111
g7
(imyEvolve
Tree
p112
(dp113
g7
(imyEvolve
Tree
p114
(dp115
g10
I1
sg11
(imyEvolve
Tree
p116
(dp117
g10
I0
sg16
F-3.8110387596003803
sg17
I01
sbsg21
(imyEvolve
Tree
p118
(dp119
g10
I0
sg17
I00
sbsg18
I00
sg19
g29
sbsg10
I2
sg18
I01
sg19
g30
sbsg10
I3
sg18
I01
sg19
g30
sbsg18
I00
sg19
g28
sba(imyEvolve
Tree
p120
(dp121
g10
I3
sg11
(imyEvolve
Tree
p122
(dp123
g10
I2
sg11
(imyEvolve
Tree
p124
(dp125
g10
I1
sg11
(imyEvolve
Tree
p126
(dp127
g10
I0
sg17
I00
sbsg21
(imyEvolve
Tree
p128
(dp129
g10
I0
sg16
F0.36050252897813095
sg17
I01
sbsg18
I00
sg19
g53
sbsg21
(imyEvolve
Tree
p130
(dp131
g10
I1
sg11
(imyEvolve
Tree
p132
(dp133
g10
I0
sg17
I00
sbsg21
(imyEvolve
Tree
p134
(dp135
g10
I0
sg16
F4.947868304474399
sg17
I01
sbsg18
I00
sg19
g28
sbsg18
I00
sg19
g28
sbsg21
(imyEvolve
Tree
p136
(dp137
g7
(imyEvolve
Tree
p138
(dp139
g10
I1
sg11
(imyEvolve
Tree
p140
(dp141
g10
I0
sg16
F1.0830023402857094
sg17
I01
sbsg21
(imyEvolve
Tree
p142
(dp143
g10
I0
sg17
I00
sbsg18
I00
sg19
g28
sbsg10
I2
sg18
I01
sg19
g30
sbsg18
I00
sg19
g29
sba(imyEvolve
Tree
p144
(dp145
g10
I4
sg11
(imyEvolve
Tree
p146
(dp147
g10
I3
sg11
(imyEvolve
Tree
p148
(dp149
g7
(imyEvolve
Tree
p150
(dp151
g7
(imyEvolve
Tree
p152
(dp153
g10
I0
sg17
I00
sbsg10
I1
sg18
I01
sg19
g85
sbsg10
I2
sg18
I01
sg19
g30
sbsg21
(imyEvolve
Tree
p154
(dp155
g10
I2
sg11
(imyEvolve
Tree
p156
(dp157
g7
(imyEvolve
Tree
p158
(dp159
g10
I0
sg17
I00
sbsg10
I1
sg18
I01
sg19
g30
sbsg21
(imyEvolve
Tree
p160
(dp161
g10
I1
sg11
(imyEvolve
Tree
p162
(dp163
g10
I0
sg16
F-4.523821559970347
sg17
I01
sbsg21
(imyEvolve
Tree
p164
(dp165
g10
I0
sg16
F-0.762790392514149
sg17
I01
sbsg18
I00
sg19
g29
sbsg18
I00
sg19
g53
sbsg18
I00
sg19
g53
sbsg21
(imyEvolve
Tree
p166
(dp167
g7
(imyEvolve
Tree
p168
(dp169
g7
(imyEvolve
Tree
p170
(dp171
g7
(imyEvolve
Tree
p172
(dp173
g10
I0
sg16
F4.665492452695938
sg17
I01
sbsg10
I1
sg18
I01
sg19
g58
sbsg10
I2
sg18
I01
sg19
g58
sbsg10
I3
sg18
I01
sg19
g20
sbsg18
I00
sg19
g53
sba(imyEvolve
Tree
p174
(dp175
g7
(imyEvolve
Tree
p176
(dp177
g10
I2
sg11
(imyEvolve
Tree
p178
(dp179
g7
(imyEvolve
Tree
p180
(dp181
g10
I0
sg17
I00
sbsg10
I1
sg18
I01
sg19
g30
sbsg21
(imyEvolve
Tree
p182
(dp183
g10
I1
sg11
(imyEvolve
Tree
p184
(dp185
g10
I0
sg16
F4.551016915798083
sg17
I01
sbsg21
(imyEvolve
Tree
p186
(dp187
g10
I0
sg16
F-0.5348948589566636
sg17
I01
sbsg18
I00
sg19
g53
sbsg18
I00
sg19
g29
sbsg10
I3
sg18
I01
sg19
g85
sba(imyEvolve
Tree
p188
(dp189
g10
I2
sg11
(imyEvolve
Tree
p190
(dp191
g7
(imyEvolve
Tree
p192
(dp193
g10
I0
sg16
F-1.817262316140499
sg17
I01
sbsg10
I1
sg18
I01
sg19
g20
sbsg21
(imyEvolve
Tree
p194
(dp195
g10
I1
sg11
(imyEvolve
Tree
p196
(dp197
g10
I0
sg17
I00
sbsg21
(imyEvolve
Tree
p198
(dp199
g10
I0
sg16
F2.2438091553059767
sg17
I01
sbsg18
I00
sg19
g29
sbsg18
I00
sg19
g28
sbaa(lp200
(imyEvolve
Tree
p201
(dp202
g7
(imyEvolve
Tree
p203
(dp204
g7
(imyEvolve
Tree
p205
(dp206
g10
I2
sg11
(imyEvolve
Tree
p207
(dp208
g10
I1
sg11
(imyEvolve
Tree
p209
(dp210
g10
I0
sg16
F3.3292277874961265
sg17
I01
sbsg21
(imyEvolve
Tree
p211
(dp212
g10
I0
sg17
I00
sbsg18
I00
sg19
g53
sbsg21
(imyEvolve
Tree
p213
(dp214
g10
I1
sg11
(imyEvolve
Tree
p215
(dp216
g10
I0
sg16
F-2.9301775156733334
sg17
I01
sbsg21
(imyEvolve
Tree
p217
(dp218
g10
I0
sg16
F2.964345617905715
sg17
I01
sbsg18
I00
sg19
g53
sbsg18
I00
sg19
g29
sbsg10
I3
sg18
I01
sg19
g58
sbsg10
I4
sg18
I01
sg19
g20
sba(imyEvolve
Tree
p219
(dp220
g7
(imyEvolve
Tree
p221
(dp222
g7
(imyEvolve
Tree
p223
(dp224
g7
(imyEvolve
Tree
p225
(dp226
g10
I1
sg11
(imyEvolve
Tree
p227
(dp228
g10
I0
sg16
F0.48810559232828954
sg17
I01
sbsg21
(imyEvolve
Tree
p229
(dp230
g10
I0
sg17
I00
sbsg18
I00
sg19
g29
sbsg10
I2
sg18
I01
sg19
g58
sbsg10
I3
sg18
I01
sg19
g20
sbsg10
I4
sg18
I01
sg19
g58
sba(imyEvolve
Tree
p231
(dp232
g7
(imyEvolve
Tree
p233
(dp234
g7
(imyEvolve
Tree
p235
(dp236
g7
(imyEvolve
Tree
p237
(dp238
g7
(imyEvolve
Tree
p239
(dp240
g7
(imyEvolve
Tree
p241
(dp242
g10
I0
sg16
F-4.376564792255911
sg17
I01
sbsg10
I1
sg18
I01
sg19
g20
sbsg10
I2
sg18
I01
sg19
g20
sbsg10
I3
sg18
I01
sg19
g85
sbsg10
I4
sg18
I01
sg19
g85
sbsg10
I5
sg18
I01
sg19
g85
sba(imyEvolve
Tree
p243
(dp244
g10
I2
sg11
(imyEvolve
Tree
p245
(dp246
g10
I1
sg11
(imyEvolve
Tree
p247
(dp248
g10
I0
sg17
I00
sbsg21
(imyEvolve
Tree
p249
(dp250
g10
I0
sg16
F0.8051069696737256
sg17
I01
sbsg18
I00
sg19
g28
sbsg21
(imyEvolve
Tree
p251
(dp252
g7
(imyEvolve
Tree
p253
(dp254
g10
I0
sg17
I00
sbsg10
I1
sg18
I01
sg19
g58
sbsg18
I00
sg19
g28
sba(imyEvolve
Tree
p255
(dp256
g7
(imyEvolve
Tree
p257
(dp258
g10
I2
sg11
(imyEvolve
Tree
p259
(dp260
g7
(imyEvolve
Tree
p261
(dp262
g10
I0
sg17
I00
sbsg10
I1
sg18
I01
sg19
g20
sbsg21
(imyEvolve
Tree
p263
(dp264
g10
I1
sg11
(imyEvolve
Tree
p265
(dp266
g10
I0
sg17
I00
sbsg21
(imyEvolve
Tree
p267
(dp268
g10
I0
sg16
F2.253827917659387
sg17
I01
sbsg18
I00
sg19
g53
sbsg18
I00
sg19
g53
sbsg10
I3
sg18
I01
sg19
g85
sba(imyEvolve
Tree
p269
(dp270
g7
(imyEvolve
Tree
p271
(dp272
g10
I2
sg11
(imyEvolve
Tree
p273
(dp274
g10
I1
sg11
(imyEvolve
Tree
p275
(dp276
g10
I0
sg17
I00
sbsg21
(imyEvolve
Tree
p277
(dp278
g10
I0
sg17
I00
sbsg18
I00
sg19
g53
sbsg21
(imyEvolve
Tree
p279
(dp280
g7
(imyEvolve
Tree
p281
(dp282
g10
I0
sg16
F1.4575898385293566
sg17
I01
sbsg10
I1
sg18
I01
sg19
g20
sbsg18
I00
sg19
g28
sbsg10
I3
sg18
I01
sg19
g85
sba(imyEvolve
Tree
p283
(dp284
g7
(imyEvolve
Tree
p285
(dp286
g7
(imyEvolve
Tree
p287
(dp288
g7
(imyEvolve
Tree
p289
(dp290
g10
I0
sg17
I00
sbsg10
I1
sg18
I01
sg19
g30
sbsg10
I2
sg18
I01
sg19
g85
sbsg10
I3
sg18
I01
sg19
g58
sba(imyEvolve
Tree
p291
(dp292
g10
I5
sg11
(imyEvolve
Tree
p293
(dp294
g10
I4
sg11
(imyEvolve
Tree
p295
(dp296
g10
I3
sg11
(imyEvolve
Tree
p297
(dp298
g7
(imyEvolve
Tree
p299
(dp300
g7
(imyEvolve
Tree
p301
(dp302
g10
I0
sg17
I00
sbsg10
I1
sg18
I01
sg19
g30
sbsg10
I2
sg18
I01
sg19
g20
sbsg21
(imyEvolve
Tree
p303
(dp304
g7
(imyEvolve
Tree
p305
(dp306
g7
(imyEvolve
Tree
p307
(dp308
g10
I0
sg17
I00
sbsg10
I1
sg18
I01
sg19
g58
sbsg10
I2
sg18
I01
sg19
g58
sbsg18
I00
sg19
g28
sbsg21
(imyEvolve
Tree
p309
(dp310
g10
I3
sg11
(imyEvolve
Tree
p311
(dp312
g7
(imyEvolve
Tree
p313
(dp314
g10
I1
sg11
(imyEvolve
Tree
p315
(dp316
g10
I0
sg16
F0.5698340918423082
sg17
I01
sbsg21
(imyEvolve
Tree
p317
(dp318
g10
I0
sg17
I00
sbsg18
I00
sg19
g53
sbsg10
I2
sg18
I01
sg19
g30
sbsg21
(imyEvolve
Tree
p319
(dp320
g7
(imyEvolve
Tree
p321
(dp322
g10
I1
sg11
(imyEvolve
Tree
p323
(dp324
g10
I0
sg16
F0.9099599009952168
sg17
I01
sbsg21
(imyEvolve
Tree
p325
(dp326
g10
I0
sg17
I00
sbsg18
I00
sg19
g53
sbsg10
I2
sg18
I01
sg19
g30
sbsg18
I00
sg19
g29
sbsg18
I00
sg19
g29
sbsg21
(imyEvolve
Tree
p327
(dp328
g10
I4
sg11
(imyEvolve
Tree
p329
(dp330
g10
I3
sg11
(imyEvolve
Tree
p331
(dp332
g7
(imyEvolve
Tree
p333
(dp334
g7
(imyEvolve
Tree
p335
(dp336
g10
I0
sg16
F2.810358771199991
sg17
I01
sbsg10
I1
sg18
I01
sg19
g85
sbsg10
I2
sg18
I01
sg19
g85
sbsg21
(imyEvolve
Tree
p337
(dp338
g10
I2
sg11
(imyEvolve
Tree
p339
(dp340
g7
(imyEvolve
Tree
p341
(dp342
g10
I0
sg16
F4.977762697798344
sg17
I01
sbsg10
I1
sg18
I01
sg19
g85
sbsg21
(imyEvolve
Tree
p343
(dp344
g7
(imyEvolve
Tree
p345
(dp346
g10
I0
sg17
I00
sbsg10
I1
sg18
I01
sg19
g30
sbsg18
I00
sg19
g53
sbsg18
I00
sg19
g28
sbsg21
(imyEvolve
Tree
p347
(dp348
g10
I3
sg11
(imyEvolve
Tree
p349
(dp350
g7
(imyEvolve
Tree
p351
(dp352
g10
I1
sg11
(imyEvolve
Tree
p353
(dp354
g10
I0
sg17
I00
sbsg21
(imyEvolve
Tree
p355
(dp356
g10
I0
sg16
F-2.1010687302098408
sg17
I01
sbsg18
I00
sg19
g53
sbsg10
I2
sg18
I01
sg19
g85
sbsg21
(imyEvolve
Tree
p357
(dp358
g7
(imyEvolve
Tree
p359
(dp360
g7
(imyEvolve
Tree
p361
(dp362
g10
I0
sg17
I00
sbsg10
I1
sg18
I01
sg19
g30
sbsg10
I2
sg18
I01
sg19
g20
sbsg18
I00
sg19
g29
sbsg18
I00
sg19
g29
sbsg18
I00
sg19
g28
sba(imyEvolve
Tree
p363
(dp364
g10
I3
sg11
(imyEvolve
Tree
p365
(dp366
g7
(imyEvolve
Tree
p367
(dp368
g10
I1
sg11
(imyEvolve
Tree
p369
(dp370
g10
I0
sg16
F1.0028162856062997
sg17
I01
sbsg21
(imyEvolve
Tree
p371
(dp372
g10
I0
sg17
I00
sbsg18
I00
sg19
g29
sbsg10
I2
sg18
I01
sg19
g30
sbsg21
(imyEvolve
Tree
p373
(dp374
g10
I2
sg11
(imyEvolve
Tree
p375
(dp376
g7
(imyEvolve
Tree
p377
(dp378
g10
I0
sg16
F-0.8134984559212555
sg17
I01
sbsg10
I1
sg18
I01
sg19
g20
sbsg21
(imyEvolve
Tree
p379
(dp380
g7
(imyEvolve
Tree
p381
(dp382
g10
I0
sg16
F2.16669000953718
sg17
I01
sbsg10
I1
sg18
I01
sg19
g20
sbsg18
I00
sg19
g29
sbsg18
I00
sg19
g28
sbaasS'weightSharing'
p383
(lp384
I00
aI00
aI00
asS'fitnessValid'
p385
I00
sS'fitness'
p386
cnumpy.core.multiarray
scalar
p387
(cnumpy
dtype
p388
(S'f8'
p389
I0
I1
tp390
Rp391
(I3
S'<'
p392
NNNI-1
I-1
I0
tp393
bS'\xc0%\xe4\x83\xe0/\x8a\xbf'
p394
tp395
Rp396
sS'alpha'
p397
F0.002991620349767788
sS'resolution'
p398
I66
sb.