(imyEvolve
Individual
p0
(dp1
S'funcs'
p2
(lp3
(lp4
(imyEvolve
Tree
p5
(dp6
S'below'
p7
(imyEvolve
Tree
p8
(dp9
g7
(imyEvolve
Tree
p10
(dp11
g7
(imyEvolve
Tree
p12
(dp13
S'depth'
p14
I0
sS'isConstant'
p15
I00
sbsg14
I1
sS'single'
p16
I01
sS'op'
p17
cmath
cos
p18
sbsg14
I2
sg16
I01
sg17
cmyEvolve
absSqrt
p19
sbsg14
I3
sg16
I01
sg17
g18
sba(imyEvolve
Tree
p20
(dp21
S'left'
p22
(imyEvolve
Tree
p23
(dp24
g7
(imyEvolve
Tree
p25
(dp26
g22
(imyEvolve
Tree
p27
(dp28
g14
I0
sS'constant'
p29
F0.23403116206035524
sg15
I01
sbsg14
I1
sS'right'
p30
(imyEvolve
Tree
p31
(dp32
g14
I0
sg15
I00
sbsg16
I00
sg17
coperator
sub
p33
sbsg14
I2
sg16
I01
sg17
cmyEvolve
square
p34
sbsg14
I3
sg30
(imyEvolve
Tree
p35
(dp36
g22
(imyEvolve
Tree
p37
(dp38
g22
(imyEvolve
Tree
p39
(dp40
g14
I0
sg29
F3.5569515997570402
sg15
I01
sbsg14
I1
sg30
(imyEvolve
Tree
p41
(dp42
g14
I0
sg29
F2.219843764454441
sg15
I01
sbsg16
I00
sg17
coperator
mul
p43
sbsg14
I2
sg30
(imyEvolve
Tree
p44
(dp45
g7
(imyEvolve
Tree
p46
(dp47
g14
I0
sg15
I00
sbsg14
I1
sg16
I01
sg17
cmath
sin
p48
sbsg16
I00
sg17
coperator
add
p49
sbsg16
I00
sg17
g33
sba(imyEvolve
Tree
p50
(dp51
g22
(imyEvolve
Tree
p52
(dp53
g22
(imyEvolve
Tree
p54
(dp55
g14
I0
sg15
I00
sbsg14
I1
sg30
(imyEvolve
Tree
p56
(dp57
g14
I0
sg15
I00
sbsg16
I00
sg17
g33
sbsg14
I2
sg30
(imyEvolve
Tree
p58
(dp59
g22
(imyEvolve
Tree
p60
(dp61
g14
I0
sg15
I00
sbsg14
I1
sg30
(imyEvolve
Tree
p62
(dp63
g14
I0
sg29
F1.1997862212991812
sg15
I01
sbsg16
I00
sg17
g43
sbsg16
I00
sg17
g49
sba(imyEvolve
Tree
p64
(dp65
g7
(imyEvolve
Tree
p66
(dp67
g22
(imyEvolve
Tree
p68
(dp69
g22
(imyEvolve
Tree
p70
(dp71
g14
I0
sg29
F0.36826992967050387
sg15
I01
sbsg14
I1
sg30
(imyEvolve
Tree
p72
(dp73
g14
I0
sg29
F4.856780197386492
sg15
I01
sbsg16
I00
sg17
g33
sbsg14
I2
sg30
(imyEvolve
Tree
p74
(dp75
g22
(imyEvolve
Tree
p76
(dp77
g14
I0
sg29
F-0.5563782429086759
sg15
I01
sbsg14
I1
sg30
(imyEvolve
Tree
p78
(dp79
g14
I0
sg29
F3.779247722163099
sg15
I01
sbsg16
I00
sg17
g43
sbsg16
I00
sg17
g33
sbsg14
I3
sg16
I01
sg17
g48
sba(imyEvolve
Tree
p80
(dp81
g14
I4
sg22
(imyEvolve
Tree
p82
(dp83
g14
I3
sg22
(imyEvolve
Tree
p84
(dp85
g14
I2
sg22
(imyEvolve
Tree
p86
(dp87
g14
I1
sg22
(imyEvolve
Tree
p88
(dp89
g14
I0
sg15
I00
sbsg30
(imyEvolve
Tree
p90
(dp91
g14
I0
sg29
F-0.1439889321589245
sg15
I01
sbsg16
I00
sg17
g33
sbsg30
(imyEvolve
Tree
p92
(dp93
g14
I1
sg22
(imyEvolve
Tree
p94
(dp95
g14
I0
sg15
I00
sbsg30
(imyEvolve
Tree
p96
(dp97
g14
I0
sg29
F-0.205381959010289
sg15
I01
sbsg16
I00
sg17
g33
sbsg16
I00
sg17
g33
sbsg30
(imyEvolve
Tree
p98
(dp99
g14
I2
sg22
(imyEvolve
Tree
p100
(dp101
g7
(imyEvolve
Tree
p102
(dp103
g14
I0
sg29
F0.440093542492038
sg15
I01
sbsg14
I1
sg16
I01
sg17
g18
sbsg30
(imyEvolve
Tree
p104
(dp105
g7
(imyEvolve
Tree
p106
(dp107
g14
I0
sg29
F-3.108811973480732
sg15
I01
sbsg14
I1
sg16
I01
sg17
g34
sbsg16
I00
sg17
g33
sbsg16
I00
sg17
g43
sbsg30
(imyEvolve
Tree
p108
(dp109
g7
(imyEvolve
Tree
p110
(dp111
g14
I2
sg22
(imyEvolve
Tree
p112
(dp113
g7
(imyEvolve
Tree
p114
(dp115
g14
I0
sg15
I00
sbsg14
I1
sg16
I01
sg17
g34
sbsg30
(imyEvolve
Tree
p116
(dp117
g14
I1
sg22
(imyEvolve
Tree
p118
(dp119
g14
I0
sg29
F-4.536505251653833
sg15
I01
sbsg30
(imyEvolve
Tree
p120
(dp121
g14
I0
sg29
F0.7042599019012918
sg15
I01
sbsg16
I00
sg17
g49
sbsg16
I00
sg17
g33
sbsg14
I3
sg16
I01
sg17
g34
sbsg16
I00
sg17
g49
sba(imyEvolve
Tree
p122
(dp123
g22
(imyEvolve
Tree
p124
(dp125
g22
(imyEvolve
Tree
p126
(dp127
g7
(imyEvolve
Tree
p128
(dp129
g14
I0
sg15
I00
sbsg14
I1
sg16
I01
sg17
g19
sbsg14
I2
sg30
(imyEvolve
Tree
p130
(dp131
g22
(imyEvolve
Tree
p132
(dp133
g14
I0
sg29
F1.6357787650675082
sg15
I01
sbsg14
I1
sg30
(imyEvolve
Tree
p134
(dp135
g14
I0
sg15
I00
sbsg16
I00
sg17
g33
sbsg16
I00
sg17
g33
sbsg14
I3
sg30
(imyEvolve
Tree
p136
(dp137
g7
(imyEvolve
Tree
p138
(dp139
g22
(imyEvolve
Tree
p140
(dp141
g14
I0
sg29
F-0.9555988417013017
sg15
I01
sbsg14
I1
sg30
(imyEvolve
Tree
p142
(dp143
g14
I0
sg15
I00
sbsg16
I00
sg17
g33
sbsg14
I2
sg16
I01
sg17
g18
sbsg16
I00
sg17
g33
sba(imyEvolve
Tree
p144
(dp145
g7
(imyEvolve
Tree
p146
(dp147
g22
(imyEvolve
Tree
p148
(dp149
g14
I0
sg29
F0.7333504045363748
sg15
I01
sbsg14
I1
sg30
(imyEvolve
Tree
p150
(dp151
g14
I0
sg15
I00
sbsg16
I00
sg17
g43
sbsg14
I2
sg16
I01
sg17
g19
sba(imyEvolve
Tree
p152
(dp153
g7
(imyEvolve
Tree
p154
(dp155
g7
(imyEvolve
Tree
p156
(dp157
g7
(imyEvolve
Tree
p158
(dp159
g22
(imyEvolve
Tree
p160
(dp161
g7
(imyEvolve
Tree
p162
(dp163
g14
I0
sg29
F-1.5266529772187711
sg15
I01
sbsg14
I1
sg16
I01
sg17
g18
sbsg14
I2
sg30
(imyEvolve
Tree
p164
(dp165
g22
(imyEvolve
Tree
p166
(dp167
g14
I0
sg29
F2.490962801265403
sg15
I01
sbsg14
I1
sg30
(imyEvolve
Tree
p168
(dp169
g14
I0
sg15
I00
sbsg16
I00
sg17
g33
sbsg16
I00
sg17
g49
sbsg14
I3
sg16
I01
sg17
g48
sbsg14
I4
sg16
I01
sg17
g19
sbsg14
I5
sg16
I01
sg17
g19
sba(imyEvolve
Tree
p170
(dp171
g7
(imyEvolve
Tree
p172
(dp173
g7
(imyEvolve
Tree
p174
(dp175
g22
(imyEvolve
Tree
p176
(dp177
g14
I0
sg15
I00
sbsg14
I1
sg30
(imyEvolve
Tree
p178
(dp179
g14
I0
sg29
F0.12237748139200111
sg15
I01
sbsg16
I00
sg17
g43
sbsg14
I2
sg16
I01
sg17
g48
sbsg14
I3
sg16
I01
sg17
g19
sba(imyEvolve
Tree
p180
(dp181
g22
(imyEvolve
Tree
p182
(dp183
g22
(imyEvolve
Tree
p184
(dp185
g22
(imyEvolve
Tree
p186
(dp187
g22
(imyEvolve
Tree
p188
(dp189
g7
(imyEvolve
Tree
p190
(dp191
g14
I0
sg15
I00
sbsg14
I1
sg16
I01
sg17
g19
sbsg14
I2
sg30
(imyEvolve
Tree
p192
(dp193
g22
(imyEvolve
Tree
p194
(dp195
g14
I0
sg29
F3.24573270997651
sg15
I01
sbsg14
I1
sg30
(imyEvolve
Tree
p196
(dp197
g14
I0
sg15
I00
sbsg16
I00
sg17
g43
sbsg16
I00
sg17
g43
sbsg14
I3
sg30
(imyEvolve
Tree
p198
(dp199
g7
(imyEvolve
Tree
p200
(dp201
g7
(imyEvolve
Tree
p202
(dp203
g14
I0
sg15
I00
sbsg14
I1
sg16
I01
sg17
g19
sbsg14
I2
sg16
I01
sg17
g18
sbsg16
I00
sg17
g43
sbsg14
I4
sg30
(imyEvolve
Tree
p204
(dp205
g7
(imyEvolve
Tree
p206
(dp207
g7
(imyEvolve
Tree
p208
(dp209
g22
(imyEvolve
Tree
p210
(dp211
g14
I0
sg15
I00
sbsg14
I1
sg30
(imyEvolve
Tree
p212
(dp213
g14
I0
sg15
I00
sbsg16
I00
sg17
g43
sbsg14
I2
sg16
I01
sg17
g18
sbsg14
I3
sg16
I01
sg17
g34
sbsg16
I00
sg17
g49
sbsg14
I5
sg30
(imyEvolve
Tree
p214
(dp215
g22
(imyEvolve
Tree
p216
(dp217
g22
(imyEvolve
Tree
p218
(dp219
g7
(imyEvolve
Tree
p220
(dp221
g7
(imyEvolve
Tree
p222
(dp223
g14
I0
sg15
I00
sbsg14
I1
sg16
I01
sg17
g34
sbsg14
I2
sg16
I01
sg17
g34
sbsg14
I3
sg30
(imyEvolve
Tree
p224
(dp225
g22
(imyEvolve
Tree
p226
(dp227
g7
(imyEvolve
Tree
p228
(dp229
g14
I0
sg15
I00
sbsg14
I1
sg16
I01
sg17
g34
sbsg14
I2
sg30
(imyEvolve
Tree
p230
(dp231
g22
(imyEvolve
Tree
p232
(dp233
g14
I0
sg29
F-4.3509255633618515
sg15
I01
sbsg14
I1
sg30
(imyEvolve
Tree
p234
(dp235
g14
I0
sg29
F1.2824754600024848
sg15
I01
sbsg16
I00
sg17
g33
sbsg16
I00
sg17
g43
sbsg16
I00
sg17
g43
sbsg14
I4
sg30
(imyEvolve
Tree
p236
(dp237
g22
(imyEvolve
Tree
p238
(dp239
g7
(imyEvolve
Tree
p240
(dp241
g7
(imyEvolve
Tree
p242
(dp243
g14
I0
sg29
F-4.185139649671111
sg15
I01
sbsg14
I1
sg16
I01
sg17
g19
sbsg14
I2
sg16
I01
sg17
g18
sbsg14
I3
sg30
(imyEvolve
Tree
p244
(dp245
g7
(imyEvolve
Tree
p246
(dp247
g22
(imyEvolve
Tree
p248
(dp249
g14
I0
sg15
I00
sbsg14
I1
sg30
(imyEvolve
Tree
p250
(dp251
g14
I0
sg15
I00
sbsg16
I00
sg17
g33
sbsg14
I2
sg16
I01
sg17
g34
sbsg16
I00
sg17
g43
sbsg16
I00
sg17
g43
sbsg16
I00
sg17
g43
sba(imyEvolve
Tree
p252
(dp253
g7
(imyEvolve
Tree
p254
(dp255
g14
I3
sg22
(imyEvolve
Tree
p256
(dp257
g7
(imyEvolve
Tree
p258
(dp259
g7
(imyEvolve
Tree
p260
(dp261
g14
I0
sg15
I00
sbsg14
I1
sg16
I01
sg17
g34
sbsg14
I2
sg16
I01
sg17
g18
sbsg30
(imyEvolve
Tree
p262
(dp263
g14
I2
sg22
(imyEvolve
Tree
p264
(dp265
g7
(imyEvolve
Tree
p266
(dp267
g14
I0
sg15
I00
sbsg14
I1
sg16
I01
sg17
g19
sbsg30
(imyEvolve
Tree
p268
(dp269
g14
I1
sg22
(imyEvolve
Tree
p270
(dp271
g14
I0
sg29
F-3.8721342508977585
sg15
I01
sbsg30
(imyEvolve
Tree
p272
(dp273
g14
I0
sg15
I00
sbsg16
I00
sg17
g43
sbsg16
I00
sg17
g43
sbsg16
I00
sg17
g43
sbsg14
I4
sg16
I01
sg17
g18
sba(imyEvolve
Tree
p274
(dp275
g22
(imyEvolve
Tree
p276
(dp277
g22
(imyEvolve
Tree
p278
(dp279
g14
I0
sg29
F-1.2994539351659098
sg15
I01
sbsg14
I1
sg30
(imyEvolve
Tree
p280
(dp281
g14
I0
sg29
F-2.5765781421361975
sg15
I01
sbsg16
I00
sg17
g43
sbsg14
I2
sg30
(imyEvolve
Tree
p282
(dp283
g7
(imyEvolve
Tree
p284
(dp285
g14
I0
sg15
I00
sbsg14
I1
sg16
I01
sg17
g18
sbsg16
I00
sg17
g33
sba(imyEvolve
Tree
p286
(dp287
g14
I2
sg22
(imyEvolve
Tree
p288
(dp289
g14
I1
sg22
(imyEvolve
Tree
p290
(dp291
g14
I0
sg29
F-0.32848836683758353
sg15
I01
sbsg30
(imyEvolve
Tree
p292
(dp293
g14
I0
sg15
I00
sbsg16
I00
sg17
g43
sbsg30
(imyEvolve
Tree
p294
(dp295
g7
(imyEvolve
Tree
p296
(dp297
g14
I0
sg15
I00
sbsg14
I1
sg16
I01
sg17
g19
sbsg16
I00
sg17
g49
sba(imyEvolve
Tree
p298
(dp299
g7
(imyEvolve
Tree
p300
(dp301
g7
(imyEvolve
Tree
p302
(dp303
g22
(imyEvolve
Tree
p304
(dp305
g7
(imyEvolve
Tree
p306
(dp307
g7
(imyEvolve
Tree
p308
(dp309
g14
I0
sg15
I00
sbsg14
I1
sg16
I01
sg17
g48
sbsg14
I2
sg16
I01
sg17
g34
sbsg14
I3
sg30
(imyEvolve
Tree
p310
(dp311
g22
(imyEvolve
Tree
p312
(dp313
g7
(imyEvolve
Tree
p314
(dp315
g14
I0
sg29
F-4.496614673175651
sg15
I01
sbsg14
I1
sg16
I01
sg17
g19
sbsg14
I2
sg30
(imyEvolve
Tree
p316
(dp317
g7
(imyEvolve
Tree
p318
(dp319
g14
I0
sg15
I00
sbsg14
I1
sg16
I01
sg17
g19
sbsg16
I00
sg17
g33
sbsg16
I00
sg17
g49
sbsg14
I4
sg16
I01
sg17
g48
sbsg14
I5
sg16
I01
sg17
g19
sba(imyEvolve
Tree
p320
(dp321
g22
(imyEvolve
Tree
p322
(dp323
g22
(imyEvolve
Tree
p324
(dp325
g7
(imyEvolve
Tree
p326
(dp327
g22
(imyEvolve
Tree
p328
(dp329
g7
(imyEvolve
Tree
p330
(dp331
g14
I0
sg15
I00
sbsg14
I1
sg16
I01
sg17
g18
sbsg14
I2
sg30
(imyEvolve
Tree
p332
(dp333
g22
(imyEvolve
Tree
p334
(dp335
g14
I0
sg29
F-0.32993897016716645
sg15
I01
sbsg14
I1
sg30
(imyEvolve
Tree
p336
(dp337
g14
I0
sg29
F-2.76741041531153
sg15
I01
sbsg16
I00
sg17
g49
sbsg16
I00
sg17
g49
sbsg14
I3
sg16
I01
sg17
g18
sbsg14
I4
sg30
(imyEvolve
Tree
p338
(dp339
g22
(imyEvolve
Tree
p340
(dp341
g7
(imyEvolve
Tree
p342
(dp343
g7
(imyEvolve
Tree
p344
(dp345
g14
I0
sg15
I00
sbsg14
I1
sg16
I01
sg17
g19
sbsg14
I2
sg16
I01
sg17
g19
sbsg14
I3
sg30
(imyEvolve
Tree
p346
(dp347
g7
(imyEvolve
Tree
p348
(dp349
g7
(imyEvolve
Tree
p350
(dp351
g14
I0
sg29
F0.6165397513670925
sg15
I01
sbsg14
I1
sg16
I01
sg17
g48
sbsg14
I2
sg16
I01
sg17
g19
sbsg16
I00
sg17
g49
sbsg16
I00
sg17
g43
sbsg14
I5
sg30
(imyEvolve
Tree
p352
(dp353
g22
(imyEvolve
Tree
p354
(dp355
g7
(imyEvolve
Tree
p356
(dp357
g22
(imyEvolve
Tree
p358
(dp359
g22
(imyEvolve
Tree
p360
(dp361
g14
I0
sg29
F1.1722639674977833
sg15
I01
sbsg14
I1
sg30
(imyEvolve
Tree
p362
(dp363
g14
I0
sg15
I00
sbsg16
I00
sg17
g33
sbsg14
I2
sg30
(imyEvolve
Tree
p364
(dp365
g22
(imyEvolve
Tree
p366
(dp367
g14
I0
sg29
F-2.5237432323124565
sg15
I01
sbsg14
I1
sg30
(imyEvolve
Tree
p368
(dp369
g14
I0
sg29
F-0.9374002308326759
sg15
I01
sbsg16
I00
sg17
g43
sbsg16
I00
sg17
g49
sbsg14
I3
sg16
I01
sg17
g34
sbsg14
I4
sg30
(imyEvolve
Tree
p370
(dp371
g7
(imyEvolve
Tree
p372
(dp373
g22
(imyEvolve
Tree
p374
(dp375
g7
(imyEvolve
Tree
p376
(dp377
g14
I0
sg29
F-3.9657103343705313
sg15
I01
sbsg14
I1
sg16
I01
sg17
g48
sbsg14
I2
sg30
(imyEvolve
Tree
p378
(dp379
g22
(imyEvolve
Tree
p380
(dp381
g14
I0
sg29
F-4.129501668406897
sg15
I01
sbsg14
I1
sg30
(imyEvolve
Tree
p382
(dp383
g14
I0
sg15
I00
sbsg16
I00
sg17
g33
sbsg16
I00
sg17
g43
sbsg14
I3
sg16
I01
sg17
g34
sbsg16
I00
sg17
g33
sbsg16
I00
sg17
g33
sba(imyEvolve
Tree
p384
(dp385
g7
(imyEvolve
Tree
p386
(dp387
g14
I3
sg22
(imyEvolve
Tree
p388
(dp389
g7
(imyEvolve
Tree
p390
(dp391
g7
(imyEvolve
Tree
p392
(dp393
g14
I0
sg29
F-4.993445419263848
sg15
I01
sbsg14
I1
sg16
I01
sg17
g18
sbsg14
I2
sg16
I01
sg17
g18
sbsg30
(imyEvolve
Tree
p394
(dp395
g7
(imyEvolve
Tree
p396
(dp397
g14
I1
sg22
(imyEvolve
Tree
p398
(dp399
g14
I0
sg29
F-2.7567590661377386
sg15
I01
sbsg30
(imyEvolve
Tree
p400
(dp401
g14
I0
sg15
I00
sbsg16
I00
sg17
g33
sbsg14
I2
sg16
I01
sg17
g48
sbsg16
I00
sg17
g49
sbsg14
I4
sg16
I01
sg17
g48
sba(imyEvolve
Tree
p402
(dp403
g7
(imyEvolve
Tree
p404
(dp405
g14
I3
sg22
(imyEvolve
Tree
p406
(dp407
g7
(imyEvolve
Tree
p408
(dp409
g14
I1
sg22
(imyEvolve
Tree
p410
(dp411
g14
I0
sg29
F-1.3772816080465313
sg15
I01
sbsg30
(imyEvolve
Tree
p412
(dp413
g14
I0
sg29
F2.9627709770914166
sg15
I01
sbsg16
I00
sg17
g49
sbsg14
I2
sg16
I01
sg17
g18
sbsg30
(imyEvolve
Tree
p414
(dp415
g7
(imyEvolve
Tree
p416
(dp417
g14
I1
sg22
(imyEvolve
Tree
p418
(dp419
g14
I0
sg15
I00
sbsg30
(imyEvolve
Tree
p420
(dp421
g14
I0
sg29
F-2.245528751853713
sg15
I01
sbsg16
I00
sg17
g43
sbsg14
I2
sg16
I01
sg17
g34
sbsg16
I00
sg17
g49
sbsg14
I4
sg16
I01
sg17
g48
sba(imyEvolve
Tree
p422
(dp423
g22
(imyEvolve
Tree
p424
(dp425
g22
(imyEvolve
Tree
p426
(dp427
g7
(imyEvolve
Tree
p428
(dp429
g14
I0
sg15
I00
sbsg14
I1
sg16
I01
sg17
g48
sbsg14
I2
sg30
(imyEvolve
Tree
p430
(dp431
g22
(imyEvolve
Tree
p432
(dp433
g14
I0
sg29
F4.1338905392528975
sg15
I01
sbsg14
I1
sg30
(imyEvolve
Tree
p434
(dp435
g14
I0
sg29
F-3.429864847490137
sg15
I01
sbsg16
I00
sg17
g49
sbsg16
I00
sg17
g33
sbsg14
I3
sg30
(imyEvolve
Tree
p436
(dp437
g22
(imyEvolve
Tree
p438
(dp439
g7
(imyEvolve
Tree
p440
(dp441
g14
I0
sg15
I00
sbsg14
I1
sg16
I01
sg17
g34
sbsg14
I2
sg30
(imyEvolve
Tree
p442
(dp443
g22
(imyEvolve
Tree
p444
(dp445
g14
I0
sg15
I00
sbsg14
I1
sg30
(imyEvolve
Tree
p446
(dp447
g14
I0
sg15
I00
sbsg16
I00
sg17
g33
sbsg16
I00
sg17
g33
sbsg16
I00
sg17
g43
sba(imyEvolve
Tree
p448
(dp449
g7
(imyEvolve
Tree
p450
(dp451
g7
(imyEvolve
Tree
p452
(dp453
g14
I3
sg22
(imyEvolve
Tree
p454
(dp455
g7
(imyEvolve
Tree
p456
(dp457
g7
(imyEvolve
Tree
p458
(dp459
g14
I0
sg15
I00
sbsg14
I1
sg16
I01
sg17
g19
sbsg14
I2
sg16
I01
sg17
g19
sbsg30
(imyEvolve
Tree
p460
(dp461
g14
I2
sg22
(imyEvolve
Tree
p462
(dp463
g7
(imyEvolve
Tree
p464
(dp465
g14
I0
sg15
I00
sbsg14
I1
sg16
I01
sg17
g18
sbsg30
(imyEvolve
Tree
p466
(dp467
g14
I1
sg22
(imyEvolve
Tree
p468
(dp469
g14
I0
sg29
F4.401046056566525
sg15
I01
sbsg30
(imyEvolve
Tree
p470
(dp471
g14
I0
sg29
F-2.012127054707719
sg15
I01
sbsg16
I00
sg17
g43
sbsg16
I00
sg17
g43
sbsg16
I00
sg17
g33
sbsg14
I4
sg16
I01
sg17
g18
sbsg14
I5
sg16
I01
sg17
g19
sbaa(lp472
(imyEvolve
Tree
p473
(dp474
g22
(imyEvolve
Tree
p475
(dp476
g7
(imyEvolve
Tree
p477
(dp478
g7
(imyEvolve
Tree
p479
(dp480
g7
(imyEvolve
Tree
p481
(dp482
g22
(imyEvolve
Tree
p483
(dp484
g14
I0
sg15
I00
sbsg14
I1
sg30
(imyEvolve
Tree
p485
(dp486
g14
I0
sg29
F1.5111061961564856
sg15
I01
sbsg16
I00
sg17
g49
sbsg14
I2
sg16
I01
sg17
g18
sbsg14
I3
sg16
I01
sg17
g48
sbsg14
I4
sg16
I01
sg17
g34
sbsg14
I5
sg30
(imyEvolve
Tree
p487
(dp488
g7
(imyEvolve
Tree
p489
(dp490
g7
(imyEvolve
Tree
p491
(dp492
g7
(imyEvolve
Tree
p493
(dp494
g7
(imyEvolve
Tree
p495
(dp496
g14
I0
sg29
F3.3487763688746313
sg15
I01
sbsg14
I1
sg16
I01
sg17
g48
sbsg14
I2
sg16
I01
sg17
g48
sbsg14
I3
sg16
I01
sg17
g48
sbsg14
I4
sg16
I01
sg17
g18
sbsg16
I00
sg17
g43
sba(imyEvolve
Tree
p497
(dp498
g22
(imyEvolve
Tree
p499
(dp500
g7
(imyEvolve
Tree
p501
(dp502
g14
I0
sg29
F3.6303689249808784
sg15
I01
sbsg14
I1
sg16
I01
sg17
g19
sbsg14
I2
sg30
(imyEvolve
Tree
p503
(dp504
g7
(imyEvolve
Tree
p505
(dp506
g14
I0
sg15
I00
sbsg14
I1
sg16
I01
sg17
g19
sbsg16
I00
sg17
g33
sba(imyEvolve
Tree
p507
(dp508
g22
(imyEvolve
Tree
p509
(dp510
g7
(imyEvolve
Tree
p511
(dp512
g7
(imyEvolve
Tree
p513
(dp514
g14
I0
sg15
I00
sbsg14
I1
sg16
I01
sg17
g19
sbsg14
I2
sg16
I01
sg17
g19
sbsg14
I3
sg30
(imyEvolve
Tree
p515
(dp516
g22
(imyEvolve
Tree
p517
(dp518
g22
(imyEvolve
Tree
p519
(dp520
g14
I0
sg29
F-3.2349969979401108
sg15
I01
sbsg14
I1
sg30
(imyEvolve
Tree
p521
(dp522
g14
I0
sg15
I00
sbsg16
I00
sg17
g33
sbsg14
I2
sg30
(imyEvolve
Tree
p523
(dp524
g22
(imyEvolve
Tree
p525
(dp526
g14
I0
sg29
F3.450323439949136
sg15
I01
sbsg14
I1
sg30
(imyEvolve
Tree
p527
(dp528
g14
I0
sg15
I00
sbsg16
I00
sg17
g49
sbsg16
I00
sg17
g49
sbsg16
I00
sg17
g49
sba(imyEvolve
Tree
p529
(dp530
g7
(imyEvolve
Tree
p531
(dp532
g22
(imyEvolve
Tree
p533
(dp534
g14
I0
sg29
F-0.06766433553183848
sg15
I01
sbsg14
I1
sg30
(imyEvolve
Tree
p535
(dp536
g14
I0
sg15
I00
sbsg16
I00
sg17
g33
sbsg14
I2
sg16
I01
sg17
g34
sba(imyEvolve
Tree
p537
(dp538
g7
(imyEvolve
Tree
p539
(dp540
g7
(imyEvolve
Tree
p541
(dp542
g22
(imyEvolve
Tree
p543
(dp544
g7
(imyEvolve
Tree
p545
(dp546
g14
I0
sg29
F1.079034952624581
sg15
I01
sbsg14
I1
sg16
I01
sg17
g19
sbsg14
I2
sg30
(imyEvolve
Tree
p547
(dp548
g7
(imyEvolve
Tree
p549
(dp550
g14
I0
sg15
I00
sbsg14
I1
sg16
I01
sg17
g48
sbsg16
I00
sg17
g43
sbsg14
I3
sg16
I01
sg17
g19
sbsg14
I4
sg16
I01
sg17
g18
sba(imyEvolve
Tree
p551
(dp552
g7
(imyEvolve
Tree
p553
(dp554
g22
(imyEvolve
Tree
p555
(dp556
g22
(imyEvolve
Tree
p557
(dp558
g14
I0
sg29
F-0.1894346779309375
sg15
I01
sbsg14
I1
sg30
(imyEvolve
Tree
p559
(dp560
g14
I0
sg29
F-1.372944929387189
sg15
I01
sbsg16
I00
sg17
g49
sbsg14
I2
sg30
(imyEvolve
Tree
p561
(dp562
g7
(imyEvolve
Tree
p563
(dp564
g14
I0
sg29
F-4.510334855593234
sg15
I01
sbsg14
I1
sg16
I01
sg17
g48
sbsg16
I00
sg17
g33
sbsg14
I3
sg16
I01
sg17
g19
sba(imyEvolve
Tree
p565
(dp566
g22
(imyEvolve
Tree
p567
(dp568
g7
(imyEvolve
Tree
p569
(dp570
g14
I0
sg29
F1.7198692565316556
sg15
I01
sbsg14
I1
sg16
I01
sg17
g48
sbsg14
I2
sg30
(imyEvolve
Tree
p571
(dp572
g7
(imyEvolve
Tree
p573
(dp574
g14
I0
sg29
F2.8804175337243523
sg15
I01
sbsg14
I1
sg16
I01
sg17
g19
sbsg16
I00
sg17
g49
sba(imyEvolve
Tree
p575
(dp576
g7
(imyEvolve
Tree
p577
(dp578
g22
(imyEvolve
Tree
p579
(dp580
g14
I0
sg29
F-0.26615797079395875
sg15
I01
sbsg14
I1
sg30
(imyEvolve
Tree
p581
(dp582
g14
I0
sg15
I00
sbsg16
I00
sg17
g33
sbsg14
I2
sg16
I01
sg17
g18
sba(imyEvolve
Tree
p583
(dp584
g7
(imyEvolve
Tree
p585
(dp586
g22
(imyEvolve
Tree
p587
(dp588
g22
(imyEvolve
Tree
p589
(dp590
g7
(imyEvolve
Tree
p591
(dp592
g14
I0
sg15
I00
sbsg14
I1
sg16
I01
sg17
g18
sbsg14
I2
sg30
(imyEvolve
Tree
p593
(dp594
g22
(imyEvolve
Tree
p595
(dp596
g14
I0
sg15
I00
sbsg14
I1
sg30
(imyEvolve
Tree
p597
(dp598
g14
I0
sg15
I00
sbsg16
I00
sg17
g43
sbsg16
I00
sg17
g33
sbsg14
I3
sg30
(imyEvolve
Tree
p599
(dp600
g7
(imyEvolve
Tree
p601
(dp602
g7
(imyEvolve
Tree
p603
(dp604
g14
I0
sg15
I00
sbsg14
I1
sg16
I01
sg17
g48
sbsg14
I2
sg16
I01
sg17
g18
sbsg16
I00
sg17
g33
sbsg14
I4
sg16
I01
sg17
g19
sba(imyEvolve
Tree
p605
(dp606
g14
I4
sg22
(imyEvolve
Tree
p607
(dp608
g7
(imyEvolve
Tree
p609
(dp610
g14
I2
sg22
(imyEvolve
Tree
p611
(dp612
g7
(imyEvolve
Tree
p613
(dp614
g14
I0
sg29
F4.847729483102132
sg15
I01
sbsg14
I1
sg16
I01
sg17
g19
sbsg30
(imyEvolve
Tree
p615
(dp616
g14
I1
sg22
(imyEvolve
Tree
p617
(dp618
g14
I0
sg15
I00
sbsg30
(imyEvolve
Tree
p619
(dp620
g14
I0
sg29
F-4.149965218553438
sg15
I01
sbsg16
I00
sg17
g43
sbsg16
I00
sg17
g49
sbsg14
I3
sg16
I01
sg17
g19
sbsg30
(imyEvolve
Tree
p621
(dp622
g14
I3
sg22
(imyEvolve
Tree
p623
(dp624
g7
(imyEvolve
Tree
p625
(dp626
g14
I1
sg22
(imyEvolve
Tree
p627
(dp628
g14
I0
sg29
F0.6340707146272662
sg15
I01
sbsg30
(imyEvolve
Tree
p629
(dp630
g14
I0
sg15
I00
sbsg16
I00
sg17
g43
sbsg14
I2
sg16
I01
sg17
g18
sbsg30
(imyEvolve
Tree
p631
(dp632
g7
(imyEvolve
Tree
p633
(dp634
g14
I1
sg22
(imyEvolve
Tree
p635
(dp636
g14
I0
sg29
F-0.1086889020379953
sg15
I01
sbsg30
(imyEvolve
Tree
p637
(dp638
g14
I0
sg15
I00
sbsg16
I00
sg17
g33
sbsg14
I2
sg16
I01
sg17
g19
sbsg16
I00
sg17
g43
sbsg16
I00
sg17
g43
sba(imyEvolve
Tree
p639
(dp640
g7
(imyEvolve
Tree
p641
(dp642
g7
(imyEvolve
Tree
p643
(dp644
g22
(imyEvolve
Tree
p645
(dp646
g14
I0
sg29
F1.5540374423131
sg15
I01
sbsg14
I1
sg30
(imyEvolve
Tree
p647
(dp648
g14
I0
sg29
F-1.6027916877869708
sg15
I01
sbsg16
I00
sg17
g43
sbsg14
I2
sg16
I01
sg17
g48
sbsg14
I3
sg16
I01
sg17
g18
sba(imyEvolve
Tree
p649
(dp650
g22
(imyEvolve
Tree
p651
(dp652
g22
(imyEvolve
Tree
p653
(dp654
g7
(imyEvolve
Tree
p655
(dp656
g22
(imyEvolve
Tree
p657
(dp658
g22
(imyEvolve
Tree
p659
(dp660
g14
I0
sg29
F-0.9314163753962585
sg15
I01
sbsg14
I1
sg30
(imyEvolve
Tree
p661
(dp662
g14
I0
sg15
I00
sbsg16
I00
sg17
g43
sbsg14
I2
sg30
(imyEvolve
Tree
p663
(dp664
g22
(imyEvolve
Tree
p665
(dp666
g14
I0
sg15
I00
sbsg14
I1
sg30
(imyEvolve
Tree
p667
(dp668
g14
I0
sg15
I00
sbsg16
I00
sg17
g49
sbsg16
I00
sg17
g43
sbsg14
I3
sg16
I01
sg17
g34
sbsg14
I4
sg30
(imyEvolve
Tree
p669
(dp670
g22
(imyEvolve
Tree
p671
(dp672
g22
(imyEvolve
Tree
p673
(dp674
g7
(imyEvolve
Tree
p675
(dp676
g14
I0
sg15
I00
sbsg14
I1
sg16
I01
sg17
g48
sbsg14
I2
sg30
(imyEvolve
Tree
p677
(dp678
g7
(imyEvolve
Tree
p679
(dp680
g14
I0
sg15
I00
sbsg14
I1
sg16
I01
sg17
g48
sbsg16
I00
sg17
g43
sbsg14
I3
sg30
(imyEvolve
Tree
p681
(dp682
g7
(imyEvolve
Tree
p683
(dp684
g7
(imyEvolve
Tree
p685
(dp686
g14
I0
sg29
F4.468926905194827
sg15
I01
sbsg14
I1
sg16
I01
sg17
g18
sbsg14
I2
sg16
I01
sg17
g34
sbsg16
I00
sg17
g49
sbsg16
I00
sg17
g43
sbsg14
I5
sg30
(imyEvolve
Tree
p687
(dp688
g7
(imyEvolve
Tree
p689
(dp690
g22
(imyEvolve
Tree
p691
(dp692
g7
(imyEvolve
Tree
p693
(dp694
g7
(imyEvolve
Tree
p695
(dp696
g14
I0
sg15
I00
sbsg14
I1
sg16
I01
sg17
g19
sbsg14
I2
sg16
I01
sg17
g18
sbsg14
I3
sg30
(imyEvolve
Tree
p697
(dp698
g7
(imyEvolve
Tree
p699
(dp700
g7
(imyEvolve
Tree
p701
(dp702
g14
I0
sg15
I00
sbsg14
I1
sg16
I01
sg17
g48
sbsg14
I2
sg16
I01
sg17
g48
sbsg16
I00
sg17
g43
sbsg14
I4
sg16
I01
sg17
g48
sbsg16
I00
sg17
g33
sba(imyEvolve
Tree
p703
(dp704
g7
(imyEvolve
Tree
p705
(dp706
g14
I2
sg22
(imyEvolve
Tree
p707
(dp708
g14
I1
sg22
(imyEvolve
Tree
p709
(dp710
g14
I0
sg15
I00
sbsg30
(imyEvolve
Tree
p711
(dp712
g14
I0
sg15
I00
sbsg16
I00
sg17
g33
sbsg30
(imyEvolve
Tree
p713
(dp714
g14
I1
sg22
(imyEvolve
Tree
p715
(dp716
g14
I0
sg15
I00
sbsg30
(imyEvolve
Tree
p717
(dp718
g14
I0
sg15
I00
sbsg16
I00
sg17
g43
sbsg16
I00
sg17
g33
sbsg14
I3
sg16
I01
sg17
g19
sba(imyEvolve
Tree
p719
(dp720
g7
(imyEvolve
Tree
p721
(dp722
g22
(imyEvolve
Tree
p723
(dp724
g7
(imyEvolve
Tree
p725
(dp726
g14
I0
sg15
I00
sbsg14
I1
sg16
I01
sg17
g34
sbsg14
I2
sg30
(imyEvolve
Tree
p727
(dp728
g22
(imyEvolve
Tree
p729
(dp730
g14
I0
sg15
I00
sbsg14
I1
sg30
(imyEvolve
Tree
p731
(dp732
g14
I0
sg29
F-3.74351143126301
sg15
I01
sbsg16
I00
sg17
g43
sbsg16
I00
sg17
g43
sbsg14
I3
sg16
I01
sg17
g19
sba(imyEvolve
Tree
p733
(dp734
g7
(imyEvolve
Tree
p735
(dp736
g7
(imyEvolve
Tree
p737
(dp738
g22
(imyEvolve
Tree
p739
(dp740
g14
I0
sg29
F-0.3723743554197121
sg15
I01
sbsg14
I1
sg30
(imyEvolve
Tree
p741
(dp742
g14
I0
sg29
F-3.974977288558379
sg15
I01
sbsg16
I00
sg17
g43
sbsg14
I2
sg16
I01
sg17
g48
sbsg14
I3
sg16
I01
sg17
g34
sba(imyEvolve
Tree
p743
(dp744
g7
(imyEvolve
Tree
p745
(dp746
g7
(imyEvolve
Tree
p747
(dp748
g14
I0
sg15
I00
sbsg14
I1
sg16
I01
sg17
g34
sbsg14
I2
sg16
I01
sg17
g48
sbaa(lp749
(imyEvolve
Tree
p750
(dp751
g7
(imyEvolve
Tree
p752
(dp753
g7
(imyEvolve
Tree
p754
(dp755
g14
I2
sg22
(imyEvolve
Tree
p756
(dp757
g7
(imyEvolve
Tree
p758
(dp759
g14
I0
sg29
F1.7547270444618306
sg15
I01
sbsg14
I1
sg16
I01
sg17
g19
sbsg30
(imyEvolve
Tree
p760
(dp761
g14
I1
sg22
(imyEvolve
Tree
p762
(dp763
g14
I0
sg15
I00
sbsg30
(imyEvolve
Tree
p764
(dp765
g14
I0
sg29
F1.8879925252824723
sg15
I01
sbsg16
I00
sg17
g43
sbsg16
I00
sg17
g43
sbsg14
I3
sg16
I01
sg17
g19
sbsg14
I4
sg16
I01
sg17
g48
sba(imyEvolve
Tree
p766
(dp767
g14
I2
sg22
(imyEvolve
Tree
p768
(dp769
g14
I1
sg22
(imyEvolve
Tree
p770
(dp771
g14
I0
sg15
I00
sbsg30
(imyEvolve
Tree
p772
(dp773
g14
I0
sg15
I00
sbsg16
I00
sg17
g49
sbsg30
(imyEvolve
Tree
p774
(dp775
g7
(imyEvolve
Tree
p776
(dp777
g14
I0
sg29
F-4.206523476651343
sg15
I01
sbsg14
I1
sg16
I01
sg17
g19
sbsg16
I00
sg17
g49
sba(imyEvolve
Tree
p778
(dp779
g7
(imyEvolve
Tree
p780
(dp781
g14
I2
sg22
(imyEvolve
Tree
p782
(dp783
g7
(imyEvolve
Tree
p784
(dp785
g14
I0
sg29
F-3.756591913551066
sg15
I01
sbsg14
I1
sg16
I01
sg17
g18
sbsg30
(imyEvolve
Tree
p786
(dp787
g7
(imyEvolve
Tree
p788
(dp789
g14
I0
sg29
F3.1773482137583713
sg15
I01
sbsg14
I1
sg16
I01
sg17
g34
sbsg16
I00
sg17
g43
sbsg14
I3
sg16
I01
sg17
g19
sba(imyEvolve
Tree
p790
(dp791
g7
(imyEvolve
Tree
p792
(dp793
g14
I4
sg22
(imyEvolve
Tree
p794
(dp795
g7
(imyEvolve
Tree
p796
(dp797
g14
I2
sg22
(imyEvolve
Tree
p798
(dp799
g7
(imyEvolve
Tree
p800
(dp801
g14
I0
sg15
I00
sbsg14
I1
sg16
I01
sg17
g48
sbsg30
(imyEvolve
Tree
p802
(dp803
g14
I1
sg22
(imyEvolve
Tree
p804
(dp805
g14
I0
sg15
I00
sbsg30
(imyEvolve
Tree
p806
(dp807
g14
I0
sg29
F-2.0285863553664507
sg15
I01
sbsg16
I00
sg17
g43
sbsg16
I00
sg17
g49
sbsg14
I3
sg16
I01
sg17
g19
sbsg30
(imyEvolve
Tree
p808
(dp809
g7
(imyEvolve
Tree
p810
(dp811
g7
(imyEvolve
Tree
p812
(dp813
g14
I1
sg22
(imyEvolve
Tree
p814
(dp815
g14
I0
sg29
F1.5021856219100593
sg15
I01
sbsg30
(imyEvolve
Tree
p816
(dp817
g14
I0
sg29
F-3.75650168079276
sg15
I01
sbsg16
I00
sg17
g49
sbsg14
I2
sg16
I01
sg17
g48
sbsg14
I3
sg16
I01
sg17
g18
sbsg16
I00
sg17
g43
sbsg14
I5
sg16
I01
sg17
g48
sba(imyEvolve
Tree
p818
(dp819
g14
I3
sg22
(imyEvolve
Tree
p820
(dp821
g7
(imyEvolve
Tree
p822
(dp823
g7
(imyEvolve
Tree
p824
(dp825
g14
I0
sg29
F0.03308000889432883
sg15
I01
sbsg14
I1
sg16
I01
sg17
g34
sbsg14
I2
sg16
I01
sg17
g48
sbsg30
(imyEvolve
Tree
p826
(dp827
g14
I2
sg22
(imyEvolve
Tree
p828
(dp829
g14
I1
sg22
(imyEvolve
Tree
p830
(dp831
g14
I0
sg15
I00
sbsg30
(imyEvolve
Tree
p832
(dp833
g14
I0
sg29
F4.698546349755949
sg15
I01
sbsg16
I00
sg17
g49
sbsg30
(imyEvolve
Tree
p834
(dp835
g14
I1
sg22
(imyEvolve
Tree
p836
(dp837
g14
I0
sg15
I00
sbsg30
(imyEvolve
Tree
p838
(dp839
g14
I0
sg29
F4.992225021124035
sg15
I01
sbsg16
I00
sg17
g43
sbsg16
I00
sg17
g49
sbsg16
I00
sg17
g33
sba(imyEvolve
Tree
p840
(dp841
g14
I4
sg22
(imyEvolve
Tree
p842
(dp843
g7
(imyEvolve
Tree
p844
(dp845
g14
I2
sg22
(imyEvolve
Tree
p846
(dp847
g7
(imyEvolve
Tree
p848
(dp849
g14
I0
sg15
I00
sbsg14
I1
sg16
I01
sg17
g18
sbsg30
(imyEvolve
Tree
p850
(dp851
g7
(imyEvolve
Tree
p852
(dp853
g14
I0
sg29
F-2.2053044167842693
sg15
I01
sbsg14
I1
sg16
I01
sg17
g48
sbsg16
I00
sg17
g49
sbsg14
I3
sg16
I01
sg17
g48
sbsg30
(imyEvolve
Tree
p854
(dp855
g7
(imyEvolve
Tree
p856
(dp857
g7
(imyEvolve
Tree
p858
(dp859
g7
(imyEvolve
Tree
p860
(dp861
g14
I0
sg15
I00
sbsg14
I1
sg16
I01
sg17
g18
sbsg14
I2
sg16
I01
sg17
g19
sbsg14
I3
sg16
I01
sg17
g18
sbsg16
I00
sg17
g43
sba(imyEvolve
Tree
p862
(dp863
g14
I5
sg22
(imyEvolve
Tree
p864
(dp865
g7
(imyEvolve
Tree
p866
(dp867
g14
I3
sg22
(imyEvolve
Tree
p868
(dp869
g7
(imyEvolve
Tree
p870
(dp871
g14
I1
sg22
(imyEvolve
Tree
p872
(dp873
g14
I0
sg29
F-0.24678054982276176
sg15
I01
sbsg30
(imyEvolve
Tree
p874
(dp875
g14
I0
sg15
I00
sbsg16
I00
sg17
g43
sbsg14
I2
sg16
I01
sg17
g18
sbsg30
(imyEvolve
Tree
p876
(dp877
g7
(imyEvolve
Tree
p878
(dp879
g14
I1
sg22
(imyEvolve
Tree
p880
(dp881
g14
I0
sg15
I00
sbsg30
(imyEvolve
Tree
p882
(dp883
g14
I0
sg15
I00
sbsg16
I00
sg17
g33
sbsg14
I2
sg16
I01
sg17
g18
sbsg16
I00
sg17
g33
sbsg14
I4
sg16
I01
sg17
g19
sbsg30
(imyEvolve
Tree
p884
(dp885
g14
I4
sg22
(imyEvolve
Tree
p886
(dp887
g7
(imyEvolve
Tree
p888
(dp889
g7
(imyEvolve
Tree
p890
(dp891
g14
I1
sg22
(imyEvolve
Tree
p892
(dp893
g14
I0
sg15
I00
sbsg30
(imyEvolve
Tree
p894
(dp895
g14
I0
sg29
F1.1573771297982107
sg15
I01
sbsg16
I00
sg17
g33
sbsg14
I2
sg16
I01
sg17
g48
sbsg14
I3
sg16
I01
sg17
g48
sbsg30
(imyEvolve
Tree
p896
(dp897
g14
I3
sg22
(imyEvolve
Tree
p898
(dp899
g14
I2
sg22
(imyEvolve
Tree
p900
(dp901
g14
I1
sg22
(imyEvolve
Tree
p902
(dp903
g14
I0
sg29
F3.3491764232584043
sg15
I01
sbsg30
(imyEvolve
Tree
p904
(dp905
g14
I0
sg15
I00
sbsg16
I00
sg17
g43
sbsg30
(imyEvolve
Tree
p906
(dp907
g14
I1
sg22
(imyEvolve
Tree
p908
(dp909
g14
I0
sg15
I00
sbsg30
(imyEvolve
Tree
p910
(dp911
g14
I0
sg29
F4.270472775521583
sg15
I01
sbsg16
I00
sg17
g49
sbsg16
I00
sg17
g33
sbsg30
(imyEvolve
Tree
p912
(dp913
g7
(imyEvolve
Tree
p914
(dp915
g7
(imyEvolve
Tree
p916
(dp917
g14
I0
sg29
F-3.464030610109381
sg15
I01
sbsg14
I1
sg16
I01
sg17
g18
sbsg14
I2
sg16
I01
sg17
g18
sbsg16
I00
sg17
g43
sbsg16
I00
sg17
g49
sbsg16
I00
sg17
g49
sba(imyEvolve
Tree
p918
(dp919
g7
(imyEvolve
Tree
p920
(dp921
g14
I1
sg22
(imyEvolve
Tree
p922
(dp923
g14
I0
sg15
I00
sbsg30
(imyEvolve
Tree
p924
(dp925
g14
I0
sg29
F1.289285371696617
sg15
I01
sbsg16
I00
sg17
g49
sbsg14
I2
sg16
I01
sg17
g19
sbaasS'alpha'
p926
F0.0012068478921166473
sS'fitness'
p927
cnumpy.core.multiarray
scalar
p928
(cnumpy
dtype
p929
(S'f8'
p930
I0
I1
tp931
Rp932
(I3
S'<'
p933
NNNI-1
I-1
I0
tp934
bS'\xc7\xba\xb8\x1f\xfe\x1e\xe6?'
p935
tp936
Rp937
sS'weightSharing'
p938
(lp939
I01
asS'fitnessValid'
p940
I00
sS'resolution'
p941
I81
sb.