(imyEvolve
Individual
p0
(dp1
S'funcs'
p2
(lp3
(lp4
(imyEvolve
Tree
p5
(dp6
S'below'
p7
(imyEvolve
Tree
p8
(dp9
g7
(imyEvolve
Tree
p10
(dp11
g7
(imyEvolve
Tree
p12
(dp13
S'depth'
p14
I2
sS'left'
p15
(imyEvolve
Tree
p16
(dp17
g14
I1
sg15
(imyEvolve
Tree
p18
(dp19
g14
I0
sS'isConstant'
p20
I00
sbsS'right'
p21
(imyEvolve
Tree
p22
(dp23
g14
I0
sg20
I00
sbsS'single'
p24
I00
sS'op'
p25
coperator
sub
p26
sbsg21
(imyEvolve
Tree
p27
(dp28
g14
I1
sg15
(imyEvolve
Tree
p29
(dp30
g14
I0
sg20
I00
sbsg21
(imyEvolve
Tree
p31
(dp32
g14
I0
sS'constant'
p33
F1.049171162412728
sg20
I01
sbsg24
I00
sg25
g26
sbsg24
I00
sg25
coperator
add
p34
sbsg14
I3
sg24
I01
sg25
cmath
sin
p35
sbsg14
I4
sg24
I01
sg25
cmath
cos
p36
sbsg14
I5
sg24
I01
sg25
g36
sba(imyEvolve
Tree
p37
(dp38
g14
I2
sg15
(imyEvolve
Tree
p39
(dp40
g7
(imyEvolve
Tree
p41
(dp42
g14
I0
sg33
F3.979593634809401
sg20
I01
sbsg14
I1
sg24
I01
sg25
g35
sbsg21
(imyEvolve
Tree
p43
(dp44
g7
(imyEvolve
Tree
p45
(dp46
g14
I0
sg20
I00
sbsg14
I1
sg24
I01
sg25
g36
sbsg24
I00
sg25
coperator
mul
p47
sba(imyEvolve
Tree
p48
(dp49
g7
(imyEvolve
Tree
p50
(dp51
g7
(imyEvolve
Tree
p52
(dp53
g14
I2
sg15
(imyEvolve
Tree
p54
(dp55
g7
(imyEvolve
Tree
p56
(dp57
g14
I0
sg20
I00
sbsg14
I1
sg24
I01
sg25
g36
sbsg21
(imyEvolve
Tree
p58
(dp59
g7
(imyEvolve
Tree
p60
(dp61
g14
I0
sg33
F1.3114262012917521
sg20
I01
sbsg14
I1
sg24
I01
sg25
g36
sbsg24
I00
sg25
g26
sbsg14
I3
sg24
I01
sg25
g36
sbsg14
I4
sg24
I01
sg25
g36
sba(imyEvolve
Tree
p62
(dp63
g14
I2
sg15
(imyEvolve
Tree
p64
(dp65
g14
I1
sg15
(imyEvolve
Tree
p66
(dp67
g14
I0
sg20
I00
sbsg21
(imyEvolve
Tree
p68
(dp69
g14
I0
sg33
F-4.301882041284916
sg20
I01
sbsg24
I00
sg25
g34
sbsg21
(imyEvolve
Tree
p70
(dp71
g7
(imyEvolve
Tree
p72
(dp73
g14
I0
sg20
I00
sbsg14
I1
sg24
I01
sg25
g36
sbsg24
I00
sg25
g34
sba(imyEvolve
Tree
p74
(dp75
g7
(imyEvolve
Tree
p76
(dp77
g7
(imyEvolve
Tree
p78
(dp79
g14
I0
sg33
F2.2031196838302325
sg20
I01
sbsg14
I1
sg24
I01
sg25
g36
sbsg14
I2
sg24
I01
sg25
cmyEvolve
square
p80
sba(imyEvolve
Tree
p81
(dp82
g14
I3
sg15
(imyEvolve
Tree
p83
(dp84
g7
(imyEvolve
Tree
p85
(dp86
g14
I1
sg15
(imyEvolve
Tree
p87
(dp88
g14
I0
sg20
I00
sbsg21
(imyEvolve
Tree
p89
(dp90
g14
I0
sg20
I00
sbsg24
I00
sg25
g34
sbsg14
I2
sg24
I01
sg25
cmyEvolve
absSqrt
p91
sbsg21
(imyEvolve
Tree
p92
(dp93
g14
I2
sg15
(imyEvolve
Tree
p94
(dp95
g14
I1
sg15
(imyEvolve
Tree
p96
(dp97
g14
I0
sg20
I00
sbsg21
(imyEvolve
Tree
p98
(dp99
g14
I0
sg33
F-3.296371710097068
sg20
I01
sbsg24
I00
sg25
g34
sbsg21
(imyEvolve
Tree
p100
(dp101
g7
(imyEvolve
Tree
p102
(dp103
g14
I0
sg33
F0.6970142996709585
sg20
I01
sbsg14
I1
sg24
I01
sg25
g91
sbsg24
I00
sg25
g47
sbsg24
I00
sg25
g34
sba(imyEvolve
Tree
p104
(dp105
g14
I5
sg15
(imyEvolve
Tree
p106
(dp107
g7
(imyEvolve
Tree
p108
(dp109
g7
(imyEvolve
Tree
p110
(dp111
g14
I2
sg15
(imyEvolve
Tree
p112
(dp113
g7
(imyEvolve
Tree
p114
(dp115
g14
I0
sg20
I00
sbsg14
I1
sg24
I01
sg25
g35
sbsg21
(imyEvolve
Tree
p116
(dp117
g14
I1
sg15
(imyEvolve
Tree
p118
(dp119
g14
I0
sg33
F-2.8430964256684144
sg20
I01
sbsg21
(imyEvolve
Tree
p120
(dp121
g14
I0
sg20
I00
sbsg24
I00
sg25
g47
sbsg24
I00
sg25
g34
sbsg14
I3
sg24
I01
sg25
g36
sbsg14
I4
sg24
I01
sg25
g91
sbsg21
(imyEvolve
Tree
p122
(dp123
g14
I4
sg15
(imyEvolve
Tree
p124
(dp125
g7
(imyEvolve
Tree
p126
(dp127
g7
(imyEvolve
Tree
p128
(dp129
g7
(imyEvolve
Tree
p130
(dp131
g14
I0
sg33
F-0.8938137650291615
sg20
I01
sbsg14
I1
sg24
I01
sg25
g91
sbsg14
I2
sg24
I01
sg25
g91
sbsg14
I3
sg24
I01
sg25
g91
sbsg21
(imyEvolve
Tree
p132
(dp133
g7
(imyEvolve
Tree
p134
(dp135
g14
I2
sg15
(imyEvolve
Tree
p136
(dp137
g14
I1
sg15
(imyEvolve
Tree
p138
(dp139
g14
I0
sg20
I00
sbsg21
(imyEvolve
Tree
p140
(dp141
g14
I0
sg20
I00
sbsg24
I00
sg25
g26
sbsg21
(imyEvolve
Tree
p142
(dp143
g7
(imyEvolve
Tree
p144
(dp145
g14
I0
sg33
F3.669944926115024
sg20
I01
sbsg14
I1
sg24
I01
sg25
g35
sbsg24
I00
sg25
g47
sbsg14
I3
sg24
I01
sg25
g80
sbsg24
I00
sg25
g26
sbsg24
I00
sg25
g47
sba(imyEvolve
Tree
p146
(dp147
g14
I2
sg15
(imyEvolve
Tree
p148
(dp149
g7
(imyEvolve
Tree
p150
(dp151
g14
I0
sg20
I00
sbsg14
I1
sg24
I01
sg25
g80
sbsg21
(imyEvolve
Tree
p152
(dp153
g14
I1
sg15
(imyEvolve
Tree
p154
(dp155
g14
I0
sg33
F1.8216199994767281
sg20
I01
sbsg21
(imyEvolve
Tree
p156
(dp157
g14
I0
sg20
I00
sbsg24
I00
sg25
g34
sbsg24
I00
sg25
g47
sba(imyEvolve
Tree
p158
(dp159
g14
I4
sg15
(imyEvolve
Tree
p160
(dp161
g7
(imyEvolve
Tree
p162
(dp163
g7
(imyEvolve
Tree
p164
(dp165
g14
I1
sg15
(imyEvolve
Tree
p166
(dp167
g14
I0
sg33
F4.541663337922074
sg20
I01
sbsg21
(imyEvolve
Tree
p168
(dp169
g14
I0
sg20
I00
sbsg24
I00
sg25
g34
sbsg14
I2
sg24
I01
sg25
g91
sbsg14
I3
sg24
I01
sg25
g35
sbsg21
(imyEvolve
Tree
p170
(dp171
g7
(imyEvolve
Tree
p172
(dp173
g7
(imyEvolve
Tree
p174
(dp175
g7
(imyEvolve
Tree
p176
(dp177
g14
I0
sg20
I00
sbsg14
I1
sg24
I01
sg25
g36
sbsg14
I2
sg24
I01
sg25
g35
sbsg14
I3
sg24
I01
sg25
g35
sbsg24
I00
sg25
g47
sba(imyEvolve
Tree
p178
(dp179
g14
I2
sg15
(imyEvolve
Tree
p180
(dp181
g14
I1
sg15
(imyEvolve
Tree
p182
(dp183
g14
I0
sg20
I00
sbsg21
(imyEvolve
Tree
p184
(dp185
g14
I0
sg20
I00
sbsg24
I00
sg25
g34
sbsg21
(imyEvolve
Tree
p186
(dp187
g14
I1
sg15
(imyEvolve
Tree
p188
(dp189
g14
I0
sg20
I00
sbsg21
(imyEvolve
Tree
p190
(dp191
g14
I0
sg20
I00
sbsg24
I00
sg25
g34
sbsg24
I00
sg25
g47
sba(imyEvolve
Tree
p192
(dp193
g7
(imyEvolve
Tree
p194
(dp195
g14
I1
sg15
(imyEvolve
Tree
p196
(dp197
g14
I0
sg20
I00
sbsg21
(imyEvolve
Tree
p198
(dp199
g14
I0
sg33
F-4.251261093148391
sg20
I01
sbsg24
I00
sg25
g26
sbsg14
I2
sg24
I01
sg25
g80
sba(imyEvolve
Tree
p200
(dp201
g14
I4
sg15
(imyEvolve
Tree
p202
(dp203
g14
I3
sg15
(imyEvolve
Tree
p204
(dp205
g7
(imyEvolve
Tree
p206
(dp207
g7
(imyEvolve
Tree
p208
(dp209
g14
I0
sg20
I00
sbsg14
I1
sg24
I01
sg25
g35
sbsg14
I2
sg24
I01
sg25
g35
sbsg21
(imyEvolve
Tree
p210
(dp211
g7
(imyEvolve
Tree
p212
(dp213
g14
I1
sg15
(imyEvolve
Tree
p214
(dp215
g14
I0
sg33
F-0.5216096238501216
sg20
I01
sbsg21
(imyEvolve
Tree
p216
(dp217
g14
I0
sg20
I00
sbsg24
I00
sg25
g34
sbsg14
I2
sg24
I01
sg25
g35
sbsg24
I00
sg25
g47
sbsg21
(imyEvolve
Tree
p218
(dp219
g14
I3
sg15
(imyEvolve
Tree
p220
(dp221
g7
(imyEvolve
Tree
p222
(dp223
g14
I1
sg15
(imyEvolve
Tree
p224
(dp225
g14
I0
sg33
F-2.565870168271156
sg20
I01
sbsg21
(imyEvolve
Tree
p226
(dp227
g14
I0
sg20
I00
sbsg24
I00
sg25
g34
sbsg14
I2
sg24
I01
sg25
g35
sbsg21
(imyEvolve
Tree
p228
(dp229
g7
(imyEvolve
Tree
p230
(dp231
g14
I1
sg15
(imyEvolve
Tree
p232
(dp233
g14
I0
sg20
I00
sbsg21
(imyEvolve
Tree
p234
(dp235
g14
I0
sg33
F1.00676600862535
sg20
I01
sbsg24
I00
sg25
g34
sbsg14
I2
sg24
I01
sg25
g36
sbsg24
I00
sg25
g34
sbsg24
I00
sg25
g26
sba(imyEvolve
Tree
p236
(dp237
g7
(imyEvolve
Tree
p238
(dp239
g14
I1
sg15
(imyEvolve
Tree
p240
(dp241
g14
I0
sg33
F-0.5250868602073346
sg20
I01
sbsg21
(imyEvolve
Tree
p242
(dp243
g14
I0
sg33
F-2.1308217030285235
sg20
I01
sbsg24
I00
sg25
g26
sbsg14
I2
sg24
I01
sg25
g36
sbaa(lp244
(imyEvolve
Tree
p245
(dp246
g14
I2
sg15
(imyEvolve
Tree
p247
(dp248
g7
(imyEvolve
Tree
p249
(dp250
g14
I0
sg20
I00
sbsg14
I1
sg24
I01
sg25
g91
sbsg21
(imyEvolve
Tree
p251
(dp252
g7
(imyEvolve
Tree
p253
(dp254
g14
I0
sg33
F4.7234755434443905
sg20
I01
sbsg14
I1
sg24
I01
sg25
g91
sbsg24
I00
sg25
g34
sba(imyEvolve
Tree
p255
(dp256
g14
I3
sg15
(imyEvolve
Tree
p257
(dp258
g7
(imyEvolve
Tree
p259
(dp260
g14
I1
sg15
(imyEvolve
Tree
p261
(dp262
g14
I0
sg20
I00
sbsg21
(imyEvolve
Tree
p263
(dp264
g14
I0
sg33
F3.1078250105188925
sg20
I01
sbsg24
I00
sg25
g47
sbsg14
I2
sg24
I01
sg25
g36
sbsg21
(imyEvolve
Tree
p265
(dp266
g7
(imyEvolve
Tree
p267
(dp268
g14
I1
sg15
(imyEvolve
Tree
p269
(dp270
g14
I0
sg20
I00
sbsg21
(imyEvolve
Tree
p271
(dp272
g14
I0
sg33
F1.2630252717503527
sg20
I01
sbsg24
I00
sg25
g47
sbsg14
I2
sg24
I01
sg25
g80
sbsg24
I00
sg25
g26
sba(imyEvolve
Tree
p273
(dp274
g7
(imyEvolve
Tree
p275
(dp276
g7
(imyEvolve
Tree
p277
(dp278
g7
(imyEvolve
Tree
p279
(dp280
g14
I2
sg15
(imyEvolve
Tree
p281
(dp282
g14
I1
sg15
(imyEvolve
Tree
p283
(dp284
g14
I0
sg33
F-3.9251860164469363
sg20
I01
sbsg21
(imyEvolve
Tree
p285
(dp286
g14
I0
sg20
I00
sbsg24
I00
sg25
g47
sbsg21
(imyEvolve
Tree
p287
(dp288
g7
(imyEvolve
Tree
p289
(dp290
g14
I0
sg20
I00
sbsg14
I1
sg24
I01
sg25
g35
sbsg24
I00
sg25
g26
sbsg14
I3
sg24
I01
sg25
g36
sbsg14
I4
sg24
I01
sg25
g91
sbsg14
I5
sg24
I01
sg25
g35
sba(imyEvolve
Tree
p291
(dp292
g14
I5
sg15
(imyEvolve
Tree
p293
(dp294
g14
I4
sg15
(imyEvolve
Tree
p295
(dp296
g7
(imyEvolve
Tree
p297
(dp298
g14
I2
sg15
(imyEvolve
Tree
p299
(dp300
g14
I1
sg15
(imyEvolve
Tree
p301
(dp302
g14
I0
sg33
F0.3821364410496306
sg20
I01
sbsg21
(imyEvolve
Tree
p303
(dp304
g14
I0
sg20
I00
sbsg24
I00
sg25
g26
sbsg21
(imyEvolve
Tree
p305
(dp306
g7
(imyEvolve
Tree
p307
(dp308
g14
I0
sg20
I00
sbsg14
I1
sg24
I01
sg25
g36
sbsg24
I00
sg25
g34
sbsg14
I3
sg24
I01
sg25
g36
sbsg21
(imyEvolve
Tree
p309
(dp310
g7
(imyEvolve
Tree
p311
(dp312
g7
(imyEvolve
Tree
p313
(dp314
g7
(imyEvolve
Tree
p315
(dp316
g14
I0
sg20
I00
sbsg14
I1
sg24
I01
sg25
g35
sbsg14
I2
sg24
I01
sg25
g35
sbsg14
I3
sg24
I01
sg25
g80
sbsg24
I00
sg25
g26
sbsg21
(imyEvolve
Tree
p317
(dp318
g7
(imyEvolve
Tree
p319
(dp320
g7
(imyEvolve
Tree
p321
(dp322
g7
(imyEvolve
Tree
p323
(dp324
g7
(imyEvolve
Tree
p325
(dp326
g14
I0
sg20
I00
sbsg14
I1
sg24
I01
sg25
g36
sbsg14
I2
sg24
I01
sg25
g91
sbsg14
I3
sg24
I01
sg25
g36
sbsg14
I4
sg24
I01
sg25
g35
sbsg24
I00
sg25
g47
sba(imyEvolve
Tree
p327
(dp328
g7
(imyEvolve
Tree
p329
(dp330
g14
I3
sg15
(imyEvolve
Tree
p331
(dp332
g7
(imyEvolve
Tree
p333
(dp334
g14
I1
sg15
(imyEvolve
Tree
p335
(dp336
g14
I0
sg20
I00
sbsg21
(imyEvolve
Tree
p337
(dp338
g14
I0
sg33
F-1.1249384975430656
sg20
I01
sbsg24
I00
sg25
g34
sbsg14
I2
sg24
I01
sg25
g91
sbsg21
(imyEvolve
Tree
p339
(dp340
g7
(imyEvolve
Tree
p341
(dp342
g7
(imyEvolve
Tree
p343
(dp344
g14
I0
sg20
I00
sbsg14
I1
sg24
I01
sg25
g91
sbsg14
I2
sg24
I01
sg25
g91
sbsg24
I00
sg25
g47
sbsg14
I4
sg24
I01
sg25
g36
sba(imyEvolve
Tree
p345
(dp346
g7
(imyEvolve
Tree
p347
(dp348
g7
(imyEvolve
Tree
p349
(dp350
g14
I0
sg20
I00
sbsg14
I1
sg24
I01
sg25
g80
sbsg14
I2
sg24
I01
sg25
g36
sba(imyEvolve
Tree
p351
(dp352
g7
(imyEvolve
Tree
p353
(dp354
g14
I2
sg15
(imyEvolve
Tree
p355
(dp356
g7
(imyEvolve
Tree
p357
(dp358
g14
I0
sg33
F3.526418397755611
sg20
I01
sbsg14
I1
sg24
I01
sg25
g36
sbsg21
(imyEvolve
Tree
p359
(dp360
g7
(imyEvolve
Tree
p361
(dp362
g14
I0
sg33
F1.7486990712215658
sg20
I01
sbsg14
I1
sg24
I01
sg25
g35
sbsg24
I00
sg25
g47
sbsg14
I3
sg24
I01
sg25
g36
sba(imyEvolve
Tree
p363
(dp364
g7
(imyEvolve
Tree
p365
(dp366
g14
I4
sg15
(imyEvolve
Tree
p367
(dp368
g14
I3
sg15
(imyEvolve
Tree
p369
(dp370
g14
I2
sg15
(imyEvolve
Tree
p371
(dp372
g7
(imyEvolve
Tree
p373
(dp374
g14
I0
sg33
F1.8312766099046947
sg20
I01
sbsg14
I1
sg24
I01
sg25
g36
sbsg21
(imyEvolve
Tree
p375
(dp376
g14
I1
sg15
(imyEvolve
Tree
p377
(dp378
g14
I0
sg33
F-2.710294090169528
sg20
I01
sbsg21
(imyEvolve
Tree
p379
(dp380
g14
I0
sg33
F1.1894430591152965
sg20
I01
sbsg24
I00
sg25
g34
sbsg24
I00
sg25
g34
sbsg21
(imyEvolve
Tree
p381
(dp382
g7
(imyEvolve
Tree
p383
(dp384
g14
I1
sg15
(imyEvolve
Tree
p385
(dp386
g14
I0
sg20
I00
sbsg21
(imyEvolve
Tree
p387
(dp388
g14
I0
sg20
I00
sbsg24
I00
sg25
g34
sbsg14
I2
sg24
I01
sg25
g80
sbsg24
I00
sg25
g26
sbsg21
(imyEvolve
Tree
p389
(dp390
g7
(imyEvolve
Tree
p391
(dp392
g14
I2
sg15
(imyEvolve
Tree
p393
(dp394
g7
(imyEvolve
Tree
p395
(dp396
g14
I0
sg33
F0.42387801575929984
sg20
I01
sbsg14
I1
sg24
I01
sg25
g80
sbsg21
(imyEvolve
Tree
p397
(dp398
g14
I1
sg15
(imyEvolve
Tree
p399
(dp400
g14
I0
sg20
I00
sbsg21
(imyEvolve
Tree
p401
(dp402
g14
I0
sg33
F-0.7309047006577583
sg20
I01
sbsg24
I00
sg25
g47
sbsg24
I00
sg25
g47
sbsg14
I3
sg24
I01
sg25
g36
sbsg24
I00
sg25
g47
sbsg14
I5
sg24
I01
sg25
g80
sba(imyEvolve
Tree
p403
(dp404
g14
I2
sg15
(imyEvolve
Tree
p405
(dp406
g7
(imyEvolve
Tree
p407
(dp408
g14
I0
sg20
I00
sbsg14
I1
sg24
I01
sg25
g91
sbsg21
(imyEvolve
Tree
p409
(dp410
g14
I1
sg15
(imyEvolve
Tree
p411
(dp412
g14
I0
sg20
I00
sbsg21
(imyEvolve
Tree
p413
(dp414
g14
I0
sg20
I00
sbsg24
I00
sg25
g34
sbsg24
I00
sg25
g34
sba(imyEvolve
Tree
p415
(dp416
g14
I5
sg15
(imyEvolve
Tree
p417
(dp418
g7
(imyEvolve
Tree
p419
(dp420
g14
I3
sg15
(imyEvolve
Tree
p421
(dp422
g14
I2
sg15
(imyEvolve
Tree
p423
(dp424
g7
(imyEvolve
Tree
p425
(dp426
g14
I0
sg33
F-0.8626581819755526
sg20
I01
sbsg14
I1
sg24
I01
sg25
g36
sbsg21
(imyEvolve
Tree
p427
(dp428
g14
I1
sg15
(imyEvolve
Tree
p429
(dp430
g14
I0
sg33
F1.9199591133328733
sg20
I01
sbsg21
(imyEvolve
Tree
p431
(dp432
g14
I0
sg33
F-1.2381565794789804
sg20
I01
sbsg24
I00
sg25
g26
sbsg24
I00
sg25
g26
sbsg21
(imyEvolve
Tree
p433
(dp434
g7
(imyEvolve
Tree
p435
(dp436
g14
I1
sg15
(imyEvolve
Tree
p437
(dp438
g14
I0
sg33
F1.3083765479706955
sg20
I01
sbsg21
(imyEvolve
Tree
p439
(dp440
g14
I0
sg33
F1.225660518562667
sg20
I01
sbsg24
I00
sg25
g26
sbsg14
I2
sg24
I01
sg25
g36
sbsg24
I00
sg25
g47
sbsg14
I4
sg24
I01
sg25
g35
sbsg21
(imyEvolve
Tree
p441
(dp442
g7
(imyEvolve
Tree
p443
(dp444
g7
(imyEvolve
Tree
p445
(dp446
g14
I2
sg15
(imyEvolve
Tree
p447
(dp448
g14
I1
sg15
(imyEvolve
Tree
p449
(dp450
g14
I0
sg33
F-2.5200432549774376
sg20
I01
sbsg21
(imyEvolve
Tree
p451
(dp452
g14
I0
sg20
I00
sbsg24
I00
sg25
g47
sbsg21
(imyEvolve
Tree
p453
(dp454
g14
I1
sg15
(imyEvolve
Tree
p455
(dp456
g14
I0
sg20
I00
sbsg21
(imyEvolve
Tree
p457
(dp458
g14
I0
sg33
F4.243867304382597
sg20
I01
sbsg24
I00
sg25
g47
sbsg24
I00
sg25
g47
sbsg14
I3
sg24
I01
sg25
g80
sbsg14
I4
sg24
I01
sg25
g80
sbsg24
I00
sg25
g26
sba(imyEvolve
Tree
p459
(dp460
g14
I4
sg15
(imyEvolve
Tree
p461
(dp462
g7
(imyEvolve
Tree
p463
(dp464
g7
(imyEvolve
Tree
p465
(dp466
g7
(imyEvolve
Tree
p467
(dp468
g14
I0
sg20
I00
sbsg14
I1
sg24
I01
sg25
g35
sbsg14
I2
sg24
I01
sg25
g91
sbsg14
I3
sg24
I01
sg25
g36
sbsg21
(imyEvolve
Tree
p469
(dp470
g14
I3
sg15
(imyEvolve
Tree
p471
(dp472
g14
I2
sg15
(imyEvolve
Tree
p473
(dp474
g7
(imyEvolve
Tree
p475
(dp476
g14
I0
sg33
F4.525870691204988
sg20
I01
sbsg14
I1
sg24
I01
sg25
g91
sbsg21
(imyEvolve
Tree
p477
(dp478
g7
(imyEvolve
Tree
p479
(dp480
g14
I0
sg20
I00
sbsg14
I1
sg24
I01
sg25
g35
sbsg24
I00
sg25
g47
sbsg21
(imyEvolve
Tree
p481
(dp482
g14
I2
sg15
(imyEvolve
Tree
p483
(dp484
g14
I1
sg15
(imyEvolve
Tree
p485
(dp486
g14
I0
sg33
F-0.5879391692694567
sg20
I01
sbsg21
(imyEvolve
Tree
p487
(dp488
g14
I0
sg20
I00
sbsg24
I00
sg25
g47
sbsg21
(imyEvolve
Tree
p489
(dp490
g7
(imyEvolve
Tree
p491
(dp492
g14
I0
sg33
F4.286999929670529
sg20
I01
sbsg14
I1
sg24
I01
sg25
g36
sbsg24
I00
sg25
g34
sbsg24
I00
sg25
g47
sbsg24
I00
sg25
g26
sba(imyEvolve
Tree
p493
(dp494
g14
I5
sg15
(imyEvolve
Tree
p495
(dp496
g14
I4
sg15
(imyEvolve
Tree
p497
(dp498
g14
I3
sg15
(imyEvolve
Tree
p499
(dp500
g7
(imyEvolve
Tree
p501
(dp502
g7
(imyEvolve
Tree
p503
(dp504
g14
I0
sg20
I00
sbsg14
I1
sg24
I01
sg25
g35
sbsg14
I2
sg24
I01
sg25
g36
sbsg21
(imyEvolve
Tree
p505
(dp506
g14
I2
sg15
(imyEvolve
Tree
p507
(dp508
g7
(imyEvolve
Tree
p509
(dp510
g14
I0
sg20
I00
sbsg14
I1
sg24
I01
sg25
g91
sbsg21
(imyEvolve
Tree
p511
(dp512
g7
(imyEvolve
Tree
p513
(dp514
g14
I0
sg20
I00
sbsg14
I1
sg24
I01
sg25
g35
sbsg24
I00
sg25
g47
sbsg24
I00
sg25
g34
sbsg21
(imyEvolve
Tree
p515
(dp516
g14
I3
sg15
(imyEvolve
Tree
p517
(dp518
g7
(imyEvolve
Tree
p519
(dp520
g7
(imyEvolve
Tree
p521
(dp522
g14
I0
sg33
F-0.5721660394521377
sg20
I01
sbsg14
I1
sg24
I01
sg25
g80
sbsg14
I2
sg24
I01
sg25
g91
sbsg21
(imyEvolve
Tree
p523
(dp524
g7
(imyEvolve
Tree
p525
(dp526
g7
(imyEvolve
Tree
p527
(dp528
g14
I0
sg20
I00
sbsg14
I1
sg24
I01
sg25
g35
sbsg14
I2
sg24
I01
sg25
g91
sbsg24
I00
sg25
g34
sbsg24
I00
sg25
g47
sbsg21
(imyEvolve
Tree
p529
(dp530
g7
(imyEvolve
Tree
p531
(dp532
g7
(imyEvolve
Tree
p533
(dp534
g14
I2
sg15
(imyEvolve
Tree
p535
(dp536
g14
I1
sg15
(imyEvolve
Tree
p537
(dp538
g14
I0
sg33
F-4.158739600876262
sg20
I01
sbsg21
(imyEvolve
Tree
p539
(dp540
g14
I0
sg20
I00
sbsg24
I00
sg25
g34
sbsg21
(imyEvolve
Tree
p541
(dp542
g14
I1
sg15
(imyEvolve
Tree
p543
(dp544
g14
I0
sg20
I00
sbsg21
(imyEvolve
Tree
p545
(dp546
g14
I0
sg20
I00
sbsg24
I00
sg25
g47
sbsg24
I00
sg25
g34
sbsg14
I3
sg24
I01
sg25
g91
sbsg14
I4
sg24
I01
sg25
g91
sbsg24
I00
sg25
g34
sba(imyEvolve
Tree
p547
(dp548
g14
I2
sg15
(imyEvolve
Tree
p549
(dp550
g14
I1
sg15
(imyEvolve
Tree
p551
(dp552
g14
I0
sg20
I00
sbsg21
(imyEvolve
Tree
p553
(dp554
g14
I0
sg33
F-2.692870561791346
sg20
I01
sbsg24
I00
sg25
g47
sbsg21
(imyEvolve
Tree
p555
(dp556
g7
(imyEvolve
Tree
p557
(dp558
g14
I0
sg20
I00
sbsg14
I1
sg24
I01
sg25
g35
sbsg24
I00
sg25
g47
sba(imyEvolve
Tree
p559
(dp560
g7
(imyEvolve
Tree
p561
(dp562
g7
(imyEvolve
Tree
p563
(dp564
g7
(imyEvolve
Tree
p565
(dp566
g7
(imyEvolve
Tree
p567
(dp568
g7
(imyEvolve
Tree
p569
(dp570
g14
I0
sg33
F4.201104269067983
sg20
I01
sbsg14
I1
sg24
I01
sg25
g80
sbsg14
I2
sg24
I01
sg25
g35
sbsg14
I3
sg24
I01
sg25
g35
sbsg14
I4
sg24
I01
sg25
g80
sbsg14
I5
sg24
I01
sg25
g80
sba(imyEvolve
Tree
p571
(dp572
g7
(imyEvolve
Tree
p573
(dp574
g7
(imyEvolve
Tree
p575
(dp576
g7
(imyEvolve
Tree
p577
(dp578
g7
(imyEvolve
Tree
p579
(dp580
g14
I1
sg15
(imyEvolve
Tree
p581
(dp582
g14
I0
sg33
F-0.8069682567207899
sg20
I01
sbsg21
(imyEvolve
Tree
p583
(dp584
g14
I0
sg20
I00
sbsg24
I00
sg25
g34
sbsg14
I2
sg24
I01
sg25
g91
sbsg14
I3
sg24
I01
sg25
g35
sbsg14
I4
sg24
I01
sg25
g91
sbsg14
I5
sg24
I01
sg25
g36
sbaa(lp585
(imyEvolve
Tree
p586
(dp587
g14
I5
sg15
(imyEvolve
Tree
p588
(dp589
g7
(imyEvolve
Tree
p590
(dp591
g7
(imyEvolve
Tree
p592
(dp593
g7
(imyEvolve
Tree
p594
(dp595
g14
I1
sg15
(imyEvolve
Tree
p596
(dp597
g14
I0
sg33
F0.2528109579351723
sg20
I01
sbsg21
(imyEvolve
Tree
p598
(dp599
g14
I0
sg20
I00
sbsg24
I00
sg25
g26
sbsg14
I2
sg24
I01
sg25
g35
sbsg14
I3
sg24
I01
sg25
g35
sbsg14
I4
sg24
I01
sg25
g80
sbsg21
(imyEvolve
Tree
p600
(dp601
g14
I4
sg15
(imyEvolve
Tree
p602
(dp603
g7
(imyEvolve
Tree
p604
(dp605
g14
I2
sg15
(imyEvolve
Tree
p606
(dp607
g14
I1
sg15
(imyEvolve
Tree
p608
(dp609
g14
I0
sg33
F-4.864519554405114
sg20
I01
sbsg21
(imyEvolve
Tree
p610
(dp611
g14
I0
sg20
I00
sbsg24
I00
sg25
g34
sbsg21
(imyEvolve
Tree
p612
(dp613
g7
(imyEvolve
Tree
p614
(dp615
g14
I0
sg20
I00
sbsg14
I1
sg24
I01
sg25
g91
sbsg24
I00
sg25
g47
sbsg14
I3
sg24
I01
sg25
g35
sbsg21
(imyEvolve
Tree
p616
(dp617
g14
I3
sg15
(imyEvolve
Tree
p618
(dp619
g14
I2
sg15
(imyEvolve
Tree
p620
(dp621
g14
I1
sg15
(imyEvolve
Tree
p622
(dp623
g14
I0
sg33
F-1.3550829158320754
sg20
I01
sbsg21
(imyEvolve
Tree
p624
(dp625
g14
I0
sg20
I00
sbsg24
I00
sg25
g47
sbsg21
(imyEvolve
Tree
p626
(dp627
g7
(imyEvolve
Tree
p628
(dp629
g14
I0
sg33
F-0.8253772922889899
sg20
I01
sbsg14
I1
sg24
I01
sg25
g91
sbsg24
I00
sg25
g34
sbsg21
(imyEvolve
Tree
p630
(dp631
g14
I2
sg15
(imyEvolve
Tree
p632
(dp633
g7
(imyEvolve
Tree
p634
(dp635
g14
I0
sg20
I00
sbsg14
I1
sg24
I01
sg25
g80
sbsg21
(imyEvolve
Tree
p636
(dp637
g7
(imyEvolve
Tree
p638
(dp639
g14
I0
sg33
F-4.405729339280296
sg20
I01
sbsg14
I1
sg24
I01
sg25
g35
sbsg24
I00
sg25
g47
sbsg24
I00
sg25
g26
sbsg24
I00
sg25
g26
sbsg24
I00
sg25
g34
sba(imyEvolve
Tree
p640
(dp641
g14
I2
sg15
(imyEvolve
Tree
p642
(dp643
g7
(imyEvolve
Tree
p644
(dp645
g14
I0
sg33
F0.0750693730409635
sg20
I01
sbsg14
I1
sg24
I01
sg25
g80
sbsg21
(imyEvolve
Tree
p646
(dp647
g7
(imyEvolve
Tree
p648
(dp649
g14
I0
sg20
I00
sbsg14
I1
sg24
I01
sg25
g35
sbsg24
I00
sg25
g26
sba(imyEvolve
Tree
p650
(dp651
g7
(imyEvolve
Tree
p652
(dp653
g14
I1
sg15
(imyEvolve
Tree
p654
(dp655
g14
I0
sg20
I00
sbsg21
(imyEvolve
Tree
p656
(dp657
g14
I0
sg20
I00
sbsg24
I00
sg25
g34
sbsg14
I2
sg24
I01
sg25
g91
sba(imyEvolve
Tree
p658
(dp659
g14
I3
sg15
(imyEvolve
Tree
p660
(dp661
g14
I2
sg15
(imyEvolve
Tree
p662
(dp663
g14
I1
sg15
(imyEvolve
Tree
p664
(dp665
g14
I0
sg20
I00
sbsg21
(imyEvolve
Tree
p666
(dp667
g14
I0
sg33
F-1.4618206923981303
sg20
I01
sbsg24
I00
sg25
g34
sbsg21
(imyEvolve
Tree
p668
(dp669
g14
I1
sg15
(imyEvolve
Tree
p670
(dp671
g14
I0
sg33
F-1.1865045813700617
sg20
I01
sbsg21
(imyEvolve
Tree
p672
(dp673
g14
I0
sg20
I00
sbsg24
I00
sg25
g34
sbsg24
I00
sg25
g47
sbsg21
(imyEvolve
Tree
p674
(dp675
g7
(imyEvolve
Tree
p676
(dp677
g7
(imyEvolve
Tree
p678
(dp679
g14
I0
sg20
I00
sbsg14
I1
sg24
I01
sg25
g80
sbsg14
I2
sg24
I01
sg25
g35
sbsg24
I00
sg25
g47
sba(imyEvolve
Tree
p680
(dp681
g14
I3
sg15
(imyEvolve
Tree
p682
(dp683
g7
(imyEvolve
Tree
p684
(dp685
g7
(imyEvolve
Tree
p686
(dp687
g14
I0
sg20
I00
sbsg14
I1
sg24
I01
sg25
g36
sbsg14
I2
sg24
I01
sg25
g91
sbsg21
(imyEvolve
Tree
p688
(dp689
g14
I2
sg15
(imyEvolve
Tree
p690
(dp691
g14
I1
sg15
(imyEvolve
Tree
p692
(dp693
g14
I0
sg20
I00
sbsg21
(imyEvolve
Tree
p694
(dp695
g14
I0
sg33
F-1.401918558869275
sg20
I01
sbsg24
I00
sg25
g26
sbsg21
(imyEvolve
Tree
p696
(dp697
g14
I1
sg15
(imyEvolve
Tree
p698
(dp699
g14
I0
sg20
I00
sbsg21
(imyEvolve
Tree
p700
(dp701
g14
I0
sg33
F1.2987089914400096
sg20
I01
sbsg24
I00
sg25
g47
sbsg24
I00
sg25
g47
sbsg24
I00
sg25
g47
sba(imyEvolve
Tree
p702
(dp703
g7
(imyEvolve
Tree
p704
(dp705
g7
(imyEvolve
Tree
p706
(dp707
g7
(imyEvolve
Tree
p708
(dp709
g14
I1
sg15
(imyEvolve
Tree
p710
(dp711
g14
I0
sg20
I00
sbsg21
(imyEvolve
Tree
p712
(dp713
g14
I0
sg20
I00
sbsg24
I00
sg25
g26
sbsg14
I2
sg24
I01
sg25
g80
sbsg14
I3
sg24
I01
sg25
g36
sbsg14
I4
sg24
I01
sg25
g80
sba(imyEvolve
Tree
p714
(dp715
g7
(imyEvolve
Tree
p716
(dp717
g14
I3
sg15
(imyEvolve
Tree
p718
(dp719
g14
I2
sg15
(imyEvolve
Tree
p720
(dp721
g7
(imyEvolve
Tree
p722
(dp723
g14
I0
sg20
I00
sbsg14
I1
sg24
I01
sg25
g36
sbsg21
(imyEvolve
Tree
p724
(dp725
g7
(imyEvolve
Tree
p726
(dp727
g14
I0
sg33
F0.5317597452555312
sg20
I01
sbsg14
I1
sg24
I01
sg25
g80
sbsg24
I00
sg25
g47
sbsg21
(imyEvolve
Tree
p728
(dp729
g14
I2
sg15
(imyEvolve
Tree
p730
(dp731
g14
I1
sg15
(imyEvolve
Tree
p732
(dp733
g14
I0
sg20
I00
sbsg21
(imyEvolve
Tree
p734
(dp735
g14
I0
sg33
F0.6383786011977541
sg20
I01
sbsg24
I00
sg25
g26
sbsg21
(imyEvolve
Tree
p736
(dp737
g14
I1
sg15
(imyEvolve
Tree
p738
(dp739
g14
I0
sg20
I00
sbsg21
(imyEvolve
Tree
p740
(dp741
g14
I0
sg20
I00
sbsg24
I00
sg25
g26
sbsg24
I00
sg25
g34
sbsg24
I00
sg25
g26
sbsg14
I4
sg24
I01
sg25
g36
sba(imyEvolve
Tree
p742
(dp743
g14
I5
sg15
(imyEvolve
Tree
p744
(dp745
g7
(imyEvolve
Tree
p746
(dp747
g7
(imyEvolve
Tree
p748
(dp749
g14
I2
sg15
(imyEvolve
Tree
p750
(dp751
g14
I1
sg15
(imyEvolve
Tree
p752
(dp753
g14
I0
sg20
I00
sbsg21
(imyEvolve
Tree
p754
(dp755
g14
I0
sg20
I00
sbsg24
I00
sg25
g47
sbsg21
(imyEvolve
Tree
p756
(dp757
g7
(imyEvolve
Tree
p758
(dp759
g14
I0
sg33
F-1.5494689396473271
sg20
I01
sbsg14
I1
sg24
I01
sg25
g80
sbsg24
I00
sg25
g34
sbsg14
I3
sg24
I01
sg25
g91
sbsg14
I4
sg24
I01
sg25
g80
sbsg21
(imyEvolve
Tree
p760
(dp761
g7
(imyEvolve
Tree
p762
(dp763
g7
(imyEvolve
Tree
p764
(dp765
g14
I2
sg15
(imyEvolve
Tree
p766
(dp767
g14
I1
sg15
(imyEvolve
Tree
p768
(dp769
g14
I0
sg33
F-1.9071319887320182
sg20
I01
sbsg21
(imyEvolve
Tree
p770
(dp771
g14
I0
sg33
F-4.366771093486809
sg20
I01
sbsg24
I00
sg25
g26
sbsg21
(imyEvolve
Tree
p772
(dp773
g7
(imyEvolve
Tree
p774
(dp775
g14
I0
sg33
F-4.866443722072962
sg20
I01
sbsg14
I1
sg24
I01
sg25
g91
sbsg24
I00
sg25
g34
sbsg14
I3
sg24
I01
sg25
g80
sbsg14
I4
sg24
I01
sg25
g91
sbsg24
I00
sg25
g47
sba(imyEvolve
Tree
p776
(dp777
g7
(imyEvolve
Tree
p778
(dp779
g7
(imyEvolve
Tree
p780
(dp781
g7
(imyEvolve
Tree
p782
(dp783
g7
(imyEvolve
Tree
p784
(dp785
g14
I1
sg15
(imyEvolve
Tree
p786
(dp787
g14
I0
sg33
F-0.7230759109755276
sg20
I01
sbsg21
(imyEvolve
Tree
p788
(dp789
g14
I0
sg33
F-2.7784382660654683
sg20
I01
sbsg24
I00
sg25
g34
sbsg14
I2
sg24
I01
sg25
g35
sbsg14
I3
sg24
I01
sg25
g36
sbsg14
I4
sg24
I01
sg25
g36
sbsg14
I5
sg24
I01
sg25
g80
sbaa(lp790
(imyEvolve
Tree
p791
(dp792
g7
(imyEvolve
Tree
p793
(dp794
g14
I4
sg15
(imyEvolve
Tree
p795
(dp796
g14
I3
sg15
(imyEvolve
Tree
p797
(dp798
g7
(imyEvolve
Tree
p799
(dp800
g14
I1
sg15
(imyEvolve
Tree
p801
(dp802
g14
I0
sg33
F0.9717382769564367
sg20
I01
sbsg21
(imyEvolve
Tree
p803
(dp804
g14
I0
sg20
I00
sbsg24
I00
sg25
g47
sbsg14
I2
sg24
I01
sg25
g36
sbsg21
(imyEvolve
Tree
p805
(dp806
g7
(imyEvolve
Tree
p807
(dp808
g7
(imyEvolve
Tree
p809
(dp810
g14
I0
sg20
I00
sbsg14
I1
sg24
I01
sg25
g80
sbsg14
I2
sg24
I01
sg25
g36
sbsg24
I00
sg25
g34
sbsg21
(imyEvolve
Tree
p811
(dp812
g7
(imyEvolve
Tree
p813
(dp814
g14
I2
sg15
(imyEvolve
Tree
p815
(dp816
g7
(imyEvolve
Tree
p817
(dp818
g14
I0
sg33
F3.549596882660687
sg20
I01
sbsg14
I1
sg24
I01
sg25
g91
sbsg21
(imyEvolve
Tree
p819
(dp820
g7
(imyEvolve
Tree
p821
(dp822
g14
I0
sg20
I00
sbsg14
I1
sg24
I01
sg25
g91
sbsg24
I00
sg25
g26
sbsg14
I3
sg24
I01
sg25
g91
sbsg24
I00
sg25
g26
sbsg14
I5
sg24
I01
sg25
g80
sba(imyEvolve
Tree
p823
(dp824
g7
(imyEvolve
Tree
p825
(dp826
g7
(imyEvolve
Tree
p827
(dp828
g7
(imyEvolve
Tree
p829
(dp830
g7
(imyEvolve
Tree
p831
(dp832
g14
I1
sg15
(imyEvolve
Tree
p833
(dp834
g14
I0
sg20
I00
sbsg21
(imyEvolve
Tree
p835
(dp836
g14
I0
sg33
F2.506767245474089
sg20
I01
sbsg24
I00
sg25
g34
sbsg14
I2
sg24
I01
sg25
g80
sbsg14
I3
sg24
I01
sg25
g36
sbsg14
I4
sg24
I01
sg25
g80
sbsg14
I5
sg24
I01
sg25
g36
sba(imyEvolve
Tree
p837
(dp838
g7
(imyEvolve
Tree
p839
(dp840
g7
(imyEvolve
Tree
p841
(dp842
g14
I0
sg33
F-2.9881439546857758
sg20
I01
sbsg14
I1
sg24
I01
sg25
g35
sbsg14
I2
sg24
I01
sg25
g36
sba(imyEvolve
Tree
p843
(dp844
g7
(imyEvolve
Tree
p845
(dp846
g7
(imyEvolve
Tree
p847
(dp848
g14
I1
sg15
(imyEvolve
Tree
p849
(dp850
g14
I0
sg20
I00
sbsg21
(imyEvolve
Tree
p851
(dp852
g14
I0
sg20
I00
sbsg24
I00
sg25
g34
sbsg14
I2
sg24
I01
sg25
g35
sbsg14
I3
sg24
I01
sg25
g35
sba(imyEvolve
Tree
p853
(dp854
g14
I5
sg15
(imyEvolve
Tree
p855
(dp856
g14
I4
sg15
(imyEvolve
Tree
p857
(dp858
g14
I3
sg15
(imyEvolve
Tree
p859
(dp860
g14
I2
sg15
(imyEvolve
Tree
p861
(dp862
g14
I1
sg15
(imyEvolve
Tree
p863
(dp864
g14
I0
sg33
F-0.21300689593854827
sg20
I01
sbsg21
(imyEvolve
Tree
p865
(dp866
g14
I0
sg33
F-1.9638017683891764
sg20
I01
sbsg24
I00
sg25
g47
sbsg21
(imyEvolve
Tree
p867
(dp868
g7
(imyEvolve
Tree
p869
(dp870
g14
I0
sg33
F-0.7070434630863929
sg20
I01
sbsg14
I1
sg24
I01
sg25
g36
sbsg24
I00
sg25
g34
sbsg21
(imyEvolve
Tree
p871
(dp872
g14
I2
sg15
(imyEvolve
Tree
p873
(dp874
g14
I1
sg15
(imyEvolve
Tree
p875
(dp876
g14
I0
sg33
F-3.657342192559425
sg20
I01
sbsg21
(imyEvolve
Tree
p877
(dp878
g14
I0
sg20
I00
sbsg24
I00
sg25
g26
sbsg21
(imyEvolve
Tree
p879
(dp880
g7
(imyEvolve
Tree
p881
(dp882
g14
I0
sg20
I00
sbsg14
I1
sg24
I01
sg25
g91
sbsg24
I00
sg25
g34
sbsg24
I00
sg25
g34
sbsg21
(imyEvolve
Tree
p883
(dp884
g14
I3
sg15
(imyEvolve
Tree
p885
(dp886
g7
(imyEvolve
Tree
p887
(dp888
g7
(imyEvolve
Tree
p889
(dp890
g14
I0
sg33
F4.610472178828614
sg20
I01
sbsg14
I1
sg24
I01
sg25
g35
sbsg14
I2
sg24
I01
sg25
g36
sbsg21
(imyEvolve
Tree
p891
(dp892
g7
(imyEvolve
Tree
p893
(dp894
g7
(imyEvolve
Tree
p895
(dp896
g14
I0
sg20
I00
sbsg14
I1
sg24
I01
sg25
g80
sbsg14
I2
sg24
I01
sg25
g35
sbsg24
I00
sg25
g34
sbsg24
I00
sg25
g34
sbsg21
(imyEvolve
Tree
p897
(dp898
g14
I4
sg15
(imyEvolve
Tree
p899
(dp900
g7
(imyEvolve
Tree
p901
(dp902
g7
(imyEvolve
Tree
p903
(dp904
g14
I1
sg15
(imyEvolve
Tree
p905
(dp906
g14
I0
sg33
F1.552220677085339
sg20
I01
sbsg21
(imyEvolve
Tree
p907
(dp908
g14
I0
sg20
I00
sbsg24
I00
sg25
g47
sbsg14
I2
sg24
I01
sg25
g35
sbsg14
I3
sg24
I01
sg25
g91
sbsg21
(imyEvolve
Tree
p909
(dp910
g14
I3
sg15
(imyEvolve
Tree
p911
(dp912
g14
I2
sg15
(imyEvolve
Tree
p913
(dp914
g7
(imyEvolve
Tree
p915
(dp916
g14
I0
sg33
F-4.4760895860730185
sg20
I01
sbsg14
I1
sg24
I01
sg25
g80
sbsg21
(imyEvolve
Tree
p917
(dp918
g14
I1
sg15
(imyEvolve
Tree
p919
(dp920
g14
I0
sg33
F4.647201485923521
sg20
I01
sbsg21
(imyEvolve
Tree
p921
(dp922
g14
I0
sg33
F-4.252234984659074
sg20
I01
sbsg24
I00
sg25
g47
sbsg24
I00
sg25
g26
sbsg21
(imyEvolve
Tree
p923
(dp924
g14
I2
sg15
(imyEvolve
Tree
p925
(dp926
g14
I1
sg15
(imyEvolve
Tree
p927
(dp928
g14
I0
sg20
I00
sbsg21
(imyEvolve
Tree
p929
(dp930
g14
I0
sg20
I00
sbsg24
I00
sg25
g26
sbsg21
(imyEvolve
Tree
p931
(dp932
g7
(imyEvolve
Tree
p933
(dp934
g14
I0
sg20
I00
sbsg14
I1
sg24
I01
sg25
g91
sbsg24
I00
sg25
g34
sbsg24
I00
sg25
g34
sbsg24
I00
sg25
g26
sbsg24
I00
sg25
g34
sba(imyEvolve
Tree
p935
(dp936
g14
I4
sg15
(imyEvolve
Tree
p937
(dp938
g7
(imyEvolve
Tree
p939
(dp940
g14
I2
sg15
(imyEvolve
Tree
p941
(dp942
g14
I1
sg15
(imyEvolve
Tree
p943
(dp944
g14
I0
sg20
I00
sbsg21
(imyEvolve
Tree
p945
(dp946
g14
I0
sg20
I00
sbsg24
I00
sg25
g47
sbsg21
(imyEvolve
Tree
p947
(dp948
g14
I1
sg15
(imyEvolve
Tree
p949
(dp950
g14
I0
sg20
I00
sbsg21
(imyEvolve
Tree
p951
(dp952
g14
I0
sg20
I00
sbsg24
I00
sg25
g47
sbsg24
I00
sg25
g34
sbsg14
I3
sg24
I01
sg25
g91
sbsg21
(imyEvolve
Tree
p953
(dp954
g14
I3
sg15
(imyEvolve
Tree
p955
(dp956
g14
I2
sg15
(imyEvolve
Tree
p957
(dp958
g7
(imyEvolve
Tree
p959
(dp960
g14
I0
sg20
I00
sbsg14
I1
sg24
I01
sg25
g91
sbsg21
(imyEvolve
Tree
p961
(dp962
g14
I1
sg15
(imyEvolve
Tree
p963
(dp964
g14
I0
sg20
I00
sbsg21
(imyEvolve
Tree
p965
(dp966
g14
I0
sg33
F-0.04918539555771684
sg20
I01
sbsg24
I00
sg25
g26
sbsg24
I00
sg25
g34
sbsg21
(imyEvolve
Tree
p967
(dp968
g7
(imyEvolve
Tree
p969
(dp970
g14
I1
sg15
(imyEvolve
Tree
p971
(dp972
g14
I0
sg33
F4.468680114276761
sg20
I01
sbsg21
(imyEvolve
Tree
p973
(dp974
g14
I0
sg20
I00
sbsg24
I00
sg25
g47
sbsg14
I2
sg24
I01
sg25
g36
sbsg24
I00
sg25
g26
sbsg24
I00
sg25
g26
sba(imyEvolve
Tree
p975
(dp976
g7
(imyEvolve
Tree
p977
(dp978
g14
I3
sg15
(imyEvolve
Tree
p979
(dp980
g14
I2
sg15
(imyEvolve
Tree
p981
(dp982
g7
(imyEvolve
Tree
p983
(dp984
g14
I0
sg33
F-4.55754920341924
sg20
I01
sbsg14
I1
sg24
I01
sg25
g35
sbsg21
(imyEvolve
Tree
p985
(dp986
g7
(imyEvolve
Tree
p987
(dp988
g14
I0
sg33
F4.067770853654478
sg20
I01
sbsg14
I1
sg24
I01
sg25
g91
sbsg24
I00
sg25
g26
sbsg21
(imyEvolve
Tree
p989
(dp990
g7
(imyEvolve
Tree
p991
(dp992
g14
I1
sg15
(imyEvolve
Tree
p993
(dp994
g14
I0
sg33
F-4.541872175196474
sg20
I01
sbsg21
(imyEvolve
Tree
p995
(dp996
g14
I0
sg20
I00
sbsg24
I00
sg25
g47
sbsg14
I2
sg24
I01
sg25
g36
sbsg24
I00
sg25
g34
sbsg14
I4
sg24
I01
sg25
g80
sba(imyEvolve
Tree
p997
(dp998
g14
I4
sg15
(imyEvolve
Tree
p999
(dp1000
g14
I3
sg15
(imyEvolve
Tree
p1001
(dp1002
g7
(imyEvolve
Tree
p1003
(dp1004
g14
I1
sg15
(imyEvolve
Tree
p1005
(dp1006
g14
I0
sg33
F-3.020146542750485
sg20
I01
sbsg21
(imyEvolve
Tree
p1007
(dp1008
g14
I0
sg20
I00
sbsg24
I00
sg25
g26
sbsg14
I2
sg24
I01
sg25
g91
sbsg21
(imyEvolve
Tree
p1009
(dp1010
g14
I2
sg15
(imyEvolve
Tree
p1011
(dp1012
g7
(imyEvolve
Tree
p1013
(dp1014
g14
I0
sg20
I00
sbsg14
I1
sg24
I01
sg25
g35
sbsg21
(imyEvolve
Tree
p1015
(dp1016
g14
I1
sg15
(imyEvolve
Tree
p1017
(dp1018
g14
I0
sg20
I00
sbsg21
(imyEvolve
Tree
p1019
(dp1020
g14
I0
sg20
I00
sbsg24
I00
sg25
g34
sbsg24
I00
sg25
g26
sbsg24
I00
sg25
g47
sbsg21
(imyEvolve
Tree
p1021
(dp1022
g14
I3
sg15
(imyEvolve
Tree
p1023
(dp1024
g7
(imyEvolve
Tree
p1025
(dp1026
g14
I1
sg15
(imyEvolve
Tree
p1027
(dp1028
g14
I0
sg20
I00
sbsg21
(imyEvolve
Tree
p1029
(dp1030
g14
I0
sg20
I00
sbsg24
I00
sg25
g26
sbsg14
I2
sg24
I01
sg25
g80
sbsg21
(imyEvolve
Tree
p1031
(dp1032
g14
I2
sg15
(imyEvolve
Tree
p1033
(dp1034
g7
(imyEvolve
Tree
p1035
(dp1036
g14
I0
sg20
I00
sbsg14
I1
sg24
I01
sg25
g35
sbsg21
(imyEvolve
Tree
p1037
(dp1038
g14
I1
sg15
(imyEvolve
Tree
p1039
(dp1040
g14
I0
sg20
I00
sbsg21
(imyEvolve
Tree
p1041
(dp1042
g14
I0
sg33
F-1.983325791610342
sg20
I01
sbsg24
I00
sg25
g26
sbsg24
I00
sg25
g34
sbsg24
I00
sg25
g26
sbsg24
I00
sg25
g47
sba(imyEvolve
Tree
p1043
(dp1044
g14
I2
sg15
(imyEvolve
Tree
p1045
(dp1046
g7
(imyEvolve
Tree
p1047
(dp1048
g14
I0
sg33
F3.3970110759293597
sg20
I01
sbsg14
I1
sg24
I01
sg25
g36
sbsg21
(imyEvolve
Tree
p1049
(dp1050
g7
(imyEvolve
Tree
p1051
(dp1052
g14
I0
sg33
F0.6395727398606663
sg20
I01
sbsg14
I1
sg24
I01
sg25
g36
sbsg24
I00
sg25
g47
sba(imyEvolve
Tree
p1053
(dp1054
g7
(imyEvolve
Tree
p1055
(dp1056
g14
I3
sg15
(imyEvolve
Tree
p1057
(dp1058
g14
I2
sg15
(imyEvolve
Tree
p1059
(dp1060
g7
(imyEvolve
Tree
p1061
(dp1062
g14
I0
sg33
F-4.948073937597445
sg20
I01
sbsg14
I1
sg24
I01
sg25
g91
sbsg21
(imyEvolve
Tree
p1063
(dp1064
g7
(imyEvolve
Tree
p1065
(dp1066
g14
I0
sg33
F-4.7790482559032545
sg20
I01
sbsg14
I1
sg24
I01
sg25
g35
sbsg24
I00
sg25
g47
sbsg21
(imyEvolve
Tree
p1067
(dp1068
g14
I2
sg15
(imyEvolve
Tree
p1069
(dp1070
g7
(imyEvolve
Tree
p1071
(dp1072
g14
I0
sg33
F0.5236595397341617
sg20
I01
sbsg14
I1
sg24
I01
sg25
g80
sbsg21
(imyEvolve
Tree
p1073
(dp1074
g7
(imyEvolve
Tree
p1075
(dp1076
g14
I0
sg33
F2.0650009746673597
sg20
I01
sbsg14
I1
sg24
I01
sg25
g91
sbsg24
I00
sg25
g26
sbsg24
I00
sg25
g34
sbsg14
I4
sg24
I01
sg25
g35
sba(imyEvolve
Tree
p1077
(dp1078
g14
I3
sg15
(imyEvolve
Tree
p1079
(dp1080
g14
I2
sg15
(imyEvolve
Tree
p1081
(dp1082
g14
I1
sg15
(imyEvolve
Tree
p1083
(dp1084
g14
I0
sg33
F-4.497264825360315
sg20
I01
sbsg21
(imyEvolve
Tree
p1085
(dp1086
g14
I0
sg33
F-0.2926658240422153
sg20
I01
sbsg24
I00
sg25
g26
sbsg21
(imyEvolve
Tree
p1087
(dp1088
g7
(imyEvolve
Tree
p1089
(dp1090
g14
I0
sg20
I00
sbsg14
I1
sg24
I01
sg25
g35
sbsg24
I00
sg25
g47
sbsg21
(imyEvolve
Tree
p1091
(dp1092
g14
I2
sg15
(imyEvolve
Tree
p1093
(dp1094
g14
I1
sg15
(imyEvolve
Tree
p1095
(dp1096
g14
I0
sg20
I00
sbsg21
(imyEvolve
Tree
p1097
(dp1098
g14
I0
sg33
F1.525913915920838
sg20
I01
sbsg24
I00
sg25
g26
sbsg21
(imyEvolve
Tree
p1099
(dp1100
g7
(imyEvolve
Tree
p1101
(dp1102
g14
I0
sg20
I00
sbsg14
I1
sg24
I01
sg25
g36
sbsg24
I00
sg25
g26
sbsg24
I00
sg25
g26
sba(imyEvolve
Tree
p1103
(dp1104
g14
I2
sg15
(imyEvolve
Tree
p1105
(dp1106
g7
(imyEvolve
Tree
p1107
(dp1108
g14
I0
sg20
I00
sbsg14
I1
sg24
I01
sg25
g36
sbsg21
(imyEvolve
Tree
p1109
(dp1110
g7
(imyEvolve
Tree
p1111
(dp1112
g14
I0
sg33
F1.3576521778763588
sg20
I01
sbsg14
I1
sg24
I01
sg25
g80
sbsg24
I00
sg25
g47
sba(imyEvolve
Tree
p1113
(dp1114
g7
(imyEvolve
Tree
p1115
(dp1116
g7
(imyEvolve
Tree
p1117
(dp1118
g14
I0
sg20
I00
sbsg14
I1
sg24
I01
sg25
g80
sbsg14
I2
sg24
I01
sg25
g80
sba(imyEvolve
Tree
p1119
(dp1120
g7
(imyEvolve
Tree
p1121
(dp1122
g7
(imyEvolve
Tree
p1123
(dp1124
g14
I2
sg15
(imyEvolve
Tree
p1125
(dp1126
g7
(imyEvolve
Tree
p1127
(dp1128
g14
I0
sg33
F0.6631827688533329
sg20
I01
sbsg14
I1
sg24
I01
sg25
g36
sbsg21
(imyEvolve
Tree
p1129
(dp1130
g7
(imyEvolve
Tree
p1131
(dp1132
g14
I0
sg33
F-0.3757779832199599
sg20
I01
sbsg14
I1
sg24
I01
sg25
g80
sbsg24
I00
sg25
g34
sbsg14
I3
sg24
I01
sg25
g36
sbsg14
I4
sg24
I01
sg25
g80
sba(imyEvolve
Tree
p1133
(dp1134
g7
(imyEvolve
Tree
p1135
(dp1136
g7
(imyEvolve
Tree
p1137
(dp1138
g7
(imyEvolve
Tree
p1139
(dp1140
g7
(imyEvolve
Tree
p1141
(dp1142
g14
I0
sg20
I00
sbsg14
I1
sg24
I01
sg25
g35
sbsg14
I2
sg24
I01
sg25
g36
sbsg14
I3
sg24
I01
sg25
g80
sbsg14
I4
sg24
I01
sg25
g91
sbaa(lp1143
(imyEvolve
Tree
p1144
(dp1145
g14
I3
sg15
(imyEvolve
Tree
p1146
(dp1147
g7
(imyEvolve
Tree
p1148
(dp1149
g7
(imyEvolve
Tree
p1150
(dp1151
g14
I0
sg33
F-4.370234566239465
sg20
I01
sbsg14
I1
sg24
I01
sg25
g36
sbsg14
I2
sg24
I01
sg25
g80
sbsg21
(imyEvolve
Tree
p1152
(dp1153
g7
(imyEvolve
Tree
p1154
(dp1155
g7
(imyEvolve
Tree
p1156
(dp1157
g14
I0
sg20
I00
sbsg14
I1
sg24
I01
sg25
g36
sbsg14
I2
sg24
I01
sg25
g91
sbsg24
I00
sg25
g34
sba(imyEvolve
Tree
p1158
(dp1159
g14
I4
sg15
(imyEvolve
Tree
p1160
(dp1161
g7
(imyEvolve
Tree
p1162
(dp1163
g14
I2
sg15
(imyEvolve
Tree
p1164
(dp1165
g7
(imyEvolve
Tree
p1166
(dp1167
g14
I0
sg33
F-2.500135188880842
sg20
I01
sbsg14
I1
sg24
I01
sg25
g80
sbsg21
(imyEvolve
Tree
p1168
(dp1169
g14
I1
sg15
(imyEvolve
Tree
p1170
(dp1171
g14
I0
sg20
I00
sbsg21
(imyEvolve
Tree
p1172
(dp1173
g14
I0
sg33
F3.214466726819321
sg20
I01
sbsg24
I00
sg25
g26
sbsg24
I00
sg25
g26
sbsg14
I3
sg24
I01
sg25
g80
sbsg21
(imyEvolve
Tree
p1174
(dp1175
g7
(imyEvolve
Tree
p1176
(dp1177
g7
(imyEvolve
Tree
p1178
(dp1179
g14
I1
sg15
(imyEvolve
Tree
p1180
(dp1181
g14
I0
sg33
F-0.8335462320386631
sg20
I01
sbsg21
(imyEvolve
Tree
p1182
(dp1183
g14
I0
sg33
F-1.1005991331853004
sg20
I01
sbsg24
I00
sg25
g47
sbsg14
I2
sg24
I01
sg25
g91
sbsg14
I3
sg24
I01
sg25
g80
sbsg24
I00
sg25
g47
sba(imyEvolve
Tree
p1184
(dp1185
g7
(imyEvolve
Tree
p1186
(dp1187
g7
(imyEvolve
Tree
p1188
(dp1189
g14
I0
sg33
F3.886964080051973
sg20
I01
sbsg14
I1
sg24
I01
sg25
g80
sbsg14
I2
sg24
I01
sg25
g91
sba(imyEvolve
Tree
p1190
(dp1191
g14
I2
sg15
(imyEvolve
Tree
p1192
(dp1193
g7
(imyEvolve
Tree
p1194
(dp1195
g14
I0
sg33
F-1.7120572807652157
sg20
I01
sbsg14
I1
sg24
I01
sg25
g91
sbsg21
(imyEvolve
Tree
p1196
(dp1197
g14
I1
sg15
(imyEvolve
Tree
p1198
(dp1199
g14
I0
sg20
I00
sbsg21
(imyEvolve
Tree
p1200
(dp1201
g14
I0
sg20
I00
sbsg24
I00
sg25
g47
sbsg24
I00
sg25
g26
sba(imyEvolve
Tree
p1202
(dp1203
g7
(imyEvolve
Tree
p1204
(dp1205
g7
(imyEvolve
Tree
p1206
(dp1207
g14
I1
sg15
(imyEvolve
Tree
p1208
(dp1209
g14
I0
sg20
I00
sbsg21
(imyEvolve
Tree
p1210
(dp1211
g14
I0
sg33
F-4.459108890511576
sg20
I01
sbsg24
I00
sg25
g34
sbsg14
I2
sg24
I01
sg25
g91
sbsg14
I3
sg24
I01
sg25
g80
sba(imyEvolve
Tree
p1212
(dp1213
g7
(imyEvolve
Tree
p1214
(dp1215
g14
I4
sg15
(imyEvolve
Tree
p1216
(dp1217
g14
I3
sg15
(imyEvolve
Tree
p1218
(dp1219
g7
(imyEvolve
Tree
p1220
(dp1221
g7
(imyEvolve
Tree
p1222
(dp1223
g14
I0
sg33
F4.221168375693956
sg20
I01
sbsg14
I1
sg24
I01
sg25
g80
sbsg14
I2
sg24
I01
sg25
g35
sbsg21
(imyEvolve
Tree
p1224
(dp1225
g14
I2
sg15
(imyEvolve
Tree
p1226
(dp1227
g7
(imyEvolve
Tree
p1228
(dp1229
g14
I0
sg20
I00
sbsg14
I1
sg24
I01
sg25
g80
sbsg21
(imyEvolve
Tree
p1230
(dp1231
g7
(imyEvolve
Tree
p1232
(dp1233
g14
I0
sg33
F-3.47122239611159
sg20
I01
sbsg14
I1
sg24
I01
sg25
g91
sbsg24
I00
sg25
g47
sbsg24
I00
sg25
g26
sbsg21
(imyEvolve
Tree
p1234
(dp1235
g14
I3
sg15
(imyEvolve
Tree
p1236
(dp1237
g14
I2
sg15
(imyEvolve
Tree
p1238
(dp1239
g14
I1
sg15
(imyEvolve
Tree
p1240
(dp1241
g14
I0
sg20
I00
sbsg21
(imyEvolve
Tree
p1242
(dp1243
g14
I0
sg20
I00
sbsg24
I00
sg25
g47
sbsg21
(imyEvolve
Tree
p1244
(dp1245
g14
I1
sg15
(imyEvolve
Tree
p1246
(dp1247
g14
I0
sg20
I00
sbsg21
(imyEvolve
Tree
p1248
(dp1249
g14
I0
sg33
F2.5555721109485354
sg20
I01
sbsg24
I00
sg25
g34
sbsg24
I00
sg25
g26
sbsg21
(imyEvolve
Tree
p1250
(dp1251
g14
I2
sg15
(imyEvolve
Tree
p1252
(dp1253
g7
(imyEvolve
Tree
p1254
(dp1255
g14
I0
sg20
I00
sbsg14
I1
sg24
I01
sg25
g91
sbsg21
(imyEvolve
Tree
p1256
(dp1257
g14
I1
sg15
(imyEvolve
Tree
p1258
(dp1259
g14
I0
sg33
F-3.615394667021772
sg20
I01
sbsg21
(imyEvolve
Tree
p1260
(dp1261
g14
I0
sg33
F4.462072205359416
sg20
I01
sbsg24
I00
sg25
g26
sbsg24
I00
sg25
g34
sbsg24
I00
sg25
g26
sbsg24
I00
sg25
g26
sbsg14
I5
sg24
I01
sg25
g36
sba(imyEvolve
Tree
p1262
(dp1263
g7
(imyEvolve
Tree
p1264
(dp1265
g14
I2
sg15
(imyEvolve
Tree
p1266
(dp1267
g7
(imyEvolve
Tree
p1268
(dp1269
g14
I0
sg20
I00
sbsg14
I1
sg24
I01
sg25
g35
sbsg21
(imyEvolve
Tree
p1270
(dp1271
g7
(imyEvolve
Tree
p1272
(dp1273
g14
I0
sg33
F4.314047105711515
sg20
I01
sbsg14
I1
sg24
I01
sg25
g80
sbsg24
I00
sg25
g47
sbsg14
I3
sg24
I01
sg25
g91
sba(imyEvolve
Tree
p1274
(dp1275
g7
(imyEvolve
Tree
p1276
(dp1277
g7
(imyEvolve
Tree
p1278
(dp1279
g7
(imyEvolve
Tree
p1280
(dp1281
g14
I1
sg15
(imyEvolve
Tree
p1282
(dp1283
g14
I0
sg33
F4.867686414524464
sg20
I01
sbsg21
(imyEvolve
Tree
p1284
(dp1285
g14
I0
sg20
I00
sbsg24
I00
sg25
g34
sbsg14
I2
sg24
I01
sg25
g91
sbsg14
I3
sg24
I01
sg25
g35
sbsg14
I4
sg24
I01
sg25
g36
sba(imyEvolve
Tree
p1286
(dp1287
g14
I5
sg15
(imyEvolve
Tree
p1288
(dp1289
g14
I4
sg15
(imyEvolve
Tree
p1290
(dp1291
g14
I3
sg15
(imyEvolve
Tree
p1292
(dp1293
g14
I2
sg15
(imyEvolve
Tree
p1294
(dp1295
g7
(imyEvolve
Tree
p1296
(dp1297
g14
I0
sg20
I00
sbsg14
I1
sg24
I01
sg25
g91
sbsg21
(imyEvolve
Tree
p1298
(dp1299
g14
I1
sg15
(imyEvolve
Tree
p1300
(dp1301
g14
I0
sg33
F1.692414875381047
sg20
I01
sbsg21
(imyEvolve
Tree
p1302
(dp1303
g14
I0
sg33
F-0.12544505706898335
sg20
I01
sbsg24
I00
sg25
g47
sbsg24
I00
sg25
g26
sbsg21
(imyEvolve
Tree
p1304
(dp1305
g14
I2
sg15
(imyEvolve
Tree
p1306
(dp1307
g14
I1
sg15
(imyEvolve
Tree
p1308
(dp1309
g14
I0
sg20
I00
sbsg21
(imyEvolve
Tree
p1310
(dp1311
g14
I0
sg33
F2.657725128477372
sg20
I01
sbsg24
I00
sg25
g34
sbsg21
(imyEvolve
Tree
p1312
(dp1313
g14
I1
sg15
(imyEvolve
Tree
p1314
(dp1315
g14
I0
sg20
I00
sbsg21
(imyEvolve
Tree
p1316
(dp1317
g14
I0
sg20
I00
sbsg24
I00
sg25
g47
sbsg24
I00
sg25
g47
sbsg24
I00
sg25
g26
sbsg21
(imyEvolve
Tree
p1318
(dp1319
g14
I3
sg15
(imyEvolve
Tree
p1320
(dp1321
g14
I2
sg15
(imyEvolve
Tree
p1322
(dp1323
g7
(imyEvolve
Tree
p1324
(dp1325
g14
I0
sg20
I00
sbsg14
I1
sg24
I01
sg25
g36
sbsg21
(imyEvolve
Tree
p1326
(dp1327
g14
I1
sg15
(imyEvolve
Tree
p1328
(dp1329
g14
I0
sg20
I00
sbsg21
(imyEvolve
Tree
p1330
(dp1331
g14
I0
sg33
F3.7719002137883457
sg20
I01
sbsg24
I00
sg25
g26
sbsg24
I00
sg25
g34
sbsg21
(imyEvolve
Tree
p1332
(dp1333
g7
(imyEvolve
Tree
p1334
(dp1335
g7
(imyEvolve
Tree
p1336
(dp1337
g14
I0
sg20
I00
sbsg14
I1
sg24
I01
sg25
g35
sbsg14
I2
sg24
I01
sg25
g80
sbsg24
I00
sg25
g26
sbsg24
I00
sg25
g34
sbsg21
(imyEvolve
Tree
p1338
(dp1339
g7
(imyEvolve
Tree
p1340
(dp1341
g7
(imyEvolve
Tree
p1342
(dp1343
g7
(imyEvolve
Tree
p1344
(dp1345
g14
I1
sg15
(imyEvolve
Tree
p1346
(dp1347
g14
I0
sg20
I00
sbsg21
(imyEvolve
Tree
p1348
(dp1349
g14
I0
sg33
F-0.5928055956431049
sg20
I01
sbsg24
I00
sg25
g26
sbsg14
I2
sg24
I01
sg25
g35
sbsg14
I3
sg24
I01
sg25
g36
sbsg14
I4
sg24
I01
sg25
g35
sbsg24
I00
sg25
g26
sba(imyEvolve
Tree
p1350
(dp1351
g7
(imyEvolve
Tree
p1352
(dp1353
g7
(imyEvolve
Tree
p1354
(dp1355
g7
(imyEvolve
Tree
p1356
(dp1357
g14
I0
sg20
I00
sbsg14
I1
sg24
I01
sg25
g91
sbsg14
I2
sg24
I01
sg25
g91
sbsg14
I3
sg24
I01
sg25
g80
sba(imyEvolve
Tree
p1358
(dp1359
g7
(imyEvolve
Tree
p1360
(dp1361
g14
I1
sg15
(imyEvolve
Tree
p1362
(dp1363
g14
I0
sg20
I00
sbsg21
(imyEvolve
Tree
p1364
(dp1365
g14
I0
sg20
I00
sbsg24
I00
sg25
g34
sbsg14
I2
sg24
I01
sg25
g36
sbaasS'weightSharing'
p1366
(lp1367
I00
asS'fitnessValid'
p1368
I00
sS'fitness'
p1369
cnumpy.core.multiarray
scalar
p1370
(cnumpy
dtype
p1371
(S'f8'
p1372
I0
I1
tp1373
Rp1374
(I3
S'<'
p1375
NNNI-1
I-1
I0
tp1376
bS"\xee|?'\x05+\xe6?"
p1377
tp1378
Rp1379
sS'alpha'
p1380
F0.003989517962678279
sS'resolution'
p1381
I79
sb.