(imyEvolve
Individual
p0
(dp1
S'funcs'
p2
(lp3
(lp4
(imyEvolve
Tree
p5
(dp6
S'depth'
p7
I5
sS'left'
p8
(imyEvolve
Tree
p9
(dp10
g7
I4
sg8
(imyEvolve
Tree
p11
(dp12
S'below'
p13
(imyEvolve
Tree
p14
(dp15
g13
(imyEvolve
Tree
p16
(dp17
g7
I1
sg8
(imyEvolve
Tree
p18
(dp19
g7
I0
sS'isConstant'
p20
I00
sbsS'right'
p21
(imyEvolve
Tree
p22
(dp23
g7
I0
sS'constant'
p24
F3.068149103553454
sg20
I01
sbsS'single'
p25
I00
sS'op'
p26
coperator
add
p27
sbsg7
I2
sg25
I01
sg26
cmyEvolve
square
p28
sbsg7
I3
sg25
I01
sg26
g28
sbsg21
(imyEvolve
Tree
p29
(dp30
g13
(imyEvolve
Tree
p31
(dp32
g13
(imyEvolve
Tree
p33
(dp34
g7
I1
sg8
(imyEvolve
Tree
p35
(dp36
g7
I0
sg20
I00
sbsg21
(imyEvolve
Tree
p37
(dp38
g7
I0
sg20
I00
sbsg25
I00
sg26
g27
sbsg7
I2
sg25
I01
sg26
cmyEvolve
absSqrt
p39
sbsg7
I3
sg25
I01
sg26
cmath
cos
p40
sbsg25
I00
sg26
coperator
mul
p41
sbsg21
(imyEvolve
Tree
p42
(dp43
g7
I4
sg8
(imyEvolve
Tree
p44
(dp45
g7
I3
sg8
(imyEvolve
Tree
p46
(dp47
g13
(imyEvolve
Tree
p48
(dp49
g7
I1
sg8
(imyEvolve
Tree
p50
(dp51
g7
I0
sg20
I00
sbsg21
(imyEvolve
Tree
p52
(dp53
g7
I0
sg20
I00
sbsg25
I00
sg26
g41
sbsg7
I2
sg25
I01
sg26
g39
sbsg21
(imyEvolve
Tree
p54
(dp55
g7
I2
sg8
(imyEvolve
Tree
p56
(dp57
g13
(imyEvolve
Tree
p58
(dp59
g7
I0
sg24
F3.5818815417377277
sg20
I01
sbsg7
I1
sg25
I01
sg26
g39
sbsg21
(imyEvolve
Tree
p60
(dp61
g7
I1
sg8
(imyEvolve
Tree
p62
(dp63
g7
I0
sg20
I00
sbsg21
(imyEvolve
Tree
p64
(dp65
g7
I0
sg20
I00
sbsg25
I00
sg26
g41
sbsg25
I00
sg26
coperator
sub
p66
sbsg25
I00
sg26
g41
sbsg21
(imyEvolve
Tree
p67
(dp68
g7
I3
sg8
(imyEvolve
Tree
p69
(dp70
g13
(imyEvolve
Tree
p71
(dp72
g13
(imyEvolve
Tree
p73
(dp74
g7
I0
sg24
F-4.382994511272152
sg20
I01
sbsg7
I1
sg25
I01
sg26
g39
sbsg7
I2
sg25
I01
sg26
g39
sbsg21
(imyEvolve
Tree
p75
(dp76
g7
I2
sg8
(imyEvolve
Tree
p77
(dp78
g7
I1
sg8
(imyEvolve
Tree
p79
(dp80
g7
I0
sg20
I00
sbsg21
(imyEvolve
Tree
p81
(dp82
g7
I0
sg20
I00
sbsg25
I00
sg26
g66
sbsg21
(imyEvolve
Tree
p83
(dp84
g7
I1
sg8
(imyEvolve
Tree
p85
(dp86
g7
I0
sg20
I00
sbsg21
(imyEvolve
Tree
p87
(dp88
g7
I0
sg20
I00
sbsg25
I00
sg26
g41
sbsg25
I00
sg26
g27
sbsg25
I00
sg26
g66
sbsg25
I00
sg26
g27
sbsg25
I00
sg26
g41
sba(imyEvolve
Tree
p89
(dp90
g7
I2
sg8
(imyEvolve
Tree
p91
(dp92
g7
I1
sg8
(imyEvolve
Tree
p93
(dp94
g7
I0
sg24
F0.9302543518189825
sg20
I01
sbsg21
(imyEvolve
Tree
p95
(dp96
g7
I0
sg20
I00
sbsg25
I00
sg26
g41
sbsg21
(imyEvolve
Tree
p97
(dp98
g13
(imyEvolve
Tree
p99
(dp100
g7
I0
sg20
I00
sbsg7
I1
sg25
I01
sg26
g28
sbsg25
I00
sg26
g41
sba(imyEvolve
Tree
p101
(dp102
g13
(imyEvolve
Tree
p103
(dp104
g7
I4
sg8
(imyEvolve
Tree
p105
(dp106
g7
I3
sg8
(imyEvolve
Tree
p107
(dp108
g13
(imyEvolve
Tree
p109
(dp110
g7
I1
sg8
(imyEvolve
Tree
p111
(dp112
g7
I0
sg24
F1.638906954701465
sg20
I01
sbsg21
(imyEvolve
Tree
p113
(dp114
g7
I0
sg20
I00
sbsg25
I00
sg26
g27
sbsg7
I2
sg25
I01
sg26
g28
sbsg21
(imyEvolve
Tree
p115
(dp116
g7
I2
sg8
(imyEvolve
Tree
p117
(dp118
g13
(imyEvolve
Tree
p119
(dp120
g7
I0
sg24
F0.4933739892545761
sg20
I01
sbsg7
I1
sg25
I01
sg26
cmath
sin
p121
sbsg21
(imyEvolve
Tree
p122
(dp123
g7
I1
sg8
(imyEvolve
Tree
p124
(dp125
g7
I0
sg24
F3.80982987192869
sg20
I01
sbsg21
(imyEvolve
Tree
p126
(dp127
g7
I0
sg20
I00
sbsg25
I00
sg26
g27
sbsg25
I00
sg26
g66
sbsg25
I00
sg26
g41
sbsg21
(imyEvolve
Tree
p128
(dp129
g13
(imyEvolve
Tree
p130
(dp131
g7
I2
sg8
(imyEvolve
Tree
p132
(dp133
g13
(imyEvolve
Tree
p134
(dp135
g7
I0
sg24
F1.4087548531871485
sg20
I01
sbsg7
I1
sg25
I01
sg26
g28
sbsg21
(imyEvolve
Tree
p136
(dp137
g13
(imyEvolve
Tree
p138
(dp139
g7
I0
sg24
F-2.851411796026114
sg20
I01
sbsg7
I1
sg25
I01
sg26
g40
sbsg25
I00
sg26
g66
sbsg7
I3
sg25
I01
sg26
g28
sbsg25
I00
sg26
g66
sbsg7
I5
sg25
I01
sg26
g121
sba(imyEvolve
Tree
p140
(dp141
g13
(imyEvolve
Tree
p142
(dp143
g13
(imyEvolve
Tree
p144
(dp145
g7
I0
sg24
F1.9550039407389397
sg20
I01
sbsg7
I1
sg25
I01
sg26
g28
sbsg7
I2
sg25
I01
sg26
g28
sba(imyEvolve
Tree
p146
(dp147
g13
(imyEvolve
Tree
p148
(dp149
g7
I3
sg8
(imyEvolve
Tree
p150
(dp151
g7
I2
sg8
(imyEvolve
Tree
p152
(dp153
g7
I1
sg8
(imyEvolve
Tree
p154
(dp155
g7
I0
sg20
I00
sbsg21
(imyEvolve
Tree
p156
(dp157
g7
I0
sg24
F4.793990073448185
sg20
I01
sbsg25
I00
sg26
g41
sbsg21
(imyEvolve
Tree
p158
(dp159
g13
(imyEvolve
Tree
p160
(dp161
g7
I0
sg24
F-1.176028178343811
sg20
I01
sbsg7
I1
sg25
I01
sg26
g40
sbsg25
I00
sg26
g66
sbsg21
(imyEvolve
Tree
p162
(dp163
g13
(imyEvolve
Tree
p164
(dp165
g13
(imyEvolve
Tree
p166
(dp167
g7
I0
sg24
F-0.22691145683505187
sg20
I01
sbsg7
I1
sg25
I01
sg26
g28
sbsg7
I2
sg25
I01
sg26
g39
sbsg25
I00
sg26
g27
sbsg7
I4
sg25
I01
sg26
g28
sba(imyEvolve
Tree
p168
(dp169
g13
(imyEvolve
Tree
p170
(dp171
g13
(imyEvolve
Tree
p172
(dp173
g7
I2
sg8
(imyEvolve
Tree
p174
(dp175
g7
I1
sg8
(imyEvolve
Tree
p176
(dp177
g7
I0
sg20
I00
sbsg21
(imyEvolve
Tree
p178
(dp179
g7
I0
sg24
F-2.848659988161776
sg20
I01
sbsg25
I00
sg26
g66
sbsg21
(imyEvolve
Tree
p180
(dp181
g7
I1
sg8
(imyEvolve
Tree
p182
(dp183
g7
I0
sg24
F-1.6443291226700305
sg20
I01
sbsg21
(imyEvolve
Tree
p184
(dp185
g7
I0
sg20
I00
sbsg25
I00
sg26
g27
sbsg25
I00
sg26
g41
sbsg7
I3
sg25
I01
sg26
g28
sbsg7
I4
sg25
I01
sg26
g39
sba(imyEvolve
Tree
p186
(dp187
g7
I2
sg8
(imyEvolve
Tree
p188
(dp189
g7
I1
sg8
(imyEvolve
Tree
p190
(dp191
g7
I0
sg20
I00
sbsg21
(imyEvolve
Tree
p192
(dp193
g7
I0
sg24
F4.198227606935729
sg20
I01
sbsg25
I00
sg26
g66
sbsg21
(imyEvolve
Tree
p194
(dp195
g13
(imyEvolve
Tree
p196
(dp197
g7
I0
sg20
I00
sbsg7
I1
sg25
I01
sg26
g39
sbsg25
I00
sg26
g66
sba(imyEvolve
Tree
p198
(dp199
g7
I3
sg8
(imyEvolve
Tree
p200
(dp201
g7
I2
sg8
(imyEvolve
Tree
p202
(dp203
g13
(imyEvolve
Tree
p204
(dp205
g7
I0
sg20
I00
sbsg7
I1
sg25
I01
sg26
g121
sbsg21
(imyEvolve
Tree
p206
(dp207
g7
I1
sg8
(imyEvolve
Tree
p208
(dp209
g7
I0
sg24
F-1.6408877691168011
sg20
I01
sbsg21
(imyEvolve
Tree
p210
(dp211
g7
I0
sg24
F4.374231212964986
sg20
I01
sbsg25
I00
sg26
g66
sbsg25
I00
sg26
g27
sbsg21
(imyEvolve
Tree
p212
(dp213
g7
I2
sg8
(imyEvolve
Tree
p214
(dp215
g7
I1
sg8
(imyEvolve
Tree
p216
(dp217
g7
I0
sg20
I00
sbsg21
(imyEvolve
Tree
p218
(dp219
g7
I0
sg24
F-0.5058968701145741
sg20
I01
sbsg25
I00
sg26
g66
sbsg21
(imyEvolve
Tree
p220
(dp221
g13
(imyEvolve
Tree
p222
(dp223
g7
I0
sg20
I00
sbsg7
I1
sg25
I01
sg26
g40
sbsg25
I00
sg26
g41
sbsg25
I00
sg26
g41
sba(imyEvolve
Tree
p224
(dp225
g13
(imyEvolve
Tree
p226
(dp227
g7
I3
sg8
(imyEvolve
Tree
p228
(dp229
g13
(imyEvolve
Tree
p230
(dp231
g7
I1
sg8
(imyEvolve
Tree
p232
(dp233
g7
I0
sg24
F-4.2732681928648475
sg20
I01
sbsg21
(imyEvolve
Tree
p234
(dp235
g7
I0
sg24
F-3.3261488113253335
sg20
I01
sbsg25
I00
sg26
g66
sbsg7
I2
sg25
I01
sg26
g40
sbsg21
(imyEvolve
Tree
p236
(dp237
g13
(imyEvolve
Tree
p238
(dp239
g7
I1
sg8
(imyEvolve
Tree
p240
(dp241
g7
I0
sg20
I00
sbsg21
(imyEvolve
Tree
p242
(dp243
g7
I0
sg20
I00
sbsg25
I00
sg26
g41
sbsg7
I2
sg25
I01
sg26
g40
sbsg25
I00
sg26
g41
sbsg7
I4
sg25
I01
sg26
g28
sba(imyEvolve
Tree
p244
(dp245
g13
(imyEvolve
Tree
p246
(dp247
g13
(imyEvolve
Tree
p248
(dp249
g13
(imyEvolve
Tree
p250
(dp251
g13
(imyEvolve
Tree
p252
(dp253
g7
I0
sg20
I00
sbsg7
I1
sg25
I01
sg26
g28
sbsg7
I2
sg25
I01
sg26
g121
sbsg7
I3
sg25
I01
sg26
g40
sbsg7
I4
sg25
I01
sg26
g121
sbaa(lp254
(imyEvolve
Tree
p255
(dp256
g13
(imyEvolve
Tree
p257
(dp258
g7
I3
sg8
(imyEvolve
Tree
p259
(dp260
g13
(imyEvolve
Tree
p261
(dp262
g7
I1
sg8
(imyEvolve
Tree
p263
(dp264
g7
I0
sg20
I00
sbsg21
(imyEvolve
Tree
p265
(dp266
g7
I0
sg20
I00
sbsg25
I00
sg26
g66
sbsg7
I2
sg25
I01
sg26
g28
sbsg21
(imyEvolve
Tree
p267
(dp268
g7
I2
sg8
(imyEvolve
Tree
p269
(dp270
g7
I1
sg8
(imyEvolve
Tree
p271
(dp272
g7
I0
sg24
F-4.963977066390131
sg20
I01
sbsg21
(imyEvolve
Tree
p273
(dp274
g7
I0
sg24
F4.048165145317858
sg20
I01
sbsg25
I00
sg26
g41
sbsg21
(imyEvolve
Tree
p275
(dp276
g13
(imyEvolve
Tree
p277
(dp278
g7
I0
sg20
I00
sbsg7
I1
sg25
I01
sg26
g39
sbsg25
I00
sg26
g27
sbsg25
I00
sg26
g41
sbsg7
I4
sg25
I01
sg26
g40
sba(imyEvolve
Tree
p279
(dp280
g13
(imyEvolve
Tree
p281
(dp282
g7
I2
sg8
(imyEvolve
Tree
p283
(dp284
g7
I1
sg8
(imyEvolve
Tree
p285
(dp286
g7
I0
sg20
I00
sbsg21
(imyEvolve
Tree
p287
(dp288
g7
I0
sg20
I00
sbsg25
I00
sg26
g41
sbsg21
(imyEvolve
Tree
p289
(dp290
g7
I1
sg8
(imyEvolve
Tree
p291
(dp292
g7
I0
sg24
F-3.55941248088493
sg20
I01
sbsg21
(imyEvolve
Tree
p293
(dp294
g7
I0
sg20
I00
sbsg25
I00
sg26
g66
sbsg25
I00
sg26
g27
sbsg7
I3
sg25
I01
sg26
g40
sba(imyEvolve
Tree
p295
(dp296
g13
(imyEvolve
Tree
p297
(dp298
g13
(imyEvolve
Tree
p299
(dp300
g13
(imyEvolve
Tree
p301
(dp302
g7
I0
sg24
F4.438204128160308
sg20
I01
sbsg7
I1
sg25
I01
sg26
g28
sbsg7
I2
sg25
I01
sg26
g28
sbsg7
I3
sg25
I01
sg26
g40
sba(imyEvolve
Tree
p303
(dp304
g7
I3
sg8
(imyEvolve
Tree
p305
(dp306
g7
I2
sg8
(imyEvolve
Tree
p307
(dp308
g7
I1
sg8
(imyEvolve
Tree
p309
(dp310
g7
I0
sg20
I00
sbsg21
(imyEvolve
Tree
p311
(dp312
g7
I0
sg20
I00
sbsg25
I00
sg26
g41
sbsg21
(imyEvolve
Tree
p313
(dp314
g13
(imyEvolve
Tree
p315
(dp316
g7
I0
sg24
F1.454859014505118
sg20
I01
sbsg7
I1
sg25
I01
sg26
g28
sbsg25
I00
sg26
g41
sbsg21
(imyEvolve
Tree
p317
(dp318
g13
(imyEvolve
Tree
p319
(dp320
g7
I1
sg8
(imyEvolve
Tree
p321
(dp322
g7
I0
sg20
I00
sbsg21
(imyEvolve
Tree
p323
(dp324
g7
I0
sg24
F3.592643324739143
sg20
I01
sbsg25
I00
sg26
g66
sbsg7
I2
sg25
I01
sg26
g121
sbsg25
I00
sg26
g27
sba(imyEvolve
Tree
p325
(dp326
g7
I4
sg8
(imyEvolve
Tree
p327
(dp328
g13
(imyEvolve
Tree
p329
(dp330
g13
(imyEvolve
Tree
p331
(dp332
g7
I1
sg8
(imyEvolve
Tree
p333
(dp334
g7
I0
sg20
I00
sbsg21
(imyEvolve
Tree
p335
(dp336
g7
I0
sg20
I00
sbsg25
I00
sg26
g66
sbsg7
I2
sg25
I01
sg26
g39
sbsg7
I3
sg25
I01
sg26
g28
sbsg21
(imyEvolve
Tree
p337
(dp338
g7
I3
sg8
(imyEvolve
Tree
p339
(dp340
g13
(imyEvolve
Tree
p341
(dp342
g13
(imyEvolve
Tree
p343
(dp344
g7
I0
sg24
F-4.732947620107067
sg20
I01
sbsg7
I1
sg25
I01
sg26
g39
sbsg7
I2
sg25
I01
sg26
g39
sbsg21
(imyEvolve
Tree
p345
(dp346
g13
(imyEvolve
Tree
p347
(dp348
g7
I1
sg8
(imyEvolve
Tree
p349
(dp350
g7
I0
sg20
I00
sbsg21
(imyEvolve
Tree
p351
(dp352
g7
I0
sg24
F2.555928624864525
sg20
I01
sbsg25
I00
sg26
g66
sbsg7
I2
sg25
I01
sg26
g28
sbsg25
I00
sg26
g27
sbsg25
I00
sg26
g27
sba(imyEvolve
Tree
p353
(dp354
g7
I3
sg8
(imyEvolve
Tree
p355
(dp356
g7
I2
sg8
(imyEvolve
Tree
p357
(dp358
g13
(imyEvolve
Tree
p359
(dp360
g7
I0
sg24
F2.779939483803523
sg20
I01
sbsg7
I1
sg25
I01
sg26
g28
sbsg21
(imyEvolve
Tree
p361
(dp362
g7
I1
sg8
(imyEvolve
Tree
p363
(dp364
g7
I0
sg20
I00
sbsg21
(imyEvolve
Tree
p365
(dp366
g7
I0
sg20
I00
sbsg25
I00
sg26
g66
sbsg25
I00
sg26
g27
sbsg21
(imyEvolve
Tree
p367
(dp368
g7
I2
sg8
(imyEvolve
Tree
p369
(dp370
g7
I1
sg8
(imyEvolve
Tree
p371
(dp372
g7
I0
sg24
F-2.4003509852476324
sg20
I01
sbsg21
(imyEvolve
Tree
p373
(dp374
g7
I0
sg20
I00
sbsg25
I00
sg26
g41
sbsg21
(imyEvolve
Tree
p375
(dp376
g13
(imyEvolve
Tree
p377
(dp378
g7
I0
sg24
F3.9218577828591066
sg20
I01
sbsg7
I1
sg25
I01
sg26
g28
sbsg25
I00
sg26
g27
sbsg25
I00
sg26
g27
sba(imyEvolve
Tree
p379
(dp380
g7
I4
sg8
(imyEvolve
Tree
p381
(dp382
g7
I3
sg8
(imyEvolve
Tree
p383
(dp384
g13
(imyEvolve
Tree
p385
(dp386
g13
(imyEvolve
Tree
p387
(dp388
g7
I0
sg24
F1.425250404766257
sg20
I01
sbsg7
I1
sg25
I01
sg26
g39
sbsg7
I2
sg25
I01
sg26
g40
sbsg21
(imyEvolve
Tree
p389
(dp390
g7
I2
sg8
(imyEvolve
Tree
p391
(dp392
g13
(imyEvolve
Tree
p393
(dp394
g7
I0
sg20
I00
sbsg7
I1
sg25
I01
sg26
g39
sbsg21
(imyEvolve
Tree
p395
(dp396
g7
I1
sg8
(imyEvolve
Tree
p397
(dp398
g7
I0
sg20
I00
sbsg21
(imyEvolve
Tree
p399
(dp400
g7
I0
sg24
F1.360180013537196
sg20
I01
sbsg25
I00
sg26
g41
sbsg25
I00
sg26
g27
sbsg25
I00
sg26
g66
sbsg21
(imyEvolve
Tree
p401
(dp402
g7
I3
sg8
(imyEvolve
Tree
p403
(dp404
g13
(imyEvolve
Tree
p405
(dp406
g7
I1
sg8
(imyEvolve
Tree
p407
(dp408
g7
I0
sg20
I00
sbsg21
(imyEvolve
Tree
p409
(dp410
g7
I0
sg24
F-0.8287858225908806
sg20
I01
sbsg25
I00
sg26
g66
sbsg7
I2
sg25
I01
sg26
g40
sbsg21
(imyEvolve
Tree
p411
(dp412
g7
I2
sg8
(imyEvolve
Tree
p413
(dp414
g7
I1
sg8
(imyEvolve
Tree
p415
(dp416
g7
I0
sg20
I00
sbsg21
(imyEvolve
Tree
p417
(dp418
g7
I0
sg20
I00
sbsg25
I00
sg26
g41
sbsg21
(imyEvolve
Tree
p419
(dp420
g13
(imyEvolve
Tree
p421
(dp422
g7
I0
sg24
F-3.198992521269858
sg20
I01
sbsg7
I1
sg25
I01
sg26
g40
sbsg25
I00
sg26
g66
sbsg25
I00
sg26
g27
sbsg25
I00
sg26
g66
sba(imyEvolve
Tree
p423
(dp424
g13
(imyEvolve
Tree
p425
(dp426
g7
I2
sg8
(imyEvolve
Tree
p427
(dp428
g13
(imyEvolve
Tree
p429
(dp430
g7
I0
sg20
I00
sbsg7
I1
sg25
I01
sg26
g28
sbsg21
(imyEvolve
Tree
p431
(dp432
g7
I1
sg8
(imyEvolve
Tree
p433
(dp434
g7
I0
sg20
I00
sbsg21
(imyEvolve
Tree
p435
(dp436
g7
I0
sg24
F-0.3402677431778356
sg20
I01
sbsg25
I00
sg26
g66
sbsg25
I00
sg26
g27
sbsg7
I3
sg25
I01
sg26
g121
sba(imyEvolve
Tree
p437
(dp438
g13
(imyEvolve
Tree
p439
(dp440
g13
(imyEvolve
Tree
p441
(dp442
g7
I2
sg8
(imyEvolve
Tree
p443
(dp444
g7
I1
sg8
(imyEvolve
Tree
p445
(dp446
g7
I0
sg24
F1.8765466037149592
sg20
I01
sbsg21
(imyEvolve
Tree
p447
(dp448
g7
I0
sg20
I00
sbsg25
I00
sg26
g27
sbsg21
(imyEvolve
Tree
p449
(dp450
g13
(imyEvolve
Tree
p451
(dp452
g7
I0
sg20
I00
sbsg7
I1
sg25
I01
sg26
g28
sbsg25
I00
sg26
g41
sbsg7
I3
sg25
I01
sg26
g39
sbsg7
I4
sg25
I01
sg26
g39
sba(imyEvolve
Tree
p453
(dp454
g13
(imyEvolve
Tree
p455
(dp456
g13
(imyEvolve
Tree
p457
(dp458
g7
I2
sg8
(imyEvolve
Tree
p459
(dp460
g7
I1
sg8
(imyEvolve
Tree
p461
(dp462
g7
I0
sg20
I00
sbsg21
(imyEvolve
Tree
p463
(dp464
g7
I0
sg24
F-1.7059973344650272
sg20
I01
sbsg25
I00
sg26
g27
sbsg21
(imyEvolve
Tree
p465
(dp466
g7
I1
sg8
(imyEvolve
Tree
p467
(dp468
g7
I0
sg24
F0.27319446521274937
sg20
I01
sbsg21
(imyEvolve
Tree
p469
(dp470
g7
I0
sg24
F4.638790628984994
sg20
I01
sbsg25
I00
sg26
g27
sbsg25
I00
sg26
g66
sbsg7
I3
sg25
I01
sg26
g28
sbsg7
I4
sg25
I01
sg26
g39
sba(imyEvolve
Tree
p471
(dp472
g13
(imyEvolve
Tree
p473
(dp474
g13
(imyEvolve
Tree
p475
(dp476
g7
I2
sg8
(imyEvolve
Tree
p477
(dp478
g13
(imyEvolve
Tree
p479
(dp480
g7
I0
sg24
F2.147902805793297
sg20
I01
sbsg7
I1
sg25
I01
sg26
g121
sbsg21
(imyEvolve
Tree
p481
(dp482
g13
(imyEvolve
Tree
p483
(dp484
g7
I0
sg20
I00
sbsg7
I1
sg25
I01
sg26
g28
sbsg25
I00
sg26
g66
sbsg7
I3
sg25
I01
sg26
g28
sbsg7
I4
sg25
I01
sg26
g39
sba(imyEvolve
Tree
p485
(dp486
g13
(imyEvolve
Tree
p487
(dp488
g7
I3
sg8
(imyEvolve
Tree
p489
(dp490
g7
I2
sg8
(imyEvolve
Tree
p491
(dp492
g13
(imyEvolve
Tree
p493
(dp494
g7
I0
sg20
I00
sbsg7
I1
sg25
I01
sg26
g40
sbsg21
(imyEvolve
Tree
p495
(dp496
g7
I1
sg8
(imyEvolve
Tree
p497
(dp498
g7
I0
sg20
I00
sbsg21
(imyEvolve
Tree
p499
(dp500
g7
I0
sg24
F4.3222941706389815
sg20
I01
sbsg25
I00
sg26
g41
sbsg25
I00
sg26
g27
sbsg21
(imyEvolve
Tree
p501
(dp502
g7
I2
sg8
(imyEvolve
Tree
p503
(dp504
g7
I1
sg8
(imyEvolve
Tree
p505
(dp506
g7
I0
sg20
I00
sbsg21
(imyEvolve
Tree
p507
(dp508
g7
I0
sg24
F1.9483608419904055
sg20
I01
sbsg25
I00
sg26
g41
sbsg21
(imyEvolve
Tree
p509
(dp510
g13
(imyEvolve
Tree
p511
(dp512
g7
I0
sg20
I00
sbsg7
I1
sg25
I01
sg26
g39
sbsg25
I00
sg26
g27
sbsg25
I00
sg26
g41
sbsg7
I4
sg25
I01
sg26
g121
sba(imyEvolve
Tree
p513
(dp514
g7
I4
sg8
(imyEvolve
Tree
p515
(dp516
g13
(imyEvolve
Tree
p517
(dp518
g13
(imyEvolve
Tree
p519
(dp520
g13
(imyEvolve
Tree
p521
(dp522
g7
I0
sg24
F-1.1613375866601459
sg20
I01
sbsg7
I1
sg25
I01
sg26
g40
sbsg7
I2
sg25
I01
sg26
g40
sbsg7
I3
sg25
I01
sg26
g40
sbsg21
(imyEvolve
Tree
p523
(dp524
g13
(imyEvolve
Tree
p525
(dp526
g7
I2
sg8
(imyEvolve
Tree
p527
(dp528
g13
(imyEvolve
Tree
p529
(dp530
g7
I0
sg20
I00
sbsg7
I1
sg25
I01
sg26
g40
sbsg21
(imyEvolve
Tree
p531
(dp532
g7
I1
sg8
(imyEvolve
Tree
p533
(dp534
g7
I0
sg20
I00
sbsg21
(imyEvolve
Tree
p535
(dp536
g7
I0
sg24
F0.6503815716915273
sg20
I01
sbsg25
I00
sg26
g27
sbsg25
I00
sg26
g27
sbsg7
I3
sg25
I01
sg26
g40
sbsg25
I00
sg26
g66
sba(imyEvolve
Tree
p537
(dp538
g7
I4
sg8
(imyEvolve
Tree
p539
(dp540
g7
I3
sg8
(imyEvolve
Tree
p541
(dp542
g13
(imyEvolve
Tree
p543
(dp544
g7
I1
sg8
(imyEvolve
Tree
p545
(dp546
g7
I0
sg24
F-4.624194306992516
sg20
I01
sbsg21
(imyEvolve
Tree
p547
(dp548
g7
I0
sg20
I00
sbsg25
I00
sg26
g66
sbsg7
I2
sg25
I01
sg26
g121
sbsg21
(imyEvolve
Tree
p549
(dp550
g7
I2
sg8
(imyEvolve
Tree
p551
(dp552
g13
(imyEvolve
Tree
p553
(dp554
g7
I0
sg24
F-3.636471581611751
sg20
I01
sbsg7
I1
sg25
I01
sg26
g28
sbsg21
(imyEvolve
Tree
p555
(dp556
g13
(imyEvolve
Tree
p557
(dp558
g7
I0
sg20
I00
sbsg7
I1
sg25
I01
sg26
g40
sbsg25
I00
sg26
g27
sbsg25
I00
sg26
g27
sbsg21
(imyEvolve
Tree
p559
(dp560
g13
(imyEvolve
Tree
p561
(dp562
g7
I2
sg8
(imyEvolve
Tree
p563
(dp564
g13
(imyEvolve
Tree
p565
(dp566
g7
I0
sg24
F-4.972067432655667
sg20
I01
sbsg7
I1
sg25
I01
sg26
g121
sbsg21
(imyEvolve
Tree
p567
(dp568
g13
(imyEvolve
Tree
p569
(dp570
g7
I0
sg24
F2.6644948947505345
sg20
I01
sbsg7
I1
sg25
I01
sg26
g28
sbsg25
I00
sg26
g41
sbsg7
I3
sg25
I01
sg26
g121
sbsg25
I00
sg26
g41
sba(imyEvolve
Tree
p571
(dp572
g13
(imyEvolve
Tree
p573
(dp574
g13
(imyEvolve
Tree
p575
(dp576
g7
I3
sg8
(imyEvolve
Tree
p577
(dp578
g13
(imyEvolve
Tree
p579
(dp580
g7
I1
sg8
(imyEvolve
Tree
p581
(dp582
g7
I0
sg20
I00
sbsg21
(imyEvolve
Tree
p583
(dp584
g7
I0
sg20
I00
sbsg25
I00
sg26
g27
sbsg7
I2
sg25
I01
sg26
g28
sbsg21
(imyEvolve
Tree
p585
(dp586
g13
(imyEvolve
Tree
p587
(dp588
g13
(imyEvolve
Tree
p589
(dp590
g7
I0
sg24
F1.6852426512700012
sg20
I01
sbsg7
I1
sg25
I01
sg26
g121
sbsg7
I2
sg25
I01
sg26
g28
sbsg25
I00
sg26
g41
sbsg7
I4
sg25
I01
sg26
g40
sbsg7
I5
sg25
I01
sg26
g40
sba(imyEvolve
Tree
p591
(dp592
g7
I3
sg8
(imyEvolve
Tree
p593
(dp594
g13
(imyEvolve
Tree
p595
(dp596
g7
I1
sg8
(imyEvolve
Tree
p597
(dp598
g7
I0
sg24
F-3.878543591343563
sg20
I01
sbsg21
(imyEvolve
Tree
p599
(dp600
g7
I0
sg20
I00
sbsg25
I00
sg26
g27
sbsg7
I2
sg25
I01
sg26
g121
sbsg21
(imyEvolve
Tree
p601
(dp602
g13
(imyEvolve
Tree
p603
(dp604
g13
(imyEvolve
Tree
p605
(dp606
g7
I0
sg20
I00
sbsg7
I1
sg25
I01
sg26
g39
sbsg7
I2
sg25
I01
sg26
g39
sbsg25
I00
sg26
g41
sba(imyEvolve
Tree
p607
(dp608
g7
I5
sg8
(imyEvolve
Tree
p609
(dp610
g13
(imyEvolve
Tree
p611
(dp612
g7
I3
sg8
(imyEvolve
Tree
p613
(dp614
g7
I2
sg8
(imyEvolve
Tree
p615
(dp616
g13
(imyEvolve
Tree
p617
(dp618
g7
I0
sg24
F-0.818691465973945
sg20
I01
sbsg7
I1
sg25
I01
sg26
g40
sbsg21
(imyEvolve
Tree
p619
(dp620
g7
I1
sg8
(imyEvolve
Tree
p621
(dp622
g7
I0
sg20
I00
sbsg21
(imyEvolve
Tree
p623
(dp624
g7
I0
sg20
I00
sbsg25
I00
sg26
g41
sbsg25
I00
sg26
g41
sbsg21
(imyEvolve
Tree
p625
(dp626
g7
I2
sg8
(imyEvolve
Tree
p627
(dp628
g7
I1
sg8
(imyEvolve
Tree
p629
(dp630
g7
I0
sg20
I00
sbsg21
(imyEvolve
Tree
p631
(dp632
g7
I0
sg20
I00
sbsg25
I00
sg26
g66
sbsg21
(imyEvolve
Tree
p633
(dp634
g13
(imyEvolve
Tree
p635
(dp636
g7
I0
sg24
F-0.13138616866445663
sg20
I01
sbsg7
I1
sg25
I01
sg26
g28
sbsg25
I00
sg26
g41
sbsg25
I00
sg26
g27
sbsg7
I4
sg25
I01
sg26
g40
sbsg21
(imyEvolve
Tree
p637
(dp638
g13
(imyEvolve
Tree
p639
(dp640
g13
(imyEvolve
Tree
p641
(dp642
g13
(imyEvolve
Tree
p643
(dp644
g7
I1
sg8
(imyEvolve
Tree
p645
(dp646
g7
I0
sg20
I00
sbsg21
(imyEvolve
Tree
p647
(dp648
g7
I0
sg24
F-4.502408829617491
sg20
I01
sbsg25
I00
sg26
g66
sbsg7
I2
sg25
I01
sg26
g121
sbsg7
I3
sg25
I01
sg26
g39
sbsg7
I4
sg25
I01
sg26
g40
sbsg25
I00
sg26
g66
sba(imyEvolve
Tree
p649
(dp650
g7
I5
sg8
(imyEvolve
Tree
p651
(dp652
g13
(imyEvolve
Tree
p653
(dp654
g13
(imyEvolve
Tree
p655
(dp656
g7
I2
sg8
(imyEvolve
Tree
p657
(dp658
g7
I1
sg8
(imyEvolve
Tree
p659
(dp660
g7
I0
sg24
F1.2427742445515086
sg20
I01
sbsg21
(imyEvolve
Tree
p661
(dp662
g7
I0
sg24
F0.5353763533065319
sg20
I01
sbsg25
I00
sg26
g27
sbsg21
(imyEvolve
Tree
p663
(dp664
g13
(imyEvolve
Tree
p665
(dp666
g7
I0
sg24
F0.23318337869984251
sg20
I01
sbsg7
I1
sg25
I01
sg26
g39
sbsg25
I00
sg26
g41
sbsg7
I3
sg25
I01
sg26
g39
sbsg7
I4
sg25
I01
sg26
g39
sbsg21
(imyEvolve
Tree
p667
(dp668
g7
I4
sg8
(imyEvolve
Tree
p669
(dp670
g13
(imyEvolve
Tree
p671
(dp672
g7
I2
sg8
(imyEvolve
Tree
p673
(dp674
g7
I1
sg8
(imyEvolve
Tree
p675
(dp676
g7
I0
sg24
F0.2792023205419074
sg20
I01
sbsg21
(imyEvolve
Tree
p677
(dp678
g7
I0
sg24
F0.14659955871560193
sg20
I01
sbsg25
I00
sg26
g66
sbsg21
(imyEvolve
Tree
p679
(dp680
g7
I1
sg8
(imyEvolve
Tree
p681
(dp682
g7
I0
sg24
F-2.7230253001979143
sg20
I01
sbsg21
(imyEvolve
Tree
p683
(dp684
g7
I0
sg20
I00
sbsg25
I00
sg26
g41
sbsg25
I00
sg26
g66
sbsg7
I3
sg25
I01
sg26
g39
sbsg21
(imyEvolve
Tree
p685
(dp686
g13
(imyEvolve
Tree
p687
(dp688
g13
(imyEvolve
Tree
p689
(dp690
g13
(imyEvolve
Tree
p691
(dp692
g7
I0
sg24
F-1.6404548827808396
sg20
I01
sbsg7
I1
sg25
I01
sg26
g40
sbsg7
I2
sg25
I01
sg26
g40
sbsg7
I3
sg25
I01
sg26
g39
sbsg25
I00
sg26
g41
sbsg25
I00
sg26
g41
sba(imyEvolve
Tree
p693
(dp694
g7
I3
sg8
(imyEvolve
Tree
p695
(dp696
g7
I2
sg8
(imyEvolve
Tree
p697
(dp698
g7
I1
sg8
(imyEvolve
Tree
p699
(dp700
g7
I0
sg20
I00
sbsg21
(imyEvolve
Tree
p701
(dp702
g7
I0
sg24
F0.285145110301551
sg20
I01
sbsg25
I00
sg26
g41
sbsg21
(imyEvolve
Tree
p703
(dp704
g7
I1
sg8
(imyEvolve
Tree
p705
(dp706
g7
I0
sg24
F0.46018728147671695
sg20
I01
sbsg21
(imyEvolve
Tree
p707
(dp708
g7
I0
sg20
I00
sbsg25
I00
sg26
g41
sbsg25
I00
sg26
g41
sbsg21
(imyEvolve
Tree
p709
(dp710
g13
(imyEvolve
Tree
p711
(dp712
g7
I1
sg8
(imyEvolve
Tree
p713
(dp714
g7
I0
sg24
F1.1907423334476714
sg20
I01
sbsg21
(imyEvolve
Tree
p715
(dp716
g7
I0
sg24
F-2.71321245562301
sg20
I01
sbsg25
I00
sg26
g27
sbsg7
I2
sg25
I01
sg26
g39
sbsg25
I00
sg26
g41
sba(imyEvolve
Tree
p717
(dp718
g13
(imyEvolve
Tree
p719
(dp720
g13
(imyEvolve
Tree
p721
(dp722
g7
I2
sg8
(imyEvolve
Tree
p723
(dp724
g13
(imyEvolve
Tree
p725
(dp726
g7
I0
sg24
F-4.072574304633328
sg20
I01
sbsg7
I1
sg25
I01
sg26
g121
sbsg21
(imyEvolve
Tree
p727
(dp728
g7
I1
sg8
(imyEvolve
Tree
p729
(dp730
g7
I0
sg24
F-1.0299825963235607
sg20
I01
sbsg21
(imyEvolve
Tree
p731
(dp732
g7
I0
sg24
F-3.8840939226181206
sg20
I01
sbsg25
I00
sg26
g27
sbsg25
I00
sg26
g27
sbsg7
I3
sg25
I01
sg26
g39
sbsg7
I4
sg25
I01
sg26
g28
sbaa(lp733
(imyEvolve
Tree
p734
(dp735
g7
I4
sg8
(imyEvolve
Tree
p736
(dp737
g7
I3
sg8
(imyEvolve
Tree
p738
(dp739
g7
I2
sg8
(imyEvolve
Tree
p740
(dp741
g13
(imyEvolve
Tree
p742
(dp743
g7
I0
sg24
F3.042580847069253
sg20
I01
sbsg7
I1
sg25
I01
sg26
g121
sbsg21
(imyEvolve
Tree
p744
(dp745
g13
(imyEvolve
Tree
p746
(dp747
g7
I0
sg20
I00
sbsg7
I1
sg25
I01
sg26
g40
sbsg25
I00
sg26
g66
sbsg21
(imyEvolve
Tree
p748
(dp749
g13
(imyEvolve
Tree
p750
(dp751
g13
(imyEvolve
Tree
p752
(dp753
g7
I0
sg20
I00
sbsg7
I1
sg25
I01
sg26
g28
sbsg7
I2
sg25
I01
sg26
g28
sbsg25
I00
sg26
g41
sbsg21
(imyEvolve
Tree
p754
(dp755
g13
(imyEvolve
Tree
p756
(dp757
g7
I2
sg8
(imyEvolve
Tree
p758
(dp759
g7
I1
sg8
(imyEvolve
Tree
p760
(dp761
g7
I0
sg24
F4.876575028884766
sg20
I01
sbsg21
(imyEvolve
Tree
p762
(dp763
g7
I0
sg24
F-1.2265818166933204
sg20
I01
sbsg25
I00
sg26
g27
sbsg21
(imyEvolve
Tree
p764
(dp765
g13
(imyEvolve
Tree
p766
(dp767
g7
I0
sg24
F1.6469404996142645
sg20
I01
sbsg7
I1
sg25
I01
sg26
g28
sbsg25
I00
sg26
g27
sbsg7
I3
sg25
I01
sg26
g39
sbsg25
I00
sg26
g41
sba(imyEvolve
Tree
p768
(dp769
g13
(imyEvolve
Tree
p770
(dp771
g7
I1
sg8
(imyEvolve
Tree
p772
(dp773
g7
I0
sg20
I00
sbsg21
(imyEvolve
Tree
p774
(dp775
g7
I0
sg24
F1.2579453992091345
sg20
I01
sbsg25
I00
sg26
g41
sbsg7
I2
sg25
I01
sg26
g28
sba(imyEvolve
Tree
p776
(dp777
g13
(imyEvolve
Tree
p778
(dp779
g7
I1
sg8
(imyEvolve
Tree
p780
(dp781
g7
I0
sg24
F-1.800812024510753
sg20
I01
sbsg21
(imyEvolve
Tree
p782
(dp783
g7
I0
sg24
F2.9649876859247897
sg20
I01
sbsg25
I00
sg26
g27
sbsg7
I2
sg25
I01
sg26
g28
sba(imyEvolve
Tree
p784
(dp785
g7
I2
sg8
(imyEvolve
Tree
p786
(dp787
g13
(imyEvolve
Tree
p788
(dp789
g7
I0
sg20
I00
sbsg7
I1
sg25
I01
sg26
g121
sbsg21
(imyEvolve
Tree
p790
(dp791
g13
(imyEvolve
Tree
p792
(dp793
g7
I0
sg24
F4.9704631954431076
sg20
I01
sbsg7
I1
sg25
I01
sg26
g28
sbsg25
I00
sg26
g27
sba(imyEvolve
Tree
p794
(dp795
g7
I2
sg8
(imyEvolve
Tree
p796
(dp797
g13
(imyEvolve
Tree
p798
(dp799
g7
I0
sg20
I00
sbsg7
I1
sg25
I01
sg26
g121
sbsg21
(imyEvolve
Tree
p800
(dp801
g7
I1
sg8
(imyEvolve
Tree
p802
(dp803
g7
I0
sg20
I00
sbsg21
(imyEvolve
Tree
p804
(dp805
g7
I0
sg24
F3.2428920816463975
sg20
I01
sbsg25
I00
sg26
g66
sbsg25
I00
sg26
g27
sba(imyEvolve
Tree
p806
(dp807
g7
I4
sg8
(imyEvolve
Tree
p808
(dp809
g13
(imyEvolve
Tree
p810
(dp811
g7
I2
sg8
(imyEvolve
Tree
p812
(dp813
g13
(imyEvolve
Tree
p814
(dp815
g7
I0
sg20
I00
sbsg7
I1
sg25
I01
sg26
g39
sbsg21
(imyEvolve
Tree
p816
(dp817
g7
I1
sg8
(imyEvolve
Tree
p818
(dp819
g7
I0
sg20
I00
sbsg21
(imyEvolve
Tree
p820
(dp821
g7
I0
sg20
I00
sbsg25
I00
sg26
g66
sbsg25
I00
sg26
g27
sbsg7
I3
sg25
I01
sg26
g39
sbsg21
(imyEvolve
Tree
p822
(dp823
g7
I3
sg8
(imyEvolve
Tree
p824
(dp825
g7
I2
sg8
(imyEvolve
Tree
p826
(dp827
g7
I1
sg8
(imyEvolve
Tree
p828
(dp829
g7
I0
sg24
F-1.2982434242331022
sg20
I01
sbsg21
(imyEvolve
Tree
p830
(dp831
g7
I0
sg24
F-3.8225010727383033
sg20
I01
sbsg25
I00
sg26
g66
sbsg21
(imyEvolve
Tree
p832
(dp833
g13
(imyEvolve
Tree
p834
(dp835
g7
I0
sg24
F4.393051233022597
sg20
I01
sbsg7
I1
sg25
I01
sg26
g121
sbsg25
I00
sg26
g66
sbsg21
(imyEvolve
Tree
p836
(dp837
g13
(imyEvolve
Tree
p838
(dp839
g13
(imyEvolve
Tree
p840
(dp841
g7
I0
sg24
F-3.7774586534245924
sg20
I01
sbsg7
I1
sg25
I01
sg26
g28
sbsg7
I2
sg25
I01
sg26
g121
sbsg25
I00
sg26
g27
sbsg25
I00
sg26
g41
sba(imyEvolve
Tree
p842
(dp843
g13
(imyEvolve
Tree
p844
(dp845
g13
(imyEvolve
Tree
p846
(dp847
g13
(imyEvolve
Tree
p848
(dp849
g7
I1
sg8
(imyEvolve
Tree
p850
(dp851
g7
I0
sg20
I00
sbsg21
(imyEvolve
Tree
p852
(dp853
g7
I0
sg20
I00
sbsg25
I00
sg26
g41
sbsg7
I2
sg25
I01
sg26
g40
sbsg7
I3
sg25
I01
sg26
g39
sbsg7
I4
sg25
I01
sg26
g28
sba(imyEvolve
Tree
p854
(dp855
g7
I2
sg8
(imyEvolve
Tree
p856
(dp857
g13
(imyEvolve
Tree
p858
(dp859
g7
I0
sg24
F0.41606550466674186
sg20
I01
sbsg7
I1
sg25
I01
sg26
g121
sbsg21
(imyEvolve
Tree
p860
(dp861
g13
(imyEvolve
Tree
p862
(dp863
g7
I0
sg20
I00
sbsg7
I1
sg25
I01
sg26
g121
sbsg25
I00
sg26
g66
sba(imyEvolve
Tree
p864
(dp865
g7
I3
sg8
(imyEvolve
Tree
p866
(dp867
g7
I2
sg8
(imyEvolve
Tree
p868
(dp869
g7
I1
sg8
(imyEvolve
Tree
p870
(dp871
g7
I0
sg20
I00
sbsg21
(imyEvolve
Tree
p872
(dp873
g7
I0
sg20
I00
sbsg25
I00
sg26
g41
sbsg21
(imyEvolve
Tree
p874
(dp875
g7
I1
sg8
(imyEvolve
Tree
p876
(dp877
g7
I0
sg20
I00
sbsg21
(imyEvolve
Tree
p878
(dp879
g7
I0
sg20
I00
sbsg25
I00
sg26
g27
sbsg25
I00
sg26
g66
sbsg21
(imyEvolve
Tree
p880
(dp881
g7
I2
sg8
(imyEvolve
Tree
p882
(dp883
g13
(imyEvolve
Tree
p884
(dp885
g7
I0
sg24
F-2.1398412307195978
sg20
I01
sbsg7
I1
sg25
I01
sg26
g121
sbsg21
(imyEvolve
Tree
p886
(dp887
g13
(imyEvolve
Tree
p888
(dp889
g7
I0
sg24
F3.6828347778340955
sg20
I01
sbsg7
I1
sg25
I01
sg26
g40
sbsg25
I00
sg26
g27
sbsg25
I00
sg26
g27
sba(imyEvolve
Tree
p890
(dp891
g13
(imyEvolve
Tree
p892
(dp893
g7
I2
sg8
(imyEvolve
Tree
p894
(dp895
g13
(imyEvolve
Tree
p896
(dp897
g7
I0
sg20
I00
sbsg7
I1
sg25
I01
sg26
g39
sbsg21
(imyEvolve
Tree
p898
(dp899
g7
I1
sg8
(imyEvolve
Tree
p900
(dp901
g7
I0
sg24
F1.919180257742786
sg20
I01
sbsg21
(imyEvolve
Tree
p902
(dp903
g7
I0
sg20
I00
sbsg25
I00
sg26
g27
sbsg25
I00
sg26
g41
sbsg7
I3
sg25
I01
sg26
g39
sba(imyEvolve
Tree
p904
(dp905
g13
(imyEvolve
Tree
p906
(dp907
g13
(imyEvolve
Tree
p908
(dp909
g7
I0
sg20
I00
sbsg7
I1
sg25
I01
sg26
g40
sbsg7
I2
sg25
I01
sg26
g28
sba(imyEvolve
Tree
p910
(dp911
g13
(imyEvolve
Tree
p912
(dp913
g13
(imyEvolve
Tree
p914
(dp915
g7
I1
sg8
(imyEvolve
Tree
p916
(dp917
g7
I0
sg20
I00
sbsg21
(imyEvolve
Tree
p918
(dp919
g7
I0
sg20
I00
sbsg25
I00
sg26
g41
sbsg7
I2
sg25
I01
sg26
g121
sbsg7
I3
sg25
I01
sg26
g40
sba(imyEvolve
Tree
p920
(dp921
g13
(imyEvolve
Tree
p922
(dp923
g13
(imyEvolve
Tree
p924
(dp925
g13
(imyEvolve
Tree
p926
(dp927
g13
(imyEvolve
Tree
p928
(dp929
g7
I0
sg20
I00
sbsg7
I1
sg25
I01
sg26
g39
sbsg7
I2
sg25
I01
sg26
g39
sbsg7
I3
sg25
I01
sg26
g40
sbsg7
I4
sg25
I01
sg26
g39
sbaa(lp930
(imyEvolve
Tree
p931
(dp932
g7
I4
sg8
(imyEvolve
Tree
p933
(dp934
g13
(imyEvolve
Tree
p935
(dp936
g7
I2
sg8
(imyEvolve
Tree
p937
(dp938
g7
I1
sg8
(imyEvolve
Tree
p939
(dp940
g7
I0
sg24
F0.7925141369297855
sg20
I01
sbsg21
(imyEvolve
Tree
p941
(dp942
g7
I0
sg20
I00
sbsg25
I00
sg26
g66
sbsg21
(imyEvolve
Tree
p943
(dp944
g7
I1
sg8
(imyEvolve
Tree
p945
(dp946
g7
I0
sg24
F-3.7218589144607916
sg20
I01
sbsg21
(imyEvolve
Tree
p947
(dp948
g7
I0
sg24
F-0.16201184777137279
sg20
I01
sbsg25
I00
sg26
g66
sbsg25
I00
sg26
g66
sbsg7
I3
sg25
I01
sg26
g39
sbsg21
(imyEvolve
Tree
p949
(dp950
g13
(imyEvolve
Tree
p951
(dp952
g7
I2
sg8
(imyEvolve
Tree
p953
(dp954
g13
(imyEvolve
Tree
p955
(dp956
g7
I0
sg20
I00
sbsg7
I1
sg25
I01
sg26
g28
sbsg21
(imyEvolve
Tree
p957
(dp958
g7
I1
sg8
(imyEvolve
Tree
p959
(dp960
g7
I0
sg20
I00
sbsg21
(imyEvolve
Tree
p961
(dp962
g7
I0
sg20
I00
sbsg25
I00
sg26
g41
sbsg25
I00
sg26
g41
sbsg7
I3
sg25
I01
sg26
g39
sbsg25
I00
sg26
g27
sba(imyEvolve
Tree
p963
(dp964
g7
I4
sg8
(imyEvolve
Tree
p965
(dp966
g13
(imyEvolve
Tree
p967
(dp968
g7
I2
sg8
(imyEvolve
Tree
p969
(dp970
g13
(imyEvolve
Tree
p971
(dp972
g7
I0
sg20
I00
sbsg7
I1
sg25
I01
sg26
g121
sbsg21
(imyEvolve
Tree
p973
(dp974
g13
(imyEvolve
Tree
p975
(dp976
g7
I0
sg20
I00
sbsg7
I1
sg25
I01
sg26
g40
sbsg25
I00
sg26
g66
sbsg7
I3
sg25
I01
sg26
g39
sbsg21
(imyEvolve
Tree
p977
(dp978
g7
I3
sg8
(imyEvolve
Tree
p979
(dp980
g7
I2
sg8
(imyEvolve
Tree
p981
(dp982
g13
(imyEvolve
Tree
p983
(dp984
g7
I0
sg20
I00
sbsg7
I1
sg25
I01
sg26
g39
sbsg21
(imyEvolve
Tree
p985
(dp986
g13
(imyEvolve
Tree
p987
(dp988
g7
I0
sg24
F-3.2299485638321124
sg20
I01
sbsg7
I1
sg25
I01
sg26
g28
sbsg25
I00
sg26
g41
sbsg21
(imyEvolve
Tree
p989
(dp990
g7
I2
sg8
(imyEvolve
Tree
p991
(dp992
g13
(imyEvolve
Tree
p993
(dp994
g7
I0
sg20
I00
sbsg7
I1
sg25
I01
sg26
g121
sbsg21
(imyEvolve
Tree
p995
(dp996
g7
I1
sg8
(imyEvolve
Tree
p997
(dp998
g7
I0
sg20
I00
sbsg21
(imyEvolve
Tree
p999
(dp1000
g7
I0
sg20
I00
sbsg25
I00
sg26
g41
sbsg25
I00
sg26
g41
sbsg25
I00
sg26
g27
sbsg25
I00
sg26
g27
sba(imyEvolve
Tree
p1001
(dp1002
g7
I5
sg8
(imyEvolve
Tree
p1003
(dp1004
g13
(imyEvolve
Tree
p1005
(dp1006
g7
I3
sg8
(imyEvolve
Tree
p1007
(dp1008
g7
I2
sg8
(imyEvolve
Tree
p1009
(dp1010
g13
(imyEvolve
Tree
p1011
(dp1012
g7
I0
sg24
F4.697330956380371
sg20
I01
sbsg7
I1
sg25
I01
sg26
g39
sbsg21
(imyEvolve
Tree
p1013
(dp1014
g7
I1
sg8
(imyEvolve
Tree
p1015
(dp1016
g7
I0
sg20
I00
sbsg21
(imyEvolve
Tree
p1017
(dp1018
g7
I0
sg20
I00
sbsg25
I00
sg26
g27
sbsg25
I00
sg26
g41
sbsg21
(imyEvolve
Tree
p1019
(dp1020
g7
I2
sg8
(imyEvolve
Tree
p1021
(dp1022
g13
(imyEvolve
Tree
p1023
(dp1024
g7
I0
sg20
I00
sbsg7
I1
sg25
I01
sg26
g121
sbsg21
(imyEvolve
Tree
p1025
(dp1026
g13
(imyEvolve
Tree
p1027
(dp1028
g7
I0
sg20
I00
sbsg7
I1
sg25
I01
sg26
g40
sbsg25
I00
sg26
g27
sbsg25
I00
sg26
g41
sbsg7
I4
sg25
I01
sg26
g121
sbsg21
(imyEvolve
Tree
p1029
(dp1030
g13
(imyEvolve
Tree
p1031
(dp1032
g7
I3
sg8
(imyEvolve
Tree
p1033
(dp1034
g13
(imyEvolve
Tree
p1035
(dp1036
g13
(imyEvolve
Tree
p1037
(dp1038
g7
I0
sg20
I00
sbsg7
I1
sg25
I01
sg26
g121
sbsg7
I2
sg25
I01
sg26
g39
sbsg21
(imyEvolve
Tree
p1039
(dp1040
g13
(imyEvolve
Tree
p1041
(dp1042
g7
I1
sg8
(imyEvolve
Tree
p1043
(dp1044
g7
I0
sg24
F-4.655433173334973
sg20
I01
sbsg21
(imyEvolve
Tree
p1045
(dp1046
g7
I0
sg24
F3.0638288164257634
sg20
I01
sbsg25
I00
sg26
g41
sbsg7
I2
sg25
I01
sg26
g40
sbsg25
I00
sg26
g66
sbsg7
I4
sg25
I01
sg26
g39
sbsg25
I00
sg26
g27
sba(imyEvolve
Tree
p1047
(dp1048
g7
I3
sg8
(imyEvolve
Tree
p1049
(dp1050
g7
I2
sg8
(imyEvolve
Tree
p1051
(dp1052
g7
I1
sg8
(imyEvolve
Tree
p1053
(dp1054
g7
I0
sg24
F0.644304037982443
sg20
I01
sbsg21
(imyEvolve
Tree
p1055
(dp1056
g7
I0
sg20
I00
sbsg25
I00
sg26
g41
sbsg21
(imyEvolve
Tree
p1057
(dp1058
g7
I1
sg8
(imyEvolve
Tree
p1059
(dp1060
g7
I0
sg24
F4.139443952823338
sg20
I01
sbsg21
(imyEvolve
Tree
p1061
(dp1062
g7
I0
sg24
F-2.746643681078659
sg20
I01
sbsg25
I00
sg26
g41
sbsg25
I00
sg26
g27
sbsg21
(imyEvolve
Tree
p1063
(dp1064
g13
(imyEvolve
Tree
p1065
(dp1066
g13
(imyEvolve
Tree
p1067
(dp1068
g7
I0
sg24
F1.4004949062257204
sg20
I01
sbsg7
I1
sg25
I01
sg26
g28
sbsg7
I2
sg25
I01
sg26
g121
sbsg25
I00
sg26
g66
sba(imyEvolve
Tree
p1069
(dp1070
g7
I3
sg8
(imyEvolve
Tree
p1071
(dp1072
g13
(imyEvolve
Tree
p1073
(dp1074
g7
I1
sg8
(imyEvolve
Tree
p1075
(dp1076
g7
I0
sg24
F-1.9429887412782563
sg20
I01
sbsg21
(imyEvolve
Tree
p1077
(dp1078
g7
I0
sg20
I00
sbsg25
I00
sg26
g27
sbsg7
I2
sg25
I01
sg26
g40
sbsg21
(imyEvolve
Tree
p1079
(dp1080
g13
(imyEvolve
Tree
p1081
(dp1082
g13
(imyEvolve
Tree
p1083
(dp1084
g7
I0
sg20
I00
sbsg7
I1
sg25
I01
sg26
g121
sbsg7
I2
sg25
I01
sg26
g40
sbsg25
I00
sg26
g41
sba(imyEvolve
Tree
p1085
(dp1086
g13
(imyEvolve
Tree
p1087
(dp1088
g7
I3
sg8
(imyEvolve
Tree
p1089
(dp1090
g13
(imyEvolve
Tree
p1091
(dp1092
g7
I1
sg8
(imyEvolve
Tree
p1093
(dp1094
g7
I0
sg24
F4.7700264859780805
sg20
I01
sbsg21
(imyEvolve
Tree
p1095
(dp1096
g7
I0
sg24
F-0.21401819221522977
sg20
I01
sbsg25
I00
sg26
g66
sbsg7
I2
sg25
I01
sg26
g39
sbsg21
(imyEvolve
Tree
p1097
(dp1098
g13
(imyEvolve
Tree
p1099
(dp1100
g13
(imyEvolve
Tree
p1101
(dp1102
g7
I0
sg24
F0.5100974580220843
sg20
I01
sbsg7
I1
sg25
I01
sg26
g28
sbsg7
I2
sg25
I01
sg26
g121
sbsg25
I00
sg26
g27
sbsg7
I4
sg25
I01
sg26
g39
sba(imyEvolve
Tree
p1103
(dp1104
g7
I2
sg8
(imyEvolve
Tree
p1105
(dp1106
g13
(imyEvolve
Tree
p1107
(dp1108
g7
I0
sg24
F0.5984570972851602
sg20
I01
sbsg7
I1
sg25
I01
sg26
g28
sbsg21
(imyEvolve
Tree
p1109
(dp1110
g7
I1
sg8
(imyEvolve
Tree
p1111
(dp1112
g7
I0
sg24
F-3.875203574631776
sg20
I01
sbsg21
(imyEvolve
Tree
p1113
(dp1114
g7
I0
sg20
I00
sbsg25
I00
sg26
g41
sbsg25
I00
sg26
g41
sba(imyEvolve
Tree
p1115
(dp1116
g13
(imyEvolve
Tree
p1117
(dp1118
g13
(imyEvolve
Tree
p1119
(dp1120
g7
I0
sg24
F1.3734975948677715
sg20
I01
sbsg7
I1
sg25
I01
sg26
g121
sbsg7
I2
sg25
I01
sg26
g121
sbaasS'weightSharing'
p1121
(lp1122
I00
aI00
asS'fitnessValid'
p1123
I00
sS'fitness'
p1124
cnumpy.core.multiarray
scalar
p1125
(cnumpy
dtype
p1126
(S'f8'
p1127
I0
I1
tp1128
Rp1129
(I3
S'<'
p1130
NNNI-1
I-1
I0
tp1131
bS'\x00z6\xab\xd4\xe3n\xbf'
p1132
tp1133
Rp1134
sS'alpha'
p1135
F0.007947985240131357
sS'resolution'
p1136
I90
sb.