(imyEvolve
Individual
p0
(dp1
S'funcs'
p2
(lp3
(lp4
(imyEvolve
Tree
p5
(dp6
S'below'
p7
(imyEvolve
Tree
p8
(dp9
g7
(imyEvolve
Tree
p10
(dp11
S'left'
p12
(imyEvolve
Tree
p13
(dp14
g12
(imyEvolve
Tree
p15
(dp16
S'depth'
p17
I0
sS'constant'
p18
F3.102673439828761
sS'isConstant'
p19
I01
sbsg17
I1
sS'right'
p20
(imyEvolve
Tree
p21
(dp22
g17
I0
sg18
F-4.252242621080975
sg19
I01
sbsS'single'
p23
I00
sS'op'
p24
coperator
mul
p25
sbsg17
I2
sg20
(imyEvolve
Tree
p26
(dp27
g7
(imyEvolve
Tree
p28
(dp29
g17
I0
sg19
I00
sbsg17
I1
sg23
I01
sg24
cmyEvolve
square
p30
sbsg23
I00
sg24
coperator
add
p31
sbsg17
I3
sg23
I01
sg24
cmath
sin
p32
sbsg17
I4
sg23
I01
sg24
g30
sba(imyEvolve
Tree
p33
(dp34
g12
(imyEvolve
Tree
p35
(dp36
g7
(imyEvolve
Tree
p37
(dp38
g12
(imyEvolve
Tree
p39
(dp40
g7
(imyEvolve
Tree
p41
(dp42
g17
I0
sg19
I00
sbsg17
I1
sg23
I01
sg24
cmyEvolve
absSqrt
p43
sbsg17
I2
sg20
(imyEvolve
Tree
p44
(dp45
g12
(imyEvolve
Tree
p46
(dp47
g17
I0
sg18
F0.37672640687708814
sg19
I01
sbsg17
I1
sg20
(imyEvolve
Tree
p48
(dp49
g17
I0
sg19
I00
sbsg23
I00
sg24
g31
sbsg23
I00
sg24
coperator
sub
p50
sbsg17
I3
sg23
I01
sg24
g30
sbsg17
I4
sg20
(imyEvolve
Tree
p51
(dp52
g7
(imyEvolve
Tree
p53
(dp54
g7
(imyEvolve
Tree
p55
(dp56
g12
(imyEvolve
Tree
p57
(dp58
g17
I0
sg18
F1.2077187890508796
sg19
I01
sbsg17
I1
sg20
(imyEvolve
Tree
p59
(dp60
g17
I0
sg18
F4.922142796400745
sg19
I01
sbsg23
I00
sg24
g50
sbsg17
I2
sg23
I01
sg24
g32
sbsg17
I3
sg23
I01
sg24
g43
sbsg23
I00
sg24
g31
sba(imyEvolve
Tree
p61
(dp62
g12
(imyEvolve
Tree
p63
(dp64
g7
(imyEvolve
Tree
p65
(dp66
g7
(imyEvolve
Tree
p67
(dp68
g17
I0
sg18
F-3.894819919076953
sg19
I01
sbsg17
I1
sg23
I01
sg24
g43
sbsg17
I2
sg23
I01
sg24
g32
sbsg17
I3
sg20
(imyEvolve
Tree
p69
(dp70
g12
(imyEvolve
Tree
p71
(dp72
g12
(imyEvolve
Tree
p73
(dp74
g17
I0
sg18
F-2.543093386156723
sg19
I01
sbsg17
I1
sg20
(imyEvolve
Tree
p75
(dp76
g17
I0
sg19
I00
sbsg23
I00
sg24
g25
sbsg17
I2
sg20
(imyEvolve
Tree
p77
(dp78
g7
(imyEvolve
Tree
p79
(dp80
g17
I0
sg19
I00
sbsg17
I1
sg23
I01
sg24
g32
sbsg23
I00
sg24
g25
sbsg23
I00
sg24
g25
sba(imyEvolve
Tree
p81
(dp82
g12
(imyEvolve
Tree
p83
(dp84
g12
(imyEvolve
Tree
p85
(dp86
g7
(imyEvolve
Tree
p87
(dp88
g17
I0
sg19
I00
sbsg17
I1
sg23
I01
sg24
cmath
cos
p89
sbsg17
I2
sg20
(imyEvolve
Tree
p90
(dp91
g7
(imyEvolve
Tree
p92
(dp93
g17
I0
sg19
I00
sbsg17
I1
sg23
I01
sg24
g32
sbsg23
I00
sg24
g50
sbsg17
I3
sg20
(imyEvolve
Tree
p94
(dp95
g7
(imyEvolve
Tree
p96
(dp97
g7
(imyEvolve
Tree
p98
(dp99
g17
I0
sg18
F1.2335923145933894
sg19
I01
sbsg17
I1
sg23
I01
sg24
g30
sbsg17
I2
sg23
I01
sg24
g43
sbsg23
I00
sg24
g31
sba(imyEvolve
Tree
p100
(dp101
g7
(imyEvolve
Tree
p102
(dp103
g7
(imyEvolve
Tree
p104
(dp105
g7
(imyEvolve
Tree
p106
(dp107
g7
(imyEvolve
Tree
p108
(dp109
g17
I0
sg19
I00
sbsg17
I1
sg23
I01
sg24
g89
sbsg17
I2
sg23
I01
sg24
g89
sbsg17
I3
sg23
I01
sg24
g32
sbsg17
I4
sg23
I01
sg24
g89
sba(imyEvolve
Tree
p110
(dp111
g7
(imyEvolve
Tree
p112
(dp113
g7
(imyEvolve
Tree
p114
(dp115
g17
I0
sg19
I00
sbsg17
I1
sg23
I01
sg24
g30
sbsg17
I2
sg23
I01
sg24
g43
sba(imyEvolve
Tree
p116
(dp117
g7
(imyEvolve
Tree
p118
(dp119
g12
(imyEvolve
Tree
p120
(dp121
g12
(imyEvolve
Tree
p122
(dp123
g7
(imyEvolve
Tree
p124
(dp125
g17
I0
sg19
I00
sbsg17
I1
sg23
I01
sg24
g30
sbsg17
I2
sg20
(imyEvolve
Tree
p126
(dp127
g7
(imyEvolve
Tree
p128
(dp129
g17
I0
sg19
I00
sbsg17
I1
sg23
I01
sg24
g43
sbsg23
I00
sg24
g50
sbsg17
I3
sg20
(imyEvolve
Tree
p130
(dp131
g7
(imyEvolve
Tree
p132
(dp133
g7
(imyEvolve
Tree
p134
(dp135
g17
I0
sg19
I00
sbsg17
I1
sg23
I01
sg24
g30
sbsg17
I2
sg23
I01
sg24
g30
sbsg23
I00
sg24
g50
sbsg17
I4
sg23
I01
sg24
g32
sba(imyEvolve
Tree
p136
(dp137
g7
(imyEvolve
Tree
p138
(dp139
g7
(imyEvolve
Tree
p140
(dp141
g7
(imyEvolve
Tree
p142
(dp143
g17
I0
sg18
F3.9424648762466177
sg19
I01
sbsg17
I1
sg23
I01
sg24
g30
sbsg17
I2
sg23
I01
sg24
g89
sbsg17
I3
sg23
I01
sg24
g32
sba(imyEvolve
Tree
p144
(dp145
g17
I2
sg12
(imyEvolve
Tree
p146
(dp147
g7
(imyEvolve
Tree
p148
(dp149
g17
I0
sg19
I00
sbsg17
I1
sg23
I01
sg24
g43
sbsg20
(imyEvolve
Tree
p150
(dp151
g17
I1
sg12
(imyEvolve
Tree
p152
(dp153
g17
I0
sg18
F-2.0325948009892003
sg19
I01
sbsg20
(imyEvolve
Tree
p154
(dp155
g17
I0
sg18
F-0.947016190223982
sg19
I01
sbsg23
I00
sg24
g50
sbsg23
I00
sg24
g25
sba(imyEvolve
Tree
p156
(dp157
g7
(imyEvolve
Tree
p158
(dp159
g12
(imyEvolve
Tree
p160
(dp161
g7
(imyEvolve
Tree
p162
(dp163
g7
(imyEvolve
Tree
p164
(dp165
g7
(imyEvolve
Tree
p166
(dp167
g17
I0
sg18
F-1.5286847873474452
sg19
I01
sbsg17
I1
sg23
I01
sg24
g30
sbsg17
I2
sg23
I01
sg24
g43
sbsg17
I3
sg23
I01
sg24
g43
sbsg17
I4
sg20
(imyEvolve
Tree
p168
(dp169
g12
(imyEvolve
Tree
p170
(dp171
g7
(imyEvolve
Tree
p172
(dp173
g7
(imyEvolve
Tree
p174
(dp175
g17
I0
sg18
F3.6244336032338946
sg19
I01
sbsg17
I1
sg23
I01
sg24
g30
sbsg17
I2
sg23
I01
sg24
g32
sbsg17
I3
sg20
(imyEvolve
Tree
p176
(dp177
g7
(imyEvolve
Tree
p178
(dp179
g7
(imyEvolve
Tree
p180
(dp181
g17
I0
sg18
F-4.016517890895522
sg19
I01
sbsg17
I1
sg23
I01
sg24
g30
sbsg17
I2
sg23
I01
sg24
g89
sbsg23
I00
sg24
g25
sbsg23
I00
sg24
g31
sbsg17
I5
sg23
I01
sg24
g30
sba(imyEvolve
Tree
p182
(dp183
g17
I3
sg12
(imyEvolve
Tree
p184
(dp185
g17
I2
sg12
(imyEvolve
Tree
p186
(dp187
g7
(imyEvolve
Tree
p188
(dp189
g17
I0
sg18
F4.164069016075249
sg19
I01
sbsg17
I1
sg23
I01
sg24
g30
sbsg20
(imyEvolve
Tree
p190
(dp191
g17
I1
sg12
(imyEvolve
Tree
p192
(dp193
g17
I0
sg18
F-3.021103454502987
sg19
I01
sbsg20
(imyEvolve
Tree
p194
(dp195
g17
I0
sg18
F-1.1555159575191922
sg19
I01
sbsg23
I00
sg24
g25
sbsg23
I00
sg24
g50
sbsg20
(imyEvolve
Tree
p196
(dp197
g7
(imyEvolve
Tree
p198
(dp199
g7
(imyEvolve
Tree
p200
(dp201
g17
I0
sg18
F0.36114861562706224
sg19
I01
sbsg17
I1
sg23
I01
sg24
g32
sbsg17
I2
sg23
I01
sg24
g30
sbsg23
I00
sg24
g31
sba(imyEvolve
Tree
p202
(dp203
g7
(imyEvolve
Tree
p204
(dp205
g7
(imyEvolve
Tree
p206
(dp207
g7
(imyEvolve
Tree
p208
(dp209
g17
I0
sg18
F2.5221063716864736
sg19
I01
sbsg17
I1
sg23
I01
sg24
g89
sbsg17
I2
sg23
I01
sg24
g32
sbsg17
I3
sg23
I01
sg24
g32
sba(imyEvolve
Tree
p210
(dp211
g7
(imyEvolve
Tree
p212
(dp213
g7
(imyEvolve
Tree
p214
(dp215
g17
I0
sg18
F2.652060917067587
sg19
I01
sbsg17
I1
sg23
I01
sg24
g32
sbsg17
I2
sg23
I01
sg24
g43
sba(imyEvolve
Tree
p216
(dp217
g7
(imyEvolve
Tree
p218
(dp219
g7
(imyEvolve
Tree
p220
(dp221
g17
I0
sg18
F-4.8587310788883435
sg19
I01
sbsg17
I1
sg23
I01
sg24
g30
sbsg17
I2
sg23
I01
sg24
g30
sba(imyEvolve
Tree
p222
(dp223
g17
I4
sg12
(imyEvolve
Tree
p224
(dp225
g17
I3
sg12
(imyEvolve
Tree
p226
(dp227
g7
(imyEvolve
Tree
p228
(dp229
g7
(imyEvolve
Tree
p230
(dp231
g17
I0
sg18
F0.9702285459834172
sg19
I01
sbsg17
I1
sg23
I01
sg24
g89
sbsg17
I2
sg23
I01
sg24
g30
sbsg20
(imyEvolve
Tree
p232
(dp233
g17
I2
sg12
(imyEvolve
Tree
p234
(dp235
g7
(imyEvolve
Tree
p236
(dp237
g17
I0
sg18
F-4.6271224426565025
sg19
I01
sbsg17
I1
sg23
I01
sg24
g30
sbsg20
(imyEvolve
Tree
p238
(dp239
g7
(imyEvolve
Tree
p240
(dp241
g17
I0
sg19
I00
sbsg17
I1
sg23
I01
sg24
g43
sbsg23
I00
sg24
g31
sbsg23
I00
sg24
g25
sbsg20
(imyEvolve
Tree
p242
(dp243
g7
(imyEvolve
Tree
p244
(dp245
g17
I2
sg12
(imyEvolve
Tree
p246
(dp247
g17
I1
sg12
(imyEvolve
Tree
p248
(dp249
g17
I0
sg19
I00
sbsg20
(imyEvolve
Tree
p250
(dp251
g17
I0
sg19
I00
sbsg23
I00
sg24
g31
sbsg20
(imyEvolve
Tree
p252
(dp253
g7
(imyEvolve
Tree
p254
(dp255
g17
I0
sg19
I00
sbsg17
I1
sg23
I01
sg24
g43
sbsg23
I00
sg24
g31
sbsg17
I3
sg23
I01
sg24
g89
sbsg23
I00
sg24
g50
sbaa(lp256
(imyEvolve
Tree
p257
(dp258
g7
(imyEvolve
Tree
p259
(dp260
g7
(imyEvolve
Tree
p261
(dp262
g12
(imyEvolve
Tree
p263
(dp264
g17
I0
sg19
I00
sbsg17
I1
sg20
(imyEvolve
Tree
p265
(dp266
g17
I0
sg18
F0.8365917798292717
sg19
I01
sbsg23
I00
sg24
g25
sbsg17
I2
sg23
I01
sg24
g89
sbsg17
I3
sg23
I01
sg24
g89
sba(imyEvolve
Tree
p267
(dp268
g7
(imyEvolve
Tree
p269
(dp270
g7
(imyEvolve
Tree
p271
(dp272
g17
I0
sg18
F2.523860710767268
sg19
I01
sbsg17
I1
sg23
I01
sg24
g30
sbsg17
I2
sg23
I01
sg24
g43
sba(imyEvolve
Tree
p273
(dp274
g7
(imyEvolve
Tree
p275
(dp276
g12
(imyEvolve
Tree
p277
(dp278
g7
(imyEvolve
Tree
p279
(dp280
g17
I0
sg18
F-1.1168179626740873
sg19
I01
sbsg17
I1
sg23
I01
sg24
g32
sbsg17
I2
sg20
(imyEvolve
Tree
p281
(dp282
g7
(imyEvolve
Tree
p283
(dp284
g17
I0
sg19
I00
sbsg17
I1
sg23
I01
sg24
g43
sbsg23
I00
sg24
g25
sbsg17
I3
sg23
I01
sg24
g32
sba(imyEvolve
Tree
p285
(dp286
g17
I2
sg12
(imyEvolve
Tree
p287
(dp288
g17
I1
sg12
(imyEvolve
Tree
p289
(dp290
g17
I0
sg18
F3.1477168186546596
sg19
I01
sbsg20
(imyEvolve
Tree
p291
(dp292
g17
I0
sg18
F0.5936039658248768
sg19
I01
sbsg23
I00
sg24
g31
sbsg20
(imyEvolve
Tree
p293
(dp294
g17
I1
sg12
(imyEvolve
Tree
p295
(dp296
g17
I0
sg18
F-4.943341240106713
sg19
I01
sbsg20
(imyEvolve
Tree
p297
(dp298
g17
I0
sg19
I00
sbsg23
I00
sg24
g25
sbsg23
I00
sg24
g25
sba(imyEvolve
Tree
p299
(dp300
g7
(imyEvolve
Tree
p301
(dp302
g7
(imyEvolve
Tree
p303
(dp304
g17
I0
sg19
I00
sbsg17
I1
sg23
I01
sg24
g89
sbsg17
I2
sg23
I01
sg24
g32
sba(imyEvolve
Tree
p305
(dp306
g12
(imyEvolve
Tree
p307
(dp308
g7
(imyEvolve
Tree
p309
(dp310
g17
I0
sg18
F3.0556398252932624
sg19
I01
sbsg17
I1
sg23
I01
sg24
g30
sbsg17
I2
sg20
(imyEvolve
Tree
p311
(dp312
g7
(imyEvolve
Tree
p313
(dp314
g17
I0
sg19
I00
sbsg17
I1
sg23
I01
sg24
g43
sbsg23
I00
sg24
g50
sba(imyEvolve
Tree
p315
(dp316
g7
(imyEvolve
Tree
p317
(dp318
g12
(imyEvolve
Tree
p319
(dp320
g12
(imyEvolve
Tree
p321
(dp322
g12
(imyEvolve
Tree
p323
(dp324
g17
I0
sg19
I00
sbsg17
I1
sg20
(imyEvolve
Tree
p325
(dp326
g17
I0
sg18
F-1.841094639195071
sg19
I01
sbsg23
I00
sg24
g50
sbsg17
I2
sg20
(imyEvolve
Tree
p327
(dp328
g7
(imyEvolve
Tree
p329
(dp330
g17
I0
sg18
F-2.992409534088354
sg19
I01
sbsg17
I1
sg23
I01
sg24
g30
sbsg23
I00
sg24
g25
sbsg17
I3
sg20
(imyEvolve
Tree
p331
(dp332
g7
(imyEvolve
Tree
p333
(dp334
g12
(imyEvolve
Tree
p335
(dp336
g17
I0
sg19
I00
sbsg17
I1
sg20
(imyEvolve
Tree
p337
(dp338
g17
I0
sg19
I00
sbsg23
I00
sg24
g31
sbsg17
I2
sg23
I01
sg24
g89
sbsg23
I00
sg24
g31
sbsg17
I4
sg23
I01
sg24
g43
sba(imyEvolve
Tree
p339
(dp340
g17
I4
sg12
(imyEvolve
Tree
p341
(dp342
g7
(imyEvolve
Tree
p343
(dp344
g7
(imyEvolve
Tree
p345
(dp346
g17
I1
sg12
(imyEvolve
Tree
p347
(dp348
g17
I0
sg18
F-1.3159608706265722
sg19
I01
sbsg20
(imyEvolve
Tree
p349
(dp350
g17
I0
sg18
F-1.5388269847501235
sg19
I01
sbsg23
I00
sg24
g31
sbsg17
I2
sg23
I01
sg24
g30
sbsg17
I3
sg23
I01
sg24
g89
sbsg20
(imyEvolve
Tree
p351
(dp352
g17
I3
sg12
(imyEvolve
Tree
p353
(dp354
g7
(imyEvolve
Tree
p355
(dp356
g17
I1
sg12
(imyEvolve
Tree
p357
(dp358
g17
I0
sg18
F-2.077326848876827
sg19
I01
sbsg20
(imyEvolve
Tree
p359
(dp360
g17
I0
sg19
I00
sbsg23
I00
sg24
g25
sbsg17
I2
sg23
I01
sg24
g32
sbsg20
(imyEvolve
Tree
p361
(dp362
g17
I2
sg12
(imyEvolve
Tree
p363
(dp364
g17
I1
sg12
(imyEvolve
Tree
p365
(dp366
g17
I0
sg18
F-2.92862208550713
sg19
I01
sbsg20
(imyEvolve
Tree
p367
(dp368
g17
I0
sg18
F-3.610816449746915
sg19
I01
sbsg23
I00
sg24
g25
sbsg20
(imyEvolve
Tree
p369
(dp370
g7
(imyEvolve
Tree
p371
(dp372
g17
I0
sg19
I00
sbsg17
I1
sg23
I01
sg24
g43
sbsg23
I00
sg24
g25
sbsg23
I00
sg24
g25
sbsg23
I00
sg24
g25
sba(imyEvolve
Tree
p373
(dp374
g7
(imyEvolve
Tree
p375
(dp376
g7
(imyEvolve
Tree
p377
(dp378
g17
I0
sg19
I00
sbsg17
I1
sg23
I01
sg24
g30
sbsg17
I2
sg23
I01
sg24
g30
sba(imyEvolve
Tree
p379
(dp380
g7
(imyEvolve
Tree
p381
(dp382
g12
(imyEvolve
Tree
p383
(dp384
g12
(imyEvolve
Tree
p385
(dp386
g7
(imyEvolve
Tree
p387
(dp388
g7
(imyEvolve
Tree
p389
(dp390
g17
I0
sg18
F1.2336042717471463
sg19
I01
sbsg17
I1
sg23
I01
sg24
g89
sbsg17
I2
sg23
I01
sg24
g32
sbsg17
I3
sg20
(imyEvolve
Tree
p391
(dp392
g7
(imyEvolve
Tree
p393
(dp394
g12
(imyEvolve
Tree
p395
(dp396
g17
I0
sg19
I00
sbsg17
I1
sg20
(imyEvolve
Tree
p397
(dp398
g17
I0
sg18
F1.851979537235958
sg19
I01
sbsg23
I00
sg24
g31
sbsg17
I2
sg23
I01
sg24
g30
sbsg23
I00
sg24
g31
sbsg17
I4
sg20
(imyEvolve
Tree
p399
(dp400
g12
(imyEvolve
Tree
p401
(dp402
g12
(imyEvolve
Tree
p403
(dp404
g7
(imyEvolve
Tree
p405
(dp406
g17
I0
sg19
I00
sbsg17
I1
sg23
I01
sg24
g30
sbsg17
I2
sg20
(imyEvolve
Tree
p407
(dp408
g12
(imyEvolve
Tree
p409
(dp410
g17
I0
sg18
F3.6019107906462224
sg19
I01
sbsg17
I1
sg20
(imyEvolve
Tree
p411
(dp412
g17
I0
sg18
F3.9167081698921464
sg19
I01
sbsg23
I00
sg24
g31
sbsg23
I00
sg24
g50
sbsg17
I3
sg20
(imyEvolve
Tree
p413
(dp414
g7
(imyEvolve
Tree
p415
(dp416
g7
(imyEvolve
Tree
p417
(dp418
g17
I0
sg18
F-1.1860207946687797
sg19
I01
sbsg17
I1
sg23
I01
sg24
g43
sbsg17
I2
sg23
I01
sg24
g43
sbsg23
I00
sg24
g25
sbsg23
I00
sg24
g31
sbsg17
I5
sg23
I01
sg24
g89
sba(imyEvolve
Tree
p419
(dp420
g7
(imyEvolve
Tree
p421
(dp422
g7
(imyEvolve
Tree
p423
(dp424
g12
(imyEvolve
Tree
p425
(dp426
g12
(imyEvolve
Tree
p427
(dp428
g17
I0
sg19
I00
sbsg17
I1
sg20
(imyEvolve
Tree
p429
(dp430
g17
I0
sg19
I00
sbsg23
I00
sg24
g31
sbsg17
I2
sg20
(imyEvolve
Tree
p431
(dp432
g12
(imyEvolve
Tree
p433
(dp434
g17
I0
sg18
F-1.2186104435548062
sg19
I01
sbsg17
I1
sg20
(imyEvolve
Tree
p435
(dp436
g17
I0
sg19
I00
sbsg23
I00
sg24
g25
sbsg23
I00
sg24
g25
sbsg17
I3
sg23
I01
sg24
g30
sbsg17
I4
sg23
I01
sg24
g43
sba(imyEvolve
Tree
p437
(dp438
g7
(imyEvolve
Tree
p439
(dp440
g12
(imyEvolve
Tree
p441
(dp442
g12
(imyEvolve
Tree
p443
(dp444
g12
(imyEvolve
Tree
p445
(dp446
g12
(imyEvolve
Tree
p447
(dp448
g17
I0
sg18
F3.2119458012983912
sg19
I01
sbsg17
I1
sg20
(imyEvolve
Tree
p449
(dp450
g17
I0
sg18
F-1.235180186912622
sg19
I01
sbsg23
I00
sg24
g31
sbsg17
I2
sg20
(imyEvolve
Tree
p451
(dp452
g12
(imyEvolve
Tree
p453
(dp454
g17
I0
sg19
I00
sbsg17
I1
sg20
(imyEvolve
Tree
p455
(dp456
g17
I0
sg18
F4.421284967355671
sg19
I01
sbsg23
I00
sg24
g31
sbsg23
I00
sg24
g25
sbsg17
I3
sg20
(imyEvolve
Tree
p457
(dp458
g12
(imyEvolve
Tree
p459
(dp460
g12
(imyEvolve
Tree
p461
(dp462
g17
I0
sg18
F-0.732078233011503
sg19
I01
sbsg17
I1
sg20
(imyEvolve
Tree
p463
(dp464
g17
I0
sg19
I00
sbsg23
I00
sg24
g25
sbsg17
I2
sg20
(imyEvolve
Tree
p465
(dp466
g7
(imyEvolve
Tree
p467
(dp468
g17
I0
sg18
F2.9669739574875544
sg19
I01
sbsg17
I1
sg23
I01
sg24
g89
sbsg23
I00
sg24
g50
sbsg23
I00
sg24
g50
sbsg17
I4
sg20
(imyEvolve
Tree
p469
(dp470
g7
(imyEvolve
Tree
p471
(dp472
g12
(imyEvolve
Tree
p473
(dp474
g7
(imyEvolve
Tree
p475
(dp476
g17
I0
sg19
I00
sbsg17
I1
sg23
I01
sg24
g89
sbsg17
I2
sg20
(imyEvolve
Tree
p477
(dp478
g7
(imyEvolve
Tree
p479
(dp480
g17
I0
sg18
F0.7499876423443368
sg19
I01
sbsg17
I1
sg23
I01
sg24
g43
sbsg23
I00
sg24
g31
sbsg17
I3
sg23
I01
sg24
g89
sbsg23
I00
sg24
g25
sbsg17
I5
sg23
I01
sg24
g30
sba(imyEvolve
Tree
p481
(dp482
g7
(imyEvolve
Tree
p483
(dp484
g7
(imyEvolve
Tree
p485
(dp486
g17
I0
sg18
F-3.5135333819848027
sg19
I01
sbsg17
I1
sg23
I01
sg24
g43
sbsg17
I2
sg23
I01
sg24
g43
sba(imyEvolve
Tree
p487
(dp488
g7
(imyEvolve
Tree
p489
(dp490
g12
(imyEvolve
Tree
p491
(dp492
g12
(imyEvolve
Tree
p493
(dp494
g7
(imyEvolve
Tree
p495
(dp496
g12
(imyEvolve
Tree
p497
(dp498
g17
I0
sg19
I00
sbsg17
I1
sg20
(imyEvolve
Tree
p499
(dp500
g17
I0
sg19
I00
sbsg23
I00
sg24
g50
sbsg17
I2
sg23
I01
sg24
g32
sbsg17
I3
sg20
(imyEvolve
Tree
p501
(dp502
g7
(imyEvolve
Tree
p503
(dp504
g7
(imyEvolve
Tree
p505
(dp506
g17
I0
sg18
F2.6726500594669336
sg19
I01
sbsg17
I1
sg23
I01
sg24
g32
sbsg17
I2
sg23
I01
sg24
g32
sbsg23
I00
sg24
g31
sbsg17
I4
sg20
(imyEvolve
Tree
p507
(dp508
g7
(imyEvolve
Tree
p509
(dp510
g7
(imyEvolve
Tree
p511
(dp512
g12
(imyEvolve
Tree
p513
(dp514
g17
I0
sg18
F4.809388307633151
sg19
I01
sbsg17
I1
sg20
(imyEvolve
Tree
p515
(dp516
g17
I0
sg18
F1.3213089522828172
sg19
I01
sbsg23
I00
sg24
g25
sbsg17
I2
sg23
I01
sg24
g89
sbsg17
I3
sg23
I01
sg24
g89
sbsg23
I00
sg24
g50
sbsg17
I5
sg23
I01
sg24
g30
sba(imyEvolve
Tree
p517
(dp518
g7
(imyEvolve
Tree
p519
(dp520
g17
I1
sg12
(imyEvolve
Tree
p521
(dp522
g17
I0
sg19
I00
sbsg20
(imyEvolve
Tree
p523
(dp524
g17
I0
sg18
F3.623310532646233
sg19
I01
sbsg23
I00
sg24
g25
sbsg17
I2
sg23
I01
sg24
g43
sba(imyEvolve
Tree
p525
(dp526
g12
(imyEvolve
Tree
p527
(dp528
g7
(imyEvolve
Tree
p529
(dp530
g7
(imyEvolve
Tree
p531
(dp532
g17
I0
sg18
F3.1813579674737102
sg19
I01
sbsg17
I1
sg23
I01
sg24
g89
sbsg17
I2
sg23
I01
sg24
g43
sbsg17
I3
sg20
(imyEvolve
Tree
p533
(dp534
g12
(imyEvolve
Tree
p535
(dp536
g7
(imyEvolve
Tree
p537
(dp538
g17
I0
sg19
I00
sbsg17
I1
sg23
I01
sg24
g89
sbsg17
I2
sg20
(imyEvolve
Tree
p539
(dp540
g7
(imyEvolve
Tree
p541
(dp542
g17
I0
sg18
F1.296368715750008
sg19
I01
sbsg17
I1
sg23
I01
sg24
g32
sbsg23
I00
sg24
g31
sbsg23
I00
sg24
g50
sba(imyEvolve
Tree
p543
(dp544
g7
(imyEvolve
Tree
p545
(dp546
g12
(imyEvolve
Tree
p547
(dp548
g17
I0
sg18
F-0.4127790538891851
sg19
I01
sbsg17
I1
sg20
(imyEvolve
Tree
p549
(dp550
g17
I0
sg19
I00
sbsg23
I00
sg24
g31
sbsg17
I2
sg23
I01
sg24
g89
sbaasS'alpha'
p551
F0.005191734986731201
sS'fitness'
p552
cnumpy.core.multiarray
scalar
p553
(cnumpy
dtype
p554
(S'f8'
p555
I0
I1
tp556
Rp557
(I3
S'<'
p558
NNNI-1
I-1
I0
tp559
bS'\x00HP\xfc\x04\x9c@\xbf'
p560
tp561
Rp562
sS'weightSharing'
p563
(lp564
I00
aI00
asS'fitnessValid'
p565
I00
sS'resolution'
p566
I53
sb.