(imyEvolve
Individual
p0
(dp1
S'funcs'
p2
(lp3
(lp4
(imyEvolve
Tree
p5
(dp6
S'below'
p7
(imyEvolve
Tree
p8
(dp9
S'depth'
p10
I4
sS'left'
p11
(imyEvolve
Tree
p12
(dp13
g10
I3
sg11
(imyEvolve
Tree
p14
(dp15
g7
(imyEvolve
Tree
p16
(dp17
g10
I1
sg11
(imyEvolve
Tree
p18
(dp19
g10
I0
sS'constant'
p20
F-0.1567339330981321
sS'isConstant'
p21
I01
sbsS'right'
p22
(imyEvolve
Tree
p23
(dp24
g10
I0
sg20
F2.421872244316945
sg21
I01
sbsS'single'
p25
I00
sS'op'
p26
coperator
sub
p27
sbsg10
I2
sg25
I01
sg26
cmyEvolve
square
p28
sbsg22
(imyEvolve
Tree
p29
(dp30
g7
(imyEvolve
Tree
p31
(dp32
g7
(imyEvolve
Tree
p33
(dp34
g10
I0
sg20
F2.1885392468017804
sg21
I01
sbsg10
I1
sg25
I01
sg26
g28
sbsg10
I2
sg25
I01
sg26
cmath
sin
p35
sbsg25
I00
sg26
coperator
mul
p36
sbsg22
(imyEvolve
Tree
p37
(dp38
g10
I3
sg11
(imyEvolve
Tree
p39
(dp40
g10
I2
sg11
(imyEvolve
Tree
p41
(dp42
g10
I1
sg11
(imyEvolve
Tree
p43
(dp44
g10
I0
sg20
F0.8074213988566195
sg21
I01
sbsg22
(imyEvolve
Tree
p45
(dp46
g10
I0
sg21
I00
sbsg25
I00
sg26
coperator
add
p47
sbsg22
(imyEvolve
Tree
p48
(dp49
g10
I1
sg11
(imyEvolve
Tree
p50
(dp51
g10
I0
sg21
I00
sbsg22
(imyEvolve
Tree
p52
(dp53
g10
I0
sg20
F2.5159491425505003
sg21
I01
sbsg25
I00
sg26
g27
sbsg25
I00
sg26
g36
sbsg22
(imyEvolve
Tree
p54
(dp55
g7
(imyEvolve
Tree
p56
(dp57
g10
I1
sg11
(imyEvolve
Tree
p58
(dp59
g10
I0
sg21
I00
sbsg22
(imyEvolve
Tree
p60
(dp61
g10
I0
sg20
F0.9630386296467819
sg21
I01
sbsg25
I00
sg26
g47
sbsg10
I2
sg25
I01
sg26
cmyEvolve
absSqrt
p62
sbsg25
I00
sg26
g27
sbsg25
I00
sg26
g27
sbsg10
I5
sg25
I01
sg26
g35
sba(imyEvolve
Tree
p63
(dp64
g10
I5
sg11
(imyEvolve
Tree
p65
(dp66
g7
(imyEvolve
Tree
p67
(dp68
g7
(imyEvolve
Tree
p69
(dp70
g10
I2
sg11
(imyEvolve
Tree
p71
(dp72
g7
(imyEvolve
Tree
p73
(dp74
g10
I0
sg20
F-0.8380255376505641
sg21
I01
sbsg10
I1
sg25
I01
sg26
cmath
cos
p75
sbsg22
(imyEvolve
Tree
p76
(dp77
g10
I1
sg11
(imyEvolve
Tree
p78
(dp79
g10
I0
sg20
F-3.7794837073837426
sg21
I01
sbsg22
(imyEvolve
Tree
p80
(dp81
g10
I0
sg21
I00
sbsg25
I00
sg26
g36
sbsg25
I00
sg26
g47
sbsg10
I3
sg25
I01
sg26
g75
sbsg10
I4
sg25
I01
sg26
g75
sbsg22
(imyEvolve
Tree
p82
(dp83
g7
(imyEvolve
Tree
p84
(dp85
g10
I3
sg11
(imyEvolve
Tree
p86
(dp87
g7
(imyEvolve
Tree
p88
(dp89
g10
I1
sg11
(imyEvolve
Tree
p90
(dp91
g10
I0
sg21
I00
sbsg22
(imyEvolve
Tree
p92
(dp93
g10
I0
sg20
F-3.248953198852994
sg21
I01
sbsg25
I00
sg26
g27
sbsg10
I2
sg25
I01
sg26
g35
sbsg22
(imyEvolve
Tree
p94
(dp95
g10
I2
sg11
(imyEvolve
Tree
p96
(dp97
g10
I1
sg11
(imyEvolve
Tree
p98
(dp99
g10
I0
sg20
F-2.895773970612059
sg21
I01
sbsg22
(imyEvolve
Tree
p100
(dp101
g10
I0
sg20
F3.039510526307293
sg21
I01
sbsg25
I00
sg26
g47
sbsg22
(imyEvolve
Tree
p102
(dp103
g10
I1
sg11
(imyEvolve
Tree
p104
(dp105
g10
I0
sg20
F1.6793488855954273
sg21
I01
sbsg22
(imyEvolve
Tree
p106
(dp107
g10
I0
sg20
F2.1412937056114814
sg21
I01
sbsg25
I00
sg26
g47
sbsg25
I00
sg26
g36
sbsg25
I00
sg26
g36
sbsg10
I4
sg25
I01
sg26
g62
sbsg25
I00
sg26
g27
sba(imyEvolve
Tree
p108
(dp109
g7
(imyEvolve
Tree
p110
(dp111
g10
I4
sg11
(imyEvolve
Tree
p112
(dp113
g10
I3
sg11
(imyEvolve
Tree
p114
(dp115
g10
I2
sg11
(imyEvolve
Tree
p116
(dp117
g7
(imyEvolve
Tree
p118
(dp119
g10
I0
sg20
F-1.4077822903863146
sg21
I01
sbsg10
I1
sg25
I01
sg26
g75
sbsg22
(imyEvolve
Tree
p120
(dp121
g7
(imyEvolve
Tree
p122
(dp123
g10
I0
sg21
I00
sbsg10
I1
sg25
I01
sg26
g35
sbsg25
I00
sg26
g36
sbsg22
(imyEvolve
Tree
p124
(dp125
g7
(imyEvolve
Tree
p126
(dp127
g7
(imyEvolve
Tree
p128
(dp129
g10
I0
sg21
I00
sbsg10
I1
sg25
I01
sg26
g35
sbsg10
I2
sg25
I01
sg26
g62
sbsg25
I00
sg26
g47
sbsg22
(imyEvolve
Tree
p130
(dp131
g10
I3
sg11
(imyEvolve
Tree
p132
(dp133
g7
(imyEvolve
Tree
p134
(dp135
g10
I1
sg11
(imyEvolve
Tree
p136
(dp137
g10
I0
sg21
I00
sbsg22
(imyEvolve
Tree
p138
(dp139
g10
I0
sg21
I00
sbsg25
I00
sg26
g27
sbsg10
I2
sg25
I01
sg26
g75
sbsg22
(imyEvolve
Tree
p140
(dp141
g10
I2
sg11
(imyEvolve
Tree
p142
(dp143
g10
I1
sg11
(imyEvolve
Tree
p144
(dp145
g10
I0
sg20
F2.340320815118825
sg21
I01
sbsg22
(imyEvolve
Tree
p146
(dp147
g10
I0
sg21
I00
sbsg25
I00
sg26
g27
sbsg22
(imyEvolve
Tree
p148
(dp149
g10
I1
sg11
(imyEvolve
Tree
p150
(dp151
g10
I0
sg21
I00
sbsg22
(imyEvolve
Tree
p152
(dp153
g10
I0
sg20
F-3.560813079166334
sg21
I01
sbsg25
I00
sg26
g36
sbsg25
I00
sg26
g36
sbsg25
I00
sg26
g27
sbsg25
I00
sg26
g27
sbsg10
I5
sg25
I01
sg26
g28
sba(imyEvolve
Tree
p154
(dp155
g10
I4
sg11
(imyEvolve
Tree
p156
(dp157
g10
I3
sg11
(imyEvolve
Tree
p158
(dp159
g7
(imyEvolve
Tree
p160
(dp161
g7
(imyEvolve
Tree
p162
(dp163
g10
I0
sg20
F3.3335892866826775
sg21
I01
sbsg10
I1
sg25
I01
sg26
g35
sbsg10
I2
sg25
I01
sg26
g28
sbsg22
(imyEvolve
Tree
p164
(dp165
g10
I2
sg11
(imyEvolve
Tree
p166
(dp167
g7
(imyEvolve
Tree
p168
(dp169
g10
I0
sg20
F3.3341755480444135
sg21
I01
sbsg10
I1
sg25
I01
sg26
g35
sbsg22
(imyEvolve
Tree
p170
(dp171
g10
I1
sg11
(imyEvolve
Tree
p172
(dp173
g10
I0
sg20
F-1.254207986199428
sg21
I01
sbsg22
(imyEvolve
Tree
p174
(dp175
g10
I0
sg20
F-0.21509088599770898
sg21
I01
sbsg25
I00
sg26
g27
sbsg25
I00
sg26
g36
sbsg25
I00
sg26
g36
sbsg22
(imyEvolve
Tree
p176
(dp177
g10
I3
sg11
(imyEvolve
Tree
p178
(dp179
g7
(imyEvolve
Tree
p180
(dp181
g7
(imyEvolve
Tree
p182
(dp183
g10
I0
sg20
F-4.926654355176884
sg21
I01
sbsg10
I1
sg25
I01
sg26
g75
sbsg10
I2
sg25
I01
sg26
g35
sbsg22
(imyEvolve
Tree
p184
(dp185
g7
(imyEvolve
Tree
p186
(dp187
g7
(imyEvolve
Tree
p188
(dp189
g10
I0
sg21
I00
sbsg10
I1
sg25
I01
sg26
g62
sbsg10
I2
sg25
I01
sg26
g62
sbsg25
I00
sg26
g47
sbsg25
I00
sg26
g47
sba(imyEvolve
Tree
p190
(dp191
g7
(imyEvolve
Tree
p192
(dp193
g7
(imyEvolve
Tree
p194
(dp195
g10
I3
sg11
(imyEvolve
Tree
p196
(dp197
g10
I2
sg11
(imyEvolve
Tree
p198
(dp199
g10
I1
sg11
(imyEvolve
Tree
p200
(dp201
g10
I0
sg21
I00
sbsg22
(imyEvolve
Tree
p202
(dp203
g10
I0
sg21
I00
sbsg25
I00
sg26
g27
sbsg22
(imyEvolve
Tree
p204
(dp205
g10
I1
sg11
(imyEvolve
Tree
p206
(dp207
g10
I0
sg20
F0.7517924759591121
sg21
I01
sbsg22
(imyEvolve
Tree
p208
(dp209
g10
I0
sg20
F-0.483102188457992
sg21
I01
sbsg25
I00
sg26
g36
sbsg25
I00
sg26
g27
sbsg22
(imyEvolve
Tree
p210
(dp211
g10
I2
sg11
(imyEvolve
Tree
p212
(dp213
g10
I1
sg11
(imyEvolve
Tree
p214
(dp215
g10
I0
sg20
F-2.8032167558436516
sg21
I01
sbsg22
(imyEvolve
Tree
p216
(dp217
g10
I0
sg20
F4.589324101154862
sg21
I01
sbsg25
I00
sg26
g36
sbsg22
(imyEvolve
Tree
p218
(dp219
g7
(imyEvolve
Tree
p220
(dp221
g10
I0
sg20
F-4.013373349793947
sg21
I01
sbsg10
I1
sg25
I01
sg26
g28
sbsg25
I00
sg26
g36
sbsg25
I00
sg26
g47
sbsg10
I4
sg25
I01
sg26
g28
sbsg10
I5
sg25
I01
sg26
g75
sba(imyEvolve
Tree
p222
(dp223
g10
I4
sg11
(imyEvolve
Tree
p224
(dp225
g10
I3
sg11
(imyEvolve
Tree
p226
(dp227
g10
I2
sg11
(imyEvolve
Tree
p228
(dp229
g7
(imyEvolve
Tree
p230
(dp231
g10
I0
sg21
I00
sbsg10
I1
sg25
I01
sg26
g28
sbsg22
(imyEvolve
Tree
p232
(dp233
g10
I1
sg11
(imyEvolve
Tree
p234
(dp235
g10
I0
sg20
F1.6501672326090278
sg21
I01
sbsg22
(imyEvolve
Tree
p236
(dp237
g10
I0
sg21
I00
sbsg25
I00
sg26
g36
sbsg25
I00
sg26
g36
sbsg22
(imyEvolve
Tree
p238
(dp239
g7
(imyEvolve
Tree
p240
(dp241
g7
(imyEvolve
Tree
p242
(dp243
g10
I0
sg20
F-4.442834455902922
sg21
I01
sbsg10
I1
sg25
I01
sg26
g62
sbsg10
I2
sg25
I01
sg26
g62
sbsg25
I00
sg26
g47
sbsg22
(imyEvolve
Tree
p244
(dp245
g10
I3
sg11
(imyEvolve
Tree
p246
(dp247
g7
(imyEvolve
Tree
p248
(dp249
g10
I1
sg11
(imyEvolve
Tree
p250
(dp251
g10
I0
sg20
F-4.967186583900148
sg21
I01
sbsg22
(imyEvolve
Tree
p252
(dp253
g10
I0
sg21
I00
sbsg25
I00
sg26
g47
sbsg10
I2
sg25
I01
sg26
g28
sbsg22
(imyEvolve
Tree
p254
(dp255
g7
(imyEvolve
Tree
p256
(dp257
g7
(imyEvolve
Tree
p258
(dp259
g10
I0
sg21
I00
sbsg10
I1
sg25
I01
sg26
g28
sbsg10
I2
sg25
I01
sg26
g28
sbsg25
I00
sg26
g27
sbsg25
I00
sg26
g36
sba(imyEvolve
Tree
p260
(dp261
g10
I3
sg11
(imyEvolve
Tree
p262
(dp263
g7
(imyEvolve
Tree
p264
(dp265
g10
I1
sg11
(imyEvolve
Tree
p266
(dp267
g10
I0
sg21
I00
sbsg22
(imyEvolve
Tree
p268
(dp269
g10
I0
sg21
I00
sbsg25
I00
sg26
g36
sbsg10
I2
sg25
I01
sg26
g62
sbsg22
(imyEvolve
Tree
p270
(dp271
g10
I2
sg11
(imyEvolve
Tree
p272
(dp273
g10
I1
sg11
(imyEvolve
Tree
p274
(dp275
g10
I0
sg20
F-1.261443080845325
sg21
I01
sbsg22
(imyEvolve
Tree
p276
(dp277
g10
I0
sg20
F-2.347054031109932
sg21
I01
sbsg25
I00
sg26
g36
sbsg22
(imyEvolve
Tree
p278
(dp279
g7
(imyEvolve
Tree
p280
(dp281
g10
I0
sg20
F3.627655662683429
sg21
I01
sbsg10
I1
sg25
I01
sg26
g62
sbsg25
I00
sg26
g36
sbsg25
I00
sg26
g36
sba(imyEvolve
Tree
p282
(dp283
g10
I4
sg11
(imyEvolve
Tree
p284
(dp285
g10
I3
sg11
(imyEvolve
Tree
p286
(dp287
g7
(imyEvolve
Tree
p288
(dp289
g7
(imyEvolve
Tree
p290
(dp291
g10
I0
sg20
F4.5495416839352725
sg21
I01
sbsg10
I1
sg25
I01
sg26
g35
sbsg10
I2
sg25
I01
sg26
g75
sbsg22
(imyEvolve
Tree
p292
(dp293
g7
(imyEvolve
Tree
p294
(dp295
g7
(imyEvolve
Tree
p296
(dp297
g10
I0
sg20
F2.2143704993036035
sg21
I01
sbsg10
I1
sg25
I01
sg26
g75
sbsg10
I2
sg25
I01
sg26
g35
sbsg25
I00
sg26
g47
sbsg22
(imyEvolve
Tree
p298
(dp299
g7
(imyEvolve
Tree
p300
(dp301
g7
(imyEvolve
Tree
p302
(dp303
g7
(imyEvolve
Tree
p304
(dp305
g10
I0
sg20
F-4.6783858771746845
sg21
I01
sbsg10
I1
sg25
I01
sg26
g28
sbsg10
I2
sg25
I01
sg26
g62
sbsg10
I3
sg25
I01
sg26
g28
sbsg25
I00
sg26
g47
sba(imyEvolve
Tree
p306
(dp307
g7
(imyEvolve
Tree
p308
(dp309
g7
(imyEvolve
Tree
p310
(dp311
g10
I0
sg20
F3.8912547698973174
sg21
I01
sbsg10
I1
sg25
I01
sg26
g35
sbsg10
I2
sg25
I01
sg26
g35
sba(imyEvolve
Tree
p312
(dp313
g7
(imyEvolve
Tree
p314
(dp315
g7
(imyEvolve
Tree
p316
(dp317
g10
I3
sg11
(imyEvolve
Tree
p318
(dp319
g7
(imyEvolve
Tree
p320
(dp321
g7
(imyEvolve
Tree
p322
(dp323
g10
I0
sg21
I00
sbsg10
I1
sg25
I01
sg26
g62
sbsg10
I2
sg25
I01
sg26
g62
sbsg22
(imyEvolve
Tree
p324
(dp325
g10
I2
sg11
(imyEvolve
Tree
p326
(dp327
g7
(imyEvolve
Tree
p328
(dp329
g10
I0
sg20
F-1.0175882986889508
sg21
I01
sbsg10
I1
sg25
I01
sg26
g35
sbsg22
(imyEvolve
Tree
p330
(dp331
g7
(imyEvolve
Tree
p332
(dp333
g10
I0
sg21
I00
sbsg10
I1
sg25
I01
sg26
g35
sbsg25
I00
sg26
g47
sbsg25
I00
sg26
g47
sbsg10
I4
sg25
I01
sg26
g62
sbsg10
I5
sg25
I01
sg26
g28
sba(imyEvolve
Tree
p334
(dp335
g10
I4
sg11
(imyEvolve
Tree
p336
(dp337
g10
I3
sg11
(imyEvolve
Tree
p338
(dp339
g7
(imyEvolve
Tree
p340
(dp341
g10
I1
sg11
(imyEvolve
Tree
p342
(dp343
g10
I0
sg21
I00
sbsg22
(imyEvolve
Tree
p344
(dp345
g10
I0
sg21
I00
sbsg25
I00
sg26
g47
sbsg10
I2
sg25
I01
sg26
g35
sbsg22
(imyEvolve
Tree
p346
(dp347
g10
I2
sg11
(imyEvolve
Tree
p348
(dp349
g7
(imyEvolve
Tree
p350
(dp351
g10
I0
sg20
F-0.6562598472611825
sg21
I01
sbsg10
I1
sg25
I01
sg26
g35
sbsg22
(imyEvolve
Tree
p352
(dp353
g10
I1
sg11
(imyEvolve
Tree
p354
(dp355
g10
I0
sg21
I00
sbsg22
(imyEvolve
Tree
p356
(dp357
g10
I0
sg20
F-1.1017581388252107
sg21
I01
sbsg25
I00
sg26
g47
sbsg25
I00
sg26
g47
sbsg25
I00
sg26
g36
sbsg22
(imyEvolve
Tree
p358
(dp359
g7
(imyEvolve
Tree
p360
(dp361
g10
I2
sg11
(imyEvolve
Tree
p362
(dp363
g7
(imyEvolve
Tree
p364
(dp365
g10
I0
sg20
F-3.3124722463006337
sg21
I01
sbsg10
I1
sg25
I01
sg26
g62
sbsg22
(imyEvolve
Tree
p366
(dp367
g10
I1
sg11
(imyEvolve
Tree
p368
(dp369
g10
I0
sg20
F3.178648889191315
sg21
I01
sbsg22
(imyEvolve
Tree
p370
(dp371
g10
I0
sg20
F-0.3949489632919594
sg21
I01
sbsg25
I00
sg26
g47
sbsg25
I00
sg26
g27
sbsg10
I3
sg25
I01
sg26
g75
sbsg25
I00
sg26
g36
sba(imyEvolve
Tree
p372
(dp373
g7
(imyEvolve
Tree
p374
(dp375
g7
(imyEvolve
Tree
p376
(dp377
g10
I0
sg20
F2.565364978109253
sg21
I01
sbsg10
I1
sg25
I01
sg26
g62
sbsg10
I2
sg25
I01
sg26
g28
sba(imyEvolve
Tree
p378
(dp379
g10
I5
sg11
(imyEvolve
Tree
p380
(dp381
g7
(imyEvolve
Tree
p382
(dp383
g7
(imyEvolve
Tree
p384
(dp385
g10
I2
sg11
(imyEvolve
Tree
p386
(dp387
g10
I1
sg11
(imyEvolve
Tree
p388
(dp389
g10
I0
sg20
F4.934056317547997
sg21
I01
sbsg22
(imyEvolve
Tree
p390
(dp391
g10
I0
sg21
I00
sbsg25
I00
sg26
g47
sbsg22
(imyEvolve
Tree
p392
(dp393
g10
I1
sg11
(imyEvolve
Tree
p394
(dp395
g10
I0
sg20
F-3.9781704807264284
sg21
I01
sbsg22
(imyEvolve
Tree
p396
(dp397
g10
I0
sg21
I00
sbsg25
I00
sg26
g27
sbsg25
I00
sg26
g36
sbsg10
I3
sg25
I01
sg26
g62
sbsg10
I4
sg25
I01
sg26
g75
sbsg22
(imyEvolve
Tree
p398
(dp399
g7
(imyEvolve
Tree
p400
(dp401
g7
(imyEvolve
Tree
p402
(dp403
g10
I2
sg11
(imyEvolve
Tree
p404
(dp405
g7
(imyEvolve
Tree
p406
(dp407
g10
I0
sg20
F-3.802300425409124
sg21
I01
sbsg10
I1
sg25
I01
sg26
g35
sbsg22
(imyEvolve
Tree
p408
(dp409
g7
(imyEvolve
Tree
p410
(dp411
g10
I0
sg21
I00
sbsg10
I1
sg25
I01
sg26
g75
sbsg25
I00
sg26
g27
sbsg10
I3
sg25
I01
sg26
g62
sbsg10
I4
sg25
I01
sg26
g75
sbsg25
I00
sg26
g27
sba(imyEvolve
Tree
p412
(dp413
g10
I4
sg11
(imyEvolve
Tree
p414
(dp415
g7
(imyEvolve
Tree
p416
(dp417
g10
I2
sg11
(imyEvolve
Tree
p418
(dp419
g7
(imyEvolve
Tree
p420
(dp421
g10
I0
sg21
I00
sbsg10
I1
sg25
I01
sg26
g62
sbsg22
(imyEvolve
Tree
p422
(dp423
g10
I1
sg11
(imyEvolve
Tree
p424
(dp425
g10
I0
sg21
I00
sbsg22
(imyEvolve
Tree
p426
(dp427
g10
I0
sg20
F2.892508472561021
sg21
I01
sbsg25
I00
sg26
g47
sbsg25
I00
sg26
g47
sbsg10
I3
sg25
I01
sg26
g35
sbsg22
(imyEvolve
Tree
p428
(dp429
g7
(imyEvolve
Tree
p430
(dp431
g10
I2
sg11
(imyEvolve
Tree
p432
(dp433
g7
(imyEvolve
Tree
p434
(dp435
g10
I0
sg21
I00
sbsg10
I1
sg25
I01
sg26
g75
sbsg22
(imyEvolve
Tree
p436
(dp437
g7
(imyEvolve
Tree
p438
(dp439
g10
I0
sg20
F4.5007082978161
sg21
I01
sbsg10
I1
sg25
I01
sg26
g28
sbsg25
I00
sg26
g27
sbsg10
I3
sg25
I01
sg26
g75
sbsg25
I00
sg26
g27
sbaasS'weightSharing'
p440
(lp441
I00
aI00
aI00
aI00
aI00
aI00
aI00
aI00
aI00
asS'fitnessValid'
p442
I00
sS'fitness'
p443
cnumpy.core.multiarray
scalar
p444
(cnumpy
dtype
p445
(S'f8'
p446
I0
I1
tp447
Rp448
(I3
S'<'
p449
NNNI-1
I-1
I0
tp450
bS'\x00\xb4\xc8v*_P?'
p451
tp452
Rp453
sS'alpha'
p454
F0.00536237185308151
sS'resolution'
p455
I97
sb.