(imyEvolve
Individual
p0
(dp1
S'funcs'
p2
(lp3
(lp4
(imyEvolve
Tree
p5
(dp6
S'left'
p7
(imyEvolve
Tree
p8
(dp9
g7
(imyEvolve
Tree
p10
(dp11
g7
(imyEvolve
Tree
p12
(dp13
S'below'
p14
(imyEvolve
Tree
p15
(dp16
S'depth'
p17
I0
sS'constant'
p18
F-4.4590358592361135
sS'isConstant'
p19
I01
sbsg17
I1
sS'single'
p20
I01
sS'op'
p21
cmath
sin
p22
sbsg17
I2
sS'right'
p23
(imyEvolve
Tree
p24
(dp25
g14
(imyEvolve
Tree
p26
(dp27
g17
I0
sg18
F-3.8868358677178003
sg19
I01
sbsg17
I1
sg20
I01
sg21
g22
sbsg20
I00
sg21
coperator
sub
p28
sbsg17
I3
sg23
(imyEvolve
Tree
p29
(dp30
g7
(imyEvolve
Tree
p31
(dp32
g14
(imyEvolve
Tree
p33
(dp34
g17
I0
sg19
I00
sbsg17
I1
sg20
I01
sg21
cmyEvolve
absSqrt
p35
sbsg17
I2
sg23
(imyEvolve
Tree
p36
(dp37
g7
(imyEvolve
Tree
p38
(dp39
g17
I0
sg18
F-0.724028644863516
sg19
I01
sbsg17
I1
sg23
(imyEvolve
Tree
p40
(dp41
g17
I0
sg18
F-4.484443587158648
sg19
I01
sbsg20
I00
sg21
coperator
add
p42
sbsg20
I00
sg21
g28
sbsg20
I00
sg21
coperator
mul
p43
sbsg17
I4
sg23
(imyEvolve
Tree
p44
(dp45
g7
(imyEvolve
Tree
p46
(dp47
g7
(imyEvolve
Tree
p48
(dp49
g7
(imyEvolve
Tree
p50
(dp51
g17
I0
sg18
F0.9673238546036531
sg19
I01
sbsg17
I1
sg23
(imyEvolve
Tree
p52
(dp53
g17
I0
sg19
I00
sbsg20
I00
sg21
g28
sbsg17
I2
sg23
(imyEvolve
Tree
p54
(dp55
g14
(imyEvolve
Tree
p56
(dp57
g17
I0
sg18
F-2.290018084195787
sg19
I01
sbsg17
I1
sg20
I01
sg21
g22
sbsg20
I00
sg21
g43
sbsg17
I3
sg23
(imyEvolve
Tree
p58
(dp59
g7
(imyEvolve
Tree
p60
(dp61
g14
(imyEvolve
Tree
p62
(dp63
g17
I0
sg18
F3.5812980826667093
sg19
I01
sbsg17
I1
sg20
I01
sg21
g22
sbsg17
I2
sg23
(imyEvolve
Tree
p64
(dp65
g14
(imyEvolve
Tree
p66
(dp67
g17
I0
sg18
F-4.775513033527141
sg19
I01
sbsg17
I1
sg20
I01
sg21
g35
sbsg20
I00
sg21
g43
sbsg20
I00
sg21
g28
sbsg20
I00
sg21
g42
sba(imyEvolve
Tree
p68
(dp69
g14
(imyEvolve
Tree
p70
(dp71
g17
I3
sg7
(imyEvolve
Tree
p72
(dp73
g14
(imyEvolve
Tree
p74
(dp75
g17
I1
sg7
(imyEvolve
Tree
p76
(dp77
g17
I0
sg18
F-1.9195401520068875
sg19
I01
sbsg23
(imyEvolve
Tree
p78
(dp79
g17
I0
sg18
F3.1399231440303037
sg19
I01
sbsg20
I00
sg21
g43
sbsg17
I2
sg20
I01
sg21
g22
sbsg23
(imyEvolve
Tree
p80
(dp81
g17
I2
sg7
(imyEvolve
Tree
p82
(dp83
g14
(imyEvolve
Tree
p84
(dp85
g17
I0
sg19
I00
sbsg17
I1
sg20
I01
sg21
cmath
cos
p86
sbsg23
(imyEvolve
Tree
p87
(dp88
g17
I1
sg7
(imyEvolve
Tree
p89
(dp90
g17
I0
sg18
F3.605294997294534
sg19
I01
sbsg23
(imyEvolve
Tree
p91
(dp92
g17
I0
sg19
I00
sbsg20
I00
sg21
g28
sbsg20
I00
sg21
g28
sbsg20
I00
sg21
g43
sbsg17
I4
sg20
I01
sg21
g86
sba(imyEvolve
Tree
p93
(dp94
g7
(imyEvolve
Tree
p95
(dp96
g7
(imyEvolve
Tree
p97
(dp98
g14
(imyEvolve
Tree
p99
(dp100
g17
I0
sg19
I00
sbsg17
I1
sg20
I01
sg21
cmyEvolve
square
p101
sbsg17
I2
sg23
(imyEvolve
Tree
p102
(dp103
g7
(imyEvolve
Tree
p104
(dp105
g17
I0
sg18
F-3.032380191598122
sg19
I01
sbsg17
I1
sg23
(imyEvolve
Tree
p106
(dp107
g17
I0
sg19
I00
sbsg20
I00
sg21
g42
sbsg20
I00
sg21
g42
sbsg17
I3
sg23
(imyEvolve
Tree
p108
(dp109
g14
(imyEvolve
Tree
p110
(dp111
g7
(imyEvolve
Tree
p112
(dp113
g17
I0
sg18
F-1.8707328902086218
sg19
I01
sbsg17
I1
sg23
(imyEvolve
Tree
p114
(dp115
g17
I0
sg19
I00
sbsg20
I00
sg21
g43
sbsg17
I2
sg20
I01
sg21
g86
sbsg20
I00
sg21
g28
sba(imyEvolve
Tree
p116
(dp117
g14
(imyEvolve
Tree
p118
(dp119
g14
(imyEvolve
Tree
p120
(dp121
g17
I0
sg19
I00
sbsg17
I1
sg20
I01
sg21
g22
sbsg17
I2
sg20
I01
sg21
g35
sba(imyEvolve
Tree
p122
(dp123
g17
I3
sg7
(imyEvolve
Tree
p124
(dp125
g14
(imyEvolve
Tree
p126
(dp127
g17
I1
sg7
(imyEvolve
Tree
p128
(dp129
g17
I0
sg19
I00
sbsg23
(imyEvolve
Tree
p130
(dp131
g17
I0
sg19
I00
sbsg20
I00
sg21
g43
sbsg17
I2
sg20
I01
sg21
g101
sbsg23
(imyEvolve
Tree
p132
(dp133
g17
I2
sg7
(imyEvolve
Tree
p134
(dp135
g14
(imyEvolve
Tree
p136
(dp137
g17
I0
sg18
F3.7719965867171936
sg19
I01
sbsg17
I1
sg20
I01
sg21
g35
sbsg23
(imyEvolve
Tree
p138
(dp139
g14
(imyEvolve
Tree
p140
(dp141
g17
I0
sg18
F1.4211872113203006
sg19
I01
sbsg17
I1
sg20
I01
sg21
g101
sbsg20
I00
sg21
g42
sbsg20
I00
sg21
g43
sba(imyEvolve
Tree
p142
(dp143
g7
(imyEvolve
Tree
p144
(dp145
g14
(imyEvolve
Tree
p146
(dp147
g14
(imyEvolve
Tree
p148
(dp149
g17
I0
sg19
I00
sbsg17
I1
sg20
I01
sg21
g101
sbsg17
I2
sg20
I01
sg21
g22
sbsg17
I3
sg23
(imyEvolve
Tree
p150
(dp151
g14
(imyEvolve
Tree
p152
(dp153
g7
(imyEvolve
Tree
p154
(dp155
g17
I0
sg18
F-3.763745197392746
sg19
I01
sbsg17
I1
sg23
(imyEvolve
Tree
p156
(dp157
g17
I0
sg19
I00
sbsg20
I00
sg21
g42
sbsg17
I2
sg20
I01
sg21
g22
sbsg20
I00
sg21
g42
sba(imyEvolve
Tree
p158
(dp159
g17
I4
sg7
(imyEvolve
Tree
p160
(dp161
g14
(imyEvolve
Tree
p162
(dp163
g14
(imyEvolve
Tree
p164
(dp165
g14
(imyEvolve
Tree
p166
(dp167
g17
I0
sg18
F2.270308283954825
sg19
I01
sbsg17
I1
sg20
I01
sg21
g35
sbsg17
I2
sg20
I01
sg21
g22
sbsg17
I3
sg20
I01
sg21
g22
sbsg23
(imyEvolve
Tree
p168
(dp169
g17
I3
sg7
(imyEvolve
Tree
p170
(dp171
g17
I2
sg7
(imyEvolve
Tree
p172
(dp173
g17
I1
sg7
(imyEvolve
Tree
p174
(dp175
g17
I0
sg19
I00
sbsg23
(imyEvolve
Tree
p176
(dp177
g17
I0
sg19
I00
sbsg20
I00
sg21
g42
sbsg23
(imyEvolve
Tree
p178
(dp179
g17
I1
sg7
(imyEvolve
Tree
p180
(dp181
g17
I0
sg18
F2.6288304430035545
sg19
I01
sbsg23
(imyEvolve
Tree
p182
(dp183
g17
I0
sg19
I00
sbsg20
I00
sg21
g42
sbsg20
I00
sg21
g42
sbsg23
(imyEvolve
Tree
p184
(dp185
g14
(imyEvolve
Tree
p186
(dp187
g14
(imyEvolve
Tree
p188
(dp189
g17
I0
sg19
I00
sbsg17
I1
sg20
I01
sg21
g35
sbsg17
I2
sg20
I01
sg21
g22
sbsg20
I00
sg21
g42
sbsg20
I00
sg21
g43
sba(imyEvolve
Tree
p190
(dp191
g7
(imyEvolve
Tree
p192
(dp193
g14
(imyEvolve
Tree
p194
(dp195
g14
(imyEvolve
Tree
p196
(dp197
g17
I0
sg19
I00
sbsg17
I1
sg20
I01
sg21
g101
sbsg17
I2
sg20
I01
sg21
g22
sbsg17
I3
sg23
(imyEvolve
Tree
p198
(dp199
g14
(imyEvolve
Tree
p200
(dp201
g7
(imyEvolve
Tree
p202
(dp203
g17
I0
sg19
I00
sbsg17
I1
sg23
(imyEvolve
Tree
p204
(dp205
g17
I0
sg19
I00
sbsg20
I00
sg21
g43
sbsg17
I2
sg20
I01
sg21
g22
sbsg20
I00
sg21
g28
sba(imyEvolve
Tree
p206
(dp207
g7
(imyEvolve
Tree
p208
(dp209
g7
(imyEvolve
Tree
p210
(dp211
g17
I0
sg18
F-0.8599608241347321
sg19
I01
sbsg17
I1
sg23
(imyEvolve
Tree
p212
(dp213
g17
I0
sg18
F-2.8794523240010372
sg19
I01
sbsg20
I00
sg21
g28
sbsg17
I2
sg23
(imyEvolve
Tree
p214
(dp215
g14
(imyEvolve
Tree
p216
(dp217
g17
I0
sg19
I00
sbsg17
I1
sg20
I01
sg21
g35
sbsg20
I00
sg21
g28
sba(imyEvolve
Tree
p218
(dp219
g17
I3
sg7
(imyEvolve
Tree
p220
(dp221
g14
(imyEvolve
Tree
p222
(dp223
g14
(imyEvolve
Tree
p224
(dp225
g17
I0
sg19
I00
sbsg17
I1
sg20
I01
sg21
g22
sbsg17
I2
sg20
I01
sg21
g86
sbsg23
(imyEvolve
Tree
p226
(dp227
g14
(imyEvolve
Tree
p228
(dp229
g14
(imyEvolve
Tree
p230
(dp231
g17
I0
sg19
I00
sbsg17
I1
sg20
I01
sg21
g86
sbsg17
I2
sg20
I01
sg21
g101
sbsg20
I00
sg21
g43
sba(imyEvolve
Tree
p232
(dp233
g17
I2
sg7
(imyEvolve
Tree
p234
(dp235
g14
(imyEvolve
Tree
p236
(dp237
g17
I0
sg19
I00
sbsg17
I1
sg20
I01
sg21
g22
sbsg23
(imyEvolve
Tree
p238
(dp239
g17
I1
sg7
(imyEvolve
Tree
p240
(dp241
g17
I0
sg19
I00
sbsg23
(imyEvolve
Tree
p242
(dp243
g17
I0
sg18
F-2.143070297015303
sg19
I01
sbsg20
I00
sg21
g28
sbsg20
I00
sg21
g42
sba(imyEvolve
Tree
p244
(dp245
g7
(imyEvolve
Tree
p246
(dp247
g7
(imyEvolve
Tree
p248
(dp249
g7
(imyEvolve
Tree
p250
(dp251
g17
I0
sg19
I00
sbsg17
I1
sg23
(imyEvolve
Tree
p252
(dp253
g17
I0
sg19
I00
sbsg20
I00
sg21
g43
sbsg17
I2
sg23
(imyEvolve
Tree
p254
(dp255
g7
(imyEvolve
Tree
p256
(dp257
g17
I0
sg18
F-2.743077610343846
sg19
I01
sbsg17
I1
sg23
(imyEvolve
Tree
p258
(dp259
g17
I0
sg18
F3.283815050504437
sg19
I01
sbsg20
I00
sg21
g28
sbsg20
I00
sg21
g28
sbsg17
I3
sg23
(imyEvolve
Tree
p260
(dp261
g7
(imyEvolve
Tree
p262
(dp263
g7
(imyEvolve
Tree
p264
(dp265
g17
I0
sg19
I00
sbsg17
I1
sg23
(imyEvolve
Tree
p266
(dp267
g17
I0
sg19
I00
sbsg20
I00
sg21
g43
sbsg17
I2
sg23
(imyEvolve
Tree
p268
(dp269
g14
(imyEvolve
Tree
p270
(dp271
g17
I0
sg18
F0.9294295887408701
sg19
I01
sbsg17
I1
sg20
I01
sg21
g35
sbsg20
I00
sg21
g42
sbsg20
I00
sg21
g42
sba(imyEvolve
Tree
p272
(dp273
g17
I3
sg7
(imyEvolve
Tree
p274
(dp275
g14
(imyEvolve
Tree
p276
(dp277
g14
(imyEvolve
Tree
p278
(dp279
g17
I0
sg18
F4.005610681424592
sg19
I01
sbsg17
I1
sg20
I01
sg21
g101
sbsg17
I2
sg20
I01
sg21
g101
sbsg23
(imyEvolve
Tree
p280
(dp281
g17
I2
sg7
(imyEvolve
Tree
p282
(dp283
g14
(imyEvolve
Tree
p284
(dp285
g17
I0
sg19
I00
sbsg17
I1
sg20
I01
sg21
g101
sbsg23
(imyEvolve
Tree
p286
(dp287
g14
(imyEvolve
Tree
p288
(dp289
g17
I0
sg19
I00
sbsg17
I1
sg20
I01
sg21
g35
sbsg20
I00
sg21
g42
sbsg20
I00
sg21
g28
sba(imyEvolve
Tree
p290
(dp291
g14
(imyEvolve
Tree
p292
(dp293
g7
(imyEvolve
Tree
p294
(dp295
g7
(imyEvolve
Tree
p296
(dp297
g14
(imyEvolve
Tree
p298
(dp299
g17
I0
sg19
I00
sbsg17
I1
sg20
I01
sg21
g35
sbsg17
I2
sg23
(imyEvolve
Tree
p300
(dp301
g14
(imyEvolve
Tree
p302
(dp303
g17
I0
sg18
F1.7539509873770154
sg19
I01
sbsg17
I1
sg20
I01
sg21
g101
sbsg20
I00
sg21
g43
sbsg17
I3
sg23
(imyEvolve
Tree
p304
(dp305
g14
(imyEvolve
Tree
p306
(dp307
g7
(imyEvolve
Tree
p308
(dp309
g17
I0
sg19
I00
sbsg17
I1
sg23
(imyEvolve
Tree
p310
(dp311
g17
I0
sg19
I00
sbsg20
I00
sg21
g28
sbsg17
I2
sg20
I01
sg21
g101
sbsg20
I00
sg21
g28
sbsg17
I4
sg20
I01
sg21
g35
sba(imyEvolve
Tree
p312
(dp313
g14
(imyEvolve
Tree
p314
(dp315
g14
(imyEvolve
Tree
p316
(dp317
g14
(imyEvolve
Tree
p318
(dp319
g14
(imyEvolve
Tree
p320
(dp321
g17
I0
sg19
I00
sbsg17
I1
sg20
I01
sg21
g101
sbsg17
I2
sg20
I01
sg21
g86
sbsg17
I3
sg20
I01
sg21
g35
sbsg17
I4
sg20
I01
sg21
g86
sbaa(lp322
(imyEvolve
Tree
p323
(dp324
g7
(imyEvolve
Tree
p325
(dp326
g7
(imyEvolve
Tree
p327
(dp328
g7
(imyEvolve
Tree
p329
(dp330
g14
(imyEvolve
Tree
p331
(dp332
g17
I0
sg19
I00
sbsg17
I1
sg20
I01
sg21
g101
sbsg17
I2
sg23
(imyEvolve
Tree
p333
(dp334
g7
(imyEvolve
Tree
p335
(dp336
g17
I0
sg18
F2.7425479563792976
sg19
I01
sbsg17
I1
sg23
(imyEvolve
Tree
p337
(dp338
g17
I0
sg18
F-3.292245874052284
sg19
I01
sbsg20
I00
sg21
g43
sbsg20
I00
sg21
g43
sbsg17
I3
sg23
(imyEvolve
Tree
p339
(dp340
g7
(imyEvolve
Tree
p341
(dp342
g7
(imyEvolve
Tree
p343
(dp344
g17
I0
sg18
F-0.8385714682470624
sg19
I01
sbsg17
I1
sg23
(imyEvolve
Tree
p345
(dp346
g17
I0
sg19
I00
sbsg20
I00
sg21
g42
sbsg17
I2
sg23
(imyEvolve
Tree
p347
(dp348
g14
(imyEvolve
Tree
p349
(dp350
g17
I0
sg19
I00
sbsg17
I1
sg20
I01
sg21
g22
sbsg20
I00
sg21
g28
sbsg20
I00
sg21
g28
sbsg17
I4
sg23
(imyEvolve
Tree
p351
(dp352
g14
(imyEvolve
Tree
p353
(dp354
g7
(imyEvolve
Tree
p355
(dp356
g7
(imyEvolve
Tree
p357
(dp358
g17
I0
sg19
I00
sbsg17
I1
sg23
(imyEvolve
Tree
p359
(dp360
g17
I0
sg19
I00
sbsg20
I00
sg21
g42
sbsg17
I2
sg23
(imyEvolve
Tree
p361
(dp362
g7
(imyEvolve
Tree
p363
(dp364
g17
I0
sg19
I00
sbsg17
I1
sg23
(imyEvolve
Tree
p365
(dp366
g17
I0
sg18
F3.758704124851013
sg19
I01
sbsg20
I00
sg21
g28
sbsg20
I00
sg21
g28
sbsg17
I3
sg20
I01
sg21
g101
sbsg20
I00
sg21
g42
sba(imyEvolve
Tree
p367
(dp368
g14
(imyEvolve
Tree
p369
(dp370
g14
(imyEvolve
Tree
p371
(dp372
g17
I0
sg18
F4.321177834217041
sg19
I01
sbsg17
I1
sg20
I01
sg21
g22
sbsg17
I2
sg20
I01
sg21
g86
sba(imyEvolve
Tree
p373
(dp374
g14
(imyEvolve
Tree
p375
(dp376
g7
(imyEvolve
Tree
p377
(dp378
g14
(imyEvolve
Tree
p379
(dp380
g14
(imyEvolve
Tree
p381
(dp382
g17
I0
sg19
I00
sbsg17
I1
sg20
I01
sg21
g22
sbsg17
I2
sg20
I01
sg21
g101
sbsg17
I3
sg23
(imyEvolve
Tree
p383
(dp384
g14
(imyEvolve
Tree
p385
(dp386
g14
(imyEvolve
Tree
p387
(dp388
g17
I0
sg19
I00
sbsg17
I1
sg20
I01
sg21
g35
sbsg17
I2
sg20
I01
sg21
g22
sbsg20
I00
sg21
g43
sbsg17
I4
sg20
I01
sg21
g35
sba(imyEvolve
Tree
p389
(dp390
g14
(imyEvolve
Tree
p391
(dp392
g7
(imyEvolve
Tree
p393
(dp394
g14
(imyEvolve
Tree
p395
(dp396
g7
(imyEvolve
Tree
p397
(dp398
g7
(imyEvolve
Tree
p399
(dp400
g17
I0
sg18
F4.501624481026063
sg19
I01
sbsg17
I1
sg23
(imyEvolve
Tree
p401
(dp402
g17
I0
sg18
F1.3137790738959847
sg19
I01
sbsg20
I00
sg21
g43
sbsg17
I2
sg23
(imyEvolve
Tree
p403
(dp404
g7
(imyEvolve
Tree
p405
(dp406
g17
I0
sg19
I00
sbsg17
I1
sg23
(imyEvolve
Tree
p407
(dp408
g17
I0
sg18
F4.671861384209839
sg19
I01
sbsg20
I00
sg21
g28
sbsg20
I00
sg21
g43
sbsg17
I3
sg20
I01
sg21
g101
sbsg17
I4
sg23
(imyEvolve
Tree
p409
(dp410
g14
(imyEvolve
Tree
p411
(dp412
g7
(imyEvolve
Tree
p413
(dp414
g14
(imyEvolve
Tree
p415
(dp416
g17
I0
sg18
F4.579144577383429
sg19
I01
sbsg17
I1
sg20
I01
sg21
g101
sbsg17
I2
sg23
(imyEvolve
Tree
p417
(dp418
g14
(imyEvolve
Tree
p419
(dp420
g17
I0
sg19
I00
sbsg17
I1
sg20
I01
sg21
g22
sbsg20
I00
sg21
g42
sbsg17
I3
sg20
I01
sg21
g86
sbsg20
I00
sg21
g42
sbsg17
I5
sg20
I01
sg21
g22
sba(imyEvolve
Tree
p421
(dp422
g7
(imyEvolve
Tree
p423
(dp424
g7
(imyEvolve
Tree
p425
(dp426
g17
I0
sg19
I00
sbsg17
I1
sg23
(imyEvolve
Tree
p427
(dp428
g17
I0
sg18
F-4.5864258147774075
sg19
I01
sbsg20
I00
sg21
g42
sbsg17
I2
sg23
(imyEvolve
Tree
p429
(dp430
g14
(imyEvolve
Tree
p431
(dp432
g17
I0
sg18
F-3.8022819772201077
sg19
I01
sbsg17
I1
sg20
I01
sg21
g101
sbsg20
I00
sg21
g28
sba(imyEvolve
Tree
p433
(dp434
g14
(imyEvolve
Tree
p435
(dp436
g14
(imyEvolve
Tree
p437
(dp438
g17
I3
sg7
(imyEvolve
Tree
p439
(dp440
g14
(imyEvolve
Tree
p441
(dp442
g17
I1
sg7
(imyEvolve
Tree
p443
(dp444
g17
I0
sg19
I00
sbsg23
(imyEvolve
Tree
p445
(dp446
g17
I0
sg18
F-1.0850829221101446
sg19
I01
sbsg20
I00
sg21
g28
sbsg17
I2
sg20
I01
sg21
g35
sbsg23
(imyEvolve
Tree
p447
(dp448
g17
I2
sg7
(imyEvolve
Tree
p449
(dp450
g14
(imyEvolve
Tree
p451
(dp452
g17
I0
sg19
I00
sbsg17
I1
sg20
I01
sg21
g22
sbsg23
(imyEvolve
Tree
p453
(dp454
g17
I1
sg7
(imyEvolve
Tree
p455
(dp456
g17
I0
sg18
F-1.3833339981765933
sg19
I01
sbsg23
(imyEvolve
Tree
p457
(dp458
g17
I0
sg19
I00
sbsg20
I00
sg21
g43
sbsg20
I00
sg21
g28
sbsg20
I00
sg21
g43
sbsg17
I4
sg20
I01
sg21
g22
sbsg17
I5
sg20
I01
sg21
g22
sba(imyEvolve
Tree
p459
(dp460
g7
(imyEvolve
Tree
p461
(dp462
g14
(imyEvolve
Tree
p463
(dp464
g14
(imyEvolve
Tree
p465
(dp466
g17
I0
sg18
F1.1680864695411666
sg19
I01
sbsg17
I1
sg20
I01
sg21
g86
sbsg17
I2
sg20
I01
sg21
g101
sbsg17
I3
sg23
(imyEvolve
Tree
p467
(dp468
g14
(imyEvolve
Tree
p469
(dp470
g14
(imyEvolve
Tree
p471
(dp472
g17
I0
sg19
I00
sbsg17
I1
sg20
I01
sg21
g35
sbsg17
I2
sg20
I01
sg21
g86
sbsg20
I00
sg21
g28
sba(imyEvolve
Tree
p473
(dp474
g17
I2
sg7
(imyEvolve
Tree
p475
(dp476
g14
(imyEvolve
Tree
p477
(dp478
g17
I0
sg19
I00
sbsg17
I1
sg20
I01
sg21
g86
sbsg23
(imyEvolve
Tree
p479
(dp480
g17
I1
sg7
(imyEvolve
Tree
p481
(dp482
g17
I0
sg18
F3.40606619897736
sg19
I01
sbsg23
(imyEvolve
Tree
p483
(dp484
g17
I0
sg19
I00
sbsg20
I00
sg21
g42
sbsg20
I00
sg21
g28
sba(imyEvolve
Tree
p485
(dp486
g17
I5
sg7
(imyEvolve
Tree
p487
(dp488
g17
I4
sg7
(imyEvolve
Tree
p489
(dp490
g17
I3
sg7
(imyEvolve
Tree
p491
(dp492
g17
I2
sg7
(imyEvolve
Tree
p493
(dp494
g17
I1
sg7
(imyEvolve
Tree
p495
(dp496
g17
I0
sg18
F1.2456202243567986
sg19
I01
sbsg23
(imyEvolve
Tree
p497
(dp498
g17
I0
sg19
I00
sbsg20
I00
sg21
g28
sbsg23
(imyEvolve
Tree
p499
(dp500
g14
(imyEvolve
Tree
p501
(dp502
g17
I0
sg19
I00
sbsg17
I1
sg20
I01
sg21
g86
sbsg20
I00
sg21
g28
sbsg23
(imyEvolve
Tree
p503
(dp504
g14
(imyEvolve
Tree
p505
(dp506
g17
I1
sg7
(imyEvolve
Tree
p507
(dp508
g17
I0
sg19
I00
sbsg23
(imyEvolve
Tree
p509
(dp510
g17
I0
sg18
F2.9183720025202584
sg19
I01
sbsg20
I00
sg21
g28
sbsg17
I2
sg20
I01
sg21
g35
sbsg20
I00
sg21
g42
sbsg23
(imyEvolve
Tree
p511
(dp512
g14
(imyEvolve
Tree
p513
(dp514
g14
(imyEvolve
Tree
p515
(dp516
g17
I1
sg7
(imyEvolve
Tree
p517
(dp518
g17
I0
sg18
F2.502725343363304
sg19
I01
sbsg23
(imyEvolve
Tree
p519
(dp520
g17
I0
sg19
I00
sbsg20
I00
sg21
g42
sbsg17
I2
sg20
I01
sg21
g86
sbsg17
I3
sg20
I01
sg21
g22
sbsg20
I00
sg21
g42
sbsg23
(imyEvolve
Tree
p521
(dp522
g14
(imyEvolve
Tree
p523
(dp524
g14
(imyEvolve
Tree
p525
(dp526
g14
(imyEvolve
Tree
p527
(dp528
g17
I1
sg7
(imyEvolve
Tree
p529
(dp530
g17
I0
sg19
I00
sbsg23
(imyEvolve
Tree
p531
(dp532
g17
I0
sg18
F1.520877054189854
sg19
I01
sbsg20
I00
sg21
g28
sbsg17
I2
sg20
I01
sg21
g86
sbsg17
I3
sg20
I01
sg21
g86
sbsg17
I4
sg20
I01
sg21
g86
sbsg20
I00
sg21
g42
sba(imyEvolve
Tree
p533
(dp534
g7
(imyEvolve
Tree
p535
(dp536
g7
(imyEvolve
Tree
p537
(dp538
g7
(imyEvolve
Tree
p539
(dp540
g14
(imyEvolve
Tree
p541
(dp542
g17
I0
sg19
I00
sbsg17
I1
sg20
I01
sg21
g101
sbsg17
I2
sg23
(imyEvolve
Tree
p543
(dp544
g14
(imyEvolve
Tree
p545
(dp546
g17
I0
sg19
I00
sbsg17
I1
sg20
I01
sg21
g22
sbsg20
I00
sg21
g42
sbsg17
I3
sg23
(imyEvolve
Tree
p547
(dp548
g7
(imyEvolve
Tree
p549
(dp550
g7
(imyEvolve
Tree
p551
(dp552
g17
I0
sg18
F4.589783532565184
sg19
I01
sbsg17
I1
sg23
(imyEvolve
Tree
p553
(dp554
g17
I0
sg18
F4.506355044068233
sg19
I01
sbsg20
I00
sg21
g28
sbsg17
I2
sg23
(imyEvolve
Tree
p555
(dp556
g7
(imyEvolve
Tree
p557
(dp558
g17
I0
sg18
F0.3966439209885406
sg19
I01
sbsg17
I1
sg23
(imyEvolve
Tree
p559
(dp560
g17
I0
sg18
F-1.1413834172911197
sg19
I01
sbsg20
I00
sg21
g28
sbsg20
I00
sg21
g28
sbsg20
I00
sg21
g28
sbsg17
I4
sg23
(imyEvolve
Tree
p561
(dp562
g14
(imyEvolve
Tree
p563
(dp564
g7
(imyEvolve
Tree
p565
(dp566
g7
(imyEvolve
Tree
p567
(dp568
g17
I0
sg19
I00
sbsg17
I1
sg23
(imyEvolve
Tree
p569
(dp570
g17
I0
sg19
I00
sbsg20
I00
sg21
g42
sbsg17
I2
sg23
(imyEvolve
Tree
p571
(dp572
g7
(imyEvolve
Tree
p573
(dp574
g17
I0
sg18
F-4.176226819191146
sg19
I01
sbsg17
I1
sg23
(imyEvolve
Tree
p575
(dp576
g17
I0
sg18
F-3.072843717746844
sg19
I01
sbsg20
I00
sg21
g42
sbsg20
I00
sg21
g42
sbsg17
I3
sg20
I01
sg21
g101
sbsg20
I00
sg21
g43
sba(imyEvolve
Tree
p577
(dp578
g17
I4
sg7
(imyEvolve
Tree
p579
(dp580
g17
I3
sg7
(imyEvolve
Tree
p581
(dp582
g17
I2
sg7
(imyEvolve
Tree
p583
(dp584
g17
I1
sg7
(imyEvolve
Tree
p585
(dp586
g17
I0
sg18
F0.7631836611912437
sg19
I01
sbsg23
(imyEvolve
Tree
p587
(dp588
g17
I0
sg19
I00
sbsg20
I00
sg21
g43
sbsg23
(imyEvolve
Tree
p589
(dp590
g17
I1
sg7
(imyEvolve
Tree
p591
(dp592
g17
I0
sg18
F-3.1957274915397904
sg19
I01
sbsg23
(imyEvolve
Tree
p593
(dp594
g17
I0
sg18
F-1.2360103526208341
sg19
I01
sbsg20
I00
sg21
g28
sbsg20
I00
sg21
g42
sbsg23
(imyEvolve
Tree
p595
(dp596
g17
I2
sg7
(imyEvolve
Tree
p597
(dp598
g14
(imyEvolve
Tree
p599
(dp600
g17
I0
sg18
F-2.044025678075939
sg19
I01
sbsg17
I1
sg20
I01
sg21
g101
sbsg23
(imyEvolve
Tree
p601
(dp602
g14
(imyEvolve
Tree
p603
(dp604
g17
I0
sg18
F-1.3071105960695526
sg19
I01
sbsg17
I1
sg20
I01
sg21
g86
sbsg20
I00
sg21
g28
sbsg20
I00
sg21
g42
sbsg23
(imyEvolve
Tree
p605
(dp606
g17
I3
sg7
(imyEvolve
Tree
p607
(dp608
g14
(imyEvolve
Tree
p609
(dp610
g17
I1
sg7
(imyEvolve
Tree
p611
(dp612
g17
I0
sg19
I00
sbsg23
(imyEvolve
Tree
p613
(dp614
g17
I0
sg19
I00
sbsg20
I00
sg21
g43
sbsg17
I2
sg20
I01
sg21
g35
sbsg23
(imyEvolve
Tree
p615
(dp616
g14
(imyEvolve
Tree
p617
(dp618
g14
(imyEvolve
Tree
p619
(dp620
g17
I0
sg19
I00
sbsg17
I1
sg20
I01
sg21
g101
sbsg17
I2
sg20
I01
sg21
g22
sbsg20
I00
sg21
g43
sbsg20
I00
sg21
g28
sba(imyEvolve
Tree
p621
(dp622
g7
(imyEvolve
Tree
p623
(dp624
g14
(imyEvolve
Tree
p625
(dp626
g7
(imyEvolve
Tree
p627
(dp628
g17
I0
sg18
F2.321494126619731
sg19
I01
sbsg17
I1
sg23
(imyEvolve
Tree
p629
(dp630
g17
I0
sg19
I00
sbsg20
I00
sg21
g43
sbsg17
I2
sg20
I01
sg21
g101
sbsg17
I3
sg23
(imyEvolve
Tree
p631
(dp632
g7
(imyEvolve
Tree
p633
(dp634
g7
(imyEvolve
Tree
p635
(dp636
g17
I0
sg18
F4.146970879339333
sg19
I01
sbsg17
I1
sg23
(imyEvolve
Tree
p637
(dp638
g17
I0
sg19
I00
sbsg20
I00
sg21
g28
sbsg17
I2
sg23
(imyEvolve
Tree
p639
(dp640
g7
(imyEvolve
Tree
p641
(dp642
g17
I0
sg19
I00
sbsg17
I1
sg23
(imyEvolve
Tree
p643
(dp644
g17
I0
sg19
I00
sbsg20
I00
sg21
g42
sbsg20
I00
sg21
g42
sbsg20
I00
sg21
g43
sba(imyEvolve
Tree
p645
(dp646
g14
(imyEvolve
Tree
p647
(dp648
g7
(imyEvolve
Tree
p649
(dp650
g14
(imyEvolve
Tree
p651
(dp652
g7
(imyEvolve
Tree
p653
(dp654
g7
(imyEvolve
Tree
p655
(dp656
g17
I0
sg18
F0.5511436931047857
sg19
I01
sbsg17
I1
sg23
(imyEvolve
Tree
p657
(dp658
g17
I0
sg18
F-2.5696910390620054
sg19
I01
sbsg20
I00
sg21
g28
sbsg17
I2
sg23
(imyEvolve
Tree
p659
(dp660
g14
(imyEvolve
Tree
p661
(dp662
g17
I0
sg18
F-0.5505085284148006
sg19
I01
sbsg17
I1
sg20
I01
sg21
g101
sbsg20
I00
sg21
g28
sbsg17
I3
sg20
I01
sg21
g101
sbsg17
I4
sg23
(imyEvolve
Tree
p663
(dp664
g14
(imyEvolve
Tree
p665
(dp666
g7
(imyEvolve
Tree
p667
(dp668
g7
(imyEvolve
Tree
p669
(dp670
g17
I0
sg19
I00
sbsg17
I1
sg23
(imyEvolve
Tree
p671
(dp672
g17
I0
sg18
F1.4226051635491297
sg19
I01
sbsg20
I00
sg21
g28
sbsg17
I2
sg23
(imyEvolve
Tree
p673
(dp674
g14
(imyEvolve
Tree
p675
(dp676
g17
I0
sg18
F-0.5949524360961753
sg19
I01
sbsg17
I1
sg20
I01
sg21
g35
sbsg20
I00
sg21
g42
sbsg17
I3
sg20
I01
sg21
g86
sbsg20
I00
sg21
g42
sbsg17
I5
sg20
I01
sg21
g86
sba(imyEvolve
Tree
p677
(dp678
g14
(imyEvolve
Tree
p679
(dp680
g14
(imyEvolve
Tree
p681
(dp682
g7
(imyEvolve
Tree
p683
(dp684
g14
(imyEvolve
Tree
p685
(dp686
g14
(imyEvolve
Tree
p687
(dp688
g17
I0
sg18
F-4.505645658621526
sg19
I01
sbsg17
I1
sg20
I01
sg21
g35
sbsg17
I2
sg20
I01
sg21
g86
sbsg17
I3
sg23
(imyEvolve
Tree
p689
(dp690
g14
(imyEvolve
Tree
p691
(dp692
g14
(imyEvolve
Tree
p693
(dp694
g17
I0
sg18
F1.5873823350209388
sg19
I01
sbsg17
I1
sg20
I01
sg21
g101
sbsg17
I2
sg20
I01
sg21
g35
sbsg20
I00
sg21
g43
sbsg17
I4
sg20
I01
sg21
g35
sbsg17
I5
sg20
I01
sg21
g86
sba(imyEvolve
Tree
p695
(dp696
g14
(imyEvolve
Tree
p697
(dp698
g7
(imyEvolve
Tree
p699
(dp700
g14
(imyEvolve
Tree
p701
(dp702
g14
(imyEvolve
Tree
p703
(dp704
g17
I0
sg19
I00
sbsg17
I1
sg20
I01
sg21
g86
sbsg17
I2
sg20
I01
sg21
g22
sbsg17
I3
sg23
(imyEvolve
Tree
p705
(dp706
g14
(imyEvolve
Tree
p707
(dp708
g7
(imyEvolve
Tree
p709
(dp710
g17
I0
sg18
F0.9613984775954334
sg19
I01
sbsg17
I1
sg23
(imyEvolve
Tree
p711
(dp712
g17
I0
sg18
F-3.4249081922598146
sg19
I01
sbsg20
I00
sg21
g42
sbsg17
I2
sg20
I01
sg21
g35
sbsg20
I00
sg21
g43
sbsg17
I4
sg20
I01
sg21
g86
sbaasS'alpha'
p713
F0.006081428776862099
sS'fitness'
p714
cnumpy.core.multiarray
scalar
p715
(cnumpy
dtype
p716
(S'f8'
p717
I0
I1
tp718
Rp719
(I3
S'<'
p720
NNNI-1
I-1
I0
tp721
bS'\x80\xd9=9\xeb\x0b\x82?'
p722
tp723
Rp724
sS'weightSharing'
p725
(lp726
I01
aI00
asS'fitnessValid'
p727
I00
sS'resolution'
p728
I99
sb.