(imyEvolve
Individual
p0
(dp1
S'funcs'
p2
(lp3
(lp4
(imyEvolve
Tree
p5
(dp6
S'depth'
p7
I3
sS'left'
p8
(imyEvolve
Tree
p9
(dp10
S'below'
p11
(imyEvolve
Tree
p12
(dp13
g7
I1
sg8
(imyEvolve
Tree
p14
(dp15
g7
I0
sS'constant'
p16
F-4.130368443344432
sS'isConstant'
p17
I01
sbsS'right'
p18
(imyEvolve
Tree
p19
(dp20
g7
I0
sg16
F-3.6453711780661435
sg17
I01
sbsS'single'
p21
I00
sS'op'
p22
coperator
add
p23
sbsg7
I2
sg21
I01
sg22
cmyEvolve
absSqrt
p24
sbsg18
(imyEvolve
Tree
p25
(dp26
g7
I2
sg8
(imyEvolve
Tree
p27
(dp28
g7
I1
sg8
(imyEvolve
Tree
p29
(dp30
g7
I0
sg16
F3.0665548486990915
sg17
I01
sbsg18
(imyEvolve
Tree
p31
(dp32
g7
I0
sg16
F-2.220190875544538
sg17
I01
sbsg21
I00
sg22
g23
sbsg18
(imyEvolve
Tree
p33
(dp34
g7
I1
sg8
(imyEvolve
Tree
p35
(dp36
g7
I0
sg16
F-3.908050380090242
sg17
I01
sbsg18
(imyEvolve
Tree
p37
(dp38
g7
I0
sg16
F-2.492779321791433
sg17
I01
sbsg21
I00
sg22
coperator
sub
p39
sbsg21
I00
sg22
coperator
mul
p40
sbsg21
I00
sg22
g40
sba(imyEvolve
Tree
p41
(dp42
g8
(imyEvolve
Tree
p43
(dp44
g8
(imyEvolve
Tree
p45
(dp46
g11
(imyEvolve
Tree
p47
(dp48
g8
(imyEvolve
Tree
p49
(dp50
g8
(imyEvolve
Tree
p51
(dp52
g7
I0
sg17
I00
sbsg7
I1
sg18
(imyEvolve
Tree
p53
(dp54
g7
I0
sg16
F2.4842166545595843
sg17
I01
sbsg21
I00
sg22
g23
sbsg7
I2
sg18
(imyEvolve
Tree
p55
(dp56
g11
(imyEvolve
Tree
p57
(dp58
g7
I0
sg16
F-0.48789877059713405
sg17
I01
sbsg7
I1
sg21
I01
sg22
g24
sbsg21
I00
sg22
g40
sbsg7
I3
sg21
I01
sg22
cmath
sin
p59
sbsg7
I4
sg18
(imyEvolve
Tree
p60
(dp61
g11
(imyEvolve
Tree
p62
(dp63
g8
(imyEvolve
Tree
p64
(dp65
g8
(imyEvolve
Tree
p66
(dp67
g7
I0
sg16
F4.612358454702882
sg17
I01
sbsg7
I1
sg18
(imyEvolve
Tree
p68
(dp69
g7
I0
sg17
I00
sbsg21
I00
sg22
g39
sbsg7
I2
sg18
(imyEvolve
Tree
p70
(dp71
g8
(imyEvolve
Tree
p72
(dp73
g7
I0
sg16
F-4.035936047316724
sg17
I01
sbsg7
I1
sg18
(imyEvolve
Tree
p74
(dp75
g7
I0
sg16
F-1.9665436658018445
sg17
I01
sbsg21
I00
sg22
g23
sbsg21
I00
sg22
g39
sbsg7
I3
sg21
I01
sg22
cmyEvolve
square
p76
sbsg21
I00
sg22
g23
sbsg7
I5
sg18
(imyEvolve
Tree
p77
(dp78
g8
(imyEvolve
Tree
p79
(dp80
g8
(imyEvolve
Tree
p81
(dp82
g8
(imyEvolve
Tree
p83
(dp84
g8
(imyEvolve
Tree
p85
(dp86
g7
I0
sg16
F-0.35254300800329297
sg17
I01
sbsg7
I1
sg18
(imyEvolve
Tree
p87
(dp88
g7
I0
sg17
I00
sbsg21
I00
sg22
g23
sbsg7
I2
sg18
(imyEvolve
Tree
p89
(dp90
g11
(imyEvolve
Tree
p91
(dp92
g7
I0
sg16
F0.30344584753323645
sg17
I01
sbsg7
I1
sg21
I01
sg22
cmath
cos
p93
sbsg21
I00
sg22
g23
sbsg7
I3
sg18
(imyEvolve
Tree
p94
(dp95
g11
(imyEvolve
Tree
p96
(dp97
g8
(imyEvolve
Tree
p98
(dp99
g7
I0
sg16
F3.4034702550952165
sg17
I01
sbsg7
I1
sg18
(imyEvolve
Tree
p100
(dp101
g7
I0
sg17
I00
sbsg21
I00
sg22
g39
sbsg7
I2
sg21
I01
sg22
g24
sbsg21
I00
sg22
g39
sbsg7
I4
sg18
(imyEvolve
Tree
p102
(dp103
g11
(imyEvolve
Tree
p104
(dp105
g8
(imyEvolve
Tree
p106
(dp107
g11
(imyEvolve
Tree
p108
(dp109
g7
I0
sg16
F-0.7304050358150027
sg17
I01
sbsg7
I1
sg21
I01
sg22
g24
sbsg7
I2
sg18
(imyEvolve
Tree
p110
(dp111
g8
(imyEvolve
Tree
p112
(dp113
g7
I0
sg16
F-2.8963907036153023
sg17
I01
sbsg7
I1
sg18
(imyEvolve
Tree
p114
(dp115
g7
I0
sg17
I00
sbsg21
I00
sg22
g23
sbsg21
I00
sg22
g39
sbsg7
I3
sg21
I01
sg22
g76
sbsg21
I00
sg22
g23
sbsg21
I00
sg22
g23
sba(imyEvolve
Tree
p116
(dp117
g11
(imyEvolve
Tree
p118
(dp119
g11
(imyEvolve
Tree
p120
(dp121
g11
(imyEvolve
Tree
p122
(dp123
g7
I1
sg8
(imyEvolve
Tree
p124
(dp125
g7
I0
sg16
F-0.5464956643030652
sg17
I01
sbsg18
(imyEvolve
Tree
p126
(dp127
g7
I0
sg17
I00
sbsg21
I00
sg22
g40
sbsg7
I2
sg21
I01
sg22
g24
sbsg7
I3
sg21
I01
sg22
g93
sbsg7
I4
sg21
I01
sg22
g59
sba(imyEvolve
Tree
p128
(dp129
g11
(imyEvolve
Tree
p130
(dp131
g11
(imyEvolve
Tree
p132
(dp133
g11
(imyEvolve
Tree
p134
(dp135
g11
(imyEvolve
Tree
p136
(dp137
g8
(imyEvolve
Tree
p138
(dp139
g7
I0
sg17
I00
sbsg7
I1
sg18
(imyEvolve
Tree
p140
(dp141
g7
I0
sg16
F0.06780091458725135
sg17
I01
sbsg21
I00
sg22
g39
sbsg7
I2
sg21
I01
sg22
g24
sbsg7
I3
sg21
I01
sg22
g59
sbsg7
I4
sg21
I01
sg22
g93
sbsg7
I5
sg21
I01
sg22
g24
sba(imyEvolve
Tree
p142
(dp143
g11
(imyEvolve
Tree
p144
(dp145
g11
(imyEvolve
Tree
p146
(dp147
g11
(imyEvolve
Tree
p148
(dp149
g8
(imyEvolve
Tree
p150
(dp151
g8
(imyEvolve
Tree
p152
(dp153
g7
I0
sg17
I00
sbsg7
I1
sg18
(imyEvolve
Tree
p154
(dp155
g7
I0
sg16
F0.304838521791857
sg17
I01
sbsg21
I00
sg22
g23
sbsg7
I2
sg18
(imyEvolve
Tree
p156
(dp157
g11
(imyEvolve
Tree
p158
(dp159
g7
I0
sg16
F-1.5030482224032724
sg17
I01
sbsg7
I1
sg21
I01
sg22
g24
sbsg21
I00
sg22
g39
sbsg7
I3
sg21
I01
sg22
g24
sbsg7
I4
sg21
I01
sg22
g24
sbsg7
I5
sg21
I01
sg22
g76
sba(imyEvolve
Tree
p160
(dp161
g8
(imyEvolve
Tree
p162
(dp163
g11
(imyEvolve
Tree
p164
(dp165
g11
(imyEvolve
Tree
p166
(dp167
g8
(imyEvolve
Tree
p168
(dp169
g7
I0
sg16
F-3.8996145352988467
sg17
I01
sbsg7
I1
sg18
(imyEvolve
Tree
p170
(dp171
g7
I0
sg16
F-2.8168975876226234
sg17
I01
sbsg21
I00
sg22
g39
sbsg7
I2
sg21
I01
sg22
g93
sbsg7
I3
sg21
I01
sg22
g76
sbsg7
I4
sg18
(imyEvolve
Tree
p172
(dp173
g8
(imyEvolve
Tree
p174
(dp175
g8
(imyEvolve
Tree
p176
(dp177
g8
(imyEvolve
Tree
p178
(dp179
g7
I0
sg16
F-1.1818719150243986
sg17
I01
sbsg7
I1
sg18
(imyEvolve
Tree
p180
(dp181
g7
I0
sg17
I00
sbsg21
I00
sg22
g40
sbsg7
I2
sg18
(imyEvolve
Tree
p182
(dp183
g8
(imyEvolve
Tree
p184
(dp185
g7
I0
sg16
F-0.266751876691278
sg17
I01
sbsg7
I1
sg18
(imyEvolve
Tree
p186
(dp187
g7
I0
sg17
I00
sbsg21
I00
sg22
g39
sbsg21
I00
sg22
g23
sbsg7
I3
sg18
(imyEvolve
Tree
p188
(dp189
g8
(imyEvolve
Tree
p190
(dp191
g11
(imyEvolve
Tree
p192
(dp193
g7
I0
sg17
I00
sbsg7
I1
sg21
I01
sg22
g93
sbsg7
I2
sg18
(imyEvolve
Tree
p194
(dp195
g11
(imyEvolve
Tree
p196
(dp197
g7
I0
sg16
F0.5789172615681712
sg17
I01
sbsg7
I1
sg21
I01
sg22
g76
sbsg21
I00
sg22
g39
sbsg21
I00
sg22
g23
sbsg21
I00
sg22
g39
sba(imyEvolve
Tree
p198
(dp199
g8
(imyEvolve
Tree
p200
(dp201
g8
(imyEvolve
Tree
p202
(dp203
g7
I0
sg17
I00
sbsg7
I1
sg18
(imyEvolve
Tree
p204
(dp205
g7
I0
sg16
F0.7498203774778833
sg17
I01
sbsg21
I00
sg22
g23
sbsg7
I2
sg18
(imyEvolve
Tree
p206
(dp207
g11
(imyEvolve
Tree
p208
(dp209
g7
I0
sg16
F2.3500615334230233
sg17
I01
sbsg7
I1
sg21
I01
sg22
g59
sbsg21
I00
sg22
g40
sba(imyEvolve
Tree
p210
(dp211
g11
(imyEvolve
Tree
p212
(dp213
g11
(imyEvolve
Tree
p214
(dp215
g11
(imyEvolve
Tree
p216
(dp217
g7
I0
sg17
I00
sbsg7
I1
sg21
I01
sg22
g59
sbsg7
I2
sg21
I01
sg22
g59
sbsg7
I3
sg21
I01
sg22
g24
sba(imyEvolve
Tree
p218
(dp219
g11
(imyEvolve
Tree
p220
(dp221
g8
(imyEvolve
Tree
p222
(dp223
g8
(imyEvolve
Tree
p224
(dp225
g7
I0
sg16
F-0.03993167120625429
sg17
I01
sbsg7
I1
sg18
(imyEvolve
Tree
p226
(dp227
g7
I0
sg16
F-0.5149591048081525
sg17
I01
sbsg21
I00
sg22
g39
sbsg7
I2
sg18
(imyEvolve
Tree
p228
(dp229
g8
(imyEvolve
Tree
p230
(dp231
g7
I0
sg16
F2.8233851811766097
sg17
I01
sbsg7
I1
sg18
(imyEvolve
Tree
p232
(dp233
g7
I0
sg16
F3.370592278098014
sg17
I01
sbsg21
I00
sg22
g40
sbsg21
I00
sg22
g39
sbsg7
I3
sg21
I01
sg22
g24
sba(imyEvolve
Tree
p234
(dp235
g11
(imyEvolve
Tree
p236
(dp237
g8
(imyEvolve
Tree
p238
(dp239
g11
(imyEvolve
Tree
p240
(dp241
g7
I0
sg16
F2.0522991062125326
sg17
I01
sbsg7
I1
sg21
I01
sg22
g93
sbsg7
I2
sg18
(imyEvolve
Tree
p242
(dp243
g11
(imyEvolve
Tree
p244
(dp245
g7
I0
sg17
I00
sbsg7
I1
sg21
I01
sg22
g59
sbsg21
I00
sg22
g39
sbsg7
I3
sg21
I01
sg22
g59
sba(imyEvolve
Tree
p246
(dp247
g8
(imyEvolve
Tree
p248
(dp249
g11
(imyEvolve
Tree
p250
(dp251
g7
I0
sg16
F-2.730835104919187
sg17
I01
sbsg7
I1
sg21
I01
sg22
g59
sbsg7
I2
sg18
(imyEvolve
Tree
p252
(dp253
g8
(imyEvolve
Tree
p254
(dp255
g7
I0
sg17
I00
sbsg7
I1
sg18
(imyEvolve
Tree
p256
(dp257
g7
I0
sg17
I00
sbsg21
I00
sg22
g23
sbsg21
I00
sg22
g39
sba(imyEvolve
Tree
p258
(dp259
g11
(imyEvolve
Tree
p260
(dp261
g8
(imyEvolve
Tree
p262
(dp263
g8
(imyEvolve
Tree
p264
(dp265
g11
(imyEvolve
Tree
p266
(dp267
g8
(imyEvolve
Tree
p268
(dp269
g7
I0
sg17
I00
sbsg7
I1
sg18
(imyEvolve
Tree
p270
(dp271
g7
I0
sg16
F-1.0113882231459828
sg17
I01
sbsg21
I00
sg22
g40
sbsg7
I2
sg21
I01
sg22
g76
sbsg7
I3
sg18
(imyEvolve
Tree
p272
(dp273
g8
(imyEvolve
Tree
p274
(dp275
g11
(imyEvolve
Tree
p276
(dp277
g7
I0
sg17
I00
sbsg7
I1
sg21
I01
sg22
g93
sbsg7
I2
sg18
(imyEvolve
Tree
p278
(dp279
g8
(imyEvolve
Tree
p280
(dp281
g7
I0
sg16
F3.210633958772343
sg17
I01
sbsg7
I1
sg18
(imyEvolve
Tree
p282
(dp283
g7
I0
sg16
F1.378123217879164
sg17
I01
sbsg21
I00
sg22
g40
sbsg21
I00
sg22
g23
sbsg21
I00
sg22
g39
sbsg7
I4
sg18
(imyEvolve
Tree
p284
(dp285
g8
(imyEvolve
Tree
p286
(dp287
g11
(imyEvolve
Tree
p288
(dp289
g8
(imyEvolve
Tree
p290
(dp291
g7
I0
sg16
F-2.1788627147389072
sg17
I01
sbsg7
I1
sg18
(imyEvolve
Tree
p292
(dp293
g7
I0
sg17
I00
sbsg21
I00
sg22
g40
sbsg7
I2
sg21
I01
sg22
g24
sbsg7
I3
sg18
(imyEvolve
Tree
p294
(dp295
g8
(imyEvolve
Tree
p296
(dp297
g8
(imyEvolve
Tree
p298
(dp299
g7
I0
sg17
I00
sbsg7
I1
sg18
(imyEvolve
Tree
p300
(dp301
g7
I0
sg17
I00
sbsg21
I00
sg22
g40
sbsg7
I2
sg18
(imyEvolve
Tree
p302
(dp303
g8
(imyEvolve
Tree
p304
(dp305
g7
I0
sg17
I00
sbsg7
I1
sg18
(imyEvolve
Tree
p306
(dp307
g7
I0
sg16
F2.5786830616325327
sg17
I01
sbsg21
I00
sg22
g39
sbsg21
I00
sg22
g40
sbsg21
I00
sg22
g40
sbsg21
I00
sg22
g40
sbsg7
I5
sg21
I01
sg22
g24
sba(imyEvolve
Tree
p308
(dp309
g11
(imyEvolve
Tree
p310
(dp311
g11
(imyEvolve
Tree
p312
(dp313
g11
(imyEvolve
Tree
p314
(dp315
g11
(imyEvolve
Tree
p316
(dp317
g7
I0
sg17
I00
sbsg7
I1
sg21
I01
sg22
g24
sbsg7
I2
sg21
I01
sg22
g24
sbsg7
I3
sg21
I01
sg22
g24
sbsg7
I4
sg21
I01
sg22
g59
sba(imyEvolve
Tree
p318
(dp319
g11
(imyEvolve
Tree
p320
(dp321
g8
(imyEvolve
Tree
p322
(dp323
g11
(imyEvolve
Tree
p324
(dp325
g11
(imyEvolve
Tree
p326
(dp327
g7
I0
sg17
I00
sbsg7
I1
sg21
I01
sg22
g59
sbsg7
I2
sg21
I01
sg22
g59
sbsg7
I3
sg18
(imyEvolve
Tree
p328
(dp329
g11
(imyEvolve
Tree
p330
(dp331
g11
(imyEvolve
Tree
p332
(dp333
g7
I0
sg17
I00
sbsg7
I1
sg21
I01
sg22
g93
sbsg7
I2
sg21
I01
sg22
g93
sbsg21
I00
sg22
g23
sbsg7
I4
sg21
I01
sg22
g76
sba(imyEvolve
Tree
p334
(dp335
g7
I5
sg8
(imyEvolve
Tree
p336
(dp337
g7
I4
sg8
(imyEvolve
Tree
p338
(dp339
g11
(imyEvolve
Tree
p340
(dp341
g7
I2
sg8
(imyEvolve
Tree
p342
(dp343
g7
I1
sg8
(imyEvolve
Tree
p344
(dp345
g7
I0
sg17
I00
sbsg18
(imyEvolve
Tree
p346
(dp347
g7
I0
sg16
F1.228329194299132
sg17
I01
sbsg21
I00
sg22
g40
sbsg18
(imyEvolve
Tree
p348
(dp349
g7
I1
sg8
(imyEvolve
Tree
p350
(dp351
g7
I0
sg17
I00
sbsg18
(imyEvolve
Tree
p352
(dp353
g7
I0
sg16
F1.4694827735015288
sg17
I01
sbsg21
I00
sg22
g39
sbsg21
I00
sg22
g39
sbsg7
I3
sg21
I01
sg22
g93
sbsg18
(imyEvolve
Tree
p354
(dp355
g11
(imyEvolve
Tree
p356
(dp357
g7
I2
sg8
(imyEvolve
Tree
p358
(dp359
g11
(imyEvolve
Tree
p360
(dp361
g7
I0
sg16
F-3.871781225100764
sg17
I01
sbsg7
I1
sg21
I01
sg22
g59
sbsg18
(imyEvolve
Tree
p362
(dp363
g11
(imyEvolve
Tree
p364
(dp365
g7
I0
sg17
I00
sbsg7
I1
sg21
I01
sg22
g24
sbsg21
I00
sg22
g23
sbsg7
I3
sg21
I01
sg22
g93
sbsg21
I00
sg22
g39
sbsg18
(imyEvolve
Tree
p366
(dp367
g11
(imyEvolve
Tree
p368
(dp369
g11
(imyEvolve
Tree
p370
(dp371
g11
(imyEvolve
Tree
p372
(dp373
g7
I1
sg8
(imyEvolve
Tree
p374
(dp375
g7
I0
sg17
I00
sbsg18
(imyEvolve
Tree
p376
(dp377
g7
I0
sg16
F1.3768519606497787
sg17
I01
sbsg21
I00
sg22
g39
sbsg7
I2
sg21
I01
sg22
g93
sbsg7
I3
sg21
I01
sg22
g24
sbsg7
I4
sg21
I01
sg22
g24
sbsg21
I00
sg22
g40
sba(imyEvolve
Tree
p378
(dp379
g11
(imyEvolve
Tree
p380
(dp381
g8
(imyEvolve
Tree
p382
(dp383
g7
I0
sg17
I00
sbsg7
I1
sg18
(imyEvolve
Tree
p384
(dp385
g7
I0
sg16
F-3.5713627831542105
sg17
I01
sbsg21
I00
sg22
g40
sbsg7
I2
sg21
I01
sg22
g24
sba(imyEvolve
Tree
p386
(dp387
g11
(imyEvolve
Tree
p388
(dp389
g8
(imyEvolve
Tree
p390
(dp391
g11
(imyEvolve
Tree
p392
(dp393
g11
(imyEvolve
Tree
p394
(dp395
g7
I0
sg16
F4.621639351528035
sg17
I01
sbsg7
I1
sg21
I01
sg22
g76
sbsg7
I2
sg21
I01
sg22
g76
sbsg7
I3
sg18
(imyEvolve
Tree
p396
(dp397
g11
(imyEvolve
Tree
p398
(dp399
g8
(imyEvolve
Tree
p400
(dp401
g7
I0
sg17
I00
sbsg7
I1
sg18
(imyEvolve
Tree
p402
(dp403
g7
I0
sg17
I00
sbsg21
I00
sg22
g40
sbsg7
I2
sg21
I01
sg22
g93
sbsg21
I00
sg22
g39
sbsg7
I4
sg21
I01
sg22
g93
sba(imyEvolve
Tree
p404
(dp405
g8
(imyEvolve
Tree
p406
(dp407
g11
(imyEvolve
Tree
p408
(dp409
g8
(imyEvolve
Tree
p410
(dp411
g8
(imyEvolve
Tree
p412
(dp413
g7
I0
sg16
F-2.333072058415188
sg17
I01
sbsg7
I1
sg18
(imyEvolve
Tree
p414
(dp415
g7
I0
sg17
I00
sbsg21
I00
sg22
g40
sbsg7
I2
sg18
(imyEvolve
Tree
p416
(dp417
g11
(imyEvolve
Tree
p418
(dp419
g7
I0
sg17
I00
sbsg7
I1
sg21
I01
sg22
g93
sbsg21
I00
sg22
g39
sbsg7
I3
sg21
I01
sg22
g93
sbsg7
I4
sg18
(imyEvolve
Tree
p420
(dp421
g8
(imyEvolve
Tree
p422
(dp423
g11
(imyEvolve
Tree
p424
(dp425
g11
(imyEvolve
Tree
p426
(dp427
g7
I0
sg17
I00
sbsg7
I1
sg21
I01
sg22
g93
sbsg7
I2
sg21
I01
sg22
g76
sbsg7
I3
sg18
(imyEvolve
Tree
p428
(dp429
g8
(imyEvolve
Tree
p430
(dp431
g11
(imyEvolve
Tree
p432
(dp433
g7
I0
sg16
F-1.1860108469205057
sg17
I01
sbsg7
I1
sg21
I01
sg22
g59
sbsg7
I2
sg18
(imyEvolve
Tree
p434
(dp435
g8
(imyEvolve
Tree
p436
(dp437
g7
I0
sg17
I00
sbsg7
I1
sg18
(imyEvolve
Tree
p438
(dp439
g7
I0
sg17
I00
sbsg21
I00
sg22
g40
sbsg21
I00
sg22
g40
sbsg21
I00
sg22
g40
sbsg21
I00
sg22
g39
sba(imyEvolve
Tree
p440
(dp441
g8
(imyEvolve
Tree
p442
(dp443
g8
(imyEvolve
Tree
p444
(dp445
g8
(imyEvolve
Tree
p446
(dp447
g8
(imyEvolve
Tree
p448
(dp449
g7
I0
sg16
F-1.3856725040700613
sg17
I01
sbsg7
I1
sg18
(imyEvolve
Tree
p450
(dp451
g7
I0
sg16
F-2.6666571928058036
sg17
I01
sbsg21
I00
sg22
g39
sbsg7
I2
sg18
(imyEvolve
Tree
p452
(dp453
g8
(imyEvolve
Tree
p454
(dp455
g7
I0
sg16
F4.74265453836958
sg17
I01
sbsg7
I1
sg18
(imyEvolve
Tree
p456
(dp457
g7
I0
sg17
I00
sbsg21
I00
sg22
g23
sbsg21
I00
sg22
g39
sbsg7
I3
sg18
(imyEvolve
Tree
p458
(dp459
g8
(imyEvolve
Tree
p460
(dp461
g8
(imyEvolve
Tree
p462
(dp463
g7
I0
sg16
F-4.571888899603472
sg17
I01
sbsg7
I1
sg18
(imyEvolve
Tree
p464
(dp465
g7
I0
sg17
I00
sbsg21
I00
sg22
g40
sbsg7
I2
sg18
(imyEvolve
Tree
p466
(dp467
g8
(imyEvolve
Tree
p468
(dp469
g7
I0
sg17
I00
sbsg7
I1
sg18
(imyEvolve
Tree
p470
(dp471
g7
I0
sg16
F-4.238122781513663
sg17
I01
sbsg21
I00
sg22
g39
sbsg21
I00
sg22
g23
sbsg21
I00
sg22
g39
sbsg7
I4
sg18
(imyEvolve
Tree
p472
(dp473
g11
(imyEvolve
Tree
p474
(dp475
g8
(imyEvolve
Tree
p476
(dp477
g11
(imyEvolve
Tree
p478
(dp479
g7
I0
sg16
F-4.899822936894786
sg17
I01
sbsg7
I1
sg21
I01
sg22
g93
sbsg7
I2
sg18
(imyEvolve
Tree
p480
(dp481
g11
(imyEvolve
Tree
p482
(dp483
g7
I0
sg16
F0.8133443715456803
sg17
I01
sbsg7
I1
sg21
I01
sg22
g93
sbsg21
I00
sg22
g40
sbsg7
I3
sg21
I01
sg22
g93
sbsg21
I00
sg22
g23
sbaa(lp484
(imyEvolve
Tree
p485
(dp486
g7
I2
sg8
(imyEvolve
Tree
p487
(dp488
g11
(imyEvolve
Tree
p489
(dp490
g7
I0
sg17
I00
sbsg7
I1
sg21
I01
sg22
g93
sbsg18
(imyEvolve
Tree
p491
(dp492
g11
(imyEvolve
Tree
p493
(dp494
g7
I0
sg17
I00
sbsg7
I1
sg21
I01
sg22
g93
sbsg21
I00
sg22
g23
sba(imyEvolve
Tree
p495
(dp496
g7
I3
sg8
(imyEvolve
Tree
p497
(dp498
g11
(imyEvolve
Tree
p499
(dp500
g11
(imyEvolve
Tree
p501
(dp502
g7
I0
sg16
F-3.970028347665495
sg17
I01
sbsg7
I1
sg21
I01
sg22
g24
sbsg7
I2
sg21
I01
sg22
g59
sbsg18
(imyEvolve
Tree
p503
(dp504
g7
I2
sg8
(imyEvolve
Tree
p505
(dp506
g7
I1
sg8
(imyEvolve
Tree
p507
(dp508
g7
I0
sg16
F-3.6578828642201735
sg17
I01
sbsg18
(imyEvolve
Tree
p509
(dp510
g7
I0
sg16
F1.6487541076484202
sg17
I01
sbsg21
I00
sg22
g23
sbsg18
(imyEvolve
Tree
p511
(dp512
g7
I1
sg8
(imyEvolve
Tree
p513
(dp514
g7
I0
sg16
F4.3669355423750424
sg17
I01
sbsg18
(imyEvolve
Tree
p515
(dp516
g7
I0
sg17
I00
sbsg21
I00
sg22
g23
sbsg21
I00
sg22
g39
sbsg21
I00
sg22
g23
sba(imyEvolve
Tree
p517
(dp518
g8
(imyEvolve
Tree
p519
(dp520
g11
(imyEvolve
Tree
p521
(dp522
g7
I0
sg17
I00
sbsg7
I1
sg21
I01
sg22
g93
sbsg7
I2
sg18
(imyEvolve
Tree
p523
(dp524
g8
(imyEvolve
Tree
p525
(dp526
g7
I0
sg17
I00
sbsg7
I1
sg18
(imyEvolve
Tree
p527
(dp528
g7
I0
sg17
I00
sbsg21
I00
sg22
g23
sbsg21
I00
sg22
g23
sba(imyEvolve
Tree
p529
(dp530
g7
I4
sg8
(imyEvolve
Tree
p531
(dp532
g11
(imyEvolve
Tree
p533
(dp534
g11
(imyEvolve
Tree
p535
(dp536
g11
(imyEvolve
Tree
p537
(dp538
g7
I0
sg16
F-3.8883295336183252
sg17
I01
sbsg7
I1
sg21
I01
sg22
g76
sbsg7
I2
sg21
I01
sg22
g24
sbsg7
I3
sg21
I01
sg22
g93
sbsg18
(imyEvolve
Tree
p539
(dp540
g7
I3
sg8
(imyEvolve
Tree
p541
(dp542
g11
(imyEvolve
Tree
p543
(dp544
g11
(imyEvolve
Tree
p545
(dp546
g7
I0
sg17
I00
sbsg7
I1
sg21
I01
sg22
g24
sbsg7
I2
sg21
I01
sg22
g24
sbsg18
(imyEvolve
Tree
p547
(dp548
g7
I2
sg8
(imyEvolve
Tree
p549
(dp550
g7
I1
sg8
(imyEvolve
Tree
p551
(dp552
g7
I0
sg17
I00
sbsg18
(imyEvolve
Tree
p553
(dp554
g7
I0
sg17
I00
sbsg21
I00
sg22
g23
sbsg18
(imyEvolve
Tree
p555
(dp556
g7
I1
sg8
(imyEvolve
Tree
p557
(dp558
g7
I0
sg17
I00
sbsg18
(imyEvolve
Tree
p559
(dp560
g7
I0
sg17
I00
sbsg21
I00
sg22
g23
sbsg21
I00
sg22
g39
sbsg21
I00
sg22
g23
sbsg21
I00
sg22
g40
sba(imyEvolve
Tree
p561
(dp562
g8
(imyEvolve
Tree
p563
(dp564
g8
(imyEvolve
Tree
p565
(dp566
g11
(imyEvolve
Tree
p567
(dp568
g8
(imyEvolve
Tree
p569
(dp570
g11
(imyEvolve
Tree
p571
(dp572
g7
I0
sg17
I00
sbsg7
I1
sg21
I01
sg22
g59
sbsg7
I2
sg18
(imyEvolve
Tree
p573
(dp574
g11
(imyEvolve
Tree
p575
(dp576
g7
I0
sg16
F-1.495007676420422
sg17
I01
sbsg7
I1
sg21
I01
sg22
g76
sbsg21
I00
sg22
g23
sbsg7
I3
sg21
I01
sg22
g93
sbsg7
I4
sg18
(imyEvolve
Tree
p577
(dp578
g8
(imyEvolve
Tree
p579
(dp580
g11
(imyEvolve
Tree
p581
(dp582
g11
(imyEvolve
Tree
p583
(dp584
g7
I0
sg16
F-1.0584899895778257
sg17
I01
sbsg7
I1
sg21
I01
sg22
g93
sbsg7
I2
sg21
I01
sg22
g59
sbsg7
I3
sg18
(imyEvolve
Tree
p585
(dp586
g11
(imyEvolve
Tree
p587
(dp588
g8
(imyEvolve
Tree
p589
(dp590
g7
I0
sg17
I00
sbsg7
I1
sg18
(imyEvolve
Tree
p591
(dp592
g7
I0
sg17
I00
sbsg21
I00
sg22
g39
sbsg7
I2
sg21
I01
sg22
g59
sbsg21
I00
sg22
g39
sbsg21
I00
sg22
g39
sbsg7
I5
sg18
(imyEvolve
Tree
p593
(dp594
g8
(imyEvolve
Tree
p595
(dp596
g11
(imyEvolve
Tree
p597
(dp598
g11
(imyEvolve
Tree
p599
(dp600
g8
(imyEvolve
Tree
p601
(dp602
g7
I0
sg16
F-4.053300571933121
sg17
I01
sbsg7
I1
sg18
(imyEvolve
Tree
p603
(dp604
g7
I0
sg17
I00
sbsg21
I00
sg22
g40
sbsg7
I2
sg21
I01
sg22
g24
sbsg7
I3
sg21
I01
sg22
g76
sbsg7
I4
sg18
(imyEvolve
Tree
p605
(dp606
g8
(imyEvolve
Tree
p607
(dp608
g8
(imyEvolve
Tree
p609
(dp610
g11
(imyEvolve
Tree
p611
(dp612
g7
I0
sg17
I00
sbsg7
I1
sg21
I01
sg22
g93
sbsg7
I2
sg18
(imyEvolve
Tree
p613
(dp614
g11
(imyEvolve
Tree
p615
(dp616
g7
I0
sg16
F-1.716418313909621
sg17
I01
sbsg7
I1
sg21
I01
sg22
g59
sbsg21
I00
sg22
g39
sbsg7
I3
sg18
(imyEvolve
Tree
p617
(dp618
g8
(imyEvolve
Tree
p619
(dp620
g8
(imyEvolve
Tree
p621
(dp622
g7
I0
sg16
F4.600271725428852
sg17
I01
sbsg7
I1
sg18
(imyEvolve
Tree
p623
(dp624
g7
I0
sg16
F1.686821794750771
sg17
I01
sbsg21
I00
sg22
g40
sbsg7
I2
sg18
(imyEvolve
Tree
p625
(dp626
g11
(imyEvolve
Tree
p627
(dp628
g7
I0
sg16
F4.459644316834634
sg17
I01
sbsg7
I1
sg21
I01
sg22
g93
sbsg21
I00
sg22
g40
sbsg21
I00
sg22
g40
sbsg21
I00
sg22
g40
sbsg21
I00
sg22
g23
sba(imyEvolve
Tree
p629
(dp630
g8
(imyEvolve
Tree
p631
(dp632
g8
(imyEvolve
Tree
p633
(dp634
g11
(imyEvolve
Tree
p635
(dp636
g7
I0
sg17
I00
sbsg7
I1
sg21
I01
sg22
g59
sbsg7
I2
sg18
(imyEvolve
Tree
p637
(dp638
g11
(imyEvolve
Tree
p639
(dp640
g7
I0
sg16
F-2.714371031844326
sg17
I01
sbsg7
I1
sg21
I01
sg22
g76
sbsg21
I00
sg22
g40
sbsg7
I3
sg18
(imyEvolve
Tree
p641
(dp642
g11
(imyEvolve
Tree
p643
(dp644
g11
(imyEvolve
Tree
p645
(dp646
g7
I0
sg16
F-0.4915607658529506
sg17
I01
sbsg7
I1
sg21
I01
sg22
g76
sbsg7
I2
sg21
I01
sg22
g93
sbsg21
I00
sg22
g40
sba(imyEvolve
Tree
p647
(dp648
g7
I5
sg8
(imyEvolve
Tree
p649
(dp650
g7
I4
sg8
(imyEvolve
Tree
p651
(dp652
g7
I3
sg8
(imyEvolve
Tree
p653
(dp654
g11
(imyEvolve
Tree
p655
(dp656
g11
(imyEvolve
Tree
p657
(dp658
g7
I0
sg17
I00
sbsg7
I1
sg21
I01
sg22
g76
sbsg7
I2
sg21
I01
sg22
g59
sbsg18
(imyEvolve
Tree
p659
(dp660
g7
I2
sg8
(imyEvolve
Tree
p661
(dp662
g11
(imyEvolve
Tree
p663
(dp664
g7
I0
sg17
I00
sbsg7
I1
sg21
I01
sg22
g59
sbsg18
(imyEvolve
Tree
p665
(dp666
g11
(imyEvolve
Tree
p667
(dp668
g7
I0
sg16
F0.04120331608864358
sg17
I01
sbsg7
I1
sg21
I01
sg22
g24
sbsg21
I00
sg22
g23
sbsg21
I00
sg22
g23
sbsg18
(imyEvolve
Tree
p669
(dp670
g11
(imyEvolve
Tree
p671
(dp672
g7
I2
sg8
(imyEvolve
Tree
p673
(dp674
g11
(imyEvolve
Tree
p675
(dp676
g7
I0
sg16
F-3.3058576814503415
sg17
I01
sbsg7
I1
sg21
I01
sg22
g93
sbsg18
(imyEvolve
Tree
p677
(dp678
g11
(imyEvolve
Tree
p679
(dp680
g7
I0
sg16
F-2.0028449476559382
sg17
I01
sbsg7
I1
sg21
I01
sg22
g24
sbsg21
I00
sg22
g39
sbsg7
I3
sg21
I01
sg22
g59
sbsg21
I00
sg22
g40
sbsg18
(imyEvolve
Tree
p681
(dp682
g11
(imyEvolve
Tree
p683
(dp684
g11
(imyEvolve
Tree
p685
(dp686
g11
(imyEvolve
Tree
p687
(dp688
g11
(imyEvolve
Tree
p689
(dp690
g7
I0
sg16
F-1.9199280109375252
sg17
I01
sbsg7
I1
sg21
I01
sg22
g93
sbsg7
I2
sg21
I01
sg22
g24
sbsg7
I3
sg21
I01
sg22
g59
sbsg7
I4
sg21
I01
sg22
g93
sbsg21
I00
sg22
g23
sba(imyEvolve
Tree
p691
(dp692
g8
(imyEvolve
Tree
p693
(dp694
g11
(imyEvolve
Tree
p695
(dp696
g8
(imyEvolve
Tree
p697
(dp698
g8
(imyEvolve
Tree
p699
(dp700
g11
(imyEvolve
Tree
p701
(dp702
g7
I0
sg16
F0.07053482830773916
sg17
I01
sbsg7
I1
sg21
I01
sg22
g59
sbsg7
I2
sg18
(imyEvolve
Tree
p703
(dp704
g8
(imyEvolve
Tree
p705
(dp706
g7
I0
sg17
I00
sbsg7
I1
sg18
(imyEvolve
Tree
p707
(dp708
g7
I0
sg17
I00
sbsg21
I00
sg22
g23
sbsg21
I00
sg22
g23
sbsg7
I3
sg18
(imyEvolve
Tree
p709
(dp710
g8
(imyEvolve
Tree
p711
(dp712
g8
(imyEvolve
Tree
p713
(dp714
g7
I0
sg17
I00
sbsg7
I1
sg18
(imyEvolve
Tree
p715
(dp716
g7
I0
sg17
I00
sbsg21
I00
sg22
g23
sbsg7
I2
sg18
(imyEvolve
Tree
p717
(dp718
g8
(imyEvolve
Tree
p719
(dp720
g7
I0
sg17
I00
sbsg7
I1
sg18
(imyEvolve
Tree
p721
(dp722
g7
I0
sg17
I00
sbsg21
I00
sg22
g40
sbsg21
I00
sg22
g39
sbsg21
I00
sg22
g39
sbsg7
I4
sg21
I01
sg22
g93
sbsg7
I5
sg18
(imyEvolve
Tree
p723
(dp724
g11
(imyEvolve
Tree
p725
(dp726
g8
(imyEvolve
Tree
p727
(dp728
g8
(imyEvolve
Tree
p729
(dp730
g8
(imyEvolve
Tree
p731
(dp732
g7
I0
sg17
I00
sbsg7
I1
sg18
(imyEvolve
Tree
p733
(dp734
g7
I0
sg17
I00
sbsg21
I00
sg22
g40
sbsg7
I2
sg18
(imyEvolve
Tree
p735
(dp736
g8
(imyEvolve
Tree
p737
(dp738
g7
I0
sg16
F3.051346654255127
sg17
I01
sbsg7
I1
sg18
(imyEvolve
Tree
p739
(dp740
g7
I0
sg17
I00
sbsg21
I00
sg22
g23
sbsg21
I00
sg22
g40
sbsg7
I3
sg18
(imyEvolve
Tree
p741
(dp742
g8
(imyEvolve
Tree
p743
(dp744
g8
(imyEvolve
Tree
p745
(dp746
g7
I0
sg17
I00
sbsg7
I1
sg18
(imyEvolve
Tree
p747
(dp748
g7
I0
sg17
I00
sbsg21
I00
sg22
g39
sbsg7
I2
sg18
(imyEvolve
Tree
p749
(dp750
g11
(imyEvolve
Tree
p751
(dp752
g7
I0
sg17
I00
sbsg7
I1
sg21
I01
sg22
g24
sbsg21
I00
sg22
g23
sbsg21
I00
sg22
g23
sbsg7
I4
sg21
I01
sg22
g59
sbsg21
I00
sg22
g23
sba(imyEvolve
Tree
p753
(dp754
g11
(imyEvolve
Tree
p755
(dp756
g11
(imyEvolve
Tree
p757
(dp758
g7
I1
sg8
(imyEvolve
Tree
p759
(dp760
g7
I0
sg17
I00
sbsg18
(imyEvolve
Tree
p761
(dp762
g7
I0
sg16
F-3.7204276318310026
sg17
I01
sbsg21
I00
sg22
g39
sbsg7
I2
sg21
I01
sg22
g76
sbsg7
I3
sg21
I01
sg22
g59
sba(imyEvolve
Tree
p763
(dp764
g11
(imyEvolve
Tree
p765
(dp766
g11
(imyEvolve
Tree
p767
(dp768
g11
(imyEvolve
Tree
p769
(dp770
g8
(imyEvolve
Tree
p771
(dp772
g7
I0
sg16
F4.004720502461838
sg17
I01
sbsg7
I1
sg18
(imyEvolve
Tree
p773
(dp774
g7
I0
sg17
I00
sbsg21
I00
sg22
g40
sbsg7
I2
sg21
I01
sg22
g59
sbsg7
I3
sg21
I01
sg22
g24
sbsg7
I4
sg21
I01
sg22
g76
sba(imyEvolve
Tree
p775
(dp776
g11
(imyEvolve
Tree
p777
(dp778
g8
(imyEvolve
Tree
p779
(dp780
g7
I0
sg16
F-3.479478107695284
sg17
I01
sbsg7
I1
sg18
(imyEvolve
Tree
p781
(dp782
g7
I0
sg16
F-1.6758953675370467
sg17
I01
sbsg21
I00
sg22
g39
sbsg7
I2
sg21
I01
sg22
g93
sba(imyEvolve
Tree
p783
(dp784
g8
(imyEvolve
Tree
p785
(dp786
g11
(imyEvolve
Tree
p787
(dp788
g11
(imyEvolve
Tree
p789
(dp790
g11
(imyEvolve
Tree
p791
(dp792
g7
I0
sg17
I00
sbsg7
I1
sg21
I01
sg22
g24
sbsg7
I2
sg21
I01
sg22
g76
sbsg7
I3
sg21
I01
sg22
g93
sbsg7
I4
sg18
(imyEvolve
Tree
p793
(dp794
g11
(imyEvolve
Tree
p795
(dp796
g8
(imyEvolve
Tree
p797
(dp798
g8
(imyEvolve
Tree
p799
(dp800
g7
I0
sg16
F0.8533206227983179
sg17
I01
sbsg7
I1
sg18
(imyEvolve
Tree
p801
(dp802
g7
I0
sg17
I00
sbsg21
I00
sg22
g39
sbsg7
I2
sg18
(imyEvolve
Tree
p803
(dp804
g11
(imyEvolve
Tree
p805
(dp806
g7
I0
sg17
I00
sbsg7
I1
sg21
I01
sg22
g76
sbsg21
I00
sg22
g39
sbsg7
I3
sg21
I01
sg22
g59
sbsg21
I00
sg22
g23
sba(imyEvolve
Tree
p807
(dp808
g7
I4
sg8
(imyEvolve
Tree
p809
(dp810
g7
I3
sg8
(imyEvolve
Tree
p811
(dp812
g11
(imyEvolve
Tree
p813
(dp814
g11
(imyEvolve
Tree
p815
(dp816
g7
I0
sg16
F4.0183776455472575
sg17
I01
sbsg7
I1
sg21
I01
sg22
g24
sbsg7
I2
sg21
I01
sg22
g59
sbsg18
(imyEvolve
Tree
p817
(dp818
g11
(imyEvolve
Tree
p819
(dp820
g11
(imyEvolve
Tree
p821
(dp822
g7
I0
sg16
F-0.38637491027434834
sg17
I01
sbsg7
I1
sg21
I01
sg22
g93
sbsg7
I2
sg21
I01
sg22
g24
sbsg21
I00
sg22
g39
sbsg18
(imyEvolve
Tree
p823
(dp824
g11
(imyEvolve
Tree
p825
(dp826
g11
(imyEvolve
Tree
p827
(dp828
g11
(imyEvolve
Tree
p829
(dp830
g7
I0
sg16
F1.693181813488743
sg17
I01
sbsg7
I1
sg21
I01
sg22
g76
sbsg7
I2
sg21
I01
sg22
g59
sbsg7
I3
sg21
I01
sg22
g24
sbsg21
I00
sg22
g23
sba(imyEvolve
Tree
p831
(dp832
g7
I5
sg8
(imyEvolve
Tree
p833
(dp834
g7
I4
sg8
(imyEvolve
Tree
p835
(dp836
g11
(imyEvolve
Tree
p837
(dp838
g7
I2
sg8
(imyEvolve
Tree
p839
(dp840
g7
I1
sg8
(imyEvolve
Tree
p841
(dp842
g7
I0
sg16
F2.0862521901410114
sg17
I01
sbsg18
(imyEvolve
Tree
p843
(dp844
g7
I0
sg16
F-4.1923606739006
sg17
I01
sbsg21
I00
sg22
g39
sbsg18
(imyEvolve
Tree
p845
(dp846
g7
I1
sg8
(imyEvolve
Tree
p847
(dp848
g7
I0
sg17
I00
sbsg18
(imyEvolve
Tree
p849
(dp850
g7
I0
sg17
I00
sbsg21
I00
sg22
g23
sbsg21
I00
sg22
g39
sbsg7
I3
sg21
I01
sg22
g93
sbsg18
(imyEvolve
Tree
p851
(dp852
g11
(imyEvolve
Tree
p853
(dp854
g7
I2
sg8
(imyEvolve
Tree
p855
(dp856
g7
I1
sg8
(imyEvolve
Tree
p857
(dp858
g7
I0
sg16
F-4.119059652145163
sg17
I01
sbsg18
(imyEvolve
Tree
p859
(dp860
g7
I0
sg16
F-1.043567806484047
sg17
I01
sbsg21
I00
sg22
g39
sbsg18
(imyEvolve
Tree
p861
(dp862
g11
(imyEvolve
Tree
p863
(dp864
g7
I0
sg16
F-2.686169856688653
sg17
I01
sbsg7
I1
sg21
I01
sg22
g76
sbsg21
I00
sg22
g23
sbsg7
I3
sg21
I01
sg22
g24
sbsg21
I00
sg22
g23
sbsg18
(imyEvolve
Tree
p865
(dp866
g11
(imyEvolve
Tree
p867
(dp868
g11
(imyEvolve
Tree
p869
(dp870
g7
I2
sg8
(imyEvolve
Tree
p871
(dp872
g7
I1
sg8
(imyEvolve
Tree
p873
(dp874
g7
I0
sg16
F-3.7962103250549353
sg17
I01
sbsg18
(imyEvolve
Tree
p875
(dp876
g7
I0
sg17
I00
sbsg21
I00
sg22
g40
sbsg18
(imyEvolve
Tree
p877
(dp878
g7
I1
sg8
(imyEvolve
Tree
p879
(dp880
g7
I0
sg16
F0.07252955941056172
sg17
I01
sbsg18
(imyEvolve
Tree
p881
(dp882
g7
I0
sg17
I00
sbsg21
I00
sg22
g23
sbsg21
I00
sg22
g23
sbsg7
I3
sg21
I01
sg22
g59
sbsg7
I4
sg21
I01
sg22
g24
sbsg21
I00
sg22
g39
sba(imyEvolve
Tree
p883
(dp884
g8
(imyEvolve
Tree
p885
(dp886
g8
(imyEvolve
Tree
p887
(dp888
g8
(imyEvolve
Tree
p889
(dp890
g11
(imyEvolve
Tree
p891
(dp892
g7
I0
sg16
F3.110522686969542
sg17
I01
sbsg7
I1
sg21
I01
sg22
g24
sbsg7
I2
sg18
(imyEvolve
Tree
p893
(dp894
g8
(imyEvolve
Tree
p895
(dp896
g7
I0
sg16
F3.5497262842872743
sg17
I01
sbsg7
I1
sg18
(imyEvolve
Tree
p897
(dp898
g7
I0
sg16
F4.287766952472632
sg17
I01
sbsg21
I00
sg22
g39
sbsg21
I00
sg22
g39
sbsg7
I3
sg18
(imyEvolve
Tree
p899
(dp900
g11
(imyEvolve
Tree
p901
(dp902
g8
(imyEvolve
Tree
p903
(dp904
g7
I0
sg16
F2.819410729463386
sg17
I01
sbsg7
I1
sg18
(imyEvolve
Tree
p905
(dp906
g7
I0
sg16
F-1.1342960213841713
sg17
I01
sbsg21
I00
sg22
g40
sbsg7
I2
sg21
I01
sg22
g76
sbsg21
I00
sg22
g23
sbsg7
I4
sg18
(imyEvolve
Tree
p907
(dp908
g11
(imyEvolve
Tree
p909
(dp910
g11
(imyEvolve
Tree
p911
(dp912
g11
(imyEvolve
Tree
p913
(dp914
g7
I0
sg17
I00
sbsg7
I1
sg21
I01
sg22
g24
sbsg7
I2
sg21
I01
sg22
g76
sbsg7
I3
sg21
I01
sg22
g59
sbsg21
I00
sg22
g39
sba(imyEvolve
Tree
p915
(dp916
g8
(imyEvolve
Tree
p917
(dp918
g8
(imyEvolve
Tree
p919
(dp920
g8
(imyEvolve
Tree
p921
(dp922
g11
(imyEvolve
Tree
p923
(dp924
g7
I0
sg17
I00
sbsg7
I1
sg21
I01
sg22
g59
sbsg7
I2
sg18
(imyEvolve
Tree
p925
(dp926
g8
(imyEvolve
Tree
p927
(dp928
g7
I0
sg17
I00
sbsg7
I1
sg18
(imyEvolve
Tree
p929
(dp930
g7
I0
sg16
F-4.920340509286749
sg17
I01
sbsg21
I00
sg22
g40
sbsg21
I00
sg22
g39
sbsg7
I3
sg18
(imyEvolve
Tree
p931
(dp932
g11
(imyEvolve
Tree
p933
(dp934
g8
(imyEvolve
Tree
p935
(dp936
g7
I0
sg17
I00
sbsg7
I1
sg18
(imyEvolve
Tree
p937
(dp938
g7
I0
sg16
F4.575555976558526
sg17
I01
sbsg21
I00
sg22
g23
sbsg7
I2
sg21
I01
sg22
g24
sbsg21
I00
sg22
g23
sbsg7
I4
sg18
(imyEvolve
Tree
p939
(dp940
g8
(imyEvolve
Tree
p941
(dp942
g11
(imyEvolve
Tree
p943
(dp944
g11
(imyEvolve
Tree
p945
(dp946
g7
I0
sg16
F0.1331008107027012
sg17
I01
sbsg7
I1
sg21
I01
sg22
g76
sbsg7
I2
sg21
I01
sg22
g59
sbsg7
I3
sg18
(imyEvolve
Tree
p947
(dp948
g8
(imyEvolve
Tree
p949
(dp950
g11
(imyEvolve
Tree
p951
(dp952
g7
I0
sg16
F-2.7967584422862766
sg17
I01
sbsg7
I1
sg21
I01
sg22
g24
sbsg7
I2
sg18
(imyEvolve
Tree
p953
(dp954
g11
(imyEvolve
Tree
p955
(dp956
g7
I0
sg16
F3.7810310734289594
sg17
I01
sbsg7
I1
sg21
I01
sg22
g76
sbsg21
I00
sg22
g39
sbsg21
I00
sg22
g39
sbsg21
I00
sg22
g40
sba(imyEvolve
Tree
p957
(dp958
g8
(imyEvolve
Tree
p959
(dp960
g8
(imyEvolve
Tree
p961
(dp962
g11
(imyEvolve
Tree
p963
(dp964
g11
(imyEvolve
Tree
p965
(dp966
g7
I0
sg17
I00
sbsg7
I1
sg21
I01
sg22
g93
sbsg7
I2
sg21
I01
sg22
g24
sbsg7
I3
sg18
(imyEvolve
Tree
p967
(dp968
g8
(imyEvolve
Tree
p969
(dp970
g11
(imyEvolve
Tree
p971
(dp972
g7
I0
sg17
I00
sbsg7
I1
sg21
I01
sg22
g59
sbsg7
I2
sg18
(imyEvolve
Tree
p973
(dp974
g8
(imyEvolve
Tree
p975
(dp976
g7
I0
sg17
I00
sbsg7
I1
sg18
(imyEvolve
Tree
p977
(dp978
g7
I0
sg16
F4.863990904785201
sg17
I01
sbsg21
I00
sg22
g40
sbsg21
I00
sg22
g40
sbsg21
I00
sg22
g40
sbsg7
I4
sg18
(imyEvolve
Tree
p979
(dp980
g11
(imyEvolve
Tree
p981
(dp982
g11
(imyEvolve
Tree
p983
(dp984
g8
(imyEvolve
Tree
p985
(dp986
g7
I0
sg16
F3.6586648237888557
sg17
I01
sbsg7
I1
sg18
(imyEvolve
Tree
p987
(dp988
g7
I0
sg17
I00
sbsg21
I00
sg22
g40
sbsg7
I2
sg21
I01
sg22
g76
sbsg7
I3
sg21
I01
sg22
g24
sbsg21
I00
sg22
g39
sba(imyEvolve
Tree
p989
(dp990
g11
(imyEvolve
Tree
p991
(dp992
g7
I2
sg8
(imyEvolve
Tree
p993
(dp994
g11
(imyEvolve
Tree
p995
(dp996
g7
I0
sg16
F2.958808118151051
sg17
I01
sbsg7
I1
sg21
I01
sg22
g59
sbsg18
(imyEvolve
Tree
p997
(dp998
g11
(imyEvolve
Tree
p999
(dp1000
g7
I0
sg16
F2.8170355982272364
sg17
I01
sbsg7
I1
sg21
I01
sg22
g76
sbsg21
I00
sg22
g40
sbsg7
I3
sg21
I01
sg22
g76
sbaa(lp1001
(imyEvolve
Tree
p1002
(dp1003
g11
(imyEvolve
Tree
p1004
(dp1005
g8
(imyEvolve
Tree
p1006
(dp1007
g8
(imyEvolve
Tree
p1008
(dp1009
g8
(imyEvolve
Tree
p1010
(dp1011
g8
(imyEvolve
Tree
p1012
(dp1013
g7
I0
sg17
I00
sbsg7
I1
sg18
(imyEvolve
Tree
p1014
(dp1015
g7
I0
sg16
F-1.3956777795380306
sg17
I01
sbsg21
I00
sg22
g39
sbsg7
I2
sg18
(imyEvolve
Tree
p1016
(dp1017
g11
(imyEvolve
Tree
p1018
(dp1019
g7
I0
sg17
I00
sbsg7
I1
sg21
I01
sg22
g93
sbsg21
I00
sg22
g39
sbsg7
I3
sg18
(imyEvolve
Tree
p1020
(dp1021
g11
(imyEvolve
Tree
p1022
(dp1023
g11
(imyEvolve
Tree
p1024
(dp1025
g7
I0
sg17
I00
sbsg7
I1
sg21
I01
sg22
g24
sbsg7
I2
sg21
I01
sg22
g59
sbsg21
I00
sg22
g23
sbsg7
I4
sg18
(imyEvolve
Tree
p1026
(dp1027
g11
(imyEvolve
Tree
p1028
(dp1029
g11
(imyEvolve
Tree
p1030
(dp1031
g8
(imyEvolve
Tree
p1032
(dp1033
g7
I0
sg17
I00
sbsg7
I1
sg18
(imyEvolve
Tree
p1034
(dp1035
g7
I0
sg17
I00
sbsg21
I00
sg22
g40
sbsg7
I2
sg21
I01
sg22
g76
sbsg7
I3
sg21
I01
sg22
g76
sbsg21
I00
sg22
g40
sbsg7
I5
sg21
I01
sg22
g76
sba(imyEvolve
Tree
p1036
(dp1037
g7
I5
sg8
(imyEvolve
Tree
p1038
(dp1039
g7
I4
sg8
(imyEvolve
Tree
p1040
(dp1041
g11
(imyEvolve
Tree
p1042
(dp1043
g7
I2
sg8
(imyEvolve
Tree
p1044
(dp1045
g11
(imyEvolve
Tree
p1046
(dp1047
g7
I0
sg17
I00
sbsg7
I1
sg21
I01
sg22
g24
sbsg18
(imyEvolve
Tree
p1048
(dp1049
g7
I1
sg8
(imyEvolve
Tree
p1050
(dp1051
g7
I0
sg16
F-4.596519765057327
sg17
I01
sbsg18
(imyEvolve
Tree
p1052
(dp1053
g7
I0
sg17
I00
sbsg21
I00
sg22
g23
sbsg21
I00
sg22
g39
sbsg7
I3
sg21
I01
sg22
g76
sbsg18
(imyEvolve
Tree
p1054
(dp1055
g7
I3
sg8
(imyEvolve
Tree
p1056
(dp1057
g7
I2
sg8
(imyEvolve
Tree
p1058
(dp1059
g11
(imyEvolve
Tree
p1060
(dp1061
g7
I0
sg16
F0.7652244525574536
sg17
I01
sbsg7
I1
sg21
I01
sg22
g76
sbsg18
(imyEvolve
Tree
p1062
(dp1063
g11
(imyEvolve
Tree
p1064
(dp1065
g7
I0
sg17
I00
sbsg7
I1
sg21
I01
sg22
g24
sbsg21
I00
sg22
g23
sbsg18
(imyEvolve
Tree
p1066
(dp1067
g7
I2
sg8
(imyEvolve
Tree
p1068
(dp1069
g11
(imyEvolve
Tree
p1070
(dp1071
g7
I0
sg17
I00
sbsg7
I1
sg21
I01
sg22
g93
sbsg18
(imyEvolve
Tree
p1072
(dp1073
g7
I1
sg8
(imyEvolve
Tree
p1074
(dp1075
g7
I0
sg16
F4.635209599736619
sg17
I01
sbsg18
(imyEvolve
Tree
p1076
(dp1077
g7
I0
sg17
I00
sbsg21
I00
sg22
g40
sbsg21
I00
sg22
g23
sbsg21
I00
sg22
g23
sbsg21
I00
sg22
g39
sbsg18
(imyEvolve
Tree
p1078
(dp1079
g7
I4
sg8
(imyEvolve
Tree
p1080
(dp1081
g7
I3
sg8
(imyEvolve
Tree
p1082
(dp1083
g7
I2
sg8
(imyEvolve
Tree
p1084
(dp1085
g11
(imyEvolve
Tree
p1086
(dp1087
g7
I0
sg16
F-2.777826674880186
sg17
I01
sbsg7
I1
sg21
I01
sg22
g59
sbsg18
(imyEvolve
Tree
p1088
(dp1089
g7
I1
sg8
(imyEvolve
Tree
p1090
(dp1091
g7
I0
sg17
I00
sbsg18
(imyEvolve
Tree
p1092
(dp1093
g7
I0
sg17
I00
sbsg21
I00
sg22
g40
sbsg21
I00
sg22
g39
sbsg18
(imyEvolve
Tree
p1094
(dp1095
g7
I2
sg8
(imyEvolve
Tree
p1096
(dp1097
g11
(imyEvolve
Tree
p1098
(dp1099
g7
I0
sg17
I00
sbsg7
I1
sg21
I01
sg22
g24
sbsg18
(imyEvolve
Tree
p1100
(dp1101
g11
(imyEvolve
Tree
p1102
(dp1103
g7
I0
sg16
F-4.088434019737674
sg17
I01
sbsg7
I1
sg21
I01
sg22
g59
sbsg21
I00
sg22
g39
sbsg21
I00
sg22
g40
sbsg18
(imyEvolve
Tree
p1104
(dp1105
g7
I3
sg8
(imyEvolve
Tree
p1106
(dp1107
g11
(imyEvolve
Tree
p1108
(dp1109
g11
(imyEvolve
Tree
p1110
(dp1111
g7
I0
sg17
I00
sbsg7
I1
sg21
I01
sg22
g59
sbsg7
I2
sg21
I01
sg22
g93
sbsg18
(imyEvolve
Tree
p1112
(dp1113
g7
I2
sg8
(imyEvolve
Tree
p1114
(dp1115
g11
(imyEvolve
Tree
p1116
(dp1117
g7
I0
sg17
I00
sbsg7
I1
sg21
I01
sg22
g59
sbsg18
(imyEvolve
Tree
p1118
(dp1119
g11
(imyEvolve
Tree
p1120
(dp1121
g7
I0
sg16
F-4.362931811157101
sg17
I01
sbsg7
I1
sg21
I01
sg22
g59
sbsg21
I00
sg22
g40
sbsg21
I00
sg22
g23
sbsg21
I00
sg22
g23
sbsg21
I00
sg22
g40
sba(imyEvolve
Tree
p1122
(dp1123
g7
I5
sg8
(imyEvolve
Tree
p1124
(dp1125
g11
(imyEvolve
Tree
p1126
(dp1127
g7
I3
sg8
(imyEvolve
Tree
p1128
(dp1129
g7
I2
sg8
(imyEvolve
Tree
p1130
(dp1131
g7
I1
sg8
(imyEvolve
Tree
p1132
(dp1133
g7
I0
sg16
F0.11872331466708097
sg17
I01
sbsg18
(imyEvolve
Tree
p1134
(dp1135
g7
I0
sg17
I00
sbsg21
I00
sg22
g40
sbsg18
(imyEvolve
Tree
p1136
(dp1137
g11
(imyEvolve
Tree
p1138
(dp1139
g7
I0
sg17
I00
sbsg7
I1
sg21
I01
sg22
g24
sbsg21
I00
sg22
g39
sbsg18
(imyEvolve
Tree
p1140
(dp1141
g7
I2
sg8
(imyEvolve
Tree
p1142
(dp1143
g11
(imyEvolve
Tree
p1144
(dp1145
g7
I0
sg17
I00
sbsg7
I1
sg21
I01
sg22
g24
sbsg18
(imyEvolve
Tree
p1146
(dp1147
g11
(imyEvolve
Tree
p1148
(dp1149
g7
I0
sg16
F2.0466673059664906
sg17
I01
sbsg7
I1
sg21
I01
sg22
g59
sbsg21
I00
sg22
g40
sbsg21
I00
sg22
g40
sbsg7
I4
sg21
I01
sg22
g24
sbsg18
(imyEvolve
Tree
p1150
(dp1151
g11
(imyEvolve
Tree
p1152
(dp1153
g11
(imyEvolve
Tree
p1154
(dp1155
g7
I2
sg8
(imyEvolve
Tree
p1156
(dp1157
g7
I1
sg8
(imyEvolve
Tree
p1158
(dp1159
g7
I0
sg16
F0.06802981752573789
sg17
I01
sbsg18
(imyEvolve
Tree
p1160
(dp1161
g7
I0
sg17
I00
sbsg21
I00
sg22
g39
sbsg18
(imyEvolve
Tree
p1162
(dp1163
g7
I1
sg8
(imyEvolve
Tree
p1164
(dp1165
g7
I0
sg17
I00
sbsg18
(imyEvolve
Tree
p1166
(dp1167
g7
I0
sg17
I00
sbsg21
I00
sg22
g39
sbsg21
I00
sg22
g40
sbsg7
I3
sg21
I01
sg22
g76
sbsg7
I4
sg21
I01
sg22
g24
sbsg21
I00
sg22
g39
sba(imyEvolve
Tree
p1168
(dp1169
g8
(imyEvolve
Tree
p1170
(dp1171
g11
(imyEvolve
Tree
p1172
(dp1173
g7
I0
sg17
I00
sbsg7
I1
sg21
I01
sg22
g93
sbsg7
I2
sg18
(imyEvolve
Tree
p1174
(dp1175
g8
(imyEvolve
Tree
p1176
(dp1177
g7
I0
sg16
F1.0073655632145915
sg17
I01
sbsg7
I1
sg18
(imyEvolve
Tree
p1178
(dp1179
g7
I0
sg17
I00
sbsg21
I00
sg22
g23
sbsg21
I00
sg22
g39
sba(imyEvolve
Tree
p1180
(dp1181
g11
(imyEvolve
Tree
p1182
(dp1183
g11
(imyEvolve
Tree
p1184
(dp1185
g8
(imyEvolve
Tree
p1186
(dp1187
g11
(imyEvolve
Tree
p1188
(dp1189
g7
I0
sg16
F1.2792557121007562
sg17
I01
sbsg7
I1
sg21
I01
sg22
g59
sbsg7
I2
sg18
(imyEvolve
Tree
p1190
(dp1191
g8
(imyEvolve
Tree
p1192
(dp1193
g7
I0
sg17
I00
sbsg7
I1
sg18
(imyEvolve
Tree
p1194
(dp1195
g7
I0
sg16
F-1.933007594728763
sg17
I01
sbsg21
I00
sg22
g39
sbsg21
I00
sg22
g23
sbsg7
I3
sg21
I01
sg22
g24
sbsg7
I4
sg21
I01
sg22
g59
sba(imyEvolve
Tree
p1196
(dp1197
g11
(imyEvolve
Tree
p1198
(dp1199
g11
(imyEvolve
Tree
p1200
(dp1201
g11
(imyEvolve
Tree
p1202
(dp1203
g8
(imyEvolve
Tree
p1204
(dp1205
g11
(imyEvolve
Tree
p1206
(dp1207
g7
I0
sg16
F0.4238345021920109
sg17
I01
sbsg7
I1
sg21
I01
sg22
g59
sbsg7
I2
sg18
(imyEvolve
Tree
p1208
(dp1209
g8
(imyEvolve
Tree
p1210
(dp1211
g7
I0
sg16
F-4.0424621588014755
sg17
I01
sbsg7
I1
sg18
(imyEvolve
Tree
p1212
(dp1213
g7
I0
sg16
F-0.5251291177365509
sg17
I01
sbsg21
I00
sg22
g23
sbsg21
I00
sg22
g40
sbsg7
I3
sg21
I01
sg22
g59
sbsg7
I4
sg21
I01
sg22
g59
sbsg7
I5
sg21
I01
sg22
g24
sba(imyEvolve
Tree
p1214
(dp1215
g11
(imyEvolve
Tree
p1216
(dp1217
g8
(imyEvolve
Tree
p1218
(dp1219
g7
I0
sg17
I00
sbsg7
I1
sg18
(imyEvolve
Tree
p1220
(dp1221
g7
I0
sg16
F2.8982093822512036
sg17
I01
sbsg21
I00
sg22
g39
sbsg7
I2
sg21
I01
sg22
g76
sba(imyEvolve
Tree
p1222
(dp1223
g8
(imyEvolve
Tree
p1224
(dp1225
g8
(imyEvolve
Tree
p1226
(dp1227
g7
I0
sg16
F1.909221571340999
sg17
I01
sbsg7
I1
sg18
(imyEvolve
Tree
p1228
(dp1229
g7
I0
sg16
F0.1717035768885724
sg17
I01
sbsg21
I00
sg22
g23
sbsg7
I2
sg18
(imyEvolve
Tree
p1230
(dp1231
g11
(imyEvolve
Tree
p1232
(dp1233
g7
I0
sg16
F-1.1466521072567781
sg17
I01
sbsg7
I1
sg21
I01
sg22
g59
sbsg21
I00
sg22
g23
sba(imyEvolve
Tree
p1234
(dp1235
g8
(imyEvolve
Tree
p1236
(dp1237
g11
(imyEvolve
Tree
p1238
(dp1239
g7
I0
sg16
F2.0040809612078325
sg17
I01
sbsg7
I1
sg21
I01
sg22
g24
sbsg7
I2
sg18
(imyEvolve
Tree
p1240
(dp1241
g11
(imyEvolve
Tree
p1242
(dp1243
g7
I0
sg16
F-1.5210632673941293
sg17
I01
sbsg7
I1
sg21
I01
sg22
g93
sbsg21
I00
sg22
g40
sba(imyEvolve
Tree
p1244
(dp1245
g7
I4
sg8
(imyEvolve
Tree
p1246
(dp1247
g7
I3
sg8
(imyEvolve
Tree
p1248
(dp1249
g7
I2
sg8
(imyEvolve
Tree
p1250
(dp1251
g11
(imyEvolve
Tree
p1252
(dp1253
g7
I0
sg17
I00
sbsg7
I1
sg21
I01
sg22
g24
sbsg18
(imyEvolve
Tree
p1254
(dp1255
g7
I1
sg8
(imyEvolve
Tree
p1256
(dp1257
g7
I0
sg16
F4.283879027951915
sg17
I01
sbsg18
(imyEvolve
Tree
p1258
(dp1259
g7
I0
sg16
F3.043474613060221
sg17
I01
sbsg21
I00
sg22
g39
sbsg21
I00
sg22
g40
sbsg18
(imyEvolve
Tree
p1260
(dp1261
g7
I2
sg8
(imyEvolve
Tree
p1262
(dp1263
g11
(imyEvolve
Tree
p1264
(dp1265
g7
I0
sg16
F-2.763787921954741
sg17
I01
sbsg7
I1
sg21
I01
sg22
g76
sbsg18
(imyEvolve
Tree
p1266
(dp1267
g11
(imyEvolve
Tree
p1268
(dp1269
g7
I0
sg16
F3.9030294387785034
sg17
I01
sbsg7
I1
sg21
I01
sg22
g24
sbsg21
I00
sg22
g39
sbsg21
I00
sg22
g23
sbsg18
(imyEvolve
Tree
p1270
(dp1271
g11
(imyEvolve
Tree
p1272
(dp1273
g11
(imyEvolve
Tree
p1274
(dp1275
g11
(imyEvolve
Tree
p1276
(dp1277
g7
I0
sg16
F-2.1918978613455096
sg17
I01
sbsg7
I1
sg21
I01
sg22
g24
sbsg7
I2
sg21
I01
sg22
g59
sbsg7
I3
sg21
I01
sg22
g24
sbsg21
I00
sg22
g23
sba(imyEvolve
Tree
p1278
(dp1279
g11
(imyEvolve
Tree
p1280
(dp1281
g11
(imyEvolve
Tree
p1282
(dp1283
g7
I1
sg8
(imyEvolve
Tree
p1284
(dp1285
g7
I0
sg16
F-4.644317619820885
sg17
I01
sbsg18
(imyEvolve
Tree
p1286
(dp1287
g7
I0
sg16
F-3.7958403340360447
sg17
I01
sbsg21
I00
sg22
g23
sbsg7
I2
sg21
I01
sg22
g59
sbsg7
I3
sg21
I01
sg22
g24
sba(imyEvolve
Tree
p1288
(dp1289
g8
(imyEvolve
Tree
p1290
(dp1291
g11
(imyEvolve
Tree
p1292
(dp1293
g8
(imyEvolve
Tree
p1294
(dp1295
g11
(imyEvolve
Tree
p1296
(dp1297
g7
I0
sg17
I00
sbsg7
I1
sg21
I01
sg22
g59
sbsg7
I2
sg18
(imyEvolve
Tree
p1298
(dp1299
g11
(imyEvolve
Tree
p1300
(dp1301
g7
I0
sg17
I00
sbsg7
I1
sg21
I01
sg22
g76
sbsg21
I00
sg22
g40
sbsg7
I3
sg21
I01
sg22
g76
sbsg7
I4
sg18
(imyEvolve
Tree
p1302
(dp1303
g8
(imyEvolve
Tree
p1304
(dp1305
g8
(imyEvolve
Tree
p1306
(dp1307
g8
(imyEvolve
Tree
p1308
(dp1309
g7
I0
sg17
I00
sbsg7
I1
sg18
(imyEvolve
Tree
p1310
(dp1311
g7
I0
sg17
I00
sbsg21
I00
sg22
g40
sbsg7
I2
sg18
(imyEvolve
Tree
p1312
(dp1313
g8
(imyEvolve
Tree
p1314
(dp1315
g7
I0
sg17
I00
sbsg7
I1
sg18
(imyEvolve
Tree
p1316
(dp1317
g7
I0
sg16
F-4.292855173402083
sg17
I01
sbsg21
I00
sg22
g40
sbsg21
I00
sg22
g23
sbsg7
I3
sg18
(imyEvolve
Tree
p1318
(dp1319
g8
(imyEvolve
Tree
p1320
(dp1321
g8
(imyEvolve
Tree
p1322
(dp1323
g7
I0
sg16
F0.9988886356081705
sg17
I01
sbsg7
I1
sg18
(imyEvolve
Tree
p1324
(dp1325
g7
I0
sg17
I00
sbsg21
I00
sg22
g40
sbsg7
I2
sg18
(imyEvolve
Tree
p1326
(dp1327
g8
(imyEvolve
Tree
p1328
(dp1329
g7
I0
sg16
F4.1500390802141
sg17
I01
sbsg7
I1
sg18
(imyEvolve
Tree
p1330
(dp1331
g7
I0
sg17
I00
sbsg21
I00
sg22
g40
sbsg21
I00
sg22
g39
sbsg21
I00
sg22
g23
sbsg21
I00
sg22
g40
sbaa(lp1332
(imyEvolve
Tree
p1333
(dp1334
g8
(imyEvolve
Tree
p1335
(dp1336
g8
(imyEvolve
Tree
p1337
(dp1338
g8
(imyEvolve
Tree
p1339
(dp1340
g8
(imyEvolve
Tree
p1341
(dp1342
g11
(imyEvolve
Tree
p1343
(dp1344
g7
I0
sg17
I00
sbsg7
I1
sg21
I01
sg22
g93
sbsg7
I2
sg18
(imyEvolve
Tree
p1345
(dp1346
g8
(imyEvolve
Tree
p1347
(dp1348
g7
I0
sg16
F-2.743911455839384
sg17
I01
sbsg7
I1
sg18
(imyEvolve
Tree
p1349
(dp1350
g7
I0
sg16
F-1.7772390996308953
sg17
I01
sbsg21
I00
sg22
g39
sbsg21
I00
sg22
g23
sbsg7
I3
sg18
(imyEvolve
Tree
p1351
(dp1352
g11
(imyEvolve
Tree
p1353
(dp1354
g8
(imyEvolve
Tree
p1355
(dp1356
g7
I0
sg16
F1.1383517873787063
sg17
I01
sbsg7
I1
sg18
(imyEvolve
Tree
p1357
(dp1358
g7
I0
sg16
F-4.877651328175979
sg17
I01
sbsg21
I00
sg22
g23
sbsg7
I2
sg21
I01
sg22
g24
sbsg21
I00
sg22
g39
sbsg7
I4
sg18
(imyEvolve
Tree
p1359
(dp1360
g8
(imyEvolve
Tree
p1361
(dp1362
g11
(imyEvolve
Tree
p1363
(dp1364
g11
(imyEvolve
Tree
p1365
(dp1366
g7
I0
sg17
I00
sbsg7
I1
sg21
I01
sg22
g24
sbsg7
I2
sg21
I01
sg22
g24
sbsg7
I3
sg18
(imyEvolve
Tree
p1367
(dp1368
g8
(imyEvolve
Tree
p1369
(dp1370
g11
(imyEvolve
Tree
p1371
(dp1372
g7
I0
sg17
I00
sbsg7
I1
sg21
I01
sg22
g93
sbsg7
I2
sg18
(imyEvolve
Tree
p1373
(dp1374
g11
(imyEvolve
Tree
p1375
(dp1376
g7
I0
sg17
I00
sbsg7
I1
sg21
I01
sg22
g93
sbsg21
I00
sg22
g23
sbsg21
I00
sg22
g23
sbsg21
I00
sg22
g23
sbsg7
I5
sg18
(imyEvolve
Tree
p1377
(dp1378
g11
(imyEvolve
Tree
p1379
(dp1380
g11
(imyEvolve
Tree
p1381
(dp1382
g11
(imyEvolve
Tree
p1383
(dp1384
g11
(imyEvolve
Tree
p1385
(dp1386
g7
I0
sg17
I00
sbsg7
I1
sg21
I01
sg22
g93
sbsg7
I2
sg21
I01
sg22
g93
sbsg7
I3
sg21
I01
sg22
g24
sbsg7
I4
sg21
I01
sg22
g93
sbsg21
I00
sg22
g39
sba(imyEvolve
Tree
p1387
(dp1388
g11
(imyEvolve
Tree
p1389
(dp1390
g8
(imyEvolve
Tree
p1391
(dp1392
g7
I0
sg17
I00
sbsg7
I1
sg18
(imyEvolve
Tree
p1393
(dp1394
g7
I0
sg17
I00
sbsg21
I00
sg22
g40
sbsg7
I2
sg21
I01
sg22
g59
sba(imyEvolve
Tree
p1395
(dp1396
g7
I2
sg8
(imyEvolve
Tree
p1397
(dp1398
g7
I1
sg8
(imyEvolve
Tree
p1399
(dp1400
g7
I0
sg17
I00
sbsg18
(imyEvolve
Tree
p1401
(dp1402
g7
I0
sg16
F-3.822128038186837
sg17
I01
sbsg21
I00
sg22
g23
sbsg18
(imyEvolve
Tree
p1403
(dp1404
g11
(imyEvolve
Tree
p1405
(dp1406
g7
I0
sg17
I00
sbsg7
I1
sg21
I01
sg22
g76
sbsg21
I00
sg22
g40
sba(imyEvolve
Tree
p1407
(dp1408
g11
(imyEvolve
Tree
p1409
(dp1410
g11
(imyEvolve
Tree
p1411
(dp1412
g11
(imyEvolve
Tree
p1413
(dp1414
g7
I0
sg17
I00
sbsg7
I1
sg21
I01
sg22
g24
sbsg7
I2
sg21
I01
sg22
g59
sbsg7
I3
sg21
I01
sg22
g93
sba(imyEvolve
Tree
p1415
(dp1416
g8
(imyEvolve
Tree
p1417
(dp1418
g11
(imyEvolve
Tree
p1419
(dp1420
g11
(imyEvolve
Tree
p1421
(dp1422
g11
(imyEvolve
Tree
p1423
(dp1424
g11
(imyEvolve
Tree
p1425
(dp1426
g7
I0
sg16
F-3.001831422167476
sg17
I01
sbsg7
I1
sg21
I01
sg22
g93
sbsg7
I2
sg21
I01
sg22
g24
sbsg7
I3
sg21
I01
sg22
g24
sbsg7
I4
sg21
I01
sg22
g93
sbsg7
I5
sg18
(imyEvolve
Tree
p1427
(dp1428
g8
(imyEvolve
Tree
p1429
(dp1430
g11
(imyEvolve
Tree
p1431
(dp1432
g8
(imyEvolve
Tree
p1433
(dp1434
g11
(imyEvolve
Tree
p1435
(dp1436
g7
I0
sg16
F-1.8652378696750205
sg17
I01
sbsg7
I1
sg21
I01
sg22
g93
sbsg7
I2
sg18
(imyEvolve
Tree
p1437
(dp1438
g11
(imyEvolve
Tree
p1439
(dp1440
g7
I0
sg16
F0.2310779613222298
sg17
I01
sbsg7
I1
sg21
I01
sg22
g76
sbsg21
I00
sg22
g40
sbsg7
I3
sg21
I01
sg22
g76
sbsg7
I4
sg18
(imyEvolve
Tree
p1441
(dp1442
g11
(imyEvolve
Tree
p1443
(dp1444
g11
(imyEvolve
Tree
p1445
(dp1446
g11
(imyEvolve
Tree
p1447
(dp1448
g7
I0
sg17
I00
sbsg7
I1
sg21
I01
sg22
g76
sbsg7
I2
sg21
I01
sg22
g93
sbsg7
I3
sg21
I01
sg22
g24
sbsg21
I00
sg22
g40
sbsg21
I00
sg22
g40
sba(imyEvolve
Tree
p1449
(dp1450
g11
(imyEvolve
Tree
p1451
(dp1452
g8
(imyEvolve
Tree
p1453
(dp1454
g7
I0
sg17
I00
sbsg7
I1
sg18
(imyEvolve
Tree
p1455
(dp1456
g7
I0
sg16
F3.0381287702462316
sg17
I01
sbsg21
I00
sg22
g40
sbsg7
I2
sg21
I01
sg22
g93
sba(imyEvolve
Tree
p1457
(dp1458
g7
I5
sg8
(imyEvolve
Tree
p1459
(dp1460
g7
I4
sg8
(imyEvolve
Tree
p1461
(dp1462
g7
I3
sg8
(imyEvolve
Tree
p1463
(dp1464
g7
I2
sg8
(imyEvolve
Tree
p1465
(dp1466
g7
I1
sg8
(imyEvolve
Tree
p1467
(dp1468
g7
I0
sg16
F1.7354428092896033
sg17
I01
sbsg18
(imyEvolve
Tree
p1469
(dp1470
g7
I0
sg16
F-3.671313321024879
sg17
I01
sbsg21
I00
sg22
g39
sbsg18
(imyEvolve
Tree
p1471
(dp1472
g11
(imyEvolve
Tree
p1473
(dp1474
g7
I0
sg16
F-0.9297582195866658
sg17
I01
sbsg7
I1
sg21
I01
sg22
g93
sbsg21
I00
sg22
g23
sbsg18
(imyEvolve
Tree
p1475
(dp1476
g7
I2
sg8
(imyEvolve
Tree
p1477
(dp1478
g11
(imyEvolve
Tree
p1479
(dp1480
g7
I0
sg17
I00
sbsg7
I1
sg21
I01
sg22
g24
sbsg18
(imyEvolve
Tree
p1481
(dp1482
g7
I1
sg8
(imyEvolve
Tree
p1483
(dp1484
g7
I0
sg17
I00
sbsg18
(imyEvolve
Tree
p1485
(dp1486
g7
I0
sg16
F-2.5410461745408455
sg17
I01
sbsg21
I00
sg22
g40
sbsg21
I00
sg22
g39
sbsg21
I00
sg22
g39
sbsg18
(imyEvolve
Tree
p1487
(dp1488
g7
I3
sg8
(imyEvolve
Tree
p1489
(dp1490
g7
I2
sg8
(imyEvolve
Tree
p1491
(dp1492
g7
I1
sg8
(imyEvolve
Tree
p1493
(dp1494
g7
I0
sg16
F3.2998154513117193
sg17
I01
sbsg18
(imyEvolve
Tree
p1495
(dp1496
g7
I0
sg17
I00
sbsg21
I00
sg22
g39
sbsg18
(imyEvolve
Tree
p1497
(dp1498
g11
(imyEvolve
Tree
p1499
(dp1500
g7
I0
sg16
F-0.991377647970884
sg17
I01
sbsg7
I1
sg21
I01
sg22
g24
sbsg21
I00
sg22
g39
sbsg18
(imyEvolve
Tree
p1501
(dp1502
g11
(imyEvolve
Tree
p1503
(dp1504
g11
(imyEvolve
Tree
p1505
(dp1506
g7
I0
sg17
I00
sbsg7
I1
sg21
I01
sg22
g93
sbsg7
I2
sg21
I01
sg22
g59
sbsg21
I00
sg22
g39
sbsg21
I00
sg22
g23
sbsg18
(imyEvolve
Tree
p1507
(dp1508
g7
I4
sg8
(imyEvolve
Tree
p1509
(dp1510
g11
(imyEvolve
Tree
p1511
(dp1512
g11
(imyEvolve
Tree
p1513
(dp1514
g7
I1
sg8
(imyEvolve
Tree
p1515
(dp1516
g7
I0
sg17
I00
sbsg18
(imyEvolve
Tree
p1517
(dp1518
g7
I0
sg16
F3.0723136261847106
sg17
I01
sbsg21
I00
sg22
g39
sbsg7
I2
sg21
I01
sg22
g76
sbsg7
I3
sg21
I01
sg22
g93
sbsg18
(imyEvolve
Tree
p1519
(dp1520
g7
I3
sg8
(imyEvolve
Tree
p1521
(dp1522
g11
(imyEvolve
Tree
p1523
(dp1524
g11
(imyEvolve
Tree
p1525
(dp1526
g7
I0
sg17
I00
sbsg7
I1
sg21
I01
sg22
g24
sbsg7
I2
sg21
I01
sg22
g76
sbsg18
(imyEvolve
Tree
p1527
(dp1528
g7
I2
sg8
(imyEvolve
Tree
p1529
(dp1530
g7
I1
sg8
(imyEvolve
Tree
p1531
(dp1532
g7
I0
sg17
I00
sbsg18
(imyEvolve
Tree
p1533
(dp1534
g7
I0
sg16
F3.2150346768133904
sg17
I01
sbsg21
I00
sg22
g39
sbsg18
(imyEvolve
Tree
p1535
(dp1536
g11
(imyEvolve
Tree
p1537
(dp1538
g7
I0
sg17
I00
sbsg7
I1
sg21
I01
sg22
g59
sbsg21
I00
sg22
g39
sbsg21
I00
sg22
g40
sbsg21
I00
sg22
g23
sbsg21
I00
sg22
g23
sba(imyEvolve
Tree
p1539
(dp1540
g8
(imyEvolve
Tree
p1541
(dp1542
g8
(imyEvolve
Tree
p1543
(dp1544
g8
(imyEvolve
Tree
p1545
(dp1546
g11
(imyEvolve
Tree
p1547
(dp1548
g7
I0
sg16
F-2.7682995845769276
sg17
I01
sbsg7
I1
sg21
I01
sg22
g93
sbsg7
I2
sg18
(imyEvolve
Tree
p1549
(dp1550
g8
(imyEvolve
Tree
p1551
(dp1552
g7
I0
sg16
F-0.9341798676646231
sg17
I01
sbsg7
I1
sg18
(imyEvolve
Tree
p1553
(dp1554
g7
I0
sg16
F3.8766547531814037
sg17
I01
sbsg21
I00
sg22
g40
sbsg21
I00
sg22
g23
sbsg7
I3
sg18
(imyEvolve
Tree
p1555
(dp1556
g11
(imyEvolve
Tree
p1557
(dp1558
g11
(imyEvolve
Tree
p1559
(dp1560
g7
I0
sg17
I00
sbsg7
I1
sg21
I01
sg22
g93
sbsg7
I2
sg21
I01
sg22
g76
sbsg21
I00
sg22
g39
sbsg7
I4
sg18
(imyEvolve
Tree
p1561
(dp1562
g8
(imyEvolve
Tree
p1563
(dp1564
g8
(imyEvolve
Tree
p1565
(dp1566
g11
(imyEvolve
Tree
p1567
(dp1568
g7
I0
sg17
I00
sbsg7
I1
sg21
I01
sg22
g24
sbsg7
I2
sg18
(imyEvolve
Tree
p1569
(dp1570
g11
(imyEvolve
Tree
p1571
(dp1572
g7
I0
sg17
I00
sbsg7
I1
sg21
I01
sg22
g76
sbsg21
I00
sg22
g39
sbsg7
I3
sg18
(imyEvolve
Tree
p1573
(dp1574
g8
(imyEvolve
Tree
p1575
(dp1576
g8
(imyEvolve
Tree
p1577
(dp1578
g7
I0
sg16
F-1.8008272400228797
sg17
I01
sbsg7
I1
sg18
(imyEvolve
Tree
p1579
(dp1580
g7
I0
sg17
I00
sbsg21
I00
sg22
g39
sbsg7
I2
sg18
(imyEvolve
Tree
p1581
(dp1582
g11
(imyEvolve
Tree
p1583
(dp1584
g7
I0
sg17
I00
sbsg7
I1
sg21
I01
sg22
g59
sbsg21
I00
sg22
g39
sbsg21
I00
sg22
g39
sbsg21
I00
sg22
g39
sba(imyEvolve
Tree
p1585
(dp1586
g8
(imyEvolve
Tree
p1587
(dp1588
g11
(imyEvolve
Tree
p1589
(dp1590
g7
I0
sg16
F-4.313384958442853
sg17
I01
sbsg7
I1
sg21
I01
sg22
g93
sbsg7
I2
sg18
(imyEvolve
Tree
p1591
(dp1592
g8
(imyEvolve
Tree
p1593
(dp1594
g7
I0
sg16
F2.748024528332609
sg17
I01
sbsg7
I1
sg18
(imyEvolve
Tree
p1595
(dp1596
g7
I0
sg17
I00
sbsg21
I00
sg22
g40
sbsg21
I00
sg22
g40
sba(imyEvolve
Tree
p1597
(dp1598
g11
(imyEvolve
Tree
p1599
(dp1600
g8
(imyEvolve
Tree
p1601
(dp1602
g8
(imyEvolve
Tree
p1603
(dp1604
g7
I0
sg17
I00
sbsg7
I1
sg18
(imyEvolve
Tree
p1605
(dp1606
g7
I0
sg17
I00
sbsg21
I00
sg22
g23
sbsg7
I2
sg18
(imyEvolve
Tree
p1607
(dp1608
g11
(imyEvolve
Tree
p1609
(dp1610
g7
I0
sg17
I00
sbsg7
I1
sg21
I01
sg22
g59
sbsg21
I00
sg22
g39
sbsg7
I3
sg21
I01
sg22
g93
sba(imyEvolve
Tree
p1611
(dp1612
g11
(imyEvolve
Tree
p1613
(dp1614
g11
(imyEvolve
Tree
p1615
(dp1616
g7
I0
sg16
F2.291281480866145
sg17
I01
sbsg7
I1
sg21
I01
sg22
g93
sbsg7
I2
sg21
I01
sg22
g59
sba(imyEvolve
Tree
p1617
(dp1618
g11
(imyEvolve
Tree
p1619
(dp1620
g11
(imyEvolve
Tree
p1621
(dp1622
g11
(imyEvolve
Tree
p1623
(dp1624
g7
I0
sg16
F-0.2566455936625287
sg17
I01
sbsg7
I1
sg21
I01
sg22
g76
sbsg7
I2
sg21
I01
sg22
g59
sbsg7
I3
sg21
I01
sg22
g59
sba(imyEvolve
Tree
p1625
(dp1626
g11
(imyEvolve
Tree
p1627
(dp1628
g7
I2
sg8
(imyEvolve
Tree
p1629
(dp1630
g7
I1
sg8
(imyEvolve
Tree
p1631
(dp1632
g7
I0
sg17
I00
sbsg18
(imyEvolve
Tree
p1633
(dp1634
g7
I0
sg16
F-0.43650554627249516
sg17
I01
sbsg21
I00
sg22
g39
sbsg18
(imyEvolve
Tree
p1635
(dp1636
g7
I1
sg8
(imyEvolve
Tree
p1637
(dp1638
g7
I0
sg17
I00
sbsg18
(imyEvolve
Tree
p1639
(dp1640
g7
I0
sg17
I00
sbsg21
I00
sg22
g39
sbsg21
I00
sg22
g23
sbsg7
I3
sg21
I01
sg22
g24
sba(imyEvolve
Tree
p1641
(dp1642
g11
(imyEvolve
Tree
p1643
(dp1644
g7
I1
sg8
(imyEvolve
Tree
p1645
(dp1646
g7
I0
sg17
I00
sbsg18
(imyEvolve
Tree
p1647
(dp1648
g7
I0
sg17
I00
sbsg21
I00
sg22
g39
sbsg7
I2
sg21
I01
sg22
g93
sba(imyEvolve
Tree
p1649
(dp1650
g7
I4
sg8
(imyEvolve
Tree
p1651
(dp1652
g11
(imyEvolve
Tree
p1653
(dp1654
g11
(imyEvolve
Tree
p1655
(dp1656
g7
I1
sg8
(imyEvolve
Tree
p1657
(dp1658
g7
I0
sg17
I00
sbsg18
(imyEvolve
Tree
p1659
(dp1660
g7
I0
sg17
I00
sbsg21
I00
sg22
g39
sbsg7
I2
sg21
I01
sg22
g24
sbsg7
I3
sg21
I01
sg22
g93
sbsg18
(imyEvolve
Tree
p1661
(dp1662
g11
(imyEvolve
Tree
p1663
(dp1664
g7
I2
sg8
(imyEvolve
Tree
p1665
(dp1666
g11
(imyEvolve
Tree
p1667
(dp1668
g7
I0
sg17
I00
sbsg7
I1
sg21
I01
sg22
g59
sbsg18
(imyEvolve
Tree
p1669
(dp1670
g7
I1
sg8
(imyEvolve
Tree
p1671
(dp1672
g7
I0
sg17
I00
sbsg18
(imyEvolve
Tree
p1673
(dp1674
g7
I0
sg16
F-4.614568144200984
sg17
I01
sbsg21
I00
sg22
g39
sbsg21
I00
sg22
g23
sbsg7
I3
sg21
I01
sg22
g93
sbsg21
I00
sg22
g23
sba(imyEvolve
Tree
p1675
(dp1676
g7
I3
sg8
(imyEvolve
Tree
p1677
(dp1678
g11
(imyEvolve
Tree
p1679
(dp1680
g7
I1
sg8
(imyEvolve
Tree
p1681
(dp1682
g7
I0
sg17
I00
sbsg18
(imyEvolve
Tree
p1683
(dp1684
g7
I0
sg16
F-4.081914164657335
sg17
I01
sbsg21
I00
sg22
g23
sbsg7
I2
sg21
I01
sg22
g93
sbsg18
(imyEvolve
Tree
p1685
(dp1686
g11
(imyEvolve
Tree
p1687
(dp1688
g11
(imyEvolve
Tree
p1689
(dp1690
g7
I0
sg16
F-4.681743068100834
sg17
I01
sbsg7
I1
sg21
I01
sg22
g76
sbsg7
I2
sg21
I01
sg22
g59
sbsg21
I00
sg22
g23
sba(imyEvolve
Tree
p1691
(dp1692
g11
(imyEvolve
Tree
p1693
(dp1694
g11
(imyEvolve
Tree
p1695
(dp1696
g11
(imyEvolve
Tree
p1697
(dp1698
g8
(imyEvolve
Tree
p1699
(dp1700
g7
I0
sg17
I00
sbsg7
I1
sg18
(imyEvolve
Tree
p1701
(dp1702
g7
I0
sg16
F-1.332505910564369
sg17
I01
sbsg21
I00
sg22
g40
sbsg7
I2
sg21
I01
sg22
g59
sbsg7
I3
sg21
I01
sg22
g24
sbsg7
I4
sg21
I01
sg22
g93
sba(imyEvolve
Tree
p1703
(dp1704
g8
(imyEvolve
Tree
p1705
(dp1706
g8
(imyEvolve
Tree
p1707
(dp1708
g11
(imyEvolve
Tree
p1709
(dp1710
g11
(imyEvolve
Tree
p1711
(dp1712
g11
(imyEvolve
Tree
p1713
(dp1714
g7
I0
sg16
F-1.2940471204908919
sg17
I01
sbsg7
I1
sg21
I01
sg22
g93
sbsg7
I2
sg21
I01
sg22
g93
sbsg7
I3
sg21
I01
sg22
g59
sbsg7
I4
sg18
(imyEvolve
Tree
p1715
(dp1716
g8
(imyEvolve
Tree
p1717
(dp1718
g8
(imyEvolve
Tree
p1719
(dp1720
g11
(imyEvolve
Tree
p1721
(dp1722
g7
I0
sg16
F0.8758270607402752
sg17
I01
sbsg7
I1
sg21
I01
sg22
g76
sbsg7
I2
sg18
(imyEvolve
Tree
p1723
(dp1724
g11
(imyEvolve
Tree
p1725
(dp1726
g7
I0
sg16
F3.72760214680579
sg17
I01
sbsg7
I1
sg21
I01
sg22
g24
sbsg21
I00
sg22
g39
sbsg7
I3
sg18
(imyEvolve
Tree
p1727
(dp1728
g8
(imyEvolve
Tree
p1729
(dp1730
g8
(imyEvolve
Tree
p1731
(dp1732
g7
I0
sg17
I00
sbsg7
I1
sg18
(imyEvolve
Tree
p1733
(dp1734
g7
I0
sg17
I00
sbsg21
I00
sg22
g23
sbsg7
I2
sg18
(imyEvolve
Tree
p1735
(dp1736
g8
(imyEvolve
Tree
p1737
(dp1738
g7
I0
sg17
I00
sbsg7
I1
sg18
(imyEvolve
Tree
p1739
(dp1740
g7
I0
sg17
I00
sbsg21
I00
sg22
g40
sbsg21
I00
sg22
g40
sbsg21
I00
sg22
g40
sbsg21
I00
sg22
g23
sbsg7
I5
sg18
(imyEvolve
Tree
p1741
(dp1742
g11
(imyEvolve
Tree
p1743
(dp1744
g11
(imyEvolve
Tree
p1745
(dp1746
g8
(imyEvolve
Tree
p1747
(dp1748
g11
(imyEvolve
Tree
p1749
(dp1750
g7
I0
sg17
I00
sbsg7
I1
sg21
I01
sg22
g76
sbsg7
I2
sg18
(imyEvolve
Tree
p1751
(dp1752
g8
(imyEvolve
Tree
p1753
(dp1754
g7
I0
sg17
I00
sbsg7
I1
sg18
(imyEvolve
Tree
p1755
(dp1756
g7
I0
sg16
F-4.829857477061563
sg17
I01
sbsg21
I00
sg22
g23
sbsg21
I00
sg22
g23
sbsg7
I3
sg21
I01
sg22
g24
sbsg7
I4
sg21
I01
sg22
g93
sbsg21
I00
sg22
g39
sba(imyEvolve
Tree
p1757
(dp1758
g11
(imyEvolve
Tree
p1759
(dp1760
g11
(imyEvolve
Tree
p1761
(dp1762
g11
(imyEvolve
Tree
p1763
(dp1764
g7
I0
sg16
F4.544438288900464
sg17
I01
sbsg7
I1
sg21
I01
sg22
g76
sbsg7
I2
sg21
I01
sg22
g59
sbsg7
I3
sg21
I01
sg22
g76
sbaa(lp1765
(imyEvolve
Tree
p1766
(dp1767
g7
I2
sg8
(imyEvolve
Tree
p1768
(dp1769
g7
I1
sg8
(imyEvolve
Tree
p1770
(dp1771
g7
I0
sg16
F-0.11169418792073849
sg17
I01
sbsg18
(imyEvolve
Tree
p1772
(dp1773
g7
I0
sg17
I00
sbsg21
I00
sg22
g40
sbsg18
(imyEvolve
Tree
p1774
(dp1775
g7
I1
sg8
(imyEvolve
Tree
p1776
(dp1777
g7
I0
sg17
I00
sbsg18
(imyEvolve
Tree
p1778
(dp1779
g7
I0
sg16
F1.180781606296108
sg17
I01
sbsg21
I00
sg22
g23
sbsg21
I00
sg22
g39
sba(imyEvolve
Tree
p1780
(dp1781
g7
I3
sg8
(imyEvolve
Tree
p1782
(dp1783
g7
I2
sg8
(imyEvolve
Tree
p1784
(dp1785
g11
(imyEvolve
Tree
p1786
(dp1787
g7
I0
sg17
I00
sbsg7
I1
sg21
I01
sg22
g93
sbsg18
(imyEvolve
Tree
p1788
(dp1789
g11
(imyEvolve
Tree
p1790
(dp1791
g7
I0
sg17
I00
sbsg7
I1
sg21
I01
sg22
g59
sbsg21
I00
sg22
g39
sbsg18
(imyEvolve
Tree
p1792
(dp1793
g11
(imyEvolve
Tree
p1794
(dp1795
g7
I1
sg8
(imyEvolve
Tree
p1796
(dp1797
g7
I0
sg17
I00
sbsg18
(imyEvolve
Tree
p1798
(dp1799
g7
I0
sg17
I00
sbsg21
I00
sg22
g23
sbsg7
I2
sg21
I01
sg22
g24
sbsg21
I00
sg22
g40
sba(imyEvolve
Tree
p1800
(dp1801
g8
(imyEvolve
Tree
p1802
(dp1803
g11
(imyEvolve
Tree
p1804
(dp1805
g11
(imyEvolve
Tree
p1806
(dp1807
g11
(imyEvolve
Tree
p1808
(dp1809
g11
(imyEvolve
Tree
p1810
(dp1811
g7
I0
sg16
F1.6064537190007497
sg17
I01
sbsg7
I1
sg21
I01
sg22
g93
sbsg7
I2
sg21
I01
sg22
g59
sbsg7
I3
sg21
I01
sg22
g93
sbsg7
I4
sg21
I01
sg22
g76
sbsg7
I5
sg18
(imyEvolve
Tree
p1812
(dp1813
g11
(imyEvolve
Tree
p1814
(dp1815
g8
(imyEvolve
Tree
p1816
(dp1817
g11
(imyEvolve
Tree
p1818
(dp1819
g11
(imyEvolve
Tree
p1820
(dp1821
g7
I0
sg16
F-0.4523132483933612
sg17
I01
sbsg7
I1
sg21
I01
sg22
g93
sbsg7
I2
sg21
I01
sg22
g93
sbsg7
I3
sg18
(imyEvolve
Tree
p1822
(dp1823
g11
(imyEvolve
Tree
p1824
(dp1825
g8
(imyEvolve
Tree
p1826
(dp1827
g7
I0
sg16
F3.917590243693928
sg17
I01
sbsg7
I1
sg18
(imyEvolve
Tree
p1828
(dp1829
g7
I0
sg16
F-2.6463471473152325
sg17
I01
sbsg21
I00
sg22
g40
sbsg7
I2
sg21
I01
sg22
g59
sbsg21
I00
sg22
g23
sbsg7
I4
sg21
I01
sg22
g93
sbsg21
I00
sg22
g39
sba(imyEvolve
Tree
p1830
(dp1831
g11
(imyEvolve
Tree
p1832
(dp1833
g11
(imyEvolve
Tree
p1834
(dp1835
g8
(imyEvolve
Tree
p1836
(dp1837
g8
(imyEvolve
Tree
p1838
(dp1839
g7
I0
sg16
F4.790517447131739
sg17
I01
sbsg7
I1
sg18
(imyEvolve
Tree
p1840
(dp1841
g7
I0
sg17
I00
sbsg21
I00
sg22
g23
sbsg7
I2
sg18
(imyEvolve
Tree
p1842
(dp1843
g11
(imyEvolve
Tree
p1844
(dp1845
g7
I0
sg17
I00
sbsg7
I1
sg21
I01
sg22
g24
sbsg21
I00
sg22
g40
sbsg7
I3
sg21
I01
sg22
g24
sbsg7
I4
sg21
I01
sg22
g59
sba(imyEvolve
Tree
p1846
(dp1847
g11
(imyEvolve
Tree
p1848
(dp1849
g11
(imyEvolve
Tree
p1850
(dp1851
g8
(imyEvolve
Tree
p1852
(dp1853
g7
I0
sg16
F-3.1681336061847887
sg17
I01
sbsg7
I1
sg18
(imyEvolve
Tree
p1854
(dp1855
g7
I0
sg16
F-0.1440430449900143
sg17
I01
sbsg21
I00
sg22
g23
sbsg7
I2
sg21
I01
sg22
g93
sbsg7
I3
sg21
I01
sg22
g59
sba(imyEvolve
Tree
p1856
(dp1857
g8
(imyEvolve
Tree
p1858
(dp1859
g8
(imyEvolve
Tree
p1860
(dp1861
g7
I0
sg16
F0.1284264709628129
sg17
I01
sbsg7
I1
sg18
(imyEvolve
Tree
p1862
(dp1863
g7
I0
sg17
I00
sbsg21
I00
sg22
g40
sbsg7
I2
sg18
(imyEvolve
Tree
p1864
(dp1865
g11
(imyEvolve
Tree
p1866
(dp1867
g7
I0
sg17
I00
sbsg7
I1
sg21
I01
sg22
g24
sbsg21
I00
sg22
g23
sba(imyEvolve
Tree
p1868
(dp1869
g11
(imyEvolve
Tree
p1870
(dp1871
g7
I3
sg8
(imyEvolve
Tree
p1872
(dp1873
g11
(imyEvolve
Tree
p1874
(dp1875
g11
(imyEvolve
Tree
p1876
(dp1877
g7
I0
sg16
F-0.6493671189936059
sg17
I01
sbsg7
I1
sg21
I01
sg22
g24
sbsg7
I2
sg21
I01
sg22
g76
sbsg18
(imyEvolve
Tree
p1878
(dp1879
g7
I2
sg8
(imyEvolve
Tree
p1880
(dp1881
g11
(imyEvolve
Tree
p1882
(dp1883
g7
I0
sg16
F-0.6616311000941577
sg17
I01
sbsg7
I1
sg21
I01
sg22
g59
sbsg18
(imyEvolve
Tree
p1884
(dp1885
g7
I1
sg8
(imyEvolve
Tree
p1886
(dp1887
g7
I0
sg16
F-3.405755333360929
sg17
I01
sbsg18
(imyEvolve
Tree
p1888
(dp1889
g7
I0
sg16
F-1.8180728896445073
sg17
I01
sbsg21
I00
sg22
g39
sbsg21
I00
sg22
g23
sbsg21
I00
sg22
g39
sbsg7
I4
sg21
I01
sg22
g76
sba(imyEvolve
Tree
p1890
(dp1891
g11
(imyEvolve
Tree
p1892
(dp1893
g11
(imyEvolve
Tree
p1894
(dp1895
g11
(imyEvolve
Tree
p1896
(dp1897
g8
(imyEvolve
Tree
p1898
(dp1899
g7
I0
sg17
I00
sbsg7
I1
sg18
(imyEvolve
Tree
p1900
(dp1901
g7
I0
sg17
I00
sbsg21
I00
sg22
g39
sbsg7
I2
sg21
I01
sg22
g24
sbsg7
I3
sg21
I01
sg22
g76
sbsg7
I4
sg21
I01
sg22
g93
sba(imyEvolve
Tree
p1902
(dp1903
g11
(imyEvolve
Tree
p1904
(dp1905
g7
I2
sg8
(imyEvolve
Tree
p1906
(dp1907
g7
I1
sg8
(imyEvolve
Tree
p1908
(dp1909
g7
I0
sg17
I00
sbsg18
(imyEvolve
Tree
p1910
(dp1911
g7
I0
sg16
F2.6085537610205964
sg17
I01
sbsg21
I00
sg22
g40
sbsg18
(imyEvolve
Tree
p1912
(dp1913
g7
I1
sg8
(imyEvolve
Tree
p1914
(dp1915
g7
I0
sg16
F-0.7435328266522081
sg17
I01
sbsg18
(imyEvolve
Tree
p1916
(dp1917
g7
I0
sg16
F0.02646546998456145
sg17
I01
sbsg21
I00
sg22
g40
sbsg21
I00
sg22
g40
sbsg7
I3
sg21
I01
sg22
g24
sba(imyEvolve
Tree
p1918
(dp1919
g7
I4
sg8
(imyEvolve
Tree
p1920
(dp1921
g11
(imyEvolve
Tree
p1922
(dp1923
g7
I2
sg8
(imyEvolve
Tree
p1924
(dp1925
g7
I1
sg8
(imyEvolve
Tree
p1926
(dp1927
g7
I0
sg16
F1.6594207462082045
sg17
I01
sbsg18
(imyEvolve
Tree
p1928
(dp1929
g7
I0
sg16
F-3.7541744278022717
sg17
I01
sbsg21
I00
sg22
g23
sbsg18
(imyEvolve
Tree
p1930
(dp1931
g11
(imyEvolve
Tree
p1932
(dp1933
g7
I0
sg16
F3.8006154002355395
sg17
I01
sbsg7
I1
sg21
I01
sg22
g24
sbsg21
I00
sg22
g40
sbsg7
I3
sg21
I01
sg22
g59
sbsg18
(imyEvolve
Tree
p1934
(dp1935
g11
(imyEvolve
Tree
p1936
(dp1937
g7
I2
sg8
(imyEvolve
Tree
p1938
(dp1939
g11
(imyEvolve
Tree
p1940
(dp1941
g7
I0
sg16
F0.9610624798061016
sg17
I01
sbsg7
I1
sg21
I01
sg22
g76
sbsg18
(imyEvolve
Tree
p1942
(dp1943
g11
(imyEvolve
Tree
p1944
(dp1945
g7
I0
sg16
F2.26252676208928
sg17
I01
sbsg7
I1
sg21
I01
sg22
g59
sbsg21
I00
sg22
g40
sbsg7
I3
sg21
I01
sg22
g24
sbsg21
I00
sg22
g23
sbaasS'alpha'
p1946
F0.006235283429227879
sS'fitness'
p1947
cnumpy.core.multiarray
scalar
p1948
(cnumpy
dtype
p1949
(S'f8'
p1950
I0
I1
tp1951
Rp1952
(I3
S'<'
p1953
NNNI-1
I-1
I0
tp1954
bS'\x00xq\x1b%\x1aE\xbf'
p1955
tp1956
Rp1957
sS'weightSharing'
p1958
(lp1959
I01
aI00
asS'fitnessValid'
p1960
I00
sS'resolution'
p1961
I84
sb.