(imyEvolve
Individual
p0
(dp1
S'funcs'
p2
(lp3
(lp4
(imyEvolve
Tree
p5
(dp6
S'below'
p7
(imyEvolve
Tree
p8
(dp9
S'depth'
p10
I1
sS'left'
p11
(imyEvolve
Tree
p12
(dp13
g10
I0
sS'constant'
p14
F-1.8126891276821122
sS'isConstant'
p15
I01
sbsS'right'
p16
(imyEvolve
Tree
p17
(dp18
g10
I0
sg14
F-2.9550098190012664
sg15
I01
sbsS'single'
p19
I00
sS'op'
p20
coperator
sub
p21
sbsg10
I2
sg19
I01
sg20
cmath
sin
p22
sba(imyEvolve
Tree
p23
(dp24
g7
(imyEvolve
Tree
p25
(dp26
g10
I3
sg11
(imyEvolve
Tree
p27
(dp28
g10
I2
sg11
(imyEvolve
Tree
p29
(dp30
g7
(imyEvolve
Tree
p31
(dp32
g10
I0
sg15
I00
sbsg10
I1
sg19
I01
sg20
cmyEvolve
square
p33
sbsg16
(imyEvolve
Tree
p34
(dp35
g10
I1
sg11
(imyEvolve
Tree
p36
(dp37
g10
I0
sg14
F-1.2923992304302723
sg15
I01
sbsg16
(imyEvolve
Tree
p38
(dp39
g10
I0
sg14
F-1.6761433927759093
sg15
I01
sbsg19
I00
sg20
g21
sbsg19
I00
sg20
coperator
add
p40
sbsg16
(imyEvolve
Tree
p41
(dp42
g10
I2
sg11
(imyEvolve
Tree
p43
(dp44
g7
(imyEvolve
Tree
p45
(dp46
g10
I0
sg14
F4.646795650474576
sg15
I01
sbsg10
I1
sg19
I01
sg20
cmath
cos
p47
sbsg16
(imyEvolve
Tree
p48
(dp49
g7
(imyEvolve
Tree
p50
(dp51
g10
I0
sg15
I00
sbsg10
I1
sg19
I01
sg20
g22
sbsg19
I00
sg20
g21
sbsg19
I00
sg20
coperator
mul
p52
sbsg10
I4
sg19
I01
sg20
g33
sba(imyEvolve
Tree
p53
(dp54
g10
I5
sg11
(imyEvolve
Tree
p55
(dp56
g10
I4
sg11
(imyEvolve
Tree
p57
(dp58
g10
I3
sg11
(imyEvolve
Tree
p59
(dp60
g10
I2
sg11
(imyEvolve
Tree
p61
(dp62
g7
(imyEvolve
Tree
p63
(dp64
g10
I0
sg15
I00
sbsg10
I1
sg19
I01
sg20
g47
sbsg16
(imyEvolve
Tree
p65
(dp66
g7
(imyEvolve
Tree
p67
(dp68
g10
I0
sg14
F-3.133748713446274
sg15
I01
sbsg10
I1
sg19
I01
sg20
cmyEvolve
absSqrt
p69
sbsg19
I00
sg20
g21
sbsg16
(imyEvolve
Tree
p70
(dp71
g10
I2
sg11
(imyEvolve
Tree
p72
(dp73
g10
I1
sg11
(imyEvolve
Tree
p74
(dp75
g10
I0
sg15
I00
sbsg16
(imyEvolve
Tree
p76
(dp77
g10
I0
sg15
I00
sbsg19
I00
sg20
g52
sbsg16
(imyEvolve
Tree
p78
(dp79
g10
I1
sg11
(imyEvolve
Tree
p80
(dp81
g10
I0
sg15
I00
sbsg16
(imyEvolve
Tree
p82
(dp83
g10
I0
sg15
I00
sbsg19
I00
sg20
g52
sbsg19
I00
sg20
g52
sbsg19
I00
sg20
g40
sbsg16
(imyEvolve
Tree
p84
(dp85
g7
(imyEvolve
Tree
p86
(dp87
g7
(imyEvolve
Tree
p88
(dp89
g7
(imyEvolve
Tree
p90
(dp91
g10
I0
sg14
F3.6318935722824808
sg15
I01
sbsg10
I1
sg19
I01
sg20
g69
sbsg10
I2
sg19
I01
sg20
g69
sbsg10
I3
sg19
I01
sg20
g33
sbsg19
I00
sg20
g21
sbsg16
(imyEvolve
Tree
p92
(dp93
g10
I4
sg11
(imyEvolve
Tree
p94
(dp95
g7
(imyEvolve
Tree
p96
(dp97
g10
I2
sg11
(imyEvolve
Tree
p98
(dp99
g7
(imyEvolve
Tree
p100
(dp101
g10
I0
sg14
F2.69798563218761
sg15
I01
sbsg10
I1
sg19
I01
sg20
g22
sbsg16
(imyEvolve
Tree
p102
(dp103
g7
(imyEvolve
Tree
p104
(dp105
g10
I0
sg14
F-2.929539501458306
sg15
I01
sbsg10
I1
sg19
I01
sg20
g22
sbsg19
I00
sg20
g40
sbsg10
I3
sg19
I01
sg20
g47
sbsg16
(imyEvolve
Tree
p106
(dp107
g7
(imyEvolve
Tree
p108
(dp109
g7
(imyEvolve
Tree
p110
(dp111
g7
(imyEvolve
Tree
p112
(dp113
g10
I0
sg15
I00
sbsg10
I1
sg19
I01
sg20
g33
sbsg10
I2
sg19
I01
sg20
g47
sbsg10
I3
sg19
I01
sg20
g33
sbsg19
I00
sg20
g40
sbsg19
I00
sg20
g52
sba(imyEvolve
Tree
p114
(dp115
g10
I4
sg11
(imyEvolve
Tree
p116
(dp117
g7
(imyEvolve
Tree
p118
(dp119
g7
(imyEvolve
Tree
p120
(dp121
g10
I1
sg11
(imyEvolve
Tree
p122
(dp123
g10
I0
sg15
I00
sbsg16
(imyEvolve
Tree
p124
(dp125
g10
I0
sg14
F-1.2576642489305803
sg15
I01
sbsg19
I00
sg20
g21
sbsg10
I2
sg19
I01
sg20
g22
sbsg10
I3
sg19
I01
sg20
g69
sbsg16
(imyEvolve
Tree
p126
(dp127
g10
I3
sg11
(imyEvolve
Tree
p128
(dp129
g10
I2
sg11
(imyEvolve
Tree
p130
(dp131
g10
I1
sg11
(imyEvolve
Tree
p132
(dp133
g10
I0
sg14
F0.9954448324519909
sg15
I01
sbsg16
(imyEvolve
Tree
p134
(dp135
g10
I0
sg15
I00
sbsg19
I00
sg20
g21
sbsg16
(imyEvolve
Tree
p136
(dp137
g7
(imyEvolve
Tree
p138
(dp139
g10
I0
sg14
F4.75755062769376
sg15
I01
sbsg10
I1
sg19
I01
sg20
g22
sbsg19
I00
sg20
g52
sbsg16
(imyEvolve
Tree
p140
(dp141
g10
I2
sg11
(imyEvolve
Tree
p142
(dp143
g10
I1
sg11
(imyEvolve
Tree
p144
(dp145
g10
I0
sg15
I00
sbsg16
(imyEvolve
Tree
p146
(dp147
g10
I0
sg15
I00
sbsg19
I00
sg20
g21
sbsg16
(imyEvolve
Tree
p148
(dp149
g7
(imyEvolve
Tree
p150
(dp151
g10
I0
sg14
F-3.8956759351933257
sg15
I01
sbsg10
I1
sg19
I01
sg20
g22
sbsg19
I00
sg20
g40
sbsg19
I00
sg20
g21
sbsg19
I00
sg20
g21
sba(imyEvolve
Tree
p152
(dp153
g7
(imyEvolve
Tree
p154
(dp155
g7
(imyEvolve
Tree
p156
(dp157
g7
(imyEvolve
Tree
p158
(dp159
g7
(imyEvolve
Tree
p160
(dp161
g10
I1
sg11
(imyEvolve
Tree
p162
(dp163
g10
I0
sg15
I00
sbsg16
(imyEvolve
Tree
p164
(dp165
g10
I0
sg15
I00
sbsg19
I00
sg20
g21
sbsg10
I2
sg19
I01
sg20
g69
sbsg10
I3
sg19
I01
sg20
g47
sbsg10
I4
sg19
I01
sg20
g33
sbsg10
I5
sg19
I01
sg20
g33
sba(imyEvolve
Tree
p166
(dp167
g10
I2
sg11
(imyEvolve
Tree
p168
(dp169
g7
(imyEvolve
Tree
p170
(dp171
g10
I0
sg14
F2.657731452731994
sg15
I01
sbsg10
I1
sg19
I01
sg20
g33
sbsg16
(imyEvolve
Tree
p172
(dp173
g10
I1
sg11
(imyEvolve
Tree
p174
(dp175
g10
I0
sg15
I00
sbsg16
(imyEvolve
Tree
p176
(dp177
g10
I0
sg14
F-1.4690605582741112
sg15
I01
sbsg19
I00
sg20
g40
sbsg19
I00
sg20
g40
sba(imyEvolve
Tree
p178
(dp179
g10
I3
sg11
(imyEvolve
Tree
p180
(dp181
g7
(imyEvolve
Tree
p182
(dp183
g7
(imyEvolve
Tree
p184
(dp185
g10
I0
sg14
F3.7751496409090084
sg15
I01
sbsg10
I1
sg19
I01
sg20
g47
sbsg10
I2
sg19
I01
sg20
g33
sbsg16
(imyEvolve
Tree
p186
(dp187
g10
I2
sg11
(imyEvolve
Tree
p188
(dp189
g7
(imyEvolve
Tree
p190
(dp191
g10
I0
sg14
F-0.17442519516194377
sg15
I01
sbsg10
I1
sg19
I01
sg20
g47
sbsg16
(imyEvolve
Tree
p192
(dp193
g10
I1
sg11
(imyEvolve
Tree
p194
(dp195
g10
I0
sg14
F-2.3442140327519843
sg15
I01
sbsg16
(imyEvolve
Tree
p196
(dp197
g10
I0
sg15
I00
sbsg19
I00
sg20
g21
sbsg19
I00
sg20
g21
sbsg19
I00
sg20
g52
sba(imyEvolve
Tree
p198
(dp199
g7
(imyEvolve
Tree
p200
(dp201
g7
(imyEvolve
Tree
p202
(dp203
g10
I0
sg15
I00
sbsg10
I1
sg19
I01
sg20
g47
sbsg10
I2
sg19
I01
sg20
g69
sba(imyEvolve
Tree
p204
(dp205
g10
I3
sg11
(imyEvolve
Tree
p206
(dp207
g10
I2
sg11
(imyEvolve
Tree
p208
(dp209
g10
I1
sg11
(imyEvolve
Tree
p210
(dp211
g10
I0
sg15
I00
sbsg16
(imyEvolve
Tree
p212
(dp213
g10
I0
sg14
F0.4078194981407144
sg15
I01
sbsg19
I00
sg20
g40
sbsg16
(imyEvolve
Tree
p214
(dp215
g10
I1
sg11
(imyEvolve
Tree
p216
(dp217
g10
I0
sg15
I00
sbsg16
(imyEvolve
Tree
p218
(dp219
g10
I0
sg15
I00
sbsg19
I00
sg20
g52
sbsg19
I00
sg20
g52
sbsg16
(imyEvolve
Tree
p220
(dp221
g10
I2
sg11
(imyEvolve
Tree
p222
(dp223
g10
I1
sg11
(imyEvolve
Tree
p224
(dp225
g10
I0
sg14
F3.18869389782647
sg15
I01
sbsg16
(imyEvolve
Tree
p226
(dp227
g10
I0
sg15
I00
sbsg19
I00
sg20
g21
sbsg16
(imyEvolve
Tree
p228
(dp229
g7
(imyEvolve
Tree
p230
(dp231
g10
I0
sg14
F4.680749289061261
sg15
I01
sbsg10
I1
sg19
I01
sg20
g33
sbsg19
I00
sg20
g52
sbsg19
I00
sg20
g21
sba(imyEvolve
Tree
p232
(dp233
g7
(imyEvolve
Tree
p234
(dp235
g10
I4
sg11
(imyEvolve
Tree
p236
(dp237
g10
I3
sg11
(imyEvolve
Tree
p238
(dp239
g7
(imyEvolve
Tree
p240
(dp241
g10
I1
sg11
(imyEvolve
Tree
p242
(dp243
g10
I0
sg15
I00
sbsg16
(imyEvolve
Tree
p244
(dp245
g10
I0
sg15
I00
sbsg19
I00
sg20
g52
sbsg10
I2
sg19
I01
sg20
g47
sbsg16
(imyEvolve
Tree
p246
(dp247
g7
(imyEvolve
Tree
p248
(dp249
g7
(imyEvolve
Tree
p250
(dp251
g10
I0
sg15
I00
sbsg10
I1
sg19
I01
sg20
g22
sbsg10
I2
sg19
I01
sg20
g69
sbsg19
I00
sg20
g21
sbsg16
(imyEvolve
Tree
p252
(dp253
g10
I3
sg11
(imyEvolve
Tree
p254
(dp255
g7
(imyEvolve
Tree
p256
(dp257
g7
(imyEvolve
Tree
p258
(dp259
g10
I0
sg15
I00
sbsg10
I1
sg19
I01
sg20
g33
sbsg10
I2
sg19
I01
sg20
g69
sbsg16
(imyEvolve
Tree
p260
(dp261
g10
I2
sg11
(imyEvolve
Tree
p262
(dp263
g7
(imyEvolve
Tree
p264
(dp265
g10
I0
sg15
I00
sbsg10
I1
sg19
I01
sg20
g33
sbsg16
(imyEvolve
Tree
p266
(dp267
g7
(imyEvolve
Tree
p268
(dp269
g10
I0
sg15
I00
sbsg10
I1
sg19
I01
sg20
g22
sbsg19
I00
sg20
g21
sbsg19
I00
sg20
g52
sbsg19
I00
sg20
g52
sbsg10
I5
sg19
I01
sg20
g22
sba(imyEvolve
Tree
p270
(dp271
g7
(imyEvolve
Tree
p272
(dp273
g7
(imyEvolve
Tree
p274
(dp275
g10
I1
sg11
(imyEvolve
Tree
p276
(dp277
g10
I0
sg15
I00
sbsg16
(imyEvolve
Tree
p278
(dp279
g10
I0
sg14
F-3.121149224535861
sg15
I01
sbsg19
I00
sg20
g21
sbsg10
I2
sg19
I01
sg20
g22
sbsg10
I3
sg19
I01
sg20
g22
sba(imyEvolve
Tree
p280
(dp281
g7
(imyEvolve
Tree
p282
(dp283
g10
I1
sg11
(imyEvolve
Tree
p284
(dp285
g10
I0
sg15
I00
sbsg16
(imyEvolve
Tree
p286
(dp287
g10
I0
sg14
F-3.5592123214716564
sg15
I01
sbsg19
I00
sg20
g52
sbsg10
I2
sg19
I01
sg20
g69
sba(imyEvolve
Tree
p288
(dp289
g10
I5
sg11
(imyEvolve
Tree
p290
(dp291
g7
(imyEvolve
Tree
p292
(dp293
g10
I3
sg11
(imyEvolve
Tree
p294
(dp295
g7
(imyEvolve
Tree
p296
(dp297
g7
(imyEvolve
Tree
p298
(dp299
g10
I0
sg14
F0.2972079658967184
sg15
I01
sbsg10
I1
sg19
I01
sg20
g33
sbsg10
I2
sg19
I01
sg20
g33
sbsg16
(imyEvolve
Tree
p300
(dp301
g7
(imyEvolve
Tree
p302
(dp303
g7
(imyEvolve
Tree
p304
(dp305
g10
I0
sg14
F0.2544748758950268
sg15
I01
sbsg10
I1
sg19
I01
sg20
g22
sbsg10
I2
sg19
I01
sg20
g33
sbsg19
I00
sg20
g52
sbsg10
I4
sg19
I01
sg20
g33
sbsg16
(imyEvolve
Tree
p306
(dp307
g10
I4
sg11
(imyEvolve
Tree
p308
(dp309
g7
(imyEvolve
Tree
p310
(dp311
g10
I2
sg11
(imyEvolve
Tree
p312
(dp313
g10
I1
sg11
(imyEvolve
Tree
p314
(dp315
g10
I0
sg15
I00
sbsg16
(imyEvolve
Tree
p316
(dp317
g10
I0
sg14
F-0.9225032415727208
sg15
I01
sbsg19
I00
sg20
g21
sbsg16
(imyEvolve
Tree
p318
(dp319
g10
I1
sg11
(imyEvolve
Tree
p320
(dp321
g10
I0
sg14
F-4.612988945085479
sg15
I01
sbsg16
(imyEvolve
Tree
p322
(dp323
g10
I0
sg14
F-0.5729236569318399
sg15
I01
sbsg19
I00
sg20
g21
sbsg19
I00
sg20
g40
sbsg10
I3
sg19
I01
sg20
g47
sbsg16
(imyEvolve
Tree
p324
(dp325
g7
(imyEvolve
Tree
p326
(dp327
g10
I2
sg11
(imyEvolve
Tree
p328
(dp329
g7
(imyEvolve
Tree
p330
(dp331
g10
I0
sg15
I00
sbsg10
I1
sg19
I01
sg20
g47
sbsg16
(imyEvolve
Tree
p332
(dp333
g10
I1
sg11
(imyEvolve
Tree
p334
(dp335
g10
I0
sg14
F3.0568739193734302
sg15
I01
sbsg16
(imyEvolve
Tree
p336
(dp337
g10
I0
sg14
F3.033260670540969
sg15
I01
sbsg19
I00
sg20
g21
sbsg19
I00
sg20
g52
sbsg10
I3
sg19
I01
sg20
g33
sbsg19
I00
sg20
g52
sbsg19
I00
sg20
g40
sba(imyEvolve
Tree
p338
(dp339
g10
I3
sg11
(imyEvolve
Tree
p340
(dp341
g10
I2
sg11
(imyEvolve
Tree
p342
(dp343
g10
I1
sg11
(imyEvolve
Tree
p344
(dp345
g10
I0
sg14
F3.789255547026819
sg15
I01
sbsg16
(imyEvolve
Tree
p346
(dp347
g10
I0
sg15
I00
sbsg19
I00
sg20
g40
sbsg16
(imyEvolve
Tree
p348
(dp349
g10
I1
sg11
(imyEvolve
Tree
p350
(dp351
g10
I0
sg15
I00
sbsg16
(imyEvolve
Tree
p352
(dp353
g10
I0
sg14
F-2.145906638118481
sg15
I01
sbsg19
I00
sg20
g40
sbsg19
I00
sg20
g21
sbsg16
(imyEvolve
Tree
p354
(dp355
g10
I2
sg11
(imyEvolve
Tree
p356
(dp357
g7
(imyEvolve
Tree
p358
(dp359
g10
I0
sg14
F-4.03732095436133
sg15
I01
sbsg10
I1
sg19
I01
sg20
g22
sbsg16
(imyEvolve
Tree
p360
(dp361
g10
I1
sg11
(imyEvolve
Tree
p362
(dp363
g10
I0
sg14
F-3.9780992613625656
sg15
I01
sbsg16
(imyEvolve
Tree
p364
(dp365
g10
I0
sg15
I00
sbsg19
I00
sg20
g40
sbsg19
I00
sg20
g40
sbsg19
I00
sg20
g21
sba(imyEvolve
Tree
p366
(dp367
g7
(imyEvolve
Tree
p368
(dp369
g10
I3
sg11
(imyEvolve
Tree
p370
(dp371
g10
I2
sg11
(imyEvolve
Tree
p372
(dp373
g7
(imyEvolve
Tree
p374
(dp375
g10
I0
sg15
I00
sbsg10
I1
sg19
I01
sg20
g69
sbsg16
(imyEvolve
Tree
p376
(dp377
g7
(imyEvolve
Tree
p378
(dp379
g10
I0
sg14
F-2.676774927604084
sg15
I01
sbsg10
I1
sg19
I01
sg20
g22
sbsg19
I00
sg20
g40
sbsg16
(imyEvolve
Tree
p380
(dp381
g7
(imyEvolve
Tree
p382
(dp383
g10
I1
sg11
(imyEvolve
Tree
p384
(dp385
g10
I0
sg14
F-0.68942546631855
sg15
I01
sbsg16
(imyEvolve
Tree
p386
(dp387
g10
I0
sg15
I00
sbsg19
I00
sg20
g40
sbsg10
I2
sg19
I01
sg20
g33
sbsg19
I00
sg20
g21
sbsg10
I4
sg19
I01
sg20
g33
sba(imyEvolve
Tree
p388
(dp389
g7
(imyEvolve
Tree
p390
(dp391
g10
I2
sg11
(imyEvolve
Tree
p392
(dp393
g7
(imyEvolve
Tree
p394
(dp395
g10
I0
sg14
F-4.841454198173628
sg15
I01
sbsg10
I1
sg19
I01
sg20
g33
sbsg16
(imyEvolve
Tree
p396
(dp397
g7
(imyEvolve
Tree
p398
(dp399
g10
I0
sg14
F-4.105441251858898
sg15
I01
sbsg10
I1
sg19
I01
sg20
g22
sbsg19
I00
sg20
g40
sbsg10
I3
sg19
I01
sg20
g47
sbaasS'weightSharing'
p400
(lp401
I00
aI00
asS'fitnessValid'
p402
I00
sS'fitness'
p403
cnumpy.core.multiarray
scalar
p404
(cnumpy
dtype
p405
(S'f8'
p406
I0
I1
tp407
Rp408
(I3
S'<'
p409
NNNI-1
I-1
I0
tp410
bS'\xc6\xdc\xb5\xce\xc0\x1d\xe6?'
p411
tp412
Rp413
sS'alpha'
p414
F0.0011272141561343607
sS'resolution'
p415
I51
sb.