(imyEvolve
Individual
p0
(dp1
S'funcs'
p2
(lp3
(lp4
(imyEvolve
Tree
p5
(dp6
S'depth'
p7
I4
sS'left'
p8
(imyEvolve
Tree
p9
(dp10
g7
I3
sg8
(imyEvolve
Tree
p11
(dp12
S'below'
p13
(imyEvolve
Tree
p14
(dp15
g7
I1
sg8
(imyEvolve
Tree
p16
(dp17
g7
I0
sS'isConstant'
p18
I00
sbsS'right'
p19
(imyEvolve
Tree
p20
(dp21
g7
I0
sS'constant'
p22
F-1.5534824201416586
sg18
I01
sbsS'single'
p23
I00
sS'op'
p24
coperator
mul
p25
sbsg7
I2
sg23
I01
sg24
cmath
cos
p26
sbsg19
(imyEvolve
Tree
p27
(dp28
g13
(imyEvolve
Tree
p29
(dp30
g13
(imyEvolve
Tree
p31
(dp32
g7
I0
sg18
I00
sbsg7
I1
sg23
I01
sg24
cmyEvolve
absSqrt
p33
sbsg7
I2
sg23
I01
sg24
cmath
sin
p34
sbsg23
I00
sg24
g25
sbsg19
(imyEvolve
Tree
p35
(dp36
g13
(imyEvolve
Tree
p37
(dp38
g7
I2
sg8
(imyEvolve
Tree
p39
(dp40
g7
I1
sg8
(imyEvolve
Tree
p41
(dp42
g7
I0
sg18
I00
sbsg19
(imyEvolve
Tree
p43
(dp44
g7
I0
sg22
F3.6342966321814334
sg18
I01
sbsg23
I00
sg24
g25
sbsg19
(imyEvolve
Tree
p45
(dp46
g13
(imyEvolve
Tree
p47
(dp48
g7
I0
sg22
F3.3516816281117023
sg18
I01
sbsg7
I1
sg23
I01
sg24
g34
sbsg23
I00
sg24
coperator
add
p49
sbsg7
I3
sg23
I01
sg24
g26
sbsg23
I00
sg24
g25
sba(imyEvolve
Tree
p50
(dp51
g13
(imyEvolve
Tree
p52
(dp53
g8
(imyEvolve
Tree
p54
(dp55
g13
(imyEvolve
Tree
p56
(dp57
g8
(imyEvolve
Tree
p58
(dp59
g7
I0
sg18
I00
sbsg7
I1
sg19
(imyEvolve
Tree
p60
(dp61
g7
I0
sg22
F-2.9381924687223426
sg18
I01
sbsg23
I00
sg24
g49
sbsg7
I2
sg23
I01
sg24
g33
sbsg7
I3
sg19
(imyEvolve
Tree
p62
(dp63
g8
(imyEvolve
Tree
p64
(dp65
g8
(imyEvolve
Tree
p66
(dp67
g7
I0
sg18
I00
sbsg7
I1
sg19
(imyEvolve
Tree
p68
(dp69
g7
I0
sg22
F-3.2630981291832994
sg18
I01
sbsg23
I00
sg24
g25
sbsg7
I2
sg19
(imyEvolve
Tree
p70
(dp71
g13
(imyEvolve
Tree
p72
(dp73
g7
I0
sg22
F4.503871533589578
sg18
I01
sbsg7
I1
sg23
I01
sg24
g33
sbsg23
I00
sg24
g25
sbsg23
I00
sg24
coperator
sub
p74
sbsg7
I4
sg23
I01
sg24
g34
sba(imyEvolve
Tree
p75
(dp76
g13
(imyEvolve
Tree
p77
(dp78
g7
I4
sg8
(imyEvolve
Tree
p79
(dp80
g7
I3
sg8
(imyEvolve
Tree
p81
(dp82
g7
I2
sg8
(imyEvolve
Tree
p83
(dp84
g13
(imyEvolve
Tree
p85
(dp86
g7
I0
sg22
F1.839930735241735
sg18
I01
sbsg7
I1
sg23
I01
sg24
g26
sbsg19
(imyEvolve
Tree
p87
(dp88
g7
I1
sg8
(imyEvolve
Tree
p89
(dp90
g7
I0
sg18
I00
sbsg19
(imyEvolve
Tree
p91
(dp92
g7
I0
sg22
F-1.429796217076147
sg18
I01
sbsg23
I00
sg24
g49
sbsg23
I00
sg24
g25
sbsg19
(imyEvolve
Tree
p93
(dp94
g7
I2
sg8
(imyEvolve
Tree
p95
(dp96
g7
I1
sg8
(imyEvolve
Tree
p97
(dp98
g7
I0
sg18
I00
sbsg19
(imyEvolve
Tree
p99
(dp100
g7
I0
sg18
I00
sbsg23
I00
sg24
g49
sbsg19
(imyEvolve
Tree
p101
(dp102
g13
(imyEvolve
Tree
p103
(dp104
g7
I0
sg22
F-4.269600474438637
sg18
I01
sbsg7
I1
sg23
I01
sg24
g33
sbsg23
I00
sg24
g25
sbsg23
I00
sg24
g25
sbsg19
(imyEvolve
Tree
p105
(dp106
g13
(imyEvolve
Tree
p107
(dp108
g13
(imyEvolve
Tree
p109
(dp110
g7
I1
sg8
(imyEvolve
Tree
p111
(dp112
g7
I0
sg18
I00
sbsg19
(imyEvolve
Tree
p113
(dp114
g7
I0
sg18
I00
sbsg23
I00
sg24
g25
sbsg7
I2
sg23
I01
sg24
g34
sbsg7
I3
sg23
I01
sg24
g33
sbsg23
I00
sg24
g25
sbsg7
I5
sg23
I01
sg24
g33
sba(imyEvolve
Tree
p115
(dp116
g8
(imyEvolve
Tree
p117
(dp118
g8
(imyEvolve
Tree
p119
(dp120
g7
I0
sg18
I00
sbsg7
I1
sg19
(imyEvolve
Tree
p121
(dp122
g7
I0
sg22
F-2.2925754211799045
sg18
I01
sbsg23
I00
sg24
g49
sbsg7
I2
sg19
(imyEvolve
Tree
p123
(dp124
g8
(imyEvolve
Tree
p125
(dp126
g7
I0
sg22
F-1.7579629441638875
sg18
I01
sbsg7
I1
sg19
(imyEvolve
Tree
p127
(dp128
g7
I0
sg18
I00
sbsg23
I00
sg24
g49
sbsg23
I00
sg24
g49
sba(imyEvolve
Tree
p129
(dp130
g13
(imyEvolve
Tree
p131
(dp132
g7
I2
sg8
(imyEvolve
Tree
p133
(dp134
g7
I1
sg8
(imyEvolve
Tree
p135
(dp136
g7
I0
sg22
F2.25275313414783
sg18
I01
sbsg19
(imyEvolve
Tree
p137
(dp138
g7
I0
sg22
F2.841314447910369
sg18
I01
sbsg23
I00
sg24
g49
sbsg19
(imyEvolve
Tree
p139
(dp140
g7
I1
sg8
(imyEvolve
Tree
p141
(dp142
g7
I0
sg22
F0.01422400146347691
sg18
I01
sbsg19
(imyEvolve
Tree
p143
(dp144
g7
I0
sg18
I00
sbsg23
I00
sg24
g25
sbsg23
I00
sg24
g25
sbsg7
I3
sg23
I01
sg24
g34
sba(imyEvolve
Tree
p145
(dp146
g13
(imyEvolve
Tree
p147
(dp148
g13
(imyEvolve
Tree
p149
(dp150
g7
I0
sg22
F4.544766547083903
sg18
I01
sbsg7
I1
sg23
I01
sg24
g34
sbsg7
I2
sg23
I01
sg24
g26
sba(imyEvolve
Tree
p151
(dp152
g13
(imyEvolve
Tree
p153
(dp154
g13
(imyEvolve
Tree
p155
(dp156
g8
(imyEvolve
Tree
p157
(dp158
g7
I0
sg22
F1.6894824959443557
sg18
I01
sbsg7
I1
sg19
(imyEvolve
Tree
p159
(dp160
g7
I0
sg22
F2.0096878301352747
sg18
I01
sbsg23
I00
sg24
g74
sbsg7
I2
sg23
I01
sg24
g26
sbsg7
I3
sg23
I01
sg24
cmyEvolve
square
p161
sba(imyEvolve
Tree
p162
(dp163
g13
(imyEvolve
Tree
p164
(dp165
g8
(imyEvolve
Tree
p166
(dp167
g13
(imyEvolve
Tree
p168
(dp169
g7
I0
sg22
F-0.7528714044979843
sg18
I01
sbsg7
I1
sg23
I01
sg24
g161
sbsg7
I2
sg19
(imyEvolve
Tree
p170
(dp171
g13
(imyEvolve
Tree
p172
(dp173
g7
I0
sg18
I00
sbsg7
I1
sg23
I01
sg24
g34
sbsg23
I00
sg24
g25
sbsg7
I3
sg23
I01
sg24
g34
sba(imyEvolve
Tree
p174
(dp175
g7
I2
sg8
(imyEvolve
Tree
p176
(dp177
g7
I1
sg8
(imyEvolve
Tree
p178
(dp179
g7
I0
sg22
F-0.3970526252069515
sg18
I01
sbsg19
(imyEvolve
Tree
p180
(dp181
g7
I0
sg18
I00
sbsg23
I00
sg24
g74
sbsg19
(imyEvolve
Tree
p182
(dp183
g13
(imyEvolve
Tree
p184
(dp185
g7
I0
sg22
F-4.643067093156093
sg18
I01
sbsg7
I1
sg23
I01
sg24
g33
sbsg23
I00
sg24
g25
sba(imyEvolve
Tree
p186
(dp187
g8
(imyEvolve
Tree
p188
(dp189
g13
(imyEvolve
Tree
p190
(dp191
g13
(imyEvolve
Tree
p192
(dp193
g13
(imyEvolve
Tree
p194
(dp195
g7
I0
sg18
I00
sbsg7
I1
sg23
I01
sg24
g34
sbsg7
I2
sg23
I01
sg24
g161
sbsg7
I3
sg23
I01
sg24
g33
sbsg7
I4
sg19
(imyEvolve
Tree
p196
(dp197
g8
(imyEvolve
Tree
p198
(dp199
g8
(imyEvolve
Tree
p200
(dp201
g13
(imyEvolve
Tree
p202
(dp203
g7
I0
sg22
F3.6844631502579848
sg18
I01
sbsg7
I1
sg23
I01
sg24
g161
sbsg7
I2
sg19
(imyEvolve
Tree
p204
(dp205
g13
(imyEvolve
Tree
p206
(dp207
g7
I0
sg22
F4.8521322551180575
sg18
I01
sbsg7
I1
sg23
I01
sg24
g33
sbsg23
I00
sg24
g74
sbsg7
I3
sg19
(imyEvolve
Tree
p208
(dp209
g8
(imyEvolve
Tree
p210
(dp211
g8
(imyEvolve
Tree
p212
(dp213
g7
I0
sg22
F-2.0116702489788016
sg18
I01
sbsg7
I1
sg19
(imyEvolve
Tree
p214
(dp215
g7
I0
sg18
I00
sbsg23
I00
sg24
g25
sbsg7
I2
sg19
(imyEvolve
Tree
p216
(dp217
g13
(imyEvolve
Tree
p218
(dp219
g7
I0
sg22
F3.43754186926064
sg18
I01
sbsg7
I1
sg23
I01
sg24
g26
sbsg23
I00
sg24
g25
sbsg23
I00
sg24
g25
sbsg23
I00
sg24
g25
sba(imyEvolve
Tree
p220
(dp221
g8
(imyEvolve
Tree
p222
(dp223
g13
(imyEvolve
Tree
p224
(dp225
g13
(imyEvolve
Tree
p226
(dp227
g7
I0
sg22
F-3.0543762612069503
sg18
I01
sbsg7
I1
sg23
I01
sg24
g26
sbsg7
I2
sg23
I01
sg24
g33
sbsg7
I3
sg19
(imyEvolve
Tree
p228
(dp229
g13
(imyEvolve
Tree
p230
(dp231
g8
(imyEvolve
Tree
p232
(dp233
g7
I0
sg22
F4.1174977866222005
sg18
I01
sbsg7
I1
sg19
(imyEvolve
Tree
p234
(dp235
g7
I0
sg18
I00
sbsg23
I00
sg24
g74
sbsg7
I2
sg23
I01
sg24
g26
sbsg23
I00
sg24
g74
sba(imyEvolve
Tree
p236
(dp237
g13
(imyEvolve
Tree
p238
(dp239
g13
(imyEvolve
Tree
p240
(dp241
g7
I0
sg18
I00
sbsg7
I1
sg23
I01
sg24
g34
sbsg7
I2
sg23
I01
sg24
g33
sba(imyEvolve
Tree
p242
(dp243
g13
(imyEvolve
Tree
p244
(dp245
g8
(imyEvolve
Tree
p246
(dp247
g13
(imyEvolve
Tree
p248
(dp249
g8
(imyEvolve
Tree
p250
(dp251
g7
I0
sg18
I00
sbsg7
I1
sg19
(imyEvolve
Tree
p252
(dp253
g7
I0
sg22
F-0.5314247984387972
sg18
I01
sbsg23
I00
sg24
g49
sbsg7
I2
sg23
I01
sg24
g161
sbsg7
I3
sg19
(imyEvolve
Tree
p254
(dp255
g8
(imyEvolve
Tree
p256
(dp257
g13
(imyEvolve
Tree
p258
(dp259
g7
I0
sg18
I00
sbsg7
I1
sg23
I01
sg24
g161
sbsg7
I2
sg19
(imyEvolve
Tree
p260
(dp261
g8
(imyEvolve
Tree
p262
(dp263
g7
I0
sg18
I00
sbsg7
I1
sg19
(imyEvolve
Tree
p264
(dp265
g7
I0
sg22
F0.5559625963953287
sg18
I01
sbsg23
I00
sg24
g74
sbsg23
I00
sg24
g74
sbsg23
I00
sg24
g74
sbsg7
I4
sg23
I01
sg24
g33
sba(imyEvolve
Tree
p266
(dp267
g13
(imyEvolve
Tree
p268
(dp269
g8
(imyEvolve
Tree
p270
(dp271
g8
(imyEvolve
Tree
p272
(dp273
g8
(imyEvolve
Tree
p274
(dp275
g13
(imyEvolve
Tree
p276
(dp277
g7
I0
sg18
I00
sbsg7
I1
sg23
I01
sg24
g33
sbsg7
I2
sg19
(imyEvolve
Tree
p278
(dp279
g8
(imyEvolve
Tree
p280
(dp281
g7
I0
sg22
F-1.1901953220798367
sg18
I01
sbsg7
I1
sg19
(imyEvolve
Tree
p282
(dp283
g7
I0
sg22
F1.027404319484849
sg18
I01
sbsg23
I00
sg24
g25
sbsg23
I00
sg24
g74
sbsg7
I3
sg19
(imyEvolve
Tree
p284
(dp285
g13
(imyEvolve
Tree
p286
(dp287
g8
(imyEvolve
Tree
p288
(dp289
g7
I0
sg18
I00
sbsg7
I1
sg19
(imyEvolve
Tree
p290
(dp291
g7
I0
sg18
I00
sbsg23
I00
sg24
g49
sbsg7
I2
sg23
I01
sg24
g161
sbsg23
I00
sg24
g49
sbsg7
I4
sg19
(imyEvolve
Tree
p292
(dp293
g8
(imyEvolve
Tree
p294
(dp295
g13
(imyEvolve
Tree
p296
(dp297
g8
(imyEvolve
Tree
p298
(dp299
g7
I0
sg18
I00
sbsg7
I1
sg19
(imyEvolve
Tree
p300
(dp301
g7
I0
sg18
I00
sbsg23
I00
sg24
g25
sbsg7
I2
sg23
I01
sg24
g34
sbsg7
I3
sg19
(imyEvolve
Tree
p302
(dp303
g13
(imyEvolve
Tree
p304
(dp305
g8
(imyEvolve
Tree
p306
(dp307
g7
I0
sg22
F2.601119799462481
sg18
I01
sbsg7
I1
sg19
(imyEvolve
Tree
p308
(dp309
g7
I0
sg22
F-2.100405307628667
sg18
I01
sbsg23
I00
sg24
g25
sbsg7
I2
sg23
I01
sg24
g26
sbsg23
I00
sg24
g74
sbsg23
I00
sg24
g74
sbsg7
I5
sg23
I01
sg24
g161
sba(imyEvolve
Tree
p310
(dp311
g7
I4
sg8
(imyEvolve
Tree
p312
(dp313
g13
(imyEvolve
Tree
p314
(dp315
g13
(imyEvolve
Tree
p316
(dp317
g7
I1
sg8
(imyEvolve
Tree
p318
(dp319
g7
I0
sg18
I00
sbsg19
(imyEvolve
Tree
p320
(dp321
g7
I0
sg18
I00
sbsg23
I00
sg24
g49
sbsg7
I2
sg23
I01
sg24
g33
sbsg7
I3
sg23
I01
sg24
g26
sbsg19
(imyEvolve
Tree
p322
(dp323
g13
(imyEvolve
Tree
p324
(dp325
g13
(imyEvolve
Tree
p326
(dp327
g7
I1
sg8
(imyEvolve
Tree
p328
(dp329
g7
I0
sg22
F-2.2328856455789703
sg18
I01
sbsg19
(imyEvolve
Tree
p330
(dp331
g7
I0
sg22
F3.352198865871239
sg18
I01
sbsg23
I00
sg24
g74
sbsg7
I2
sg23
I01
sg24
g26
sbsg7
I3
sg23
I01
sg24
g33
sbsg23
I00
sg24
g25
sba(imyEvolve
Tree
p332
(dp333
g13
(imyEvolve
Tree
p334
(dp335
g8
(imyEvolve
Tree
p336
(dp337
g13
(imyEvolve
Tree
p338
(dp339
g8
(imyEvolve
Tree
p340
(dp341
g13
(imyEvolve
Tree
p342
(dp343
g7
I0
sg22
F-2.7242486135304578
sg18
I01
sbsg7
I1
sg23
I01
sg24
g161
sbsg7
I2
sg19
(imyEvolve
Tree
p344
(dp345
g8
(imyEvolve
Tree
p346
(dp347
g7
I0
sg22
F1.5985790411431129
sg18
I01
sbsg7
I1
sg19
(imyEvolve
Tree
p348
(dp349
g7
I0
sg22
F-1.2222975064129713
sg18
I01
sbsg23
I00
sg24
g74
sbsg23
I00
sg24
g49
sbsg7
I3
sg23
I01
sg24
g161
sbsg7
I4
sg19
(imyEvolve
Tree
p350
(dp351
g13
(imyEvolve
Tree
p352
(dp353
g8
(imyEvolve
Tree
p354
(dp355
g8
(imyEvolve
Tree
p356
(dp357
g7
I0
sg18
I00
sbsg7
I1
sg19
(imyEvolve
Tree
p358
(dp359
g7
I0
sg22
F-3.9996517532675524
sg18
I01
sbsg23
I00
sg24
g25
sbsg7
I2
sg19
(imyEvolve
Tree
p360
(dp361
g8
(imyEvolve
Tree
p362
(dp363
g7
I0
sg22
F-0.30244116444470226
sg18
I01
sbsg7
I1
sg19
(imyEvolve
Tree
p364
(dp365
g7
I0
sg18
I00
sbsg23
I00
sg24
g25
sbsg23
I00
sg24
g49
sbsg7
I3
sg23
I01
sg24
g26
sbsg23
I00
sg24
g49
sbsg7
I5
sg23
I01
sg24
g34
sba(imyEvolve
Tree
p366
(dp367
g7
I4
sg8
(imyEvolve
Tree
p368
(dp369
g13
(imyEvolve
Tree
p370
(dp371
g13
(imyEvolve
Tree
p372
(dp373
g13
(imyEvolve
Tree
p374
(dp375
g7
I0
sg22
F-0.24350360979621577
sg18
I01
sbsg7
I1
sg23
I01
sg24
g33
sbsg7
I2
sg23
I01
sg24
g34
sbsg7
I3
sg23
I01
sg24
g161
sbsg19
(imyEvolve
Tree
p376
(dp377
g7
I3
sg8
(imyEvolve
Tree
p378
(dp379
g7
I2
sg8
(imyEvolve
Tree
p380
(dp381
g13
(imyEvolve
Tree
p382
(dp383
g7
I0
sg18
I00
sbsg7
I1
sg23
I01
sg24
g33
sbsg19
(imyEvolve
Tree
p384
(dp385
g13
(imyEvolve
Tree
p386
(dp387
g7
I0
sg22
F2.9870116024587157
sg18
I01
sbsg7
I1
sg23
I01
sg24
g161
sbsg23
I00
sg24
g74
sbsg19
(imyEvolve
Tree
p388
(dp389
g7
I2
sg8
(imyEvolve
Tree
p390
(dp391
g7
I1
sg8
(imyEvolve
Tree
p392
(dp393
g7
I0
sg22
F3.9606199852257014
sg18
I01
sbsg19
(imyEvolve
Tree
p394
(dp395
g7
I0
sg22
F3.4231454736515072
sg18
I01
sbsg23
I00
sg24
g74
sbsg19
(imyEvolve
Tree
p396
(dp397
g13
(imyEvolve
Tree
p398
(dp399
g7
I0
sg22
F3.667480785396787
sg18
I01
sbsg7
I1
sg23
I01
sg24
g34
sbsg23
I00
sg24
g25
sbsg23
I00
sg24
g49
sbsg23
I00
sg24
g25
sbaa(lp400
(imyEvolve
Tree
p401
(dp402
g7
I2
sg8
(imyEvolve
Tree
p403
(dp404
g7
I1
sg8
(imyEvolve
Tree
p405
(dp406
g7
I0
sg22
F-1.0316047952170493
sg18
I01
sbsg19
(imyEvolve
Tree
p407
(dp408
g7
I0
sg22
F3.054787103394025
sg18
I01
sbsg23
I00
sg24
g49
sbsg19
(imyEvolve
Tree
p409
(dp410
g13
(imyEvolve
Tree
p411
(dp412
g7
I0
sg18
I00
sbsg7
I1
sg23
I01
sg24
g33
sbsg23
I00
sg24
g49
sba(imyEvolve
Tree
p413
(dp414
g13
(imyEvolve
Tree
p415
(dp416
g13
(imyEvolve
Tree
p417
(dp418
g7
I0
sg18
I00
sbsg7
I1
sg23
I01
sg24
g161
sbsg7
I2
sg23
I01
sg24
g34
sba(imyEvolve
Tree
p419
(dp420
g8
(imyEvolve
Tree
p421
(dp422
g8
(imyEvolve
Tree
p423
(dp424
g8
(imyEvolve
Tree
p425
(dp426
g7
I0
sg18
I00
sbsg7
I1
sg19
(imyEvolve
Tree
p427
(dp428
g7
I0
sg18
I00
sbsg23
I00
sg24
g74
sbsg7
I2
sg19
(imyEvolve
Tree
p429
(dp430
g8
(imyEvolve
Tree
p431
(dp432
g7
I0
sg18
I00
sbsg7
I1
sg19
(imyEvolve
Tree
p433
(dp434
g7
I0
sg22
F-3.7822111859558016
sg18
I01
sbsg23
I00
sg24
g25
sbsg23
I00
sg24
g74
sbsg7
I3
sg19
(imyEvolve
Tree
p435
(dp436
g13
(imyEvolve
Tree
p437
(dp438
g13
(imyEvolve
Tree
p439
(dp440
g7
I0
sg18
I00
sbsg7
I1
sg23
I01
sg24
g26
sbsg7
I2
sg23
I01
sg24
g161
sbsg23
I00
sg24
g74
sba(imyEvolve
Tree
p441
(dp442
g8
(imyEvolve
Tree
p443
(dp444
g13
(imyEvolve
Tree
p445
(dp446
g7
I0
sg18
I00
sbsg7
I1
sg23
I01
sg24
g34
sbsg7
I2
sg19
(imyEvolve
Tree
p447
(dp448
g8
(imyEvolve
Tree
p449
(dp450
g7
I0
sg22
F-2.32519866387812
sg18
I01
sbsg7
I1
sg19
(imyEvolve
Tree
p451
(dp452
g7
I0
sg18
I00
sbsg23
I00
sg24
g25
sbsg23
I00
sg24
g74
sba(imyEvolve
Tree
p453
(dp454
g13
(imyEvolve
Tree
p455
(dp456
g13
(imyEvolve
Tree
p457
(dp458
g13
(imyEvolve
Tree
p459
(dp460
g13
(imyEvolve
Tree
p461
(dp462
g7
I0
sg18
I00
sbsg7
I1
sg23
I01
sg24
g161
sbsg7
I2
sg23
I01
sg24
g33
sbsg7
I3
sg23
I01
sg24
g34
sbsg7
I4
sg23
I01
sg24
g33
sba(imyEvolve
Tree
p463
(dp464
g8
(imyEvolve
Tree
p465
(dp466
g13
(imyEvolve
Tree
p467
(dp468
g13
(imyEvolve
Tree
p469
(dp470
g7
I0
sg22
F4.661295087852402
sg18
I01
sbsg7
I1
sg23
I01
sg24
g161
sbsg7
I2
sg23
I01
sg24
g26
sbsg7
I3
sg19
(imyEvolve
Tree
p471
(dp472
g13
(imyEvolve
Tree
p473
(dp474
g13
(imyEvolve
Tree
p475
(dp476
g7
I0
sg18
I00
sbsg7
I1
sg23
I01
sg24
g161
sbsg7
I2
sg23
I01
sg24
g33
sbsg23
I00
sg24
g74
sba(imyEvolve
Tree
p477
(dp478
g8
(imyEvolve
Tree
p479
(dp480
g13
(imyEvolve
Tree
p481
(dp482
g7
I0
sg18
I00
sbsg7
I1
sg23
I01
sg24
g161
sbsg7
I2
sg19
(imyEvolve
Tree
p483
(dp484
g13
(imyEvolve
Tree
p485
(dp486
g7
I0
sg18
I00
sbsg7
I1
sg23
I01
sg24
g34
sbsg23
I00
sg24
g25
sba(imyEvolve
Tree
p487
(dp488
g13
(imyEvolve
Tree
p489
(dp490
g13
(imyEvolve
Tree
p491
(dp492
g7
I0
sg22
F-1.29424689509836
sg18
I01
sbsg7
I1
sg23
I01
sg24
g33
sbsg7
I2
sg23
I01
sg24
g34
sba(imyEvolve
Tree
p493
(dp494
g13
(imyEvolve
Tree
p495
(dp496
g8
(imyEvolve
Tree
p497
(dp498
g13
(imyEvolve
Tree
p499
(dp500
g8
(imyEvolve
Tree
p501
(dp502
g7
I0
sg22
F2.0404039120947477
sg18
I01
sbsg7
I1
sg19
(imyEvolve
Tree
p503
(dp504
g7
I0
sg18
I00
sbsg23
I00
sg24
g49
sbsg7
I2
sg23
I01
sg24
g161
sbsg7
I3
sg19
(imyEvolve
Tree
p505
(dp506
g13
(imyEvolve
Tree
p507
(dp508
g8
(imyEvolve
Tree
p509
(dp510
g7
I0
sg18
I00
sbsg7
I1
sg19
(imyEvolve
Tree
p511
(dp512
g7
I0
sg18
I00
sbsg23
I00
sg24
g25
sbsg7
I2
sg23
I01
sg24
g33
sbsg23
I00
sg24
g49
sbsg7
I4
sg23
I01
sg24
g161
sba(imyEvolve
Tree
p513
(dp514
g7
I4
sg8
(imyEvolve
Tree
p515
(dp516
g13
(imyEvolve
Tree
p517
(dp518
g13
(imyEvolve
Tree
p519
(dp520
g13
(imyEvolve
Tree
p521
(dp522
g7
I0
sg22
F-1.0094666551771492
sg18
I01
sbsg7
I1
sg23
I01
sg24
g26
sbsg7
I2
sg23
I01
sg24
g33
sbsg7
I3
sg23
I01
sg24
g34
sbsg19
(imyEvolve
Tree
p523
(dp524
g7
I3
sg8
(imyEvolve
Tree
p525
(dp526
g13
(imyEvolve
Tree
p527
(dp528
g7
I1
sg8
(imyEvolve
Tree
p529
(dp530
g7
I0
sg18
I00
sbsg19
(imyEvolve
Tree
p531
(dp532
g7
I0
sg22
F-0.6696114172818124
sg18
I01
sbsg23
I00
sg24
g25
sbsg7
I2
sg23
I01
sg24
g26
sbsg19
(imyEvolve
Tree
p533
(dp534
g13
(imyEvolve
Tree
p535
(dp536
g7
I1
sg8
(imyEvolve
Tree
p537
(dp538
g7
I0
sg18
I00
sbsg19
(imyEvolve
Tree
p539
(dp540
g7
I0
sg18
I00
sbsg23
I00
sg24
g74
sbsg7
I2
sg23
I01
sg24
g161
sbsg23
I00
sg24
g74
sbsg23
I00
sg24
g49
sba(imyEvolve
Tree
p541
(dp542
g8
(imyEvolve
Tree
p543
(dp544
g8
(imyEvolve
Tree
p545
(dp546
g7
I0
sg18
I00
sbsg7
I1
sg19
(imyEvolve
Tree
p547
(dp548
g7
I0
sg18
I00
sbsg23
I00
sg24
g25
sbsg7
I2
sg19
(imyEvolve
Tree
p549
(dp550
g13
(imyEvolve
Tree
p551
(dp552
g7
I0
sg22
F3.512412084437541
sg18
I01
sbsg7
I1
sg23
I01
sg24
g161
sbsg23
I00
sg24
g74
sba(imyEvolve
Tree
p553
(dp554
g8
(imyEvolve
Tree
p555
(dp556
g13
(imyEvolve
Tree
p557
(dp558
g8
(imyEvolve
Tree
p559
(dp560
g8
(imyEvolve
Tree
p561
(dp562
g8
(imyEvolve
Tree
p563
(dp564
g7
I0
sg22
F-1.897315696889772
sg18
I01
sbsg7
I1
sg19
(imyEvolve
Tree
p565
(dp566
g7
I0
sg18
I00
sbsg23
I00
sg24
g25
sbsg7
I2
sg19
(imyEvolve
Tree
p567
(dp568
g8
(imyEvolve
Tree
p569
(dp570
g7
I0
sg18
I00
sbsg7
I1
sg19
(imyEvolve
Tree
p571
(dp572
g7
I0
sg22
F-2.0409051100204656
sg18
I01
sbsg23
I00
sg24
g74
sbsg23
I00
sg24
g74
sbsg7
I3
sg19
(imyEvolve
Tree
p573
(dp574
g13
(imyEvolve
Tree
p575
(dp576
g13
(imyEvolve
Tree
p577
(dp578
g7
I0
sg18
I00
sbsg7
I1
sg23
I01
sg24
g33
sbsg7
I2
sg23
I01
sg24
g33
sbsg23
I00
sg24
g25
sbsg7
I4
sg23
I01
sg24
g33
sbsg7
I5
sg19
(imyEvolve
Tree
p579
(dp580
g8
(imyEvolve
Tree
p581
(dp582
g8
(imyEvolve
Tree
p583
(dp584
g13
(imyEvolve
Tree
p585
(dp586
g13
(imyEvolve
Tree
p587
(dp588
g7
I0
sg18
I00
sbsg7
I1
sg23
I01
sg24
g33
sbsg7
I2
sg23
I01
sg24
g33
sbsg7
I3
sg19
(imyEvolve
Tree
p589
(dp590
g8
(imyEvolve
Tree
p591
(dp592
g8
(imyEvolve
Tree
p593
(dp594
g7
I0
sg22
F1.8621400635995293
sg18
I01
sbsg7
I1
sg19
(imyEvolve
Tree
p595
(dp596
g7
I0
sg18
I00
sbsg23
I00
sg24
g25
sbsg7
I2
sg19
(imyEvolve
Tree
p597
(dp598
g13
(imyEvolve
Tree
p599
(dp600
g7
I0
sg18
I00
sbsg7
I1
sg23
I01
sg24
g161
sbsg23
I00
sg24
g25
sbsg23
I00
sg24
g49
sbsg7
I4
sg19
(imyEvolve
Tree
p601
(dp602
g8
(imyEvolve
Tree
p603
(dp604
g13
(imyEvolve
Tree
p605
(dp606
g13
(imyEvolve
Tree
p607
(dp608
g7
I0
sg18
I00
sbsg7
I1
sg23
I01
sg24
g34
sbsg7
I2
sg23
I01
sg24
g26
sbsg7
I3
sg19
(imyEvolve
Tree
p609
(dp610
g8
(imyEvolve
Tree
p611
(dp612
g13
(imyEvolve
Tree
p613
(dp614
g7
I0
sg18
I00
sbsg7
I1
sg23
I01
sg24
g34
sbsg7
I2
sg19
(imyEvolve
Tree
p615
(dp616
g8
(imyEvolve
Tree
p617
(dp618
g7
I0
sg18
I00
sbsg7
I1
sg19
(imyEvolve
Tree
p619
(dp620
g7
I0
sg18
I00
sbsg23
I00
sg24
g49
sbsg23
I00
sg24
g74
sbsg23
I00
sg24
g74
sbsg23
I00
sg24
g74
sbsg23
I00
sg24
g49
sba(imyEvolve
Tree
p621
(dp622
g13
(imyEvolve
Tree
p623
(dp624
g13
(imyEvolve
Tree
p625
(dp626
g8
(imyEvolve
Tree
p627
(dp628
g7
I0
sg22
F-4.559735798481671
sg18
I01
sbsg7
I1
sg19
(imyEvolve
Tree
p629
(dp630
g7
I0
sg18
I00
sbsg23
I00
sg24
g74
sbsg7
I2
sg23
I01
sg24
g161
sbsg7
I3
sg23
I01
sg24
g161
sba(imyEvolve
Tree
p631
(dp632
g13
(imyEvolve
Tree
p633
(dp634
g13
(imyEvolve
Tree
p635
(dp636
g13
(imyEvolve
Tree
p637
(dp638
g8
(imyEvolve
Tree
p639
(dp640
g13
(imyEvolve
Tree
p641
(dp642
g7
I0
sg18
I00
sbsg7
I1
sg23
I01
sg24
g34
sbsg7
I2
sg19
(imyEvolve
Tree
p643
(dp644
g8
(imyEvolve
Tree
p645
(dp646
g7
I0
sg22
F1.3068629937859395
sg18
I01
sbsg7
I1
sg19
(imyEvolve
Tree
p647
(dp648
g7
I0
sg22
F-3.5286024351034015
sg18
I01
sbsg23
I00
sg24
g49
sbsg23
I00
sg24
g74
sbsg7
I3
sg23
I01
sg24
g26
sbsg7
I4
sg23
I01
sg24
g26
sbsg7
I5
sg23
I01
sg24
g34
sbaa(lp649
(imyEvolve
Tree
p650
(dp651
g8
(imyEvolve
Tree
p652
(dp653
g13
(imyEvolve
Tree
p654
(dp655
g13
(imyEvolve
Tree
p656
(dp657
g7
I0
sg22
F3.4041483525916654
sg18
I01
sbsg7
I1
sg23
I01
sg24
g161
sbsg7
I2
sg23
I01
sg24
g33
sbsg7
I3
sg19
(imyEvolve
Tree
p658
(dp659
g8
(imyEvolve
Tree
p660
(dp661
g13
(imyEvolve
Tree
p662
(dp663
g7
I0
sg22
F1.0582084590386263
sg18
I01
sbsg7
I1
sg23
I01
sg24
g26
sbsg7
I2
sg19
(imyEvolve
Tree
p664
(dp665
g8
(imyEvolve
Tree
p666
(dp667
g7
I0
sg22
F0.5845241663559708
sg18
I01
sbsg7
I1
sg19
(imyEvolve
Tree
p668
(dp669
g7
I0
sg22
F1.384185825850385
sg18
I01
sbsg23
I00
sg24
g74
sbsg23
I00
sg24
g25
sbsg23
I00
sg24
g25
sba(imyEvolve
Tree
p670
(dp671
g13
(imyEvolve
Tree
p672
(dp673
g8
(imyEvolve
Tree
p674
(dp675
g7
I0
sg22
F0.3944014611926061
sg18
I01
sbsg7
I1
sg19
(imyEvolve
Tree
p676
(dp677
g7
I0
sg22
F-3.808859878935346
sg18
I01
sbsg23
I00
sg24
g25
sbsg7
I2
sg23
I01
sg24
g33
sba(imyEvolve
Tree
p678
(dp679
g8
(imyEvolve
Tree
p680
(dp681
g8
(imyEvolve
Tree
p682
(dp683
g7
I0
sg22
F-3.480874752789913
sg18
I01
sbsg7
I1
sg19
(imyEvolve
Tree
p684
(dp685
g7
I0
sg18
I00
sbsg23
I00
sg24
g49
sbsg7
I2
sg19
(imyEvolve
Tree
p686
(dp687
g8
(imyEvolve
Tree
p688
(dp689
g7
I0
sg18
I00
sbsg7
I1
sg19
(imyEvolve
Tree
p690
(dp691
g7
I0
sg18
I00
sbsg23
I00
sg24
g49
sbsg23
I00
sg24
g49
sba(imyEvolve
Tree
p692
(dp693
g13
(imyEvolve
Tree
p694
(dp695
g13
(imyEvolve
Tree
p696
(dp697
g13
(imyEvolve
Tree
p698
(dp699
g8
(imyEvolve
Tree
p700
(dp701
g8
(imyEvolve
Tree
p702
(dp703
g7
I0
sg18
I00
sbsg7
I1
sg19
(imyEvolve
Tree
p704
(dp705
g7
I0
sg18
I00
sbsg23
I00
sg24
g49
sbsg7
I2
sg19
(imyEvolve
Tree
p706
(dp707
g8
(imyEvolve
Tree
p708
(dp709
g7
I0
sg22
F-1.9945142511667493
sg18
I01
sbsg7
I1
sg19
(imyEvolve
Tree
p710
(dp711
g7
I0
sg18
I00
sbsg23
I00
sg24
g74
sbsg23
I00
sg24
g74
sbsg7
I3
sg23
I01
sg24
g26
sbsg7
I4
sg23
I01
sg24
g34
sbsg7
I5
sg23
I01
sg24
g33
sba(imyEvolve
Tree
p712
(dp713
g13
(imyEvolve
Tree
p714
(dp715
g8
(imyEvolve
Tree
p716
(dp717
g8
(imyEvolve
Tree
p718
(dp719
g7
I0
sg18
I00
sbsg7
I1
sg19
(imyEvolve
Tree
p720
(dp721
g7
I0
sg22
F0.6545080116686695
sg18
I01
sbsg23
I00
sg24
g74
sbsg7
I2
sg19
(imyEvolve
Tree
p722
(dp723
g8
(imyEvolve
Tree
p724
(dp725
g7
I0
sg18
I00
sbsg7
I1
sg19
(imyEvolve
Tree
p726
(dp727
g7
I0
sg22
F4.200686742985859
sg18
I01
sbsg23
I00
sg24
g74
sbsg23
I00
sg24
g74
sbsg7
I3
sg23
I01
sg24
g26
sba(imyEvolve
Tree
p728
(dp729
g8
(imyEvolve
Tree
p730
(dp731
g8
(imyEvolve
Tree
p732
(dp733
g7
I0
sg18
I00
sbsg7
I1
sg19
(imyEvolve
Tree
p734
(dp735
g7
I0
sg18
I00
sbsg23
I00
sg24
g25
sbsg7
I2
sg19
(imyEvolve
Tree
p736
(dp737
g13
(imyEvolve
Tree
p738
(dp739
g7
I0
sg22
F2.684125273075879
sg18
I01
sbsg7
I1
sg23
I01
sg24
g26
sbsg23
I00
sg24
g49
sba(imyEvolve
Tree
p740
(dp741
g8
(imyEvolve
Tree
p742
(dp743
g13
(imyEvolve
Tree
p744
(dp745
g13
(imyEvolve
Tree
p746
(dp747
g7
I0
sg18
I00
sbsg7
I1
sg23
I01
sg24
g26
sbsg7
I2
sg23
I01
sg24
g26
sbsg7
I3
sg19
(imyEvolve
Tree
p748
(dp749
g8
(imyEvolve
Tree
p750
(dp751
g13
(imyEvolve
Tree
p752
(dp753
g7
I0
sg22
F3.1225857518454845
sg18
I01
sbsg7
I1
sg23
I01
sg24
g161
sbsg7
I2
sg19
(imyEvolve
Tree
p754
(dp755
g8
(imyEvolve
Tree
p756
(dp757
g7
I0
sg22
F4.717717335584696
sg18
I01
sbsg7
I1
sg19
(imyEvolve
Tree
p758
(dp759
g7
I0
sg18
I00
sbsg23
I00
sg24
g49
sbsg23
I00
sg24
g49
sbsg23
I00
sg24
g25
sba(imyEvolve
Tree
p760
(dp761
g13
(imyEvolve
Tree
p762
(dp763
g13
(imyEvolve
Tree
p764
(dp765
g8
(imyEvolve
Tree
p766
(dp767
g7
I0
sg22
F-3.040320738481358
sg18
I01
sbsg7
I1
sg19
(imyEvolve
Tree
p768
(dp769
g7
I0
sg18
I00
sbsg23
I00
sg24
g74
sbsg7
I2
sg23
I01
sg24
g161
sbsg7
I3
sg23
I01
sg24
g26
sba(imyEvolve
Tree
p770
(dp771
g13
(imyEvolve
Tree
p772
(dp773
g13
(imyEvolve
Tree
p774
(dp775
g13
(imyEvolve
Tree
p776
(dp777
g8
(imyEvolve
Tree
p778
(dp779
g8
(imyEvolve
Tree
p780
(dp781
g7
I0
sg18
I00
sbsg7
I1
sg19
(imyEvolve
Tree
p782
(dp783
g7
I0
sg22
F-4.894506938823971
sg18
I01
sbsg23
I00
sg24
g25
sbsg7
I2
sg19
(imyEvolve
Tree
p784
(dp785
g13
(imyEvolve
Tree
p786
(dp787
g7
I0
sg22
F0.5733957513113186
sg18
I01
sbsg7
I1
sg23
I01
sg24
g34
sbsg23
I00
sg24
g25
sbsg7
I3
sg23
I01
sg24
g161
sbsg7
I4
sg23
I01
sg24
g33
sbsg7
I5
sg23
I01
sg24
g34
sba(imyEvolve
Tree
p788
(dp789
g8
(imyEvolve
Tree
p790
(dp791
g8
(imyEvolve
Tree
p792
(dp793
g8
(imyEvolve
Tree
p794
(dp795
g13
(imyEvolve
Tree
p796
(dp797
g7
I0
sg18
I00
sbsg7
I1
sg23
I01
sg24
g26
sbsg7
I2
sg19
(imyEvolve
Tree
p798
(dp799
g8
(imyEvolve
Tree
p800
(dp801
g7
I0
sg18
I00
sbsg7
I1
sg19
(imyEvolve
Tree
p802
(dp803
g7
I0
sg22
F3.538850364472598
sg18
I01
sbsg23
I00
sg24
g25
sbsg23
I00
sg24
g49
sbsg7
I3
sg19
(imyEvolve
Tree
p804
(dp805
g13
(imyEvolve
Tree
p806
(dp807
g13
(imyEvolve
Tree
p808
(dp809
g7
I0
sg18
I00
sbsg7
I1
sg23
I01
sg24
g33
sbsg7
I2
sg23
I01
sg24
g33
sbsg23
I00
sg24
g25
sbsg7
I4
sg19
(imyEvolve
Tree
p810
(dp811
g8
(imyEvolve
Tree
p812
(dp813
g13
(imyEvolve
Tree
p814
(dp815
g13
(imyEvolve
Tree
p816
(dp817
g7
I0
sg18
I00
sbsg7
I1
sg23
I01
sg24
g26
sbsg7
I2
sg23
I01
sg24
g34
sbsg7
I3
sg19
(imyEvolve
Tree
p818
(dp819
g13
(imyEvolve
Tree
p820
(dp821
g8
(imyEvolve
Tree
p822
(dp823
g7
I0
sg18
I00
sbsg7
I1
sg19
(imyEvolve
Tree
p824
(dp825
g7
I0
sg22
F-4.6576406498942475
sg18
I01
sbsg23
I00
sg24
g25
sbsg7
I2
sg23
I01
sg24
g34
sbsg23
I00
sg24
g49
sbsg23
I00
sg24
g25
sba(imyEvolve
Tree
p826
(dp827
g13
(imyEvolve
Tree
p828
(dp829
g7
I4
sg8
(imyEvolve
Tree
p830
(dp831
g7
I3
sg8
(imyEvolve
Tree
p832
(dp833
g7
I2
sg8
(imyEvolve
Tree
p834
(dp835
g7
I1
sg8
(imyEvolve
Tree
p836
(dp837
g7
I0
sg22
F-0.23573925998386347
sg18
I01
sbsg19
(imyEvolve
Tree
p838
(dp839
g7
I0
sg22
F-3.369128284351789
sg18
I01
sbsg23
I00
sg24
g25
sbsg19
(imyEvolve
Tree
p840
(dp841
g7
I1
sg8
(imyEvolve
Tree
p842
(dp843
g7
I0
sg18
I00
sbsg19
(imyEvolve
Tree
p844
(dp845
g7
I0
sg18
I00
sbsg23
I00
sg24
g49
sbsg23
I00
sg24
g74
sbsg19
(imyEvolve
Tree
p846
(dp847
g13
(imyEvolve
Tree
p848
(dp849
g7
I1
sg8
(imyEvolve
Tree
p850
(dp851
g7
I0
sg18
I00
sbsg19
(imyEvolve
Tree
p852
(dp853
g7
I0
sg22
F-4.149400681760234
sg18
I01
sbsg23
I00
sg24
g49
sbsg7
I2
sg23
I01
sg24
g161
sbsg23
I00
sg24
g74
sbsg19
(imyEvolve
Tree
p854
(dp855
g13
(imyEvolve
Tree
p856
(dp857
g7
I2
sg8
(imyEvolve
Tree
p858
(dp859
g7
I1
sg8
(imyEvolve
Tree
p860
(dp861
g7
I0
sg18
I00
sbsg19
(imyEvolve
Tree
p862
(dp863
g7
I0
sg22
F-3.166033052837214
sg18
I01
sbsg23
I00
sg24
g25
sbsg19
(imyEvolve
Tree
p864
(dp865
g13
(imyEvolve
Tree
p866
(dp867
g7
I0
sg18
I00
sbsg7
I1
sg23
I01
sg24
g33
sbsg23
I00
sg24
g49
sbsg7
I3
sg23
I01
sg24
g26
sbsg23
I00
sg24
g74
sbsg7
I5
sg23
I01
sg24
g26
sba(imyEvolve
Tree
p868
(dp869
g13
(imyEvolve
Tree
p870
(dp871
g7
I2
sg8
(imyEvolve
Tree
p872
(dp873
g13
(imyEvolve
Tree
p874
(dp875
g7
I0
sg22
F3.81021579030312
sg18
I01
sbsg7
I1
sg23
I01
sg24
g34
sbsg19
(imyEvolve
Tree
p876
(dp877
g7
I1
sg8
(imyEvolve
Tree
p878
(dp879
g7
I0
sg18
I00
sbsg19
(imyEvolve
Tree
p880
(dp881
g7
I0
sg22
F2.212184922592632
sg18
I01
sbsg23
I00
sg24
g49
sbsg23
I00
sg24
g49
sbsg7
I3
sg23
I01
sg24
g33
sbaa(lp882
(imyEvolve
Tree
p883
(dp884
g8
(imyEvolve
Tree
p885
(dp886
g8
(imyEvolve
Tree
p887
(dp888
g13
(imyEvolve
Tree
p889
(dp890
g7
I0
sg22
F3.5054068188841594
sg18
I01
sbsg7
I1
sg23
I01
sg24
g26
sbsg7
I2
sg19
(imyEvolve
Tree
p891
(dp892
g8
(imyEvolve
Tree
p893
(dp894
g7
I0
sg22
F0.6262576309711054
sg18
I01
sbsg7
I1
sg19
(imyEvolve
Tree
p895
(dp896
g7
I0
sg18
I00
sbsg23
I00
sg24
g74
sbsg23
I00
sg24
g25
sbsg7
I3
sg19
(imyEvolve
Tree
p897
(dp898
g13
(imyEvolve
Tree
p899
(dp900
g13
(imyEvolve
Tree
p901
(dp902
g7
I0
sg18
I00
sbsg7
I1
sg23
I01
sg24
g26
sbsg7
I2
sg23
I01
sg24
g34
sbsg23
I00
sg24
g25
sba(imyEvolve
Tree
p903
(dp904
g8
(imyEvolve
Tree
p905
(dp906
g13
(imyEvolve
Tree
p907
(dp908
g13
(imyEvolve
Tree
p909
(dp910
g7
I0
sg22
F-2.6986055737969283
sg18
I01
sbsg7
I1
sg23
I01
sg24
g26
sbsg7
I2
sg23
I01
sg24
g33
sbsg7
I3
sg19
(imyEvolve
Tree
p911
(dp912
g8
(imyEvolve
Tree
p913
(dp914
g8
(imyEvolve
Tree
p915
(dp916
g7
I0
sg22
F-1.377881429574912
sg18
I01
sbsg7
I1
sg19
(imyEvolve
Tree
p917
(dp918
g7
I0
sg18
I00
sbsg23
I00
sg24
g49
sbsg7
I2
sg19
(imyEvolve
Tree
p919
(dp920
g13
(imyEvolve
Tree
p921
(dp922
g7
I0
sg18
I00
sbsg7
I1
sg23
I01
sg24
g33
sbsg23
I00
sg24
g74
sbsg23
I00
sg24
g74
sba(imyEvolve
Tree
p923
(dp924
g7
I3
sg8
(imyEvolve
Tree
p925
(dp926
g7
I2
sg8
(imyEvolve
Tree
p927
(dp928
g13
(imyEvolve
Tree
p929
(dp930
g7
I0
sg18
I00
sbsg7
I1
sg23
I01
sg24
g33
sbsg19
(imyEvolve
Tree
p931
(dp932
g13
(imyEvolve
Tree
p933
(dp934
g7
I0
sg18
I00
sbsg7
I1
sg23
I01
sg24
g26
sbsg23
I00
sg24
g74
sbsg19
(imyEvolve
Tree
p935
(dp936
g13
(imyEvolve
Tree
p937
(dp938
g7
I1
sg8
(imyEvolve
Tree
p939
(dp940
g7
I0
sg18
I00
sbsg19
(imyEvolve
Tree
p941
(dp942
g7
I0
sg18
I00
sbsg23
I00
sg24
g74
sbsg7
I2
sg23
I01
sg24
g34
sbsg23
I00
sg24
g74
sba(imyEvolve
Tree
p943
(dp944
g13
(imyEvolve
Tree
p945
(dp946
g8
(imyEvolve
Tree
p947
(dp948
g7
I0
sg22
F1.933659526923563
sg18
I01
sbsg7
I1
sg19
(imyEvolve
Tree
p949
(dp950
g7
I0
sg18
I00
sbsg23
I00
sg24
g49
sbsg7
I2
sg23
I01
sg24
g161
sba(imyEvolve
Tree
p951
(dp952
g7
I3
sg8
(imyEvolve
Tree
p953
(dp954
g13
(imyEvolve
Tree
p955
(dp956
g7
I1
sg8
(imyEvolve
Tree
p957
(dp958
g7
I0
sg22
F-4.158758763424464
sg18
I01
sbsg19
(imyEvolve
Tree
p959
(dp960
g7
I0
sg22
F4.5585117823462
sg18
I01
sbsg23
I00
sg24
g49
sbsg7
I2
sg23
I01
sg24
g161
sbsg19
(imyEvolve
Tree
p961
(dp962
g13
(imyEvolve
Tree
p963
(dp964
g13
(imyEvolve
Tree
p965
(dp966
g7
I0
sg18
I00
sbsg7
I1
sg23
I01
sg24
g33
sbsg7
I2
sg23
I01
sg24
g34
sbsg23
I00
sg24
g25
sba(imyEvolve
Tree
p967
(dp968
g8
(imyEvolve
Tree
p969
(dp970
g8
(imyEvolve
Tree
p971
(dp972
g8
(imyEvolve
Tree
p973
(dp974
g13
(imyEvolve
Tree
p975
(dp976
g13
(imyEvolve
Tree
p977
(dp978
g7
I0
sg18
I00
sbsg7
I1
sg23
I01
sg24
g161
sbsg7
I2
sg23
I01
sg24
g26
sbsg7
I3
sg19
(imyEvolve
Tree
p979
(dp980
g13
(imyEvolve
Tree
p981
(dp982
g8
(imyEvolve
Tree
p983
(dp984
g7
I0
sg18
I00
sbsg7
I1
sg19
(imyEvolve
Tree
p985
(dp986
g7
I0
sg18
I00
sbsg23
I00
sg24
g25
sbsg7
I2
sg23
I01
sg24
g33
sbsg23
I00
sg24
g49
sbsg7
I4
sg19
(imyEvolve
Tree
p987
(dp988
g8
(imyEvolve
Tree
p989
(dp990
g8
(imyEvolve
Tree
p991
(dp992
g8
(imyEvolve
Tree
p993
(dp994
g7
I0
sg18
I00
sbsg7
I1
sg19
(imyEvolve
Tree
p995
(dp996
g7
I0
sg22
F2.6586616501568594
sg18
I01
sbsg23
I00
sg24
g25
sbsg7
I2
sg19
(imyEvolve
Tree
p997
(dp998
g8
(imyEvolve
Tree
p999
(dp1000
g7
I0
sg18
I00
sbsg7
I1
sg19
(imyEvolve
Tree
p1001
(dp1002
g7
I0
sg18
I00
sbsg23
I00
sg24
g25
sbsg23
I00
sg24
g49
sbsg7
I3
sg19
(imyEvolve
Tree
p1003
(dp1004
g13
(imyEvolve
Tree
p1005
(dp1006
g8
(imyEvolve
Tree
p1007
(dp1008
g7
I0
sg22
F-3.01115895555872
sg18
I01
sbsg7
I1
sg19
(imyEvolve
Tree
p1009
(dp1010
g7
I0
sg22
F-4.459676237411595
sg18
I01
sbsg23
I00
sg24
g49
sbsg7
I2
sg23
I01
sg24
g26
sbsg23
I00
sg24
g25
sbsg23
I00
sg24
g49
sbsg7
I5
sg19
(imyEvolve
Tree
p1011
(dp1012
g8
(imyEvolve
Tree
p1013
(dp1014
g8
(imyEvolve
Tree
p1015
(dp1016
g13
(imyEvolve
Tree
p1017
(dp1018
g13
(imyEvolve
Tree
p1019
(dp1020
g7
I0
sg22
F2.3202691221587006
sg18
I01
sbsg7
I1
sg23
I01
sg24
g33
sbsg7
I2
sg23
I01
sg24
g161
sbsg7
I3
sg19
(imyEvolve
Tree
p1021
(dp1022
g8
(imyEvolve
Tree
p1023
(dp1024
g8
(imyEvolve
Tree
p1025
(dp1026
g7
I0
sg22
F3.7685427123499267
sg18
I01
sbsg7
I1
sg19
(imyEvolve
Tree
p1027
(dp1028
g7
I0
sg18
I00
sbsg23
I00
sg24
g49
sbsg7
I2
sg19
(imyEvolve
Tree
p1029
(dp1030
g8
(imyEvolve
Tree
p1031
(dp1032
g7
I0
sg22
F0.19825187232827535
sg18
I01
sbsg7
I1
sg19
(imyEvolve
Tree
p1033
(dp1034
g7
I0
sg18
I00
sbsg23
I00
sg24
g74
sbsg23
I00
sg24
g25
sbsg23
I00
sg24
g74
sbsg7
I4
sg19
(imyEvolve
Tree
p1035
(dp1036
g8
(imyEvolve
Tree
p1037
(dp1038
g13
(imyEvolve
Tree
p1039
(dp1040
g8
(imyEvolve
Tree
p1041
(dp1042
g7
I0
sg22
F-3.5392911466354935
sg18
I01
sbsg7
I1
sg19
(imyEvolve
Tree
p1043
(dp1044
g7
I0
sg18
I00
sbsg23
I00
sg24
g49
sbsg7
I2
sg23
I01
sg24
g33
sbsg7
I3
sg19
(imyEvolve
Tree
p1045
(dp1046
g8
(imyEvolve
Tree
p1047
(dp1048
g8
(imyEvolve
Tree
p1049
(dp1050
g7
I0
sg22
F-4.308028690453016
sg18
I01
sbsg7
I1
sg19
(imyEvolve
Tree
p1051
(dp1052
g7
I0
sg18
I00
sbsg23
I00
sg24
g25
sbsg7
I2
sg19
(imyEvolve
Tree
p1053
(dp1054
g13
(imyEvolve
Tree
p1055
(dp1056
g7
I0
sg22
F-1.2210852721992724
sg18
I01
sbsg7
I1
sg23
I01
sg24
g161
sbsg23
I00
sg24
g74
sbsg23
I00
sg24
g74
sbsg23
I00
sg24
g25
sbsg23
I00
sg24
g25
sba(imyEvolve
Tree
p1057
(dp1058
g13
(imyEvolve
Tree
p1059
(dp1060
g13
(imyEvolve
Tree
p1061
(dp1062
g13
(imyEvolve
Tree
p1063
(dp1064
g8
(imyEvolve
Tree
p1065
(dp1066
g7
I0
sg22
F-3.68414294629416
sg18
I01
sbsg7
I1
sg19
(imyEvolve
Tree
p1067
(dp1068
g7
I0
sg22
F0.6804482852868121
sg18
I01
sbsg23
I00
sg24
g49
sbsg7
I2
sg23
I01
sg24
g161
sbsg7
I3
sg23
I01
sg24
g26
sbsg7
I4
sg23
I01
sg24
g26
sba(imyEvolve
Tree
p1069
(dp1070
g13
(imyEvolve
Tree
p1071
(dp1072
g13
(imyEvolve
Tree
p1073
(dp1074
g13
(imyEvolve
Tree
p1075
(dp1076
g13
(imyEvolve
Tree
p1077
(dp1078
g13
(imyEvolve
Tree
p1079
(dp1080
g7
I0
sg22
F-2.5712273494561035
sg18
I01
sbsg7
I1
sg23
I01
sg24
g34
sbsg7
I2
sg23
I01
sg24
g34
sbsg7
I3
sg23
I01
sg24
g26
sbsg7
I4
sg23
I01
sg24
g33
sbsg7
I5
sg23
I01
sg24
g33
sba(imyEvolve
Tree
p1081
(dp1082
g7
I2
sg8
(imyEvolve
Tree
p1083
(dp1084
g13
(imyEvolve
Tree
p1085
(dp1086
g7
I0
sg18
I00
sbsg7
I1
sg23
I01
sg24
g34
sbsg19
(imyEvolve
Tree
p1087
(dp1088
g13
(imyEvolve
Tree
p1089
(dp1090
g7
I0
sg18
I00
sbsg7
I1
sg23
I01
sg24
g26
sbsg23
I00
sg24
g49
sba(imyEvolve
Tree
p1091
(dp1092
g13
(imyEvolve
Tree
p1093
(dp1094
g13
(imyEvolve
Tree
p1095
(dp1096
g7
I0
sg18
I00
sbsg7
I1
sg23
I01
sg24
g33
sbsg7
I2
sg23
I01
sg24
g26
sba(imyEvolve
Tree
p1097
(dp1098
g8
(imyEvolve
Tree
p1099
(dp1100
g13
(imyEvolve
Tree
p1101
(dp1102
g7
I0
sg18
I00
sbsg7
I1
sg23
I01
sg24
g34
sbsg7
I2
sg19
(imyEvolve
Tree
p1103
(dp1104
g8
(imyEvolve
Tree
p1105
(dp1106
g7
I0
sg22
F1.2727712127237805
sg18
I01
sbsg7
I1
sg19
(imyEvolve
Tree
p1107
(dp1108
g7
I0
sg22
F0.4507740526637569
sg18
I01
sbsg23
I00
sg24
g74
sbsg23
I00
sg24
g25
sba(imyEvolve
Tree
p1109
(dp1110
g8
(imyEvolve
Tree
p1111
(dp1112
g8
(imyEvolve
Tree
p1113
(dp1114
g7
I0
sg18
I00
sbsg7
I1
sg19
(imyEvolve
Tree
p1115
(dp1116
g7
I0
sg22
F0.36583402878725746
sg18
I01
sbsg23
I00
sg24
g74
sbsg7
I2
sg19
(imyEvolve
Tree
p1117
(dp1118
g13
(imyEvolve
Tree
p1119
(dp1120
g7
I0
sg22
F2.749333940777131
sg18
I01
sbsg7
I1
sg23
I01
sg24
g161
sbsg23
I00
sg24
g25
sba(imyEvolve
Tree
p1121
(dp1122
g8
(imyEvolve
Tree
p1123
(dp1124
g13
(imyEvolve
Tree
p1125
(dp1126
g8
(imyEvolve
Tree
p1127
(dp1128
g13
(imyEvolve
Tree
p1129
(dp1130
g7
I0
sg18
I00
sbsg7
I1
sg23
I01
sg24
g26
sbsg7
I2
sg19
(imyEvolve
Tree
p1131
(dp1132
g13
(imyEvolve
Tree
p1133
(dp1134
g7
I0
sg22
F-3.717151736803894
sg18
I01
sbsg7
I1
sg23
I01
sg24
g26
sbsg23
I00
sg24
g49
sbsg7
I3
sg23
I01
sg24
g161
sbsg7
I4
sg19
(imyEvolve
Tree
p1135
(dp1136
g13
(imyEvolve
Tree
p1137
(dp1138
g8
(imyEvolve
Tree
p1139
(dp1140
g8
(imyEvolve
Tree
p1141
(dp1142
g7
I0
sg18
I00
sbsg7
I1
sg19
(imyEvolve
Tree
p1143
(dp1144
g7
I0
sg18
I00
sbsg23
I00
sg24
g49
sbsg7
I2
sg19
(imyEvolve
Tree
p1145
(dp1146
g13
(imyEvolve
Tree
p1147
(dp1148
g7
I0
sg18
I00
sbsg7
I1
sg23
I01
sg24
g161
sbsg23
I00
sg24
g74
sbsg7
I3
sg23
I01
sg24
g34
sbsg23
I00
sg24
g74
sba(imyEvolve
Tree
p1149
(dp1150
g13
(imyEvolve
Tree
p1151
(dp1152
g13
(imyEvolve
Tree
p1153
(dp1154
g7
I0
sg18
I00
sbsg7
I1
sg23
I01
sg24
g33
sbsg7
I2
sg23
I01
sg24
g26
sba(imyEvolve
Tree
p1155
(dp1156
g13
(imyEvolve
Tree
p1157
(dp1158
g7
I4
sg8
(imyEvolve
Tree
p1159
(dp1160
g7
I3
sg8
(imyEvolve
Tree
p1161
(dp1162
g13
(imyEvolve
Tree
p1163
(dp1164
g7
I1
sg8
(imyEvolve
Tree
p1165
(dp1166
g7
I0
sg22
F2.527331420506714
sg18
I01
sbsg19
(imyEvolve
Tree
p1167
(dp1168
g7
I0
sg22
F-3.16105481035982
sg18
I01
sbsg23
I00
sg24
g74
sbsg7
I2
sg23
I01
sg24
g33
sbsg19
(imyEvolve
Tree
p1169
(dp1170
g13
(imyEvolve
Tree
p1171
(dp1172
g7
I1
sg8
(imyEvolve
Tree
p1173
(dp1174
g7
I0
sg18
I00
sbsg19
(imyEvolve
Tree
p1175
(dp1176
g7
I0
sg18
I00
sbsg23
I00
sg24
g74
sbsg7
I2
sg23
I01
sg24
g33
sbsg23
I00
sg24
g49
sbsg19
(imyEvolve
Tree
p1177
(dp1178
g7
I3
sg8
(imyEvolve
Tree
p1179
(dp1180
g7
I2
sg8
(imyEvolve
Tree
p1181
(dp1182
g7
I1
sg8
(imyEvolve
Tree
p1183
(dp1184
g7
I0
sg18
I00
sbsg19
(imyEvolve
Tree
p1185
(dp1186
g7
I0
sg18
I00
sbsg23
I00
sg24
g25
sbsg19
(imyEvolve
Tree
p1187
(dp1188
g13
(imyEvolve
Tree
p1189
(dp1190
g7
I0
sg18
I00
sbsg7
I1
sg23
I01
sg24
g33
sbsg23
I00
sg24
g74
sbsg19
(imyEvolve
Tree
p1191
(dp1192
g13
(imyEvolve
Tree
p1193
(dp1194
g13
(imyEvolve
Tree
p1195
(dp1196
g7
I0
sg22
F-1.2272048565762073
sg18
I01
sbsg7
I1
sg23
I01
sg24
g33
sbsg7
I2
sg23
I01
sg24
g34
sbsg23
I00
sg24
g74
sbsg23
I00
sg24
g25
sbsg7
I5
sg23
I01
sg24
g26
sba(imyEvolve
Tree
p1197
(dp1198
g13
(imyEvolve
Tree
p1199
(dp1200
g13
(imyEvolve
Tree
p1201
(dp1202
g7
I0
sg18
I00
sbsg7
I1
sg23
I01
sg24
g161
sbsg7
I2
sg23
I01
sg24
g34
sbaa(lp1203
(imyEvolve
Tree
p1204
(dp1205
g13
(imyEvolve
Tree
p1206
(dp1207
g7
I1
sg8
(imyEvolve
Tree
p1208
(dp1209
g7
I0
sg18
I00
sbsg19
(imyEvolve
Tree
p1210
(dp1211
g7
I0
sg22
F2.817945844756885
sg18
I01
sbsg23
I00
sg24
g49
sbsg7
I2
sg23
I01
sg24
g34
sba(imyEvolve
Tree
p1212
(dp1213
g13
(imyEvolve
Tree
p1214
(dp1215
g8
(imyEvolve
Tree
p1216
(dp1217
g7
I0
sg22
F2.0010459025902128
sg18
I01
sbsg7
I1
sg19
(imyEvolve
Tree
p1218
(dp1219
g7
I0
sg18
I00
sbsg23
I00
sg24
g25
sbsg7
I2
sg23
I01
sg24
g26
sba(imyEvolve
Tree
p1220
(dp1221
g8
(imyEvolve
Tree
p1222
(dp1223
g13
(imyEvolve
Tree
p1224
(dp1225
g13
(imyEvolve
Tree
p1226
(dp1227
g13
(imyEvolve
Tree
p1228
(dp1229
g13
(imyEvolve
Tree
p1230
(dp1231
g7
I0
sg22
F-2.0535236785655284
sg18
I01
sbsg7
I1
sg23
I01
sg24
g34
sbsg7
I2
sg23
I01
sg24
g33
sbsg7
I3
sg23
I01
sg24
g161
sbsg7
I4
sg23
I01
sg24
g33
sbsg7
I5
sg19
(imyEvolve
Tree
p1232
(dp1233
g8
(imyEvolve
Tree
p1234
(dp1235
g13
(imyEvolve
Tree
p1236
(dp1237
g8
(imyEvolve
Tree
p1238
(dp1239
g13
(imyEvolve
Tree
p1240
(dp1241
g7
I0
sg18
I00
sbsg7
I1
sg23
I01
sg24
g33
sbsg7
I2
sg19
(imyEvolve
Tree
p1242
(dp1243
g13
(imyEvolve
Tree
p1244
(dp1245
g7
I0
sg18
I00
sbsg7
I1
sg23
I01
sg24
g33
sbsg23
I00
sg24
g49
sbsg7
I3
sg23
I01
sg24
g161
sbsg7
I4
sg19
(imyEvolve
Tree
p1246
(dp1247
g8
(imyEvolve
Tree
p1248
(dp1249
g13
(imyEvolve
Tree
p1250
(dp1251
g8
(imyEvolve
Tree
p1252
(dp1253
g7
I0
sg22
F3.2778553545503204
sg18
I01
sbsg7
I1
sg19
(imyEvolve
Tree
p1254
(dp1255
g7
I0
sg22
F1.3259549856298323
sg18
I01
sbsg23
I00
sg24
g25
sbsg7
I2
sg23
I01
sg24
g26
sbsg7
I3
sg19
(imyEvolve
Tree
p1256
(dp1257
g13
(imyEvolve
Tree
p1258
(dp1259
g8
(imyEvolve
Tree
p1260
(dp1261
g7
I0
sg22
F0.7166694701182603
sg18
I01
sbsg7
I1
sg19
(imyEvolve
Tree
p1262
(dp1263
g7
I0
sg18
I00
sbsg23
I00
sg24
g25
sbsg7
I2
sg23
I01
sg24
g34
sbsg23
I00
sg24
g74
sbsg23
I00
sg24
g25
sbsg23
I00
sg24
g74
sba(imyEvolve
Tree
p1264
(dp1265
g8
(imyEvolve
Tree
p1266
(dp1267
g13
(imyEvolve
Tree
p1268
(dp1269
g7
I0
sg22
F1.3879206307952252
sg18
I01
sbsg7
I1
sg23
I01
sg24
g34
sbsg7
I2
sg19
(imyEvolve
Tree
p1270
(dp1271
g13
(imyEvolve
Tree
p1272
(dp1273
g7
I0
sg18
I00
sbsg7
I1
sg23
I01
sg24
g33
sbsg23
I00
sg24
g74
sba(imyEvolve
Tree
p1274
(dp1275
g8
(imyEvolve
Tree
p1276
(dp1277
g13
(imyEvolve
Tree
p1278
(dp1279
g13
(imyEvolve
Tree
p1280
(dp1281
g7
I0
sg18
I00
sbsg7
I1
sg23
I01
sg24
g33
sbsg7
I2
sg23
I01
sg24
g34
sbsg7
I3
sg19
(imyEvolve
Tree
p1282
(dp1283
g13
(imyEvolve
Tree
p1284
(dp1285
g13
(imyEvolve
Tree
p1286
(dp1287
g7
I0
sg18
I00
sbsg7
I1
sg23
I01
sg24
g161
sbsg7
I2
sg23
I01
sg24
g26
sbsg23
I00
sg24
g49
sba(imyEvolve
Tree
p1288
(dp1289
g13
(imyEvolve
Tree
p1290
(dp1291
g13
(imyEvolve
Tree
p1292
(dp1293
g8
(imyEvolve
Tree
p1294
(dp1295
g7
I0
sg22
F-1.1030434326499607
sg18
I01
sbsg7
I1
sg19
(imyEvolve
Tree
p1296
(dp1297
g7
I0
sg22
F1.228012950190144
sg18
I01
sbsg23
I00
sg24
g49
sbsg7
I2
sg23
I01
sg24
g161
sbsg7
I3
sg23
I01
sg24
g26
sba(imyEvolve
Tree
p1298
(dp1299
g8
(imyEvolve
Tree
p1300
(dp1301
g13
(imyEvolve
Tree
p1302
(dp1303
g13
(imyEvolve
Tree
p1304
(dp1305
g7
I0
sg22
F0.12951811867115737
sg18
I01
sbsg7
I1
sg23
I01
sg24
g26
sbsg7
I2
sg23
I01
sg24
g26
sbsg7
I3
sg19
(imyEvolve
Tree
p1306
(dp1307
g13
(imyEvolve
Tree
p1308
(dp1309
g13
(imyEvolve
Tree
p1310
(dp1311
g7
I0
sg18
I00
sbsg7
I1
sg23
I01
sg24
g161
sbsg7
I2
sg23
I01
sg24
g33
sbsg23
I00
sg24
g49
sba(imyEvolve
Tree
p1312
(dp1313
g8
(imyEvolve
Tree
p1314
(dp1315
g8
(imyEvolve
Tree
p1316
(dp1317
g13
(imyEvolve
Tree
p1318
(dp1319
g7
I0
sg22
F1.4352506779642846
sg18
I01
sbsg7
I1
sg23
I01
sg24
g33
sbsg7
I2
sg19
(imyEvolve
Tree
p1320
(dp1321
g8
(imyEvolve
Tree
p1322
(dp1323
g7
I0
sg18
I00
sbsg7
I1
sg19
(imyEvolve
Tree
p1324
(dp1325
g7
I0
sg22
F-1.931143725366037
sg18
I01
sbsg23
I00
sg24
g74
sbsg23
I00
sg24
g25
sbsg7
I3
sg19
(imyEvolve
Tree
p1326
(dp1327
g13
(imyEvolve
Tree
p1328
(dp1329
g13
(imyEvolve
Tree
p1330
(dp1331
g7
I0
sg18
I00
sbsg7
I1
sg23
I01
sg24
g26
sbsg7
I2
sg23
I01
sg24
g161
sbsg23
I00
sg24
g74
sba(imyEvolve
Tree
p1332
(dp1333
g7
I2
sg8
(imyEvolve
Tree
p1334
(dp1335
g13
(imyEvolve
Tree
p1336
(dp1337
g7
I0
sg18
I00
sbsg7
I1
sg23
I01
sg24
g34
sbsg19
(imyEvolve
Tree
p1338
(dp1339
g7
I1
sg8
(imyEvolve
Tree
p1340
(dp1341
g7
I0
sg22
F-2.640949826025495
sg18
I01
sbsg19
(imyEvolve
Tree
p1342
(dp1343
g7
I0
sg22
F4.562552702044318
sg18
I01
sbsg23
I00
sg24
g25
sbsg23
I00
sg24
g25
sba(imyEvolve
Tree
p1344
(dp1345
g13
(imyEvolve
Tree
p1346
(dp1347
g7
I4
sg8
(imyEvolve
Tree
p1348
(dp1349
g13
(imyEvolve
Tree
p1350
(dp1351
g7
I2
sg8
(imyEvolve
Tree
p1352
(dp1353
g13
(imyEvolve
Tree
p1354
(dp1355
g7
I0
sg22
F4.724185212494179
sg18
I01
sbsg7
I1
sg23
I01
sg24
g26
sbsg19
(imyEvolve
Tree
p1356
(dp1357
g7
I1
sg8
(imyEvolve
Tree
p1358
(dp1359
g7
I0
sg22
F-0.5172664715026016
sg18
I01
sbsg19
(imyEvolve
Tree
p1360
(dp1361
g7
I0
sg18
I00
sbsg23
I00
sg24
g74
sbsg23
I00
sg24
g49
sbsg7
I3
sg23
I01
sg24
g33
sbsg19
(imyEvolve
Tree
p1362
(dp1363
g13
(imyEvolve
Tree
p1364
(dp1365
g7
I2
sg8
(imyEvolve
Tree
p1366
(dp1367
g7
I1
sg8
(imyEvolve
Tree
p1368
(dp1369
g7
I0
sg18
I00
sbsg19
(imyEvolve
Tree
p1370
(dp1371
g7
I0
sg22
F3.289750118248273
sg18
I01
sbsg23
I00
sg24
g74
sbsg19
(imyEvolve
Tree
p1372
(dp1373
g7
I1
sg8
(imyEvolve
Tree
p1374
(dp1375
g7
I0
sg22
F0.039335219543900735
sg18
I01
sbsg19
(imyEvolve
Tree
p1376
(dp1377
g7
I0
sg22
F4.280806574898769
sg18
I01
sbsg23
I00
sg24
g74
sbsg23
I00
sg24
g74
sbsg7
I3
sg23
I01
sg24
g33
sbsg23
I00
sg24
g74
sbsg7
I5
sg23
I01
sg24
g161
sba(imyEvolve
Tree
p1378
(dp1379
g13
(imyEvolve
Tree
p1380
(dp1381
g13
(imyEvolve
Tree
p1382
(dp1383
g13
(imyEvolve
Tree
p1384
(dp1385
g7
I0
sg22
F4.170452359029376
sg18
I01
sbsg7
I1
sg23
I01
sg24
g34
sbsg7
I2
sg23
I01
sg24
g33
sbsg7
I3
sg23
I01
sg24
g161
sba(imyEvolve
Tree
p1386
(dp1387
g13
(imyEvolve
Tree
p1388
(dp1389
g13
(imyEvolve
Tree
p1390
(dp1391
g8
(imyEvolve
Tree
p1392
(dp1393
g7
I0
sg22
F-4.3586380433050245
sg18
I01
sbsg7
I1
sg19
(imyEvolve
Tree
p1394
(dp1395
g7
I0
sg22
F-2.6966810752846717
sg18
I01
sbsg23
I00
sg24
g25
sbsg7
I2
sg23
I01
sg24
g33
sbsg7
I3
sg23
I01
sg24
g161
sba(imyEvolve
Tree
p1396
(dp1397
g8
(imyEvolve
Tree
p1398
(dp1399
g13
(imyEvolve
Tree
p1400
(dp1401
g8
(imyEvolve
Tree
p1402
(dp1403
g13
(imyEvolve
Tree
p1404
(dp1405
g8
(imyEvolve
Tree
p1406
(dp1407
g7
I0
sg22
F2.0182598892802117
sg18
I01
sbsg7
I1
sg19
(imyEvolve
Tree
p1408
(dp1409
g7
I0
sg22
F-0.6815055302108419
sg18
I01
sbsg23
I00
sg24
g74
sbsg7
I2
sg23
I01
sg24
g33
sbsg7
I3
sg19
(imyEvolve
Tree
p1410
(dp1411
g8
(imyEvolve
Tree
p1412
(dp1413
g8
(imyEvolve
Tree
p1414
(dp1415
g7
I0
sg22
F0.987800766893292
sg18
I01
sbsg7
I1
sg19
(imyEvolve
Tree
p1416
(dp1417
g7
I0
sg18
I00
sbsg23
I00
sg24
g25
sbsg7
I2
sg19
(imyEvolve
Tree
p1418
(dp1419
g13
(imyEvolve
Tree
p1420
(dp1421
g7
I0
sg22
F-4.372264894270918
sg18
I01
sbsg7
I1
sg23
I01
sg24
g161
sbsg23
I00
sg24
g49
sbsg23
I00
sg24
g74
sbsg7
I4
sg23
I01
sg24
g161
sbsg7
I5
sg19
(imyEvolve
Tree
p1422
(dp1423
g8
(imyEvolve
Tree
p1424
(dp1425
g8
(imyEvolve
Tree
p1426
(dp1427
g13
(imyEvolve
Tree
p1428
(dp1429
g8
(imyEvolve
Tree
p1430
(dp1431
g7
I0
sg18
I00
sbsg7
I1
sg19
(imyEvolve
Tree
p1432
(dp1433
g7
I0
sg18
I00
sbsg23
I00
sg24
g25
sbsg7
I2
sg23
I01
sg24
g26
sbsg7
I3
sg19
(imyEvolve
Tree
p1434
(dp1435
g13
(imyEvolve
Tree
p1436
(dp1437
g13
(imyEvolve
Tree
p1438
(dp1439
g7
I0
sg22
F3.781626519726922
sg18
I01
sbsg7
I1
sg23
I01
sg24
g26
sbsg7
I2
sg23
I01
sg24
g34
sbsg23
I00
sg24
g49
sbsg7
I4
sg19
(imyEvolve
Tree
p1440
(dp1441
g13
(imyEvolve
Tree
p1442
(dp1443
g13
(imyEvolve
Tree
p1444
(dp1445
g8
(imyEvolve
Tree
p1446
(dp1447
g7
I0
sg18
I00
sbsg7
I1
sg19
(imyEvolve
Tree
p1448
(dp1449
g7
I0
sg18
I00
sbsg23
I00
sg24
g49
sbsg7
I2
sg23
I01
sg24
g161
sbsg7
I3
sg23
I01
sg24
g34
sbsg23
I00
sg24
g74
sbsg23
I00
sg24
g74
sba(imyEvolve
Tree
p1450
(dp1451
g13
(imyEvolve
Tree
p1452
(dp1453
g13
(imyEvolve
Tree
p1454
(dp1455
g7
I1
sg8
(imyEvolve
Tree
p1456
(dp1457
g7
I0
sg18
I00
sbsg19
(imyEvolve
Tree
p1458
(dp1459
g7
I0
sg18
I00
sbsg23
I00
sg24
g49
sbsg7
I2
sg23
I01
sg24
g33
sbsg7
I3
sg23
I01
sg24
g34
sba(imyEvolve
Tree
p1460
(dp1461
g13
(imyEvolve
Tree
p1462
(dp1463
g7
I1
sg8
(imyEvolve
Tree
p1464
(dp1465
g7
I0
sg18
I00
sbsg19
(imyEvolve
Tree
p1466
(dp1467
g7
I0
sg18
I00
sbsg23
I00
sg24
g25
sbsg7
I2
sg23
I01
sg24
g34
sbaasS'alpha'
p1468
F0.008813362556550913
sS'fitness'
p1469
cnumpy.core.multiarray
scalar
p1470
(cnumpy
dtype
p1471
(S'f8'
p1472
I0
I1
tp1473
Rp1474
(I3
S'<'
p1475
NNNI-1
I-1
I0
tp1476
bS'\x00\xf1\xf4J\xa6\x91k?'
p1477
tp1478
Rp1479
sS'weightSharing'
p1480
(lp1481
I00
aI00
asS'fitnessValid'
p1482
I00
sS'resolution'
p1483
I88
sb.