(imyEvolve
Individual
p0
(dp1
S'funcs'
p2
(lp3
(lp4
(imyEvolve
Tree
p5
(dp6
S'below'
p7
(imyEvolve
Tree
p8
(dp9
S'depth'
p10
I2
sS'left'
p11
(imyEvolve
Tree
p12
(dp13
g7
(imyEvolve
Tree
p14
(dp15
g10
I0
sS'constant'
p16
F-3.5273747701275218
sS'isConstant'
p17
I01
sbsg10
I1
sS'single'
p18
I01
sS'op'
p19
cmath
sin
p20
sbsS'right'
p21
(imyEvolve
Tree
p22
(dp23
g7
(imyEvolve
Tree
p24
(dp25
g10
I0
sg17
I00
sbsg10
I1
sg18
I01
sg19
cmyEvolve
absSqrt
p26
sbsg18
I00
sg19
coperator
add
p27
sbsg10
I3
sg18
I01
sg19
g20
sba(imyEvolve
Tree
p28
(dp29
g7
(imyEvolve
Tree
p30
(dp31
g7
(imyEvolve
Tree
p32
(dp33
g7
(imyEvolve
Tree
p34
(dp35
g10
I0
sg16
F-1.0676867234258292
sg17
I01
sbsg10
I1
sg18
I01
sg19
cmyEvolve
square
p36
sbsg10
I2
sg18
I01
sg19
g26
sbsg10
I3
sg18
I01
sg19
g36
sba(imyEvolve
Tree
p37
(dp38
g10
I3
sg11
(imyEvolve
Tree
p39
(dp40
g7
(imyEvolve
Tree
p41
(dp42
g10
I1
sg11
(imyEvolve
Tree
p43
(dp44
g10
I0
sg16
F4.416573997492243
sg17
I01
sbsg21
(imyEvolve
Tree
p45
(dp46
g10
I0
sg16
F0.6843106414584579
sg17
I01
sbsg18
I00
sg19
coperator
mul
p47
sbsg10
I2
sg18
I01
sg19
g20
sbsg21
(imyEvolve
Tree
p48
(dp49
g7
(imyEvolve
Tree
p50
(dp51
g10
I1
sg11
(imyEvolve
Tree
p52
(dp53
g10
I0
sg17
I00
sbsg21
(imyEvolve
Tree
p54
(dp55
g10
I0
sg16
F0.1705859045665985
sg17
I01
sbsg18
I00
sg19
coperator
sub
p56
sbsg10
I2
sg18
I01
sg19
g20
sbsg18
I00
sg19
g47
sba(imyEvolve
Tree
p57
(dp58
g10
I4
sg11
(imyEvolve
Tree
p59
(dp60
g10
I3
sg11
(imyEvolve
Tree
p61
(dp62
g10
I2
sg11
(imyEvolve
Tree
p63
(dp64
g7
(imyEvolve
Tree
p65
(dp66
g10
I0
sg17
I00
sbsg10
I1
sg18
I01
sg19
cmath
cos
p67
sbsg21
(imyEvolve
Tree
p68
(dp69
g10
I1
sg11
(imyEvolve
Tree
p70
(dp71
g10
I0
sg16
F-3.5268534141182695
sg17
I01
sbsg21
(imyEvolve
Tree
p72
(dp73
g10
I0
sg16
F1.1065687939702666
sg17
I01
sbsg18
I00
sg19
g27
sbsg18
I00
sg19
g27
sbsg21
(imyEvolve
Tree
p74
(dp75
g7
(imyEvolve
Tree
p76
(dp77
g10
I1
sg11
(imyEvolve
Tree
p78
(dp79
g10
I0
sg17
I00
sbsg21
(imyEvolve
Tree
p80
(dp81
g10
I0
sg17
I00
sbsg18
I00
sg19
g47
sbsg10
I2
sg18
I01
sg19
g67
sbsg18
I00
sg19
g56
sbsg21
(imyEvolve
Tree
p82
(dp83
g10
I3
sg11
(imyEvolve
Tree
p84
(dp85
g10
I2
sg11
(imyEvolve
Tree
p86
(dp87
g10
I1
sg11
(imyEvolve
Tree
p88
(dp89
g10
I0
sg16
F2.29151119223724
sg17
I01
sbsg21
(imyEvolve
Tree
p90
(dp91
g10
I0
sg17
I00
sbsg18
I00
sg19
g47
sbsg21
(imyEvolve
Tree
p92
(dp93
g10
I1
sg11
(imyEvolve
Tree
p94
(dp95
g10
I0
sg16
F-2.9193619780460702
sg17
I01
sbsg21
(imyEvolve
Tree
p96
(dp97
g10
I0
sg17
I00
sbsg18
I00
sg19
g56
sbsg18
I00
sg19
g56
sbsg21
(imyEvolve
Tree
p98
(dp99
g7
(imyEvolve
Tree
p100
(dp101
g7
(imyEvolve
Tree
p102
(dp103
g10
I0
sg17
I00
sbsg10
I1
sg18
I01
sg19
g26
sbsg10
I2
sg18
I01
sg19
g26
sbsg18
I00
sg19
g47
sbsg18
I00
sg19
g47
sba(imyEvolve
Tree
p104
(dp105
g10
I2
sg11
(imyEvolve
Tree
p106
(dp107
g7
(imyEvolve
Tree
p108
(dp109
g10
I0
sg17
I00
sbsg10
I1
sg18
I01
sg19
g36
sbsg21
(imyEvolve
Tree
p110
(dp111
g10
I1
sg11
(imyEvolve
Tree
p112
(dp113
g10
I0
sg16
F-0.06337062716497854
sg17
I01
sbsg21
(imyEvolve
Tree
p114
(dp115
g10
I0
sg17
I00
sbsg18
I00
sg19
g56
sbsg18
I00
sg19
g27
sba(imyEvolve
Tree
p116
(dp117
g10
I5
sg11
(imyEvolve
Tree
p118
(dp119
g7
(imyEvolve
Tree
p120
(dp121
g7
(imyEvolve
Tree
p122
(dp123
g10
I2
sg11
(imyEvolve
Tree
p124
(dp125
g10
I1
sg11
(imyEvolve
Tree
p126
(dp127
g10
I0
sg17
I00
sbsg21
(imyEvolve
Tree
p128
(dp129
g10
I0
sg17
I00
sbsg18
I00
sg19
g27
sbsg21
(imyEvolve
Tree
p130
(dp131
g7
(imyEvolve
Tree
p132
(dp133
g10
I0
sg17
I00
sbsg10
I1
sg18
I01
sg19
g20
sbsg18
I00
sg19
g56
sbsg10
I3
sg18
I01
sg19
g67
sbsg10
I4
sg18
I01
sg19
g20
sbsg21
(imyEvolve
Tree
p134
(dp135
g7
(imyEvolve
Tree
p136
(dp137
g10
I3
sg11
(imyEvolve
Tree
p138
(dp139
g10
I2
sg11
(imyEvolve
Tree
p140
(dp141
g7
(imyEvolve
Tree
p142
(dp143
g10
I0
sg16
F1.7980031298390102
sg17
I01
sbsg10
I1
sg18
I01
sg19
g20
sbsg21
(imyEvolve
Tree
p144
(dp145
g10
I1
sg11
(imyEvolve
Tree
p146
(dp147
g10
I0
sg17
I00
sbsg21
(imyEvolve
Tree
p148
(dp149
g10
I0
sg16
F-0.6850399022934841
sg17
I01
sbsg18
I00
sg19
g56
sbsg18
I00
sg19
g47
sbsg21
(imyEvolve
Tree
p150
(dp151
g7
(imyEvolve
Tree
p152
(dp153
g10
I1
sg11
(imyEvolve
Tree
p154
(dp155
g10
I0
sg17
I00
sbsg21
(imyEvolve
Tree
p156
(dp157
g10
I0
sg17
I00
sbsg18
I00
sg19
g47
sbsg10
I2
sg18
I01
sg19
g36
sbsg18
I00
sg19
g47
sbsg10
I4
sg18
I01
sg19
g26
sbsg18
I00
sg19
g56
sba(imyEvolve
Tree
p158
(dp159
g7
(imyEvolve
Tree
p160
(dp161
g10
I1
sg11
(imyEvolve
Tree
p162
(dp163
g10
I0
sg17
I00
sbsg21
(imyEvolve
Tree
p164
(dp165
g10
I0
sg16
F-3.067866220895045
sg17
I01
sbsg18
I00
sg19
g56
sbsg10
I2
sg18
I01
sg19
g36
sba(imyEvolve
Tree
p166
(dp167
g10
I5
sg11
(imyEvolve
Tree
p168
(dp169
g10
I4
sg11
(imyEvolve
Tree
p170
(dp171
g7
(imyEvolve
Tree
p172
(dp173
g10
I2
sg11
(imyEvolve
Tree
p174
(dp175
g10
I1
sg11
(imyEvolve
Tree
p176
(dp177
g10
I0
sg16
F2.92136496301437
sg17
I01
sbsg21
(imyEvolve
Tree
p178
(dp179
g10
I0
sg17
I00
sbsg18
I00
sg19
g27
sbsg21
(imyEvolve
Tree
p180
(dp181
g10
I1
sg11
(imyEvolve
Tree
p182
(dp183
g10
I0
sg16
F3.315878222238357
sg17
I01
sbsg21
(imyEvolve
Tree
p184
(dp185
g10
I0
sg16
F4.609539258311376
sg17
I01
sbsg18
I00
sg19
g47
sbsg18
I00
sg19
g27
sbsg10
I3
sg18
I01
sg19
g26
sbsg21
(imyEvolve
Tree
p186
(dp187
g10
I3
sg11
(imyEvolve
Tree
p188
(dp189
g10
I2
sg11
(imyEvolve
Tree
p190
(dp191
g7
(imyEvolve
Tree
p192
(dp193
g10
I0
sg17
I00
sbsg10
I1
sg18
I01
sg19
g36
sbsg21
(imyEvolve
Tree
p194
(dp195
g7
(imyEvolve
Tree
p196
(dp197
g10
I0
sg17
I00
sbsg10
I1
sg18
I01
sg19
g67
sbsg18
I00
sg19
g47
sbsg21
(imyEvolve
Tree
p198
(dp199
g7
(imyEvolve
Tree
p200
(dp201
g10
I1
sg11
(imyEvolve
Tree
p202
(dp203
g10
I0
sg17
I00
sbsg21
(imyEvolve
Tree
p204
(dp205
g10
I0
sg17
I00
sbsg18
I00
sg19
g47
sbsg10
I2
sg18
I01
sg19
g20
sbsg18
I00
sg19
g47
sbsg18
I00
sg19
g56
sbsg21
(imyEvolve
Tree
p206
(dp207
g10
I4
sg11
(imyEvolve
Tree
p208
(dp209
g10
I3
sg11
(imyEvolve
Tree
p210
(dp211
g7
(imyEvolve
Tree
p212
(dp213
g10
I1
sg11
(imyEvolve
Tree
p214
(dp215
g10
I0
sg17
I00
sbsg21
(imyEvolve
Tree
p216
(dp217
g10
I0
sg16
F-3.337401132469858
sg17
I01
sbsg18
I00
sg19
g56
sbsg10
I2
sg18
I01
sg19
g67
sbsg21
(imyEvolve
Tree
p218
(dp219
g10
I2
sg11
(imyEvolve
Tree
p220
(dp221
g7
(imyEvolve
Tree
p222
(dp223
g10
I0
sg17
I00
sbsg10
I1
sg18
I01
sg19
g67
sbsg21
(imyEvolve
Tree
p224
(dp225
g7
(imyEvolve
Tree
p226
(dp227
g10
I0
sg16
F2.861683140810957
sg17
I01
sbsg10
I1
sg18
I01
sg19
g20
sbsg18
I00
sg19
g47
sbsg18
I00
sg19
g47
sbsg21
(imyEvolve
Tree
p228
(dp229
g10
I3
sg11
(imyEvolve
Tree
p230
(dp231
g7
(imyEvolve
Tree
p232
(dp233
g7
(imyEvolve
Tree
p234
(dp235
g10
I0
sg16
F-0.6820614335772088
sg17
I01
sbsg10
I1
sg18
I01
sg19
g36
sbsg10
I2
sg18
I01
sg19
g36
sbsg21
(imyEvolve
Tree
p236
(dp237
g10
I2
sg11
(imyEvolve
Tree
p238
(dp239
g10
I1
sg11
(imyEvolve
Tree
p240
(dp241
g10
I0
sg16
F0.44391666096558513
sg17
I01
sbsg21
(imyEvolve
Tree
p242
(dp243
g10
I0
sg16
F0.41634858946520126
sg17
I01
sbsg18
I00
sg19
g56
sbsg21
(imyEvolve
Tree
p244
(dp245
g7
(imyEvolve
Tree
p246
(dp247
g10
I0
sg17
I00
sbsg10
I1
sg18
I01
sg19
g26
sbsg18
I00
sg19
g27
sbsg18
I00
sg19
g47
sbsg18
I00
sg19
g56
sbsg18
I00
sg19
g27
sba(imyEvolve
Tree
p248
(dp249
g10
I5
sg11
(imyEvolve
Tree
p250
(dp251
g10
I4
sg11
(imyEvolve
Tree
p252
(dp253
g7
(imyEvolve
Tree
p254
(dp255
g7
(imyEvolve
Tree
p256
(dp257
g10
I1
sg11
(imyEvolve
Tree
p258
(dp259
g10
I0
sg17
I00
sbsg21
(imyEvolve
Tree
p260
(dp261
g10
I0
sg17
I00
sbsg18
I00
sg19
g56
sbsg10
I2
sg18
I01
sg19
g20
sbsg10
I3
sg18
I01
sg19
g26
sbsg21
(imyEvolve
Tree
p262
(dp263
g7
(imyEvolve
Tree
p264
(dp265
g7
(imyEvolve
Tree
p266
(dp267
g10
I1
sg11
(imyEvolve
Tree
p268
(dp269
g10
I0
sg16
F3.85536947606424
sg17
I01
sbsg21
(imyEvolve
Tree
p270
(dp271
g10
I0
sg16
F3.4223538114192866
sg17
I01
sbsg18
I00
sg19
g47
sbsg10
I2
sg18
I01
sg19
g26
sbsg10
I3
sg18
I01
sg19
g36
sbsg18
I00
sg19
g27
sbsg21
(imyEvolve
Tree
p272
(dp273
g10
I4
sg11
(imyEvolve
Tree
p274
(dp275
g7
(imyEvolve
Tree
p276
(dp277
g7
(imyEvolve
Tree
p278
(dp279
g10
I1
sg11
(imyEvolve
Tree
p280
(dp281
g10
I0
sg16
F3.3105208699351127
sg17
I01
sbsg21
(imyEvolve
Tree
p282
(dp283
g10
I0
sg16
F-2.4729474459732
sg17
I01
sbsg18
I00
sg19
g47
sbsg10
I2
sg18
I01
sg19
g36
sbsg10
I3
sg18
I01
sg19
g26
sbsg21
(imyEvolve
Tree
p284
(dp285
g10
I3
sg11
(imyEvolve
Tree
p286
(dp287
g10
I2
sg11
(imyEvolve
Tree
p288
(dp289
g7
(imyEvolve
Tree
p290
(dp291
g10
I0
sg16
F-4.26202900158712
sg17
I01
sbsg10
I1
sg18
I01
sg19
g26
sbsg21
(imyEvolve
Tree
p292
(dp293
g7
(imyEvolve
Tree
p294
(dp295
g10
I0
sg16
F-0.5880022841775387
sg17
I01
sbsg10
I1
sg18
I01
sg19
g67
sbsg18
I00
sg19
g27
sbsg21
(imyEvolve
Tree
p296
(dp297
g10
I2
sg11
(imyEvolve
Tree
p298
(dp299
g7
(imyEvolve
Tree
p300
(dp301
g10
I0
sg16
F-1.1261831572951286
sg17
I01
sbsg10
I1
sg18
I01
sg19
g67
sbsg21
(imyEvolve
Tree
p302
(dp303
g7
(imyEvolve
Tree
p304
(dp305
g10
I0
sg17
I00
sbsg10
I1
sg18
I01
sg19
g26
sbsg18
I00
sg19
g27
sbsg18
I00
sg19
g27
sbsg18
I00
sg19
g56
sbsg18
I00
sg19
g47
sba(imyEvolve
Tree
p306
(dp307
g10
I4
sg11
(imyEvolve
Tree
p308
(dp309
g7
(imyEvolve
Tree
p310
(dp311
g7
(imyEvolve
Tree
p312
(dp313
g7
(imyEvolve
Tree
p314
(dp315
g10
I0
sg17
I00
sbsg10
I1
sg18
I01
sg19
g20
sbsg10
I2
sg18
I01
sg19
g26
sbsg10
I3
sg18
I01
sg19
g36
sbsg21
(imyEvolve
Tree
p316
(dp317
g7
(imyEvolve
Tree
p318
(dp319
g10
I2
sg11
(imyEvolve
Tree
p320
(dp321
g10
I1
sg11
(imyEvolve
Tree
p322
(dp323
g10
I0
sg16
F-4.332691437957621
sg17
I01
sbsg21
(imyEvolve
Tree
p324
(dp325
g10
I0
sg16
F1.6291686341772191
sg17
I01
sbsg18
I00
sg19
g56
sbsg21
(imyEvolve
Tree
p326
(dp327
g10
I1
sg11
(imyEvolve
Tree
p328
(dp329
g10
I0
sg16
F-4.155379954655711
sg17
I01
sbsg21
(imyEvolve
Tree
p330
(dp331
g10
I0
sg16
F2.5624100166482675
sg17
I01
sbsg18
I00
sg19
g56
sbsg18
I00
sg19
g47
sbsg10
I3
sg18
I01
sg19
g36
sbsg18
I00
sg19
g27
sba(imyEvolve
Tree
p332
(dp333
g10
I4
sg11
(imyEvolve
Tree
p334
(dp335
g10
I3
sg11
(imyEvolve
Tree
p336
(dp337
g7
(imyEvolve
Tree
p338
(dp339
g10
I1
sg11
(imyEvolve
Tree
p340
(dp341
g10
I0
sg17
I00
sbsg21
(imyEvolve
Tree
p342
(dp343
g10
I0
sg17
I00
sbsg18
I00
sg19
g27
sbsg10
I2
sg18
I01
sg19
g26
sbsg21
(imyEvolve
Tree
p344
(dp345
g10
I2
sg11
(imyEvolve
Tree
p346
(dp347
g7
(imyEvolve
Tree
p348
(dp349
g10
I0
sg16
F-0.7747709361183999
sg17
I01
sbsg10
I1
sg18
I01
sg19
g36
sbsg21
(imyEvolve
Tree
p350
(dp351
g7
(imyEvolve
Tree
p352
(dp353
g10
I0
sg16
F0.2338048904162413
sg17
I01
sbsg10
I1
sg18
I01
sg19
g26
sbsg18
I00
sg19
g27
sbsg18
I00
sg19
g56
sbsg21
(imyEvolve
Tree
p354
(dp355
g7
(imyEvolve
Tree
p356
(dp357
g7
(imyEvolve
Tree
p358
(dp359
g10
I1
sg11
(imyEvolve
Tree
p360
(dp361
g10
I0
sg17
I00
sbsg21
(imyEvolve
Tree
p362
(dp363
g10
I0
sg16
F-1.8385049732154624
sg17
I01
sbsg18
I00
sg19
g27
sbsg10
I2
sg18
I01
sg19
g67
sbsg10
I3
sg18
I01
sg19
g20
sbsg18
I00
sg19
g56
sba(imyEvolve
Tree
p364
(dp365
g10
I5
sg11
(imyEvolve
Tree
p366
(dp367
g7
(imyEvolve
Tree
p368
(dp369
g10
I3
sg11
(imyEvolve
Tree
p370
(dp371
g10
I2
sg11
(imyEvolve
Tree
p372
(dp373
g10
I1
sg11
(imyEvolve
Tree
p374
(dp375
g10
I0
sg17
I00
sbsg21
(imyEvolve
Tree
p376
(dp377
g10
I0
sg16
F4.25276234940964
sg17
I01
sbsg18
I00
sg19
g27
sbsg21
(imyEvolve
Tree
p378
(dp379
g10
I1
sg11
(imyEvolve
Tree
p380
(dp381
g10
I0
sg16
F3.0494172035949756
sg17
I01
sbsg21
(imyEvolve
Tree
p382
(dp383
g10
I0
sg16
F-2.688389247685631
sg17
I01
sbsg18
I00
sg19
g27
sbsg18
I00
sg19
g47
sbsg21
(imyEvolve
Tree
p384
(dp385
g7
(imyEvolve
Tree
p386
(dp387
g7
(imyEvolve
Tree
p388
(dp389
g10
I0
sg16
F4.710075798226921
sg17
I01
sbsg10
I1
sg18
I01
sg19
g26
sbsg10
I2
sg18
I01
sg19
g20
sbsg18
I00
sg19
g27
sbsg10
I4
sg18
I01
sg19
g26
sbsg21
(imyEvolve
Tree
p390
(dp391
g7
(imyEvolve
Tree
p392
(dp393
g10
I3
sg11
(imyEvolve
Tree
p394
(dp395
g7
(imyEvolve
Tree
p396
(dp397
g7
(imyEvolve
Tree
p398
(dp399
g10
I0
sg17
I00
sbsg10
I1
sg18
I01
sg19
g26
sbsg10
I2
sg18
I01
sg19
g36
sbsg21
(imyEvolve
Tree
p400
(dp401
g10
I2
sg11
(imyEvolve
Tree
p402
(dp403
g10
I1
sg11
(imyEvolve
Tree
p404
(dp405
g10
I0
sg17
I00
sbsg21
(imyEvolve
Tree
p406
(dp407
g10
I0
sg16
F3.5477789016262804
sg17
I01
sbsg18
I00
sg19
g27
sbsg21
(imyEvolve
Tree
p408
(dp409
g10
I1
sg11
(imyEvolve
Tree
p410
(dp411
g10
I0
sg16
F2.152364663120978
sg17
I01
sbsg21
(imyEvolve
Tree
p412
(dp413
g10
I0
sg16
F4.040680738572924
sg17
I01
sbsg18
I00
sg19
g56
sbsg18
I00
sg19
g27
sbsg18
I00
sg19
g47
sbsg10
I4
sg18
I01
sg19
g36
sbsg18
I00
sg19
g56
sba(imyEvolve
Tree
p414
(dp415
g7
(imyEvolve
Tree
p416
(dp417
g10
I2
sg11
(imyEvolve
Tree
p418
(dp419
g10
I1
sg11
(imyEvolve
Tree
p420
(dp421
g10
I0
sg16
F4.393957332222868
sg17
I01
sbsg21
(imyEvolve
Tree
p422
(dp423
g10
I0
sg16
F-0.3116403545550366
sg17
I01
sbsg18
I00
sg19
g47
sbsg21
(imyEvolve
Tree
p424
(dp425
g7
(imyEvolve
Tree
p426
(dp427
g10
I0
sg17
I00
sbsg10
I1
sg18
I01
sg19
g67
sbsg18
I00
sg19
g56
sbsg10
I3
sg18
I01
sg19
g67
sba(imyEvolve
Tree
p428
(dp429
g10
I4
sg11
(imyEvolve
Tree
p430
(dp431
g10
I3
sg11
(imyEvolve
Tree
p432
(dp433
g7
(imyEvolve
Tree
p434
(dp435
g7
(imyEvolve
Tree
p436
(dp437
g10
I0
sg17
I00
sbsg10
I1
sg18
I01
sg19
g20
sbsg10
I2
sg18
I01
sg19
g20
sbsg21
(imyEvolve
Tree
p438
(dp439
g10
I2
sg11
(imyEvolve
Tree
p440
(dp441
g10
I1
sg11
(imyEvolve
Tree
p442
(dp443
g10
I0
sg17
I00
sbsg21
(imyEvolve
Tree
p444
(dp445
g10
I0
sg16
F-4.1229365803858
sg17
I01
sbsg18
I00
sg19
g47
sbsg21
(imyEvolve
Tree
p446
(dp447
g7
(imyEvolve
Tree
p448
(dp449
g10
I0
sg17
I00
sbsg10
I1
sg18
I01
sg19
g20
sbsg18
I00
sg19
g27
sbsg18
I00
sg19
g56
sbsg21
(imyEvolve
Tree
p450
(dp451
g7
(imyEvolve
Tree
p452
(dp453
g10
I2
sg11
(imyEvolve
Tree
p454
(dp455
g7
(imyEvolve
Tree
p456
(dp457
g10
I0
sg16
F-2.6896001708161332
sg17
I01
sbsg10
I1
sg18
I01
sg19
g26
sbsg21
(imyEvolve
Tree
p458
(dp459
g10
I1
sg11
(imyEvolve
Tree
p460
(dp461
g10
I0
sg17
I00
sbsg21
(imyEvolve
Tree
p462
(dp463
g10
I0
sg17
I00
sbsg18
I00
sg19
g27
sbsg18
I00
sg19
g47
sbsg10
I3
sg18
I01
sg19
g26
sbsg18
I00
sg19
g27
sba(imyEvolve
Tree
p464
(dp465
g7
(imyEvolve
Tree
p466
(dp467
g10
I4
sg11
(imyEvolve
Tree
p468
(dp469
g10
I3
sg11
(imyEvolve
Tree
p470
(dp471
g10
I2
sg11
(imyEvolve
Tree
p472
(dp473
g7
(imyEvolve
Tree
p474
(dp475
g10
I0
sg17
I00
sbsg10
I1
sg18
I01
sg19
g67
sbsg21
(imyEvolve
Tree
p476
(dp477
g7
(imyEvolve
Tree
p478
(dp479
g10
I0
sg16
F-1.4580551734747225
sg17
I01
sbsg10
I1
sg18
I01
sg19
g36
sbsg18
I00
sg19
g27
sbsg21
(imyEvolve
Tree
p480
(dp481
g7
(imyEvolve
Tree
p482
(dp483
g7
(imyEvolve
Tree
p484
(dp485
g10
I0
sg16
F4.141759107688809
sg17
I01
sbsg10
I1
sg18
I01
sg19
g20
sbsg10
I2
sg18
I01
sg19
g26
sbsg18
I00
sg19
g56
sbsg21
(imyEvolve
Tree
p486
(dp487
g10
I3
sg11
(imyEvolve
Tree
p488
(dp489
g7
(imyEvolve
Tree
p490
(dp491
g7
(imyEvolve
Tree
p492
(dp493
g10
I0
sg16
F-1.2452390772791833
sg17
I01
sbsg10
I1
sg18
I01
sg19
g36
sbsg10
I2
sg18
I01
sg19
g36
sbsg21
(imyEvolve
Tree
p494
(dp495
g10
I2
sg11
(imyEvolve
Tree
p496
(dp497
g10
I1
sg11
(imyEvolve
Tree
p498
(dp499
g10
I0
sg16
F2.7612760243696393
sg17
I01
sbsg21
(imyEvolve
Tree
p500
(dp501
g10
I0
sg16
F3.4778320967095926
sg17
I01
sbsg18
I00
sg19
g27
sbsg21
(imyEvolve
Tree
p502
(dp503
g10
I1
sg11
(imyEvolve
Tree
p504
(dp505
g10
I0
sg16
F3.9682253347041563
sg17
I01
sbsg21
(imyEvolve
Tree
p506
(dp507
g10
I0
sg17
I00
sbsg18
I00
sg19
g56
sbsg18
I00
sg19
g27
sbsg18
I00
sg19
g27
sbsg18
I00
sg19
g27
sbsg10
I5
sg18
I01
sg19
g67
sba(imyEvolve
Tree
p508
(dp509
g7
(imyEvolve
Tree
p510
(dp511
g10
I3
sg11
(imyEvolve
Tree
p512
(dp513
g10
I2
sg11
(imyEvolve
Tree
p514
(dp515
g7
(imyEvolve
Tree
p516
(dp517
g10
I0
sg16
F2.338370304756401
sg17
I01
sbsg10
I1
sg18
I01
sg19
g26
sbsg21
(imyEvolve
Tree
p518
(dp519
g7
(imyEvolve
Tree
p520
(dp521
g10
I0
sg16
F-4.440473609420788
sg17
I01
sbsg10
I1
sg18
I01
sg19
g36
sbsg18
I00
sg19
g56
sbsg21
(imyEvolve
Tree
p522
(dp523
g7
(imyEvolve
Tree
p524
(dp525
g7
(imyEvolve
Tree
p526
(dp527
g10
I0
sg17
I00
sbsg10
I1
sg18
I01
sg19
g36
sbsg10
I2
sg18
I01
sg19
g67
sbsg18
I00
sg19
g56
sbsg10
I4
sg18
I01
sg19
g20
sbaasS'weightSharing'
p528
(lp529
I00
aI00
aI00
aI00
aI00
aI00
aI00
aI00
aI00
aI00
aI00
aI00
aI00
asS'fitnessValid'
p530
I00
sS'fitness'
p531
cnumpy.core.multiarray
scalar
p532
(cnumpy
dtype
p533
(S'f8'
p534
I0
I1
tp535
Rp536
(I3
S'<'
p537
NNNI-1
I-1
I0
tp538
bS'\x00(\xff!}.0\xbf'
p539
tp540
Rp541
sS'alpha'
p542
F0.004294098412775099
sS'resolution'
p543
I46
sb.