(imyEvolve
Individual
p0
(dp1
S'funcs'
p2
(lp3
(lp4
(imyEvolve
Tree
p5
(dp6
S'below'
p7
(imyEvolve
Tree
p8
(dp9
g7
(imyEvolve
Tree
p10
(dp11
S'depth'
p12
I0
sS'isConstant'
p13
I00
sbsg12
I1
sS'single'
p14
I01
sS'op'
p15
cmath
cos
p16
sbsg12
I2
sg14
I01
sg15
cmyEvolve
square
p17
sba(imyEvolve
Tree
p18
(dp19
S'left'
p20
(imyEvolve
Tree
p21
(dp22
g7
(imyEvolve
Tree
p23
(dp24
g20
(imyEvolve
Tree
p25
(dp26
g12
I0
sS'constant'
p27
F0.23403116206035524
sg13
I01
sbsg12
I1
sS'right'
p28
(imyEvolve
Tree
p29
(dp30
g12
I0
sg13
I00
sbsg14
I00
sg15
coperator
sub
p31
sbsg12
I2
sg14
I01
sg15
g17
sbsg12
I3
sg28
(imyEvolve
Tree
p32
(dp33
g20
(imyEvolve
Tree
p34
(dp35
g20
(imyEvolve
Tree
p36
(dp37
g12
I0
sg27
F3.5569515997570402
sg13
I01
sbsg12
I1
sg28
(imyEvolve
Tree
p38
(dp39
g12
I0
sg27
F2.219843764454441
sg13
I01
sbsg14
I00
sg15
coperator
mul
p40
sbsg12
I2
sg28
(imyEvolve
Tree
p41
(dp42
g7
(imyEvolve
Tree
p43
(dp44
g12
I0
sg13
I00
sbsg12
I1
sg14
I01
sg15
cmath
sin
p45
sbsg14
I00
sg15
coperator
add
p46
sbsg14
I00
sg15
g31
sba(imyEvolve
Tree
p47
(dp48
g20
(imyEvolve
Tree
p49
(dp50
g20
(imyEvolve
Tree
p51
(dp52
g12
I0
sg13
I00
sbsg12
I1
sg28
(imyEvolve
Tree
p53
(dp54
g12
I0
sg13
I00
sbsg14
I00
sg15
g31
sbsg12
I2
sg28
(imyEvolve
Tree
p55
(dp56
g20
(imyEvolve
Tree
p57
(dp58
g12
I0
sg13
I00
sbsg12
I1
sg28
(imyEvolve
Tree
p59
(dp60
g12
I0
sg27
F1.1997862212991812
sg13
I01
sbsg14
I00
sg15
g40
sbsg14
I00
sg15
g46
sba(imyEvolve
Tree
p61
(dp62
g12
I3
sg20
(imyEvolve
Tree
p63
(dp64
g12
I2
sg20
(imyEvolve
Tree
p65
(dp66
g12
I1
sg20
(imyEvolve
Tree
p67
(dp68
g12
I0
sg13
I00
sbsg28
(imyEvolve
Tree
p69
(dp70
g12
I0
sg13
I00
sbsg14
I00
sg15
g31
sbsg28
(imyEvolve
Tree
p71
(dp72
g7
(imyEvolve
Tree
p73
(dp74
g12
I0
sg27
F-4.573955579427233
sg13
I01
sbsg12
I1
sg14
I01
sg15
g17
sbsg14
I00
sg15
g46
sbsg28
(imyEvolve
Tree
p75
(dp76
g7
(imyEvolve
Tree
p77
(dp78
g7
(imyEvolve
Tree
p79
(dp80
g12
I0
sg27
F-3.6989871548962263
sg13
I01
sbsg12
I1
sg14
I01
sg15
g17
sbsg12
I2
sg14
I01
sg15
g45
sbsg14
I00
sg15
g46
sba(imyEvolve
Tree
p81
(dp82
g12
I2
sg20
(imyEvolve
Tree
p83
(dp84
g12
I1
sg20
(imyEvolve
Tree
p85
(dp86
g12
I0
sg13
I00
sbsg28
(imyEvolve
Tree
p87
(dp88
g12
I0
sg13
I00
sbsg14
I00
sg15
g46
sbsg28
(imyEvolve
Tree
p89
(dp90
g7
(imyEvolve
Tree
p91
(dp92
g12
I0
sg13
I00
sbsg12
I1
sg14
I01
sg15
g45
sbsg14
I00
sg15
g40
sba(imyEvolve
Tree
p93
(dp94
g7
(imyEvolve
Tree
p95
(dp96
g7
(imyEvolve
Tree
p97
(dp98
g7
(imyEvolve
Tree
p99
(dp100
g7
(imyEvolve
Tree
p101
(dp102
g12
I0
sg13
I00
sbsg12
I1
sg14
I01
sg15
g17
sbsg12
I2
sg14
I01
sg15
g45
sbsg12
I3
sg14
I01
sg15
g17
sbsg12
I4
sg14
I01
sg15
g16
sba(imyEvolve
Tree
p103
(dp104
g7
(imyEvolve
Tree
p105
(dp106
g20
(imyEvolve
Tree
p107
(dp108
g12
I0
sg27
F0.7333504045363748
sg13
I01
sbsg12
I1
sg28
(imyEvolve
Tree
p109
(dp110
g12
I0
sg13
I00
sbsg14
I00
sg15
g40
sbsg12
I2
sg14
I01
sg15
cmyEvolve
absSqrt
p111
sba(imyEvolve
Tree
p112
(dp113
g7
(imyEvolve
Tree
p114
(dp115
g7
(imyEvolve
Tree
p116
(dp117
g7
(imyEvolve
Tree
p118
(dp119
g20
(imyEvolve
Tree
p120
(dp121
g7
(imyEvolve
Tree
p122
(dp123
g12
I0
sg27
F-1.5266529772187711
sg13
I01
sbsg12
I1
sg14
I01
sg15
g16
sbsg12
I2
sg28
(imyEvolve
Tree
p124
(dp125
g20
(imyEvolve
Tree
p126
(dp127
g12
I0
sg27
F2.490962801265403
sg13
I01
sbsg12
I1
sg28
(imyEvolve
Tree
p128
(dp129
g12
I0
sg13
I00
sbsg14
I00
sg15
g31
sbsg14
I00
sg15
g46
sbsg12
I3
sg14
I01
sg15
g45
sbsg12
I4
sg14
I01
sg15
g111
sbsg12
I5
sg14
I01
sg15
g111
sba(imyEvolve
Tree
p130
(dp131
g7
(imyEvolve
Tree
p132
(dp133
g7
(imyEvolve
Tree
p134
(dp135
g20
(imyEvolve
Tree
p136
(dp137
g12
I0
sg13
I00
sbsg12
I1
sg28
(imyEvolve
Tree
p138
(dp139
g12
I0
sg27
F0.12237748139200111
sg13
I01
sbsg14
I00
sg15
g40
sbsg12
I2
sg14
I01
sg15
g45
sbsg12
I3
sg14
I01
sg15
g111
sba(imyEvolve
Tree
p140
(dp141
g12
I4
sg20
(imyEvolve
Tree
p142
(dp143
g7
(imyEvolve
Tree
p144
(dp145
g12
I2
sg20
(imyEvolve
Tree
p146
(dp147
g12
I1
sg20
(imyEvolve
Tree
p148
(dp149
g12
I0
sg27
F-2.2868671117625228
sg13
I01
sbsg28
(imyEvolve
Tree
p150
(dp151
g12
I0
sg27
F4.748384301519627
sg13
I01
sbsg14
I00
sg15
g46
sbsg28
(imyEvolve
Tree
p152
(dp153
g12
I1
sg20
(imyEvolve
Tree
p154
(dp155
g12
I0
sg27
F-1.2181457041601682
sg13
I01
sbsg28
(imyEvolve
Tree
p156
(dp157
g12
I0
sg13
I00
sbsg14
I00
sg15
g46
sbsg14
I00
sg15
g40
sbsg12
I3
sg14
I01
sg15
g45
sbsg28
(imyEvolve
Tree
p158
(dp159
g12
I3
sg20
(imyEvolve
Tree
p160
(dp161
g7
(imyEvolve
Tree
p162
(dp163
g7
(imyEvolve
Tree
p164
(dp165
g12
I0
sg13
I00
sbsg12
I1
sg14
I01
sg15
g45
sbsg12
I2
sg14
I01
sg15
g45
sbsg28
(imyEvolve
Tree
p166
(dp167
g12
I2
sg20
(imyEvolve
Tree
p168
(dp169
g12
I1
sg20
(imyEvolve
Tree
p170
(dp171
g12
I0
sg27
F3.2862453286649522
sg13
I01
sbsg28
(imyEvolve
Tree
p172
(dp173
g12
I0
sg13
I00
sbsg14
I00
sg15
g46
sbsg28
(imyEvolve
Tree
p174
(dp175
g7
(imyEvolve
Tree
p176
(dp177
g12
I0
sg13
I00
sbsg12
I1
sg14
I01
sg15
g45
sbsg14
I00
sg15
g31
sbsg14
I00
sg15
g40
sbsg14
I00
sg15
g31
sba(imyEvolve
Tree
p178
(dp179
g7
(imyEvolve
Tree
p180
(dp181
g7
(imyEvolve
Tree
p182
(dp183
g20
(imyEvolve
Tree
p184
(dp185
g12
I0
sg13
I00
sbsg12
I1
sg28
(imyEvolve
Tree
p186
(dp187
g12
I0
sg27
F3.994219386937745
sg13
I01
sbsg14
I00
sg15
g31
sbsg12
I2
sg14
I01
sg15
g45
sbsg12
I3
sg14
I01
sg15
g17
sba(imyEvolve
Tree
p188
(dp189
g20
(imyEvolve
Tree
p190
(dp191
g20
(imyEvolve
Tree
p192
(dp193
g12
I0
sg27
F-1.2994539351659098
sg13
I01
sbsg12
I1
sg28
(imyEvolve
Tree
p194
(dp195
g12
I0
sg27
F-2.5765781421361975
sg13
I01
sbsg14
I00
sg15
g40
sbsg12
I2
sg28
(imyEvolve
Tree
p196
(dp197
g7
(imyEvolve
Tree
p198
(dp199
g12
I0
sg13
I00
sbsg12
I1
sg14
I01
sg15
g16
sbsg14
I00
sg15
g31
sba(imyEvolve
Tree
p200
(dp201
g20
(imyEvolve
Tree
p202
(dp203
g7
(imyEvolve
Tree
p204
(dp205
g7
(imyEvolve
Tree
p206
(dp207
g20
(imyEvolve
Tree
p208
(dp209
g20
(imyEvolve
Tree
p210
(dp211
g12
I0
sg13
I00
sbsg12
I1
sg28
(imyEvolve
Tree
p212
(dp213
g12
I0
sg13
I00
sbsg14
I00
sg15
g31
sbsg12
I2
sg28
(imyEvolve
Tree
p214
(dp215
g20
(imyEvolve
Tree
p216
(dp217
g12
I0
sg27
F4.633644690498791
sg13
I01
sbsg12
I1
sg28
(imyEvolve
Tree
p218
(dp219
g12
I0
sg27
F-1.3904863030402037
sg13
I01
sbsg14
I00
sg15
g40
sbsg14
I00
sg15
g40
sbsg12
I3
sg14
I01
sg15
g45
sbsg12
I4
sg14
I01
sg15
g17
sbsg12
I5
sg28
(imyEvolve
Tree
p220
(dp221
g20
(imyEvolve
Tree
p222
(dp223
g7
(imyEvolve
Tree
p224
(dp225
g7
(imyEvolve
Tree
p226
(dp227
g20
(imyEvolve
Tree
p228
(dp229
g12
I0
sg13
I00
sbsg12
I1
sg28
(imyEvolve
Tree
p230
(dp231
g12
I0
sg13
I00
sbsg14
I00
sg15
g40
sbsg12
I2
sg14
I01
sg15
g111
sbsg12
I3
sg14
I01
sg15
g45
sbsg12
I4
sg28
(imyEvolve
Tree
p232
(dp233
g20
(imyEvolve
Tree
p234
(dp235
g7
(imyEvolve
Tree
p236
(dp237
g7
(imyEvolve
Tree
p238
(dp239
g12
I0
sg27
F2.548957050353157
sg13
I01
sbsg12
I1
sg14
I01
sg15
g45
sbsg12
I2
sg14
I01
sg15
g45
sbsg12
I3
sg28
(imyEvolve
Tree
p240
(dp241
g20
(imyEvolve
Tree
p242
(dp243
g7
(imyEvolve
Tree
p244
(dp245
g12
I0
sg27
F-0.19701794788683635
sg13
I01
sbsg12
I1
sg14
I01
sg15
g17
sbsg12
I2
sg28
(imyEvolve
Tree
p246
(dp247
g20
(imyEvolve
Tree
p248
(dp249
g12
I0
sg13
I00
sbsg12
I1
sg28
(imyEvolve
Tree
p250
(dp251
g12
I0
sg27
F-2.619881128855911
sg13
I01
sbsg14
I00
sg15
g46
sbsg14
I00
sg15
g40
sbsg14
I00
sg15
g40
sbsg14
I00
sg15
g46
sbsg14
I00
sg15
g46
sba(imyEvolve
Tree
p252
(dp253
g7
(imyEvolve
Tree
p254
(dp255
g7
(imyEvolve
Tree
p256
(dp257
g20
(imyEvolve
Tree
p258
(dp259
g7
(imyEvolve
Tree
p260
(dp261
g7
(imyEvolve
Tree
p262
(dp263
g12
I0
sg13
I00
sbsg12
I1
sg14
I01
sg15
g45
sbsg12
I2
sg14
I01
sg15
g17
sbsg12
I3
sg28
(imyEvolve
Tree
p264
(dp265
g20
(imyEvolve
Tree
p266
(dp267
g7
(imyEvolve
Tree
p268
(dp269
g12
I0
sg27
F-4.496614673175651
sg13
I01
sbsg12
I1
sg14
I01
sg15
g111
sbsg12
I2
sg28
(imyEvolve
Tree
p270
(dp271
g7
(imyEvolve
Tree
p272
(dp273
g12
I0
sg13
I00
sbsg12
I1
sg14
I01
sg15
g111
sbsg14
I00
sg15
g31
sbsg14
I00
sg15
g46
sbsg12
I4
sg14
I01
sg15
g45
sbsg12
I5
sg14
I01
sg15
g111
sba(imyEvolve
Tree
p274
(dp275
g7
(imyEvolve
Tree
p276
(dp277
g12
I3
sg20
(imyEvolve
Tree
p278
(dp279
g7
(imyEvolve
Tree
p280
(dp281
g12
I1
sg20
(imyEvolve
Tree
p282
(dp283
g12
I0
sg27
F2.071844224924848
sg13
I01
sbsg28
(imyEvolve
Tree
p284
(dp285
g12
I0
sg27
F-3.7709059141483667
sg13
I01
sbsg14
I00
sg15
g40
sbsg12
I2
sg14
I01
sg15
g111
sbsg28
(imyEvolve
Tree
p286
(dp287
g12
I2
sg20
(imyEvolve
Tree
p288
(dp289
g7
(imyEvolve
Tree
p290
(dp291
g12
I0
sg13
I00
sbsg12
I1
sg14
I01
sg15
g16
sbsg28
(imyEvolve
Tree
p292
(dp293
g7
(imyEvolve
Tree
p294
(dp295
g12
I0
sg27
F-4.786307026009525
sg13
I01
sbsg12
I1
sg14
I01
sg15
g16
sbsg14
I00
sg15
g40
sbsg14
I00
sg15
g40
sbsg12
I4
sg14
I01
sg15
g16
sba(imyEvolve
Tree
p296
(dp297
g12
I4
sg20
(imyEvolve
Tree
p298
(dp299
g12
I3
sg20
(imyEvolve
Tree
p300
(dp301
g12
I2
sg20
(imyEvolve
Tree
p302
(dp303
g12
I1
sg20
(imyEvolve
Tree
p304
(dp305
g12
I0
sg27
F4.147165322026771
sg13
I01
sbsg28
(imyEvolve
Tree
p306
(dp307
g12
I0
sg13
I00
sbsg14
I00
sg15
g46
sbsg28
(imyEvolve
Tree
p308
(dp309
g12
I1
sg20
(imyEvolve
Tree
p310
(dp311
g12
I0
sg13
I00
sbsg28
(imyEvolve
Tree
p312
(dp313
g12
I0
sg27
F1.0363483091789236
sg13
I01
sbsg14
I00
sg15
g46
sbsg14
I00
sg15
g46
sbsg28
(imyEvolve
Tree
p314
(dp315
g12
I2
sg20
(imyEvolve
Tree
p316
(dp317
g12
I1
sg20
(imyEvolve
Tree
p318
(dp319
g12
I0
sg13
I00
sbsg28
(imyEvolve
Tree
p320
(dp321
g12
I0
sg13
I00
sbsg14
I00
sg15
g40
sbsg28
(imyEvolve
Tree
p322
(dp323
g12
I1
sg20
(imyEvolve
Tree
p324
(dp325
g12
I0
sg27
F2.0091089185904965
sg13
I01
sbsg28
(imyEvolve
Tree
p326
(dp327
g12
I0
sg27
F-0.913595773029229
sg13
I01
sbsg14
I00
sg15
g46
sbsg14
I00
sg15
g46
sbsg14
I00
sg15
g40
sbsg28
(imyEvolve
Tree
p328
(dp329
g7
(imyEvolve
Tree
p330
(dp331
g7
(imyEvolve
Tree
p332
(dp333
g12
I1
sg20
(imyEvolve
Tree
p334
(dp335
g12
I0
sg13
I00
sbsg28
(imyEvolve
Tree
p336
(dp337
g12
I0
sg27
F-2.79411065380617
sg13
I01
sbsg14
I00
sg15
g40
sbsg12
I2
sg14
I01
sg15
g17
sbsg12
I3
sg14
I01
sg15
g17
sbsg14
I00
sg15
g40
sba(imyEvolve
Tree
p338
(dp339
g20
(imyEvolve
Tree
p340
(dp341
g20
(imyEvolve
Tree
p342
(dp343
g7
(imyEvolve
Tree
p344
(dp345
g12
I0
sg27
F-1.5928010025755048
sg13
I01
sbsg12
I1
sg14
I01
sg15
g16
sbsg12
I2
sg28
(imyEvolve
Tree
p346
(dp347
g20
(imyEvolve
Tree
p348
(dp349
g12
I0
sg27
F-0.2856660002625251
sg13
I01
sbsg12
I1
sg28
(imyEvolve
Tree
p350
(dp351
g12
I0
sg27
F4.192145816549843
sg13
I01
sbsg14
I00
sg15
g40
sbsg14
I00
sg15
g31
sbsg12
I3
sg28
(imyEvolve
Tree
p352
(dp353
g20
(imyEvolve
Tree
p354
(dp355
g20
(imyEvolve
Tree
p356
(dp357
g12
I0
sg27
F4.963102354681556
sg13
I01
sbsg12
I1
sg28
(imyEvolve
Tree
p358
(dp359
g12
I0
sg13
I00
sbsg14
I00
sg15
g31
sbsg12
I2
sg28
(imyEvolve
Tree
p360
(dp361
g7
(imyEvolve
Tree
p362
(dp363
g12
I0
sg13
I00
sbsg12
I1
sg14
I01
sg15
g45
sbsg14
I00
sg15
g46
sbsg14
I00
sg15
g46
sba(imyEvolve
Tree
p364
(dp365
g12
I5
sg20
(imyEvolve
Tree
p366
(dp367
g12
I4
sg20
(imyEvolve
Tree
p368
(dp369
g7
(imyEvolve
Tree
p370
(dp371
g12
I2
sg20
(imyEvolve
Tree
p372
(dp373
g7
(imyEvolve
Tree
p374
(dp375
g12
I0
sg13
I00
sbsg12
I1
sg14
I01
sg15
g17
sbsg28
(imyEvolve
Tree
p376
(dp377
g7
(imyEvolve
Tree
p378
(dp379
g12
I0
sg27
F2.615445017995116
sg13
I01
sbsg12
I1
sg14
I01
sg15
g111
sbsg14
I00
sg15
g31
sbsg12
I3
sg14
I01
sg15
g45
sbsg28
(imyEvolve
Tree
p380
(dp381
g7
(imyEvolve
Tree
p382
(dp383
g7
(imyEvolve
Tree
p384
(dp385
g7
(imyEvolve
Tree
p386
(dp387
g12
I0
sg27
F3.5725969043144374
sg13
I01
sbsg12
I1
sg14
I01
sg15
g16
sbsg12
I2
sg14
I01
sg15
g111
sbsg12
I3
sg14
I01
sg15
g111
sbsg14
I00
sg15
g46
sbsg28
(imyEvolve
Tree
p388
(dp389
g12
I4
sg20
(imyEvolve
Tree
p390
(dp391
g7
(imyEvolve
Tree
p392
(dp393
g12
I2
sg20
(imyEvolve
Tree
p394
(dp395
g7
(imyEvolve
Tree
p396
(dp397
g12
I0
sg13
I00
sbsg12
I1
sg14
I01
sg15
g16
sbsg28
(imyEvolve
Tree
p398
(dp399
g7
(imyEvolve
Tree
p400
(dp401
g12
I0
sg27
F4.8533903799978955
sg13
I01
sbsg12
I1
sg14
I01
sg15
g17
sbsg14
I00
sg15
g46
sbsg12
I3
sg14
I01
sg15
g16
sbsg28
(imyEvolve
Tree
p402
(dp403
g7
(imyEvolve
Tree
p404
(dp405
g7
(imyEvolve
Tree
p406
(dp407
g7
(imyEvolve
Tree
p408
(dp409
g12
I0
sg27
F1.6429659242531418
sg13
I01
sbsg12
I1
sg14
I01
sg15
g45
sbsg12
I2
sg14
I01
sg15
g45
sbsg12
I3
sg14
I01
sg15
g17
sbsg14
I00
sg15
g31
sbsg14
I00
sg15
g31
sba(imyEvolve
Tree
p410
(dp411
g7
(imyEvolve
Tree
p412
(dp413
g12
I2
sg20
(imyEvolve
Tree
p414
(dp415
g7
(imyEvolve
Tree
p416
(dp417
g12
I0
sg13
I00
sbsg12
I1
sg14
I01
sg15
g17
sbsg28
(imyEvolve
Tree
p418
(dp419
g12
I1
sg20
(imyEvolve
Tree
p420
(dp421
g12
I0
sg13
I00
sbsg28
(imyEvolve
Tree
p422
(dp423
g12
I0
sg27
F-4.709571216332613
sg13
I01
sbsg14
I00
sg15
g40
sbsg14
I00
sg15
g40
sbsg12
I3
sg14
I01
sg15
g45
sbaasS'alpha'
p424
F0.0012068478921166473
sS'fitness'
p425
cnumpy.core.multiarray
scalar
p426
(cnumpy
dtype
p427
(S'f8'
p428
I0
I1
tp429
Rp430
(I3
S'<'
p431
NNNI-1
I-1
I0
tp432
bS'C\xadi:\xb8\x1e\xe6?'
p433
tp434
Rp435
sS'weightSharing'
p436
(lp437
I00
aI00
asS'fitnessValid'
p438
I00
sS'resolution'
p439
I81
sb.