(imyEvolve
Individual
p0
(dp1
S'funcs'
p2
(lp3
(lp4
(imyEvolve
Tree
p5
(dp6
S'below'
p7
(imyEvolve
Tree
p8
(dp9
g7
(imyEvolve
Tree
p10
(dp11
S'depth'
p12
I1
sS'left'
p13
(imyEvolve
Tree
p14
(dp15
g12
I0
sS'constant'
p16
F-1.3259106706317825
sS'isConstant'
p17
I01
sbsS'right'
p18
(imyEvolve
Tree
p19
(dp20
g12
I0
sg17
I00
sbsS'single'
p21
I00
sS'op'
p22
coperator
add
p23
sbsg12
I2
sg21
I01
sg22
cmyEvolve
absSqrt
p24
sbsg12
I3
sg21
I01
sg22
cmath
cos
p25
sba(imyEvolve
Tree
p26
(dp27
g7
(imyEvolve
Tree
p28
(dp29
g13
(imyEvolve
Tree
p30
(dp31
g7
(imyEvolve
Tree
p32
(dp33
g12
I0
sg16
F-0.7573524128027485
sg17
I01
sbsg12
I1
sg21
I01
sg22
cmath
sin
p34
sbsg12
I2
sg18
(imyEvolve
Tree
p35
(dp36
g13
(imyEvolve
Tree
p37
(dp38
g12
I0
sg16
F-0.4033370162106902
sg17
I01
sbsg12
I1
sg18
(imyEvolve
Tree
p39
(dp40
g12
I0
sg16
F0.9046919294210376
sg17
I01
sbsg21
I00
sg22
coperator
mul
p41
sbsg21
I00
sg22
g23
sbsg12
I3
sg21
I01
sg22
g34
sba(imyEvolve
Tree
p42
(dp43
g7
(imyEvolve
Tree
p44
(dp45
g13
(imyEvolve
Tree
p46
(dp47
g12
I0
sg17
I00
sbsg12
I1
sg18
(imyEvolve
Tree
p48
(dp49
g12
I0
sg16
F-1.5297780222098778
sg17
I01
sbsg21
I00
sg22
g23
sbsg12
I2
sg21
I01
sg22
cmyEvolve
square
p50
sba(imyEvolve
Tree
p51
(dp52
g13
(imyEvolve
Tree
p53
(dp54
g13
(imyEvolve
Tree
p55
(dp56
g7
(imyEvolve
Tree
p57
(dp58
g13
(imyEvolve
Tree
p59
(dp60
g7
(imyEvolve
Tree
p61
(dp62
g12
I0
sg16
F-1.4627284152354947
sg17
I01
sbsg12
I1
sg21
I01
sg22
g24
sbsg12
I2
sg18
(imyEvolve
Tree
p63
(dp64
g13
(imyEvolve
Tree
p65
(dp66
g12
I0
sg17
I00
sbsg12
I1
sg18
(imyEvolve
Tree
p67
(dp68
g12
I0
sg17
I00
sbsg21
I00
sg22
g41
sbsg21
I00
sg22
g41
sbsg12
I3
sg21
I01
sg22
g24
sbsg12
I4
sg18
(imyEvolve
Tree
p69
(dp70
g7
(imyEvolve
Tree
p71
(dp72
g13
(imyEvolve
Tree
p73
(dp74
g7
(imyEvolve
Tree
p75
(dp76
g12
I0
sg16
F-4.178526413143969
sg17
I01
sbsg12
I1
sg21
I01
sg22
g24
sbsg12
I2
sg18
(imyEvolve
Tree
p77
(dp78
g13
(imyEvolve
Tree
p79
(dp80
g12
I0
sg16
F-0.3947798601193728
sg17
I01
sbsg12
I1
sg18
(imyEvolve
Tree
p81
(dp82
g12
I0
sg16
F-3.688284187974149
sg17
I01
sbsg21
I00
sg22
g41
sbsg21
I00
sg22
g41
sbsg12
I3
sg21
I01
sg22
g34
sbsg21
I00
sg22
coperator
sub
p83
sbsg12
I5
sg18
(imyEvolve
Tree
p84
(dp85
g13
(imyEvolve
Tree
p86
(dp87
g7
(imyEvolve
Tree
p88
(dp89
g13
(imyEvolve
Tree
p90
(dp91
g7
(imyEvolve
Tree
p92
(dp93
g12
I0
sg17
I00
sbsg12
I1
sg21
I01
sg22
g50
sbsg12
I2
sg18
(imyEvolve
Tree
p94
(dp95
g13
(imyEvolve
Tree
p96
(dp97
g12
I0
sg17
I00
sbsg12
I1
sg18
(imyEvolve
Tree
p98
(dp99
g12
I0
sg17
I00
sbsg21
I00
sg22
g41
sbsg21
I00
sg22
g23
sbsg12
I3
sg21
I01
sg22
g50
sbsg12
I4
sg18
(imyEvolve
Tree
p100
(dp101
g13
(imyEvolve
Tree
p102
(dp103
g7
(imyEvolve
Tree
p104
(dp105
g13
(imyEvolve
Tree
p106
(dp107
g12
I0
sg16
F3.435970457466368
sg17
I01
sbsg12
I1
sg18
(imyEvolve
Tree
p108
(dp109
g12
I0
sg16
F-1.8967526745248176
sg17
I01
sbsg21
I00
sg22
g83
sbsg12
I2
sg21
I01
sg22
g25
sbsg12
I3
sg18
(imyEvolve
Tree
p110
(dp111
g13
(imyEvolve
Tree
p112
(dp113
g13
(imyEvolve
Tree
p114
(dp115
g12
I0
sg17
I00
sbsg12
I1
sg18
(imyEvolve
Tree
p116
(dp117
g12
I0
sg17
I00
sbsg21
I00
sg22
g23
sbsg12
I2
sg18
(imyEvolve
Tree
p118
(dp119
g13
(imyEvolve
Tree
p120
(dp121
g12
I0
sg16
F-4.261280436482378
sg17
I01
sbsg12
I1
sg18
(imyEvolve
Tree
p122
(dp123
g12
I0
sg17
I00
sbsg21
I00
sg22
g23
sbsg21
I00
sg22
g41
sbsg21
I00
sg22
g83
sbsg21
I00
sg22
g23
sbsg21
I00
sg22
g83
sba(imyEvolve
Tree
p124
(dp125
g7
(imyEvolve
Tree
p126
(dp127
g13
(imyEvolve
Tree
p128
(dp129
g13
(imyEvolve
Tree
p130
(dp131
g7
(imyEvolve
Tree
p132
(dp133
g7
(imyEvolve
Tree
p134
(dp135
g12
I0
sg17
I00
sbsg12
I1
sg21
I01
sg22
g34
sbsg12
I2
sg21
I01
sg22
g24
sbsg12
I3
sg18
(imyEvolve
Tree
p136
(dp137
g13
(imyEvolve
Tree
p138
(dp139
g7
(imyEvolve
Tree
p140
(dp141
g12
I0
sg16
F1.6332381595393155
sg17
I01
sbsg12
I1
sg21
I01
sg22
g24
sbsg12
I2
sg18
(imyEvolve
Tree
p142
(dp143
g7
(imyEvolve
Tree
p144
(dp145
g12
I0
sg17
I00
sbsg12
I1
sg21
I01
sg22
g50
sbsg21
I00
sg22
g23
sbsg21
I00
sg22
g23
sbsg12
I4
sg18
(imyEvolve
Tree
p146
(dp147
g7
(imyEvolve
Tree
p148
(dp149
g13
(imyEvolve
Tree
p150
(dp151
g13
(imyEvolve
Tree
p152
(dp153
g12
I0
sg16
F4.8524345854550965
sg17
I01
sbsg12
I1
sg18
(imyEvolve
Tree
p154
(dp155
g12
I0
sg16
F0.8169634613320884
sg17
I01
sbsg21
I00
sg22
g41
sbsg12
I2
sg18
(imyEvolve
Tree
p156
(dp157
g7
(imyEvolve
Tree
p158
(dp159
g12
I0
sg17
I00
sbsg12
I1
sg21
I01
sg22
g50
sbsg21
I00
sg22
g83
sbsg12
I3
sg21
I01
sg22
g34
sbsg21
I00
sg22
g41
sbsg12
I5
sg21
I01
sg22
g50
sba(imyEvolve
Tree
p160
(dp161
g7
(imyEvolve
Tree
p162
(dp163
g13
(imyEvolve
Tree
p164
(dp165
g7
(imyEvolve
Tree
p166
(dp167
g12
I0
sg17
I00
sbsg12
I1
sg21
I01
sg22
g24
sbsg12
I2
sg18
(imyEvolve
Tree
p168
(dp169
g13
(imyEvolve
Tree
p170
(dp171
g12
I0
sg16
F-3.4731268840405005
sg17
I01
sbsg12
I1
sg18
(imyEvolve
Tree
p172
(dp173
g12
I0
sg16
F0.7724480232484101
sg17
I01
sbsg21
I00
sg22
g23
sbsg21
I00
sg22
g41
sbsg12
I3
sg21
I01
sg22
g25
sba(imyEvolve
Tree
p174
(dp175
g7
(imyEvolve
Tree
p176
(dp177
g7
(imyEvolve
Tree
p178
(dp179
g7
(imyEvolve
Tree
p180
(dp181
g7
(imyEvolve
Tree
p182
(dp183
g12
I1
sg13
(imyEvolve
Tree
p184
(dp185
g12
I0
sg16
F3.5739166373583426
sg17
I01
sbsg18
(imyEvolve
Tree
p186
(dp187
g12
I0
sg17
I00
sbsg21
I00
sg22
g83
sbsg12
I2
sg21
I01
sg22
g24
sbsg12
I3
sg21
I01
sg22
g24
sbsg12
I4
sg21
I01
sg22
g24
sbsg12
I5
sg21
I01
sg22
g25
sba(imyEvolve
Tree
p188
(dp189
g7
(imyEvolve
Tree
p190
(dp191
g7
(imyEvolve
Tree
p192
(dp193
g12
I0
sg16
F0.2913606689884407
sg17
I01
sbsg12
I1
sg21
I01
sg22
g24
sbsg12
I2
sg21
I01
sg22
g25
sba(imyEvolve
Tree
p194
(dp195
g7
(imyEvolve
Tree
p196
(dp197
g7
(imyEvolve
Tree
p198
(dp199
g13
(imyEvolve
Tree
p200
(dp201
g13
(imyEvolve
Tree
p202
(dp203
g12
I0
sg16
F-2.029690646546981
sg17
I01
sbsg12
I1
sg18
(imyEvolve
Tree
p204
(dp205
g12
I0
sg16
F3.739655075523169
sg17
I01
sbsg21
I00
sg22
g23
sbsg12
I2
sg18
(imyEvolve
Tree
p206
(dp207
g13
(imyEvolve
Tree
p208
(dp209
g12
I0
sg17
I00
sbsg12
I1
sg18
(imyEvolve
Tree
p210
(dp211
g12
I0
sg17
I00
sbsg21
I00
sg22
g41
sbsg21
I00
sg22
g23
sbsg12
I3
sg21
I01
sg22
g25
sbsg12
I4
sg21
I01
sg22
g34
sba(imyEvolve
Tree
p212
(dp213
g7
(imyEvolve
Tree
p214
(dp215
g7
(imyEvolve
Tree
p216
(dp217
g13
(imyEvolve
Tree
p218
(dp219
g13
(imyEvolve
Tree
p220
(dp221
g12
I0
sg17
I00
sbsg12
I1
sg18
(imyEvolve
Tree
p222
(dp223
g12
I0
sg17
I00
sbsg21
I00
sg22
g23
sbsg12
I2
sg18
(imyEvolve
Tree
p224
(dp225
g7
(imyEvolve
Tree
p226
(dp227
g12
I0
sg17
I00
sbsg12
I1
sg21
I01
sg22
g24
sbsg21
I00
sg22
g83
sbsg12
I3
sg21
I01
sg22
g34
sbsg12
I4
sg21
I01
sg22
g34
sba(imyEvolve
Tree
p228
(dp229
g13
(imyEvolve
Tree
p230
(dp231
g13
(imyEvolve
Tree
p232
(dp233
g12
I0
sg17
I00
sbsg12
I1
sg18
(imyEvolve
Tree
p234
(dp235
g12
I0
sg17
I00
sbsg21
I00
sg22
g41
sbsg12
I2
sg18
(imyEvolve
Tree
p236
(dp237
g7
(imyEvolve
Tree
p238
(dp239
g12
I0
sg17
I00
sbsg12
I1
sg21
I01
sg22
g25
sbsg21
I00
sg22
g41
sba(imyEvolve
Tree
p240
(dp241
g13
(imyEvolve
Tree
p242
(dp243
g13
(imyEvolve
Tree
p244
(dp245
g12
I0
sg17
I00
sbsg12
I1
sg18
(imyEvolve
Tree
p246
(dp247
g12
I0
sg16
F3.550381872075338
sg17
I01
sbsg21
I00
sg22
g83
sbsg12
I2
sg18
(imyEvolve
Tree
p248
(dp249
g13
(imyEvolve
Tree
p250
(dp251
g12
I0
sg17
I00
sbsg12
I1
sg18
(imyEvolve
Tree
p252
(dp253
g12
I0
sg16
F3.361405058196036
sg17
I01
sbsg21
I00
sg22
g23
sbsg21
I00
sg22
g41
sba(imyEvolve
Tree
p254
(dp255
g7
(imyEvolve
Tree
p256
(dp257
g12
I4
sg13
(imyEvolve
Tree
p258
(dp259
g12
I3
sg13
(imyEvolve
Tree
p260
(dp261
g7
(imyEvolve
Tree
p262
(dp263
g7
(imyEvolve
Tree
p264
(dp265
g12
I0
sg16
F2.289535159586312
sg17
I01
sbsg12
I1
sg21
I01
sg22
g34
sbsg12
I2
sg21
I01
sg22
g24
sbsg18
(imyEvolve
Tree
p266
(dp267
g7
(imyEvolve
Tree
p268
(dp269
g7
(imyEvolve
Tree
p270
(dp271
g12
I0
sg16
F4.797851206631352
sg17
I01
sbsg12
I1
sg21
I01
sg22
g24
sbsg12
I2
sg21
I01
sg22
g34
sbsg21
I00
sg22
g23
sbsg18
(imyEvolve
Tree
p272
(dp273
g7
(imyEvolve
Tree
p274
(dp275
g12
I2
sg13
(imyEvolve
Tree
p276
(dp277
g7
(imyEvolve
Tree
p278
(dp279
g12
I0
sg17
I00
sbsg12
I1
sg21
I01
sg22
g24
sbsg18
(imyEvolve
Tree
p280
(dp281
g7
(imyEvolve
Tree
p282
(dp283
g12
I0
sg16
F3.044837172347423
sg17
I01
sbsg12
I1
sg21
I01
sg22
g24
sbsg21
I00
sg22
g41
sbsg12
I3
sg21
I01
sg22
g50
sbsg21
I00
sg22
g23
sbsg12
I5
sg21
I01
sg22
g34
sba(imyEvolve
Tree
p284
(dp285
g7
(imyEvolve
Tree
p286
(dp287
g7
(imyEvolve
Tree
p288
(dp289
g7
(imyEvolve
Tree
p290
(dp291
g7
(imyEvolve
Tree
p292
(dp293
g12
I1
sg13
(imyEvolve
Tree
p294
(dp295
g12
I0
sg16
F-0.8063442685256597
sg17
I01
sbsg18
(imyEvolve
Tree
p296
(dp297
g12
I0
sg17
I00
sbsg21
I00
sg22
g83
sbsg12
I2
sg21
I01
sg22
g24
sbsg12
I3
sg21
I01
sg22
g25
sbsg12
I4
sg21
I01
sg22
g24
sbsg12
I5
sg21
I01
sg22
g50
sba(imyEvolve
Tree
p298
(dp299
g7
(imyEvolve
Tree
p300
(dp301
g13
(imyEvolve
Tree
p302
(dp303
g7
(imyEvolve
Tree
p304
(dp305
g12
I0
sg17
I00
sbsg12
I1
sg21
I01
sg22
g34
sbsg12
I2
sg18
(imyEvolve
Tree
p306
(dp307
g13
(imyEvolve
Tree
p308
(dp309
g12
I0
sg17
I00
sbsg12
I1
sg18
(imyEvolve
Tree
p310
(dp311
g12
I0
sg17
I00
sbsg21
I00
sg22
g83
sbsg21
I00
sg22
g83
sbsg12
I3
sg21
I01
sg22
g24
sba(imyEvolve
Tree
p312
(dp313
g13
(imyEvolve
Tree
p314
(dp315
g13
(imyEvolve
Tree
p316
(dp317
g12
I0
sg16
F-2.6035793568859567
sg17
I01
sbsg12
I1
sg18
(imyEvolve
Tree
p318
(dp319
g12
I0
sg17
I00
sbsg21
I00
sg22
g23
sbsg12
I2
sg18
(imyEvolve
Tree
p320
(dp321
g13
(imyEvolve
Tree
p322
(dp323
g12
I0
sg17
I00
sbsg12
I1
sg18
(imyEvolve
Tree
p324
(dp325
g12
I0
sg17
I00
sbsg21
I00
sg22
g83
sbsg21
I00
sg22
g83
sba(imyEvolve
Tree
p326
(dp327
g12
I2
sg13
(imyEvolve
Tree
p328
(dp329
g12
I1
sg13
(imyEvolve
Tree
p330
(dp331
g12
I0
sg16
F-4.373194074516523
sg17
I01
sbsg18
(imyEvolve
Tree
p332
(dp333
g12
I0
sg16
F-1.4187084441204076
sg17
I01
sbsg21
I00
sg22
g83
sbsg18
(imyEvolve
Tree
p334
(dp335
g12
I1
sg13
(imyEvolve
Tree
p336
(dp337
g12
I0
sg16
F-2.4798977581386583
sg17
I01
sbsg18
(imyEvolve
Tree
p338
(dp339
g12
I0
sg17
I00
sbsg21
I00
sg22
g83
sbsg21
I00
sg22
g41
sba(imyEvolve
Tree
p340
(dp341
g13
(imyEvolve
Tree
p342
(dp343
g13
(imyEvolve
Tree
p344
(dp345
g12
I0
sg16
F3.178338160170977
sg17
I01
sbsg12
I1
sg18
(imyEvolve
Tree
p346
(dp347
g12
I0
sg17
I00
sbsg21
I00
sg22
g83
sbsg12
I2
sg18
(imyEvolve
Tree
p348
(dp349
g13
(imyEvolve
Tree
p350
(dp351
g12
I0
sg16
F4.65916394773997
sg17
I01
sbsg12
I1
sg18
(imyEvolve
Tree
p352
(dp353
g12
I0
sg17
I00
sbsg21
I00
sg22
g23
sbsg21
I00
sg22
g41
sbaa(lp354
(imyEvolve
Tree
p355
(dp356
g7
(imyEvolve
Tree
p357
(dp358
g13
(imyEvolve
Tree
p359
(dp360
g13
(imyEvolve
Tree
p361
(dp362
g12
I0
sg17
I00
sbsg12
I1
sg18
(imyEvolve
Tree
p363
(dp364
g12
I0
sg17
I00
sbsg21
I00
sg22
g23
sbsg12
I2
sg18
(imyEvolve
Tree
p365
(dp366
g7
(imyEvolve
Tree
p367
(dp368
g12
I0
sg17
I00
sbsg12
I1
sg21
I01
sg22
g24
sbsg21
I00
sg22
g83
sbsg12
I3
sg21
I01
sg22
g50
sba(imyEvolve
Tree
p369
(dp370
g7
(imyEvolve
Tree
p371
(dp372
g13
(imyEvolve
Tree
p373
(dp374
g13
(imyEvolve
Tree
p375
(dp376
g7
(imyEvolve
Tree
p377
(dp378
g12
I0
sg17
I00
sbsg12
I1
sg21
I01
sg22
g50
sbsg12
I2
sg18
(imyEvolve
Tree
p379
(dp380
g7
(imyEvolve
Tree
p381
(dp382
g12
I0
sg17
I00
sbsg12
I1
sg21
I01
sg22
g24
sbsg21
I00
sg22
g23
sbsg12
I3
sg18
(imyEvolve
Tree
p383
(dp384
g13
(imyEvolve
Tree
p385
(dp386
g7
(imyEvolve
Tree
p387
(dp388
g12
I0
sg17
I00
sbsg12
I1
sg21
I01
sg22
g24
sbsg12
I2
sg18
(imyEvolve
Tree
p389
(dp390
g13
(imyEvolve
Tree
p391
(dp392
g12
I0
sg16
F-0.49695795130495135
sg17
I01
sbsg12
I1
sg18
(imyEvolve
Tree
p393
(dp394
g12
I0
sg17
I00
sbsg21
I00
sg22
g41
sbsg21
I00
sg22
g41
sbsg21
I00
sg22
g41
sbsg12
I4
sg21
I01
sg22
g24
sba(imyEvolve
Tree
p395
(dp396
g7
(imyEvolve
Tree
p397
(dp398
g12
I4
sg13
(imyEvolve
Tree
p399
(dp400
g12
I3
sg13
(imyEvolve
Tree
p401
(dp402
g7
(imyEvolve
Tree
p403
(dp404
g7
(imyEvolve
Tree
p405
(dp406
g12
I0
sg16
F-2.207411241146601
sg17
I01
sbsg12
I1
sg21
I01
sg22
g25
sbsg12
I2
sg21
I01
sg22
g50
sbsg18
(imyEvolve
Tree
p407
(dp408
g7
(imyEvolve
Tree
p409
(dp410
g7
(imyEvolve
Tree
p411
(dp412
g12
I0
sg17
I00
sbsg12
I1
sg21
I01
sg22
g50
sbsg12
I2
sg21
I01
sg22
g24
sbsg21
I00
sg22
g41
sbsg18
(imyEvolve
Tree
p413
(dp414
g12
I3
sg13
(imyEvolve
Tree
p415
(dp416
g12
I2
sg13
(imyEvolve
Tree
p417
(dp418
g7
(imyEvolve
Tree
p419
(dp420
g12
I0
sg16
F2.3566298755316186
sg17
I01
sbsg12
I1
sg21
I01
sg22
g24
sbsg18
(imyEvolve
Tree
p421
(dp422
g7
(imyEvolve
Tree
p423
(dp424
g12
I0
sg16
F-2.0971215886512464
sg17
I01
sbsg12
I1
sg21
I01
sg22
g34
sbsg21
I00
sg22
g83
sbsg18
(imyEvolve
Tree
p425
(dp426
g12
I2
sg13
(imyEvolve
Tree
p427
(dp428
g12
I1
sg13
(imyEvolve
Tree
p429
(dp430
g12
I0
sg16
F-1.0970801586012024
sg17
I01
sbsg18
(imyEvolve
Tree
p431
(dp432
g12
I0
sg16
F0.05267126676378542
sg17
I01
sbsg21
I00
sg22
g83
sbsg18
(imyEvolve
Tree
p433
(dp434
g12
I1
sg13
(imyEvolve
Tree
p435
(dp436
g12
I0
sg17
I00
sbsg18
(imyEvolve
Tree
p437
(dp438
g12
I0
sg17
I00
sbsg21
I00
sg22
g83
sbsg21
I00
sg22
g41
sbsg21
I00
sg22
g23
sbsg21
I00
sg22
g83
sbsg12
I5
sg21
I01
sg22
g34
sba(imyEvolve
Tree
p439
(dp440
g13
(imyEvolve
Tree
p441
(dp442
g13
(imyEvolve
Tree
p443
(dp444
g12
I0
sg16
F-3.0558260228894008
sg17
I01
sbsg12
I1
sg18
(imyEvolve
Tree
p445
(dp446
g12
I0
sg17
I00
sbsg21
I00
sg22
g23
sbsg12
I2
sg18
(imyEvolve
Tree
p447
(dp448
g13
(imyEvolve
Tree
p449
(dp450
g12
I0
sg16
F-1.4200020506221467
sg17
I01
sbsg12
I1
sg18
(imyEvolve
Tree
p451
(dp452
g12
I0
sg17
I00
sbsg21
I00
sg22
g41
sbsg21
I00
sg22
g23
sba(imyEvolve
Tree
p453
(dp454
g13
(imyEvolve
Tree
p455
(dp456
g13
(imyEvolve
Tree
p457
(dp458
g7
(imyEvolve
Tree
p459
(dp460
g7
(imyEvolve
Tree
p461
(dp462
g12
I0
sg17
I00
sbsg12
I1
sg21
I01
sg22
g34
sbsg12
I2
sg21
I01
sg22
g50
sbsg12
I3
sg18
(imyEvolve
Tree
p463
(dp464
g7
(imyEvolve
Tree
p465
(dp466
g7
(imyEvolve
Tree
p467
(dp468
g12
I0
sg16
F1.0001772943947085
sg17
I01
sbsg12
I1
sg21
I01
sg22
g34
sbsg12
I2
sg21
I01
sg22
g25
sbsg21
I00
sg22
g23
sbsg12
I4
sg18
(imyEvolve
Tree
p469
(dp470
g13
(imyEvolve
Tree
p471
(dp472
g13
(imyEvolve
Tree
p473
(dp474
g13
(imyEvolve
Tree
p475
(dp476
g12
I0
sg17
I00
sbsg12
I1
sg18
(imyEvolve
Tree
p477
(dp478
g12
I0
sg16
F-4.020805249285849
sg17
I01
sbsg21
I00
sg22
g83
sbsg12
I2
sg18
(imyEvolve
Tree
p479
(dp480
g7
(imyEvolve
Tree
p481
(dp482
g12
I0
sg16
F1.3094354558865309
sg17
I01
sbsg12
I1
sg21
I01
sg22
g24
sbsg21
I00
sg22
g83
sbsg12
I3
sg18
(imyEvolve
Tree
p483
(dp484
g7
(imyEvolve
Tree
p485
(dp486
g13
(imyEvolve
Tree
p487
(dp488
g12
I0
sg16
F-3.0168504602466117
sg17
I01
sbsg12
I1
sg18
(imyEvolve
Tree
p489
(dp490
g12
I0
sg16
F0.044594014025860496
sg17
I01
sbsg21
I00
sg22
g41
sbsg12
I2
sg21
I01
sg22
g50
sbsg21
I00
sg22
g41
sbsg21
I00
sg22
g41
sba(imyEvolve
Tree
p491
(dp492
g7
(imyEvolve
Tree
p493
(dp494
g7
(imyEvolve
Tree
p495
(dp496
g7
(imyEvolve
Tree
p497
(dp498
g13
(imyEvolve
Tree
p499
(dp500
g7
(imyEvolve
Tree
p501
(dp502
g12
I0
sg16
F-3.982236252416792
sg17
I01
sbsg12
I1
sg21
I01
sg22
g25
sbsg12
I2
sg18
(imyEvolve
Tree
p503
(dp504
g13
(imyEvolve
Tree
p505
(dp506
g12
I0
sg17
I00
sbsg12
I1
sg18
(imyEvolve
Tree
p507
(dp508
g12
I0
sg16
F-0.7219055781401007
sg17
I01
sbsg21
I00
sg22
g41
sbsg21
I00
sg22
g23
sbsg12
I3
sg21
I01
sg22
g34
sbsg12
I4
sg21
I01
sg22
g50
sbsg12
I5
sg21
I01
sg22
g25
sba(imyEvolve
Tree
p509
(dp510
g13
(imyEvolve
Tree
p511
(dp512
g7
(imyEvolve
Tree
p513
(dp514
g12
I0
sg16
F-1.8765376310571802
sg17
I01
sbsg12
I1
sg21
I01
sg22
g25
sbsg12
I2
sg18
(imyEvolve
Tree
p515
(dp516
g13
(imyEvolve
Tree
p517
(dp518
g12
I0
sg16
F-4.3464385475649445
sg17
I01
sbsg12
I1
sg18
(imyEvolve
Tree
p519
(dp520
g12
I0
sg16
F-2.5143004447572515
sg17
I01
sbsg21
I00
sg22
g23
sbsg21
I00
sg22
g41
sba(imyEvolve
Tree
p521
(dp522
g7
(imyEvolve
Tree
p523
(dp524
g7
(imyEvolve
Tree
p525
(dp526
g12
I1
sg13
(imyEvolve
Tree
p527
(dp528
g12
I0
sg16
F-2.4303167728706523
sg17
I01
sbsg18
(imyEvolve
Tree
p529
(dp530
g12
I0
sg16
F4.018041339928777
sg17
I01
sbsg21
I00
sg22
g83
sbsg12
I2
sg21
I01
sg22
g50
sbsg12
I3
sg21
I01
sg22
g24
sba(imyEvolve
Tree
p531
(dp532
g7
(imyEvolve
Tree
p533
(dp534
g7
(imyEvolve
Tree
p535
(dp536
g13
(imyEvolve
Tree
p537
(dp538
g13
(imyEvolve
Tree
p539
(dp540
g12
I0
sg16
F-0.9638951237623434
sg17
I01
sbsg12
I1
sg18
(imyEvolve
Tree
p541
(dp542
g12
I0
sg17
I00
sbsg21
I00
sg22
g41
sbsg12
I2
sg18
(imyEvolve
Tree
p543
(dp544
g13
(imyEvolve
Tree
p545
(dp546
g12
I0
sg16
F0.9251340411452533
sg17
I01
sbsg12
I1
sg18
(imyEvolve
Tree
p547
(dp548
g12
I0
sg16
F4.627826208692214
sg17
I01
sbsg21
I00
sg22
g83
sbsg21
I00
sg22
g83
sbsg12
I3
sg21
I01
sg22
g25
sbsg12
I4
sg21
I01
sg22
g50
sba(imyEvolve
Tree
p549
(dp550
g12
I4
sg13
(imyEvolve
Tree
p551
(dp552
g12
I3
sg13
(imyEvolve
Tree
p553
(dp554
g12
I2
sg13
(imyEvolve
Tree
p555
(dp556
g7
(imyEvolve
Tree
p557
(dp558
g12
I0
sg16
F-1.2390879366767038
sg17
I01
sbsg12
I1
sg21
I01
sg22
g24
sbsg18
(imyEvolve
Tree
p559
(dp560
g12
I1
sg13
(imyEvolve
Tree
p561
(dp562
g12
I0
sg17
I00
sbsg18
(imyEvolve
Tree
p563
(dp564
g12
I0
sg16
F4.370785821242901
sg17
I01
sbsg21
I00
sg22
g41
sbsg21
I00
sg22
g41
sbsg18
(imyEvolve
Tree
p565
(dp566
g12
I2
sg13
(imyEvolve
Tree
p567
(dp568
g7
(imyEvolve
Tree
p569
(dp570
g12
I0
sg17
I00
sbsg12
I1
sg21
I01
sg22
g25
sbsg18
(imyEvolve
Tree
p571
(dp572
g7
(imyEvolve
Tree
p573
(dp574
g12
I0
sg17
I00
sbsg12
I1
sg21
I01
sg22
g50
sbsg21
I00
sg22
g41
sbsg21
I00
sg22
g83
sbsg18
(imyEvolve
Tree
p575
(dp576
g12
I3
sg13
(imyEvolve
Tree
p577
(dp578
g12
I2
sg13
(imyEvolve
Tree
p579
(dp580
g12
I1
sg13
(imyEvolve
Tree
p581
(dp582
g12
I0
sg16
F-1.8209531629038311
sg17
I01
sbsg18
(imyEvolve
Tree
p583
(dp584
g12
I0
sg17
I00
sbsg21
I00
sg22
g83
sbsg18
(imyEvolve
Tree
p585
(dp586
g7
(imyEvolve
Tree
p587
(dp588
g12
I0
sg16
F-1.4023966281238263
sg17
I01
sbsg12
I1
sg21
I01
sg22
g34
sbsg21
I00
sg22
g23
sbsg18
(imyEvolve
Tree
p589
(dp590
g7
(imyEvolve
Tree
p591
(dp592
g12
I1
sg13
(imyEvolve
Tree
p593
(dp594
g12
I0
sg16
F2.2203167815426736
sg17
I01
sbsg18
(imyEvolve
Tree
p595
(dp596
g12
I0
sg16
F3.9400232535679844
sg17
I01
sbsg21
I00
sg22
g41
sbsg12
I2
sg21
I01
sg22
g50
sbsg21
I00
sg22
g83
sbsg21
I00
sg22
g41
sba(imyEvolve
Tree
p597
(dp598
g12
I3
sg13
(imyEvolve
Tree
p599
(dp600
g7
(imyEvolve
Tree
p601
(dp602
g7
(imyEvolve
Tree
p603
(dp604
g12
I0
sg16
F3.0806059352280784
sg17
I01
sbsg12
I1
sg21
I01
sg22
g34
sbsg12
I2
sg21
I01
sg22
g50
sbsg18
(imyEvolve
Tree
p605
(dp606
g7
(imyEvolve
Tree
p607
(dp608
g7
(imyEvolve
Tree
p609
(dp610
g12
I0
sg17
I00
sbsg12
I1
sg21
I01
sg22
g25
sbsg12
I2
sg21
I01
sg22
g24
sbsg21
I00
sg22
g83
sba(imyEvolve
Tree
p611
(dp612
g7
(imyEvolve
Tree
p613
(dp614
g7
(imyEvolve
Tree
p615
(dp616
g12
I0
sg17
I00
sbsg12
I1
sg21
I01
sg22
g25
sbsg12
I2
sg21
I01
sg22
g34
sba(imyEvolve
Tree
p617
(dp618
g7
(imyEvolve
Tree
p619
(dp620
g7
(imyEvolve
Tree
p621
(dp622
g12
I0
sg16
F4.467544528962547
sg17
I01
sbsg12
I1
sg21
I01
sg22
g24
sbsg12
I2
sg21
I01
sg22
g24
sba(imyEvolve
Tree
p623
(dp624
g13
(imyEvolve
Tree
p625
(dp626
g7
(imyEvolve
Tree
p627
(dp628
g7
(imyEvolve
Tree
p629
(dp630
g13
(imyEvolve
Tree
p631
(dp632
g7
(imyEvolve
Tree
p633
(dp634
g12
I0
sg17
I00
sbsg12
I1
sg21
I01
sg22
g50
sbsg12
I2
sg18
(imyEvolve
Tree
p635
(dp636
g7
(imyEvolve
Tree
p637
(dp638
g12
I0
sg16
F-0.03294635525347367
sg17
I01
sbsg12
I1
sg21
I01
sg22
g34
sbsg21
I00
sg22
g83
sbsg12
I3
sg21
I01
sg22
g24
sbsg12
I4
sg21
I01
sg22
g34
sbsg12
I5
sg18
(imyEvolve
Tree
p639
(dp640
g13
(imyEvolve
Tree
p641
(dp642
g13
(imyEvolve
Tree
p643
(dp644
g13
(imyEvolve
Tree
p645
(dp646
g13
(imyEvolve
Tree
p647
(dp648
g12
I0
sg16
F3.5746065104116163
sg17
I01
sbsg12
I1
sg18
(imyEvolve
Tree
p649
(dp650
g12
I0
sg17
I00
sbsg21
I00
sg22
g23
sbsg12
I2
sg18
(imyEvolve
Tree
p651
(dp652
g7
(imyEvolve
Tree
p653
(dp654
g12
I0
sg16
F1.8914341788979359
sg17
I01
sbsg12
I1
sg21
I01
sg22
g24
sbsg21
I00
sg22
g83
sbsg12
I3
sg18
(imyEvolve
Tree
p655
(dp656
g7
(imyEvolve
Tree
p657
(dp658
g7
(imyEvolve
Tree
p659
(dp660
g12
I0
sg17
I00
sbsg12
I1
sg21
I01
sg22
g25
sbsg12
I2
sg21
I01
sg22
g25
sbsg21
I00
sg22
g23
sbsg12
I4
sg18
(imyEvolve
Tree
p661
(dp662
g13
(imyEvolve
Tree
p663
(dp664
g7
(imyEvolve
Tree
p665
(dp666
g13
(imyEvolve
Tree
p667
(dp668
g12
I0
sg16
F4.407086264078725
sg17
I01
sbsg12
I1
sg18
(imyEvolve
Tree
p669
(dp670
g12
I0
sg17
I00
sbsg21
I00
sg22
g23
sbsg12
I2
sg21
I01
sg22
g34
sbsg12
I3
sg18
(imyEvolve
Tree
p671
(dp672
g7
(imyEvolve
Tree
p673
(dp674
g13
(imyEvolve
Tree
p675
(dp676
g12
I0
sg17
I00
sbsg12
I1
sg18
(imyEvolve
Tree
p677
(dp678
g12
I0
sg17
I00
sbsg21
I00
sg22
g23
sbsg12
I2
sg21
I01
sg22
g25
sbsg21
I00
sg22
g23
sbsg21
I00
sg22
g41
sbsg21
I00
sg22
g41
sba(imyEvolve
Tree
p679
(dp680
g13
(imyEvolve
Tree
p681
(dp682
g13
(imyEvolve
Tree
p683
(dp684
g13
(imyEvolve
Tree
p685
(dp686
g12
I0
sg17
I00
sbsg12
I1
sg18
(imyEvolve
Tree
p687
(dp688
g12
I0
sg17
I00
sbsg21
I00
sg22
g83
sbsg12
I2
sg18
(imyEvolve
Tree
p689
(dp690
g7
(imyEvolve
Tree
p691
(dp692
g12
I0
sg16
F-4.895568681079007
sg17
I01
sbsg12
I1
sg21
I01
sg22
g34
sbsg21
I00
sg22
g83
sbsg12
I3
sg18
(imyEvolve
Tree
p693
(dp694
g13
(imyEvolve
Tree
p695
(dp696
g7
(imyEvolve
Tree
p697
(dp698
g12
I0
sg17
I00
sbsg12
I1
sg21
I01
sg22
g24
sbsg12
I2
sg18
(imyEvolve
Tree
p699
(dp700
g7
(imyEvolve
Tree
p701
(dp702
g12
I0
sg17
I00
sbsg12
I1
sg21
I01
sg22
g50
sbsg21
I00
sg22
g41
sbsg21
I00
sg22
g83
sba(imyEvolve
Tree
p703
(dp704
g13
(imyEvolve
Tree
p705
(dp706
g7
(imyEvolve
Tree
p707
(dp708
g12
I0
sg17
I00
sbsg12
I1
sg21
I01
sg22
g50
sbsg12
I2
sg18
(imyEvolve
Tree
p709
(dp710
g7
(imyEvolve
Tree
p711
(dp712
g12
I0
sg16
F4.337476903860351
sg17
I01
sbsg12
I1
sg21
I01
sg22
g34
sbsg21
I00
sg22
g41
sba(imyEvolve
Tree
p713
(dp714
g7
(imyEvolve
Tree
p715
(dp716
g13
(imyEvolve
Tree
p717
(dp718
g13
(imyEvolve
Tree
p719
(dp720
g12
I0
sg17
I00
sbsg12
I1
sg18
(imyEvolve
Tree
p721
(dp722
g12
I0
sg17
I00
sbsg21
I00
sg22
g83
sbsg12
I2
sg18
(imyEvolve
Tree
p723
(dp724
g7
(imyEvolve
Tree
p725
(dp726
g12
I0
sg16
F-4.706496241494607
sg17
I01
sbsg12
I1
sg21
I01
sg22
g50
sbsg21
I00
sg22
g23
sbsg12
I3
sg21
I01
sg22
g50
sba(imyEvolve
Tree
p727
(dp728
g13
(imyEvolve
Tree
p729
(dp730
g7
(imyEvolve
Tree
p731
(dp732
g13
(imyEvolve
Tree
p733
(dp734
g13
(imyEvolve
Tree
p735
(dp736
g7
(imyEvolve
Tree
p737
(dp738
g12
I0
sg17
I00
sbsg12
I1
sg21
I01
sg22
g50
sbsg12
I2
sg18
(imyEvolve
Tree
p739
(dp740
g7
(imyEvolve
Tree
p741
(dp742
g12
I0
sg17
I00
sbsg12
I1
sg21
I01
sg22
g34
sbsg21
I00
sg22
g41
sbsg12
I3
sg18
(imyEvolve
Tree
p743
(dp744
g13
(imyEvolve
Tree
p745
(dp746
g7
(imyEvolve
Tree
p747
(dp748
g12
I0
sg17
I00
sbsg12
I1
sg21
I01
sg22
g34
sbsg12
I2
sg18
(imyEvolve
Tree
p749
(dp750
g13
(imyEvolve
Tree
p751
(dp752
g12
I0
sg16
F-4.378350185480336
sg17
I01
sbsg12
I1
sg18
(imyEvolve
Tree
p753
(dp754
g12
I0
sg17
I00
sbsg21
I00
sg22
g83
sbsg21
I00
sg22
g41
sbsg21
I00
sg22
g23
sbsg12
I4
sg21
I01
sg22
g34
sbsg12
I5
sg18
(imyEvolve
Tree
p755
(dp756
g7
(imyEvolve
Tree
p757
(dp758
g7
(imyEvolve
Tree
p759
(dp760
g7
(imyEvolve
Tree
p761
(dp762
g13
(imyEvolve
Tree
p763
(dp764
g12
I0
sg16
F-4.466750014225425
sg17
I01
sbsg12
I1
sg18
(imyEvolve
Tree
p765
(dp766
g12
I0
sg16
F0.9530944139931474
sg17
I01
sbsg21
I00
sg22
g41
sbsg12
I2
sg21
I01
sg22
g24
sbsg12
I3
sg21
I01
sg22
g24
sbsg12
I4
sg21
I01
sg22
g24
sbsg21
I00
sg22
g83
sba(imyEvolve
Tree
p767
(dp768
g13
(imyEvolve
Tree
p769
(dp770
g7
(imyEvolve
Tree
p771
(dp772
g12
I0
sg17
I00
sbsg12
I1
sg21
I01
sg22
g50
sbsg12
I2
sg18
(imyEvolve
Tree
p773
(dp774
g13
(imyEvolve
Tree
p775
(dp776
g12
I0
sg17
I00
sbsg12
I1
sg18
(imyEvolve
Tree
p777
(dp778
g12
I0
sg17
I00
sbsg21
I00
sg22
g23
sbsg21
I00
sg22
g83
sba(imyEvolve
Tree
p779
(dp780
g12
I3
sg13
(imyEvolve
Tree
p781
(dp782
g7
(imyEvolve
Tree
p783
(dp784
g12
I1
sg13
(imyEvolve
Tree
p785
(dp786
g12
I0
sg16
F1.766472830452396
sg17
I01
sbsg18
(imyEvolve
Tree
p787
(dp788
g12
I0
sg16
F4.53432028293358
sg17
I01
sbsg21
I00
sg22
g23
sbsg12
I2
sg21
I01
sg22
g34
sbsg18
(imyEvolve
Tree
p789
(dp790
g7
(imyEvolve
Tree
p791
(dp792
g7
(imyEvolve
Tree
p793
(dp794
g12
I0
sg16
F-0.053392764342455656
sg17
I01
sbsg12
I1
sg21
I01
sg22
g24
sbsg12
I2
sg21
I01
sg22
g50
sbsg21
I00
sg22
g23
sbaasS'alpha'
p795
F0.0025506773862888268
sS'fitness'
p796
cnumpy.core.multiarray
scalar
p797
(cnumpy
dtype
p798
(S'f8'
p799
I0
I1
tp800
Rp801
(I3
S'<'
p802
NNNI-1
I-1
I0
tp803
bS'*\xa9\x13zW \xe6?'
p804
tp805
Rp806
sS'weightSharing'
p807
(lp808
I01
asS'fitnessValid'
p809
I00
sS'resolution'
p810
I78
sb.