(imyEvolve
Individual
p0
(dp1
S'funcs'
p2
(lp3
(lp4
(imyEvolve
Tree
p5
(dp6
S'below'
p7
(imyEvolve
Tree
p8
(dp9
g7
(imyEvolve
Tree
p10
(dp11
g7
(imyEvolve
Tree
p12
(dp13
S'left'
p14
(imyEvolve
Tree
p15
(dp16
g14
(imyEvolve
Tree
p17
(dp18
S'depth'
p19
I0
sS'isConstant'
p20
I00
sbsg19
I1
sS'right'
p21
(imyEvolve
Tree
p22
(dp23
g19
I0
sS'constant'
p24
F3.984427907563571
sg20
I01
sbsS'single'
p25
I00
sS'op'
p26
coperator
sub
p27
sbsg19
I2
sg21
(imyEvolve
Tree
p28
(dp29
g14
(imyEvolve
Tree
p30
(dp31
g19
I0
sg20
I00
sbsg19
I1
sg21
(imyEvolve
Tree
p32
(dp33
g19
I0
sg20
I00
sbsg25
I00
sg26
coperator
mul
p34
sbsg25
I00
sg26
coperator
add
p35
sbsg19
I3
sg25
I01
sg26
cmyEvolve
absSqrt
p36
sbsg19
I4
sg25
I01
sg26
cmath
cos
p37
sbsg19
I5
sg25
I01
sg26
cmyEvolve
square
p38
sba(imyEvolve
Tree
p39
(dp40
g7
(imyEvolve
Tree
p41
(dp42
g14
(imyEvolve
Tree
p43
(dp44
g14
(imyEvolve
Tree
p45
(dp46
g14
(imyEvolve
Tree
p47
(dp48
g19
I0
sg24
F-1.5787364402262218
sg20
I01
sbsg19
I1
sg21
(imyEvolve
Tree
p49
(dp50
g19
I0
sg20
I00
sbsg25
I00
sg26
g35
sbsg19
I2
sg21
(imyEvolve
Tree
p51
(dp52
g14
(imyEvolve
Tree
p53
(dp54
g19
I0
sg20
I00
sbsg19
I1
sg21
(imyEvolve
Tree
p55
(dp56
g19
I0
sg20
I00
sbsg25
I00
sg26
g35
sbsg25
I00
sg26
g35
sbsg19
I3
sg21
(imyEvolve
Tree
p57
(dp58
g14
(imyEvolve
Tree
p59
(dp60
g14
(imyEvolve
Tree
p61
(dp62
g19
I0
sg20
I00
sbsg19
I1
sg21
(imyEvolve
Tree
p63
(dp64
g19
I0
sg24
F-4.071317450982369
sg20
I01
sbsg25
I00
sg26
g35
sbsg19
I2
sg21
(imyEvolve
Tree
p65
(dp66
g14
(imyEvolve
Tree
p67
(dp68
g19
I0
sg24
F-3.595530767154006
sg20
I01
sbsg19
I1
sg21
(imyEvolve
Tree
p69
(dp70
g19
I0
sg24
F1.584900337646033
sg20
I01
sbsg25
I00
sg26
g35
sbsg25
I00
sg26
g27
sbsg25
I00
sg26
g34
sbsg19
I4
sg25
I01
sg26
g38
sba(imyEvolve
Tree
p71
(dp72
g7
(imyEvolve
Tree
p73
(dp74
g19
I1
sg14
(imyEvolve
Tree
p75
(dp76
g19
I0
sg24
F0.44907657994388295
sg20
I01
sbsg21
(imyEvolve
Tree
p77
(dp78
g19
I0
sg24
F1.0421282648245196
sg20
I01
sbsg25
I00
sg26
g34
sbsg19
I2
sg25
I01
sg26
g38
sba(imyEvolve
Tree
p79
(dp80
g14
(imyEvolve
Tree
p81
(dp82
g14
(imyEvolve
Tree
p83
(dp84
g7
(imyEvolve
Tree
p85
(dp86
g19
I0
sg24
F-1.5210010609949176
sg20
I01
sbsg19
I1
sg25
I01
sg26
g38
sbsg19
I2
sg21
(imyEvolve
Tree
p87
(dp88
g7
(imyEvolve
Tree
p89
(dp90
g19
I0
sg24
F-1.4220263173903436
sg20
I01
sbsg19
I1
sg25
I01
sg26
g37
sbsg25
I00
sg26
g34
sbsg19
I3
sg21
(imyEvolve
Tree
p91
(dp92
g7
(imyEvolve
Tree
p93
(dp94
g14
(imyEvolve
Tree
p95
(dp96
g19
I0
sg20
I00
sbsg19
I1
sg21
(imyEvolve
Tree
p97
(dp98
g19
I0
sg20
I00
sbsg25
I00
sg26
g34
sbsg19
I2
sg25
I01
sg26
g37
sbsg25
I00
sg26
g27
sba(imyEvolve
Tree
p99
(dp100
g14
(imyEvolve
Tree
p101
(dp102
g7
(imyEvolve
Tree
p103
(dp104
g14
(imyEvolve
Tree
p105
(dp106
g7
(imyEvolve
Tree
p107
(dp108
g14
(imyEvolve
Tree
p109
(dp110
g19
I0
sg24
F4.0396433389151944
sg20
I01
sbsg19
I1
sg21
(imyEvolve
Tree
p111
(dp112
g19
I0
sg20
I00
sbsg25
I00
sg26
g27
sbsg19
I2
sg25
I01
sg26
g36
sbsg19
I3
sg21
(imyEvolve
Tree
p113
(dp114
g7
(imyEvolve
Tree
p115
(dp116
g7
(imyEvolve
Tree
p117
(dp118
g19
I0
sg20
I00
sbsg19
I1
sg25
I01
sg26
g36
sbsg19
I2
sg25
I01
sg26
g37
sbsg25
I00
sg26
g27
sbsg19
I4
sg25
I01
sg26
g38
sbsg19
I5
sg21
(imyEvolve
Tree
p119
(dp120
g14
(imyEvolve
Tree
p121
(dp122
g7
(imyEvolve
Tree
p123
(dp124
g14
(imyEvolve
Tree
p125
(dp126
g7
(imyEvolve
Tree
p127
(dp128
g19
I0
sg20
I00
sbsg19
I1
sg25
I01
sg26
g37
sbsg19
I2
sg21
(imyEvolve
Tree
p129
(dp130
g14
(imyEvolve
Tree
p131
(dp132
g19
I0
sg24
F3.170171351217242
sg20
I01
sbsg19
I1
sg21
(imyEvolve
Tree
p133
(dp134
g19
I0
sg24
F-4.363646497794421
sg20
I01
sbsg25
I00
sg26
g27
sbsg25
I00
sg26
g27
sbsg19
I3
sg25
I01
sg26
g38
sbsg19
I4
sg21
(imyEvolve
Tree
p135
(dp136
g14
(imyEvolve
Tree
p137
(dp138
g7
(imyEvolve
Tree
p139
(dp140
g7
(imyEvolve
Tree
p141
(dp142
g19
I0
sg24
F1.967929402358985
sg20
I01
sbsg19
I1
sg25
I01
sg26
cmath
sin
p143
sbsg19
I2
sg25
I01
sg26
g38
sbsg19
I3
sg21
(imyEvolve
Tree
p144
(dp145
g7
(imyEvolve
Tree
p146
(dp147
g7
(imyEvolve
Tree
p148
(dp149
g19
I0
sg20
I00
sbsg19
I1
sg25
I01
sg26
g38
sbsg19
I2
sg25
I01
sg26
g143
sbsg25
I00
sg26
g34
sbsg25
I00
sg26
g27
sbsg25
I00
sg26
g35
sba(imyEvolve
Tree
p150
(dp151
g7
(imyEvolve
Tree
p152
(dp153
g7
(imyEvolve
Tree
p154
(dp155
g14
(imyEvolve
Tree
p156
(dp157
g7
(imyEvolve
Tree
p158
(dp159
g7
(imyEvolve
Tree
p160
(dp161
g19
I0
sg20
I00
sbsg19
I1
sg25
I01
sg26
g143
sbsg19
I2
sg25
I01
sg26
g143
sbsg19
I3
sg21
(imyEvolve
Tree
p162
(dp163
g7
(imyEvolve
Tree
p164
(dp165
g14
(imyEvolve
Tree
p166
(dp167
g19
I0
sg24
F-1.1861224669500436
sg20
I01
sbsg19
I1
sg21
(imyEvolve
Tree
p168
(dp169
g19
I0
sg20
I00
sbsg25
I00
sg26
g35
sbsg19
I2
sg25
I01
sg26
g143
sbsg25
I00
sg26
g34
sbsg19
I4
sg25
I01
sg26
g38
sbsg19
I5
sg25
I01
sg26
g38
sba(imyEvolve
Tree
p170
(dp171
g7
(imyEvolve
Tree
p172
(dp173
g7
(imyEvolve
Tree
p174
(dp175
g7
(imyEvolve
Tree
p176
(dp177
g19
I2
sg14
(imyEvolve
Tree
p178
(dp179
g7
(imyEvolve
Tree
p180
(dp181
g19
I0
sg24
F-4.8879098511847685
sg20
I01
sbsg19
I1
sg25
I01
sg26
g36
sbsg21
(imyEvolve
Tree
p182
(dp183
g7
(imyEvolve
Tree
p184
(dp185
g19
I0
sg20
I00
sbsg19
I1
sg25
I01
sg26
g38
sbsg25
I00
sg26
g34
sbsg19
I3
sg25
I01
sg26
g143
sbsg19
I4
sg25
I01
sg26
g143
sbsg19
I5
sg25
I01
sg26
g38
sba(imyEvolve
Tree
p186
(dp187
g19
I2
sg14
(imyEvolve
Tree
p188
(dp189
g7
(imyEvolve
Tree
p190
(dp191
g19
I0
sg24
F-1.957731910635978
sg20
I01
sbsg19
I1
sg25
I01
sg26
g36
sbsg21
(imyEvolve
Tree
p192
(dp193
g7
(imyEvolve
Tree
p194
(dp195
g19
I0
sg20
I00
sbsg19
I1
sg25
I01
sg26
g36
sbsg25
I00
sg26
g34
sbaa(lp196
(imyEvolve
Tree
p197
(dp198
g14
(imyEvolve
Tree
p199
(dp200
g7
(imyEvolve
Tree
p201
(dp202
g19
I0
sg24
F4.659652594258729
sg20
I01
sbsg19
I1
sg25
I01
sg26
g37
sbsg19
I2
sg21
(imyEvolve
Tree
p203
(dp204
g7
(imyEvolve
Tree
p205
(dp206
g19
I0
sg20
I00
sbsg19
I1
sg25
I01
sg26
g143
sbsg25
I00
sg26
g34
sba(imyEvolve
Tree
p207
(dp208
g14
(imyEvolve
Tree
p209
(dp210
g7
(imyEvolve
Tree
p211
(dp212
g7
(imyEvolve
Tree
p213
(dp214
g7
(imyEvolve
Tree
p215
(dp216
g19
I0
sg20
I00
sbsg19
I1
sg25
I01
sg26
g143
sbsg19
I2
sg25
I01
sg26
g37
sbsg19
I3
sg25
I01
sg26
g38
sbsg19
I4
sg21
(imyEvolve
Tree
p217
(dp218
g14
(imyEvolve
Tree
p219
(dp220
g14
(imyEvolve
Tree
p221
(dp222
g7
(imyEvolve
Tree
p223
(dp224
g19
I0
sg24
F-3.953719394271904
sg20
I01
sbsg19
I1
sg25
I01
sg26
g143
sbsg19
I2
sg21
(imyEvolve
Tree
p225
(dp226
g7
(imyEvolve
Tree
p227
(dp228
g19
I0
sg24
F2.2112499590500168
sg20
I01
sbsg19
I1
sg25
I01
sg26
g37
sbsg25
I00
sg26
g27
sbsg19
I3
sg21
(imyEvolve
Tree
p229
(dp230
g7
(imyEvolve
Tree
p231
(dp232
g7
(imyEvolve
Tree
p233
(dp234
g19
I0
sg24
F-4.87101732650288
sg20
I01
sbsg19
I1
sg25
I01
sg26
g143
sbsg19
I2
sg25
I01
sg26
g37
sbsg25
I00
sg26
g35
sbsg25
I00
sg26
g34
sba(imyEvolve
Tree
p235
(dp236
g14
(imyEvolve
Tree
p237
(dp238
g14
(imyEvolve
Tree
p239
(dp240
g19
I0
sg20
I00
sbsg19
I1
sg21
(imyEvolve
Tree
p241
(dp242
g19
I0
sg20
I00
sbsg25
I00
sg26
g35
sbsg19
I2
sg21
(imyEvolve
Tree
p243
(dp244
g7
(imyEvolve
Tree
p245
(dp246
g19
I0
sg20
I00
sbsg19
I1
sg25
I01
sg26
g38
sbsg25
I00
sg26
g34
sba(imyEvolve
Tree
p247
(dp248
g14
(imyEvolve
Tree
p249
(dp250
g14
(imyEvolve
Tree
p251
(dp252
g19
I0
sg20
I00
sbsg19
I1
sg21
(imyEvolve
Tree
p253
(dp254
g19
I0
sg24
F-1.5050626985088877
sg20
I01
sbsg25
I00
sg26
g27
sbsg19
I2
sg21
(imyEvolve
Tree
p255
(dp256
g7
(imyEvolve
Tree
p257
(dp258
g19
I0
sg20
I00
sbsg19
I1
sg25
I01
sg26
g37
sbsg25
I00
sg26
g35
sba(imyEvolve
Tree
p259
(dp260
g14
(imyEvolve
Tree
p261
(dp262
g7
(imyEvolve
Tree
p263
(dp264
g14
(imyEvolve
Tree
p265
(dp266
g7
(imyEvolve
Tree
p267
(dp268
g19
I0
sg20
I00
sbsg19
I1
sg25
I01
sg26
g143
sbsg19
I2
sg21
(imyEvolve
Tree
p269
(dp270
g7
(imyEvolve
Tree
p271
(dp272
g19
I0
sg20
I00
sbsg19
I1
sg25
I01
sg26
g36
sbsg25
I00
sg26
g34
sbsg19
I3
sg25
I01
sg26
g37
sbsg19
I4
sg21
(imyEvolve
Tree
p273
(dp274
g7
(imyEvolve
Tree
p275
(dp276
g7
(imyEvolve
Tree
p277
(dp278
g7
(imyEvolve
Tree
p279
(dp280
g19
I0
sg20
I00
sbsg19
I1
sg25
I01
sg26
g36
sbsg19
I2
sg25
I01
sg26
g143
sbsg19
I3
sg25
I01
sg26
g143
sbsg25
I00
sg26
g34
sba(imyEvolve
Tree
p281
(dp282
g7
(imyEvolve
Tree
p283
(dp284
g14
(imyEvolve
Tree
p285
(dp286
g7
(imyEvolve
Tree
p287
(dp288
g19
I0
sg20
I00
sbsg19
I1
sg25
I01
sg26
g38
sbsg19
I2
sg21
(imyEvolve
Tree
p289
(dp290
g7
(imyEvolve
Tree
p291
(dp292
g19
I0
sg24
F4.60060567636064
sg20
I01
sbsg19
I1
sg25
I01
sg26
g37
sbsg25
I00
sg26
g34
sbsg19
I3
sg25
I01
sg26
g143
sba(imyEvolve
Tree
p293
(dp294
g7
(imyEvolve
Tree
p295
(dp296
g7
(imyEvolve
Tree
p297
(dp298
g7
(imyEvolve
Tree
p299
(dp300
g7
(imyEvolve
Tree
p301
(dp302
g7
(imyEvolve
Tree
p303
(dp304
g19
I0
sg20
I00
sbsg19
I1
sg25
I01
sg26
g143
sbsg19
I2
sg25
I01
sg26
g36
sbsg19
I3
sg25
I01
sg26
g37
sbsg19
I4
sg25
I01
sg26
g38
sbsg19
I5
sg25
I01
sg26
g37
sba(imyEvolve
Tree
p305
(dp306
g19
I4
sg14
(imyEvolve
Tree
p307
(dp308
g7
(imyEvolve
Tree
p309
(dp310
g19
I2
sg14
(imyEvolve
Tree
p311
(dp312
g7
(imyEvolve
Tree
p313
(dp314
g19
I0
sg20
I00
sbsg19
I1
sg25
I01
sg26
g38
sbsg21
(imyEvolve
Tree
p315
(dp316
g7
(imyEvolve
Tree
p317
(dp318
g19
I0
sg20
I00
sbsg19
I1
sg25
I01
sg26
g143
sbsg25
I00
sg26
g34
sbsg19
I3
sg25
I01
sg26
g143
sbsg21
(imyEvolve
Tree
p319
(dp320
g7
(imyEvolve
Tree
p321
(dp322
g7
(imyEvolve
Tree
p323
(dp324
g7
(imyEvolve
Tree
p325
(dp326
g19
I0
sg20
I00
sbsg19
I1
sg25
I01
sg26
g37
sbsg19
I2
sg25
I01
sg26
g37
sbsg19
I3
sg25
I01
sg26
g36
sbsg25
I00
sg26
g27
sba(imyEvolve
Tree
p327
(dp328
g7
(imyEvolve
Tree
p329
(dp330
g7
(imyEvolve
Tree
p331
(dp332
g19
I0
sg24
F4.920875181572963
sg20
I01
sbsg19
I1
sg25
I01
sg26
g38
sbsg19
I2
sg25
I01
sg26
g36
sba(imyEvolve
Tree
p333
(dp334
g19
I2
sg14
(imyEvolve
Tree
p335
(dp336
g7
(imyEvolve
Tree
p337
(dp338
g19
I0
sg20
I00
sbsg19
I1
sg25
I01
sg26
g38
sbsg21
(imyEvolve
Tree
p339
(dp340
g7
(imyEvolve
Tree
p341
(dp342
g19
I0
sg24
F4.723080434556072
sg20
I01
sbsg19
I1
sg25
I01
sg26
g37
sbsg25
I00
sg26
g27
sba(imyEvolve
Tree
p343
(dp344
g19
I3
sg14
(imyEvolve
Tree
p345
(dp346
g7
(imyEvolve
Tree
p347
(dp348
g7
(imyEvolve
Tree
p349
(dp350
g19
I0
sg24
F-4.391982572893609
sg20
I01
sbsg19
I1
sg25
I01
sg26
g143
sbsg19
I2
sg25
I01
sg26
g143
sbsg21
(imyEvolve
Tree
p351
(dp352
g19
I2
sg14
(imyEvolve
Tree
p353
(dp354
g19
I1
sg14
(imyEvolve
Tree
p355
(dp356
g19
I0
sg20
I00
sbsg21
(imyEvolve
Tree
p357
(dp358
g19
I0
sg24
F2.0668128957572938
sg20
I01
sbsg25
I00
sg26
g34
sbsg21
(imyEvolve
Tree
p359
(dp360
g7
(imyEvolve
Tree
p361
(dp362
g19
I0
sg20
I00
sbsg19
I1
sg25
I01
sg26
g143
sbsg25
I00
sg26
g34
sbsg25
I00
sg26
g27
sba(imyEvolve
Tree
p363
(dp364
g7
(imyEvolve
Tree
p365
(dp366
g7
(imyEvolve
Tree
p367
(dp368
g7
(imyEvolve
Tree
p369
(dp370
g7
(imyEvolve
Tree
p371
(dp372
g7
(imyEvolve
Tree
p373
(dp374
g19
I0
sg24
F-4.0003603929481955
sg20
I01
sbsg19
I1
sg25
I01
sg26
g38
sbsg19
I2
sg25
I01
sg26
g36
sbsg19
I3
sg25
I01
sg26
g37
sbsg19
I4
sg25
I01
sg26
g38
sbsg19
I5
sg25
I01
sg26
g37
sbaa(lp375
(imyEvolve
Tree
p376
(dp377
g7
(imyEvolve
Tree
p378
(dp379
g19
I3
sg14
(imyEvolve
Tree
p380
(dp381
g19
I2
sg14
(imyEvolve
Tree
p382
(dp383
g19
I1
sg14
(imyEvolve
Tree
p384
(dp385
g19
I0
sg20
I00
sbsg21
(imyEvolve
Tree
p386
(dp387
g19
I0
sg20
I00
sbsg25
I00
sg26
g27
sbsg21
(imyEvolve
Tree
p388
(dp389
g19
I1
sg14
(imyEvolve
Tree
p390
(dp391
g19
I0
sg20
I00
sbsg21
(imyEvolve
Tree
p392
(dp393
g19
I0
sg20
I00
sbsg25
I00
sg26
g34
sbsg25
I00
sg26
g27
sbsg21
(imyEvolve
Tree
p394
(dp395
g7
(imyEvolve
Tree
p396
(dp397
g7
(imyEvolve
Tree
p398
(dp399
g19
I0
sg20
I00
sbsg19
I1
sg25
I01
sg26
g36
sbsg19
I2
sg25
I01
sg26
g38
sbsg25
I00
sg26
g27
sbsg19
I4
sg25
I01
sg26
g36
sba(imyEvolve
Tree
p400
(dp401
g14
(imyEvolve
Tree
p402
(dp403
g7
(imyEvolve
Tree
p404
(dp405
g19
I0
sg20
I00
sbsg19
I1
sg25
I01
sg26
g38
sbsg19
I2
sg21
(imyEvolve
Tree
p406
(dp407
g14
(imyEvolve
Tree
p408
(dp409
g19
I0
sg24
F-2.7625417990029746
sg20
I01
sbsg19
I1
sg21
(imyEvolve
Tree
p410
(dp411
g19
I0
sg24
F-0.37170770325699465
sg20
I01
sbsg25
I00
sg26
g27
sbsg25
I00
sg26
g34
sba(imyEvolve
Tree
p412
(dp413
g14
(imyEvolve
Tree
p414
(dp415
g14
(imyEvolve
Tree
p416
(dp417
g19
I0
sg20
I00
sbsg19
I1
sg21
(imyEvolve
Tree
p418
(dp419
g19
I0
sg20
I00
sbsg25
I00
sg26
g34
sbsg19
I2
sg21
(imyEvolve
Tree
p420
(dp421
g14
(imyEvolve
Tree
p422
(dp423
g19
I0
sg20
I00
sbsg19
I1
sg21
(imyEvolve
Tree
p424
(dp425
g19
I0
sg24
F4.892517680927174
sg20
I01
sbsg25
I00
sg26
g34
sbsg25
I00
sg26
g27
sba(imyEvolve
Tree
p426
(dp427
g19
I3
sg14
(imyEvolve
Tree
p428
(dp429
g7
(imyEvolve
Tree
p430
(dp431
g19
I1
sg14
(imyEvolve
Tree
p432
(dp433
g19
I0
sg24
F-2.8482208467311256
sg20
I01
sbsg21
(imyEvolve
Tree
p434
(dp435
g19
I0
sg24
F3.2209425253949
sg20
I01
sbsg25
I00
sg26
g35
sbsg19
I2
sg25
I01
sg26
g37
sbsg21
(imyEvolve
Tree
p436
(dp437
g19
I2
sg14
(imyEvolve
Tree
p438
(dp439
g19
I1
sg14
(imyEvolve
Tree
p440
(dp441
g19
I0
sg20
I00
sbsg21
(imyEvolve
Tree
p442
(dp443
g19
I0
sg20
I00
sbsg25
I00
sg26
g35
sbsg21
(imyEvolve
Tree
p444
(dp445
g19
I1
sg14
(imyEvolve
Tree
p446
(dp447
g19
I0
sg24
F-1.069125811201733
sg20
I01
sbsg21
(imyEvolve
Tree
p448
(dp449
g19
I0
sg24
F-0.8582798370063696
sg20
I01
sbsg25
I00
sg26
g35
sbsg25
I00
sg26
g34
sbsg25
I00
sg26
g34
sba(imyEvolve
Tree
p450
(dp451
g14
(imyEvolve
Tree
p452
(dp453
g7
(imyEvolve
Tree
p454
(dp455
g19
I0
sg24
F-3.6178532335385185
sg20
I01
sbsg19
I1
sg25
I01
sg26
g38
sbsg19
I2
sg21
(imyEvolve
Tree
p456
(dp457
g7
(imyEvolve
Tree
p458
(dp459
g19
I0
sg20
I00
sbsg19
I1
sg25
I01
sg26
g36
sbsg25
I00
sg26
g34
sba(imyEvolve
Tree
p460
(dp461
g7
(imyEvolve
Tree
p462
(dp463
g14
(imyEvolve
Tree
p464
(dp465
g14
(imyEvolve
Tree
p466
(dp467
g19
I0
sg20
I00
sbsg19
I1
sg21
(imyEvolve
Tree
p468
(dp469
g19
I0
sg24
F4.57318657479089
sg20
I01
sbsg25
I00
sg26
g27
sbsg19
I2
sg21
(imyEvolve
Tree
p470
(dp471
g7
(imyEvolve
Tree
p472
(dp473
g19
I0
sg20
I00
sbsg19
I1
sg25
I01
sg26
g143
sbsg25
I00
sg26
g35
sbsg19
I3
sg25
I01
sg26
g36
sba(imyEvolve
Tree
p474
(dp475
g14
(imyEvolve
Tree
p476
(dp477
g7
(imyEvolve
Tree
p478
(dp479
g7
(imyEvolve
Tree
p480
(dp481
g14
(imyEvolve
Tree
p482
(dp483
g19
I0
sg20
I00
sbsg19
I1
sg21
(imyEvolve
Tree
p484
(dp485
g19
I0
sg20
I00
sbsg25
I00
sg26
g27
sbsg19
I2
sg25
I01
sg26
g38
sbsg19
I3
sg25
I01
sg26
g38
sbsg19
I4
sg21
(imyEvolve
Tree
p486
(dp487
g14
(imyEvolve
Tree
p488
(dp489
g14
(imyEvolve
Tree
p490
(dp491
g14
(imyEvolve
Tree
p492
(dp493
g19
I0
sg20
I00
sbsg19
I1
sg21
(imyEvolve
Tree
p494
(dp495
g19
I0
sg24
F-0.14158704149658874
sg20
I01
sbsg25
I00
sg26
g27
sbsg19
I2
sg21
(imyEvolve
Tree
p496
(dp497
g7
(imyEvolve
Tree
p498
(dp499
g19
I0
sg24
F0.1111288196329765
sg20
I01
sbsg19
I1
sg25
I01
sg26
g38
sbsg25
I00
sg26
g27
sbsg19
I3
sg21
(imyEvolve
Tree
p500
(dp501
g14
(imyEvolve
Tree
p502
(dp503
g14
(imyEvolve
Tree
p504
(dp505
g19
I0
sg20
I00
sbsg19
I1
sg21
(imyEvolve
Tree
p506
(dp507
g19
I0
sg20
I00
sbsg25
I00
sg26
g35
sbsg19
I2
sg21
(imyEvolve
Tree
p508
(dp509
g7
(imyEvolve
Tree
p510
(dp511
g19
I0
sg20
I00
sbsg19
I1
sg25
I01
sg26
g143
sbsg25
I00
sg26
g35
sbsg25
I00
sg26
g27
sbsg25
I00
sg26
g34
sba(imyEvolve
Tree
p512
(dp513
g7
(imyEvolve
Tree
p514
(dp515
g7
(imyEvolve
Tree
p516
(dp517
g14
(imyEvolve
Tree
p518
(dp519
g14
(imyEvolve
Tree
p520
(dp521
g19
I0
sg20
I00
sbsg19
I1
sg21
(imyEvolve
Tree
p522
(dp523
g19
I0
sg24
F2.6312471590262723
sg20
I01
sbsg25
I00
sg26
g35
sbsg19
I2
sg21
(imyEvolve
Tree
p524
(dp525
g7
(imyEvolve
Tree
p526
(dp527
g19
I0
sg24
F-0.9703541138704193
sg20
I01
sbsg19
I1
sg25
I01
sg26
g36
sbsg25
I00
sg26
g27
sbsg19
I3
sg25
I01
sg26
g38
sbsg19
I4
sg25
I01
sg26
g36
sba(imyEvolve
Tree
p528
(dp529
g14
(imyEvolve
Tree
p530
(dp531
g14
(imyEvolve
Tree
p532
(dp533
g7
(imyEvolve
Tree
p534
(dp535
g14
(imyEvolve
Tree
p536
(dp537
g19
I0
sg24
F1.4396042513113718
sg20
I01
sbsg19
I1
sg21
(imyEvolve
Tree
p538
(dp539
g19
I0
sg24
F2.207175636606186
sg20
I01
sbsg25
I00
sg26
g35
sbsg19
I2
sg25
I01
sg26
g37
sbsg19
I3
sg21
(imyEvolve
Tree
p540
(dp541
g7
(imyEvolve
Tree
p542
(dp543
g14
(imyEvolve
Tree
p544
(dp545
g19
I0
sg20
I00
sbsg19
I1
sg21
(imyEvolve
Tree
p546
(dp547
g19
I0
sg24
F3.861996641265476
sg20
I01
sbsg25
I00
sg26
g27
sbsg19
I2
sg25
I01
sg26
g38
sbsg25
I00
sg26
g35
sbsg19
I4
sg21
(imyEvolve
Tree
p548
(dp549
g14
(imyEvolve
Tree
p550
(dp551
g7
(imyEvolve
Tree
p552
(dp553
g7
(imyEvolve
Tree
p554
(dp555
g19
I0
sg24
F-4.414610067947651
sg20
I01
sbsg19
I1
sg25
I01
sg26
g37
sbsg19
I2
sg25
I01
sg26
g36
sbsg19
I3
sg21
(imyEvolve
Tree
p556
(dp557
g14
(imyEvolve
Tree
p558
(dp559
g7
(imyEvolve
Tree
p560
(dp561
g19
I0
sg24
F-3.2306758995993823
sg20
I01
sbsg19
I1
sg25
I01
sg26
g143
sbsg19
I2
sg21
(imyEvolve
Tree
p562
(dp563
g14
(imyEvolve
Tree
p564
(dp565
g19
I0
sg24
F-1.4674133880890716
sg20
I01
sbsg19
I1
sg21
(imyEvolve
Tree
p566
(dp567
g19
I0
sg20
I00
sbsg25
I00
sg26
g35
sbsg25
I00
sg26
g34
sbsg25
I00
sg26
g34
sbsg25
I00
sg26
g27
sba(imyEvolve
Tree
p568
(dp569
g7
(imyEvolve
Tree
p570
(dp571
g7
(imyEvolve
Tree
p572
(dp573
g19
I1
sg14
(imyEvolve
Tree
p574
(dp575
g19
I0
sg24
F-1.2087999300874266
sg20
I01
sbsg21
(imyEvolve
Tree
p576
(dp577
g19
I0
sg20
I00
sbsg25
I00
sg26
g27
sbsg19
I2
sg25
I01
sg26
g143
sbsg19
I3
sg25
I01
sg26
g36
sba(imyEvolve
Tree
p578
(dp579
g7
(imyEvolve
Tree
p580
(dp581
g7
(imyEvolve
Tree
p582
(dp583
g7
(imyEvolve
Tree
p584
(dp585
g7
(imyEvolve
Tree
p586
(dp587
g14
(imyEvolve
Tree
p588
(dp589
g19
I0
sg24
F-2.1320685991224497
sg20
I01
sbsg19
I1
sg21
(imyEvolve
Tree
p590
(dp591
g19
I0
sg20
I00
sbsg25
I00
sg26
g34
sbsg19
I2
sg25
I01
sg26
g143
sbsg19
I3
sg25
I01
sg26
g36
sbsg19
I4
sg25
I01
sg26
g38
sbsg19
I5
sg25
I01
sg26
g143
sba(imyEvolve
Tree
p592
(dp593
g7
(imyEvolve
Tree
p594
(dp595
g7
(imyEvolve
Tree
p596
(dp597
g7
(imyEvolve
Tree
p598
(dp599
g14
(imyEvolve
Tree
p600
(dp601
g14
(imyEvolve
Tree
p602
(dp603
g19
I0
sg24
F-1.6967562311127917
sg20
I01
sbsg19
I1
sg21
(imyEvolve
Tree
p604
(dp605
g19
I0
sg24
F3.6644943057405186
sg20
I01
sbsg25
I00
sg26
g35
sbsg19
I2
sg21
(imyEvolve
Tree
p606
(dp607
g14
(imyEvolve
Tree
p608
(dp609
g19
I0
sg24
F2.3081921395933778
sg20
I01
sbsg19
I1
sg21
(imyEvolve
Tree
p610
(dp611
g19
I0
sg24
F4.799859945263806
sg20
I01
sbsg25
I00
sg26
g27
sbsg25
I00
sg26
g27
sbsg19
I3
sg25
I01
sg26
g143
sbsg19
I4
sg25
I01
sg26
g36
sbsg19
I5
sg25
I01
sg26
g37
sba(imyEvolve
Tree
p612
(dp613
g14
(imyEvolve
Tree
p614
(dp615
g7
(imyEvolve
Tree
p616
(dp617
g19
I0
sg24
F-0.8815828922941593
sg20
I01
sbsg19
I1
sg25
I01
sg26
g143
sbsg19
I2
sg21
(imyEvolve
Tree
p618
(dp619
g7
(imyEvolve
Tree
p620
(dp621
g19
I0
sg20
I00
sbsg19
I1
sg25
I01
sg26
g37
sbsg25
I00
sg26
g35
sba(imyEvolve
Tree
p622
(dp623
g7
(imyEvolve
Tree
p624
(dp625
g7
(imyEvolve
Tree
p626
(dp627
g19
I0
sg20
I00
sbsg19
I1
sg25
I01
sg26
g38
sbsg19
I2
sg25
I01
sg26
g143
sbaasS'alpha'
p628
F0.007471123144049652
sS'fitness'
p629
cnumpy.core.multiarray
scalar
p630
(cnumpy
dtype
p631
(S'f8'
p632
I0
I1
tp633
Rp634
(I3
S'<'
p635
NNNI-1
I-1
I0
tp636
bS'\x00\xbcI\x0c\x8a\x9fV\xbf'
p637
tp638
Rp639
sS'weightSharing'
p640
(lp641
I00
aI00
asS'fitnessValid'
p642
I00
sS'resolution'
p643
I70
sb.