(imyEvolve
Individual
p0
(dp1
S'funcs'
p2
(lp3
(lp4
(imyEvolve
Tree
p5
(dp6
S'below'
p7
(imyEvolve
Tree
p8
(dp9
g7
(imyEvolve
Tree
p10
(dp11
S'depth'
p12
I0
sS'isConstant'
p13
I00
sbsg12
I1
sS'single'
p14
I01
sS'op'
p15
cmath
sin
p16
sbsg12
I2
sg14
I01
sg15
g16
sba(imyEvolve
Tree
p17
(dp18
g7
(imyEvolve
Tree
p19
(dp20
g7
(imyEvolve
Tree
p21
(dp22
g7
(imyEvolve
Tree
p23
(dp24
g12
I0
sS'constant'
p25
F-4.09733514862223
sg13
I01
sbsg12
I1
sg14
I01
sg15
cmyEvolve
absSqrt
p26
sbsg12
I2
sg14
I01
sg15
g26
sbsg12
I3
sg14
I01
sg15
g26
sba(imyEvolve
Tree
p27
(dp28
g7
(imyEvolve
Tree
p29
(dp30
S'left'
p31
(imyEvolve
Tree
p32
(dp33
g31
(imyEvolve
Tree
p34
(dp35
g7
(imyEvolve
Tree
p36
(dp37
g12
I0
sg13
I00
sbsg12
I1
sg14
I01
sg15
g16
sbsg12
I2
sS'right'
p38
(imyEvolve
Tree
p39
(dp40
g7
(imyEvolve
Tree
p41
(dp42
g12
I0
sg13
I00
sbsg12
I1
sg14
I01
sg15
cmyEvolve
square
p43
sbsg14
I00
sg15
coperator
mul
p44
sbsg12
I3
sg38
(imyEvolve
Tree
p45
(dp46
g31
(imyEvolve
Tree
p47
(dp48
g31
(imyEvolve
Tree
p49
(dp50
g12
I0
sg13
I00
sbsg12
I1
sg38
(imyEvolve
Tree
p51
(dp52
g12
I0
sg25
F-4.090391860496188
sg13
I01
sbsg14
I00
sg15
coperator
sub
p53
sbsg12
I2
sg38
(imyEvolve
Tree
p54
(dp55
g7
(imyEvolve
Tree
p56
(dp57
g12
I0
sg25
F2.4475927049836157
sg13
I01
sbsg12
I1
sg14
I01
sg15
cmath
cos
p58
sbsg14
I00
sg15
g53
sbsg14
I00
sg15
g44
sbsg12
I4
sg14
I01
sg15
g16
sba(imyEvolve
Tree
p59
(dp60
g12
I5
sg31
(imyEvolve
Tree
p61
(dp62
g7
(imyEvolve
Tree
p63
(dp64
g12
I3
sg31
(imyEvolve
Tree
p65
(dp66
g12
I2
sg31
(imyEvolve
Tree
p67
(dp68
g7
(imyEvolve
Tree
p69
(dp70
g12
I0
sg25
F-1.075970921107543
sg13
I01
sbsg12
I1
sg14
I01
sg15
g16
sbsg38
(imyEvolve
Tree
p71
(dp72
g12
I1
sg31
(imyEvolve
Tree
p73
(dp74
g12
I0
sg25
F-1.647217724370027
sg13
I01
sbsg38
(imyEvolve
Tree
p75
(dp76
g12
I0
sg25
F4.502154703426815
sg13
I01
sbsg14
I00
sg15
g53
sbsg14
I00
sg15
g53
sbsg38
(imyEvolve
Tree
p77
(dp78
g12
I2
sg31
(imyEvolve
Tree
p79
(dp80
g12
I1
sg31
(imyEvolve
Tree
p81
(dp82
g12
I0
sg25
F1.056995101688175
sg13
I01
sbsg38
(imyEvolve
Tree
p83
(dp84
g12
I0
sg13
I00
sbsg14
I00
sg15
g44
sbsg38
(imyEvolve
Tree
p85
(dp86
g12
I1
sg31
(imyEvolve
Tree
p87
(dp88
g12
I0
sg13
I00
sbsg38
(imyEvolve
Tree
p89
(dp90
g12
I0
sg25
F1.6088890262036504
sg13
I01
sbsg14
I00
sg15
g44
sbsg14
I00
sg15
g53
sbsg14
I00
sg15
coperator
add
p91
sbsg12
I4
sg14
I01
sg15
g16
sbsg38
(imyEvolve
Tree
p92
(dp93
g7
(imyEvolve
Tree
p94
(dp95
g12
I3
sg31
(imyEvolve
Tree
p96
(dp97
g7
(imyEvolve
Tree
p98
(dp99
g12
I1
sg31
(imyEvolve
Tree
p100
(dp101
g12
I0
sg13
I00
sbsg38
(imyEvolve
Tree
p102
(dp103
g12
I0
sg13
I00
sbsg14
I00
sg15
g44
sbsg12
I2
sg14
I01
sg15
g43
sbsg38
(imyEvolve
Tree
p104
(dp105
g7
(imyEvolve
Tree
p106
(dp107
g7
(imyEvolve
Tree
p108
(dp109
g12
I0
sg25
F3.1412180883625727
sg13
I01
sbsg12
I1
sg14
I01
sg15
g26
sbsg12
I2
sg14
I01
sg15
g16
sbsg14
I00
sg15
g44
sbsg12
I4
sg14
I01
sg15
g58
sbsg14
I00
sg15
g44
sba(imyEvolve
Tree
p110
(dp111
g7
(imyEvolve
Tree
p112
(dp113
g7
(imyEvolve
Tree
p114
(dp115
g7
(imyEvolve
Tree
p116
(dp117
g31
(imyEvolve
Tree
p118
(dp119
g31
(imyEvolve
Tree
p120
(dp121
g12
I0
sg13
I00
sbsg12
I1
sg38
(imyEvolve
Tree
p122
(dp123
g12
I0
sg25
F0.304838521791857
sg13
I01
sbsg14
I00
sg15
g91
sbsg12
I2
sg38
(imyEvolve
Tree
p124
(dp125
g7
(imyEvolve
Tree
p126
(dp127
g12
I0
sg25
F-1.5030482224032724
sg13
I01
sbsg12
I1
sg14
I01
sg15
g26
sbsg14
I00
sg15
g53
sbsg12
I3
sg14
I01
sg15
g26
sbsg12
I4
sg14
I01
sg15
g26
sbsg12
I5
sg14
I01
sg15
g43
sba(imyEvolve
Tree
p128
(dp129
g31
(imyEvolve
Tree
p130
(dp131
g7
(imyEvolve
Tree
p132
(dp133
g7
(imyEvolve
Tree
p134
(dp135
g31
(imyEvolve
Tree
p136
(dp137
g12
I0
sg25
F-3.8996145352988467
sg13
I01
sbsg12
I1
sg38
(imyEvolve
Tree
p138
(dp139
g12
I0
sg25
F-2.8168975876226234
sg13
I01
sbsg14
I00
sg15
g53
sbsg12
I2
sg14
I01
sg15
g58
sbsg12
I3
sg14
I01
sg15
g43
sbsg12
I4
sg38
(imyEvolve
Tree
p140
(dp141
g31
(imyEvolve
Tree
p142
(dp143
g31
(imyEvolve
Tree
p144
(dp145
g31
(imyEvolve
Tree
p146
(dp147
g12
I0
sg25
F-1.1818719150243986
sg13
I01
sbsg12
I1
sg38
(imyEvolve
Tree
p148
(dp149
g12
I0
sg13
I00
sbsg14
I00
sg15
g44
sbsg12
I2
sg38
(imyEvolve
Tree
p150
(dp151
g31
(imyEvolve
Tree
p152
(dp153
g12
I0
sg25
F-0.266751876691278
sg13
I01
sbsg12
I1
sg38
(imyEvolve
Tree
p154
(dp155
g12
I0
sg13
I00
sbsg14
I00
sg15
g53
sbsg14
I00
sg15
g91
sbsg12
I3
sg38
(imyEvolve
Tree
p156
(dp157
g31
(imyEvolve
Tree
p158
(dp159
g7
(imyEvolve
Tree
p160
(dp161
g12
I0
sg13
I00
sbsg12
I1
sg14
I01
sg15
g58
sbsg12
I2
sg38
(imyEvolve
Tree
p162
(dp163
g7
(imyEvolve
Tree
p164
(dp165
g12
I0
sg25
F0.5789172615681712
sg13
I01
sbsg12
I1
sg14
I01
sg15
g43
sbsg14
I00
sg15
g53
sbsg14
I00
sg15
g91
sbsg14
I00
sg15
g53
sba(imyEvolve
Tree
p166
(dp167
g31
(imyEvolve
Tree
p168
(dp169
g31
(imyEvolve
Tree
p170
(dp171
g12
I0
sg13
I00
sbsg12
I1
sg38
(imyEvolve
Tree
p172
(dp173
g12
I0
sg25
F0.7498203774778833
sg13
I01
sbsg14
I00
sg15
g91
sbsg12
I2
sg38
(imyEvolve
Tree
p174
(dp175
g7
(imyEvolve
Tree
p176
(dp177
g12
I0
sg25
F2.3500615334230233
sg13
I01
sbsg12
I1
sg14
I01
sg15
g16
sbsg14
I00
sg15
g44
sba(imyEvolve
Tree
p178
(dp179
g7
(imyEvolve
Tree
p180
(dp181
g7
(imyEvolve
Tree
p182
(dp183
g7
(imyEvolve
Tree
p184
(dp185
g12
I0
sg13
I00
sbsg12
I1
sg14
I01
sg15
g16
sbsg12
I2
sg14
I01
sg15
g16
sbsg12
I3
sg14
I01
sg15
g26
sba(imyEvolve
Tree
p186
(dp187
g7
(imyEvolve
Tree
p188
(dp189
g7
(imyEvolve
Tree
p190
(dp191
g12
I1
sg31
(imyEvolve
Tree
p192
(dp193
g12
I0
sg25
F-1.9819467852430894
sg13
I01
sbsg38
(imyEvolve
Tree
p194
(dp195
g12
I0
sg13
I00
sbsg14
I00
sg15
g44
sbsg12
I2
sg14
I01
sg15
g58
sbsg12
I3
sg14
I01
sg15
g26
sba(imyEvolve
Tree
p196
(dp197
g7
(imyEvolve
Tree
p198
(dp199
g31
(imyEvolve
Tree
p200
(dp201
g7
(imyEvolve
Tree
p202
(dp203
g12
I0
sg25
F2.0522991062125326
sg13
I01
sbsg12
I1
sg14
I01
sg15
g58
sbsg12
I2
sg38
(imyEvolve
Tree
p204
(dp205
g7
(imyEvolve
Tree
p206
(dp207
g12
I0
sg13
I00
sbsg12
I1
sg14
I01
sg15
g16
sbsg14
I00
sg15
g53
sbsg12
I3
sg14
I01
sg15
g16
sba(imyEvolve
Tree
p208
(dp209
g31
(imyEvolve
Tree
p210
(dp211
g7
(imyEvolve
Tree
p212
(dp213
g12
I0
sg25
F-2.730835104919187
sg13
I01
sbsg12
I1
sg14
I01
sg15
g16
sbsg12
I2
sg38
(imyEvolve
Tree
p214
(dp215
g31
(imyEvolve
Tree
p216
(dp217
g12
I0
sg13
I00
sbsg12
I1
sg38
(imyEvolve
Tree
p218
(dp219
g12
I0
sg13
I00
sbsg14
I00
sg15
g91
sbsg14
I00
sg15
g53
sba(imyEvolve
Tree
p220
(dp221
g7
(imyEvolve
Tree
p222
(dp223
g31
(imyEvolve
Tree
p224
(dp225
g31
(imyEvolve
Tree
p226
(dp227
g7
(imyEvolve
Tree
p228
(dp229
g31
(imyEvolve
Tree
p230
(dp231
g12
I0
sg13
I00
sbsg12
I1
sg38
(imyEvolve
Tree
p232
(dp233
g12
I0
sg25
F-1.0113882231459828
sg13
I01
sbsg14
I00
sg15
g44
sbsg12
I2
sg14
I01
sg15
g43
sbsg12
I3
sg38
(imyEvolve
Tree
p234
(dp235
g31
(imyEvolve
Tree
p236
(dp237
g7
(imyEvolve
Tree
p238
(dp239
g12
I0
sg13
I00
sbsg12
I1
sg14
I01
sg15
g58
sbsg12
I2
sg38
(imyEvolve
Tree
p240
(dp241
g31
(imyEvolve
Tree
p242
(dp243
g12
I0
sg25
F3.210633958772343
sg13
I01
sbsg12
I1
sg38
(imyEvolve
Tree
p244
(dp245
g12
I0
sg25
F1.378123217879164
sg13
I01
sbsg14
I00
sg15
g44
sbsg14
I00
sg15
g91
sbsg14
I00
sg15
g53
sbsg12
I4
sg38
(imyEvolve
Tree
p246
(dp247
g31
(imyEvolve
Tree
p248
(dp249
g7
(imyEvolve
Tree
p250
(dp251
g31
(imyEvolve
Tree
p252
(dp253
g12
I0
sg25
F-2.1788627147389072
sg13
I01
sbsg12
I1
sg38
(imyEvolve
Tree
p254
(dp255
g12
I0
sg13
I00
sbsg14
I00
sg15
g44
sbsg12
I2
sg14
I01
sg15
g26
sbsg12
I3
sg38
(imyEvolve
Tree
p256
(dp257
g31
(imyEvolve
Tree
p258
(dp259
g31
(imyEvolve
Tree
p260
(dp261
g12
I0
sg13
I00
sbsg12
I1
sg38
(imyEvolve
Tree
p262
(dp263
g12
I0
sg13
I00
sbsg14
I00
sg15
g44
sbsg12
I2
sg38
(imyEvolve
Tree
p264
(dp265
g31
(imyEvolve
Tree
p266
(dp267
g12
I0
sg13
I00
sbsg12
I1
sg38
(imyEvolve
Tree
p268
(dp269
g12
I0
sg25
F2.5786830616325327
sg13
I01
sbsg14
I00
sg15
g53
sbsg14
I00
sg15
g44
sbsg14
I00
sg15
g44
sbsg14
I00
sg15
g44
sbsg12
I5
sg14
I01
sg15
g26
sba(imyEvolve
Tree
p270
(dp271
g7
(imyEvolve
Tree
p272
(dp273
g7
(imyEvolve
Tree
p274
(dp275
g7
(imyEvolve
Tree
p276
(dp277
g7
(imyEvolve
Tree
p278
(dp279
g12
I0
sg13
I00
sbsg12
I1
sg14
I01
sg15
g26
sbsg12
I2
sg14
I01
sg15
g26
sbsg12
I3
sg14
I01
sg15
g26
sbsg12
I4
sg14
I01
sg15
g16
sba(imyEvolve
Tree
p280
(dp281
g7
(imyEvolve
Tree
p282
(dp283
g31
(imyEvolve
Tree
p284
(dp285
g7
(imyEvolve
Tree
p286
(dp287
g7
(imyEvolve
Tree
p288
(dp289
g12
I0
sg13
I00
sbsg12
I1
sg14
I01
sg15
g16
sbsg12
I2
sg14
I01
sg15
g16
sbsg12
I3
sg38
(imyEvolve
Tree
p290
(dp291
g7
(imyEvolve
Tree
p292
(dp293
g7
(imyEvolve
Tree
p294
(dp295
g12
I0
sg13
I00
sbsg12
I1
sg14
I01
sg15
g58
sbsg12
I2
sg14
I01
sg15
g58
sbsg14
I00
sg15
g91
sbsg12
I4
sg14
I01
sg15
g43
sba(imyEvolve
Tree
p296
(dp297
g7
(imyEvolve
Tree
p298
(dp299
g31
(imyEvolve
Tree
p300
(dp301
g7
(imyEvolve
Tree
p302
(dp303
g7
(imyEvolve
Tree
p304
(dp305
g12
I0
sg25
F1.2673741460726085
sg13
I01
sbsg12
I1
sg14
I01
sg15
g16
sbsg12
I2
sg14
I01
sg15
g43
sbsg12
I3
sg38
(imyEvolve
Tree
p306
(dp307
g31
(imyEvolve
Tree
p308
(dp309
g31
(imyEvolve
Tree
p310
(dp311
g12
I0
sg13
I00
sbsg12
I1
sg38
(imyEvolve
Tree
p312
(dp313
g12
I0
sg25
F1.1813954358826475
sg13
I01
sbsg14
I00
sg15
g53
sbsg12
I2
sg38
(imyEvolve
Tree
p314
(dp315
g7
(imyEvolve
Tree
p316
(dp317
g12
I0
sg25
F1.9851409186653566
sg13
I01
sbsg12
I1
sg14
I01
sg15
g58
sbsg14
I00
sg15
g44
sbsg14
I00
sg15
g44
sbsg12
I4
sg14
I01
sg15
g26
sba(imyEvolve
Tree
p318
(dp319
g7
(imyEvolve
Tree
p320
(dp321
g31
(imyEvolve
Tree
p322
(dp323
g12
I0
sg13
I00
sbsg12
I1
sg38
(imyEvolve
Tree
p324
(dp325
g12
I0
sg25
F-3.5713627831542105
sg13
I01
sbsg14
I00
sg15
g44
sbsg12
I2
sg14
I01
sg15
g26
sba(imyEvolve
Tree
p326
(dp327
g7
(imyEvolve
Tree
p328
(dp329
g31
(imyEvolve
Tree
p330
(dp331
g7
(imyEvolve
Tree
p332
(dp333
g7
(imyEvolve
Tree
p334
(dp335
g12
I0
sg25
F4.621639351528035
sg13
I01
sbsg12
I1
sg14
I01
sg15
g43
sbsg12
I2
sg14
I01
sg15
g43
sbsg12
I3
sg38
(imyEvolve
Tree
p336
(dp337
g7
(imyEvolve
Tree
p338
(dp339
g31
(imyEvolve
Tree
p340
(dp341
g12
I0
sg13
I00
sbsg12
I1
sg38
(imyEvolve
Tree
p342
(dp343
g12
I0
sg13
I00
sbsg14
I00
sg15
g44
sbsg12
I2
sg14
I01
sg15
g58
sbsg14
I00
sg15
g53
sbsg12
I4
sg14
I01
sg15
g58
sba(imyEvolve
Tree
p344
(dp345
g31
(imyEvolve
Tree
p346
(dp347
g7
(imyEvolve
Tree
p348
(dp349
g31
(imyEvolve
Tree
p350
(dp351
g31
(imyEvolve
Tree
p352
(dp353
g12
I0
sg25
F-2.333072058415188
sg13
I01
sbsg12
I1
sg38
(imyEvolve
Tree
p354
(dp355
g12
I0
sg13
I00
sbsg14
I00
sg15
g44
sbsg12
I2
sg38
(imyEvolve
Tree
p356
(dp357
g7
(imyEvolve
Tree
p358
(dp359
g12
I0
sg13
I00
sbsg12
I1
sg14
I01
sg15
g58
sbsg14
I00
sg15
g53
sbsg12
I3
sg14
I01
sg15
g58
sbsg12
I4
sg38
(imyEvolve
Tree
p360
(dp361
g31
(imyEvolve
Tree
p362
(dp363
g7
(imyEvolve
Tree
p364
(dp365
g7
(imyEvolve
Tree
p366
(dp367
g12
I0
sg13
I00
sbsg12
I1
sg14
I01
sg15
g58
sbsg12
I2
sg14
I01
sg15
g43
sbsg12
I3
sg38
(imyEvolve
Tree
p368
(dp369
g31
(imyEvolve
Tree
p370
(dp371
g7
(imyEvolve
Tree
p372
(dp373
g12
I0
sg25
F-1.1860108469205057
sg13
I01
sbsg12
I1
sg14
I01
sg15
g16
sbsg12
I2
sg38
(imyEvolve
Tree
p374
(dp375
g31
(imyEvolve
Tree
p376
(dp377
g12
I0
sg13
I00
sbsg12
I1
sg38
(imyEvolve
Tree
p378
(dp379
g12
I0
sg13
I00
sbsg14
I00
sg15
g44
sbsg14
I00
sg15
g44
sbsg14
I00
sg15
g44
sbsg14
I00
sg15
g53
sba(imyEvolve
Tree
p380
(dp381
g31
(imyEvolve
Tree
p382
(dp383
g31
(imyEvolve
Tree
p384
(dp385
g31
(imyEvolve
Tree
p386
(dp387
g31
(imyEvolve
Tree
p388
(dp389
g12
I0
sg25
F-1.3856725040700613
sg13
I01
sbsg12
I1
sg38
(imyEvolve
Tree
p390
(dp391
g12
I0
sg25
F-2.6666571928058036
sg13
I01
sbsg14
I00
sg15
g53
sbsg12
I2
sg38
(imyEvolve
Tree
p392
(dp393
g31
(imyEvolve
Tree
p394
(dp395
g12
I0
sg25
F4.74265453836958
sg13
I01
sbsg12
I1
sg38
(imyEvolve
Tree
p396
(dp397
g12
I0
sg13
I00
sbsg14
I00
sg15
g91
sbsg14
I00
sg15
g53
sbsg12
I3
sg38
(imyEvolve
Tree
p398
(dp399
g31
(imyEvolve
Tree
p400
(dp401
g31
(imyEvolve
Tree
p402
(dp403
g12
I0
sg25
F-4.571888899603472
sg13
I01
sbsg12
I1
sg38
(imyEvolve
Tree
p404
(dp405
g12
I0
sg13
I00
sbsg14
I00
sg15
g44
sbsg12
I2
sg38
(imyEvolve
Tree
p406
(dp407
g31
(imyEvolve
Tree
p408
(dp409
g12
I0
sg13
I00
sbsg12
I1
sg38
(imyEvolve
Tree
p410
(dp411
g12
I0
sg25
F-4.238122781513663
sg13
I01
sbsg14
I00
sg15
g53
sbsg14
I00
sg15
g91
sbsg14
I00
sg15
g53
sbsg12
I4
sg38
(imyEvolve
Tree
p412
(dp413
g7
(imyEvolve
Tree
p414
(dp415
g31
(imyEvolve
Tree
p416
(dp417
g7
(imyEvolve
Tree
p418
(dp419
g12
I0
sg25
F-4.899822936894786
sg13
I01
sbsg12
I1
sg14
I01
sg15
g58
sbsg12
I2
sg38
(imyEvolve
Tree
p420
(dp421
g7
(imyEvolve
Tree
p422
(dp423
g12
I0
sg25
F0.8133443715456803
sg13
I01
sbsg12
I1
sg14
I01
sg15
g58
sbsg14
I00
sg15
g44
sbsg12
I3
sg14
I01
sg15
g58
sbsg14
I00
sg15
g91
sbaa(lp424
(imyEvolve
Tree
p425
(dp426
g7
(imyEvolve
Tree
p427
(dp428
g31
(imyEvolve
Tree
p429
(dp430
g31
(imyEvolve
Tree
p431
(dp432
g7
(imyEvolve
Tree
p433
(dp434
g12
I0
sg25
F-0.5177396789217017
sg13
I01
sbsg12
I1
sg14
I01
sg15
g26
sbsg12
I2
sg38
(imyEvolve
Tree
p435
(dp436
g7
(imyEvolve
Tree
p437
(dp438
g12
I0
sg25
F-2.9952610245265
sg13
I01
sbsg12
I1
sg14
I01
sg15
g26
sbsg14
I00
sg15
g44
sbsg12
I3
sg38
(imyEvolve
Tree
p439
(dp440
g31
(imyEvolve
Tree
p441
(dp442
g7
(imyEvolve
Tree
p443
(dp444
g12
I0
sg25
F4.85832124502879
sg13
I01
sbsg12
I1
sg14
I01
sg15
g16
sbsg12
I2
sg38
(imyEvolve
Tree
p445
(dp446
g7
(imyEvolve
Tree
p447
(dp448
g12
I0
sg13
I00
sbsg12
I1
sg14
I01
sg15
g43
sbsg14
I00
sg15
g53
sbsg14
I00
sg15
g53
sbsg12
I4
sg14
I01
sg15
g26
sba(imyEvolve
Tree
p449
(dp450
g31
(imyEvolve
Tree
p451
(dp452
g7
(imyEvolve
Tree
p453
(dp454
g12
I0
sg25
F-4.102018097452792
sg13
I01
sbsg12
I1
sg14
I01
sg15
g16
sbsg12
I2
sg38
(imyEvolve
Tree
p455
(dp456
g7
(imyEvolve
Tree
p457
(dp458
g12
I0
sg25
F-1.103799335200696
sg13
I01
sbsg12
I1
sg14
I01
sg15
g43
sbsg14
I00
sg15
g53
sba(imyEvolve
Tree
p459
(dp460
g31
(imyEvolve
Tree
p461
(dp462
g7
(imyEvolve
Tree
p463
(dp464
g12
I0
sg13
I00
sbsg12
I1
sg14
I01
sg15
g58
sbsg12
I2
sg38
(imyEvolve
Tree
p465
(dp466
g31
(imyEvolve
Tree
p467
(dp468
g12
I0
sg13
I00
sbsg12
I1
sg38
(imyEvolve
Tree
p469
(dp470
g12
I0
sg13
I00
sbsg14
I00
sg15
g91
sbsg14
I00
sg15
g91
sba(imyEvolve
Tree
p471
(dp472
g31
(imyEvolve
Tree
p473
(dp474
g7
(imyEvolve
Tree
p475
(dp476
g31
(imyEvolve
Tree
p477
(dp478
g7
(imyEvolve
Tree
p479
(dp480
g12
I0
sg13
I00
sbsg12
I1
sg14
I01
sg15
g26
sbsg12
I2
sg38
(imyEvolve
Tree
p481
(dp482
g31
(imyEvolve
Tree
p483
(dp484
g12
I0
sg25
F-1.3856565181639366
sg13
I01
sbsg12
I1
sg38
(imyEvolve
Tree
p485
(dp486
g12
I0
sg13
I00
sbsg14
I00
sg15
g44
sbsg14
I00
sg15
g53
sbsg12
I3
sg14
I01
sg15
g16
sbsg12
I4
sg38
(imyEvolve
Tree
p487
(dp488
g31
(imyEvolve
Tree
p489
(dp490
g7
(imyEvolve
Tree
p491
(dp492
g7
(imyEvolve
Tree
p493
(dp494
g12
I0
sg25
F-4.664571699332604
sg13
I01
sbsg12
I1
sg14
I01
sg15
g43
sbsg12
I2
sg14
I01
sg15
g58
sbsg12
I3
sg38
(imyEvolve
Tree
p495
(dp496
g31
(imyEvolve
Tree
p497
(dp498
g31
(imyEvolve
Tree
p499
(dp500
g12
I0
sg13
I00
sbsg12
I1
sg38
(imyEvolve
Tree
p501
(dp502
g12
I0
sg25
F4.061115404924191
sg13
I01
sbsg14
I00
sg15
g53
sbsg12
I2
sg38
(imyEvolve
Tree
p503
(dp504
g31
(imyEvolve
Tree
p505
(dp506
g12
I0
sg13
I00
sbsg12
I1
sg38
(imyEvolve
Tree
p507
(dp508
g12
I0
sg25
F-0.8345457042793845
sg13
I01
sbsg14
I00
sg15
g91
sbsg14
I00
sg15
g91
sbsg14
I00
sg15
g91
sbsg14
I00
sg15
g91
sba(imyEvolve
Tree
p509
(dp510
g12
I4
sg31
(imyEvolve
Tree
p511
(dp512
g7
(imyEvolve
Tree
p513
(dp514
g7
(imyEvolve
Tree
p515
(dp516
g12
I1
sg31
(imyEvolve
Tree
p517
(dp518
g12
I0
sg25
F2.4815938138930527
sg13
I01
sbsg38
(imyEvolve
Tree
p519
(dp520
g12
I0
sg13
I00
sbsg14
I00
sg15
g44
sbsg12
I2
sg14
I01
sg15
g26
sbsg12
I3
sg14
I01
sg15
g26
sbsg38
(imyEvolve
Tree
p521
(dp522
g7
(imyEvolve
Tree
p523
(dp524
g7
(imyEvolve
Tree
p525
(dp526
g7
(imyEvolve
Tree
p527
(dp528
g12
I0
sg25
F-3.992987720435126
sg13
I01
sbsg12
I1
sg14
I01
sg15
g43
sbsg12
I2
sg14
I01
sg15
g43
sbsg12
I3
sg14
I01
sg15
g26
sbsg14
I00
sg15
g91
sba(imyEvolve
Tree
p529
(dp530
g31
(imyEvolve
Tree
p531
(dp532
g31
(imyEvolve
Tree
p533
(dp534
g7
(imyEvolve
Tree
p535
(dp536
g12
I0
sg13
I00
sbsg12
I1
sg14
I01
sg15
g16
sbsg12
I2
sg38
(imyEvolve
Tree
p537
(dp538
g7
(imyEvolve
Tree
p539
(dp540
g12
I0
sg25
F-2.714371031844326
sg13
I01
sbsg12
I1
sg14
I01
sg15
g43
sbsg14
I00
sg15
g44
sbsg12
I3
sg38
(imyEvolve
Tree
p541
(dp542
g7
(imyEvolve
Tree
p543
(dp544
g7
(imyEvolve
Tree
p545
(dp546
g12
I0
sg25
F-0.4915607658529506
sg13
I01
sbsg12
I1
sg14
I01
sg15
g43
sbsg12
I2
sg14
I01
sg15
g58
sbsg14
I00
sg15
g44
sba(imyEvolve
Tree
p547
(dp548
g31
(imyEvolve
Tree
p549
(dp550
g31
(imyEvolve
Tree
p551
(dp552
g7
(imyEvolve
Tree
p553
(dp554
g31
(imyEvolve
Tree
p555
(dp556
g31
(imyEvolve
Tree
p557
(dp558
g12
I0
sg25
F-4.316295892362173
sg13
I01
sbsg12
I1
sg38
(imyEvolve
Tree
p559
(dp560
g12
I0
sg25
F1.1680017252663797
sg13
I01
sbsg14
I00
sg15
g91
sbsg12
I2
sg38
(imyEvolve
Tree
p561
(dp562
g7
(imyEvolve
Tree
p563
(dp564
g12
I0
sg13
I00
sbsg12
I1
sg14
I01
sg15
g16
sbsg14
I00
sg15
g53
sbsg12
I3
sg14
I01
sg15
g16
sbsg12
I4
sg38
(imyEvolve
Tree
p565
(dp566
g7
(imyEvolve
Tree
p567
(dp568
g7
(imyEvolve
Tree
p569
(dp570
g7
(imyEvolve
Tree
p571
(dp572
g12
I0
sg25
F-4.170120426647075
sg13
I01
sbsg12
I1
sg14
I01
sg15
g43
sbsg12
I2
sg14
I01
sg15
g26
sbsg12
I3
sg14
I01
sg15
g43
sbsg14
I00
sg15
g91
sbsg12
I5
sg38
(imyEvolve
Tree
p573
(dp574
g31
(imyEvolve
Tree
p575
(dp576
g31
(imyEvolve
Tree
p577
(dp578
g31
(imyEvolve
Tree
p579
(dp580
g31
(imyEvolve
Tree
p581
(dp582
g12
I0
sg25
F0.7549396622476987
sg13
I01
sbsg12
I1
sg38
(imyEvolve
Tree
p583
(dp584
g12
I0
sg13
I00
sbsg14
I00
sg15
g53
sbsg12
I2
sg38
(imyEvolve
Tree
p585
(dp586
g31
(imyEvolve
Tree
p587
(dp588
g12
I0
sg13
I00
sbsg12
I1
sg38
(imyEvolve
Tree
p589
(dp590
g12
I0
sg25
F-3.6292086562857993
sg13
I01
sbsg14
I00
sg15
g44
sbsg14
I00
sg15
g91
sbsg12
I3
sg38
(imyEvolve
Tree
p591
(dp592
g31
(imyEvolve
Tree
p593
(dp594
g31
(imyEvolve
Tree
p595
(dp596
g12
I0
sg13
I00
sbsg12
I1
sg38
(imyEvolve
Tree
p597
(dp598
g12
I0
sg25
F1.1552142192433
sg13
I01
sbsg14
I00
sg15
g53
sbsg12
I2
sg38
(imyEvolve
Tree
p599
(dp600
g7
(imyEvolve
Tree
p601
(dp602
g12
I0
sg25
F3.7330980110057848
sg13
I01
sbsg12
I1
sg14
I01
sg15
g16
sbsg14
I00
sg15
g53
sbsg14
I00
sg15
g44
sbsg12
I4
sg38
(imyEvolve
Tree
p603
(dp604
g31
(imyEvolve
Tree
p605
(dp606
g7
(imyEvolve
Tree
p607
(dp608
g31
(imyEvolve
Tree
p609
(dp610
g12
I0
sg13
I00
sbsg12
I1
sg38
(imyEvolve
Tree
p611
(dp612
g12
I0
sg25
F2.7514455130405118
sg13
I01
sbsg14
I00
sg15
g91
sbsg12
I2
sg14
I01
sg15
g43
sbsg12
I3
sg38
(imyEvolve
Tree
p613
(dp614
g31
(imyEvolve
Tree
p615
(dp616
g31
(imyEvolve
Tree
p617
(dp618
g12
I0
sg25
F2.775957724469177
sg13
I01
sbsg12
I1
sg38
(imyEvolve
Tree
p619
(dp620
g12
I0
sg25
F-2.975232514732633
sg13
I01
sbsg14
I00
sg15
g91
sbsg12
I2
sg38
(imyEvolve
Tree
p621
(dp622
g31
(imyEvolve
Tree
p623
(dp624
g12
I0
sg13
I00
sbsg12
I1
sg38
(imyEvolve
Tree
p625
(dp626
g12
I0
sg13
I00
sbsg14
I00
sg15
g91
sbsg14
I00
sg15
g44
sbsg14
I00
sg15
g44
sbsg14
I00
sg15
g53
sbsg14
I00
sg15
g44
sba(imyEvolve
Tree
p627
(dp628
g31
(imyEvolve
Tree
p629
(dp630
g7
(imyEvolve
Tree
p631
(dp632
g31
(imyEvolve
Tree
p633
(dp634
g31
(imyEvolve
Tree
p635
(dp636
g7
(imyEvolve
Tree
p637
(dp638
g12
I0
sg25
F0.07053482830773916
sg13
I01
sbsg12
I1
sg14
I01
sg15
g16
sbsg12
I2
sg38
(imyEvolve
Tree
p639
(dp640
g31
(imyEvolve
Tree
p641
(dp642
g12
I0
sg13
I00
sbsg12
I1
sg38
(imyEvolve
Tree
p643
(dp644
g12
I0
sg13
I00
sbsg14
I00
sg15
g91
sbsg14
I00
sg15
g91
sbsg12
I3
sg38
(imyEvolve
Tree
p645
(dp646
g31
(imyEvolve
Tree
p647
(dp648
g31
(imyEvolve
Tree
p649
(dp650
g12
I0
sg13
I00
sbsg12
I1
sg38
(imyEvolve
Tree
p651
(dp652
g12
I0
sg13
I00
sbsg14
I00
sg15
g91
sbsg12
I2
sg38
(imyEvolve
Tree
p653
(dp654
g31
(imyEvolve
Tree
p655
(dp656
g12
I0
sg13
I00
sbsg12
I1
sg38
(imyEvolve
Tree
p657
(dp658
g12
I0
sg13
I00
sbsg14
I00
sg15
g44
sbsg14
I00
sg15
g53
sbsg14
I00
sg15
g53
sbsg12
I4
sg14
I01
sg15
g58
sbsg12
I5
sg38
(imyEvolve
Tree
p659
(dp660
g7
(imyEvolve
Tree
p661
(dp662
g31
(imyEvolve
Tree
p663
(dp664
g31
(imyEvolve
Tree
p665
(dp666
g31
(imyEvolve
Tree
p667
(dp668
g12
I0
sg13
I00
sbsg12
I1
sg38
(imyEvolve
Tree
p669
(dp670
g12
I0
sg13
I00
sbsg14
I00
sg15
g44
sbsg12
I2
sg38
(imyEvolve
Tree
p671
(dp672
g31
(imyEvolve
Tree
p673
(dp674
g12
I0
sg25
F3.051346654255127
sg13
I01
sbsg12
I1
sg38
(imyEvolve
Tree
p675
(dp676
g12
I0
sg13
I00
sbsg14
I00
sg15
g91
sbsg14
I00
sg15
g44
sbsg12
I3
sg38
(imyEvolve
Tree
p677
(dp678
g31
(imyEvolve
Tree
p679
(dp680
g31
(imyEvolve
Tree
p681
(dp682
g12
I0
sg13
I00
sbsg12
I1
sg38
(imyEvolve
Tree
p683
(dp684
g12
I0
sg13
I00
sbsg14
I00
sg15
g53
sbsg12
I2
sg38
(imyEvolve
Tree
p685
(dp686
g7
(imyEvolve
Tree
p687
(dp688
g12
I0
sg13
I00
sbsg12
I1
sg14
I01
sg15
g26
sbsg14
I00
sg15
g91
sbsg14
I00
sg15
g91
sbsg12
I4
sg14
I01
sg15
g16
sbsg14
I00
sg15
g91
sba(imyEvolve
Tree
p689
(dp690
g7
(imyEvolve
Tree
p691
(dp692
g7
(imyEvolve
Tree
p693
(dp694
g7
(imyEvolve
Tree
p695
(dp696
g7
(imyEvolve
Tree
p697
(dp698
g12
I0
sg25
F-0.7628430060044717
sg13
I01
sbsg12
I1
sg14
I01
sg15
g26
sbsg12
I2
sg14
I01
sg15
g26
sbsg12
I3
sg14
I01
sg15
g43
sbsg12
I4
sg14
I01
sg15
g58
sba(imyEvolve
Tree
p699
(dp700
g12
I4
sg31
(imyEvolve
Tree
p701
(dp702
g7
(imyEvolve
Tree
p703
(dp704
g12
I2
sg31
(imyEvolve
Tree
p705
(dp706
g7
(imyEvolve
Tree
p707
(dp708
g12
I0
sg13
I00
sbsg12
I1
sg14
I01
sg15
g43
sbsg38
(imyEvolve
Tree
p709
(dp710
g12
I1
sg31
(imyEvolve
Tree
p711
(dp712
g12
I0
sg13
I00
sbsg38
(imyEvolve
Tree
p713
(dp714
g12
I0
sg13
I00
sbsg14
I00
sg15
g53
sbsg14
I00
sg15
g44
sbsg12
I3
sg14
I01
sg15
g26
sbsg38
(imyEvolve
Tree
p715
(dp716
g7
(imyEvolve
Tree
p717
(dp718
g12
I2
sg31
(imyEvolve
Tree
p719
(dp720
g7
(imyEvolve
Tree
p721
(dp722
g12
I0
sg13
I00
sbsg12
I1
sg14
I01
sg15
g43
sbsg38
(imyEvolve
Tree
p723
(dp724
g12
I1
sg31
(imyEvolve
Tree
p725
(dp726
g12
I0
sg25
F3.644285063040577
sg13
I01
sbsg38
(imyEvolve
Tree
p727
(dp728
g12
I0
sg13
I00
sbsg14
I00
sg15
g91
sbsg14
I00
sg15
g53
sbsg12
I3
sg14
I01
sg15
g43
sbsg14
I00
sg15
g91
sba(imyEvolve
Tree
p729
(dp730
g7
(imyEvolve
Tree
p731
(dp732
g31
(imyEvolve
Tree
p733
(dp734
g12
I0
sg25
F-3.479478107695284
sg13
I01
sbsg12
I1
sg38
(imyEvolve
Tree
p735
(dp736
g12
I0
sg25
F-1.6758953675370467
sg13
I01
sbsg14
I00
sg15
g53
sbsg12
I2
sg14
I01
sg15
g58
sba(imyEvolve
Tree
p737
(dp738
g31
(imyEvolve
Tree
p739
(dp740
g7
(imyEvolve
Tree
p741
(dp742
g7
(imyEvolve
Tree
p743
(dp744
g7
(imyEvolve
Tree
p745
(dp746
g12
I0
sg13
I00
sbsg12
I1
sg14
I01
sg15
g26
sbsg12
I2
sg14
I01
sg15
g43
sbsg12
I3
sg14
I01
sg15
g58
sbsg12
I4
sg38
(imyEvolve
Tree
p747
(dp748
g7
(imyEvolve
Tree
p749
(dp750
g31
(imyEvolve
Tree
p751
(dp752
g31
(imyEvolve
Tree
p753
(dp754
g12
I0
sg25
F0.8533206227983179
sg13
I01
sbsg12
I1
sg38
(imyEvolve
Tree
p755
(dp756
g12
I0
sg13
I00
sbsg14
I00
sg15
g53
sbsg12
I2
sg38
(imyEvolve
Tree
p757
(dp758
g7
(imyEvolve
Tree
p759
(dp760
g12
I0
sg13
I00
sbsg12
I1
sg14
I01
sg15
g43
sbsg14
I00
sg15
g53
sbsg12
I3
sg14
I01
sg15
g16
sbsg14
I00
sg15
g91
sba(imyEvolve
Tree
p761
(dp762
g7
(imyEvolve
Tree
p763
(dp764
g12
I3
sg31
(imyEvolve
Tree
p765
(dp766
g12
I2
sg31
(imyEvolve
Tree
p767
(dp768
g7
(imyEvolve
Tree
p769
(dp770
g12
I0
sg25
F2.635617235822725
sg13
I01
sbsg12
I1
sg14
I01
sg15
g58
sbsg38
(imyEvolve
Tree
p771
(dp772
g7
(imyEvolve
Tree
p773
(dp774
g12
I0
sg13
I00
sbsg12
I1
sg14
I01
sg15
g58
sbsg14
I00
sg15
g53
sbsg38
(imyEvolve
Tree
p775
(dp776
g12
I2
sg31
(imyEvolve
Tree
p777
(dp778
g7
(imyEvolve
Tree
p779
(dp780
g12
I0
sg25
F-0.28302554750224385
sg13
I01
sbsg12
I1
sg14
I01
sg15
g16
sbsg38
(imyEvolve
Tree
p781
(dp782
g7
(imyEvolve
Tree
p783
(dp784
g12
I0
sg25
F-3.760837677806742
sg13
I01
sbsg12
I1
sg14
I01
sg15
g16
sbsg14
I00
sg15
g44
sbsg14
I00
sg15
g91
sbsg12
I4
sg14
I01
sg15
g58
sba(imyEvolve
Tree
p785
(dp786
g7
(imyEvolve
Tree
p787
(dp788
g12
I2
sg31
(imyEvolve
Tree
p789
(dp790
g12
I1
sg31
(imyEvolve
Tree
p791
(dp792
g12
I0
sg13
I00
sbsg38
(imyEvolve
Tree
p793
(dp794
g12
I0
sg13
I00
sbsg14
I00
sg15
g44
sbsg38
(imyEvolve
Tree
p795
(dp796
g7
(imyEvolve
Tree
p797
(dp798
g12
I0
sg25
F2.087414804430323
sg13
I01
sbsg12
I1
sg14
I01
sg15
g16
sbsg14
I00
sg15
g53
sbsg12
I3
sg14
I01
sg15
g26
sba(imyEvolve
Tree
p799
(dp800
g7
(imyEvolve
Tree
p801
(dp802
g7
(imyEvolve
Tree
p803
(dp804
g12
I0
sg25
F-1.1219420383314436
sg13
I01
sbsg12
I1
sg14
I01
sg15
g58
sbsg12
I2
sg14
I01
sg15
g26
sba(imyEvolve
Tree
p805
(dp806
g31
(imyEvolve
Tree
p807
(dp808
g31
(imyEvolve
Tree
p809
(dp810
g31
(imyEvolve
Tree
p811
(dp812
g7
(imyEvolve
Tree
p813
(dp814
g12
I0
sg13
I00
sbsg12
I1
sg14
I01
sg15
g16
sbsg12
I2
sg38
(imyEvolve
Tree
p815
(dp816
g31
(imyEvolve
Tree
p817
(dp818
g12
I0
sg13
I00
sbsg12
I1
sg38
(imyEvolve
Tree
p819
(dp820
g12
I0
sg25
F-4.920340509286749
sg13
I01
sbsg14
I00
sg15
g44
sbsg14
I00
sg15
g53
sbsg12
I3
sg38
(imyEvolve
Tree
p821
(dp822
g7
(imyEvolve
Tree
p823
(dp824
g31
(imyEvolve
Tree
p825
(dp826
g12
I0
sg13
I00
sbsg12
I1
sg38
(imyEvolve
Tree
p827
(dp828
g12
I0
sg25
F4.575555976558526
sg13
I01
sbsg14
I00
sg15
g91
sbsg12
I2
sg14
I01
sg15
g26
sbsg14
I00
sg15
g91
sbsg12
I4
sg38
(imyEvolve
Tree
p829
(dp830
g31
(imyEvolve
Tree
p831
(dp832
g7
(imyEvolve
Tree
p833
(dp834
g7
(imyEvolve
Tree
p835
(dp836
g12
I0
sg25
F0.1331008107027012
sg13
I01
sbsg12
I1
sg14
I01
sg15
g43
sbsg12
I2
sg14
I01
sg15
g16
sbsg12
I3
sg38
(imyEvolve
Tree
p837
(dp838
g31
(imyEvolve
Tree
p839
(dp840
g7
(imyEvolve
Tree
p841
(dp842
g12
I0
sg25
F-2.7967584422862766
sg13
I01
sbsg12
I1
sg14
I01
sg15
g26
sbsg12
I2
sg38
(imyEvolve
Tree
p843
(dp844
g7
(imyEvolve
Tree
p845
(dp846
g12
I0
sg25
F3.7810310734289594
sg13
I01
sbsg12
I1
sg14
I01
sg15
g43
sbsg14
I00
sg15
g53
sbsg14
I00
sg15
g53
sbsg14
I00
sg15
g44
sba(imyEvolve
Tree
p847
(dp848
g31
(imyEvolve
Tree
p849
(dp850
g31
(imyEvolve
Tree
p851
(dp852
g7
(imyEvolve
Tree
p853
(dp854
g7
(imyEvolve
Tree
p855
(dp856
g12
I0
sg13
I00
sbsg12
I1
sg14
I01
sg15
g58
sbsg12
I2
sg14
I01
sg15
g26
sbsg12
I3
sg38
(imyEvolve
Tree
p857
(dp858
g31
(imyEvolve
Tree
p859
(dp860
g7
(imyEvolve
Tree
p861
(dp862
g12
I0
sg13
I00
sbsg12
I1
sg14
I01
sg15
g16
sbsg12
I2
sg38
(imyEvolve
Tree
p863
(dp864
g31
(imyEvolve
Tree
p865
(dp866
g12
I0
sg13
I00
sbsg12
I1
sg38
(imyEvolve
Tree
p867
(dp868
g12
I0
sg25
F4.863990904785201
sg13
I01
sbsg14
I00
sg15
g44
sbsg14
I00
sg15
g44
sbsg14
I00
sg15
g44
sbsg12
I4
sg38
(imyEvolve
Tree
p869
(dp870
g7
(imyEvolve
Tree
p871
(dp872
g7
(imyEvolve
Tree
p873
(dp874
g31
(imyEvolve
Tree
p875
(dp876
g12
I0
sg25
F3.6586648237888557
sg13
I01
sbsg12
I1
sg38
(imyEvolve
Tree
p877
(dp878
g12
I0
sg13
I00
sbsg14
I00
sg15
g44
sbsg12
I2
sg14
I01
sg15
g43
sbsg12
I3
sg14
I01
sg15
g26
sbsg14
I00
sg15
g53
sba(imyEvolve
Tree
p879
(dp880
g7
(imyEvolve
Tree
p881
(dp882
g7
(imyEvolve
Tree
p883
(dp884
g12
I0
sg13
I00
sbsg12
I1
sg14
I01
sg15
g26
sbsg12
I2
sg14
I01
sg15
g58
sbaa(lp885
(imyEvolve
Tree
p886
(dp887
g7
(imyEvolve
Tree
p888
(dp889
g12
I2
sg31
(imyEvolve
Tree
p890
(dp891
g7
(imyEvolve
Tree
p892
(dp893
g12
I0
sg25
F-1.5046731838923675
sg13
I01
sbsg12
I1
sg14
I01
sg15
g16
sbsg38
(imyEvolve
Tree
p894
(dp895
g7
(imyEvolve
Tree
p896
(dp897
g12
I0
sg13
I00
sbsg12
I1
sg14
I01
sg15
g43
sbsg14
I00
sg15
g91
sbsg12
I3
sg14
I01
sg15
g43
sba(imyEvolve
Tree
p898
(dp899
g31
(imyEvolve
Tree
p900
(dp901
g31
(imyEvolve
Tree
p902
(dp903
g7
(imyEvolve
Tree
p904
(dp905
g31
(imyEvolve
Tree
p906
(dp907
g7
(imyEvolve
Tree
p908
(dp909
g12
I0
sg13
I00
sbsg12
I1
sg14
I01
sg15
g43
sbsg12
I2
sg38
(imyEvolve
Tree
p910
(dp911
g31
(imyEvolve
Tree
p912
(dp913
g12
I0
sg13
I00
sbsg12
I1
sg38
(imyEvolve
Tree
p914
(dp915
g12
I0
sg13
I00
sbsg14
I00
sg15
g91
sbsg14
I00
sg15
g91
sbsg12
I3
sg14
I01
sg15
g58
sbsg12
I4
sg38
(imyEvolve
Tree
p916
(dp917
g7
(imyEvolve
Tree
p918
(dp919
g31
(imyEvolve
Tree
p920
(dp921
g31
(imyEvolve
Tree
p922
(dp923
g12
I0
sg25
F0.032535151273632934
sg13
I01
sbsg12
I1
sg38
(imyEvolve
Tree
p924
(dp925
g12
I0
sg25
F-4.010705466895673
sg13
I01
sbsg14
I00
sg15
g44
sbsg12
I2
sg38
(imyEvolve
Tree
p926
(dp927
g31
(imyEvolve
Tree
p928
(dp929
g12
I0
sg13
I00
sbsg12
I1
sg38
(imyEvolve
Tree
p930
(dp931
g12
I0
sg25
F3.0567870152411345
sg13
I01
sbsg14
I00
sg15
g44
sbsg14
I00
sg15
g91
sbsg12
I3
sg14
I01
sg15
g26
sbsg14
I00
sg15
g53
sbsg12
I5
sg38
(imyEvolve
Tree
p932
(dp933
g7
(imyEvolve
Tree
p934
(dp935
g7
(imyEvolve
Tree
p936
(dp937
g31
(imyEvolve
Tree
p938
(dp939
g31
(imyEvolve
Tree
p940
(dp941
g12
I0
sg25
F1.3566357771950122
sg13
I01
sbsg12
I1
sg38
(imyEvolve
Tree
p942
(dp943
g12
I0
sg25
F-1.7038694910070817
sg13
I01
sbsg14
I00
sg15
g53
sbsg12
I2
sg38
(imyEvolve
Tree
p944
(dp945
g31
(imyEvolve
Tree
p946
(dp947
g12
I0
sg25
F-4.805202609685566
sg13
I01
sbsg12
I1
sg38
(imyEvolve
Tree
p948
(dp949
g12
I0
sg13
I00
sbsg14
I00
sg15
g44
sbsg14
I00
sg15
g91
sbsg12
I3
sg14
I01
sg15
g16
sbsg12
I4
sg14
I01
sg15
g26
sbsg14
I00
sg15
g44
sba(imyEvolve
Tree
p950
(dp951
g7
(imyEvolve
Tree
p952
(dp953
g31
(imyEvolve
Tree
p954
(dp955
g31
(imyEvolve
Tree
p956
(dp957
g12
I0
sg25
F3.1456975748575573
sg13
I01
sbsg12
I1
sg38
(imyEvolve
Tree
p958
(dp959
g12
I0
sg13
I00
sbsg14
I00
sg15
g53
sbsg12
I2
sg38
(imyEvolve
Tree
p960
(dp961
g7
(imyEvolve
Tree
p962
(dp963
g12
I0
sg13
I00
sbsg12
I1
sg14
I01
sg15
g43
sbsg14
I00
sg15
g44
sbsg12
I3
sg14
I01
sg15
g43
sba(imyEvolve
Tree
p964
(dp965
g7
(imyEvolve
Tree
p966
(dp967
g7
(imyEvolve
Tree
p968
(dp969
g12
I0
sg25
F2.055076879187949
sg13
I01
sbsg12
I1
sg14
I01
sg15
g16
sbsg12
I2
sg14
I01
sg15
g26
sba(imyEvolve
Tree
p970
(dp971
g7
(imyEvolve
Tree
p972
(dp973
g7
(imyEvolve
Tree
p974
(dp975
g31
(imyEvolve
Tree
p976
(dp977
g7
(imyEvolve
Tree
p978
(dp979
g12
I0
sg25
F1.2792557121007562
sg13
I01
sbsg12
I1
sg14
I01
sg15
g16
sbsg12
I2
sg38
(imyEvolve
Tree
p980
(dp981
g31
(imyEvolve
Tree
p982
(dp983
g12
I0
sg13
I00
sbsg12
I1
sg38
(imyEvolve
Tree
p984
(dp985
g12
I0
sg25
F-1.933007594728763
sg13
I01
sbsg14
I00
sg15
g53
sbsg14
I00
sg15
g91
sbsg12
I3
sg14
I01
sg15
g26
sbsg12
I4
sg14
I01
sg15
g16
sba(imyEvolve
Tree
p986
(dp987
g7
(imyEvolve
Tree
p988
(dp989
g7
(imyEvolve
Tree
p990
(dp991
g7
(imyEvolve
Tree
p992
(dp993
g31
(imyEvolve
Tree
p994
(dp995
g7
(imyEvolve
Tree
p996
(dp997
g12
I0
sg25
F0.4238345021920109
sg13
I01
sbsg12
I1
sg14
I01
sg15
g16
sbsg12
I2
sg38
(imyEvolve
Tree
p998
(dp999
g31
(imyEvolve
Tree
p1000
(dp1001
g12
I0
sg25
F-4.0424621588014755
sg13
I01
sbsg12
I1
sg38
(imyEvolve
Tree
p1002
(dp1003
g12
I0
sg25
F-0.5251291177365509
sg13
I01
sbsg14
I00
sg15
g91
sbsg14
I00
sg15
g44
sbsg12
I3
sg14
I01
sg15
g16
sbsg12
I4
sg14
I01
sg15
g16
sbsg12
I5
sg14
I01
sg15
g26
sba(imyEvolve
Tree
p1004
(dp1005
g7
(imyEvolve
Tree
p1006
(dp1007
g12
I2
sg31
(imyEvolve
Tree
p1008
(dp1009
g12
I1
sg31
(imyEvolve
Tree
p1010
(dp1011
g12
I0
sg13
I00
sbsg38
(imyEvolve
Tree
p1012
(dp1013
g12
I0
sg25
F-2.7197023978030233
sg13
I01
sbsg14
I00
sg15
g44
sbsg38
(imyEvolve
Tree
p1014
(dp1015
g7
(imyEvolve
Tree
p1016
(dp1017
g12
I0
sg25
F-2.237442510951092
sg13
I01
sbsg12
I1
sg14
I01
sg15
g58
sbsg14
I00
sg15
g53
sbsg12
I3
sg14
I01
sg15
g43
sba(imyEvolve
Tree
p1018
(dp1019
g7
(imyEvolve
Tree
p1020
(dp1021
g12
I1
sg31
(imyEvolve
Tree
p1022
(dp1023
g12
I0
sg25
F-1.5500025201860632
sg13
I01
sbsg38
(imyEvolve
Tree
p1024
(dp1025
g12
I0
sg13
I00
sbsg14
I00
sg15
g53
sbsg12
I2
sg14
I01
sg15
g16
sba(imyEvolve
Tree
p1026
(dp1027
g31
(imyEvolve
Tree
p1028
(dp1029
g7
(imyEvolve
Tree
p1030
(dp1031
g12
I0
sg25
F2.0040809612078325
sg13
I01
sbsg12
I1
sg14
I01
sg15
g26
sbsg12
I2
sg38
(imyEvolve
Tree
p1032
(dp1033
g7
(imyEvolve
Tree
p1034
(dp1035
g12
I0
sg25
F-1.5210632673941293
sg13
I01
sbsg12
I1
sg14
I01
sg15
g58
sbsg14
I00
sg15
g44
sba(imyEvolve
Tree
p1036
(dp1037
g7
(imyEvolve
Tree
p1038
(dp1039
g7
(imyEvolve
Tree
p1040
(dp1041
g7
(imyEvolve
Tree
p1042
(dp1043
g12
I1
sg31
(imyEvolve
Tree
p1044
(dp1045
g12
I0
sg25
F3.412036663701034
sg13
I01
sbsg38
(imyEvolve
Tree
p1046
(dp1047
g12
I0
sg25
F0.8350076367200776
sg13
I01
sbsg14
I00
sg15
g44
sbsg12
I2
sg14
I01
sg15
g58
sbsg12
I3
sg14
I01
sg15
g58
sbsg12
I4
sg14
I01
sg15
g43
sba(imyEvolve
Tree
p1048
(dp1049
g31
(imyEvolve
Tree
p1050
(dp1051
g7
(imyEvolve
Tree
p1052
(dp1053
g12
I0
sg13
I00
sbsg12
I1
sg14
I01
sg15
g16
sbsg12
I2
sg38
(imyEvolve
Tree
p1054
(dp1055
g31
(imyEvolve
Tree
p1056
(dp1057
g12
I0
sg25
F3.1974177695709685
sg13
I01
sbsg12
I1
sg38
(imyEvolve
Tree
p1058
(dp1059
g12
I0
sg25
F-3.6392771285584944
sg13
I01
sbsg14
I00
sg15
g91
sbsg14
I00
sg15
g91
sba(imyEvolve
Tree
p1060
(dp1061
g31
(imyEvolve
Tree
p1062
(dp1063
g7
(imyEvolve
Tree
p1064
(dp1065
g31
(imyEvolve
Tree
p1066
(dp1067
g7
(imyEvolve
Tree
p1068
(dp1069
g12
I0
sg13
I00
sbsg12
I1
sg14
I01
sg15
g16
sbsg12
I2
sg38
(imyEvolve
Tree
p1070
(dp1071
g7
(imyEvolve
Tree
p1072
(dp1073
g12
I0
sg13
I00
sbsg12
I1
sg14
I01
sg15
g43
sbsg14
I00
sg15
g44
sbsg12
I3
sg14
I01
sg15
g43
sbsg12
I4
sg38
(imyEvolve
Tree
p1074
(dp1075
g31
(imyEvolve
Tree
p1076
(dp1077
g31
(imyEvolve
Tree
p1078
(dp1079
g31
(imyEvolve
Tree
p1080
(dp1081
g12
I0
sg13
I00
sbsg12
I1
sg38
(imyEvolve
Tree
p1082
(dp1083
g12
I0
sg13
I00
sbsg14
I00
sg15
g44
sbsg12
I2
sg38
(imyEvolve
Tree
p1084
(dp1085
g31
(imyEvolve
Tree
p1086
(dp1087
g12
I0
sg13
I00
sbsg12
I1
sg38
(imyEvolve
Tree
p1088
(dp1089
g12
I0
sg25
F-4.292855173402083
sg13
I01
sbsg14
I00
sg15
g44
sbsg14
I00
sg15
g91
sbsg12
I3
sg38
(imyEvolve
Tree
p1090
(dp1091
g31
(imyEvolve
Tree
p1092
(dp1093
g31
(imyEvolve
Tree
p1094
(dp1095
g12
I0
sg25
F0.9988886356081705
sg13
I01
sbsg12
I1
sg38
(imyEvolve
Tree
p1096
(dp1097
g12
I0
sg13
I00
sbsg14
I00
sg15
g44
sbsg12
I2
sg38
(imyEvolve
Tree
p1098
(dp1099
g31
(imyEvolve
Tree
p1100
(dp1101
g12
I0
sg25
F4.1500390802141
sg13
I01
sbsg12
I1
sg38
(imyEvolve
Tree
p1102
(dp1103
g12
I0
sg13
I00
sbsg14
I00
sg15
g44
sbsg14
I00
sg15
g53
sbsg14
I00
sg15
g91
sbsg14
I00
sg15
g44
sbaa(lp1104
(imyEvolve
Tree
p1105
(dp1106
g7
(imyEvolve
Tree
p1107
(dp1108
g12
I3
sg31
(imyEvolve
Tree
p1109
(dp1110
g7
(imyEvolve
Tree
p1111
(dp1112
g7
(imyEvolve
Tree
p1113
(dp1114
g12
I0
sg13
I00
sbsg12
I1
sg14
I01
sg15
g58
sbsg12
I2
sg14
I01
sg15
g26
sbsg38
(imyEvolve
Tree
p1115
(dp1116
g7
(imyEvolve
Tree
p1117
(dp1118
g12
I1
sg31
(imyEvolve
Tree
p1119
(dp1120
g12
I0
sg13
I00
sbsg38
(imyEvolve
Tree
p1121
(dp1122
g12
I0
sg25
F-4.836954568674213
sg13
I01
sbsg14
I00
sg15
g53
sbsg12
I2
sg14
I01
sg15
g43
sbsg14
I00
sg15
g53
sbsg12
I4
sg14
I01
sg15
g58
sba(imyEvolve
Tree
p1123
(dp1124
g7
(imyEvolve
Tree
p1125
(dp1126
g31
(imyEvolve
Tree
p1127
(dp1128
g12
I0
sg13
I00
sbsg12
I1
sg38
(imyEvolve
Tree
p1129
(dp1130
g12
I0
sg13
I00
sbsg14
I00
sg15
g44
sbsg12
I2
sg14
I01
sg15
g16
sba(imyEvolve
Tree
p1131
(dp1132
g7
(imyEvolve
Tree
p1133
(dp1134
g7
(imyEvolve
Tree
p1135
(dp1136
g12
I1
sg31
(imyEvolve
Tree
p1137
(dp1138
g12
I0
sg13
I00
sbsg38
(imyEvolve
Tree
p1139
(dp1140
g12
I0
sg25
F3.525856382531403
sg13
I01
sbsg14
I00
sg15
g53
sbsg12
I2
sg14
I01
sg15
g43
sbsg12
I3
sg14
I01
sg15
g26
sba(imyEvolve
Tree
p1141
(dp1142
g7
(imyEvolve
Tree
p1143
(dp1144
g7
(imyEvolve
Tree
p1145
(dp1146
g7
(imyEvolve
Tree
p1147
(dp1148
g31
(imyEvolve
Tree
p1149
(dp1150
g12
I0
sg25
F-3.5981690464944216
sg13
I01
sbsg12
I1
sg38
(imyEvolve
Tree
p1151
(dp1152
g12
I0
sg13
I00
sbsg14
I00
sg15
g91
sbsg12
I2
sg14
I01
sg15
g58
sbsg12
I3
sg14
I01
sg15
g43
sbsg12
I4
sg14
I01
sg15
g26
sba(imyEvolve
Tree
p1153
(dp1154
g31
(imyEvolve
Tree
p1155
(dp1156
g7
(imyEvolve
Tree
p1157
(dp1158
g7
(imyEvolve
Tree
p1159
(dp1160
g7
(imyEvolve
Tree
p1161
(dp1162
g7
(imyEvolve
Tree
p1163
(dp1164
g12
I0
sg25
F-3.001831422167476
sg13
I01
sbsg12
I1
sg14
I01
sg15
g58
sbsg12
I2
sg14
I01
sg15
g26
sbsg12
I3
sg14
I01
sg15
g26
sbsg12
I4
sg14
I01
sg15
g58
sbsg12
I5
sg38
(imyEvolve
Tree
p1165
(dp1166
g31
(imyEvolve
Tree
p1167
(dp1168
g7
(imyEvolve
Tree
p1169
(dp1170
g31
(imyEvolve
Tree
p1171
(dp1172
g7
(imyEvolve
Tree
p1173
(dp1174
g12
I0
sg25
F-1.8652378696750205
sg13
I01
sbsg12
I1
sg14
I01
sg15
g58
sbsg12
I2
sg38
(imyEvolve
Tree
p1175
(dp1176
g7
(imyEvolve
Tree
p1177
(dp1178
g12
I0
sg25
F0.2310779613222298
sg13
I01
sbsg12
I1
sg14
I01
sg15
g43
sbsg14
I00
sg15
g44
sbsg12
I3
sg14
I01
sg15
g43
sbsg12
I4
sg38
(imyEvolve
Tree
p1179
(dp1180
g7
(imyEvolve
Tree
p1181
(dp1182
g7
(imyEvolve
Tree
p1183
(dp1184
g7
(imyEvolve
Tree
p1185
(dp1186
g12
I0
sg13
I00
sbsg12
I1
sg14
I01
sg15
g43
sbsg12
I2
sg14
I01
sg15
g58
sbsg12
I3
sg14
I01
sg15
g26
sbsg14
I00
sg15
g44
sbsg14
I00
sg15
g44
sba(imyEvolve
Tree
p1187
(dp1188
g7
(imyEvolve
Tree
p1189
(dp1190
g7
(imyEvolve
Tree
p1191
(dp1192
g12
I3
sg31
(imyEvolve
Tree
p1193
(dp1194
g7
(imyEvolve
Tree
p1195
(dp1196
g12
I1
sg31
(imyEvolve
Tree
p1197
(dp1198
g12
I0
sg25
F-2.3180145281028883
sg13
I01
sbsg38
(imyEvolve
Tree
p1199
(dp1200
g12
I0
sg13
I00
sbsg14
I00
sg15
g53
sbsg12
I2
sg14
I01
sg15
g16
sbsg38
(imyEvolve
Tree
p1201
(dp1202
g7
(imyEvolve
Tree
p1203
(dp1204
g12
I1
sg31
(imyEvolve
Tree
p1205
(dp1206
g12
I0
sg25
F2.2014027646493375
sg13
I01
sbsg38
(imyEvolve
Tree
p1207
(dp1208
g12
I0
sg25
F-4.7381949765785905
sg13
I01
sbsg14
I00
sg15
g44
sbsg12
I2
sg14
I01
sg15
g58
sbsg14
I00
sg15
g53
sbsg12
I4
sg14
I01
sg15
g58
sbsg12
I5
sg14
I01
sg15
g16
sba(imyEvolve
Tree
p1209
(dp1210
g7
(imyEvolve
Tree
p1211
(dp1212
g31
(imyEvolve
Tree
p1213
(dp1214
g7
(imyEvolve
Tree
p1215
(dp1216
g31
(imyEvolve
Tree
p1217
(dp1218
g12
I0
sg13
I00
sbsg12
I1
sg38
(imyEvolve
Tree
p1219
(dp1220
g12
I0
sg13
I00
sbsg14
I00
sg15
g44
sbsg12
I2
sg14
I01
sg15
g43
sbsg12
I3
sg38
(imyEvolve
Tree
p1221
(dp1222
g31
(imyEvolve
Tree
p1223
(dp1224
g7
(imyEvolve
Tree
p1225
(dp1226
g12
I0
sg25
F4.360322128616529
sg13
I01
sbsg12
I1
sg14
I01
sg15
g16
sbsg12
I2
sg38
(imyEvolve
Tree
p1227
(dp1228
g31
(imyEvolve
Tree
p1229
(dp1230
g12
I0
sg25
F-2.5715432634681177
sg13
I01
sbsg12
I1
sg38
(imyEvolve
Tree
p1231
(dp1232
g12
I0
sg25
F1.2020753961071318
sg13
I01
sbsg14
I00
sg15
g91
sbsg14
I00
sg15
g44
sbsg14
I00
sg15
g53
sbsg12
I4
sg14
I01
sg15
g26
sba(imyEvolve
Tree
p1233
(dp1234
g31
(imyEvolve
Tree
p1235
(dp1236
g31
(imyEvolve
Tree
p1237
(dp1238
g31
(imyEvolve
Tree
p1239
(dp1240
g7
(imyEvolve
Tree
p1241
(dp1242
g12
I0
sg25
F-2.7682995845769276
sg13
I01
sbsg12
I1
sg14
I01
sg15
g58
sbsg12
I2
sg38
(imyEvolve
Tree
p1243
(dp1244
g31
(imyEvolve
Tree
p1245
(dp1246
g12
I0
sg25
F-0.9341798676646231
sg13
I01
sbsg12
I1
sg38
(imyEvolve
Tree
p1247
(dp1248
g12
I0
sg25
F3.8766547531814037
sg13
I01
sbsg14
I00
sg15
g44
sbsg14
I00
sg15
g91
sbsg12
I3
sg38
(imyEvolve
Tree
p1249
(dp1250
g7
(imyEvolve
Tree
p1251
(dp1252
g7
(imyEvolve
Tree
p1253
(dp1254
g12
I0
sg13
I00
sbsg12
I1
sg14
I01
sg15
g58
sbsg12
I2
sg14
I01
sg15
g43
sbsg14
I00
sg15
g53
sbsg12
I4
sg38
(imyEvolve
Tree
p1255
(dp1256
g31
(imyEvolve
Tree
p1257
(dp1258
g31
(imyEvolve
Tree
p1259
(dp1260
g7
(imyEvolve
Tree
p1261
(dp1262
g12
I0
sg13
I00
sbsg12
I1
sg14
I01
sg15
g26
sbsg12
I2
sg38
(imyEvolve
Tree
p1263
(dp1264
g7
(imyEvolve
Tree
p1265
(dp1266
g12
I0
sg13
I00
sbsg12
I1
sg14
I01
sg15
g43
sbsg14
I00
sg15
g53
sbsg12
I3
sg38
(imyEvolve
Tree
p1267
(dp1268
g31
(imyEvolve
Tree
p1269
(dp1270
g31
(imyEvolve
Tree
p1271
(dp1272
g12
I0
sg25
F-1.8008272400228797
sg13
I01
sbsg12
I1
sg38
(imyEvolve
Tree
p1273
(dp1274
g12
I0
sg13
I00
sbsg14
I00
sg15
g53
sbsg12
I2
sg38
(imyEvolve
Tree
p1275
(dp1276
g7
(imyEvolve
Tree
p1277
(dp1278
g12
I0
sg13
I00
sbsg12
I1
sg14
I01
sg15
g16
sbsg14
I00
sg15
g53
sbsg14
I00
sg15
g53
sbsg14
I00
sg15
g53
sba(imyEvolve
Tree
p1279
(dp1280
g31
(imyEvolve
Tree
p1281
(dp1282
g7
(imyEvolve
Tree
p1283
(dp1284
g12
I0
sg25
F-4.313384958442853
sg13
I01
sbsg12
I1
sg14
I01
sg15
g58
sbsg12
I2
sg38
(imyEvolve
Tree
p1285
(dp1286
g31
(imyEvolve
Tree
p1287
(dp1288
g12
I0
sg25
F2.748024528332609
sg13
I01
sbsg12
I1
sg38
(imyEvolve
Tree
p1289
(dp1290
g12
I0
sg13
I00
sbsg14
I00
sg15
g44
sbsg14
I00
sg15
g44
sba(imyEvolve
Tree
p1291
(dp1292
g7
(imyEvolve
Tree
p1293
(dp1294
g31
(imyEvolve
Tree
p1295
(dp1296
g31
(imyEvolve
Tree
p1297
(dp1298
g12
I0
sg13
I00
sbsg12
I1
sg38
(imyEvolve
Tree
p1299
(dp1300
g12
I0
sg13
I00
sbsg14
I00
sg15
g91
sbsg12
I2
sg38
(imyEvolve
Tree
p1301
(dp1302
g7
(imyEvolve
Tree
p1303
(dp1304
g12
I0
sg13
I00
sbsg12
I1
sg14
I01
sg15
g16
sbsg14
I00
sg15
g53
sbsg12
I3
sg14
I01
sg15
g58
sba(imyEvolve
Tree
p1305
(dp1306
g12
I5
sg31
(imyEvolve
Tree
p1307
(dp1308
g7
(imyEvolve
Tree
p1309
(dp1310
g7
(imyEvolve
Tree
p1311
(dp1312
g7
(imyEvolve
Tree
p1313
(dp1314
g12
I1
sg31
(imyEvolve
Tree
p1315
(dp1316
g12
I0
sg25
F-2.089553917071396
sg13
I01
sbsg38
(imyEvolve
Tree
p1317
(dp1318
g12
I0
sg25
F-4.009798762708248
sg13
I01
sbsg14
I00
sg15
g91
sbsg12
I2
sg14
I01
sg15
g16
sbsg12
I3
sg14
I01
sg15
g43
sbsg12
I4
sg14
I01
sg15
g43
sbsg38
(imyEvolve
Tree
p1319
(dp1320
g7
(imyEvolve
Tree
p1321
(dp1322
g7
(imyEvolve
Tree
p1323
(dp1324
g12
I2
sg31
(imyEvolve
Tree
p1325
(dp1326
g12
I1
sg31
(imyEvolve
Tree
p1327
(dp1328
g12
I0
sg13
I00
sbsg38
(imyEvolve
Tree
p1329
(dp1330
g12
I0
sg13
I00
sbsg14
I00
sg15
g53
sbsg38
(imyEvolve
Tree
p1331
(dp1332
g12
I1
sg31
(imyEvolve
Tree
p1333
(dp1334
g12
I0
sg13
I00
sbsg38
(imyEvolve
Tree
p1335
(dp1336
g12
I0
sg13
I00
sbsg14
I00
sg15
g44
sbsg14
I00
sg15
g91
sbsg12
I3
sg14
I01
sg15
g43
sbsg12
I4
sg14
I01
sg15
g58
sbsg14
I00
sg15
g91
sba(imyEvolve
Tree
p1337
(dp1338
g7
(imyEvolve
Tree
p1339
(dp1340
g7
(imyEvolve
Tree
p1341
(dp1342
g7
(imyEvolve
Tree
p1343
(dp1344
g12
I0
sg25
F-0.2566455936625287
sg13
I01
sbsg12
I1
sg14
I01
sg15
g43
sbsg12
I2
sg14
I01
sg15
g16
sbsg12
I3
sg14
I01
sg15
g16
sba(imyEvolve
Tree
p1345
(dp1346
g7
(imyEvolve
Tree
p1347
(dp1348
g31
(imyEvolve
Tree
p1349
(dp1350
g31
(imyEvolve
Tree
p1351
(dp1352
g31
(imyEvolve
Tree
p1353
(dp1354
g31
(imyEvolve
Tree
p1355
(dp1356
g12
I0
sg13
I00
sbsg12
I1
sg38
(imyEvolve
Tree
p1357
(dp1358
g12
I0
sg25
F-4.549928205391498
sg13
I01
sbsg14
I00
sg15
g53
sbsg12
I2
sg38
(imyEvolve
Tree
p1359
(dp1360
g7
(imyEvolve
Tree
p1361
(dp1362
g12
I0
sg13
I00
sbsg12
I1
sg14
I01
sg15
g58
sbsg14
I00
sg15
g44
sbsg12
I3
sg38
(imyEvolve
Tree
p1363
(dp1364
g7
(imyEvolve
Tree
p1365
(dp1366
g7
(imyEvolve
Tree
p1367
(dp1368
g12
I0
sg25
F-2.3494068433804207
sg13
I01
sbsg12
I1
sg14
I01
sg15
g16
sbsg12
I2
sg14
I01
sg15
g26
sbsg14
I00
sg15
g44
sbsg12
I4
sg38
(imyEvolve
Tree
p1369
(dp1370
g7
(imyEvolve
Tree
p1371
(dp1372
g7
(imyEvolve
Tree
p1373
(dp1374
g31
(imyEvolve
Tree
p1375
(dp1376
g12
I0
sg25
F3.9893312898646816
sg13
I01
sbsg12
I1
sg38
(imyEvolve
Tree
p1377
(dp1378
g12
I0
sg25
F0.4108753836374843
sg13
I01
sbsg14
I00
sg15
g44
sbsg12
I2
sg14
I01
sg15
g16
sbsg12
I3
sg14
I01
sg15
g43
sbsg14
I00
sg15
g44
sbsg12
I5
sg14
I01
sg15
g43
sba(imyEvolve
Tree
p1379
(dp1380
g7
(imyEvolve
Tree
p1381
(dp1382
g7
(imyEvolve
Tree
p1383
(dp1384
g12
I0
sg25
F-0.9594831302677207
sg13
I01
sbsg12
I1
sg14
I01
sg15
g26
sbsg12
I2
sg14
I01
sg15
g26
sba(imyEvolve
Tree
p1385
(dp1386
g31
(imyEvolve
Tree
p1387
(dp1388
g31
(imyEvolve
Tree
p1389
(dp1390
g7
(imyEvolve
Tree
p1391
(dp1392
g31
(imyEvolve
Tree
p1393
(dp1394
g31
(imyEvolve
Tree
p1395
(dp1396
g12
I0
sg25
F-2.467032713470868
sg13
I01
sbsg12
I1
sg38
(imyEvolve
Tree
p1397
(dp1398
g12
I0
sg13
I00
sbsg14
I00
sg15
g53
sbsg12
I2
sg38
(imyEvolve
Tree
p1399
(dp1400
g31
(imyEvolve
Tree
p1401
(dp1402
g12
I0
sg13
I00
sbsg12
I1
sg38
(imyEvolve
Tree
p1403
(dp1404
g12
I0
sg13
I00
sbsg14
I00
sg15
g44
sbsg14
I00
sg15
g91
sbsg12
I3
sg14
I01
sg15
g26
sbsg12
I4
sg38
(imyEvolve
Tree
p1405
(dp1406
g31
(imyEvolve
Tree
p1407
(dp1408
g31
(imyEvolve
Tree
p1409
(dp1410
g7
(imyEvolve
Tree
p1411
(dp1412
g12
I0
sg25
F-4.044949353974122
sg13
I01
sbsg12
I1
sg14
I01
sg15
g16
sbsg12
I2
sg38
(imyEvolve
Tree
p1413
(dp1414
g7
(imyEvolve
Tree
p1415
(dp1416
g12
I0
sg25
F0.6881346226531369
sg13
I01
sbsg12
I1
sg14
I01
sg15
g26
sbsg14
I00
sg15
g53
sbsg12
I3
sg38
(imyEvolve
Tree
p1417
(dp1418
g31
(imyEvolve
Tree
p1419
(dp1420
g7
(imyEvolve
Tree
p1421
(dp1422
g12
I0
sg25
F-1.9785211056273355
sg13
I01
sbsg12
I1
sg14
I01
sg15
g43
sbsg12
I2
sg38
(imyEvolve
Tree
p1423
(dp1424
g7
(imyEvolve
Tree
p1425
(dp1426
g12
I0
sg25
F-2.121036572475361
sg13
I01
sbsg12
I1
sg14
I01
sg15
g26
sbsg14
I00
sg15
g53
sbsg14
I00
sg15
g91
sbsg14
I00
sg15
g53
sbsg12
I5
sg38
(imyEvolve
Tree
p1427
(dp1428
g31
(imyEvolve
Tree
p1429
(dp1430
g7
(imyEvolve
Tree
p1431
(dp1432
g31
(imyEvolve
Tree
p1433
(dp1434
g31
(imyEvolve
Tree
p1435
(dp1436
g12
I0
sg25
F-4.6253276190621495
sg13
I01
sbsg12
I1
sg38
(imyEvolve
Tree
p1437
(dp1438
g12
I0
sg25
F-3.0818344043489496
sg13
I01
sbsg14
I00
sg15
g44
sbsg12
I2
sg38
(imyEvolve
Tree
p1439
(dp1440
g7
(imyEvolve
Tree
p1441
(dp1442
g12
I0
sg25
F3.7202326780769255
sg13
I01
sbsg12
I1
sg14
I01
sg15
g58
sbsg14
I00
sg15
g53
sbsg12
I3
sg14
I01
sg15
g26
sbsg12
I4
sg38
(imyEvolve
Tree
p1443
(dp1444
g31
(imyEvolve
Tree
p1445
(dp1446
g7
(imyEvolve
Tree
p1447
(dp1448
g31
(imyEvolve
Tree
p1449
(dp1450
g12
I0
sg25
F1.2134502705780923
sg13
I01
sbsg12
I1
sg38
(imyEvolve
Tree
p1451
(dp1452
g12
I0
sg13
I00
sbsg14
I00
sg15
g53
sbsg12
I2
sg14
I01
sg15
g43
sbsg12
I3
sg38
(imyEvolve
Tree
p1453
(dp1454
g7
(imyEvolve
Tree
p1455
(dp1456
g7
(imyEvolve
Tree
p1457
(dp1458
g12
I0
sg13
I00
sbsg12
I1
sg14
I01
sg15
g16
sbsg12
I2
sg14
I01
sg15
g43
sbsg14
I00
sg15
g91
sbsg14
I00
sg15
g44
sbsg14
I00
sg15
g53
sba(imyEvolve
Tree
p1459
(dp1460
g12
I5
sg31
(imyEvolve
Tree
p1461
(dp1462
g12
I4
sg31
(imyEvolve
Tree
p1463
(dp1464
g12
I3
sg31
(imyEvolve
Tree
p1465
(dp1466
g7
(imyEvolve
Tree
p1467
(dp1468
g12
I1
sg31
(imyEvolve
Tree
p1469
(dp1470
g12
I0
sg13
I00
sbsg38
(imyEvolve
Tree
p1471
(dp1472
g12
I0
sg13
I00
sbsg14
I00
sg15
g44
sbsg12
I2
sg14
I01
sg15
g58
sbsg38
(imyEvolve
Tree
p1473
(dp1474
g7
(imyEvolve
Tree
p1475
(dp1476
g7
(imyEvolve
Tree
p1477
(dp1478
g12
I0
sg13
I00
sbsg12
I1
sg14
I01
sg15
g58
sbsg12
I2
sg14
I01
sg15
g16
sbsg14
I00
sg15
g44
sbsg38
(imyEvolve
Tree
p1479
(dp1480
g7
(imyEvolve
Tree
p1481
(dp1482
g12
I2
sg31
(imyEvolve
Tree
p1483
(dp1484
g12
I1
sg31
(imyEvolve
Tree
p1485
(dp1486
g12
I0
sg25
F-4.947940711083406
sg13
I01
sbsg38
(imyEvolve
Tree
p1487
(dp1488
g12
I0
sg25
F-1.6426597094918192
sg13
I01
sbsg14
I00
sg15
g53
sbsg38
(imyEvolve
Tree
p1489
(dp1490
g7
(imyEvolve
Tree
p1491
(dp1492
g12
I0
sg25
F-4.741241604232071
sg13
I01
sbsg12
I1
sg14
I01
sg15
g58
sbsg14
I00
sg15
g53
sbsg12
I3
sg14
I01
sg15
g58
sbsg14
I00
sg15
g91
sbsg38
(imyEvolve
Tree
p1493
(dp1494
g7
(imyEvolve
Tree
p1495
(dp1496
g12
I3
sg31
(imyEvolve
Tree
p1497
(dp1498
g7
(imyEvolve
Tree
p1499
(dp1500
g12
I1
sg31
(imyEvolve
Tree
p1501
(dp1502
g12
I0
sg25
F2.385193364711361
sg13
I01
sbsg38
(imyEvolve
Tree
p1503
(dp1504
g12
I0
sg13
I00
sbsg14
I00
sg15
g44
sbsg12
I2
sg14
I01
sg15
g16
sbsg38
(imyEvolve
Tree
p1505
(dp1506
g7
(imyEvolve
Tree
p1507
(dp1508
g7
(imyEvolve
Tree
p1509
(dp1510
g12
I0
sg25
F4.564255106733242
sg13
I01
sbsg12
I1
sg14
I01
sg15
g26
sbsg12
I2
sg14
I01
sg15
g58
sbsg14
I00
sg15
g44
sbsg12
I4
sg14
I01
sg15
g43
sbsg14
I00
sg15
g44
sba(imyEvolve
Tree
p1511
(dp1512
g7
(imyEvolve
Tree
p1513
(dp1514
g7
(imyEvolve
Tree
p1515
(dp1516
g7
(imyEvolve
Tree
p1517
(dp1518
g31
(imyEvolve
Tree
p1519
(dp1520
g12
I0
sg13
I00
sbsg12
I1
sg38
(imyEvolve
Tree
p1521
(dp1522
g12
I0
sg25
F-1.332505910564369
sg13
I01
sbsg14
I00
sg15
g44
sbsg12
I2
sg14
I01
sg15
g16
sbsg12
I3
sg14
I01
sg15
g26
sbsg12
I4
sg14
I01
sg15
g58
sba(imyEvolve
Tree
p1523
(dp1524
g12
I2
sg31
(imyEvolve
Tree
p1525
(dp1526
g12
I1
sg31
(imyEvolve
Tree
p1527
(dp1528
g12
I0
sg13
I00
sbsg38
(imyEvolve
Tree
p1529
(dp1530
g12
I0
sg13
I00
sbsg14
I00
sg15
g53
sbsg38
(imyEvolve
Tree
p1531
(dp1532
g12
I1
sg31
(imyEvolve
Tree
p1533
(dp1534
g12
I0
sg25
F-3.5709817990929658
sg13
I01
sbsg38
(imyEvolve
Tree
p1535
(dp1536
g12
I0
sg25
F2.483125890914951
sg13
I01
sbsg14
I00
sg15
g44
sbsg14
I00
sg15
g44
sba(imyEvolve
Tree
p1537
(dp1538
g7
(imyEvolve
Tree
p1539
(dp1540
g7
(imyEvolve
Tree
p1541
(dp1542
g7
(imyEvolve
Tree
p1543
(dp1544
g31
(imyEvolve
Tree
p1545
(dp1546
g7
(imyEvolve
Tree
p1547
(dp1548
g12
I0
sg25
F3.652123850910918
sg13
I01
sbsg12
I1
sg14
I01
sg15
g58
sbsg12
I2
sg38
(imyEvolve
Tree
p1549
(dp1550
g7
(imyEvolve
Tree
p1551
(dp1552
g12
I0
sg13
I00
sbsg12
I1
sg14
I01
sg15
g58
sbsg14
I00
sg15
g44
sbsg12
I3
sg14
I01
sg15
g58
sbsg12
I4
sg14
I01
sg15
g58
sbsg12
I5
sg14
I01
sg15
g43
sbaa(lp1553
(imyEvolve
Tree
p1554
(dp1555
g7
(imyEvolve
Tree
p1556
(dp1557
g7
(imyEvolve
Tree
p1558
(dp1559
g12
I0
sg25
F-1.8591403602891599
sg13
I01
sbsg12
I1
sg14
I01
sg15
g58
sbsg12
I2
sg14
I01
sg15
g26
sba(imyEvolve
Tree
p1560
(dp1561
g31
(imyEvolve
Tree
p1562
(dp1563
g31
(imyEvolve
Tree
p1564
(dp1565
g7
(imyEvolve
Tree
p1566
(dp1567
g31
(imyEvolve
Tree
p1568
(dp1569
g12
I0
sg13
I00
sbsg12
I1
sg38
(imyEvolve
Tree
p1570
(dp1571
g12
I0
sg25
F-4.745495492891818
sg13
I01
sbsg14
I00
sg15
g91
sbsg12
I2
sg14
I01
sg15
g26
sbsg12
I3
sg38
(imyEvolve
Tree
p1572
(dp1573
g7
(imyEvolve
Tree
p1574
(dp1575
g7
(imyEvolve
Tree
p1576
(dp1577
g12
I0
sg25
F-4.665731917359209
sg13
I01
sbsg12
I1
sg14
I01
sg15
g26
sbsg12
I2
sg14
I01
sg15
g43
sbsg14
I00
sg15
g91
sbsg12
I4
sg38
(imyEvolve
Tree
p1578
(dp1579
g31
(imyEvolve
Tree
p1580
(dp1581
g31
(imyEvolve
Tree
p1582
(dp1583
g31
(imyEvolve
Tree
p1584
(dp1585
g12
I0
sg25
F3.7323650779383666
sg13
I01
sbsg12
I1
sg38
(imyEvolve
Tree
p1586
(dp1587
g12
I0
sg25
F-3.7244465804849303
sg13
I01
sbsg14
I00
sg15
g44
sbsg12
I2
sg38
(imyEvolve
Tree
p1588
(dp1589
g7
(imyEvolve
Tree
p1590
(dp1591
g12
I0
sg25
F2.580782864962413
sg13
I01
sbsg12
I1
sg14
I01
sg15
g43
sbsg14
I00
sg15
g44
sbsg12
I3
sg38
(imyEvolve
Tree
p1592
(dp1593
g7
(imyEvolve
Tree
p1594
(dp1595
g7
(imyEvolve
Tree
p1596
(dp1597
g12
I0
sg25
F1.5516209349817087
sg13
I01
sbsg12
I1
sg14
I01
sg15
g16
sbsg12
I2
sg14
I01
sg15
g43
sbsg14
I00
sg15
g91
sbsg14
I00
sg15
g44
sba(imyEvolve
Tree
p1598
(dp1599
g31
(imyEvolve
Tree
p1600
(dp1601
g7
(imyEvolve
Tree
p1602
(dp1603
g7
(imyEvolve
Tree
p1604
(dp1605
g7
(imyEvolve
Tree
p1606
(dp1607
g7
(imyEvolve
Tree
p1608
(dp1609
g12
I0
sg25
F1.6064537190007497
sg13
I01
sbsg12
I1
sg14
I01
sg15
g58
sbsg12
I2
sg14
I01
sg15
g16
sbsg12
I3
sg14
I01
sg15
g58
sbsg12
I4
sg14
I01
sg15
g43
sbsg12
I5
sg38
(imyEvolve
Tree
p1610
(dp1611
g7
(imyEvolve
Tree
p1612
(dp1613
g31
(imyEvolve
Tree
p1614
(dp1615
g7
(imyEvolve
Tree
p1616
(dp1617
g7
(imyEvolve
Tree
p1618
(dp1619
g12
I0
sg25
F-0.4523132483933612
sg13
I01
sbsg12
I1
sg14
I01
sg15
g58
sbsg12
I2
sg14
I01
sg15
g58
sbsg12
I3
sg38
(imyEvolve
Tree
p1620
(dp1621
g7
(imyEvolve
Tree
p1622
(dp1623
g31
(imyEvolve
Tree
p1624
(dp1625
g12
I0
sg25
F3.917590243693928
sg13
I01
sbsg12
I1
sg38
(imyEvolve
Tree
p1626
(dp1627
g12
I0
sg25
F-2.6463471473152325
sg13
I01
sbsg14
I00
sg15
g44
sbsg12
I2
sg14
I01
sg15
g16
sbsg14
I00
sg15
g91
sbsg12
I4
sg14
I01
sg15
g58
sbsg14
I00
sg15
g53
sba(imyEvolve
Tree
p1628
(dp1629
g7
(imyEvolve
Tree
p1630
(dp1631
g7
(imyEvolve
Tree
p1632
(dp1633
g31
(imyEvolve
Tree
p1634
(dp1635
g31
(imyEvolve
Tree
p1636
(dp1637
g12
I0
sg25
F4.790517447131739
sg13
I01
sbsg12
I1
sg38
(imyEvolve
Tree
p1638
(dp1639
g12
I0
sg13
I00
sbsg14
I00
sg15
g91
sbsg12
I2
sg38
(imyEvolve
Tree
p1640
(dp1641
g7
(imyEvolve
Tree
p1642
(dp1643
g12
I0
sg13
I00
sbsg12
I1
sg14
I01
sg15
g26
sbsg14
I00
sg15
g44
sbsg12
I3
sg14
I01
sg15
g26
sbsg12
I4
sg14
I01
sg15
g16
sba(imyEvolve
Tree
p1644
(dp1645
g7
(imyEvolve
Tree
p1646
(dp1647
g7
(imyEvolve
Tree
p1648
(dp1649
g31
(imyEvolve
Tree
p1650
(dp1651
g12
I0
sg25
F-3.1681336061847887
sg13
I01
sbsg12
I1
sg38
(imyEvolve
Tree
p1652
(dp1653
g12
I0
sg25
F-0.1440430449900143
sg13
I01
sbsg14
I00
sg15
g91
sbsg12
I2
sg14
I01
sg15
g58
sbsg12
I3
sg14
I01
sg15
g16
sba(imyEvolve
Tree
p1654
(dp1655
g31
(imyEvolve
Tree
p1656
(dp1657
g31
(imyEvolve
Tree
p1658
(dp1659
g12
I0
sg25
F0.1284264709628129
sg13
I01
sbsg12
I1
sg38
(imyEvolve
Tree
p1660
(dp1661
g12
I0
sg13
I00
sbsg14
I00
sg15
g44
sbsg12
I2
sg38
(imyEvolve
Tree
p1662
(dp1663
g7
(imyEvolve
Tree
p1664
(dp1665
g12
I0
sg13
I00
sbsg12
I1
sg14
I01
sg15
g26
sbsg14
I00
sg15
g91
sba(imyEvolve
Tree
p1666
(dp1667
g7
(imyEvolve
Tree
p1668
(dp1669
g31
(imyEvolve
Tree
p1670
(dp1671
g7
(imyEvolve
Tree
p1672
(dp1673
g12
I0
sg13
I00
sbsg12
I1
sg14
I01
sg15
g16
sbsg12
I2
sg38
(imyEvolve
Tree
p1674
(dp1675
g7
(imyEvolve
Tree
p1676
(dp1677
g12
I0
sg25
F1.592690586619642
sg13
I01
sbsg12
I1
sg14
I01
sg15
g16
sbsg14
I00
sg15
g53
sbsg12
I3
sg14
I01
sg15
g58
sba(imyEvolve
Tree
p1678
(dp1679
g7
(imyEvolve
Tree
p1680
(dp1681
g7
(imyEvolve
Tree
p1682
(dp1683
g7
(imyEvolve
Tree
p1684
(dp1685
g31
(imyEvolve
Tree
p1686
(dp1687
g12
I0
sg13
I00
sbsg12
I1
sg38
(imyEvolve
Tree
p1688
(dp1689
g12
I0
sg13
I00
sbsg14
I00
sg15
g53
sbsg12
I2
sg14
I01
sg15
g26
sbsg12
I3
sg14
I01
sg15
g43
sbsg12
I4
sg14
I01
sg15
g58
sba(imyEvolve
Tree
p1690
(dp1691
g7
(imyEvolve
Tree
p1692
(dp1693
g7
(imyEvolve
Tree
p1694
(dp1695
g31
(imyEvolve
Tree
p1696
(dp1697
g7
(imyEvolve
Tree
p1698
(dp1699
g31
(imyEvolve
Tree
p1700
(dp1701
g12
I0
sg25
F-0.6080087650503998
sg13
I01
sbsg12
I1
sg38
(imyEvolve
Tree
p1702
(dp1703
g12
I0
sg13
I00
sbsg14
I00
sg15
g91
sbsg12
I2
sg14
I01
sg15
g26
sbsg12
I3
sg38
(imyEvolve
Tree
p1704
(dp1705
g7
(imyEvolve
Tree
p1706
(dp1707
g31
(imyEvolve
Tree
p1708
(dp1709
g12
I0
sg25
F-3.4187239164983896
sg13
I01
sbsg12
I1
sg38
(imyEvolve
Tree
p1710
(dp1711
g12
I0
sg25
F2.8769472926969497
sg13
I01
sbsg14
I00
sg15
g53
sbsg12
I2
sg14
I01
sg15
g16
sbsg14
I00
sg15
g53
sbsg12
I4
sg14
I01
sg15
g58
sbsg12
I5
sg14
I01
sg15
g43
sba(imyEvolve
Tree
p1712
(dp1713
g7
(imyEvolve
Tree
p1714
(dp1715
g7
(imyEvolve
Tree
p1716
(dp1717
g7
(imyEvolve
Tree
p1718
(dp1719
g7
(imyEvolve
Tree
p1720
(dp1721
g12
I0
sg25
F4.441685344314276
sg13
I01
sbsg12
I1
sg14
I01
sg15
g26
sbsg12
I2
sg14
I01
sg15
g43
sbsg12
I3
sg14
I01
sg15
g58
sbsg12
I4
sg14
I01
sg15
g58
sbaasS'alpha'
p1722
F0.005279665536013401
sS'fitness'
p1723
cnumpy.core.multiarray
scalar
p1724
(cnumpy
dtype
p1725
(S'f8'
p1726
I0
I1
tp1727
Rp1728
(I3
S'<'
p1729
NNNI-1
I-1
I0
tp1730
bS'\x80#\xb9\xbc\xef\x16\x83\xbf'
p1731
tp1732
Rp1733
sS'weightSharing'
p1734
(lp1735
I00
aI00
asS'fitnessValid'
p1736
I00
sS'resolution'
p1737
I84
sb.