(imyEvolve
Individual
p0
(dp1
S'funcs'
p2
(lp3
(lp4
(imyEvolve
Tree
p5
(dp6
S'below'
p7
(imyEvolve
Tree
p8
(dp9
S'left'
p10
(imyEvolve
Tree
p11
(dp12
g7
(imyEvolve
Tree
p13
(dp14
S'depth'
p15
I0
sS'constant'
p16
F2.2427632078857194
sS'isConstant'
p17
I01
sbsg15
I1
sS'single'
p18
I01
sS'op'
p19
cmath
sin
p20
sbsg15
I2
sS'right'
p21
(imyEvolve
Tree
p22
(dp23
g7
(imyEvolve
Tree
p24
(dp25
g15
I0
sg16
F0.005475613614695618
sg17
I01
sbsg15
I1
sg18
I01
sg19
cmyEvolve
square
p26
sbsg18
I00
sg19
coperator
mul
p27
sbsg15
I3
sg18
I01
sg19
cmyEvolve
absSqrt
p28
sba(imyEvolve
Tree
p29
(dp30
g15
I3
sg10
(imyEvolve
Tree
p31
(dp32
g15
I2
sg10
(imyEvolve
Tree
p33
(dp34
g7
(imyEvolve
Tree
p35
(dp36
g15
I0
sg17
I00
sbsg15
I1
sg18
I01
sg19
g28
sbsg21
(imyEvolve
Tree
p37
(dp38
g7
(imyEvolve
Tree
p39
(dp40
g15
I0
sg16
F-4.606107279304599
sg17
I01
sbsg15
I1
sg18
I01
sg19
g20
sbsg18
I00
sg19
coperator
add
p41
sbsg21
(imyEvolve
Tree
p42
(dp43
g7
(imyEvolve
Tree
p44
(dp45
g7
(imyEvolve
Tree
p46
(dp47
g15
I0
sg17
I00
sbsg15
I1
sg18
I01
sg19
g20
sbsg15
I2
sg18
I01
sg19
g28
sbsg18
I00
sg19
g27
sba(imyEvolve
Tree
p48
(dp49
g10
(imyEvolve
Tree
p50
(dp51
g7
(imyEvolve
Tree
p52
(dp53
g15
I0
sg17
I00
sbsg15
I1
sg18
I01
sg19
g28
sbsg15
I2
sg21
(imyEvolve
Tree
p54
(dp55
g10
(imyEvolve
Tree
p56
(dp57
g15
I0
sg16
F-3.0065800022669342
sg17
I01
sbsg15
I1
sg21
(imyEvolve
Tree
p58
(dp59
g15
I0
sg16
F-2.476058748068819
sg17
I01
sbsg18
I00
sg19
coperator
sub
p60
sbsg18
I00
sg19
g41
sba(imyEvolve
Tree
p61
(dp62
g7
(imyEvolve
Tree
p63
(dp64
g10
(imyEvolve
Tree
p65
(dp66
g10
(imyEvolve
Tree
p67
(dp68
g10
(imyEvolve
Tree
p69
(dp70
g7
(imyEvolve
Tree
p71
(dp72
g15
I0
sg17
I00
sbsg15
I1
sg18
I01
sg19
g28
sbsg15
I2
sg21
(imyEvolve
Tree
p73
(dp74
g7
(imyEvolve
Tree
p75
(dp76
g15
I0
sg16
F4.531571508837683
sg17
I01
sbsg15
I1
sg18
I01
sg19
g28
sbsg18
I00
sg19
g60
sbsg15
I3
sg21
(imyEvolve
Tree
p77
(dp78
g7
(imyEvolve
Tree
p79
(dp80
g10
(imyEvolve
Tree
p81
(dp82
g15
I0
sg16
F1.0360085384411093
sg17
I01
sbsg15
I1
sg21
(imyEvolve
Tree
p83
(dp84
g15
I0
sg17
I00
sbsg18
I00
sg19
g27
sbsg15
I2
sg18
I01
sg19
g28
sbsg18
I00
sg19
g27
sbsg15
I4
sg21
(imyEvolve
Tree
p85
(dp86
g7
(imyEvolve
Tree
p87
(dp88
g10
(imyEvolve
Tree
p89
(dp90
g10
(imyEvolve
Tree
p91
(dp92
g15
I0
sg17
I00
sbsg15
I1
sg21
(imyEvolve
Tree
p93
(dp94
g15
I0
sg17
I00
sbsg18
I00
sg19
g60
sbsg15
I2
sg21
(imyEvolve
Tree
p95
(dp96
g10
(imyEvolve
Tree
p97
(dp98
g15
I0
sg16
F0.3928858314568453
sg17
I01
sbsg15
I1
sg21
(imyEvolve
Tree
p99
(dp100
g15
I0
sg17
I00
sbsg18
I00
sg19
g27
sbsg18
I00
sg19
g60
sbsg15
I3
sg18
I01
sg19
g20
sbsg18
I00
sg19
g41
sbsg15
I5
sg18
I01
sg19
g20
sba(imyEvolve
Tree
p101
(dp102
g10
(imyEvolve
Tree
p103
(dp104
g7
(imyEvolve
Tree
p105
(dp106
g7
(imyEvolve
Tree
p107
(dp108
g7
(imyEvolve
Tree
p109
(dp110
g15
I0
sg17
I00
sbsg15
I1
sg18
I01
sg19
g20
sbsg15
I2
sg18
I01
sg19
g20
sbsg15
I3
sg18
I01
sg19
cmath
cos
p111
sbsg15
I4
sg21
(imyEvolve
Tree
p112
(dp113
g10
(imyEvolve
Tree
p114
(dp115
g10
(imyEvolve
Tree
p116
(dp117
g10
(imyEvolve
Tree
p118
(dp119
g15
I0
sg16
F-4.482865658590658
sg17
I01
sbsg15
I1
sg21
(imyEvolve
Tree
p120
(dp121
g15
I0
sg17
I00
sbsg18
I00
sg19
g60
sbsg15
I2
sg21
(imyEvolve
Tree
p122
(dp123
g7
(imyEvolve
Tree
p124
(dp125
g15
I0
sg16
F-4.397658055947665
sg17
I01
sbsg15
I1
sg18
I01
sg19
g28
sbsg18
I00
sg19
g60
sbsg15
I3
sg21
(imyEvolve
Tree
p126
(dp127
g10
(imyEvolve
Tree
p128
(dp129
g7
(imyEvolve
Tree
p130
(dp131
g15
I0
sg17
I00
sbsg15
I1
sg18
I01
sg19
g26
sbsg15
I2
sg21
(imyEvolve
Tree
p132
(dp133
g7
(imyEvolve
Tree
p134
(dp135
g15
I0
sg16
F1.4186839993508125
sg17
I01
sbsg15
I1
sg18
I01
sg19
g111
sbsg18
I00
sg19
g41
sbsg18
I00
sg19
g41
sbsg18
I00
sg19
g27
sba(imyEvolve
Tree
p136
(dp137
g7
(imyEvolve
Tree
p138
(dp139
g7
(imyEvolve
Tree
p140
(dp141
g15
I0
sg17
I00
sbsg15
I1
sg18
I01
sg19
g26
sbsg15
I2
sg18
I01
sg19
g20
sba(imyEvolve
Tree
p142
(dp143
g7
(imyEvolve
Tree
p144
(dp145
g7
(imyEvolve
Tree
p146
(dp147
g15
I0
sg16
F-1.5287154596763521
sg17
I01
sbsg15
I1
sg18
I01
sg19
g111
sbsg15
I2
sg18
I01
sg19
g28
sba(imyEvolve
Tree
p148
(dp149
g10
(imyEvolve
Tree
p150
(dp151
g10
(imyEvolve
Tree
p152
(dp153
g10
(imyEvolve
Tree
p154
(dp155
g10
(imyEvolve
Tree
p156
(dp157
g7
(imyEvolve
Tree
p158
(dp159
g15
I0
sg17
I00
sbsg15
I1
sg18
I01
sg19
g26
sbsg15
I2
sg21
(imyEvolve
Tree
p160
(dp161
g10
(imyEvolve
Tree
p162
(dp163
g15
I0
sg16
F-4.615078774659924
sg17
I01
sbsg15
I1
sg21
(imyEvolve
Tree
p164
(dp165
g15
I0
sg16
F-1.740881713012775
sg17
I01
sbsg18
I00
sg19
g27
sbsg18
I00
sg19
g60
sbsg15
I3
sg21
(imyEvolve
Tree
p166
(dp167
g10
(imyEvolve
Tree
p168
(dp169
g7
(imyEvolve
Tree
p170
(dp171
g15
I0
sg17
I00
sbsg15
I1
sg18
I01
sg19
g26
sbsg15
I2
sg21
(imyEvolve
Tree
p172
(dp173
g10
(imyEvolve
Tree
p174
(dp175
g15
I0
sg16
F-2.0426455039000313
sg17
I01
sbsg15
I1
sg21
(imyEvolve
Tree
p176
(dp177
g15
I0
sg16
F-0.2933718387546307
sg17
I01
sbsg18
I00
sg19
g27
sbsg18
I00
sg19
g27
sbsg18
I00
sg19
g41
sbsg15
I4
sg21
(imyEvolve
Tree
p178
(dp179
g10
(imyEvolve
Tree
p180
(dp181
g10
(imyEvolve
Tree
p182
(dp183
g10
(imyEvolve
Tree
p184
(dp185
g15
I0
sg17
I00
sbsg15
I1
sg21
(imyEvolve
Tree
p186
(dp187
g15
I0
sg17
I00
sbsg18
I00
sg19
g60
sbsg15
I2
sg21
(imyEvolve
Tree
p188
(dp189
g7
(imyEvolve
Tree
p190
(dp191
g15
I0
sg16
F4.7851168046388075
sg17
I01
sbsg15
I1
sg18
I01
sg19
g111
sbsg18
I00
sg19
g41
sbsg15
I3
sg21
(imyEvolve
Tree
p192
(dp193
g10
(imyEvolve
Tree
p194
(dp195
g7
(imyEvolve
Tree
p196
(dp197
g15
I0
sg16
F4.475982148951555
sg17
I01
sbsg15
I1
sg18
I01
sg19
g111
sbsg15
I2
sg21
(imyEvolve
Tree
p198
(dp199
g10
(imyEvolve
Tree
p200
(dp201
g15
I0
sg16
F-4.922442369513197
sg17
I01
sbsg15
I1
sg21
(imyEvolve
Tree
p202
(dp203
g15
I0
sg16
F-4.086371233667979
sg17
I01
sbsg18
I00
sg19
g27
sbsg18
I00
sg19
g27
sbsg18
I00
sg19
g60
sbsg18
I00
sg19
g60
sbsg15
I5
sg21
(imyEvolve
Tree
p204
(dp205
g10
(imyEvolve
Tree
p206
(dp207
g10
(imyEvolve
Tree
p208
(dp209
g10
(imyEvolve
Tree
p210
(dp211
g10
(imyEvolve
Tree
p212
(dp213
g15
I0
sg16
F-0.5396153357991107
sg17
I01
sbsg15
I1
sg21
(imyEvolve
Tree
p214
(dp215
g15
I0
sg16
F4.154690595013491
sg17
I01
sbsg18
I00
sg19
g60
sbsg15
I2
sg21
(imyEvolve
Tree
p216
(dp217
g7
(imyEvolve
Tree
p218
(dp219
g15
I0
sg16
F-1.8924611617142864
sg17
I01
sbsg15
I1
sg18
I01
sg19
g20
sbsg18
I00
sg19
g27
sbsg15
I3
sg21
(imyEvolve
Tree
p220
(dp221
g10
(imyEvolve
Tree
p222
(dp223
g7
(imyEvolve
Tree
p224
(dp225
g15
I0
sg16
F-0.571569961278966
sg17
I01
sbsg15
I1
sg18
I01
sg19
g28
sbsg15
I2
sg21
(imyEvolve
Tree
p226
(dp227
g7
(imyEvolve
Tree
p228
(dp229
g15
I0
sg16
F-1.0639546547833936
sg17
I01
sbsg15
I1
sg18
I01
sg19
g26
sbsg18
I00
sg19
g60
sbsg18
I00
sg19
g27
sbsg15
I4
sg21
(imyEvolve
Tree
p230
(dp231
g7
(imyEvolve
Tree
p232
(dp233
g7
(imyEvolve
Tree
p234
(dp235
g10
(imyEvolve
Tree
p236
(dp237
g15
I0
sg17
I00
sbsg15
I1
sg21
(imyEvolve
Tree
p238
(dp239
g15
I0
sg16
F-0.49882522409447283
sg17
I01
sbsg18
I00
sg19
g27
sbsg15
I2
sg18
I01
sg19
g111
sbsg15
I3
sg18
I01
sg19
g28
sbsg18
I00
sg19
g41
sbsg18
I00
sg19
g60
sba(imyEvolve
Tree
p240
(dp241
g10
(imyEvolve
Tree
p242
(dp243
g7
(imyEvolve
Tree
p244
(dp245
g15
I0
sg17
I00
sbsg15
I1
sg18
I01
sg19
g20
sbsg15
I2
sg21
(imyEvolve
Tree
p246
(dp247
g10
(imyEvolve
Tree
p248
(dp249
g15
I0
sg16
F0.09142300880579679
sg17
I01
sbsg15
I1
sg21
(imyEvolve
Tree
p250
(dp251
g15
I0
sg17
I00
sbsg18
I00
sg19
g41
sbsg18
I00
sg19
g41
sba(imyEvolve
Tree
p252
(dp253
g15
I2
sg10
(imyEvolve
Tree
p254
(dp255
g15
I1
sg10
(imyEvolve
Tree
p256
(dp257
g15
I0
sg16
F-4.569049073236046
sg17
I01
sbsg21
(imyEvolve
Tree
p258
(dp259
g15
I0
sg17
I00
sbsg18
I00
sg19
g60
sbsg21
(imyEvolve
Tree
p260
(dp261
g7
(imyEvolve
Tree
p262
(dp263
g15
I0
sg16
F4.724863055633119
sg17
I01
sbsg15
I1
sg18
I01
sg19
g111
sbsg18
I00
sg19
g27
sba(imyEvolve
Tree
p264
(dp265
g7
(imyEvolve
Tree
p266
(dp267
g7
(imyEvolve
Tree
p268
(dp269
g10
(imyEvolve
Tree
p270
(dp271
g10
(imyEvolve
Tree
p272
(dp273
g10
(imyEvolve
Tree
p274
(dp275
g15
I0
sg16
F-0.3719157778881774
sg17
I01
sbsg15
I1
sg21
(imyEvolve
Tree
p276
(dp277
g15
I0
sg17
I00
sbsg18
I00
sg19
g41
sbsg15
I2
sg21
(imyEvolve
Tree
p278
(dp279
g7
(imyEvolve
Tree
p280
(dp281
g15
I0
sg17
I00
sbsg15
I1
sg18
I01
sg19
g26
sbsg18
I00
sg19
g41
sbsg15
I3
sg21
(imyEvolve
Tree
p282
(dp283
g7
(imyEvolve
Tree
p284
(dp285
g7
(imyEvolve
Tree
p286
(dp287
g15
I0
sg16
F-4.717857046156025
sg17
I01
sbsg15
I1
sg18
I01
sg19
g26
sbsg15
I2
sg18
I01
sg19
g26
sbsg18
I00
sg19
g27
sbsg15
I4
sg18
I01
sg19
g20
sbsg15
I5
sg18
I01
sg19
g111
sba(imyEvolve
Tree
p288
(dp289
g10
(imyEvolve
Tree
p290
(dp291
g10
(imyEvolve
Tree
p292
(dp293
g15
I0
sg16
F4.1562395630347915
sg17
I01
sbsg15
I1
sg21
(imyEvolve
Tree
p294
(dp295
g15
I0
sg17
I00
sbsg18
I00
sg19
g60
sbsg15
I2
sg21
(imyEvolve
Tree
p296
(dp297
g10
(imyEvolve
Tree
p298
(dp299
g15
I0
sg16
F0.6832543504761812
sg17
I01
sbsg15
I1
sg21
(imyEvolve
Tree
p300
(dp301
g15
I0
sg16
F-2.7238579451500797
sg17
I01
sbsg18
I00
sg19
g41
sbsg18
I00
sg19
g60
sba(imyEvolve
Tree
p302
(dp303
g7
(imyEvolve
Tree
p304
(dp305
g7
(imyEvolve
Tree
p306
(dp307
g7
(imyEvolve
Tree
p308
(dp309
g7
(imyEvolve
Tree
p310
(dp311
g15
I0
sg16
F1.6012262692656893
sg17
I01
sbsg15
I1
sg18
I01
sg19
g20
sbsg15
I2
sg18
I01
sg19
g28
sbsg15
I3
sg18
I01
sg19
g111
sbsg15
I4
sg18
I01
sg19
g111
sba(imyEvolve
Tree
p312
(dp313
g7
(imyEvolve
Tree
p314
(dp315
g10
(imyEvolve
Tree
p316
(dp317
g10
(imyEvolve
Tree
p318
(dp319
g15
I0
sg17
I00
sbsg15
I1
sg21
(imyEvolve
Tree
p320
(dp321
g15
I0
sg17
I00
sbsg18
I00
sg19
g27
sbsg15
I2
sg21
(imyEvolve
Tree
p322
(dp323
g10
(imyEvolve
Tree
p324
(dp325
g15
I0
sg17
I00
sbsg15
I1
sg21
(imyEvolve
Tree
p326
(dp327
g15
I0
sg17
I00
sbsg18
I00
sg19
g27
sbsg18
I00
sg19
g27
sbsg15
I3
sg18
I01
sg19
g28
sba(imyEvolve
Tree
p328
(dp329
g7
(imyEvolve
Tree
p330
(dp331
g15
I2
sg10
(imyEvolve
Tree
p332
(dp333
g15
I1
sg10
(imyEvolve
Tree
p334
(dp335
g15
I0
sg16
F1.4086738594261057
sg17
I01
sbsg21
(imyEvolve
Tree
p336
(dp337
g15
I0
sg16
F-1.3084581692488717
sg17
I01
sbsg18
I00
sg19
g27
sbsg21
(imyEvolve
Tree
p338
(dp339
g7
(imyEvolve
Tree
p340
(dp341
g15
I0
sg17
I00
sbsg15
I1
sg18
I01
sg19
g20
sbsg18
I00
sg19
g27
sbsg15
I3
sg18
I01
sg19
g111
sba(imyEvolve
Tree
p342
(dp343
g7
(imyEvolve
Tree
p344
(dp345
g7
(imyEvolve
Tree
p346
(dp347
g10
(imyEvolve
Tree
p348
(dp349
g10
(imyEvolve
Tree
p350
(dp351
g15
I0
sg17
I00
sbsg15
I1
sg21
(imyEvolve
Tree
p352
(dp353
g15
I0
sg17
I00
sbsg18
I00
sg19
g41
sbsg15
I2
sg21
(imyEvolve
Tree
p354
(dp355
g7
(imyEvolve
Tree
p356
(dp357
g15
I0
sg17
I00
sbsg15
I1
sg18
I01
sg19
g26
sbsg18
I00
sg19
g27
sbsg15
I3
sg18
I01
sg19
g20
sbsg15
I4
sg18
I01
sg19
g20
sba(imyEvolve
Tree
p358
(dp359
g10
(imyEvolve
Tree
p360
(dp361
g7
(imyEvolve
Tree
p362
(dp363
g10
(imyEvolve
Tree
p364
(dp365
g15
I0
sg17
I00
sbsg15
I1
sg21
(imyEvolve
Tree
p366
(dp367
g15
I0
sg16
F1.2973515619080231
sg17
I01
sbsg18
I00
sg19
g27
sbsg15
I2
sg18
I01
sg19
g20
sbsg15
I3
sg21
(imyEvolve
Tree
p368
(dp369
g7
(imyEvolve
Tree
p370
(dp371
g10
(imyEvolve
Tree
p372
(dp373
g15
I0
sg16
F1.2951405568488212
sg17
I01
sbsg15
I1
sg21
(imyEvolve
Tree
p374
(dp375
g15
I0
sg16
F2.52911236759825
sg17
I01
sbsg18
I00
sg19
g27
sbsg15
I2
sg18
I01
sg19
g20
sbsg18
I00
sg19
g60
sba(imyEvolve
Tree
p376
(dp377
g10
(imyEvolve
Tree
p378
(dp379
g10
(imyEvolve
Tree
p380
(dp381
g10
(imyEvolve
Tree
p382
(dp383
g7
(imyEvolve
Tree
p384
(dp385
g10
(imyEvolve
Tree
p386
(dp387
g15
I0
sg17
I00
sbsg15
I1
sg21
(imyEvolve
Tree
p388
(dp389
g15
I0
sg16
F-0.6527778815631438
sg17
I01
sbsg18
I00
sg19
g60
sbsg15
I2
sg18
I01
sg19
g26
sbsg15
I3
sg21
(imyEvolve
Tree
p390
(dp391
g10
(imyEvolve
Tree
p392
(dp393
g10
(imyEvolve
Tree
p394
(dp395
g15
I0
sg17
I00
sbsg15
I1
sg21
(imyEvolve
Tree
p396
(dp397
g15
I0
sg17
I00
sbsg18
I00
sg19
g41
sbsg15
I2
sg21
(imyEvolve
Tree
p398
(dp399
g7
(imyEvolve
Tree
p400
(dp401
g15
I0
sg16
F1.2874392931073029
sg17
I01
sbsg15
I1
sg18
I01
sg19
g111
sbsg18
I00
sg19
g60
sbsg18
I00
sg19
g60
sbsg15
I4
sg21
(imyEvolve
Tree
p402
(dp403
g10
(imyEvolve
Tree
p404
(dp405
g7
(imyEvolve
Tree
p406
(dp407
g10
(imyEvolve
Tree
p408
(dp409
g15
I0
sg17
I00
sbsg15
I1
sg21
(imyEvolve
Tree
p410
(dp411
g15
I0
sg16
F-1.411722340565078
sg17
I01
sbsg18
I00
sg19
g27
sbsg15
I2
sg18
I01
sg19
g28
sbsg15
I3
sg21
(imyEvolve
Tree
p412
(dp413
g10
(imyEvolve
Tree
p414
(dp415
g10
(imyEvolve
Tree
p416
(dp417
g15
I0
sg16
F2.4824400417495953
sg17
I01
sbsg15
I1
sg21
(imyEvolve
Tree
p418
(dp419
g15
I0
sg16
F4.7787011985013965
sg17
I01
sbsg18
I00
sg19
g60
sbsg15
I2
sg21
(imyEvolve
Tree
p420
(dp421
g10
(imyEvolve
Tree
p422
(dp423
g15
I0
sg17
I00
sbsg15
I1
sg21
(imyEvolve
Tree
p424
(dp425
g15
I0
sg16
F-4.710370760653536
sg17
I01
sbsg18
I00
sg19
g60
sbsg18
I00
sg19
g27
sbsg18
I00
sg19
g27
sbsg18
I00
sg19
g41
sbsg15
I5
sg21
(imyEvolve
Tree
p426
(dp427
g7
(imyEvolve
Tree
p428
(dp429
g7
(imyEvolve
Tree
p430
(dp431
g7
(imyEvolve
Tree
p432
(dp433
g10
(imyEvolve
Tree
p434
(dp435
g15
I0
sg17
I00
sbsg15
I1
sg21
(imyEvolve
Tree
p436
(dp437
g15
I0
sg17
I00
sbsg18
I00
sg19
g27
sbsg15
I2
sg18
I01
sg19
g20
sbsg15
I3
sg18
I01
sg19
g28
sbsg15
I4
sg18
I01
sg19
g26
sbsg18
I00
sg19
g27
sbaa(lp438
(imyEvolve
Tree
p439
(dp440
g10
(imyEvolve
Tree
p441
(dp442
g7
(imyEvolve
Tree
p443
(dp444
g10
(imyEvolve
Tree
p445
(dp446
g7
(imyEvolve
Tree
p447
(dp448
g10
(imyEvolve
Tree
p449
(dp450
g15
I0
sg17
I00
sbsg15
I1
sg21
(imyEvolve
Tree
p451
(dp452
g15
I0
sg16
F3.5437004635273173
sg17
I01
sbsg18
I00
sg19
g60
sbsg15
I2
sg18
I01
sg19
g26
sbsg15
I3
sg21
(imyEvolve
Tree
p453
(dp454
g10
(imyEvolve
Tree
p455
(dp456
g10
(imyEvolve
Tree
p457
(dp458
g15
I0
sg16
F-2.3090611761369417
sg17
I01
sbsg15
I1
sg21
(imyEvolve
Tree
p459
(dp460
g15
I0
sg16
F-2.872974327772926
sg17
I01
sbsg18
I00
sg19
g41
sbsg15
I2
sg21
(imyEvolve
Tree
p461
(dp462
g10
(imyEvolve
Tree
p463
(dp464
g15
I0
sg17
I00
sbsg15
I1
sg21
(imyEvolve
Tree
p465
(dp466
g15
I0
sg16
F-2.5114796573950104
sg17
I01
sbsg18
I00
sg19
g60
sbsg18
I00
sg19
g60
sbsg18
I00
sg19
g27
sbsg15
I4
sg18
I01
sg19
g28
sbsg15
I5
sg21
(imyEvolve
Tree
p467
(dp468
g7
(imyEvolve
Tree
p469
(dp470
g7
(imyEvolve
Tree
p471
(dp472
g10
(imyEvolve
Tree
p473
(dp474
g10
(imyEvolve
Tree
p475
(dp476
g15
I0
sg16
F3.578723545032638
sg17
I01
sbsg15
I1
sg21
(imyEvolve
Tree
p477
(dp478
g15
I0
sg16
F4.579191717908941
sg17
I01
sbsg18
I00
sg19
g41
sbsg15
I2
sg21
(imyEvolve
Tree
p479
(dp480
g7
(imyEvolve
Tree
p481
(dp482
g15
I0
sg16
F4.514461812171183
sg17
I01
sbsg15
I1
sg18
I01
sg19
g111
sbsg18
I00
sg19
g27
sbsg15
I3
sg18
I01
sg19
g28
sbsg15
I4
sg18
I01
sg19
g20
sbsg18
I00
sg19
g27
sba(imyEvolve
Tree
p483
(dp484
g7
(imyEvolve
Tree
p485
(dp486
g7
(imyEvolve
Tree
p487
(dp488
g10
(imyEvolve
Tree
p489
(dp490
g15
I0
sg16
F4.171664812862101
sg17
I01
sbsg15
I1
sg21
(imyEvolve
Tree
p491
(dp492
g15
I0
sg16
F-1.577074841087934
sg17
I01
sbsg18
I00
sg19
g41
sbsg15
I2
sg18
I01
sg19
g26
sbsg15
I3
sg18
I01
sg19
g26
sba(imyEvolve
Tree
p493
(dp494
g15
I4
sg10
(imyEvolve
Tree
p495
(dp496
g7
(imyEvolve
Tree
p497
(dp498
g15
I2
sg10
(imyEvolve
Tree
p499
(dp500
g15
I1
sg10
(imyEvolve
Tree
p501
(dp502
g15
I0
sg16
F1.9273249280416689
sg17
I01
sbsg21
(imyEvolve
Tree
p503
(dp504
g15
I0
sg17
I00
sbsg18
I00
sg19
g60
sbsg21
(imyEvolve
Tree
p505
(dp506
g15
I1
sg10
(imyEvolve
Tree
p507
(dp508
g15
I0
sg16
F-3.845967043305547
sg17
I01
sbsg21
(imyEvolve
Tree
p509
(dp510
g15
I0
sg16
F4.529007473414097
sg17
I01
sbsg18
I00
sg19
g60
sbsg18
I00
sg19
g60
sbsg15
I3
sg18
I01
sg19
g26
sbsg21
(imyEvolve
Tree
p511
(dp512
g15
I3
sg10
(imyEvolve
Tree
p513
(dp514
g15
I2
sg10
(imyEvolve
Tree
p515
(dp516
g7
(imyEvolve
Tree
p517
(dp518
g15
I0
sg16
F-1.264239080409173
sg17
I01
sbsg15
I1
sg18
I01
sg19
g28
sbsg21
(imyEvolve
Tree
p519
(dp520
g7
(imyEvolve
Tree
p521
(dp522
g15
I0
sg17
I00
sbsg15
I1
sg18
I01
sg19
g20
sbsg18
I00
sg19
g41
sbsg21
(imyEvolve
Tree
p523
(dp524
g15
I2
sg10
(imyEvolve
Tree
p525
(dp526
g7
(imyEvolve
Tree
p527
(dp528
g15
I0
sg17
I00
sbsg15
I1
sg18
I01
sg19
g28
sbsg21
(imyEvolve
Tree
p529
(dp530
g7
(imyEvolve
Tree
p531
(dp532
g15
I0
sg16
F-1.0869209708247443
sg17
I01
sbsg15
I1
sg18
I01
sg19
g111
sbsg18
I00
sg19
g41
sbsg18
I00
sg19
g27
sbsg18
I00
sg19
g41
sba(imyEvolve
Tree
p533
(dp534
g10
(imyEvolve
Tree
p535
(dp536
g10
(imyEvolve
Tree
p537
(dp538
g7
(imyEvolve
Tree
p539
(dp540
g7
(imyEvolve
Tree
p541
(dp542
g15
I0
sg17
I00
sbsg15
I1
sg18
I01
sg19
g20
sbsg15
I2
sg18
I01
sg19
g28
sbsg15
I3
sg21
(imyEvolve
Tree
p543
(dp544
g7
(imyEvolve
Tree
p545
(dp546
g10
(imyEvolve
Tree
p547
(dp548
g15
I0
sg17
I00
sbsg15
I1
sg21
(imyEvolve
Tree
p549
(dp550
g15
I0
sg17
I00
sbsg18
I00
sg19
g60
sbsg15
I2
sg18
I01
sg19
g111
sbsg18
I00
sg19
g27
sbsg15
I4
sg21
(imyEvolve
Tree
p551
(dp552
g10
(imyEvolve
Tree
p553
(dp554
g7
(imyEvolve
Tree
p555
(dp556
g10
(imyEvolve
Tree
p557
(dp558
g15
I0
sg16
F-2.3347573085994675
sg17
I01
sbsg15
I1
sg21
(imyEvolve
Tree
p559
(dp560
g15
I0
sg17
I00
sbsg18
I00
sg19
g27
sbsg15
I2
sg18
I01
sg19
g28
sbsg15
I3
sg21
(imyEvolve
Tree
p561
(dp562
g10
(imyEvolve
Tree
p563
(dp564
g7
(imyEvolve
Tree
p565
(dp566
g15
I0
sg16
F-3.098845846201126
sg17
I01
sbsg15
I1
sg18
I01
sg19
g111
sbsg15
I2
sg21
(imyEvolve
Tree
p567
(dp568
g10
(imyEvolve
Tree
p569
(dp570
g15
I0
sg16
F-2.163528149921393
sg17
I01
sbsg15
I1
sg21
(imyEvolve
Tree
p571
(dp572
g15
I0
sg16
F-4.702592966293459
sg17
I01
sbsg18
I00
sg19
g41
sbsg18
I00
sg19
g27
sbsg18
I00
sg19
g27
sbsg18
I00
sg19
g41
sba(imyEvolve
Tree
p573
(dp574
g7
(imyEvolve
Tree
p575
(dp576
g10
(imyEvolve
Tree
p577
(dp578
g10
(imyEvolve
Tree
p579
(dp580
g10
(imyEvolve
Tree
p581
(dp582
g7
(imyEvolve
Tree
p583
(dp584
g15
I0
sg17
I00
sbsg15
I1
sg18
I01
sg19
g20
sbsg15
I2
sg21
(imyEvolve
Tree
p585
(dp586
g7
(imyEvolve
Tree
p587
(dp588
g15
I0
sg17
I00
sbsg15
I1
sg18
I01
sg19
g111
sbsg18
I00
sg19
g41
sbsg15
I3
sg21
(imyEvolve
Tree
p589
(dp590
g7
(imyEvolve
Tree
p591
(dp592
g10
(imyEvolve
Tree
p593
(dp594
g15
I0
sg17
I00
sbsg15
I1
sg21
(imyEvolve
Tree
p595
(dp596
g15
I0
sg17
I00
sbsg18
I00
sg19
g60
sbsg15
I2
sg18
I01
sg19
g28
sbsg18
I00
sg19
g41
sbsg15
I4
sg21
(imyEvolve
Tree
p597
(dp598
g7
(imyEvolve
Tree
p599
(dp600
g7
(imyEvolve
Tree
p601
(dp602
g10
(imyEvolve
Tree
p603
(dp604
g15
I0
sg17
I00
sbsg15
I1
sg21
(imyEvolve
Tree
p605
(dp606
g15
I0
sg17
I00
sbsg18
I00
sg19
g27
sbsg15
I2
sg18
I01
sg19
g111
sbsg15
I3
sg18
I01
sg19
g28
sbsg18
I00
sg19
g41
sbsg15
I5
sg18
I01
sg19
g111
sba(imyEvolve
Tree
p607
(dp608
g10
(imyEvolve
Tree
p609
(dp610
g10
(imyEvolve
Tree
p611
(dp612
g15
I0
sg16
F0.7382416966586831
sg17
I01
sbsg15
I1
sg21
(imyEvolve
Tree
p613
(dp614
g15
I0
sg16
F2.17787607668678
sg17
I01
sbsg18
I00
sg19
g27
sbsg15
I2
sg21
(imyEvolve
Tree
p615
(dp616
g10
(imyEvolve
Tree
p617
(dp618
g15
I0
sg17
I00
sbsg15
I1
sg21
(imyEvolve
Tree
p619
(dp620
g15
I0
sg17
I00
sbsg18
I00
sg19
g27
sbsg18
I00
sg19
g41
sba(imyEvolve
Tree
p621
(dp622
g10
(imyEvolve
Tree
p623
(dp624
g10
(imyEvolve
Tree
p625
(dp626
g15
I0
sg16
F-1.7446138017306199
sg17
I01
sbsg15
I1
sg21
(imyEvolve
Tree
p627
(dp628
g15
I0
sg16
F0.2551445528734231
sg17
I01
sbsg18
I00
sg19
g60
sbsg15
I2
sg21
(imyEvolve
Tree
p629
(dp630
g7
(imyEvolve
Tree
p631
(dp632
g15
I0
sg17
I00
sbsg15
I1
sg18
I01
sg19
g20
sbsg18
I00
sg19
g60
sba(imyEvolve
Tree
p633
(dp634
g7
(imyEvolve
Tree
p635
(dp636
g7
(imyEvolve
Tree
p637
(dp638
g10
(imyEvolve
Tree
p639
(dp640
g15
I0
sg17
I00
sbsg15
I1
sg21
(imyEvolve
Tree
p641
(dp642
g15
I0
sg16
F-3.936647402819271
sg17
I01
sbsg18
I00
sg19
g60
sbsg15
I2
sg18
I01
sg19
g26
sbsg15
I3
sg18
I01
sg19
g28
sba(imyEvolve
Tree
p643
(dp644
g7
(imyEvolve
Tree
p645
(dp646
g10
(imyEvolve
Tree
p647
(dp648
g7
(imyEvolve
Tree
p649
(dp650
g10
(imyEvolve
Tree
p651
(dp652
g15
I0
sg17
I00
sbsg15
I1
sg21
(imyEvolve
Tree
p653
(dp654
g15
I0
sg16
F-2.2113307816359953
sg17
I01
sbsg18
I00
sg19
g60
sbsg15
I2
sg18
I01
sg19
g20
sbsg15
I3
sg21
(imyEvolve
Tree
p655
(dp656
g10
(imyEvolve
Tree
p657
(dp658
g10
(imyEvolve
Tree
p659
(dp660
g15
I0
sg16
F2.200227563823872
sg17
I01
sbsg15
I1
sg21
(imyEvolve
Tree
p661
(dp662
g15
I0
sg17
I00
sbsg18
I00
sg19
g27
sbsg15
I2
sg21
(imyEvolve
Tree
p663
(dp664
g10
(imyEvolve
Tree
p665
(dp666
g15
I0
sg16
F0.3634966737842449
sg17
I01
sbsg15
I1
sg21
(imyEvolve
Tree
p667
(dp668
g15
I0
sg16
F2.1193776056975553
sg17
I01
sbsg18
I00
sg19
g27
sbsg18
I00
sg19
g27
sbsg18
I00
sg19
g60
sbsg15
I4
sg18
I01
sg19
g28
sba(imyEvolve
Tree
p669
(dp670
g7
(imyEvolve
Tree
p671
(dp672
g7
(imyEvolve
Tree
p673
(dp674
g15
I0
sg17
I00
sbsg15
I1
sg18
I01
sg19
g20
sbsg15
I2
sg18
I01
sg19
g28
sba(imyEvolve
Tree
p675
(dp676
g10
(imyEvolve
Tree
p677
(dp678
g10
(imyEvolve
Tree
p679
(dp680
g7
(imyEvolve
Tree
p681
(dp682
g15
I0
sg16
F-3.1356544370505866
sg17
I01
sbsg15
I1
sg18
I01
sg19
g28
sbsg15
I2
sg21
(imyEvolve
Tree
p683
(dp684
g10
(imyEvolve
Tree
p685
(dp686
g15
I0
sg16
F-4.686242028507928
sg17
I01
sbsg15
I1
sg21
(imyEvolve
Tree
p687
(dp688
g15
I0
sg16
F-3.1591484363485933
sg17
I01
sbsg18
I00
sg19
g60
sbsg18
I00
sg19
g60
sbsg15
I3
sg21
(imyEvolve
Tree
p689
(dp690
g7
(imyEvolve
Tree
p691
(dp692
g10
(imyEvolve
Tree
p693
(dp694
g15
I0
sg16
F4.951459076264969
sg17
I01
sbsg15
I1
sg21
(imyEvolve
Tree
p695
(dp696
g15
I0
sg17
I00
sbsg18
I00
sg19
g27
sbsg15
I2
sg18
I01
sg19
g28
sbsg18
I00
sg19
g27
sba(imyEvolve
Tree
p697
(dp698
g7
(imyEvolve
Tree
p699
(dp700
g10
(imyEvolve
Tree
p701
(dp702
g10
(imyEvolve
Tree
p703
(dp704
g7
(imyEvolve
Tree
p705
(dp706
g15
I0
sg16
F-1.4117059238113896
sg17
I01
sbsg15
I1
sg18
I01
sg19
g28
sbsg15
I2
sg21
(imyEvolve
Tree
p707
(dp708
g10
(imyEvolve
Tree
p709
(dp710
g15
I0
sg17
I00
sbsg15
I1
sg21
(imyEvolve
Tree
p711
(dp712
g15
I0
sg16
F2.1262911761144494
sg17
I01
sbsg18
I00
sg19
g27
sbsg18
I00
sg19
g27
sbsg15
I3
sg21
(imyEvolve
Tree
p713
(dp714
g10
(imyEvolve
Tree
p715
(dp716
g10
(imyEvolve
Tree
p717
(dp718
g15
I0
sg16
F2.2832224533406578
sg17
I01
sbsg15
I1
sg21
(imyEvolve
Tree
p719
(dp720
g15
I0
sg17
I00
sbsg18
I00
sg19
g41
sbsg15
I2
sg21
(imyEvolve
Tree
p721
(dp722
g10
(imyEvolve
Tree
p723
(dp724
g15
I0
sg16
F-0.24323993355927964
sg17
I01
sbsg15
I1
sg21
(imyEvolve
Tree
p725
(dp726
g15
I0
sg17
I00
sbsg18
I00
sg19
g41
sbsg18
I00
sg19
g60
sbsg18
I00
sg19
g27
sbsg15
I4
sg18
I01
sg19
g111
sba(imyEvolve
Tree
p727
(dp728
g7
(imyEvolve
Tree
p729
(dp730
g10
(imyEvolve
Tree
p731
(dp732
g15
I0
sg17
I00
sbsg15
I1
sg21
(imyEvolve
Tree
p733
(dp734
g15
I0
sg16
F-1.8299373628377644
sg17
I01
sbsg18
I00
sg19
g60
sbsg15
I2
sg18
I01
sg19
g26
sba(imyEvolve
Tree
p735
(dp736
g10
(imyEvolve
Tree
p737
(dp738
g7
(imyEvolve
Tree
p739
(dp740
g10
(imyEvolve
Tree
p741
(dp742
g7
(imyEvolve
Tree
p743
(dp744
g7
(imyEvolve
Tree
p745
(dp746
g15
I0
sg16
F1.0610538603210617
sg17
I01
sbsg15
I1
sg18
I01
sg19
g20
sbsg15
I2
sg18
I01
sg19
g20
sbsg15
I3
sg21
(imyEvolve
Tree
p747
(dp748
g10
(imyEvolve
Tree
p749
(dp750
g7
(imyEvolve
Tree
p751
(dp752
g15
I0
sg17
I00
sbsg15
I1
sg18
I01
sg19
g111
sbsg15
I2
sg21
(imyEvolve
Tree
p753
(dp754
g7
(imyEvolve
Tree
p755
(dp756
g15
I0
sg16
F-0.5999009414546776
sg17
I01
sbsg15
I1
sg18
I01
sg19
g26
sbsg18
I00
sg19
g60
sbsg18
I00
sg19
g27
sbsg15
I4
sg18
I01
sg19
g111
sbsg15
I5
sg21
(imyEvolve
Tree
p757
(dp758
g10
(imyEvolve
Tree
p759
(dp760
g7
(imyEvolve
Tree
p761
(dp762
g7
(imyEvolve
Tree
p763
(dp764
g10
(imyEvolve
Tree
p765
(dp766
g15
I0
sg17
I00
sbsg15
I1
sg21
(imyEvolve
Tree
p767
(dp768
g15
I0
sg16
F-2.209923457937626
sg17
I01
sbsg18
I00
sg19
g60
sbsg15
I2
sg18
I01
sg19
g111
sbsg15
I3
sg18
I01
sg19
g26
sbsg15
I4
sg21
(imyEvolve
Tree
p769
(dp770
g7
(imyEvolve
Tree
p771
(dp772
g10
(imyEvolve
Tree
p773
(dp774
g7
(imyEvolve
Tree
p775
(dp776
g15
I0
sg17
I00
sbsg15
I1
sg18
I01
sg19
g111
sbsg15
I2
sg21
(imyEvolve
Tree
p777
(dp778
g7
(imyEvolve
Tree
p779
(dp780
g15
I0
sg17
I00
sbsg15
I1
sg18
I01
sg19
g111
sbsg18
I00
sg19
g60
sbsg15
I3
sg18
I01
sg19
g111
sbsg18
I00
sg19
g27
sbsg18
I00
sg19
g60
sba(imyEvolve
Tree
p781
(dp782
g15
I4
sg10
(imyEvolve
Tree
p783
(dp784
g7
(imyEvolve
Tree
p785
(dp786
g7
(imyEvolve
Tree
p787
(dp788
g7
(imyEvolve
Tree
p789
(dp790
g15
I0
sg17
I00
sbsg15
I1
sg18
I01
sg19
g20
sbsg15
I2
sg18
I01
sg19
g28
sbsg15
I3
sg18
I01
sg19
g28
sbsg21
(imyEvolve
Tree
p791
(dp792
g7
(imyEvolve
Tree
p793
(dp794
g15
I2
sg10
(imyEvolve
Tree
p795
(dp796
g7
(imyEvolve
Tree
p797
(dp798
g15
I0
sg17
I00
sbsg15
I1
sg18
I01
sg19
g28
sbsg21
(imyEvolve
Tree
p799
(dp800
g7
(imyEvolve
Tree
p801
(dp802
g15
I0
sg17
I00
sbsg15
I1
sg18
I01
sg19
g28
sbsg18
I00
sg19
g41
sbsg15
I3
sg18
I01
sg19
g26
sbsg18
I00
sg19
g60
sbaasS'alpha'
p803
F0.0070899928281372045
sS'fitness'
p804
cnumpy.core.multiarray
scalar
p805
(cnumpy
dtype
p806
(S'f8'
p807
I0
I1
tp808
Rp809
(I3
S'<'
p810
NNNI-1
I-1
I0
tp811
bS'\xa85\xcd\xcf\x877\xe6?'
p812
tp813
Rp814
sS'weightSharing'
p815
(lp816
I00
aI01
asS'fitnessValid'
p817
I00
sS'resolution'
p818
I69
sb.