(imyEvolve
Individual
p0
(dp1
S'funcs'
p2
(lp3
(lp4
(imyEvolve
Tree
p5
(dp6
S'left'
p7
(imyEvolve
Tree
p8
(dp9
S'below'
p10
(imyEvolve
Tree
p11
(dp12
S'depth'
p13
I0
sS'isConstant'
p14
I00
sbsg13
I1
sS'single'
p15
I01
sS'op'
p16
cmyEvolve
square
p17
sbsg13
I2
sS'right'
p18
(imyEvolve
Tree
p19
(dp20
g7
(imyEvolve
Tree
p21
(dp22
g13
I0
sS'constant'
p23
F-1.5327513289949044
sg14
I01
sbsg13
I1
sg18
(imyEvolve
Tree
p24
(dp25
g13
I0
sg23
F0.9729893646949375
sg14
I01
sbsg15
I00
sg16
coperator
mul
p26
sbsg15
I00
sg16
coperator
add
p27
sba(imyEvolve
Tree
p28
(dp29
g7
(imyEvolve
Tree
p30
(dp31
g7
(imyEvolve
Tree
p32
(dp33
g10
(imyEvolve
Tree
p34
(dp35
g7
(imyEvolve
Tree
p36
(dp37
g7
(imyEvolve
Tree
p38
(dp39
g13
I0
sg14
I00
sbsg13
I1
sg18
(imyEvolve
Tree
p40
(dp41
g13
I0
sg23
F2.4842166545595843
sg14
I01
sbsg15
I00
sg16
g27
sbsg13
I2
sg18
(imyEvolve
Tree
p42
(dp43
g10
(imyEvolve
Tree
p44
(dp45
g13
I0
sg23
F-0.48789877059713405
sg14
I01
sbsg13
I1
sg15
I01
sg16
cmyEvolve
absSqrt
p46
sbsg15
I00
sg16
g26
sbsg13
I3
sg15
I01
sg16
cmath
sin
p47
sbsg13
I4
sg18
(imyEvolve
Tree
p48
(dp49
g10
(imyEvolve
Tree
p50
(dp51
g7
(imyEvolve
Tree
p52
(dp53
g7
(imyEvolve
Tree
p54
(dp55
g13
I0
sg23
F4.612358454702882
sg14
I01
sbsg13
I1
sg18
(imyEvolve
Tree
p56
(dp57
g13
I0
sg14
I00
sbsg15
I00
sg16
coperator
sub
p58
sbsg13
I2
sg18
(imyEvolve
Tree
p59
(dp60
g7
(imyEvolve
Tree
p61
(dp62
g13
I0
sg23
F-4.035936047316724
sg14
I01
sbsg13
I1
sg18
(imyEvolve
Tree
p63
(dp64
g13
I0
sg23
F-1.9665436658018445
sg14
I01
sbsg15
I00
sg16
g27
sbsg15
I00
sg16
g58
sbsg13
I3
sg15
I01
sg16
g17
sbsg15
I00
sg16
g27
sbsg13
I5
sg18
(imyEvolve
Tree
p65
(dp66
g7
(imyEvolve
Tree
p67
(dp68
g7
(imyEvolve
Tree
p69
(dp70
g7
(imyEvolve
Tree
p71
(dp72
g7
(imyEvolve
Tree
p73
(dp74
g13
I0
sg23
F-0.35254300800329297
sg14
I01
sbsg13
I1
sg18
(imyEvolve
Tree
p75
(dp76
g13
I0
sg14
I00
sbsg15
I00
sg16
g27
sbsg13
I2
sg18
(imyEvolve
Tree
p77
(dp78
g10
(imyEvolve
Tree
p79
(dp80
g13
I0
sg23
F0.30344584753323645
sg14
I01
sbsg13
I1
sg15
I01
sg16
cmath
cos
p81
sbsg15
I00
sg16
g27
sbsg13
I3
sg18
(imyEvolve
Tree
p82
(dp83
g10
(imyEvolve
Tree
p84
(dp85
g7
(imyEvolve
Tree
p86
(dp87
g13
I0
sg23
F3.4034702550952165
sg14
I01
sbsg13
I1
sg18
(imyEvolve
Tree
p88
(dp89
g13
I0
sg14
I00
sbsg15
I00
sg16
g58
sbsg13
I2
sg15
I01
sg16
g46
sbsg15
I00
sg16
g58
sbsg13
I4
sg18
(imyEvolve
Tree
p90
(dp91
g10
(imyEvolve
Tree
p92
(dp93
g7
(imyEvolve
Tree
p94
(dp95
g10
(imyEvolve
Tree
p96
(dp97
g13
I0
sg23
F-0.7304050358150027
sg14
I01
sbsg13
I1
sg15
I01
sg16
g46
sbsg13
I2
sg18
(imyEvolve
Tree
p98
(dp99
g7
(imyEvolve
Tree
p100
(dp101
g13
I0
sg23
F-2.8963907036153023
sg14
I01
sbsg13
I1
sg18
(imyEvolve
Tree
p102
(dp103
g13
I0
sg14
I00
sbsg15
I00
sg16
g27
sbsg15
I00
sg16
g58
sbsg13
I3
sg15
I01
sg16
g17
sbsg15
I00
sg16
g27
sbsg15
I00
sg16
g27
sba(imyEvolve
Tree
p104
(dp105
g10
(imyEvolve
Tree
p106
(dp107
g7
(imyEvolve
Tree
p108
(dp109
g7
(imyEvolve
Tree
p110
(dp111
g10
(imyEvolve
Tree
p112
(dp113
g13
I0
sg14
I00
sbsg13
I1
sg15
I01
sg16
g47
sbsg13
I2
sg18
(imyEvolve
Tree
p114
(dp115
g10
(imyEvolve
Tree
p116
(dp117
g13
I0
sg14
I00
sbsg13
I1
sg15
I01
sg16
g17
sbsg15
I00
sg16
g26
sbsg13
I3
sg18
(imyEvolve
Tree
p118
(dp119
g7
(imyEvolve
Tree
p120
(dp121
g7
(imyEvolve
Tree
p122
(dp123
g13
I0
sg14
I00
sbsg13
I1
sg18
(imyEvolve
Tree
p124
(dp125
g13
I0
sg23
F-4.090391860496188
sg14
I01
sbsg15
I00
sg16
g58
sbsg13
I2
sg18
(imyEvolve
Tree
p126
(dp127
g10
(imyEvolve
Tree
p128
(dp129
g13
I0
sg23
F2.4475927049836157
sg14
I01
sbsg13
I1
sg15
I01
sg16
g81
sbsg15
I00
sg16
g58
sbsg15
I00
sg16
g26
sbsg13
I4
sg15
I01
sg16
g47
sba(imyEvolve
Tree
p130
(dp131
g13
I3
sg7
(imyEvolve
Tree
p132
(dp133
g13
I2
sg7
(imyEvolve
Tree
p134
(dp135
g13
I1
sg7
(imyEvolve
Tree
p136
(dp137
g13
I0
sg23
F1.0644161176861484
sg14
I01
sbsg18
(imyEvolve
Tree
p138
(dp139
g13
I0
sg23
F-1.113220602923061
sg14
I01
sbsg15
I00
sg16
g26
sbsg18
(imyEvolve
Tree
p140
(dp141
g13
I1
sg7
(imyEvolve
Tree
p142
(dp143
g13
I0
sg23
F-3.6617400518889065
sg14
I01
sbsg18
(imyEvolve
Tree
p144
(dp145
g13
I0
sg14
I00
sbsg15
I00
sg16
g58
sbsg15
I00
sg16
g27
sbsg18
(imyEvolve
Tree
p146
(dp147
g10
(imyEvolve
Tree
p148
(dp149
g10
(imyEvolve
Tree
p150
(dp151
g13
I0
sg23
F2.303480976031725
sg14
I01
sbsg13
I1
sg15
I01
sg16
g47
sbsg13
I2
sg15
I01
sg16
g47
sbsg15
I00
sg16
g26
sba(imyEvolve
Tree
p152
(dp153
g13
I4
sg7
(imyEvolve
Tree
p154
(dp155
g13
I3
sg7
(imyEvolve
Tree
p156
(dp157
g10
(imyEvolve
Tree
p158
(dp159
g10
(imyEvolve
Tree
p160
(dp161
g13
I0
sg14
I00
sbsg13
I1
sg15
I01
sg16
g17
sbsg13
I2
sg15
I01
sg16
g17
sbsg18
(imyEvolve
Tree
p162
(dp163
g13
I2
sg7
(imyEvolve
Tree
p164
(dp165
g13
I1
sg7
(imyEvolve
Tree
p166
(dp167
g13
I0
sg23
F1.7424504306952002
sg14
I01
sbsg18
(imyEvolve
Tree
p168
(dp169
g13
I0
sg14
I00
sbsg15
I00
sg16
g27
sbsg18
(imyEvolve
Tree
p170
(dp171
g10
(imyEvolve
Tree
p172
(dp173
g13
I0
sg23
F-4.809053838746241
sg14
I01
sbsg13
I1
sg15
I01
sg16
g17
sbsg15
I00
sg16
g27
sbsg15
I00
sg16
g27
sbsg18
(imyEvolve
Tree
p174
(dp175
g13
I3
sg7
(imyEvolve
Tree
p176
(dp177
g13
I2
sg7
(imyEvolve
Tree
p178
(dp179
g13
I1
sg7
(imyEvolve
Tree
p180
(dp181
g13
I0
sg23
F-4.31974515802907
sg14
I01
sbsg18
(imyEvolve
Tree
p182
(dp183
g13
I0
sg14
I00
sbsg15
I00
sg16
g58
sbsg18
(imyEvolve
Tree
p184
(dp185
g13
I1
sg7
(imyEvolve
Tree
p186
(dp187
g13
I0
sg14
I00
sbsg18
(imyEvolve
Tree
p188
(dp189
g13
I0
sg23
F4.188004707511684
sg14
I01
sbsg15
I00
sg16
g27
sbsg15
I00
sg16
g58
sbsg18
(imyEvolve
Tree
p190
(dp191
g10
(imyEvolve
Tree
p192
(dp193
g13
I1
sg7
(imyEvolve
Tree
p194
(dp195
g13
I0
sg23
F3.9279487040190197
sg14
I01
sbsg18
(imyEvolve
Tree
p196
(dp197
g13
I0
sg14
I00
sbsg15
I00
sg16
g58
sbsg13
I2
sg15
I01
sg16
g17
sbsg15
I00
sg16
g58
sbsg15
I00
sg16
g58
sba(imyEvolve
Tree
p198
(dp199
g7
(imyEvolve
Tree
p200
(dp201
g10
(imyEvolve
Tree
p202
(dp203
g10
(imyEvolve
Tree
p204
(dp205
g7
(imyEvolve
Tree
p206
(dp207
g13
I0
sg23
F-3.8996145352988467
sg14
I01
sbsg13
I1
sg18
(imyEvolve
Tree
p208
(dp209
g13
I0
sg23
F-2.8168975876226234
sg14
I01
sbsg15
I00
sg16
g58
sbsg13
I2
sg15
I01
sg16
g81
sbsg13
I3
sg15
I01
sg16
g17
sbsg13
I4
sg18
(imyEvolve
Tree
p210
(dp211
g7
(imyEvolve
Tree
p212
(dp213
g7
(imyEvolve
Tree
p214
(dp215
g7
(imyEvolve
Tree
p216
(dp217
g13
I0
sg23
F-1.1818719150243986
sg14
I01
sbsg13
I1
sg18
(imyEvolve
Tree
p218
(dp219
g13
I0
sg14
I00
sbsg15
I00
sg16
g26
sbsg13
I2
sg18
(imyEvolve
Tree
p220
(dp221
g7
(imyEvolve
Tree
p222
(dp223
g13
I0
sg23
F-0.266751876691278
sg14
I01
sbsg13
I1
sg18
(imyEvolve
Tree
p224
(dp225
g13
I0
sg14
I00
sbsg15
I00
sg16
g58
sbsg15
I00
sg16
g27
sbsg13
I3
sg18
(imyEvolve
Tree
p226
(dp227
g7
(imyEvolve
Tree
p228
(dp229
g10
(imyEvolve
Tree
p230
(dp231
g13
I0
sg14
I00
sbsg13
I1
sg15
I01
sg16
g81
sbsg13
I2
sg18
(imyEvolve
Tree
p232
(dp233
g10
(imyEvolve
Tree
p234
(dp235
g13
I0
sg23
F0.5789172615681712
sg14
I01
sbsg13
I1
sg15
I01
sg16
g17
sbsg15
I00
sg16
g58
sbsg15
I00
sg16
g27
sbsg15
I00
sg16
g58
sba(imyEvolve
Tree
p236
(dp237
g13
I2
sg7
(imyEvolve
Tree
p238
(dp239
g13
I1
sg7
(imyEvolve
Tree
p240
(dp241
g13
I0
sg14
I00
sbsg18
(imyEvolve
Tree
p242
(dp243
g13
I0
sg23
F-0.5194792271827247
sg14
I01
sbsg15
I00
sg16
g27
sbsg18
(imyEvolve
Tree
p244
(dp245
g13
I1
sg7
(imyEvolve
Tree
p246
(dp247
g13
I0
sg14
I00
sbsg18
(imyEvolve
Tree
p248
(dp249
g13
I0
sg23
F1.930883636437298
sg14
I01
sbsg15
I00
sg16
g27
sbsg15
I00
sg16
g27
sba(imyEvolve
Tree
p250
(dp251
g10
(imyEvolve
Tree
p252
(dp253
g10
(imyEvolve
Tree
p254
(dp255
g10
(imyEvolve
Tree
p256
(dp257
g13
I0
sg14
I00
sbsg13
I1
sg15
I01
sg16
g47
sbsg13
I2
sg15
I01
sg16
g47
sbsg13
I3
sg15
I01
sg16
g46
sba(imyEvolve
Tree
p258
(dp259
g10
(imyEvolve
Tree
p260
(dp261
g7
(imyEvolve
Tree
p262
(dp263
g7
(imyEvolve
Tree
p264
(dp265
g13
I0
sg23
F-0.03993167120625429
sg14
I01
sbsg13
I1
sg18
(imyEvolve
Tree
p266
(dp267
g13
I0
sg23
F-0.5149591048081525
sg14
I01
sbsg15
I00
sg16
g58
sbsg13
I2
sg18
(imyEvolve
Tree
p268
(dp269
g7
(imyEvolve
Tree
p270
(dp271
g13
I0
sg23
F2.8233851811766097
sg14
I01
sbsg13
I1
sg18
(imyEvolve
Tree
p272
(dp273
g13
I0
sg23
F3.370592278098014
sg14
I01
sbsg15
I00
sg16
g26
sbsg15
I00
sg16
g58
sbsg13
I3
sg15
I01
sg16
g46
sba(imyEvolve
Tree
p274
(dp275
g10
(imyEvolve
Tree
p276
(dp277
g7
(imyEvolve
Tree
p278
(dp279
g10
(imyEvolve
Tree
p280
(dp281
g13
I0
sg23
F2.0522991062125326
sg14
I01
sbsg13
I1
sg15
I01
sg16
g81
sbsg13
I2
sg18
(imyEvolve
Tree
p282
(dp283
g10
(imyEvolve
Tree
p284
(dp285
g13
I0
sg14
I00
sbsg13
I1
sg15
I01
sg16
g47
sbsg15
I00
sg16
g58
sbsg13
I3
sg15
I01
sg16
g47
sba(imyEvolve
Tree
p286
(dp287
g7
(imyEvolve
Tree
p288
(dp289
g10
(imyEvolve
Tree
p290
(dp291
g13
I0
sg23
F-2.730835104919187
sg14
I01
sbsg13
I1
sg15
I01
sg16
g47
sbsg13
I2
sg18
(imyEvolve
Tree
p292
(dp293
g7
(imyEvolve
Tree
p294
(dp295
g13
I0
sg14
I00
sbsg13
I1
sg18
(imyEvolve
Tree
p296
(dp297
g13
I0
sg14
I00
sbsg15
I00
sg16
g27
sbsg15
I00
sg16
g58
sba(imyEvolve
Tree
p298
(dp299
g13
I2
sg7
(imyEvolve
Tree
p300
(dp301
g13
I1
sg7
(imyEvolve
Tree
p302
(dp303
g13
I0
sg23
F-2.7274433187955403
sg14
I01
sbsg18
(imyEvolve
Tree
p304
(dp305
g13
I0
sg14
I00
sbsg15
I00
sg16
g58
sbsg18
(imyEvolve
Tree
p306
(dp307
g13
I1
sg7
(imyEvolve
Tree
p308
(dp309
g13
I0
sg14
I00
sbsg18
(imyEvolve
Tree
p310
(dp311
g13
I0
sg23
F4.583264363141815
sg14
I01
sbsg15
I00
sg16
g58
sbsg15
I00
sg16
g26
sba(imyEvolve
Tree
p312
(dp313
g10
(imyEvolve
Tree
p314
(dp315
g10
(imyEvolve
Tree
p316
(dp317
g10
(imyEvolve
Tree
p318
(dp319
g10
(imyEvolve
Tree
p320
(dp321
g13
I0
sg14
I00
sbsg13
I1
sg15
I01
sg16
g46
sbsg13
I2
sg15
I01
sg16
g46
sbsg13
I3
sg15
I01
sg16
g46
sbsg13
I4
sg15
I01
sg16
g47
sba(imyEvolve
Tree
p322
(dp323
g10
(imyEvolve
Tree
p324
(dp325
g10
(imyEvolve
Tree
p326
(dp327
g13
I1
sg7
(imyEvolve
Tree
p328
(dp329
g13
I0
sg14
I00
sbsg18
(imyEvolve
Tree
p330
(dp331
g13
I0
sg23
F-3.5353293720208634
sg14
I01
sbsg15
I00
sg16
g27
sbsg13
I2
sg15
I01
sg16
g81
sbsg13
I3
sg15
I01
sg16
g17
sba(imyEvolve
Tree
p332
(dp333
g10
(imyEvolve
Tree
p334
(dp335
g7
(imyEvolve
Tree
p336
(dp337
g10
(imyEvolve
Tree
p338
(dp339
g10
(imyEvolve
Tree
p340
(dp341
g13
I0
sg23
F1.2673741460726085
sg14
I01
sbsg13
I1
sg15
I01
sg16
g47
sbsg13
I2
sg15
I01
sg16
g17
sbsg13
I3
sg18
(imyEvolve
Tree
p342
(dp343
g7
(imyEvolve
Tree
p344
(dp345
g7
(imyEvolve
Tree
p346
(dp347
g13
I0
sg14
I00
sbsg13
I1
sg18
(imyEvolve
Tree
p348
(dp349
g13
I0
sg23
F1.1813954358826475
sg14
I01
sbsg15
I00
sg16
g58
sbsg13
I2
sg18
(imyEvolve
Tree
p350
(dp351
g10
(imyEvolve
Tree
p352
(dp353
g13
I0
sg23
F1.9851409186653566
sg14
I01
sbsg13
I1
sg15
I01
sg16
g81
sbsg15
I00
sg16
g26
sbsg15
I00
sg16
g26
sbsg13
I4
sg15
I01
sg16
g46
sba(imyEvolve
Tree
p354
(dp355
g10
(imyEvolve
Tree
p356
(dp357
g10
(imyEvolve
Tree
p358
(dp359
g10
(imyEvolve
Tree
p360
(dp361
g13
I2
sg7
(imyEvolve
Tree
p362
(dp363
g10
(imyEvolve
Tree
p364
(dp365
g13
I0
sg14
I00
sbsg13
I1
sg15
I01
sg16
g81
sbsg18
(imyEvolve
Tree
p366
(dp367
g13
I1
sg7
(imyEvolve
Tree
p368
(dp369
g13
I0
sg14
I00
sbsg18
(imyEvolve
Tree
p370
(dp371
g13
I0
sg23
F0.4660191648596115
sg14
I01
sbsg15
I00
sg16
g58
sbsg15
I00
sg16
g27
sbsg13
I3
sg15
I01
sg16
g47
sbsg13
I4
sg15
I01
sg16
g46
sbsg13
I5
sg15
I01
sg16
g81
sba(imyEvolve
Tree
p372
(dp373
g10
(imyEvolve
Tree
p374
(dp375
g13
I2
sg7
(imyEvolve
Tree
p376
(dp377
g10
(imyEvolve
Tree
p378
(dp379
g13
I0
sg14
I00
sbsg13
I1
sg15
I01
sg16
g81
sbsg18
(imyEvolve
Tree
p380
(dp381
g13
I1
sg7
(imyEvolve
Tree
p382
(dp383
g13
I0
sg14
I00
sbsg18
(imyEvolve
Tree
p384
(dp385
g13
I0
sg23
F-0.2872141044341099
sg14
I01
sbsg15
I00
sg16
g26
sbsg15
I00
sg16
g27
sbsg13
I3
sg15
I01
sg16
g81
sba(imyEvolve
Tree
p386
(dp387
g7
(imyEvolve
Tree
p388
(dp389
g10
(imyEvolve
Tree
p390
(dp391
g7
(imyEvolve
Tree
p392
(dp393
g7
(imyEvolve
Tree
p394
(dp395
g13
I0
sg23
F-2.333072058415188
sg14
I01
sbsg13
I1
sg18
(imyEvolve
Tree
p396
(dp397
g13
I0
sg14
I00
sbsg15
I00
sg16
g26
sbsg13
I2
sg18
(imyEvolve
Tree
p398
(dp399
g10
(imyEvolve
Tree
p400
(dp401
g13
I0
sg14
I00
sbsg13
I1
sg15
I01
sg16
g81
sbsg15
I00
sg16
g58
sbsg13
I3
sg15
I01
sg16
g81
sbsg13
I4
sg18
(imyEvolve
Tree
p402
(dp403
g7
(imyEvolve
Tree
p404
(dp405
g10
(imyEvolve
Tree
p406
(dp407
g10
(imyEvolve
Tree
p408
(dp409
g13
I0
sg14
I00
sbsg13
I1
sg15
I01
sg16
g81
sbsg13
I2
sg15
I01
sg16
g17
sbsg13
I3
sg18
(imyEvolve
Tree
p410
(dp411
g7
(imyEvolve
Tree
p412
(dp413
g10
(imyEvolve
Tree
p414
(dp415
g13
I0
sg23
F-1.1860108469205057
sg14
I01
sbsg13
I1
sg15
I01
sg16
g47
sbsg13
I2
sg18
(imyEvolve
Tree
p416
(dp417
g7
(imyEvolve
Tree
p418
(dp419
g13
I0
sg14
I00
sbsg13
I1
sg18
(imyEvolve
Tree
p420
(dp421
g13
I0
sg14
I00
sbsg15
I00
sg16
g26
sbsg15
I00
sg16
g26
sbsg15
I00
sg16
g26
sbsg15
I00
sg16
g58
sba(imyEvolve
Tree
p422
(dp423
g7
(imyEvolve
Tree
p424
(dp425
g7
(imyEvolve
Tree
p426
(dp427
g7
(imyEvolve
Tree
p428
(dp429
g7
(imyEvolve
Tree
p430
(dp431
g13
I0
sg23
F-1.3856725040700613
sg14
I01
sbsg13
I1
sg18
(imyEvolve
Tree
p432
(dp433
g13
I0
sg23
F-2.6666571928058036
sg14
I01
sbsg15
I00
sg16
g58
sbsg13
I2
sg18
(imyEvolve
Tree
p434
(dp435
g7
(imyEvolve
Tree
p436
(dp437
g13
I0
sg23
F4.74265453836958
sg14
I01
sbsg13
I1
sg18
(imyEvolve
Tree
p438
(dp439
g13
I0
sg14
I00
sbsg15
I00
sg16
g27
sbsg15
I00
sg16
g58
sbsg13
I3
sg18
(imyEvolve
Tree
p440
(dp441
g7
(imyEvolve
Tree
p442
(dp443
g7
(imyEvolve
Tree
p444
(dp445
g13
I0
sg23
F-4.571888899603472
sg14
I01
sbsg13
I1
sg18
(imyEvolve
Tree
p446
(dp447
g13
I0
sg14
I00
sbsg15
I00
sg16
g26
sbsg13
I2
sg18
(imyEvolve
Tree
p448
(dp449
g7
(imyEvolve
Tree
p450
(dp451
g13
I0
sg14
I00
sbsg13
I1
sg18
(imyEvolve
Tree
p452
(dp453
g13
I0
sg23
F-4.238122781513663
sg14
I01
sbsg15
I00
sg16
g58
sbsg15
I00
sg16
g27
sbsg15
I00
sg16
g58
sbsg13
I4
sg18
(imyEvolve
Tree
p454
(dp455
g10
(imyEvolve
Tree
p456
(dp457
g7
(imyEvolve
Tree
p458
(dp459
g10
(imyEvolve
Tree
p460
(dp461
g13
I0
sg23
F-4.899822936894786
sg14
I01
sbsg13
I1
sg15
I01
sg16
g81
sbsg13
I2
sg18
(imyEvolve
Tree
p462
(dp463
g10
(imyEvolve
Tree
p464
(dp465
g13
I0
sg23
F0.8133443715456803
sg14
I01
sbsg13
I1
sg15
I01
sg16
g81
sbsg15
I00
sg16
g26
sbsg13
I3
sg15
I01
sg16
g81
sbsg15
I00
sg16
g27
sbaa(lp466
(imyEvolve
Tree
p467
(dp468
g10
(imyEvolve
Tree
p469
(dp470
g7
(imyEvolve
Tree
p471
(dp472
g7
(imyEvolve
Tree
p473
(dp474
g10
(imyEvolve
Tree
p475
(dp476
g13
I0
sg23
F-0.5177396789217017
sg14
I01
sbsg13
I1
sg15
I01
sg16
g46
sbsg13
I2
sg18
(imyEvolve
Tree
p477
(dp478
g10
(imyEvolve
Tree
p479
(dp480
g13
I0
sg23
F-2.9952610245265
sg14
I01
sbsg13
I1
sg15
I01
sg16
g46
sbsg15
I00
sg16
g26
sbsg13
I3
sg18
(imyEvolve
Tree
p481
(dp482
g7
(imyEvolve
Tree
p483
(dp484
g10
(imyEvolve
Tree
p485
(dp486
g13
I0
sg23
F4.85832124502879
sg14
I01
sbsg13
I1
sg15
I01
sg16
g47
sbsg13
I2
sg18
(imyEvolve
Tree
p487
(dp488
g10
(imyEvolve
Tree
p489
(dp490
g13
I0
sg14
I00
sbsg13
I1
sg15
I01
sg16
g17
sbsg15
I00
sg16
g58
sbsg15
I00
sg16
g58
sbsg13
I4
sg15
I01
sg16
g46
sba(imyEvolve
Tree
p491
(dp492
g7
(imyEvolve
Tree
p493
(dp494
g10
(imyEvolve
Tree
p495
(dp496
g13
I0
sg23
F-4.102018097452792
sg14
I01
sbsg13
I1
sg15
I01
sg16
g47
sbsg13
I2
sg18
(imyEvolve
Tree
p497
(dp498
g10
(imyEvolve
Tree
p499
(dp500
g13
I0
sg23
F-1.103799335200696
sg14
I01
sbsg13
I1
sg15
I01
sg16
g17
sbsg15
I00
sg16
g58
sba(imyEvolve
Tree
p501
(dp502
g13
I3
sg7
(imyEvolve
Tree
p503
(dp504
g13
I2
sg7
(imyEvolve
Tree
p505
(dp506
g10
(imyEvolve
Tree
p507
(dp508
g13
I0
sg14
I00
sbsg13
I1
sg15
I01
sg16
g47
sbsg18
(imyEvolve
Tree
p509
(dp510
g10
(imyEvolve
Tree
p511
(dp512
g13
I0
sg23
F2.133452166093708
sg14
I01
sbsg13
I1
sg15
I01
sg16
g47
sbsg15
I00
sg16
g26
sbsg18
(imyEvolve
Tree
p513
(dp514
g10
(imyEvolve
Tree
p515
(dp516
g13
I1
sg7
(imyEvolve
Tree
p517
(dp518
g13
I0
sg14
I00
sbsg18
(imyEvolve
Tree
p519
(dp520
g13
I0
sg23
F4.828461360908335
sg14
I01
sbsg15
I00
sg16
g27
sbsg13
I2
sg15
I01
sg16
g17
sbsg15
I00
sg16
g26
sba(imyEvolve
Tree
p521
(dp522
g7
(imyEvolve
Tree
p523
(dp524
g10
(imyEvolve
Tree
p525
(dp526
g7
(imyEvolve
Tree
p527
(dp528
g10
(imyEvolve
Tree
p529
(dp530
g13
I0
sg14
I00
sbsg13
I1
sg15
I01
sg16
g46
sbsg13
I2
sg18
(imyEvolve
Tree
p531
(dp532
g7
(imyEvolve
Tree
p533
(dp534
g13
I0
sg23
F-1.3856565181639366
sg14
I01
sbsg13
I1
sg18
(imyEvolve
Tree
p535
(dp536
g13
I0
sg14
I00
sbsg15
I00
sg16
g26
sbsg15
I00
sg16
g58
sbsg13
I3
sg15
I01
sg16
g47
sbsg13
I4
sg18
(imyEvolve
Tree
p537
(dp538
g7
(imyEvolve
Tree
p539
(dp540
g10
(imyEvolve
Tree
p541
(dp542
g10
(imyEvolve
Tree
p543
(dp544
g13
I0
sg23
F-4.664571699332604
sg14
I01
sbsg13
I1
sg15
I01
sg16
g17
sbsg13
I2
sg15
I01
sg16
g81
sbsg13
I3
sg18
(imyEvolve
Tree
p545
(dp546
g7
(imyEvolve
Tree
p547
(dp548
g7
(imyEvolve
Tree
p549
(dp550
g13
I0
sg14
I00
sbsg13
I1
sg18
(imyEvolve
Tree
p551
(dp552
g13
I0
sg23
F4.061115404924191
sg14
I01
sbsg15
I00
sg16
g58
sbsg13
I2
sg18
(imyEvolve
Tree
p553
(dp554
g7
(imyEvolve
Tree
p555
(dp556
g13
I0
sg14
I00
sbsg13
I1
sg18
(imyEvolve
Tree
p557
(dp558
g13
I0
sg23
F-0.8345457042793845
sg14
I01
sbsg15
I00
sg16
g27
sbsg15
I00
sg16
g27
sbsg15
I00
sg16
g27
sbsg15
I00
sg16
g27
sba(imyEvolve
Tree
p559
(dp560
g7
(imyEvolve
Tree
p561
(dp562
g7
(imyEvolve
Tree
p563
(dp564
g10
(imyEvolve
Tree
p565
(dp566
g7
(imyEvolve
Tree
p567
(dp568
g10
(imyEvolve
Tree
p569
(dp570
g13
I0
sg14
I00
sbsg13
I1
sg15
I01
sg16
g47
sbsg13
I2
sg18
(imyEvolve
Tree
p571
(dp572
g10
(imyEvolve
Tree
p573
(dp574
g13
I0
sg23
F-1.495007676420422
sg14
I01
sbsg13
I1
sg15
I01
sg16
g17
sbsg15
I00
sg16
g27
sbsg13
I3
sg15
I01
sg16
g81
sbsg13
I4
sg18
(imyEvolve
Tree
p575
(dp576
g7
(imyEvolve
Tree
p577
(dp578
g10
(imyEvolve
Tree
p579
(dp580
g10
(imyEvolve
Tree
p581
(dp582
g13
I0
sg23
F-1.0584899895778257
sg14
I01
sbsg13
I1
sg15
I01
sg16
g81
sbsg13
I2
sg15
I01
sg16
g47
sbsg13
I3
sg18
(imyEvolve
Tree
p583
(dp584
g10
(imyEvolve
Tree
p585
(dp586
g7
(imyEvolve
Tree
p587
(dp588
g13
I0
sg14
I00
sbsg13
I1
sg18
(imyEvolve
Tree
p589
(dp590
g13
I0
sg14
I00
sbsg15
I00
sg16
g58
sbsg13
I2
sg15
I01
sg16
g47
sbsg15
I00
sg16
g58
sbsg15
I00
sg16
g58
sbsg13
I5
sg18
(imyEvolve
Tree
p591
(dp592
g7
(imyEvolve
Tree
p593
(dp594
g10
(imyEvolve
Tree
p595
(dp596
g10
(imyEvolve
Tree
p597
(dp598
g7
(imyEvolve
Tree
p599
(dp600
g13
I0
sg23
F-4.053300571933121
sg14
I01
sbsg13
I1
sg18
(imyEvolve
Tree
p601
(dp602
g13
I0
sg14
I00
sbsg15
I00
sg16
g26
sbsg13
I2
sg15
I01
sg16
g46
sbsg13
I3
sg15
I01
sg16
g17
sbsg13
I4
sg18
(imyEvolve
Tree
p603
(dp604
g7
(imyEvolve
Tree
p605
(dp606
g7
(imyEvolve
Tree
p607
(dp608
g10
(imyEvolve
Tree
p609
(dp610
g13
I0
sg14
I00
sbsg13
I1
sg15
I01
sg16
g81
sbsg13
I2
sg18
(imyEvolve
Tree
p611
(dp612
g10
(imyEvolve
Tree
p613
(dp614
g13
I0
sg23
F-1.716418313909621
sg14
I01
sbsg13
I1
sg15
I01
sg16
g47
sbsg15
I00
sg16
g58
sbsg13
I3
sg18
(imyEvolve
Tree
p615
(dp616
g7
(imyEvolve
Tree
p617
(dp618
g7
(imyEvolve
Tree
p619
(dp620
g13
I0
sg23
F4.600271725428852
sg14
I01
sbsg13
I1
sg18
(imyEvolve
Tree
p621
(dp622
g13
I0
sg23
F1.686821794750771
sg14
I01
sbsg15
I00
sg16
g26
sbsg13
I2
sg18
(imyEvolve
Tree
p623
(dp624
g10
(imyEvolve
Tree
p625
(dp626
g13
I0
sg23
F4.459644316834634
sg14
I01
sbsg13
I1
sg15
I01
sg16
g81
sbsg15
I00
sg16
g26
sbsg15
I00
sg16
g26
sbsg15
I00
sg16
g26
sbsg15
I00
sg16
g27
sba(imyEvolve
Tree
p627
(dp628
g7
(imyEvolve
Tree
p629
(dp630
g7
(imyEvolve
Tree
p631
(dp632
g10
(imyEvolve
Tree
p633
(dp634
g13
I0
sg14
I00
sbsg13
I1
sg15
I01
sg16
g47
sbsg13
I2
sg18
(imyEvolve
Tree
p635
(dp636
g10
(imyEvolve
Tree
p637
(dp638
g13
I0
sg23
F-2.714371031844326
sg14
I01
sbsg13
I1
sg15
I01
sg16
g17
sbsg15
I00
sg16
g26
sbsg13
I3
sg18
(imyEvolve
Tree
p639
(dp640
g10
(imyEvolve
Tree
p641
(dp642
g10
(imyEvolve
Tree
p643
(dp644
g13
I0
sg23
F-0.4915607658529506
sg14
I01
sbsg13
I1
sg15
I01
sg16
g17
sbsg13
I2
sg15
I01
sg16
g81
sbsg15
I00
sg16
g26
sba(imyEvolve
Tree
p645
(dp646
g7
(imyEvolve
Tree
p647
(dp648
g7
(imyEvolve
Tree
p649
(dp650
g10
(imyEvolve
Tree
p651
(dp652
g7
(imyEvolve
Tree
p653
(dp654
g7
(imyEvolve
Tree
p655
(dp656
g13
I0
sg23
F-4.316295892362173
sg14
I01
sbsg13
I1
sg18
(imyEvolve
Tree
p657
(dp658
g13
I0
sg23
F1.1680017252663797
sg14
I01
sbsg15
I00
sg16
g27
sbsg13
I2
sg18
(imyEvolve
Tree
p659
(dp660
g10
(imyEvolve
Tree
p661
(dp662
g13
I0
sg14
I00
sbsg13
I1
sg15
I01
sg16
g47
sbsg15
I00
sg16
g58
sbsg13
I3
sg15
I01
sg16
g47
sbsg13
I4
sg18
(imyEvolve
Tree
p663
(dp664
g10
(imyEvolve
Tree
p665
(dp666
g10
(imyEvolve
Tree
p667
(dp668
g10
(imyEvolve
Tree
p669
(dp670
g13
I0
sg23
F-4.170120426647075
sg14
I01
sbsg13
I1
sg15
I01
sg16
g17
sbsg13
I2
sg15
I01
sg16
g46
sbsg13
I3
sg15
I01
sg16
g17
sbsg15
I00
sg16
g27
sbsg13
I5
sg18
(imyEvolve
Tree
p671
(dp672
g7
(imyEvolve
Tree
p673
(dp674
g7
(imyEvolve
Tree
p675
(dp676
g7
(imyEvolve
Tree
p677
(dp678
g7
(imyEvolve
Tree
p679
(dp680
g13
I0
sg23
F0.7549396622476987
sg14
I01
sbsg13
I1
sg18
(imyEvolve
Tree
p681
(dp682
g13
I0
sg14
I00
sbsg15
I00
sg16
g58
sbsg13
I2
sg18
(imyEvolve
Tree
p683
(dp684
g7
(imyEvolve
Tree
p685
(dp686
g13
I0
sg14
I00
sbsg13
I1
sg18
(imyEvolve
Tree
p687
(dp688
g13
I0
sg23
F-3.6292086562857993
sg14
I01
sbsg15
I00
sg16
g26
sbsg15
I00
sg16
g27
sbsg13
I3
sg18
(imyEvolve
Tree
p689
(dp690
g7
(imyEvolve
Tree
p691
(dp692
g7
(imyEvolve
Tree
p693
(dp694
g13
I0
sg14
I00
sbsg13
I1
sg18
(imyEvolve
Tree
p695
(dp696
g13
I0
sg23
F1.1552142192433
sg14
I01
sbsg15
I00
sg16
g58
sbsg13
I2
sg18
(imyEvolve
Tree
p697
(dp698
g10
(imyEvolve
Tree
p699
(dp700
g13
I0
sg23
F3.7330980110057848
sg14
I01
sbsg13
I1
sg15
I01
sg16
g47
sbsg15
I00
sg16
g58
sbsg15
I00
sg16
g26
sbsg13
I4
sg18
(imyEvolve
Tree
p701
(dp702
g7
(imyEvolve
Tree
p703
(dp704
g10
(imyEvolve
Tree
p705
(dp706
g7
(imyEvolve
Tree
p707
(dp708
g13
I0
sg14
I00
sbsg13
I1
sg18
(imyEvolve
Tree
p709
(dp710
g13
I0
sg23
F2.7514455130405118
sg14
I01
sbsg15
I00
sg16
g27
sbsg13
I2
sg15
I01
sg16
g17
sbsg13
I3
sg18
(imyEvolve
Tree
p711
(dp712
g7
(imyEvolve
Tree
p713
(dp714
g7
(imyEvolve
Tree
p715
(dp716
g13
I0
sg23
F2.775957724469177
sg14
I01
sbsg13
I1
sg18
(imyEvolve
Tree
p717
(dp718
g13
I0
sg23
F-2.975232514732633
sg14
I01
sbsg15
I00
sg16
g27
sbsg13
I2
sg18
(imyEvolve
Tree
p719
(dp720
g7
(imyEvolve
Tree
p721
(dp722
g13
I0
sg14
I00
sbsg13
I1
sg18
(imyEvolve
Tree
p723
(dp724
g13
I0
sg14
I00
sbsg15
I00
sg16
g27
sbsg15
I00
sg16
g26
sbsg15
I00
sg16
g26
sbsg15
I00
sg16
g58
sbsg15
I00
sg16
g26
sba(imyEvolve
Tree
p725
(dp726
g7
(imyEvolve
Tree
p727
(dp728
g10
(imyEvolve
Tree
p729
(dp730
g7
(imyEvolve
Tree
p731
(dp732
g7
(imyEvolve
Tree
p733
(dp734
g10
(imyEvolve
Tree
p735
(dp736
g13
I0
sg23
F0.07053482830773916
sg14
I01
sbsg13
I1
sg15
I01
sg16
g47
sbsg13
I2
sg18
(imyEvolve
Tree
p737
(dp738
g7
(imyEvolve
Tree
p739
(dp740
g13
I0
sg14
I00
sbsg13
I1
sg18
(imyEvolve
Tree
p741
(dp742
g13
I0
sg14
I00
sbsg15
I00
sg16
g27
sbsg15
I00
sg16
g27
sbsg13
I3
sg18
(imyEvolve
Tree
p743
(dp744
g7
(imyEvolve
Tree
p745
(dp746
g7
(imyEvolve
Tree
p747
(dp748
g13
I0
sg14
I00
sbsg13
I1
sg18
(imyEvolve
Tree
p749
(dp750
g13
I0
sg14
I00
sbsg15
I00
sg16
g27
sbsg13
I2
sg18
(imyEvolve
Tree
p751
(dp752
g7
(imyEvolve
Tree
p753
(dp754
g13
I0
sg14
I00
sbsg13
I1
sg18
(imyEvolve
Tree
p755
(dp756
g13
I0
sg14
I00
sbsg15
I00
sg16
g26
sbsg15
I00
sg16
g58
sbsg15
I00
sg16
g58
sbsg13
I4
sg15
I01
sg16
g81
sbsg13
I5
sg18
(imyEvolve
Tree
p757
(dp758
g10
(imyEvolve
Tree
p759
(dp760
g7
(imyEvolve
Tree
p761
(dp762
g7
(imyEvolve
Tree
p763
(dp764
g7
(imyEvolve
Tree
p765
(dp766
g13
I0
sg14
I00
sbsg13
I1
sg18
(imyEvolve
Tree
p767
(dp768
g13
I0
sg14
I00
sbsg15
I00
sg16
g26
sbsg13
I2
sg18
(imyEvolve
Tree
p769
(dp770
g7
(imyEvolve
Tree
p771
(dp772
g13
I0
sg23
F3.051346654255127
sg14
I01
sbsg13
I1
sg18
(imyEvolve
Tree
p773
(dp774
g13
I0
sg14
I00
sbsg15
I00
sg16
g27
sbsg15
I00
sg16
g26
sbsg13
I3
sg18
(imyEvolve
Tree
p775
(dp776
g7
(imyEvolve
Tree
p777
(dp778
g7
(imyEvolve
Tree
p779
(dp780
g13
I0
sg14
I00
sbsg13
I1
sg18
(imyEvolve
Tree
p781
(dp782
g13
I0
sg14
I00
sbsg15
I00
sg16
g58
sbsg13
I2
sg18
(imyEvolve
Tree
p783
(dp784
g10
(imyEvolve
Tree
p785
(dp786
g13
I0
sg14
I00
sbsg13
I1
sg15
I01
sg16
g46
sbsg15
I00
sg16
g27
sbsg15
I00
sg16
g27
sbsg13
I4
sg15
I01
sg16
g47
sbsg15
I00
sg16
g27
sba(imyEvolve
Tree
p787
(dp788
g7
(imyEvolve
Tree
p789
(dp790
g7
(imyEvolve
Tree
p791
(dp792
g13
I0
sg23
F-4.477638229545947
sg14
I01
sbsg13
I1
sg18
(imyEvolve
Tree
p793
(dp794
g13
I0
sg14
I00
sbsg15
I00
sg16
g26
sbsg13
I2
sg18
(imyEvolve
Tree
p795
(dp796
g10
(imyEvolve
Tree
p797
(dp798
g13
I0
sg23
F3.587499140363162
sg14
I01
sbsg13
I1
sg15
I01
sg16
g46
sbsg15
I00
sg16
g58
sba(imyEvolve
Tree
p799
(dp800
g10
(imyEvolve
Tree
p801
(dp802
g10
(imyEvolve
Tree
p803
(dp804
g10
(imyEvolve
Tree
p805
(dp806
g7
(imyEvolve
Tree
p807
(dp808
g13
I0
sg23
F4.004720502461838
sg14
I01
sbsg13
I1
sg18
(imyEvolve
Tree
p809
(dp810
g13
I0
sg14
I00
sbsg15
I00
sg16
g26
sbsg13
I2
sg15
I01
sg16
g47
sbsg13
I3
sg15
I01
sg16
g46
sbsg13
I4
sg15
I01
sg16
g17
sba(imyEvolve
Tree
p811
(dp812
g10
(imyEvolve
Tree
p813
(dp814
g7
(imyEvolve
Tree
p815
(dp816
g13
I0
sg23
F-3.479478107695284
sg14
I01
sbsg13
I1
sg18
(imyEvolve
Tree
p817
(dp818
g13
I0
sg23
F-1.6758953675370467
sg14
I01
sbsg15
I00
sg16
g58
sbsg13
I2
sg15
I01
sg16
g81
sba(imyEvolve
Tree
p819
(dp820
g7
(imyEvolve
Tree
p821
(dp822
g10
(imyEvolve
Tree
p823
(dp824
g10
(imyEvolve
Tree
p825
(dp826
g10
(imyEvolve
Tree
p827
(dp828
g13
I0
sg14
I00
sbsg13
I1
sg15
I01
sg16
g46
sbsg13
I2
sg15
I01
sg16
g17
sbsg13
I3
sg15
I01
sg16
g81
sbsg13
I4
sg18
(imyEvolve
Tree
p829
(dp830
g10
(imyEvolve
Tree
p831
(dp832
g7
(imyEvolve
Tree
p833
(dp834
g7
(imyEvolve
Tree
p835
(dp836
g13
I0
sg23
F0.8533206227983179
sg14
I01
sbsg13
I1
sg18
(imyEvolve
Tree
p837
(dp838
g13
I0
sg14
I00
sbsg15
I00
sg16
g58
sbsg13
I2
sg18
(imyEvolve
Tree
p839
(dp840
g10
(imyEvolve
Tree
p841
(dp842
g13
I0
sg14
I00
sbsg13
I1
sg15
I01
sg16
g17
sbsg15
I00
sg16
g58
sbsg13
I3
sg15
I01
sg16
g47
sbsg15
I00
sg16
g27
sba(imyEvolve
Tree
p843
(dp844
g10
(imyEvolve
Tree
p845
(dp846
g7
(imyEvolve
Tree
p847
(dp848
g13
I0
sg23
F0.5924679435789333
sg14
I01
sbsg13
I1
sg18
(imyEvolve
Tree
p849
(dp850
g13
I0
sg14
I00
sbsg15
I00
sg16
g26
sbsg13
I2
sg15
I01
sg16
g81
sba(imyEvolve
Tree
p851
(dp852
g7
(imyEvolve
Tree
p853
(dp854
g10
(imyEvolve
Tree
p855
(dp856
g10
(imyEvolve
Tree
p857
(dp858
g10
(imyEvolve
Tree
p859
(dp860
g10
(imyEvolve
Tree
p861
(dp862
g13
I0
sg23
F-1.580039613297969
sg14
I01
sbsg13
I1
sg15
I01
sg16
g46
sbsg13
I2
sg15
I01
sg16
g17
sbsg13
I3
sg15
I01
sg16
g17
sbsg13
I4
sg15
I01
sg16
g17
sbsg13
I5
sg18
(imyEvolve
Tree
p863
(dp864
g7
(imyEvolve
Tree
p865
(dp866
g10
(imyEvolve
Tree
p867
(dp868
g10
(imyEvolve
Tree
p869
(dp870
g7
(imyEvolve
Tree
p871
(dp872
g13
I0
sg14
I00
sbsg13
I1
sg18
(imyEvolve
Tree
p873
(dp874
g13
I0
sg14
I00
sbsg15
I00
sg16
g27
sbsg13
I2
sg15
I01
sg16
g17
sbsg13
I3
sg15
I01
sg16
g17
sbsg13
I4
sg18
(imyEvolve
Tree
p875
(dp876
g10
(imyEvolve
Tree
p877
(dp878
g10
(imyEvolve
Tree
p879
(dp880
g10
(imyEvolve
Tree
p881
(dp882
g13
I0
sg23
F-1.3052000480599588
sg14
I01
sbsg13
I1
sg15
I01
sg16
g17
sbsg13
I2
sg15
I01
sg16
g46
sbsg13
I3
sg15
I01
sg16
g17
sbsg15
I00
sg16
g58
sbsg15
I00
sg16
g27
sba(imyEvolve
Tree
p883
(dp884
g7
(imyEvolve
Tree
p885
(dp886
g7
(imyEvolve
Tree
p887
(dp888
g7
(imyEvolve
Tree
p889
(dp890
g10
(imyEvolve
Tree
p891
(dp892
g13
I0
sg23
F3.110522686969542
sg14
I01
sbsg13
I1
sg15
I01
sg16
g46
sbsg13
I2
sg18
(imyEvolve
Tree
p893
(dp894
g7
(imyEvolve
Tree
p895
(dp896
g13
I0
sg23
F3.5497262842872743
sg14
I01
sbsg13
I1
sg18
(imyEvolve
Tree
p897
(dp898
g13
I0
sg23
F4.287766952472632
sg14
I01
sbsg15
I00
sg16
g58
sbsg15
I00
sg16
g58
sbsg13
I3
sg18
(imyEvolve
Tree
p899
(dp900
g10
(imyEvolve
Tree
p901
(dp902
g7
(imyEvolve
Tree
p903
(dp904
g13
I0
sg23
F2.819410729463386
sg14
I01
sbsg13
I1
sg18
(imyEvolve
Tree
p905
(dp906
g13
I0
sg23
F-1.1342960213841713
sg14
I01
sbsg15
I00
sg16
g26
sbsg13
I2
sg15
I01
sg16
g17
sbsg15
I00
sg16
g27
sbsg13
I4
sg18
(imyEvolve
Tree
p907
(dp908
g10
(imyEvolve
Tree
p909
(dp910
g10
(imyEvolve
Tree
p911
(dp912
g10
(imyEvolve
Tree
p913
(dp914
g13
I0
sg14
I00
sbsg13
I1
sg15
I01
sg16
g46
sbsg13
I2
sg15
I01
sg16
g17
sbsg13
I3
sg15
I01
sg16
g47
sbsg15
I00
sg16
g58
sba(imyEvolve
Tree
p915
(dp916
g7
(imyEvolve
Tree
p917
(dp918
g7
(imyEvolve
Tree
p919
(dp920
g7
(imyEvolve
Tree
p921
(dp922
g10
(imyEvolve
Tree
p923
(dp924
g13
I0
sg14
I00
sbsg13
I1
sg15
I01
sg16
g47
sbsg13
I2
sg18
(imyEvolve
Tree
p925
(dp926
g7
(imyEvolve
Tree
p927
(dp928
g13
I0
sg14
I00
sbsg13
I1
sg18
(imyEvolve
Tree
p929
(dp930
g13
I0
sg23
F-4.920340509286749
sg14
I01
sbsg15
I00
sg16
g26
sbsg15
I00
sg16
g58
sbsg13
I3
sg18
(imyEvolve
Tree
p931
(dp932
g10
(imyEvolve
Tree
p933
(dp934
g7
(imyEvolve
Tree
p935
(dp936
g13
I0
sg14
I00
sbsg13
I1
sg18
(imyEvolve
Tree
p937
(dp938
g13
I0
sg23
F4.575555976558526
sg14
I01
sbsg15
I00
sg16
g27
sbsg13
I2
sg15
I01
sg16
g46
sbsg15
I00
sg16
g27
sbsg13
I4
sg18
(imyEvolve
Tree
p939
(dp940
g7
(imyEvolve
Tree
p941
(dp942
g10
(imyEvolve
Tree
p943
(dp944
g10
(imyEvolve
Tree
p945
(dp946
g13
I0
sg23
F0.1331008107027012
sg14
I01
sbsg13
I1
sg15
I01
sg16
g17
sbsg13
I2
sg15
I01
sg16
g47
sbsg13
I3
sg18
(imyEvolve
Tree
p947
(dp948
g7
(imyEvolve
Tree
p949
(dp950
g10
(imyEvolve
Tree
p951
(dp952
g13
I0
sg23
F-2.7967584422862766
sg14
I01
sbsg13
I1
sg15
I01
sg16
g46
sbsg13
I2
sg18
(imyEvolve
Tree
p953
(dp954
g10
(imyEvolve
Tree
p955
(dp956
g13
I0
sg23
F3.7810310734289594
sg14
I01
sbsg13
I1
sg15
I01
sg16
g17
sbsg15
I00
sg16
g58
sbsg15
I00
sg16
g58
sbsg15
I00
sg16
g26
sba(imyEvolve
Tree
p957
(dp958
g7
(imyEvolve
Tree
p959
(dp960
g7
(imyEvolve
Tree
p961
(dp962
g10
(imyEvolve
Tree
p963
(dp964
g10
(imyEvolve
Tree
p965
(dp966
g13
I0
sg14
I00
sbsg13
I1
sg15
I01
sg16
g81
sbsg13
I2
sg15
I01
sg16
g46
sbsg13
I3
sg18
(imyEvolve
Tree
p967
(dp968
g7
(imyEvolve
Tree
p969
(dp970
g10
(imyEvolve
Tree
p971
(dp972
g13
I0
sg14
I00
sbsg13
I1
sg15
I01
sg16
g47
sbsg13
I2
sg18
(imyEvolve
Tree
p973
(dp974
g7
(imyEvolve
Tree
p975
(dp976
g13
I0
sg14
I00
sbsg13
I1
sg18
(imyEvolve
Tree
p977
(dp978
g13
I0
sg23
F4.863990904785201
sg14
I01
sbsg15
I00
sg16
g26
sbsg15
I00
sg16
g26
sbsg15
I00
sg16
g26
sbsg13
I4
sg18
(imyEvolve
Tree
p979
(dp980
g10
(imyEvolve
Tree
p981
(dp982
g10
(imyEvolve
Tree
p983
(dp984
g7
(imyEvolve
Tree
p985
(dp986
g13
I0
sg23
F3.6586648237888557
sg14
I01
sbsg13
I1
sg18
(imyEvolve
Tree
p987
(dp988
g13
I0
sg14
I00
sbsg15
I00
sg16
g26
sbsg13
I2
sg15
I01
sg16
g17
sbsg13
I3
sg15
I01
sg16
g46
sbsg15
I00
sg16
g58
sbaa(lp989
(imyEvolve
Tree
p990
(dp991
g10
(imyEvolve
Tree
p992
(dp993
g7
(imyEvolve
Tree
p994
(dp995
g7
(imyEvolve
Tree
p996
(dp997
g7
(imyEvolve
Tree
p998
(dp999
g7
(imyEvolve
Tree
p1000
(dp1001
g13
I0
sg14
I00
sbsg13
I1
sg18
(imyEvolve
Tree
p1002
(dp1003
g13
I0
sg23
F-1.3956777795380306
sg14
I01
sbsg15
I00
sg16
g58
sbsg13
I2
sg18
(imyEvolve
Tree
p1004
(dp1005
g10
(imyEvolve
Tree
p1006
(dp1007
g13
I0
sg14
I00
sbsg13
I1
sg15
I01
sg16
g81
sbsg15
I00
sg16
g58
sbsg13
I3
sg18
(imyEvolve
Tree
p1008
(dp1009
g10
(imyEvolve
Tree
p1010
(dp1011
g10
(imyEvolve
Tree
p1012
(dp1013
g13
I0
sg14
I00
sbsg13
I1
sg15
I01
sg16
g46
sbsg13
I2
sg15
I01
sg16
g47
sbsg15
I00
sg16
g27
sbsg13
I4
sg18
(imyEvolve
Tree
p1014
(dp1015
g10
(imyEvolve
Tree
p1016
(dp1017
g10
(imyEvolve
Tree
p1018
(dp1019
g7
(imyEvolve
Tree
p1020
(dp1021
g13
I0
sg14
I00
sbsg13
I1
sg18
(imyEvolve
Tree
p1022
(dp1023
g13
I0
sg14
I00
sbsg15
I00
sg16
g26
sbsg13
I2
sg15
I01
sg16
g17
sbsg13
I3
sg15
I01
sg16
g17
sbsg15
I00
sg16
g26
sbsg13
I5
sg15
I01
sg16
g17
sba(imyEvolve
Tree
p1024
(dp1025
g7
(imyEvolve
Tree
p1026
(dp1027
g7
(imyEvolve
Tree
p1028
(dp1029
g10
(imyEvolve
Tree
p1030
(dp1031
g7
(imyEvolve
Tree
p1032
(dp1033
g10
(imyEvolve
Tree
p1034
(dp1035
g13
I0
sg14
I00
sbsg13
I1
sg15
I01
sg16
g17
sbsg13
I2
sg18
(imyEvolve
Tree
p1036
(dp1037
g7
(imyEvolve
Tree
p1038
(dp1039
g13
I0
sg14
I00
sbsg13
I1
sg18
(imyEvolve
Tree
p1040
(dp1041
g13
I0
sg14
I00
sbsg15
I00
sg16
g27
sbsg15
I00
sg16
g27
sbsg13
I3
sg15
I01
sg16
g81
sbsg13
I4
sg18
(imyEvolve
Tree
p1042
(dp1043
g10
(imyEvolve
Tree
p1044
(dp1045
g7
(imyEvolve
Tree
p1046
(dp1047
g7
(imyEvolve
Tree
p1048
(dp1049
g13
I0
sg23
F0.032535151273632934
sg14
I01
sbsg13
I1
sg18
(imyEvolve
Tree
p1050
(dp1051
g13
I0
sg23
F-4.010705466895673
sg14
I01
sbsg15
I00
sg16
g26
sbsg13
I2
sg18
(imyEvolve
Tree
p1052
(dp1053
g7
(imyEvolve
Tree
p1054
(dp1055
g13
I0
sg14
I00
sbsg13
I1
sg18
(imyEvolve
Tree
p1056
(dp1057
g13
I0
sg23
F3.0567870152411345
sg14
I01
sbsg15
I00
sg16
g26
sbsg15
I00
sg16
g27
sbsg13
I3
sg15
I01
sg16
g46
sbsg15
I00
sg16
g58
sbsg13
I5
sg18
(imyEvolve
Tree
p1058
(dp1059
g10
(imyEvolve
Tree
p1060
(dp1061
g10
(imyEvolve
Tree
p1062
(dp1063
g7
(imyEvolve
Tree
p1064
(dp1065
g7
(imyEvolve
Tree
p1066
(dp1067
g13
I0
sg23
F1.3566357771950122
sg14
I01
sbsg13
I1
sg18
(imyEvolve
Tree
p1068
(dp1069
g13
I0
sg23
F-1.7038694910070817
sg14
I01
sbsg15
I00
sg16
g58
sbsg13
I2
sg18
(imyEvolve
Tree
p1070
(dp1071
g7
(imyEvolve
Tree
p1072
(dp1073
g13
I0
sg23
F-4.805202609685566
sg14
I01
sbsg13
I1
sg18
(imyEvolve
Tree
p1074
(dp1075
g13
I0
sg14
I00
sbsg15
I00
sg16
g26
sbsg15
I00
sg16
g27
sbsg13
I3
sg15
I01
sg16
g47
sbsg13
I4
sg15
I01
sg16
g46
sbsg15
I00
sg16
g26
sba(imyEvolve
Tree
p1076
(dp1077
g13
I4
sg7
(imyEvolve
Tree
p1078
(dp1079
g10
(imyEvolve
Tree
p1080
(dp1081
g13
I2
sg7
(imyEvolve
Tree
p1082
(dp1083
g13
I1
sg7
(imyEvolve
Tree
p1084
(dp1085
g13
I0
sg14
I00
sbsg18
(imyEvolve
Tree
p1086
(dp1087
g13
I0
sg23
F-1.1746374976566196
sg14
I01
sbsg15
I00
sg16
g58
sbsg18
(imyEvolve
Tree
p1088
(dp1089
g10
(imyEvolve
Tree
p1090
(dp1091
g13
I0
sg23
F2.260985233586519
sg14
I01
sbsg13
I1
sg15
I01
sg16
g81
sbsg15
I00
sg16
g58
sbsg13
I3
sg15
I01
sg16
g46
sbsg18
(imyEvolve
Tree
p1092
(dp1093
g13
I3
sg7
(imyEvolve
Tree
p1094
(dp1095
g13
I2
sg7
(imyEvolve
Tree
p1096
(dp1097
g10
(imyEvolve
Tree
p1098
(dp1099
g13
I0
sg14
I00
sbsg13
I1
sg15
I01
sg16
g47
sbsg18
(imyEvolve
Tree
p1100
(dp1101
g13
I1
sg7
(imyEvolve
Tree
p1102
(dp1103
g13
I0
sg14
I00
sbsg18
(imyEvolve
Tree
p1104
(dp1105
g13
I0
sg23
F2.9119091339899486
sg14
I01
sbsg15
I00
sg16
g58
sbsg15
I00
sg16
g26
sbsg18
(imyEvolve
Tree
p1106
(dp1107
g10
(imyEvolve
Tree
p1108
(dp1109
g13
I1
sg7
(imyEvolve
Tree
p1110
(dp1111
g13
I0
sg14
I00
sbsg18
(imyEvolve
Tree
p1112
(dp1113
g13
I0
sg23
F2.7607853280296704
sg14
I01
sbsg15
I00
sg16
g27
sbsg13
I2
sg15
I01
sg16
g81
sbsg15
I00
sg16
g26
sbsg15
I00
sg16
g58
sba(imyEvolve
Tree
p1114
(dp1115
g7
(imyEvolve
Tree
p1116
(dp1117
g10
(imyEvolve
Tree
p1118
(dp1119
g13
I0
sg14
I00
sbsg13
I1
sg15
I01
sg16
g81
sbsg13
I2
sg18
(imyEvolve
Tree
p1120
(dp1121
g7
(imyEvolve
Tree
p1122
(dp1123
g13
I0
sg23
F1.0073655632145915
sg14
I01
sbsg13
I1
sg18
(imyEvolve
Tree
p1124
(dp1125
g13
I0
sg14
I00
sbsg15
I00
sg16
g27
sbsg15
I00
sg16
g58
sba(imyEvolve
Tree
p1126
(dp1127
g13
I2
sg7
(imyEvolve
Tree
p1128
(dp1129
g13
I1
sg7
(imyEvolve
Tree
p1130
(dp1131
g13
I0
sg14
I00
sbsg18
(imyEvolve
Tree
p1132
(dp1133
g13
I0
sg14
I00
sbsg15
I00
sg16
g58
sbsg18
(imyEvolve
Tree
p1134
(dp1135
g13
I1
sg7
(imyEvolve
Tree
p1136
(dp1137
g13
I0
sg23
F-1.370754029229888
sg14
I01
sbsg18
(imyEvolve
Tree
p1138
(dp1139
g13
I0
sg23
F-4.53540662633717
sg14
I01
sbsg15
I00
sg16
g26
sbsg15
I00
sg16
g27
sba(imyEvolve
Tree
p1140
(dp1141
g13
I5
sg7
(imyEvolve
Tree
p1142
(dp1143
g13
I4
sg7
(imyEvolve
Tree
p1144
(dp1145
g10
(imyEvolve
Tree
p1146
(dp1147
g10
(imyEvolve
Tree
p1148
(dp1149
g13
I1
sg7
(imyEvolve
Tree
p1150
(dp1151
g13
I0
sg23
F-2.1492164909402534
sg14
I01
sbsg18
(imyEvolve
Tree
p1152
(dp1153
g13
I0
sg14
I00
sbsg15
I00
sg16
g27
sbsg13
I2
sg15
I01
sg16
g17
sbsg13
I3
sg15
I01
sg16
g81
sbsg18
(imyEvolve
Tree
p1154
(dp1155
g13
I3
sg7
(imyEvolve
Tree
p1156
(dp1157
g10
(imyEvolve
Tree
p1158
(dp1159
g13
I1
sg7
(imyEvolve
Tree
p1160
(dp1161
g13
I0
sg14
I00
sbsg18
(imyEvolve
Tree
p1162
(dp1163
g13
I0
sg23
F4.917049304974892
sg14
I01
sbsg15
I00
sg16
g58
sbsg13
I2
sg15
I01
sg16
g81
sbsg18
(imyEvolve
Tree
p1164
(dp1165
g13
I2
sg7
(imyEvolve
Tree
p1166
(dp1167
g13
I1
sg7
(imyEvolve
Tree
p1168
(dp1169
g13
I0
sg14
I00
sbsg18
(imyEvolve
Tree
p1170
(dp1171
g13
I0
sg23
F-3.074197167754157
sg14
I01
sbsg15
I00
sg16
g27
sbsg18
(imyEvolve
Tree
p1172
(dp1173
g10
(imyEvolve
Tree
p1174
(dp1175
g13
I0
sg23
F3.761285452208206
sg14
I01
sbsg13
I1
sg15
I01
sg16
g81
sbsg15
I00
sg16
g26
sbsg15
I00
sg16
g58
sbsg15
I00
sg16
g27
sbsg18
(imyEvolve
Tree
p1176
(dp1177
g13
I4
sg7
(imyEvolve
Tree
p1178
(dp1179
g10
(imyEvolve
Tree
p1180
(dp1181
g13
I2
sg7
(imyEvolve
Tree
p1182
(dp1183
g13
I1
sg7
(imyEvolve
Tree
p1184
(dp1185
g13
I0
sg23
F-1.645858610693912
sg14
I01
sbsg18
(imyEvolve
Tree
p1186
(dp1187
g13
I0
sg14
I00
sbsg15
I00
sg16
g58
sbsg18
(imyEvolve
Tree
p1188
(dp1189
g13
I1
sg7
(imyEvolve
Tree
p1190
(dp1191
g13
I0
sg14
I00
sbsg18
(imyEvolve
Tree
p1192
(dp1193
g13
I0
sg23
F0.7013141737669848
sg14
I01
sbsg15
I00
sg16
g27
sbsg15
I00
sg16
g58
sbsg13
I3
sg15
I01
sg16
g17
sbsg18
(imyEvolve
Tree
p1194
(dp1195
g10
(imyEvolve
Tree
p1196
(dp1197
g13
I2
sg7
(imyEvolve
Tree
p1198
(dp1199
g13
I1
sg7
(imyEvolve
Tree
p1200
(dp1201
g13
I0
sg14
I00
sbsg18
(imyEvolve
Tree
p1202
(dp1203
g13
I0
sg23
F-0.5467340089348705
sg14
I01
sbsg15
I00
sg16
g26
sbsg18
(imyEvolve
Tree
p1204
(dp1205
g10
(imyEvolve
Tree
p1206
(dp1207
g13
I0
sg23
F0.5689478789750133
sg14
I01
sbsg13
I1
sg15
I01
sg16
g81
sbsg15
I00
sg16
g27
sbsg13
I3
sg15
I01
sg16
g17
sbsg15
I00
sg16
g26
sbsg15
I00
sg16
g27
sba(imyEvolve
Tree
p1208
(dp1209
g10
(imyEvolve
Tree
p1210
(dp1211
g7
(imyEvolve
Tree
p1212
(dp1213
g13
I0
sg14
I00
sbsg13
I1
sg18
(imyEvolve
Tree
p1214
(dp1215
g13
I0
sg23
F2.8982093822512036
sg14
I01
sbsg15
I00
sg16
g58
sbsg13
I2
sg15
I01
sg16
g17
sba(imyEvolve
Tree
p1216
(dp1217
g13
I2
sg7
(imyEvolve
Tree
p1218
(dp1219
g13
I1
sg7
(imyEvolve
Tree
p1220
(dp1221
g13
I0
sg14
I00
sbsg18
(imyEvolve
Tree
p1222
(dp1223
g13
I0
sg14
I00
sbsg15
I00
sg16
g26
sbsg18
(imyEvolve
Tree
p1224
(dp1225
g10
(imyEvolve
Tree
p1226
(dp1227
g13
I0
sg23
F-4.98367700763005
sg14
I01
sbsg13
I1
sg15
I01
sg16
g46
sbsg15
I00
sg16
g27
sba(imyEvolve
Tree
p1228
(dp1229
g7
(imyEvolve
Tree
p1230
(dp1231
g10
(imyEvolve
Tree
p1232
(dp1233
g13
I0
sg23
F2.0040809612078325
sg14
I01
sbsg13
I1
sg15
I01
sg16
g46
sbsg13
I2
sg18
(imyEvolve
Tree
p1234
(dp1235
g10
(imyEvolve
Tree
p1236
(dp1237
g13
I0
sg23
F-1.5210632673941293
sg14
I01
sbsg13
I1
sg15
I01
sg16
g81
sbsg15
I00
sg16
g26
sba(imyEvolve
Tree
p1238
(dp1239
g10
(imyEvolve
Tree
p1240
(dp1241
g7
(imyEvolve
Tree
p1242
(dp1243
g13
I0
sg14
I00
sbsg13
I1
sg18
(imyEvolve
Tree
p1244
(dp1245
g13
I0
sg23
F-0.5790312302945075
sg14
I01
sbsg15
I00
sg16
g58
sbsg13
I2
sg15
I01
sg16
g47
sba(imyEvolve
Tree
p1246
(dp1247
g7
(imyEvolve
Tree
p1248
(dp1249
g10
(imyEvolve
Tree
p1250
(dp1251
g13
I0
sg14
I00
sbsg13
I1
sg15
I01
sg16
g47
sbsg13
I2
sg18
(imyEvolve
Tree
p1252
(dp1253
g7
(imyEvolve
Tree
p1254
(dp1255
g13
I0
sg23
F3.1974177695709685
sg14
I01
sbsg13
I1
sg18
(imyEvolve
Tree
p1256
(dp1257
g13
I0
sg23
F-3.6392771285584944
sg14
I01
sbsg15
I00
sg16
g27
sbsg15
I00
sg16
g27
sba(imyEvolve
Tree
p1258
(dp1259
g7
(imyEvolve
Tree
p1260
(dp1261
g10
(imyEvolve
Tree
p1262
(dp1263
g7
(imyEvolve
Tree
p1264
(dp1265
g10
(imyEvolve
Tree
p1266
(dp1267
g13
I0
sg14
I00
sbsg13
I1
sg15
I01
sg16
g47
sbsg13
I2
sg18
(imyEvolve
Tree
p1268
(dp1269
g10
(imyEvolve
Tree
p1270
(dp1271
g13
I0
sg14
I00
sbsg13
I1
sg15
I01
sg16
g17
sbsg15
I00
sg16
g26
sbsg13
I3
sg15
I01
sg16
g17
sbsg13
I4
sg18
(imyEvolve
Tree
p1272
(dp1273
g7
(imyEvolve
Tree
p1274
(dp1275
g7
(imyEvolve
Tree
p1276
(dp1277
g7
(imyEvolve
Tree
p1278
(dp1279
g13
I0
sg14
I00
sbsg13
I1
sg18
(imyEvolve
Tree
p1280
(dp1281
g13
I0
sg14
I00
sbsg15
I00
sg16
g26
sbsg13
I2
sg18
(imyEvolve
Tree
p1282
(dp1283
g7
(imyEvolve
Tree
p1284
(dp1285
g13
I0
sg14
I00
sbsg13
I1
sg18
(imyEvolve
Tree
p1286
(dp1287
g13
I0
sg23
F-4.292855173402083
sg14
I01
sbsg15
I00
sg16
g26
sbsg15
I00
sg16
g27
sbsg13
I3
sg18
(imyEvolve
Tree
p1288
(dp1289
g7
(imyEvolve
Tree
p1290
(dp1291
g7
(imyEvolve
Tree
p1292
(dp1293
g13
I0
sg23
F0.9988886356081705
sg14
I01
sbsg13
I1
sg18
(imyEvolve
Tree
p1294
(dp1295
g13
I0
sg14
I00
sbsg15
I00
sg16
g26
sbsg13
I2
sg18
(imyEvolve
Tree
p1296
(dp1297
g7
(imyEvolve
Tree
p1298
(dp1299
g13
I0
sg23
F4.1500390802141
sg14
I01
sbsg13
I1
sg18
(imyEvolve
Tree
p1300
(dp1301
g13
I0
sg14
I00
sbsg15
I00
sg16
g26
sbsg15
I00
sg16
g58
sbsg15
I00
sg16
g27
sbsg15
I00
sg16
g26
sbaa(lp1302
(imyEvolve
Tree
p1303
(dp1304
g13
I4
sg7
(imyEvolve
Tree
p1305
(dp1306
g10
(imyEvolve
Tree
p1307
(dp1308
g13
I2
sg7
(imyEvolve
Tree
p1309
(dp1310
g13
I1
sg7
(imyEvolve
Tree
p1311
(dp1312
g13
I0
sg14
I00
sbsg18
(imyEvolve
Tree
p1313
(dp1314
g13
I0
sg14
I00
sbsg15
I00
sg16
g27
sbsg18
(imyEvolve
Tree
p1315
(dp1316
g10
(imyEvolve
Tree
p1317
(dp1318
g13
I0
sg23
F2.0046936262866266
sg14
I01
sbsg13
I1
sg15
I01
sg16
g17
sbsg15
I00
sg16
g58
sbsg13
I3
sg15
I01
sg16
g47
sbsg18
(imyEvolve
Tree
p1319
(dp1320
g13
I3
sg7
(imyEvolve
Tree
p1321
(dp1322
g13
I2
sg7
(imyEvolve
Tree
p1323
(dp1324
g13
I1
sg7
(imyEvolve
Tree
p1325
(dp1326
g13
I0
sg23
F-3.972426250732397
sg14
I01
sbsg18
(imyEvolve
Tree
p1327
(dp1328
g13
I0
sg23
F1.8612976905480894
sg14
I01
sbsg15
I00
sg16
g27
sbsg18
(imyEvolve
Tree
p1329
(dp1330
g10
(imyEvolve
Tree
p1331
(dp1332
g13
I0
sg14
I00
sbsg13
I1
sg15
I01
sg16
g46
sbsg15
I00
sg16
g58
sbsg18
(imyEvolve
Tree
p1333
(dp1334
g13
I2
sg7
(imyEvolve
Tree
p1335
(dp1336
g13
I1
sg7
(imyEvolve
Tree
p1337
(dp1338
g13
I0
sg23
F-0.9907548652936438
sg14
I01
sbsg18
(imyEvolve
Tree
p1339
(dp1340
g13
I0
sg14
I00
sbsg15
I00
sg16
g27
sbsg18
(imyEvolve
Tree
p1341
(dp1342
g13
I1
sg7
(imyEvolve
Tree
p1343
(dp1344
g13
I0
sg14
I00
sbsg18
(imyEvolve
Tree
p1345
(dp1346
g13
I0
sg14
I00
sbsg15
I00
sg16
g26
sbsg15
I00
sg16
g58
sbsg15
I00
sg16
g58
sbsg15
I00
sg16
g58
sba(imyEvolve
Tree
p1347
(dp1348
g10
(imyEvolve
Tree
p1349
(dp1350
g7
(imyEvolve
Tree
p1351
(dp1352
g13
I0
sg14
I00
sbsg13
I1
sg18
(imyEvolve
Tree
p1353
(dp1354
g13
I0
sg14
I00
sbsg15
I00
sg16
g26
sbsg13
I2
sg15
I01
sg16
g47
sba(imyEvolve
Tree
p1355
(dp1356
g10
(imyEvolve
Tree
p1357
(dp1358
g10
(imyEvolve
Tree
p1359
(dp1360
g7
(imyEvolve
Tree
p1361
(dp1362
g7
(imyEvolve
Tree
p1363
(dp1364
g7
(imyEvolve
Tree
p1365
(dp1366
g13
I0
sg14
I00
sbsg13
I1
sg18
(imyEvolve
Tree
p1367
(dp1368
g13
I0
sg23
F-0.6433655500260986
sg14
I01
sbsg15
I00
sg16
g26
sbsg13
I2
sg18
(imyEvolve
Tree
p1369
(dp1370
g7
(imyEvolve
Tree
p1371
(dp1372
g13
I0
sg14
I00
sbsg13
I1
sg18
(imyEvolve
Tree
p1373
(dp1374
g13
I0
sg14
I00
sbsg15
I00
sg16
g26
sbsg15
I00
sg16
g27
sbsg13
I3
sg18
(imyEvolve
Tree
p1375
(dp1376
g10
(imyEvolve
Tree
p1377
(dp1378
g7
(imyEvolve
Tree
p1379
(dp1380
g13
I0
sg14
I00
sbsg13
I1
sg18
(imyEvolve
Tree
p1381
(dp1382
g13
I0
sg23
F2.94861295901791
sg14
I01
sbsg15
I00
sg16
g27
sbsg13
I2
sg15
I01
sg16
g47
sbsg15
I00
sg16
g26
sbsg13
I4
sg15
I01
sg16
g81
sbsg13
I5
sg15
I01
sg16
g47
sba(imyEvolve
Tree
p1383
(dp1384
g13
I3
sg7
(imyEvolve
Tree
p1385
(dp1386
g10
(imyEvolve
Tree
p1387
(dp1388
g13
I1
sg7
(imyEvolve
Tree
p1389
(dp1390
g13
I0
sg14
I00
sbsg18
(imyEvolve
Tree
p1391
(dp1392
g13
I0
sg23
F1.0423831950912854
sg14
I01
sbsg15
I00
sg16
g27
sbsg13
I2
sg15
I01
sg16
g47
sbsg18
(imyEvolve
Tree
p1393
(dp1394
g10
(imyEvolve
Tree
p1395
(dp1396
g13
I1
sg7
(imyEvolve
Tree
p1397
(dp1398
g13
I0
sg23
F-4.979326843355105
sg14
I01
sbsg18
(imyEvolve
Tree
p1399
(dp1400
g13
I0
sg14
I00
sbsg15
I00
sg16
g26
sbsg13
I2
sg15
I01
sg16
g17
sbsg15
I00
sg16
g58
sba(imyEvolve
Tree
p1401
(dp1402
g7
(imyEvolve
Tree
p1403
(dp1404
g10
(imyEvolve
Tree
p1405
(dp1406
g10
(imyEvolve
Tree
p1407
(dp1408
g10
(imyEvolve
Tree
p1409
(dp1410
g10
(imyEvolve
Tree
p1411
(dp1412
g13
I0
sg23
F-3.001831422167476
sg14
I01
sbsg13
I1
sg15
I01
sg16
g81
sbsg13
I2
sg15
I01
sg16
g46
sbsg13
I3
sg15
I01
sg16
g46
sbsg13
I4
sg15
I01
sg16
g81
sbsg13
I5
sg18
(imyEvolve
Tree
p1413
(dp1414
g7
(imyEvolve
Tree
p1415
(dp1416
g10
(imyEvolve
Tree
p1417
(dp1418
g7
(imyEvolve
Tree
p1419
(dp1420
g10
(imyEvolve
Tree
p1421
(dp1422
g13
I0
sg23
F-1.8652378696750205
sg14
I01
sbsg13
I1
sg15
I01
sg16
g81
sbsg13
I2
sg18
(imyEvolve
Tree
p1423
(dp1424
g10
(imyEvolve
Tree
p1425
(dp1426
g13
I0
sg23
F0.2310779613222298
sg14
I01
sbsg13
I1
sg15
I01
sg16
g17
sbsg15
I00
sg16
g26
sbsg13
I3
sg15
I01
sg16
g17
sbsg13
I4
sg18
(imyEvolve
Tree
p1427
(dp1428
g10
(imyEvolve
Tree
p1429
(dp1430
g10
(imyEvolve
Tree
p1431
(dp1432
g10
(imyEvolve
Tree
p1433
(dp1434
g13
I0
sg14
I00
sbsg13
I1
sg15
I01
sg16
g17
sbsg13
I2
sg15
I01
sg16
g81
sbsg13
I3
sg15
I01
sg16
g46
sbsg15
I00
sg16
g26
sbsg15
I00
sg16
g26
sba(imyEvolve
Tree
p1435
(dp1436
g10
(imyEvolve
Tree
p1437
(dp1438
g7
(imyEvolve
Tree
p1439
(dp1440
g13
I0
sg14
I00
sbsg13
I1
sg18
(imyEvolve
Tree
p1441
(dp1442
g13
I0
sg23
F3.0381287702462316
sg14
I01
sbsg15
I00
sg16
g26
sbsg13
I2
sg15
I01
sg16
g81
sba(imyEvolve
Tree
p1443
(dp1444
g10
(imyEvolve
Tree
p1445
(dp1446
g7
(imyEvolve
Tree
p1447
(dp1448
g10
(imyEvolve
Tree
p1449
(dp1450
g7
(imyEvolve
Tree
p1451
(dp1452
g13
I0
sg14
I00
sbsg13
I1
sg18
(imyEvolve
Tree
p1453
(dp1454
g13
I0
sg14
I00
sbsg15
I00
sg16
g26
sbsg13
I2
sg15
I01
sg16
g17
sbsg13
I3
sg18
(imyEvolve
Tree
p1455
(dp1456
g7
(imyEvolve
Tree
p1457
(dp1458
g10
(imyEvolve
Tree
p1459
(dp1460
g13
I0
sg23
F4.360322128616529
sg14
I01
sbsg13
I1
sg15
I01
sg16
g47
sbsg13
I2
sg18
(imyEvolve
Tree
p1461
(dp1462
g7
(imyEvolve
Tree
p1463
(dp1464
g13
I0
sg23
F-2.5715432634681177
sg14
I01
sbsg13
I1
sg18
(imyEvolve
Tree
p1465
(dp1466
g13
I0
sg23
F1.2020753961071318
sg14
I01
sbsg15
I00
sg16
g27
sbsg15
I00
sg16
g26
sbsg15
I00
sg16
g58
sbsg13
I4
sg15
I01
sg16
g46
sba(imyEvolve
Tree
p1467
(dp1468
g7
(imyEvolve
Tree
p1469
(dp1470
g7
(imyEvolve
Tree
p1471
(dp1472
g7
(imyEvolve
Tree
p1473
(dp1474
g10
(imyEvolve
Tree
p1475
(dp1476
g13
I0
sg23
F-2.7682995845769276
sg14
I01
sbsg13
I1
sg15
I01
sg16
g81
sbsg13
I2
sg18
(imyEvolve
Tree
p1477
(dp1478
g7
(imyEvolve
Tree
p1479
(dp1480
g13
I0
sg23
F-0.9341798676646231
sg14
I01
sbsg13
I1
sg18
(imyEvolve
Tree
p1481
(dp1482
g13
I0
sg23
F3.8766547531814037
sg14
I01
sbsg15
I00
sg16
g26
sbsg15
I00
sg16
g27
sbsg13
I3
sg18
(imyEvolve
Tree
p1483
(dp1484
g10
(imyEvolve
Tree
p1485
(dp1486
g10
(imyEvolve
Tree
p1487
(dp1488
g13
I0
sg14
I00
sbsg13
I1
sg15
I01
sg16
g81
sbsg13
I2
sg15
I01
sg16
g17
sbsg15
I00
sg16
g58
sbsg13
I4
sg18
(imyEvolve
Tree
p1489
(dp1490
g7
(imyEvolve
Tree
p1491
(dp1492
g7
(imyEvolve
Tree
p1493
(dp1494
g10
(imyEvolve
Tree
p1495
(dp1496
g13
I0
sg14
I00
sbsg13
I1
sg15
I01
sg16
g46
sbsg13
I2
sg18
(imyEvolve
Tree
p1497
(dp1498
g10
(imyEvolve
Tree
p1499
(dp1500
g13
I0
sg14
I00
sbsg13
I1
sg15
I01
sg16
g17
sbsg15
I00
sg16
g58
sbsg13
I3
sg18
(imyEvolve
Tree
p1501
(dp1502
g7
(imyEvolve
Tree
p1503
(dp1504
g7
(imyEvolve
Tree
p1505
(dp1506
g13
I0
sg23
F-1.8008272400228797
sg14
I01
sbsg13
I1
sg18
(imyEvolve
Tree
p1507
(dp1508
g13
I0
sg14
I00
sbsg15
I00
sg16
g58
sbsg13
I2
sg18
(imyEvolve
Tree
p1509
(dp1510
g10
(imyEvolve
Tree
p1511
(dp1512
g13
I0
sg14
I00
sbsg13
I1
sg15
I01
sg16
g47
sbsg15
I00
sg16
g58
sbsg15
I00
sg16
g58
sbsg15
I00
sg16
g58
sba(imyEvolve
Tree
p1513
(dp1514
g7
(imyEvolve
Tree
p1515
(dp1516
g10
(imyEvolve
Tree
p1517
(dp1518
g13
I0
sg23
F-4.313384958442853
sg14
I01
sbsg13
I1
sg15
I01
sg16
g81
sbsg13
I2
sg18
(imyEvolve
Tree
p1519
(dp1520
g7
(imyEvolve
Tree
p1521
(dp1522
g13
I0
sg23
F2.748024528332609
sg14
I01
sbsg13
I1
sg18
(imyEvolve
Tree
p1523
(dp1524
g13
I0
sg14
I00
sbsg15
I00
sg16
g26
sbsg15
I00
sg16
g26
sba(imyEvolve
Tree
p1525
(dp1526
g10
(imyEvolve
Tree
p1527
(dp1528
g7
(imyEvolve
Tree
p1529
(dp1530
g7
(imyEvolve
Tree
p1531
(dp1532
g13
I0
sg14
I00
sbsg13
I1
sg18
(imyEvolve
Tree
p1533
(dp1534
g13
I0
sg14
I00
sbsg15
I00
sg16
g27
sbsg13
I2
sg18
(imyEvolve
Tree
p1535
(dp1536
g10
(imyEvolve
Tree
p1537
(dp1538
g13
I0
sg14
I00
sbsg13
I1
sg15
I01
sg16
g47
sbsg15
I00
sg16
g58
sbsg13
I3
sg15
I01
sg16
g81
sba(imyEvolve
Tree
p1539
(dp1540
g10
(imyEvolve
Tree
p1541
(dp1542
g10
(imyEvolve
Tree
p1543
(dp1544
g13
I0
sg23
F2.291281480866145
sg14
I01
sbsg13
I1
sg15
I01
sg16
g81
sbsg13
I2
sg15
I01
sg16
g47
sba(imyEvolve
Tree
p1545
(dp1546
g13
I3
sg7
(imyEvolve
Tree
p1547
(dp1548
g13
I2
sg7
(imyEvolve
Tree
p1549
(dp1550
g10
(imyEvolve
Tree
p1551
(dp1552
g13
I0
sg14
I00
sbsg13
I1
sg15
I01
sg16
g17
sbsg18
(imyEvolve
Tree
p1553
(dp1554
g10
(imyEvolve
Tree
p1555
(dp1556
g13
I0
sg23
F-0.6969937815168405
sg14
I01
sbsg13
I1
sg15
I01
sg16
g17
sbsg15
I00
sg16
g26
sbsg18
(imyEvolve
Tree
p1557
(dp1558
g10
(imyEvolve
Tree
p1559
(dp1560
g10
(imyEvolve
Tree
p1561
(dp1562
g13
I0
sg14
I00
sbsg13
I1
sg15
I01
sg16
g46
sbsg13
I2
sg15
I01
sg16
g46
sbsg15
I00
sg16
g58
sba(imyEvolve
Tree
p1563
(dp1564
g13
I4
sg7
(imyEvolve
Tree
p1565
(dp1566
g13
I3
sg7
(imyEvolve
Tree
p1567
(dp1568
g13
I2
sg7
(imyEvolve
Tree
p1569
(dp1570
g10
(imyEvolve
Tree
p1571
(dp1572
g13
I0
sg14
I00
sbsg13
I1
sg15
I01
sg16
g46
sbsg18
(imyEvolve
Tree
p1573
(dp1574
g13
I1
sg7
(imyEvolve
Tree
p1575
(dp1576
g13
I0
sg23
F0.11246704967716425
sg14
I01
sbsg18
(imyEvolve
Tree
p1577
(dp1578
g13
I0
sg23
F-2.2459812225661446
sg14
I01
sbsg15
I00
sg16
g58
sbsg15
I00
sg16
g58
sbsg18
(imyEvolve
Tree
p1579
(dp1580
g10
(imyEvolve
Tree
p1581
(dp1582
g10
(imyEvolve
Tree
p1583
(dp1584
g13
I0
sg14
I00
sbsg13
I1
sg15
I01
sg16
g47
sbsg13
I2
sg15
I01
sg16
g47
sbsg15
I00
sg16
g27
sbsg18
(imyEvolve
Tree
p1585
(dp1586
g10
(imyEvolve
Tree
p1587
(dp1588
g10
(imyEvolve
Tree
p1589
(dp1590
g13
I1
sg7
(imyEvolve
Tree
p1591
(dp1592
g13
I0
sg14
I00
sbsg18
(imyEvolve
Tree
p1593
(dp1594
g13
I0
sg23
F-3.8649763826467387
sg14
I01
sbsg15
I00
sg16
g27
sbsg13
I2
sg15
I01
sg16
g47
sbsg13
I3
sg15
I01
sg16
g81
sbsg15
I00
sg16
g58
sba(imyEvolve
Tree
p1595
(dp1596
g10
(imyEvolve
Tree
p1597
(dp1598
g10
(imyEvolve
Tree
p1599
(dp1600
g7
(imyEvolve
Tree
p1601
(dp1602
g13
I0
sg23
F0.5691938618860579
sg14
I01
sbsg13
I1
sg18
(imyEvolve
Tree
p1603
(dp1604
g13
I0
sg23
F-1.6410647166317958
sg14
I01
sbsg15
I00
sg16
g27
sbsg13
I2
sg15
I01
sg16
g47
sbsg13
I3
sg15
I01
sg16
g46
sba(imyEvolve
Tree
p1605
(dp1606
g7
(imyEvolve
Tree
p1607
(dp1608
g7
(imyEvolve
Tree
p1609
(dp1610
g10
(imyEvolve
Tree
p1611
(dp1612
g7
(imyEvolve
Tree
p1613
(dp1614
g7
(imyEvolve
Tree
p1615
(dp1616
g13
I0
sg23
F-2.467032713470868
sg14
I01
sbsg13
I1
sg18
(imyEvolve
Tree
p1617
(dp1618
g13
I0
sg14
I00
sbsg15
I00
sg16
g58
sbsg13
I2
sg18
(imyEvolve
Tree
p1619
(dp1620
g7
(imyEvolve
Tree
p1621
(dp1622
g13
I0
sg14
I00
sbsg13
I1
sg18
(imyEvolve
Tree
p1623
(dp1624
g13
I0
sg14
I00
sbsg15
I00
sg16
g26
sbsg15
I00
sg16
g27
sbsg13
I3
sg15
I01
sg16
g46
sbsg13
I4
sg18
(imyEvolve
Tree
p1625
(dp1626
g7
(imyEvolve
Tree
p1627
(dp1628
g7
(imyEvolve
Tree
p1629
(dp1630
g10
(imyEvolve
Tree
p1631
(dp1632
g13
I0
sg23
F-4.044949353974122
sg14
I01
sbsg13
I1
sg15
I01
sg16
g47
sbsg13
I2
sg18
(imyEvolve
Tree
p1633
(dp1634
g10
(imyEvolve
Tree
p1635
(dp1636
g13
I0
sg23
F0.6881346226531369
sg14
I01
sbsg13
I1
sg15
I01
sg16
g46
sbsg15
I00
sg16
g58
sbsg13
I3
sg18
(imyEvolve
Tree
p1637
(dp1638
g7
(imyEvolve
Tree
p1639
(dp1640
g10
(imyEvolve
Tree
p1641
(dp1642
g13
I0
sg23
F-1.9785211056273355
sg14
I01
sbsg13
I1
sg15
I01
sg16
g17
sbsg13
I2
sg18
(imyEvolve
Tree
p1643
(dp1644
g10
(imyEvolve
Tree
p1645
(dp1646
g13
I0
sg23
F-2.121036572475361
sg14
I01
sbsg13
I1
sg15
I01
sg16
g46
sbsg15
I00
sg16
g58
sbsg15
I00
sg16
g27
sbsg15
I00
sg16
g58
sbsg13
I5
sg18
(imyEvolve
Tree
p1647
(dp1648
g7
(imyEvolve
Tree
p1649
(dp1650
g10
(imyEvolve
Tree
p1651
(dp1652
g7
(imyEvolve
Tree
p1653
(dp1654
g7
(imyEvolve
Tree
p1655
(dp1656
g13
I0
sg23
F-4.6253276190621495
sg14
I01
sbsg13
I1
sg18
(imyEvolve
Tree
p1657
(dp1658
g13
I0
sg23
F-3.0818344043489496
sg14
I01
sbsg15
I00
sg16
g26
sbsg13
I2
sg18
(imyEvolve
Tree
p1659
(dp1660
g10
(imyEvolve
Tree
p1661
(dp1662
g13
I0
sg23
F3.7202326780769255
sg14
I01
sbsg13
I1
sg15
I01
sg16
g81
sbsg15
I00
sg16
g58
sbsg13
I3
sg15
I01
sg16
g46
sbsg13
I4
sg18
(imyEvolve
Tree
p1663
(dp1664
g7
(imyEvolve
Tree
p1665
(dp1666
g10
(imyEvolve
Tree
p1667
(dp1668
g7
(imyEvolve
Tree
p1669
(dp1670
g13
I0
sg23
F1.2134502705780923
sg14
I01
sbsg13
I1
sg18
(imyEvolve
Tree
p1671
(dp1672
g13
I0
sg14
I00
sbsg15
I00
sg16
g58
sbsg13
I2
sg15
I01
sg16
g17
sbsg13
I3
sg18
(imyEvolve
Tree
p1673
(dp1674
g10
(imyEvolve
Tree
p1675
(dp1676
g10
(imyEvolve
Tree
p1677
(dp1678
g13
I0
sg14
I00
sbsg13
I1
sg15
I01
sg16
g47
sbsg13
I2
sg15
I01
sg16
g17
sbsg15
I00
sg16
g27
sbsg15
I00
sg16
g26
sbsg15
I00
sg16
g58
sba(imyEvolve
Tree
p1679
(dp1680
g10
(imyEvolve
Tree
p1681
(dp1682
g7
(imyEvolve
Tree
p1683
(dp1684
g13
I0
sg14
I00
sbsg13
I1
sg18
(imyEvolve
Tree
p1685
(dp1686
g13
I0
sg23
F-4.581935344887381
sg14
I01
sbsg15
I00
sg16
g26
sbsg13
I2
sg15
I01
sg16
g47
sba(imyEvolve
Tree
p1687
(dp1688
g13
I4
sg7
(imyEvolve
Tree
p1689
(dp1690
g13
I3
sg7
(imyEvolve
Tree
p1691
(dp1692
g10
(imyEvolve
Tree
p1693
(dp1694
g13
I1
sg7
(imyEvolve
Tree
p1695
(dp1696
g13
I0
sg23
F-4.625298312405705
sg14
I01
sbsg18
(imyEvolve
Tree
p1697
(dp1698
g13
I0
sg14
I00
sbsg15
I00
sg16
g26
sbsg13
I2
sg15
I01
sg16
g17
sbsg18
(imyEvolve
Tree
p1699
(dp1700
g10
(imyEvolve
Tree
p1701
(dp1702
g13
I1
sg7
(imyEvolve
Tree
p1703
(dp1704
g13
I0
sg14
I00
sbsg18
(imyEvolve
Tree
p1705
(dp1706
g13
I0
sg14
I00
sbsg15
I00
sg16
g27
sbsg13
I2
sg15
I01
sg16
g46
sbsg15
I00
sg16
g58
sbsg18
(imyEvolve
Tree
p1707
(dp1708
g10
(imyEvolve
Tree
p1709
(dp1710
g10
(imyEvolve
Tree
p1711
(dp1712
g10
(imyEvolve
Tree
p1713
(dp1714
g13
I0
sg14
I00
sbsg13
I1
sg15
I01
sg16
g17
sbsg13
I2
sg15
I01
sg16
g81
sbsg13
I3
sg15
I01
sg16
g47
sbsg15
I00
sg16
g58
sba(imyEvolve
Tree
p1715
(dp1716
g7
(imyEvolve
Tree
p1717
(dp1718
g7
(imyEvolve
Tree
p1719
(dp1720
g10
(imyEvolve
Tree
p1721
(dp1722
g10
(imyEvolve
Tree
p1723
(dp1724
g10
(imyEvolve
Tree
p1725
(dp1726
g13
I0
sg23
F-1.2940471204908919
sg14
I01
sbsg13
I1
sg15
I01
sg16
g81
sbsg13
I2
sg15
I01
sg16
g81
sbsg13
I3
sg15
I01
sg16
g47
sbsg13
I4
sg18
(imyEvolve
Tree
p1727
(dp1728
g7
(imyEvolve
Tree
p1729
(dp1730
g7
(imyEvolve
Tree
p1731
(dp1732
g10
(imyEvolve
Tree
p1733
(dp1734
g13
I0
sg23
F0.8758270607402752
sg14
I01
sbsg13
I1
sg15
I01
sg16
g17
sbsg13
I2
sg18
(imyEvolve
Tree
p1735
(dp1736
g10
(imyEvolve
Tree
p1737
(dp1738
g13
I0
sg23
F3.72760214680579
sg14
I01
sbsg13
I1
sg15
I01
sg16
g46
sbsg15
I00
sg16
g58
sbsg13
I3
sg18
(imyEvolve
Tree
p1739
(dp1740
g7
(imyEvolve
Tree
p1741
(dp1742
g7
(imyEvolve
Tree
p1743
(dp1744
g13
I0
sg14
I00
sbsg13
I1
sg18
(imyEvolve
Tree
p1745
(dp1746
g13
I0
sg14
I00
sbsg15
I00
sg16
g27
sbsg13
I2
sg18
(imyEvolve
Tree
p1747
(dp1748
g7
(imyEvolve
Tree
p1749
(dp1750
g13
I0
sg14
I00
sbsg13
I1
sg18
(imyEvolve
Tree
p1751
(dp1752
g13
I0
sg14
I00
sbsg15
I00
sg16
g26
sbsg15
I00
sg16
g26
sbsg15
I00
sg16
g26
sbsg15
I00
sg16
g27
sbsg13
I5
sg18
(imyEvolve
Tree
p1753
(dp1754
g10
(imyEvolve
Tree
p1755
(dp1756
g10
(imyEvolve
Tree
p1757
(dp1758
g7
(imyEvolve
Tree
p1759
(dp1760
g10
(imyEvolve
Tree
p1761
(dp1762
g13
I0
sg14
I00
sbsg13
I1
sg15
I01
sg16
g17
sbsg13
I2
sg18
(imyEvolve
Tree
p1763
(dp1764
g7
(imyEvolve
Tree
p1765
(dp1766
g13
I0
sg14
I00
sbsg13
I1
sg18
(imyEvolve
Tree
p1767
(dp1768
g13
I0
sg23
F-4.829857477061563
sg14
I01
sbsg15
I00
sg16
g27
sbsg15
I00
sg16
g27
sbsg13
I3
sg15
I01
sg16
g46
sbsg13
I4
sg15
I01
sg16
g81
sbsg15
I00
sg16
g58
sba(imyEvolve
Tree
p1769
(dp1770
g10
(imyEvolve
Tree
p1771
(dp1772
g10
(imyEvolve
Tree
p1773
(dp1774
g10
(imyEvolve
Tree
p1775
(dp1776
g7
(imyEvolve
Tree
p1777
(dp1778
g10
(imyEvolve
Tree
p1779
(dp1780
g13
I0
sg23
F3.652123850910918
sg14
I01
sbsg13
I1
sg15
I01
sg16
g81
sbsg13
I2
sg18
(imyEvolve
Tree
p1781
(dp1782
g10
(imyEvolve
Tree
p1783
(dp1784
g13
I0
sg14
I00
sbsg13
I1
sg15
I01
sg16
g81
sbsg15
I00
sg16
g26
sbsg13
I3
sg15
I01
sg16
g81
sbsg13
I4
sg15
I01
sg16
g81
sbsg13
I5
sg15
I01
sg16
g17
sbaa(lp1785
(imyEvolve
Tree
p1786
(dp1787
g10
(imyEvolve
Tree
p1788
(dp1789
g10
(imyEvolve
Tree
p1790
(dp1791
g13
I0
sg23
F-1.8591403602891599
sg14
I01
sbsg13
I1
sg15
I01
sg16
g81
sbsg13
I2
sg15
I01
sg16
g46
sba(imyEvolve
Tree
p1792
(dp1793
g7
(imyEvolve
Tree
p1794
(dp1795
g7
(imyEvolve
Tree
p1796
(dp1797
g10
(imyEvolve
Tree
p1798
(dp1799
g7
(imyEvolve
Tree
p1800
(dp1801
g13
I0
sg14
I00
sbsg13
I1
sg18
(imyEvolve
Tree
p1802
(dp1803
g13
I0
sg23
F-4.745495492891818
sg14
I01
sbsg15
I00
sg16
g27
sbsg13
I2
sg15
I01
sg16
g46
sbsg13
I3
sg18
(imyEvolve
Tree
p1804
(dp1805
g10
(imyEvolve
Tree
p1806
(dp1807
g10
(imyEvolve
Tree
p1808
(dp1809
g13
I0
sg23
F-4.665731917359209
sg14
I01
sbsg13
I1
sg15
I01
sg16
g46
sbsg13
I2
sg15
I01
sg16
g17
sbsg15
I00
sg16
g27
sbsg13
I4
sg18
(imyEvolve
Tree
p1810
(dp1811
g7
(imyEvolve
Tree
p1812
(dp1813
g7
(imyEvolve
Tree
p1814
(dp1815
g7
(imyEvolve
Tree
p1816
(dp1817
g13
I0
sg23
F3.7323650779383666
sg14
I01
sbsg13
I1
sg18
(imyEvolve
Tree
p1818
(dp1819
g13
I0
sg23
F-3.7244465804849303
sg14
I01
sbsg15
I00
sg16
g26
sbsg13
I2
sg18
(imyEvolve
Tree
p1820
(dp1821
g10
(imyEvolve
Tree
p1822
(dp1823
g13
I0
sg23
F2.580782864962413
sg14
I01
sbsg13
I1
sg15
I01
sg16
g17
sbsg15
I00
sg16
g26
sbsg13
I3
sg18
(imyEvolve
Tree
p1824
(dp1825
g10
(imyEvolve
Tree
p1826
(dp1827
g10
(imyEvolve
Tree
p1828
(dp1829
g13
I0
sg23
F1.5516209349817087
sg14
I01
sbsg13
I1
sg15
I01
sg16
g47
sbsg13
I2
sg15
I01
sg16
g17
sbsg15
I00
sg16
g27
sbsg15
I00
sg16
g26
sba(imyEvolve
Tree
p1830
(dp1831
g7
(imyEvolve
Tree
p1832
(dp1833
g10
(imyEvolve
Tree
p1834
(dp1835
g10
(imyEvolve
Tree
p1836
(dp1837
g10
(imyEvolve
Tree
p1838
(dp1839
g10
(imyEvolve
Tree
p1840
(dp1841
g13
I0
sg23
F1.6064537190007497
sg14
I01
sbsg13
I1
sg15
I01
sg16
g81
sbsg13
I2
sg15
I01
sg16
g47
sbsg13
I3
sg15
I01
sg16
g81
sbsg13
I4
sg15
I01
sg16
g17
sbsg13
I5
sg18
(imyEvolve
Tree
p1842
(dp1843
g10
(imyEvolve
Tree
p1844
(dp1845
g7
(imyEvolve
Tree
p1846
(dp1847
g10
(imyEvolve
Tree
p1848
(dp1849
g10
(imyEvolve
Tree
p1850
(dp1851
g13
I0
sg23
F-0.4523132483933612
sg14
I01
sbsg13
I1
sg15
I01
sg16
g81
sbsg13
I2
sg15
I01
sg16
g81
sbsg13
I3
sg18
(imyEvolve
Tree
p1852
(dp1853
g10
(imyEvolve
Tree
p1854
(dp1855
g7
(imyEvolve
Tree
p1856
(dp1857
g13
I0
sg23
F3.917590243693928
sg14
I01
sbsg13
I1
sg18
(imyEvolve
Tree
p1858
(dp1859
g13
I0
sg23
F-2.6463471473152325
sg14
I01
sbsg15
I00
sg16
g26
sbsg13
I2
sg15
I01
sg16
g47
sbsg15
I00
sg16
g27
sbsg13
I4
sg15
I01
sg16
g81
sbsg15
I00
sg16
g58
sba(imyEvolve
Tree
p1860
(dp1861
g10
(imyEvolve
Tree
p1862
(dp1863
g10
(imyEvolve
Tree
p1864
(dp1865
g7
(imyEvolve
Tree
p1866
(dp1867
g7
(imyEvolve
Tree
p1868
(dp1869
g13
I0
sg23
F4.790517447131739
sg14
I01
sbsg13
I1
sg18
(imyEvolve
Tree
p1870
(dp1871
g13
I0
sg14
I00
sbsg15
I00
sg16
g27
sbsg13
I2
sg18
(imyEvolve
Tree
p1872
(dp1873
g10
(imyEvolve
Tree
p1874
(dp1875
g13
I0
sg14
I00
sbsg13
I1
sg15
I01
sg16
g46
sbsg15
I00
sg16
g26
sbsg13
I3
sg15
I01
sg16
g46
sbsg13
I4
sg15
I01
sg16
g47
sba(imyEvolve
Tree
p1876
(dp1877
g10
(imyEvolve
Tree
p1878
(dp1879
g10
(imyEvolve
Tree
p1880
(dp1881
g7
(imyEvolve
Tree
p1882
(dp1883
g13
I0
sg23
F-3.1681336061847887
sg14
I01
sbsg13
I1
sg18
(imyEvolve
Tree
p1884
(dp1885
g13
I0
sg23
F-0.1440430449900143
sg14
I01
sbsg15
I00
sg16
g27
sbsg13
I2
sg15
I01
sg16
g81
sbsg13
I3
sg15
I01
sg16
g47
sba(imyEvolve
Tree
p1886
(dp1887
g7
(imyEvolve
Tree
p1888
(dp1889
g7
(imyEvolve
Tree
p1890
(dp1891
g13
I0
sg23
F0.1284264709628129
sg14
I01
sbsg13
I1
sg18
(imyEvolve
Tree
p1892
(dp1893
g13
I0
sg14
I00
sbsg15
I00
sg16
g26
sbsg13
I2
sg18
(imyEvolve
Tree
p1894
(dp1895
g10
(imyEvolve
Tree
p1896
(dp1897
g13
I0
sg14
I00
sbsg13
I1
sg15
I01
sg16
g46
sbsg15
I00
sg16
g27
sba(imyEvolve
Tree
p1898
(dp1899
g10
(imyEvolve
Tree
p1900
(dp1901
g7
(imyEvolve
Tree
p1902
(dp1903
g10
(imyEvolve
Tree
p1904
(dp1905
g13
I0
sg14
I00
sbsg13
I1
sg15
I01
sg16
g47
sbsg13
I2
sg18
(imyEvolve
Tree
p1906
(dp1907
g10
(imyEvolve
Tree
p1908
(dp1909
g13
I0
sg23
F1.592690586619642
sg14
I01
sbsg13
I1
sg15
I01
sg16
g47
sbsg15
I00
sg16
g58
sbsg13
I3
sg15
I01
sg16
g81
sba(imyEvolve
Tree
p1910
(dp1911
g10
(imyEvolve
Tree
p1912
(dp1913
g13
I4
sg7
(imyEvolve
Tree
p1914
(dp1915
g13
I3
sg7
(imyEvolve
Tree
p1916
(dp1917
g10
(imyEvolve
Tree
p1918
(dp1919
g10
(imyEvolve
Tree
p1920
(dp1921
g13
I0
sg23
F-4.939448692504005
sg14
I01
sbsg13
I1
sg15
I01
sg16
g46
sbsg13
I2
sg15
I01
sg16
g17
sbsg18
(imyEvolve
Tree
p1922
(dp1923
g13
I2
sg7
(imyEvolve
Tree
p1924
(dp1925
g10
(imyEvolve
Tree
p1926
(dp1927
g13
I0
sg23
F-2.275177569819559
sg14
I01
sbsg13
I1
sg15
I01
sg16
g17
sbsg18
(imyEvolve
Tree
p1928
(dp1929
g13
I1
sg7
(imyEvolve
Tree
p1930
(dp1931
g13
I0
sg23
F0.44102300569073627
sg14
I01
sbsg18
(imyEvolve
Tree
p1932
(dp1933
g13
I0
sg14
I00
sbsg15
I00
sg16
g27
sbsg15
I00
sg16
g27
sbsg15
I00
sg16
g27
sbsg18
(imyEvolve
Tree
p1934
(dp1935
g13
I3
sg7
(imyEvolve
Tree
p1936
(dp1937
g13
I2
sg7
(imyEvolve
Tree
p1938
(dp1939
g10
(imyEvolve
Tree
p1940
(dp1941
g13
I0
sg23
F2.164327922080874
sg14
I01
sbsg13
I1
sg15
I01
sg16
g46
sbsg18
(imyEvolve
Tree
p1942
(dp1943
g10
(imyEvolve
Tree
p1944
(dp1945
g13
I0
sg23
F-3.578520978512717
sg14
I01
sbsg13
I1
sg15
I01
sg16
g47
sbsg15
I00
sg16
g27
sbsg18
(imyEvolve
Tree
p1946
(dp1947
g13
I2
sg7
(imyEvolve
Tree
p1948
(dp1949
g13
I1
sg7
(imyEvolve
Tree
p1950
(dp1951
g13
I0
sg14
I00
sbsg18
(imyEvolve
Tree
p1952
(dp1953
g13
I0
sg14
I00
sbsg15
I00
sg16
g26
sbsg18
(imyEvolve
Tree
p1954
(dp1955
g10
(imyEvolve
Tree
p1956
(dp1957
g13
I0
sg14
I00
sbsg13
I1
sg15
I01
sg16
g46
sbsg15
I00
sg16
g58
sbsg15
I00
sg16
g26
sbsg15
I00
sg16
g58
sbsg13
I5
sg15
I01
sg16
g17
sba(imyEvolve
Tree
p1958
(dp1959
g10
(imyEvolve
Tree
p1960
(dp1961
g13
I2
sg7
(imyEvolve
Tree
p1962
(dp1963
g13
I1
sg7
(imyEvolve
Tree
p1964
(dp1965
g13
I0
sg14
I00
sbsg18
(imyEvolve
Tree
p1966
(dp1967
g13
I0
sg14
I00
sbsg15
I00
sg16
g27
sbsg18
(imyEvolve
Tree
p1968
(dp1969
g10
(imyEvolve
Tree
p1970
(dp1971
g13
I0
sg14
I00
sbsg13
I1
sg15
I01
sg16
g81
sbsg15
I00
sg16
g58
sbsg13
I3
sg15
I01
sg16
g46
sba(imyEvolve
Tree
p1972
(dp1973
g10
(imyEvolve
Tree
p1974
(dp1975
g10
(imyEvolve
Tree
p1976
(dp1977
g10
(imyEvolve
Tree
p1978
(dp1979
g10
(imyEvolve
Tree
p1980
(dp1981
g13
I0
sg23
F4.441685344314276
sg14
I01
sbsg13
I1
sg15
I01
sg16
g46
sbsg13
I2
sg15
I01
sg16
g17
sbsg13
I3
sg15
I01
sg16
g81
sbsg13
I4
sg15
I01
sg16
g81
sbaasS'alpha'
p1982
F0.006235283429227879
sS'fitness'
p1983
cnumpy.core.multiarray
scalar
p1984
(cnumpy
dtype
p1985
(S'f8'
p1986
I0
I1
tp1987
Rp1988
(I3
S'<'
p1989
NNNI-1
I-1
I0
tp1990
bS'\xe8\x1d\xa79\xc8\n\xc6\xbf'
p1991
tp1992
Rp1993
sS'weightSharing'
p1994
(lp1995
I00
aI01
asS'fitnessValid'
p1996
I00
sS'resolution'
p1997
I84
sb.