(imyEvolve
Individual
p0
(dp1
S'funcs'
p2
(lp3
(lp4
(imyEvolve
Tree
p5
(dp6
S'below'
p7
(imyEvolve
Tree
p8
(dp9
g7
(imyEvolve
Tree
p10
(dp11
S'depth'
p12
I2
sS'left'
p13
(imyEvolve
Tree
p14
(dp15
g12
I1
sg13
(imyEvolve
Tree
p16
(dp17
g12
I0
sS'constant'
p18
F3.102673439828761
sS'isConstant'
p19
I01
sbsS'right'
p20
(imyEvolve
Tree
p21
(dp22
g12
I0
sg18
F-4.252242621080975
sg19
I01
sbsS'single'
p23
I00
sS'op'
p24
coperator
mul
p25
sbsg20
(imyEvolve
Tree
p26
(dp27
g7
(imyEvolve
Tree
p28
(dp29
g12
I0
sg19
I00
sbsg12
I1
sg23
I01
sg24
cmyEvolve
square
p30
sbsg23
I00
sg24
coperator
add
p31
sbsg12
I3
sg23
I01
sg24
cmath
sin
p32
sbsg12
I4
sg23
I01
sg24
g30
sba(imyEvolve
Tree
p33
(dp34
g12
I4
sg13
(imyEvolve
Tree
p35
(dp36
g7
(imyEvolve
Tree
p37
(dp38
g12
I2
sg13
(imyEvolve
Tree
p39
(dp40
g7
(imyEvolve
Tree
p41
(dp42
g12
I0
sg19
I00
sbsg12
I1
sg23
I01
sg24
cmyEvolve
absSqrt
p43
sbsg20
(imyEvolve
Tree
p44
(dp45
g12
I1
sg13
(imyEvolve
Tree
p46
(dp47
g12
I0
sg18
F0.37672640687708814
sg19
I01
sbsg20
(imyEvolve
Tree
p48
(dp49
g12
I0
sg19
I00
sbsg23
I00
sg24
g31
sbsg23
I00
sg24
coperator
sub
p50
sbsg12
I3
sg23
I01
sg24
g30
sbsg20
(imyEvolve
Tree
p51
(dp52
g7
(imyEvolve
Tree
p53
(dp54
g7
(imyEvolve
Tree
p55
(dp56
g12
I1
sg13
(imyEvolve
Tree
p57
(dp58
g12
I0
sg18
F1.2077187890508796
sg19
I01
sbsg20
(imyEvolve
Tree
p59
(dp60
g12
I0
sg18
F4.922142796400745
sg19
I01
sbsg23
I00
sg24
g50
sbsg12
I2
sg23
I01
sg24
g32
sbsg12
I3
sg23
I01
sg24
g43
sbsg23
I00
sg24
g31
sba(imyEvolve
Tree
p61
(dp62
g12
I3
sg13
(imyEvolve
Tree
p63
(dp64
g7
(imyEvolve
Tree
p65
(dp66
g7
(imyEvolve
Tree
p67
(dp68
g12
I0
sg18
F-3.894819919076953
sg19
I01
sbsg12
I1
sg23
I01
sg24
g43
sbsg12
I2
sg23
I01
sg24
g32
sbsg20
(imyEvolve
Tree
p69
(dp70
g12
I2
sg13
(imyEvolve
Tree
p71
(dp72
g12
I1
sg13
(imyEvolve
Tree
p73
(dp74
g12
I0
sg18
F-2.543093386156723
sg19
I01
sbsg20
(imyEvolve
Tree
p75
(dp76
g12
I0
sg19
I00
sbsg23
I00
sg24
g25
sbsg20
(imyEvolve
Tree
p77
(dp78
g7
(imyEvolve
Tree
p79
(dp80
g12
I0
sg19
I00
sbsg12
I1
sg23
I01
sg24
g32
sbsg23
I00
sg24
g25
sbsg23
I00
sg24
g25
sba(imyEvolve
Tree
p81
(dp82
g12
I3
sg13
(imyEvolve
Tree
p83
(dp84
g12
I2
sg13
(imyEvolve
Tree
p85
(dp86
g7
(imyEvolve
Tree
p87
(dp88
g12
I0
sg19
I00
sbsg12
I1
sg23
I01
sg24
cmath
cos
p89
sbsg20
(imyEvolve
Tree
p90
(dp91
g7
(imyEvolve
Tree
p92
(dp93
g12
I0
sg19
I00
sbsg12
I1
sg23
I01
sg24
g32
sbsg23
I00
sg24
g50
sbsg20
(imyEvolve
Tree
p94
(dp95
g7
(imyEvolve
Tree
p96
(dp97
g7
(imyEvolve
Tree
p98
(dp99
g12
I0
sg18
F1.2335923145933894
sg19
I01
sbsg12
I1
sg23
I01
sg24
g30
sbsg12
I2
sg23
I01
sg24
g43
sbsg23
I00
sg24
g31
sba(imyEvolve
Tree
p100
(dp101
g7
(imyEvolve
Tree
p102
(dp103
g7
(imyEvolve
Tree
p104
(dp105
g12
I1
sg13
(imyEvolve
Tree
p106
(dp107
g12
I0
sg18
F4.497016293138364
sg19
I01
sbsg20
(imyEvolve
Tree
p108
(dp109
g12
I0
sg18
F0.2282190481200752
sg19
I01
sbsg23
I00
sg24
g50
sbsg12
I2
sg23
I01
sg24
g89
sbsg12
I3
sg23
I01
sg24
g30
sba(imyEvolve
Tree
p110
(dp111
g7
(imyEvolve
Tree
p112
(dp113
g7
(imyEvolve
Tree
p114
(dp115
g12
I0
sg19
I00
sbsg12
I1
sg23
I01
sg24
g30
sbsg12
I2
sg23
I01
sg24
g43
sba(imyEvolve
Tree
p116
(dp117
g7
(imyEvolve
Tree
p118
(dp119
g12
I3
sg13
(imyEvolve
Tree
p120
(dp121
g12
I2
sg13
(imyEvolve
Tree
p122
(dp123
g7
(imyEvolve
Tree
p124
(dp125
g12
I0
sg19
I00
sbsg12
I1
sg23
I01
sg24
g30
sbsg20
(imyEvolve
Tree
p126
(dp127
g7
(imyEvolve
Tree
p128
(dp129
g12
I0
sg19
I00
sbsg12
I1
sg23
I01
sg24
g43
sbsg23
I00
sg24
g50
sbsg20
(imyEvolve
Tree
p130
(dp131
g7
(imyEvolve
Tree
p132
(dp133
g7
(imyEvolve
Tree
p134
(dp135
g12
I0
sg19
I00
sbsg12
I1
sg23
I01
sg24
g30
sbsg12
I2
sg23
I01
sg24
g30
sbsg23
I00
sg24
g50
sbsg12
I4
sg23
I01
sg24
g32
sba(imyEvolve
Tree
p136
(dp137
g7
(imyEvolve
Tree
p138
(dp139
g7
(imyEvolve
Tree
p140
(dp141
g7
(imyEvolve
Tree
p142
(dp143
g12
I0
sg18
F3.9424648762466177
sg19
I01
sbsg12
I1
sg23
I01
sg24
g30
sbsg12
I2
sg23
I01
sg24
g89
sbsg12
I3
sg23
I01
sg24
g32
sba(imyEvolve
Tree
p144
(dp145
g7
(imyEvolve
Tree
p146
(dp147
g7
(imyEvolve
Tree
p148
(dp149
g7
(imyEvolve
Tree
p150
(dp151
g7
(imyEvolve
Tree
p152
(dp153
g7
(imyEvolve
Tree
p154
(dp155
g12
I0
sg19
I00
sbsg12
I1
sg23
I01
sg24
g32
sbsg12
I2
sg23
I01
sg24
g89
sbsg12
I3
sg23
I01
sg24
g43
sbsg12
I4
sg23
I01
sg24
g30
sbsg12
I5
sg23
I01
sg24
g89
sba(imyEvolve
Tree
p156
(dp157
g7
(imyEvolve
Tree
p158
(dp159
g12
I4
sg13
(imyEvolve
Tree
p160
(dp161
g7
(imyEvolve
Tree
p162
(dp163
g7
(imyEvolve
Tree
p164
(dp165
g7
(imyEvolve
Tree
p166
(dp167
g12
I0
sg18
F-1.5286847873474452
sg19
I01
sbsg12
I1
sg23
I01
sg24
g30
sbsg12
I2
sg23
I01
sg24
g43
sbsg12
I3
sg23
I01
sg24
g43
sbsg20
(imyEvolve
Tree
p168
(dp169
g12
I3
sg13
(imyEvolve
Tree
p170
(dp171
g7
(imyEvolve
Tree
p172
(dp173
g7
(imyEvolve
Tree
p174
(dp175
g12
I0
sg18
F3.6244336032338946
sg19
I01
sbsg12
I1
sg23
I01
sg24
g30
sbsg12
I2
sg23
I01
sg24
g32
sbsg20
(imyEvolve
Tree
p176
(dp177
g7
(imyEvolve
Tree
p178
(dp179
g7
(imyEvolve
Tree
p180
(dp181
g12
I0
sg18
F-4.016517890895522
sg19
I01
sbsg12
I1
sg23
I01
sg24
g30
sbsg12
I2
sg23
I01
sg24
g89
sbsg23
I00
sg24
g25
sbsg23
I00
sg24
g31
sbsg12
I5
sg23
I01
sg24
g30
sba(imyEvolve
Tree
p182
(dp183
g12
I3
sg13
(imyEvolve
Tree
p184
(dp185
g12
I2
sg13
(imyEvolve
Tree
p186
(dp187
g12
I1
sg13
(imyEvolve
Tree
p188
(dp189
g12
I0
sg19
I00
sbsg20
(imyEvolve
Tree
p190
(dp191
g12
I0
sg18
F2.8464310654030793
sg19
I01
sbsg23
I00
sg24
g50
sbsg20
(imyEvolve
Tree
p192
(dp193
g7
(imyEvolve
Tree
p194
(dp195
g12
I0
sg18
F4.247167164833453
sg19
I01
sbsg12
I1
sg23
I01
sg24
g32
sbsg23
I00
sg24
g25
sbsg20
(imyEvolve
Tree
p196
(dp197
g7
(imyEvolve
Tree
p198
(dp199
g7
(imyEvolve
Tree
p200
(dp201
g12
I0
sg18
F4.846060233495402
sg19
I01
sbsg12
I1
sg23
I01
sg24
g30
sbsg12
I2
sg23
I01
sg24
g89
sbsg23
I00
sg24
g25
sba(imyEvolve
Tree
p202
(dp203
g7
(imyEvolve
Tree
p204
(dp205
g7
(imyEvolve
Tree
p206
(dp207
g7
(imyEvolve
Tree
p208
(dp209
g12
I0
sg18
F2.5221063716864736
sg19
I01
sbsg12
I1
sg23
I01
sg24
g89
sbsg12
I2
sg23
I01
sg24
g32
sbsg12
I3
sg23
I01
sg24
g32
sba(imyEvolve
Tree
p210
(dp211
g7
(imyEvolve
Tree
p212
(dp213
g7
(imyEvolve
Tree
p214
(dp215
g7
(imyEvolve
Tree
p216
(dp217
g7
(imyEvolve
Tree
p218
(dp219
g12
I0
sg18
F-3.989884951223596
sg19
I01
sbsg12
I1
sg23
I01
sg24
g30
sbsg12
I2
sg23
I01
sg24
g30
sbsg12
I3
sg23
I01
sg24
g30
sbsg12
I4
sg23
I01
sg24
g89
sba(imyEvolve
Tree
p220
(dp221
g7
(imyEvolve
Tree
p222
(dp223
g7
(imyEvolve
Tree
p224
(dp225
g12
I0
sg18
F-4.8587310788883435
sg19
I01
sbsg12
I1
sg23
I01
sg24
g30
sbsg12
I2
sg23
I01
sg24
g30
sba(imyEvolve
Tree
p226
(dp227
g12
I5
sg13
(imyEvolve
Tree
p228
(dp229
g7
(imyEvolve
Tree
p230
(dp231
g12
I3
sg13
(imyEvolve
Tree
p232
(dp233
g12
I2
sg13
(imyEvolve
Tree
p234
(dp235
g7
(imyEvolve
Tree
p236
(dp237
g12
I0
sg18
F-2.9743455856038805
sg19
I01
sbsg12
I1
sg23
I01
sg24
g89
sbsg20
(imyEvolve
Tree
p238
(dp239
g12
I1
sg13
(imyEvolve
Tree
p240
(dp241
g12
I0
sg19
I00
sbsg20
(imyEvolve
Tree
p242
(dp243
g12
I0
sg19
I00
sbsg23
I00
sg24
g50
sbsg23
I00
sg24
g25
sbsg20
(imyEvolve
Tree
p244
(dp245
g7
(imyEvolve
Tree
p246
(dp247
g12
I1
sg13
(imyEvolve
Tree
p248
(dp249
g12
I0
sg18
F-3.5768764968028144
sg19
I01
sbsg20
(imyEvolve
Tree
p250
(dp251
g12
I0
sg18
F0.625107267095407
sg19
I01
sbsg23
I00
sg24
g50
sbsg12
I2
sg23
I01
sg24
g43
sbsg23
I00
sg24
g25
sbsg12
I4
sg23
I01
sg24
g30
sbsg20
(imyEvolve
Tree
p252
(dp253
g7
(imyEvolve
Tree
p254
(dp255
g7
(imyEvolve
Tree
p256
(dp257
g7
(imyEvolve
Tree
p258
(dp259
g7
(imyEvolve
Tree
p260
(dp261
g12
I0
sg18
F2.3372357711141856
sg19
I01
sbsg12
I1
sg23
I01
sg24
g89
sbsg12
I2
sg23
I01
sg24
g32
sbsg12
I3
sg23
I01
sg24
g43
sbsg12
I4
sg23
I01
sg24
g32
sbsg23
I00
sg24
g31
sbaa(lp262
(imyEvolve
Tree
p263
(dp264
g7
(imyEvolve
Tree
p265
(dp266
g7
(imyEvolve
Tree
p267
(dp268
g12
I1
sg13
(imyEvolve
Tree
p269
(dp270
g12
I0
sg19
I00
sbsg20
(imyEvolve
Tree
p271
(dp272
g12
I0
sg18
F0.8365917798292717
sg19
I01
sbsg23
I00
sg24
g25
sbsg12
I2
sg23
I01
sg24
g89
sbsg12
I3
sg23
I01
sg24
g89
sba(imyEvolve
Tree
p273
(dp274
g12
I2
sg13
(imyEvolve
Tree
p275
(dp276
g7
(imyEvolve
Tree
p277
(dp278
g12
I0
sg18
F3.974784747491066
sg19
I01
sbsg12
I1
sg23
I01
sg24
g30
sbsg20
(imyEvolve
Tree
p279
(dp280
g7
(imyEvolve
Tree
p281
(dp282
g12
I0
sg19
I00
sbsg12
I1
sg23
I01
sg24
g32
sbsg23
I00
sg24
g31
sba(imyEvolve
Tree
p283
(dp284
g7
(imyEvolve
Tree
p285
(dp286
g12
I2
sg13
(imyEvolve
Tree
p287
(dp288
g7
(imyEvolve
Tree
p289
(dp290
g12
I0
sg18
F-1.1168179626740873
sg19
I01
sbsg12
I1
sg23
I01
sg24
g32
sbsg20
(imyEvolve
Tree
p291
(dp292
g7
(imyEvolve
Tree
p293
(dp294
g12
I0
sg19
I00
sbsg12
I1
sg23
I01
sg24
g43
sbsg23
I00
sg24
g25
sbsg12
I3
sg23
I01
sg24
g32
sba(imyEvolve
Tree
p295
(dp296
g7
(imyEvolve
Tree
p297
(dp298
g7
(imyEvolve
Tree
p299
(dp300
g12
I0
sg18
F1.6651246510479725
sg19
I01
sbsg12
I1
sg23
I01
sg24
g30
sbsg12
I2
sg23
I01
sg24
g30
sba(imyEvolve
Tree
p301
(dp302
g7
(imyEvolve
Tree
p303
(dp304
g7
(imyEvolve
Tree
p305
(dp306
g12
I0
sg19
I00
sbsg12
I1
sg23
I01
sg24
g89
sbsg12
I2
sg23
I01
sg24
g32
sba(imyEvolve
Tree
p307
(dp308
g12
I2
sg13
(imyEvolve
Tree
p309
(dp310
g7
(imyEvolve
Tree
p311
(dp312
g12
I0
sg18
F3.0556398252932624
sg19
I01
sbsg12
I1
sg23
I01
sg24
g30
sbsg20
(imyEvolve
Tree
p313
(dp314
g7
(imyEvolve
Tree
p315
(dp316
g12
I0
sg19
I00
sbsg12
I1
sg23
I01
sg24
g43
sbsg23
I00
sg24
g50
sba(imyEvolve
Tree
p317
(dp318
g7
(imyEvolve
Tree
p319
(dp320
g12
I3
sg13
(imyEvolve
Tree
p321
(dp322
g12
I2
sg13
(imyEvolve
Tree
p323
(dp324
g12
I1
sg13
(imyEvolve
Tree
p325
(dp326
g12
I0
sg19
I00
sbsg20
(imyEvolve
Tree
p327
(dp328
g12
I0
sg18
F-1.841094639195071
sg19
I01
sbsg23
I00
sg24
g50
sbsg20
(imyEvolve
Tree
p329
(dp330
g7
(imyEvolve
Tree
p331
(dp332
g12
I0
sg18
F-2.992409534088354
sg19
I01
sbsg12
I1
sg23
I01
sg24
g30
sbsg23
I00
sg24
g25
sbsg20
(imyEvolve
Tree
p333
(dp334
g7
(imyEvolve
Tree
p335
(dp336
g12
I1
sg13
(imyEvolve
Tree
p337
(dp338
g12
I0
sg19
I00
sbsg20
(imyEvolve
Tree
p339
(dp340
g12
I0
sg19
I00
sbsg23
I00
sg24
g31
sbsg12
I2
sg23
I01
sg24
g89
sbsg23
I00
sg24
g31
sbsg12
I4
sg23
I01
sg24
g43
sba(imyEvolve
Tree
p341
(dp342
g12
I4
sg13
(imyEvolve
Tree
p343
(dp344
g7
(imyEvolve
Tree
p345
(dp346
g7
(imyEvolve
Tree
p347
(dp348
g12
I1
sg13
(imyEvolve
Tree
p349
(dp350
g12
I0
sg19
I00
sbsg20
(imyEvolve
Tree
p351
(dp352
g12
I0
sg18
F-0.14851418406557482
sg19
I01
sbsg23
I00
sg24
g31
sbsg12
I2
sg23
I01
sg24
g89
sbsg12
I3
sg23
I01
sg24
g43
sbsg20
(imyEvolve
Tree
p353
(dp354
g7
(imyEvolve
Tree
p355
(dp356
g12
I2
sg13
(imyEvolve
Tree
p357
(dp358
g12
I1
sg13
(imyEvolve
Tree
p359
(dp360
g12
I0
sg18
F-3.997181862585928
sg19
I01
sbsg20
(imyEvolve
Tree
p361
(dp362
g12
I0
sg18
F-1.2171242707935583
sg19
I01
sbsg23
I00
sg24
g31
sbsg20
(imyEvolve
Tree
p363
(dp364
g12
I1
sg13
(imyEvolve
Tree
p365
(dp366
g12
I0
sg19
I00
sbsg20
(imyEvolve
Tree
p367
(dp368
g12
I0
sg18
F-3.942355360992992
sg19
I01
sbsg23
I00
sg24
g25
sbsg23
I00
sg24
g31
sbsg12
I3
sg23
I01
sg24
g43
sbsg23
I00
sg24
g31
sba(imyEvolve
Tree
p369
(dp370
g7
(imyEvolve
Tree
p371
(dp372
g7
(imyEvolve
Tree
p373
(dp374
g12
I0
sg18
F-1.4415466705729605
sg19
I01
sbsg12
I1
sg23
I01
sg24
g32
sbsg12
I2
sg23
I01
sg24
g30
sba(imyEvolve
Tree
p375
(dp376
g7
(imyEvolve
Tree
p377
(dp378
g12
I4
sg13
(imyEvolve
Tree
p379
(dp380
g12
I3
sg13
(imyEvolve
Tree
p381
(dp382
g7
(imyEvolve
Tree
p383
(dp384
g7
(imyEvolve
Tree
p385
(dp386
g12
I0
sg18
F1.2336042717471463
sg19
I01
sbsg12
I1
sg23
I01
sg24
g89
sbsg12
I2
sg23
I01
sg24
g32
sbsg20
(imyEvolve
Tree
p387
(dp388
g7
(imyEvolve
Tree
p389
(dp390
g12
I1
sg13
(imyEvolve
Tree
p391
(dp392
g12
I0
sg19
I00
sbsg20
(imyEvolve
Tree
p393
(dp394
g12
I0
sg18
F1.851979537235958
sg19
I01
sbsg23
I00
sg24
g31
sbsg12
I2
sg23
I01
sg24
g30
sbsg23
I00
sg24
g31
sbsg20
(imyEvolve
Tree
p395
(dp396
g12
I3
sg13
(imyEvolve
Tree
p397
(dp398
g12
I2
sg13
(imyEvolve
Tree
p399
(dp400
g7
(imyEvolve
Tree
p401
(dp402
g12
I0
sg19
I00
sbsg12
I1
sg23
I01
sg24
g30
sbsg20
(imyEvolve
Tree
p403
(dp404
g12
I1
sg13
(imyEvolve
Tree
p405
(dp406
g12
I0
sg18
F3.6019107906462224
sg19
I01
sbsg20
(imyEvolve
Tree
p407
(dp408
g12
I0
sg18
F3.9167081698921464
sg19
I01
sbsg23
I00
sg24
g31
sbsg23
I00
sg24
g50
sbsg20
(imyEvolve
Tree
p409
(dp410
g7
(imyEvolve
Tree
p411
(dp412
g7
(imyEvolve
Tree
p413
(dp414
g12
I0
sg18
F-1.1860207946687797
sg19
I01
sbsg12
I1
sg23
I01
sg24
g43
sbsg12
I2
sg23
I01
sg24
g43
sbsg23
I00
sg24
g25
sbsg23
I00
sg24
g31
sbsg12
I5
sg23
I01
sg24
g89
sba(imyEvolve
Tree
p415
(dp416
g7
(imyEvolve
Tree
p417
(dp418
g7
(imyEvolve
Tree
p419
(dp420
g12
I2
sg13
(imyEvolve
Tree
p421
(dp422
g12
I1
sg13
(imyEvolve
Tree
p423
(dp424
g12
I0
sg19
I00
sbsg20
(imyEvolve
Tree
p425
(dp426
g12
I0
sg19
I00
sbsg23
I00
sg24
g31
sbsg20
(imyEvolve
Tree
p427
(dp428
g12
I1
sg13
(imyEvolve
Tree
p429
(dp430
g12
I0
sg18
F-1.2186104435548062
sg19
I01
sbsg20
(imyEvolve
Tree
p431
(dp432
g12
I0
sg19
I00
sbsg23
I00
sg24
g25
sbsg23
I00
sg24
g25
sbsg12
I3
sg23
I01
sg24
g30
sbsg12
I4
sg23
I01
sg24
g43
sba(imyEvolve
Tree
p433
(dp434
g7
(imyEvolve
Tree
p435
(dp436
g12
I4
sg13
(imyEvolve
Tree
p437
(dp438
g12
I3
sg13
(imyEvolve
Tree
p439
(dp440
g12
I2
sg13
(imyEvolve
Tree
p441
(dp442
g12
I1
sg13
(imyEvolve
Tree
p443
(dp444
g12
I0
sg18
F3.2119458012983912
sg19
I01
sbsg20
(imyEvolve
Tree
p445
(dp446
g12
I0
sg18
F-1.235180186912622
sg19
I01
sbsg23
I00
sg24
g31
sbsg20
(imyEvolve
Tree
p447
(dp448
g12
I1
sg13
(imyEvolve
Tree
p449
(dp450
g12
I0
sg19
I00
sbsg20
(imyEvolve
Tree
p451
(dp452
g12
I0
sg18
F4.421284967355671
sg19
I01
sbsg23
I00
sg24
g31
sbsg23
I00
sg24
g25
sbsg20
(imyEvolve
Tree
p453
(dp454
g12
I2
sg13
(imyEvolve
Tree
p455
(dp456
g12
I1
sg13
(imyEvolve
Tree
p457
(dp458
g12
I0
sg18
F-0.732078233011503
sg19
I01
sbsg20
(imyEvolve
Tree
p459
(dp460
g12
I0
sg19
I00
sbsg23
I00
sg24
g25
sbsg20
(imyEvolve
Tree
p461
(dp462
g7
(imyEvolve
Tree
p463
(dp464
g12
I0
sg18
F2.9669739574875544
sg19
I01
sbsg12
I1
sg23
I01
sg24
g89
sbsg23
I00
sg24
g50
sbsg23
I00
sg24
g50
sbsg20
(imyEvolve
Tree
p465
(dp466
g7
(imyEvolve
Tree
p467
(dp468
g12
I2
sg13
(imyEvolve
Tree
p469
(dp470
g7
(imyEvolve
Tree
p471
(dp472
g12
I0
sg19
I00
sbsg12
I1
sg23
I01
sg24
g89
sbsg20
(imyEvolve
Tree
p473
(dp474
g7
(imyEvolve
Tree
p475
(dp476
g12
I0
sg18
F0.7499876423443368
sg19
I01
sbsg12
I1
sg23
I01
sg24
g43
sbsg23
I00
sg24
g31
sbsg12
I3
sg23
I01
sg24
g89
sbsg23
I00
sg24
g25
sbsg12
I5
sg23
I01
sg24
g30
sba(imyEvolve
Tree
p477
(dp478
g7
(imyEvolve
Tree
p479
(dp480
g7
(imyEvolve
Tree
p481
(dp482
g12
I0
sg18
F-3.5135333819848027
sg19
I01
sbsg12
I1
sg23
I01
sg24
g43
sbsg12
I2
sg23
I01
sg24
g43
sba(imyEvolve
Tree
p483
(dp484
g7
(imyEvolve
Tree
p485
(dp486
g12
I4
sg13
(imyEvolve
Tree
p487
(dp488
g12
I3
sg13
(imyEvolve
Tree
p489
(dp490
g7
(imyEvolve
Tree
p491
(dp492
g12
I1
sg13
(imyEvolve
Tree
p493
(dp494
g12
I0
sg19
I00
sbsg20
(imyEvolve
Tree
p495
(dp496
g12
I0
sg19
I00
sbsg23
I00
sg24
g50
sbsg12
I2
sg23
I01
sg24
g32
sbsg20
(imyEvolve
Tree
p497
(dp498
g7
(imyEvolve
Tree
p499
(dp500
g7
(imyEvolve
Tree
p501
(dp502
g12
I0
sg18
F2.6726500594669336
sg19
I01
sbsg12
I1
sg23
I01
sg24
g32
sbsg12
I2
sg23
I01
sg24
g32
sbsg23
I00
sg24
g31
sbsg20
(imyEvolve
Tree
p503
(dp504
g7
(imyEvolve
Tree
p505
(dp506
g7
(imyEvolve
Tree
p507
(dp508
g12
I1
sg13
(imyEvolve
Tree
p509
(dp510
g12
I0
sg18
F4.809388307633151
sg19
I01
sbsg20
(imyEvolve
Tree
p511
(dp512
g12
I0
sg18
F1.3213089522828172
sg19
I01
sbsg23
I00
sg24
g25
sbsg12
I2
sg23
I01
sg24
g89
sbsg12
I3
sg23
I01
sg24
g89
sbsg23
I00
sg24
g50
sbsg12
I5
sg23
I01
sg24
g30
sba(imyEvolve
Tree
p513
(dp514
g7
(imyEvolve
Tree
p515
(dp516
g7
(imyEvolve
Tree
p517
(dp518
g12
I1
sg13
(imyEvolve
Tree
p519
(dp520
g12
I0
sg19
I00
sbsg20
(imyEvolve
Tree
p521
(dp522
g12
I0
sg19
I00
sbsg23
I00
sg24
g50
sbsg12
I2
sg23
I01
sg24
g30
sbsg12
I3
sg23
I01
sg24
g89
sba(imyEvolve
Tree
p523
(dp524
g12
I3
sg13
(imyEvolve
Tree
p525
(dp526
g7
(imyEvolve
Tree
p527
(dp528
g7
(imyEvolve
Tree
p529
(dp530
g12
I0
sg18
F3.1813579674737102
sg19
I01
sbsg12
I1
sg23
I01
sg24
g89
sbsg12
I2
sg23
I01
sg24
g43
sbsg20
(imyEvolve
Tree
p531
(dp532
g12
I2
sg13
(imyEvolve
Tree
p533
(dp534
g7
(imyEvolve
Tree
p535
(dp536
g12
I0
sg19
I00
sbsg12
I1
sg23
I01
sg24
g89
sbsg20
(imyEvolve
Tree
p537
(dp538
g7
(imyEvolve
Tree
p539
(dp540
g12
I0
sg18
F1.296368715750008
sg19
I01
sbsg12
I1
sg23
I01
sg24
g32
sbsg23
I00
sg24
g31
sbsg23
I00
sg24
g50
sba(imyEvolve
Tree
p541
(dp542
g7
(imyEvolve
Tree
p543
(dp544
g12
I1
sg13
(imyEvolve
Tree
p545
(dp546
g12
I0
sg18
F-0.4127790538891851
sg19
I01
sbsg20
(imyEvolve
Tree
p547
(dp548
g12
I0
sg19
I00
sbsg23
I00
sg24
g31
sbsg12
I2
sg23
I01
sg24
g89
sbaasS'weightSharing'
p549
(lp550
I00
aI00
asS'fitnessValid'
p551
I00
sS'fitness'
p552
cnumpy.core.multiarray
scalar
p553
(cnumpy
dtype
p554
(S'f8'
p555
I0
I1
tp556
Rp557
(I3
S'<'
p558
NNNI-1
I-1
I0
tp559
bS'\x00\x02\x9a\x08\x9d\x13l?'
p560
tp561
Rp562
sS'alpha'
p563
F0.005191734986731201
sS'resolution'
p564
I53
sb.