(imyEvolve
Individual
p0
(dp1
S'funcs'
p2
(lp3
(lp4
(imyEvolve
Tree
p5
(dp6
S'depth'
p7
I4
sS'left'
p8
(imyEvolve
Tree
p9
(dp10
S'below'
p11
(imyEvolve
Tree
p12
(dp13
g11
(imyEvolve
Tree
p14
(dp15
g7
I1
sg8
(imyEvolve
Tree
p16
(dp17
g7
I0
sS'constant'
p18
F-4.40704258317406
sS'isConstant'
p19
I01
sbsS'right'
p20
(imyEvolve
Tree
p21
(dp22
g7
I0
sg18
F2.8847814371799956
sg19
I01
sbsS'single'
p23
I00
sS'op'
p24
coperator
sub
p25
sbsg7
I2
sg23
I01
sg24
cmath
cos
p26
sbsg7
I3
sg23
I01
sg24
cmath
sin
p27
sbsg20
(imyEvolve
Tree
p28
(dp29
g11
(imyEvolve
Tree
p30
(dp31
g7
I2
sg8
(imyEvolve
Tree
p32
(dp33
g7
I1
sg8
(imyEvolve
Tree
p34
(dp35
g7
I0
sg18
F0.5269401125746391
sg19
I01
sbsg20
(imyEvolve
Tree
p36
(dp37
g7
I0
sg19
I00
sbsg23
I00
sg24
g25
sbsg20
(imyEvolve
Tree
p38
(dp39
g11
(imyEvolve
Tree
p40
(dp41
g7
I0
sg18
F-3.504492126209727
sg19
I01
sbsg7
I1
sg23
I01
sg24
cmyEvolve
absSqrt
p42
sbsg23
I00
sg24
g25
sbsg7
I3
sg23
I01
sg24
cmyEvolve
square
p43
sbsg23
I00
sg24
coperator
add
p44
sba(imyEvolve
Tree
p45
(dp46
g11
(imyEvolve
Tree
p47
(dp48
g7
I1
sg8
(imyEvolve
Tree
p49
(dp50
g7
I0
sg18
F1.3613610516954342
sg19
I01
sbsg20
(imyEvolve
Tree
p51
(dp52
g7
I0
sg18
F1.204452338504959
sg19
I01
sbsg23
I00
sg24
g25
sbsg7
I2
sg23
I01
sg24
g26
sba(imyEvolve
Tree
p53
(dp54
g7
I3
sg8
(imyEvolve
Tree
p55
(dp56
g7
I2
sg8
(imyEvolve
Tree
p57
(dp58
g11
(imyEvolve
Tree
p59
(dp60
g7
I0
sg19
I00
sbsg7
I1
sg23
I01
sg24
g27
sbsg20
(imyEvolve
Tree
p61
(dp62
g11
(imyEvolve
Tree
p63
(dp64
g7
I0
sg18
F-2.189559361314993
sg19
I01
sbsg7
I1
sg23
I01
sg24
g27
sbsg23
I00
sg24
coperator
mul
p65
sbsg20
(imyEvolve
Tree
p66
(dp67
g11
(imyEvolve
Tree
p68
(dp69
g11
(imyEvolve
Tree
p70
(dp71
g7
I0
sg18
F4.529298072497051
sg19
I01
sbsg7
I1
sg23
I01
sg24
g26
sbsg7
I2
sg23
I01
sg24
g27
sbsg23
I00
sg24
g44
sba(imyEvolve
Tree
p72
(dp73
g7
I5
sg8
(imyEvolve
Tree
p74
(dp75
g7
I4
sg8
(imyEvolve
Tree
p76
(dp77
g7
I3
sg8
(imyEvolve
Tree
p78
(dp79
g11
(imyEvolve
Tree
p80
(dp81
g11
(imyEvolve
Tree
p82
(dp83
g7
I0
sg18
F1.954593603475148
sg19
I01
sbsg7
I1
sg23
I01
sg24
g27
sbsg7
I2
sg23
I01
sg24
g43
sbsg20
(imyEvolve
Tree
p84
(dp85
g11
(imyEvolve
Tree
p86
(dp87
g7
I1
sg8
(imyEvolve
Tree
p88
(dp89
g7
I0
sg19
I00
sbsg20
(imyEvolve
Tree
p90
(dp91
g7
I0
sg19
I00
sbsg23
I00
sg24
g44
sbsg7
I2
sg23
I01
sg24
g26
sbsg23
I00
sg24
g65
sbsg20
(imyEvolve
Tree
p92
(dp93
g11
(imyEvolve
Tree
p94
(dp95
g11
(imyEvolve
Tree
p96
(dp97
g11
(imyEvolve
Tree
p98
(dp99
g7
I0
sg18
F1.3085733359832687
sg19
I01
sbsg7
I1
sg23
I01
sg24
g27
sbsg7
I2
sg23
I01
sg24
g42
sbsg7
I3
sg23
I01
sg24
g27
sbsg23
I00
sg24
g44
sbsg20
(imyEvolve
Tree
p100
(dp101
g7
I4
sg8
(imyEvolve
Tree
p102
(dp103
g7
I3
sg8
(imyEvolve
Tree
p104
(dp105
g7
I2
sg8
(imyEvolve
Tree
p106
(dp107
g7
I1
sg8
(imyEvolve
Tree
p108
(dp109
g7
I0
sg19
I00
sbsg20
(imyEvolve
Tree
p110
(dp111
g7
I0
sg19
I00
sbsg23
I00
sg24
g65
sbsg20
(imyEvolve
Tree
p112
(dp113
g11
(imyEvolve
Tree
p114
(dp115
g7
I0
sg19
I00
sbsg7
I1
sg23
I01
sg24
g43
sbsg23
I00
sg24
g25
sbsg20
(imyEvolve
Tree
p116
(dp117
g11
(imyEvolve
Tree
p118
(dp119
g7
I1
sg8
(imyEvolve
Tree
p120
(dp121
g7
I0
sg18
F-3.166398367007112
sg19
I01
sbsg20
(imyEvolve
Tree
p122
(dp123
g7
I0
sg19
I00
sbsg23
I00
sg24
g25
sbsg7
I2
sg23
I01
sg24
g26
sbsg23
I00
sg24
g25
sbsg20
(imyEvolve
Tree
p124
(dp125
g11
(imyEvolve
Tree
p126
(dp127
g11
(imyEvolve
Tree
p128
(dp129
g11
(imyEvolve
Tree
p130
(dp131
g7
I0
sg18
F1.147379909249418
sg19
I01
sbsg7
I1
sg23
I01
sg24
g27
sbsg7
I2
sg23
I01
sg24
g27
sbsg7
I3
sg23
I01
sg24
g42
sbsg23
I00
sg24
g25
sbsg23
I00
sg24
g65
sba(imyEvolve
Tree
p132
(dp133
g11
(imyEvolve
Tree
p134
(dp135
g11
(imyEvolve
Tree
p136
(dp137
g7
I2
sg8
(imyEvolve
Tree
p138
(dp139
g11
(imyEvolve
Tree
p140
(dp141
g7
I0
sg18
F3.331049732447349
sg19
I01
sbsg7
I1
sg23
I01
sg24
g42
sbsg20
(imyEvolve
Tree
p142
(dp143
g7
I1
sg8
(imyEvolve
Tree
p144
(dp145
g7
I0
sg19
I00
sbsg20
(imyEvolve
Tree
p146
(dp147
g7
I0
sg19
I00
sbsg23
I00
sg24
g44
sbsg23
I00
sg24
g44
sbsg7
I3
sg23
I01
sg24
g27
sbsg7
I4
sg23
I01
sg24
g42
sba(imyEvolve
Tree
p148
(dp149
g7
I4
sg8
(imyEvolve
Tree
p150
(dp151
g7
I3
sg8
(imyEvolve
Tree
p152
(dp153
g11
(imyEvolve
Tree
p154
(dp155
g7
I1
sg8
(imyEvolve
Tree
p156
(dp157
g7
I0
sg18
F0.7638447440098588
sg19
I01
sbsg20
(imyEvolve
Tree
p158
(dp159
g7
I0
sg19
I00
sbsg23
I00
sg24
g65
sbsg7
I2
sg23
I01
sg24
g42
sbsg20
(imyEvolve
Tree
p160
(dp161
g11
(imyEvolve
Tree
p162
(dp163
g11
(imyEvolve
Tree
p164
(dp165
g7
I0
sg18
F-3.248063661096441
sg19
I01
sbsg7
I1
sg23
I01
sg24
g43
sbsg7
I2
sg23
I01
sg24
g42
sbsg23
I00
sg24
g25
sbsg20
(imyEvolve
Tree
p166
(dp167
g7
I3
sg8
(imyEvolve
Tree
p168
(dp169
g7
I2
sg8
(imyEvolve
Tree
p170
(dp171
g11
(imyEvolve
Tree
p172
(dp173
g7
I0
sg18
F-3.2161550770443803
sg19
I01
sbsg7
I1
sg23
I01
sg24
g42
sbsg20
(imyEvolve
Tree
p174
(dp175
g7
I1
sg8
(imyEvolve
Tree
p176
(dp177
g7
I0
sg18
F4.048279621420965
sg19
I01
sbsg20
(imyEvolve
Tree
p178
(dp179
g7
I0
sg19
I00
sbsg23
I00
sg24
g44
sbsg23
I00
sg24
g44
sbsg20
(imyEvolve
Tree
p180
(dp181
g11
(imyEvolve
Tree
p182
(dp183
g7
I1
sg8
(imyEvolve
Tree
p184
(dp185
g7
I0
sg18
F4.722497708651456
sg19
I01
sbsg20
(imyEvolve
Tree
p186
(dp187
g7
I0
sg18
F-0.5778323360715589
sg19
I01
sbsg23
I00
sg24
g44
sbsg7
I2
sg23
I01
sg24
g27
sbsg23
I00
sg24
g65
sbsg23
I00
sg24
g25
sba(imyEvolve
Tree
p188
(dp189
g7
I4
sg8
(imyEvolve
Tree
p190
(dp191
g7
I3
sg8
(imyEvolve
Tree
p192
(dp193
g7
I2
sg8
(imyEvolve
Tree
p194
(dp195
g11
(imyEvolve
Tree
p196
(dp197
g7
I0
sg18
F-0.7618141458915613
sg19
I01
sbsg7
I1
sg23
I01
sg24
g27
sbsg20
(imyEvolve
Tree
p198
(dp199
g11
(imyEvolve
Tree
p200
(dp201
g7
I0
sg19
I00
sbsg7
I1
sg23
I01
sg24
g26
sbsg23
I00
sg24
g25
sbsg20
(imyEvolve
Tree
p202
(dp203
g7
I2
sg8
(imyEvolve
Tree
p204
(dp205
g11
(imyEvolve
Tree
p206
(dp207
g7
I0
sg19
I00
sbsg7
I1
sg23
I01
sg24
g42
sbsg20
(imyEvolve
Tree
p208
(dp209
g7
I1
sg8
(imyEvolve
Tree
p210
(dp211
g7
I0
sg18
F-0.8161618556538306
sg19
I01
sbsg20
(imyEvolve
Tree
p212
(dp213
g7
I0
sg19
I00
sbsg23
I00
sg24
g25
sbsg23
I00
sg24
g65
sbsg23
I00
sg24
g65
sbsg20
(imyEvolve
Tree
p214
(dp215
g11
(imyEvolve
Tree
p216
(dp217
g7
I2
sg8
(imyEvolve
Tree
p218
(dp219
g7
I1
sg8
(imyEvolve
Tree
p220
(dp221
g7
I0
sg18
F3.2249453058914597
sg19
I01
sbsg20
(imyEvolve
Tree
p222
(dp223
g7
I0
sg18
F-4.368344712064312
sg19
I01
sbsg23
I00
sg24
g44
sbsg20
(imyEvolve
Tree
p224
(dp225
g11
(imyEvolve
Tree
p226
(dp227
g7
I0
sg18
F-0.8614549747351585
sg19
I01
sbsg7
I1
sg23
I01
sg24
g26
sbsg23
I00
sg24
g65
sbsg7
I3
sg23
I01
sg24
g42
sbsg23
I00
sg24
g65
sba(imyEvolve
Tree
p228
(dp229
g7
I4
sg8
(imyEvolve
Tree
p230
(dp231
g11
(imyEvolve
Tree
p232
(dp233
g11
(imyEvolve
Tree
p234
(dp235
g7
I1
sg8
(imyEvolve
Tree
p236
(dp237
g7
I0
sg19
I00
sbsg20
(imyEvolve
Tree
p238
(dp239
g7
I0
sg18
F-2.7350025888806515
sg19
I01
sbsg23
I00
sg24
g25
sbsg7
I2
sg23
I01
sg24
g42
sbsg7
I3
sg23
I01
sg24
g27
sbsg20
(imyEvolve
Tree
p240
(dp241
g7
I3
sg8
(imyEvolve
Tree
p242
(dp243
g7
I2
sg8
(imyEvolve
Tree
p244
(dp245
g7
I1
sg8
(imyEvolve
Tree
p246
(dp247
g7
I0
sg18
F-3.9074831389332765
sg19
I01
sbsg20
(imyEvolve
Tree
p248
(dp249
g7
I0
sg19
I00
sbsg23
I00
sg24
g44
sbsg20
(imyEvolve
Tree
p250
(dp251
g11
(imyEvolve
Tree
p252
(dp253
g7
I0
sg18
F-4.242986112372462
sg19
I01
sbsg7
I1
sg23
I01
sg24
g27
sbsg23
I00
sg24
g65
sbsg20
(imyEvolve
Tree
p254
(dp255
g7
I2
sg8
(imyEvolve
Tree
p256
(dp257
g11
(imyEvolve
Tree
p258
(dp259
g7
I0
sg19
I00
sbsg7
I1
sg23
I01
sg24
g26
sbsg20
(imyEvolve
Tree
p260
(dp261
g11
(imyEvolve
Tree
p262
(dp263
g7
I0
sg18
F-3.102529302912571
sg19
I01
sbsg7
I1
sg23
I01
sg24
g26
sbsg23
I00
sg24
g25
sbsg23
I00
sg24
g65
sbsg23
I00
sg24
g25
sba(imyEvolve
Tree
p264
(dp265
g7
I3
sg8
(imyEvolve
Tree
p266
(dp267
g11
(imyEvolve
Tree
p268
(dp269
g7
I1
sg8
(imyEvolve
Tree
p270
(dp271
g7
I0
sg18
F0.48729892962697363
sg19
I01
sbsg20
(imyEvolve
Tree
p272
(dp273
g7
I0
sg19
I00
sbsg23
I00
sg24
g44
sbsg7
I2
sg23
I01
sg24
g26
sbsg20
(imyEvolve
Tree
p274
(dp275
g7
I2
sg8
(imyEvolve
Tree
p276
(dp277
g7
I1
sg8
(imyEvolve
Tree
p278
(dp279
g7
I0
sg18
F3.3785284137067286
sg19
I01
sbsg20
(imyEvolve
Tree
p280
(dp281
g7
I0
sg18
F-0.3661677232084948
sg19
I01
sbsg23
I00
sg24
g65
sbsg20
(imyEvolve
Tree
p282
(dp283
g7
I1
sg8
(imyEvolve
Tree
p284
(dp285
g7
I0
sg18
F-2.5456558072029125
sg19
I01
sbsg20
(imyEvolve
Tree
p286
(dp287
g7
I0
sg18
F2.7156509662578685
sg19
I01
sbsg23
I00
sg24
g65
sbsg23
I00
sg24
g44
sbsg23
I00
sg24
g65
sba(imyEvolve
Tree
p288
(dp289
g11
(imyEvolve
Tree
p290
(dp291
g7
I3
sg8
(imyEvolve
Tree
p292
(dp293
g7
I2
sg8
(imyEvolve
Tree
p294
(dp295
g7
I1
sg8
(imyEvolve
Tree
p296
(dp297
g7
I0
sg18
F4.3717306903671425
sg19
I01
sbsg20
(imyEvolve
Tree
p298
(dp299
g7
I0
sg18
F-4.943522223217266
sg19
I01
sbsg23
I00
sg24
g44
sbsg20
(imyEvolve
Tree
p300
(dp301
g7
I1
sg8
(imyEvolve
Tree
p302
(dp303
g7
I0
sg19
I00
sbsg20
(imyEvolve
Tree
p304
(dp305
g7
I0
sg18
F-4.490472369459973
sg19
I01
sbsg23
I00
sg24
g65
sbsg23
I00
sg24
g44
sbsg20
(imyEvolve
Tree
p306
(dp307
g11
(imyEvolve
Tree
p308
(dp309
g7
I1
sg8
(imyEvolve
Tree
p310
(dp311
g7
I0
sg18
F-3.65266228790838
sg19
I01
sbsg20
(imyEvolve
Tree
p312
(dp313
g7
I0
sg19
I00
sbsg23
I00
sg24
g44
sbsg7
I2
sg23
I01
sg24
g27
sbsg23
I00
sg24
g65
sbsg7
I4
sg23
I01
sg24
g43
sba(imyEvolve
Tree
p314
(dp315
g7
I4
sg8
(imyEvolve
Tree
p316
(dp317
g7
I3
sg8
(imyEvolve
Tree
p318
(dp319
g7
I2
sg8
(imyEvolve
Tree
p320
(dp321
g7
I1
sg8
(imyEvolve
Tree
p322
(dp323
g7
I0
sg19
I00
sbsg20
(imyEvolve
Tree
p324
(dp325
g7
I0
sg18
F-4.64883518933691
sg19
I01
sbsg23
I00
sg24
g25
sbsg20
(imyEvolve
Tree
p326
(dp327
g7
I1
sg8
(imyEvolve
Tree
p328
(dp329
g7
I0
sg19
I00
sbsg20
(imyEvolve
Tree
p330
(dp331
g7
I0
sg19
I00
sbsg23
I00
sg24
g44
sbsg23
I00
sg24
g44
sbsg20
(imyEvolve
Tree
p332
(dp333
g11
(imyEvolve
Tree
p334
(dp335
g7
I1
sg8
(imyEvolve
Tree
p336
(dp337
g7
I0
sg19
I00
sbsg20
(imyEvolve
Tree
p338
(dp339
g7
I0
sg19
I00
sbsg23
I00
sg24
g44
sbsg7
I2
sg23
I01
sg24
g43
sbsg23
I00
sg24
g25
sbsg20
(imyEvolve
Tree
p340
(dp341
g11
(imyEvolve
Tree
p342
(dp343
g11
(imyEvolve
Tree
p344
(dp345
g11
(imyEvolve
Tree
p346
(dp347
g7
I0
sg19
I00
sbsg7
I1
sg23
I01
sg24
g43
sbsg7
I2
sg23
I01
sg24
g27
sbsg7
I3
sg23
I01
sg24
g27
sbsg23
I00
sg24
g25
sba(imyEvolve
Tree
p348
(dp349
g11
(imyEvolve
Tree
p350
(dp351
g7
I4
sg8
(imyEvolve
Tree
p352
(dp353
g11
(imyEvolve
Tree
p354
(dp355
g11
(imyEvolve
Tree
p356
(dp357
g7
I1
sg8
(imyEvolve
Tree
p358
(dp359
g7
I0
sg18
F2.327219928893715
sg19
I01
sbsg20
(imyEvolve
Tree
p360
(dp361
g7
I0
sg19
I00
sbsg23
I00
sg24
g65
sbsg7
I2
sg23
I01
sg24
g43
sbsg7
I3
sg23
I01
sg24
g42
sbsg20
(imyEvolve
Tree
p362
(dp363
g11
(imyEvolve
Tree
p364
(dp365
g11
(imyEvolve
Tree
p366
(dp367
g11
(imyEvolve
Tree
p368
(dp369
g7
I0
sg18
F1.7656245392995764
sg19
I01
sbsg7
I1
sg23
I01
sg24
g26
sbsg7
I2
sg23
I01
sg24
g42
sbsg7
I3
sg23
I01
sg24
g42
sbsg23
I00
sg24
g65
sbsg7
I5
sg23
I01
sg24
g43
sba(imyEvolve
Tree
p370
(dp371
g11
(imyEvolve
Tree
p372
(dp373
g11
(imyEvolve
Tree
p374
(dp375
g7
I1
sg8
(imyEvolve
Tree
p376
(dp377
g7
I0
sg19
I00
sbsg20
(imyEvolve
Tree
p378
(dp379
g7
I0
sg19
I00
sbsg23
I00
sg24
g44
sbsg7
I2
sg23
I01
sg24
g42
sbsg7
I3
sg23
I01
sg24
g43
sba(imyEvolve
Tree
p380
(dp381
g7
I2
sg8
(imyEvolve
Tree
p382
(dp383
g7
I1
sg8
(imyEvolve
Tree
p384
(dp385
g7
I0
sg19
I00
sbsg20
(imyEvolve
Tree
p386
(dp387
g7
I0
sg19
I00
sbsg23
I00
sg24
g25
sbsg20
(imyEvolve
Tree
p388
(dp389
g11
(imyEvolve
Tree
p390
(dp391
g7
I0
sg19
I00
sbsg7
I1
sg23
I01
sg24
g27
sbsg23
I00
sg24
g25
sba(imyEvolve
Tree
p392
(dp393
g7
I4
sg8
(imyEvolve
Tree
p394
(dp395
g7
I3
sg8
(imyEvolve
Tree
p396
(dp397
g7
I2
sg8
(imyEvolve
Tree
p398
(dp399
g7
I1
sg8
(imyEvolve
Tree
p400
(dp401
g7
I0
sg19
I00
sbsg20
(imyEvolve
Tree
p402
(dp403
g7
I0
sg18
F2.454396088353464
sg19
I01
sbsg23
I00
sg24
g44
sbsg20
(imyEvolve
Tree
p404
(dp405
g7
I1
sg8
(imyEvolve
Tree
p406
(dp407
g7
I0
sg18
F-1.8670123208024423
sg19
I01
sbsg20
(imyEvolve
Tree
p408
(dp409
g7
I0
sg18
F0.8677369279617428
sg19
I01
sbsg23
I00
sg24
g25
sbsg23
I00
sg24
g65
sbsg20
(imyEvolve
Tree
p410
(dp411
g7
I2
sg8
(imyEvolve
Tree
p412
(dp413
g11
(imyEvolve
Tree
p414
(dp415
g7
I0
sg19
I00
sbsg7
I1
sg23
I01
sg24
g26
sbsg20
(imyEvolve
Tree
p416
(dp417
g7
I1
sg8
(imyEvolve
Tree
p418
(dp419
g7
I0
sg19
I00
sbsg20
(imyEvolve
Tree
p420
(dp421
g7
I0
sg18
F-3.2450324625362392
sg19
I01
sbsg23
I00
sg24
g44
sbsg23
I00
sg24
g44
sbsg23
I00
sg24
g44
sbsg20
(imyEvolve
Tree
p422
(dp423
g11
(imyEvolve
Tree
p424
(dp425
g7
I2
sg8
(imyEvolve
Tree
p426
(dp427
g11
(imyEvolve
Tree
p428
(dp429
g7
I0
sg18
F3.5024892603021627
sg19
I01
sbsg7
I1
sg23
I01
sg24
g27
sbsg20
(imyEvolve
Tree
p430
(dp431
g11
(imyEvolve
Tree
p432
(dp433
g7
I0
sg19
I00
sbsg7
I1
sg23
I01
sg24
g42
sbsg23
I00
sg24
g44
sbsg7
I3
sg23
I01
sg24
g42
sbsg23
I00
sg24
g65
sba(imyEvolve
Tree
p434
(dp435
g11
(imyEvolve
Tree
p436
(dp437
g7
I3
sg8
(imyEvolve
Tree
p438
(dp439
g11
(imyEvolve
Tree
p440
(dp441
g11
(imyEvolve
Tree
p442
(dp443
g7
I0
sg19
I00
sbsg7
I1
sg23
I01
sg24
g42
sbsg7
I2
sg23
I01
sg24
g43
sbsg20
(imyEvolve
Tree
p444
(dp445
g7
I2
sg8
(imyEvolve
Tree
p446
(dp447
g7
I1
sg8
(imyEvolve
Tree
p448
(dp449
g7
I0
sg18
F-4.379247045894534
sg19
I01
sbsg20
(imyEvolve
Tree
p450
(dp451
g7
I0
sg19
I00
sbsg23
I00
sg24
g44
sbsg20
(imyEvolve
Tree
p452
(dp453
g11
(imyEvolve
Tree
p454
(dp455
g7
I0
sg19
I00
sbsg7
I1
sg23
I01
sg24
g27
sbsg23
I00
sg24
g65
sbsg23
I00
sg24
g25
sbsg7
I4
sg23
I01
sg24
g27
sba(imyEvolve
Tree
p456
(dp457
g7
I3
sg8
(imyEvolve
Tree
p458
(dp459
g11
(imyEvolve
Tree
p460
(dp461
g11
(imyEvolve
Tree
p462
(dp463
g7
I0
sg18
F2.56091835330424
sg19
I01
sbsg7
I1
sg23
I01
sg24
g26
sbsg7
I2
sg23
I01
sg24
g42
sbsg20
(imyEvolve
Tree
p464
(dp465
g7
I2
sg8
(imyEvolve
Tree
p466
(dp467
g11
(imyEvolve
Tree
p468
(dp469
g7
I0
sg18
F3.77741544166658
sg19
I01
sbsg7
I1
sg23
I01
sg24
g27
sbsg20
(imyEvolve
Tree
p470
(dp471
g11
(imyEvolve
Tree
p472
(dp473
g7
I0
sg18
F3.9595063980516105
sg19
I01
sbsg7
I1
sg23
I01
sg24
g26
sbsg23
I00
sg24
g65
sbsg23
I00
sg24
g25
sbaasS'weightSharing'
p474
(lp475
I00
aI00
aI00
aI00
aI00
aI00
aI00
aI00
aI00
aI00
aI00
aI00
asS'fitnessValid'
p476
I00
sS'fitness'
p477
cnumpy.core.multiarray
scalar
p478
(cnumpy
dtype
p479
(S'f8'
p480
I0
I1
tp481
Rp482
(I3
S'<'
p483
NNNI-1
I-1
I0
tp484
bS'\x00\xe0\x9c\x11-Zb\xbf'
p485
tp486
Rp487
sS'alpha'
p488
F0.002464927491106636
sS'resolution'
p489
I44
sb.