(imyEvolve
Individual
p0
(dp1
S'funcs'
p2
(lp3
(lp4
(imyEvolve
Tree
p5
(dp6
S'below'
p7
(imyEvolve
Tree
p8
(dp9
g7
(imyEvolve
Tree
p10
(dp11
g7
(imyEvolve
Tree
p12
(dp13
S'depth'
p14
I0
sS'isConstant'
p15
I00
sbsg14
I1
sS'single'
p16
I01
sS'op'
p17
cmath
cos
p18
sbsg14
I2
sg16
I01
sg17
cmyEvolve
absSqrt
p19
sbsg14
I3
sg16
I01
sg17
g18
sba(imyEvolve
Tree
p20
(dp21
g7
(imyEvolve
Tree
p22
(dp23
g14
I2
sS'left'
p24
(imyEvolve
Tree
p25
(dp26
g14
I1
sg24
(imyEvolve
Tree
p27
(dp28
g14
I0
sS'constant'
p29
F-3.2830481653743093
sg15
I01
sbsS'right'
p30
(imyEvolve
Tree
p31
(dp32
g14
I0
sg15
I00
sbsg16
I00
sg17
coperator
sub
p33
sbsg30
(imyEvolve
Tree
p34
(dp35
g14
I1
sg24
(imyEvolve
Tree
p36
(dp37
g14
I0
sg29
F2.8179022779107825
sg15
I01
sbsg30
(imyEvolve
Tree
p38
(dp39
g14
I0
sg15
I00
sbsg16
I00
sg17
g33
sbsg16
I00
sg17
g33
sbsg14
I3
sg16
I01
sg17
g19
sba(imyEvolve
Tree
p40
(dp41
g24
(imyEvolve
Tree
p42
(dp43
g24
(imyEvolve
Tree
p44
(dp45
g14
I0
sg15
I00
sbsg14
I1
sg30
(imyEvolve
Tree
p46
(dp47
g14
I0
sg15
I00
sbsg16
I00
sg17
g33
sbsg14
I2
sg30
(imyEvolve
Tree
p48
(dp49
g24
(imyEvolve
Tree
p50
(dp51
g14
I0
sg15
I00
sbsg14
I1
sg30
(imyEvolve
Tree
p52
(dp53
g14
I0
sg29
F1.1997862212991812
sg15
I01
sbsg16
I00
sg17
coperator
mul
p54
sbsg16
I00
sg17
coperator
add
p55
sba(imyEvolve
Tree
p56
(dp57
g7
(imyEvolve
Tree
p58
(dp59
g24
(imyEvolve
Tree
p60
(dp61
g24
(imyEvolve
Tree
p62
(dp63
g14
I0
sg29
F0.36826992967050387
sg15
I01
sbsg14
I1
sg30
(imyEvolve
Tree
p64
(dp65
g14
I0
sg29
F4.856780197386492
sg15
I01
sbsg16
I00
sg17
g33
sbsg14
I2
sg30
(imyEvolve
Tree
p66
(dp67
g24
(imyEvolve
Tree
p68
(dp69
g14
I0
sg29
F-0.5563782429086759
sg15
I01
sbsg14
I1
sg30
(imyEvolve
Tree
p70
(dp71
g14
I0
sg29
F3.779247722163099
sg15
I01
sbsg16
I00
sg17
g54
sbsg16
I00
sg17
g33
sbsg14
I3
sg16
I01
sg17
cmath
sin
p72
sba(imyEvolve
Tree
p73
(dp74
g7
(imyEvolve
Tree
p75
(dp76
g7
(imyEvolve
Tree
p77
(dp78
g14
I0
sg29
F-1.3706023648151944
sg15
I01
sbsg14
I1
sg16
I01
sg17
g72
sbsg14
I2
sg16
I01
sg17
cmyEvolve
square
p79
sba(imyEvolve
Tree
p80
(dp81
g7
(imyEvolve
Tree
p82
(dp83
g7
(imyEvolve
Tree
p84
(dp85
g7
(imyEvolve
Tree
p86
(dp87
g14
I0
sg29
F-2.6922407027914517
sg15
I01
sbsg14
I1
sg16
I01
sg17
g79
sbsg14
I2
sg16
I01
sg17
g18
sbsg14
I3
sg16
I01
sg17
g79
sba(imyEvolve
Tree
p88
(dp89
g7
(imyEvolve
Tree
p90
(dp91
g24
(imyEvolve
Tree
p92
(dp93
g14
I0
sg29
F0.7333504045363748
sg15
I01
sbsg14
I1
sg30
(imyEvolve
Tree
p94
(dp95
g14
I0
sg15
I00
sbsg16
I00
sg17
g54
sbsg14
I2
sg16
I01
sg17
g19
sba(imyEvolve
Tree
p96
(dp97
g7
(imyEvolve
Tree
p98
(dp99
g7
(imyEvolve
Tree
p100
(dp101
g7
(imyEvolve
Tree
p102
(dp103
g24
(imyEvolve
Tree
p104
(dp105
g7
(imyEvolve
Tree
p106
(dp107
g14
I0
sg29
F-1.5266529772187711
sg15
I01
sbsg14
I1
sg16
I01
sg17
g18
sbsg14
I2
sg30
(imyEvolve
Tree
p108
(dp109
g24
(imyEvolve
Tree
p110
(dp111
g14
I0
sg29
F2.490962801265403
sg15
I01
sbsg14
I1
sg30
(imyEvolve
Tree
p112
(dp113
g14
I0
sg15
I00
sbsg16
I00
sg17
g33
sbsg16
I00
sg17
g55
sbsg14
I3
sg16
I01
sg17
g72
sbsg14
I4
sg16
I01
sg17
g19
sbsg14
I5
sg16
I01
sg17
g19
sba(imyEvolve
Tree
p114
(dp115
g14
I3
sg24
(imyEvolve
Tree
p116
(dp117
g7
(imyEvolve
Tree
p118
(dp119
g7
(imyEvolve
Tree
p120
(dp121
g14
I0
sg29
F3.4537793329148787
sg15
I01
sbsg14
I1
sg16
I01
sg17
g19
sbsg14
I2
sg16
I01
sg17
g19
sbsg30
(imyEvolve
Tree
p122
(dp123
g7
(imyEvolve
Tree
p124
(dp125
g14
I1
sg24
(imyEvolve
Tree
p126
(dp127
g14
I0
sg29
F-3.8513656639583838
sg15
I01
sbsg30
(imyEvolve
Tree
p128
(dp129
g14
I0
sg15
I00
sbsg16
I00
sg17
g55
sbsg14
I2
sg16
I01
sg17
g18
sbsg16
I00
sg17
g54
sba(imyEvolve
Tree
p130
(dp131
g14
I4
sg24
(imyEvolve
Tree
p132
(dp133
g14
I3
sg24
(imyEvolve
Tree
p134
(dp135
g7
(imyEvolve
Tree
p136
(dp137
g7
(imyEvolve
Tree
p138
(dp139
g14
I0
sg29
F-3.7698236758953385
sg15
I01
sbsg14
I1
sg16
I01
sg17
g72
sbsg14
I2
sg16
I01
sg17
g18
sbsg30
(imyEvolve
Tree
p140
(dp141
g14
I2
sg24
(imyEvolve
Tree
p142
(dp143
g14
I1
sg24
(imyEvolve
Tree
p144
(dp145
g14
I0
sg15
I00
sbsg30
(imyEvolve
Tree
p146
(dp147
g14
I0
sg15
I00
sbsg16
I00
sg17
g54
sbsg30
(imyEvolve
Tree
p148
(dp149
g14
I1
sg24
(imyEvolve
Tree
p150
(dp151
g14
I0
sg15
I00
sbsg30
(imyEvolve
Tree
p152
(dp153
g14
I0
sg15
I00
sbsg16
I00
sg17
g33
sbsg16
I00
sg17
g55
sbsg16
I00
sg17
g55
sbsg30
(imyEvolve
Tree
p154
(dp155
g7
(imyEvolve
Tree
p156
(dp157
g7
(imyEvolve
Tree
p158
(dp159
g14
I1
sg24
(imyEvolve
Tree
p160
(dp161
g14
I0
sg15
I00
sbsg30
(imyEvolve
Tree
p162
(dp163
g14
I0
sg29
F1.1190927952738008
sg15
I01
sbsg16
I00
sg17
g55
sbsg14
I2
sg16
I01
sg17
g19
sbsg14
I3
sg16
I01
sg17
g18
sbsg16
I00
sg17
g55
sba(imyEvolve
Tree
p164
(dp165
g7
(imyEvolve
Tree
p166
(dp167
g7
(imyEvolve
Tree
p168
(dp169
g24
(imyEvolve
Tree
p170
(dp171
g14
I0
sg15
I00
sbsg14
I1
sg30
(imyEvolve
Tree
p172
(dp173
g14
I0
sg29
F3.994219386937745
sg15
I01
sbsg16
I00
sg17
g33
sbsg14
I2
sg16
I01
sg17
g72
sbsg14
I3
sg16
I01
sg17
g79
sba(imyEvolve
Tree
p174
(dp175
g24
(imyEvolve
Tree
p176
(dp177
g24
(imyEvolve
Tree
p178
(dp179
g14
I0
sg29
F-1.2994539351659098
sg15
I01
sbsg14
I1
sg30
(imyEvolve
Tree
p180
(dp181
g14
I0
sg29
F-2.5765781421361975
sg15
I01
sbsg16
I00
sg17
g54
sbsg14
I2
sg30
(imyEvolve
Tree
p182
(dp183
g7
(imyEvolve
Tree
p184
(dp185
g14
I0
sg15
I00
sbsg14
I1
sg16
I01
sg17
g18
sbsg16
I00
sg17
g33
sba(imyEvolve
Tree
p186
(dp187
g7
(imyEvolve
Tree
p188
(dp189
g14
I3
sg24
(imyEvolve
Tree
p190
(dp191
g14
I2
sg24
(imyEvolve
Tree
p192
(dp193
g14
I1
sg24
(imyEvolve
Tree
p194
(dp195
g14
I0
sg15
I00
sbsg30
(imyEvolve
Tree
p196
(dp197
g14
I0
sg15
I00
sbsg16
I00
sg17
g55
sbsg30
(imyEvolve
Tree
p198
(dp199
g14
I1
sg24
(imyEvolve
Tree
p200
(dp201
g14
I0
sg15
I00
sbsg30
(imyEvolve
Tree
p202
(dp203
g14
I0
sg29
F1.4055526867782673
sg15
I01
sbsg16
I00
sg17
g54
sbsg16
I00
sg17
g54
sbsg30
(imyEvolve
Tree
p204
(dp205
g7
(imyEvolve
Tree
p206
(dp207
g7
(imyEvolve
Tree
p208
(dp209
g14
I0
sg29
F-0.6501883849448875
sg15
I01
sbsg14
I1
sg16
I01
sg17
g18
sbsg14
I2
sg16
I01
sg17
g72
sbsg16
I00
sg17
g54
sbsg14
I4
sg16
I01
sg17
g72
sba(imyEvolve
Tree
p210
(dp211
g7
(imyEvolve
Tree
p212
(dp213
g7
(imyEvolve
Tree
p214
(dp215
g24
(imyEvolve
Tree
p216
(dp217
g7
(imyEvolve
Tree
p218
(dp219
g7
(imyEvolve
Tree
p220
(dp221
g14
I0
sg15
I00
sbsg14
I1
sg16
I01
sg17
g72
sbsg14
I2
sg16
I01
sg17
g79
sbsg14
I3
sg30
(imyEvolve
Tree
p222
(dp223
g24
(imyEvolve
Tree
p224
(dp225
g7
(imyEvolve
Tree
p226
(dp227
g14
I0
sg29
F-4.496614673175651
sg15
I01
sbsg14
I1
sg16
I01
sg17
g19
sbsg14
I2
sg30
(imyEvolve
Tree
p228
(dp229
g7
(imyEvolve
Tree
p230
(dp231
g14
I0
sg15
I00
sbsg14
I1
sg16
I01
sg17
g19
sbsg16
I00
sg17
g33
sbsg16
I00
sg17
g55
sbsg14
I4
sg16
I01
sg17
g72
sbsg14
I5
sg16
I01
sg17
g19
sba(imyEvolve
Tree
p232
(dp233
g24
(imyEvolve
Tree
p234
(dp235
g24
(imyEvolve
Tree
p236
(dp237
g7
(imyEvolve
Tree
p238
(dp239
g24
(imyEvolve
Tree
p240
(dp241
g7
(imyEvolve
Tree
p242
(dp243
g14
I0
sg15
I00
sbsg14
I1
sg16
I01
sg17
g18
sbsg14
I2
sg30
(imyEvolve
Tree
p244
(dp245
g24
(imyEvolve
Tree
p246
(dp247
g14
I0
sg29
F-0.32993897016716645
sg15
I01
sbsg14
I1
sg30
(imyEvolve
Tree
p248
(dp249
g14
I0
sg29
F-2.76741041531153
sg15
I01
sbsg16
I00
sg17
g55
sbsg16
I00
sg17
g55
sbsg14
I3
sg16
I01
sg17
g18
sbsg14
I4
sg30
(imyEvolve
Tree
p250
(dp251
g24
(imyEvolve
Tree
p252
(dp253
g7
(imyEvolve
Tree
p254
(dp255
g7
(imyEvolve
Tree
p256
(dp257
g14
I0
sg15
I00
sbsg14
I1
sg16
I01
sg17
g19
sbsg14
I2
sg16
I01
sg17
g19
sbsg14
I3
sg30
(imyEvolve
Tree
p258
(dp259
g7
(imyEvolve
Tree
p260
(dp261
g7
(imyEvolve
Tree
p262
(dp263
g14
I0
sg29
F0.6165397513670925
sg15
I01
sbsg14
I1
sg16
I01
sg17
g72
sbsg14
I2
sg16
I01
sg17
g19
sbsg16
I00
sg17
g55
sbsg16
I00
sg17
g54
sbsg14
I5
sg30
(imyEvolve
Tree
p264
(dp265
g24
(imyEvolve
Tree
p266
(dp267
g7
(imyEvolve
Tree
p268
(dp269
g24
(imyEvolve
Tree
p270
(dp271
g24
(imyEvolve
Tree
p272
(dp273
g14
I0
sg29
F1.1722639674977833
sg15
I01
sbsg14
I1
sg30
(imyEvolve
Tree
p274
(dp275
g14
I0
sg15
I00
sbsg16
I00
sg17
g33
sbsg14
I2
sg30
(imyEvolve
Tree
p276
(dp277
g24
(imyEvolve
Tree
p278
(dp279
g14
I0
sg29
F-2.5237432323124565
sg15
I01
sbsg14
I1
sg30
(imyEvolve
Tree
p280
(dp281
g14
I0
sg29
F-0.9374002308326759
sg15
I01
sbsg16
I00
sg17
g54
sbsg16
I00
sg17
g55
sbsg14
I3
sg16
I01
sg17
g79
sbsg14
I4
sg30
(imyEvolve
Tree
p282
(dp283
g7
(imyEvolve
Tree
p284
(dp285
g24
(imyEvolve
Tree
p286
(dp287
g7
(imyEvolve
Tree
p288
(dp289
g14
I0
sg29
F-3.9657103343705313
sg15
I01
sbsg14
I1
sg16
I01
sg17
g72
sbsg14
I2
sg30
(imyEvolve
Tree
p290
(dp291
g24
(imyEvolve
Tree
p292
(dp293
g14
I0
sg29
F-4.129501668406897
sg15
I01
sbsg14
I1
sg30
(imyEvolve
Tree
p294
(dp295
g14
I0
sg15
I00
sbsg16
I00
sg17
g33
sbsg16
I00
sg17
g54
sbsg14
I3
sg16
I01
sg17
g79
sbsg16
I00
sg17
g33
sbsg16
I00
sg17
g33
sba(imyEvolve
Tree
p296
(dp297
g7
(imyEvolve
Tree
p298
(dp299
g24
(imyEvolve
Tree
p300
(dp301
g7
(imyEvolve
Tree
p302
(dp303
g7
(imyEvolve
Tree
p304
(dp305
g14
I0
sg29
F4.864363591071934
sg15
I01
sbsg14
I1
sg16
I01
sg17
g18
sbsg14
I2
sg16
I01
sg17
g79
sbsg14
I3
sg30
(imyEvolve
Tree
p306
(dp307
g7
(imyEvolve
Tree
p308
(dp309
g24
(imyEvolve
Tree
p310
(dp311
g14
I0
sg15
I00
sbsg14
I1
sg30
(imyEvolve
Tree
p312
(dp313
g14
I0
sg29
F3.9655982467009014
sg15
I01
sbsg16
I00
sg17
g54
sbsg14
I2
sg16
I01
sg17
g79
sbsg16
I00
sg17
g54
sbsg14
I4
sg16
I01
sg17
g79
sba(imyEvolve
Tree
p314
(dp315
g24
(imyEvolve
Tree
p316
(dp317
g24
(imyEvolve
Tree
p318
(dp319
g7
(imyEvolve
Tree
p320
(dp321
g14
I0
sg29
F-1.5928010025755048
sg15
I01
sbsg14
I1
sg16
I01
sg17
g18
sbsg14
I2
sg30
(imyEvolve
Tree
p322
(dp323
g24
(imyEvolve
Tree
p324
(dp325
g14
I0
sg29
F-0.2856660002625251
sg15
I01
sbsg14
I1
sg30
(imyEvolve
Tree
p326
(dp327
g14
I0
sg29
F4.192145816549843
sg15
I01
sbsg16
I00
sg17
g54
sbsg16
I00
sg17
g33
sbsg14
I3
sg30
(imyEvolve
Tree
p328
(dp329
g24
(imyEvolve
Tree
p330
(dp331
g24
(imyEvolve
Tree
p332
(dp333
g14
I0
sg29
F4.963102354681556
sg15
I01
sbsg14
I1
sg30
(imyEvolve
Tree
p334
(dp335
g14
I0
sg15
I00
sbsg16
I00
sg17
g33
sbsg14
I2
sg30
(imyEvolve
Tree
p336
(dp337
g7
(imyEvolve
Tree
p338
(dp339
g14
I0
sg15
I00
sbsg14
I1
sg16
I01
sg17
g72
sbsg16
I00
sg17
g55
sbsg16
I00
sg17
g55
sba(imyEvolve
Tree
p340
(dp341
g24
(imyEvolve
Tree
p342
(dp343
g24
(imyEvolve
Tree
p344
(dp345
g7
(imyEvolve
Tree
p346
(dp347
g14
I0
sg15
I00
sbsg14
I1
sg16
I01
sg17
g72
sbsg14
I2
sg30
(imyEvolve
Tree
p348
(dp349
g24
(imyEvolve
Tree
p350
(dp351
g14
I0
sg29
F4.1338905392528975
sg15
I01
sbsg14
I1
sg30
(imyEvolve
Tree
p352
(dp353
g14
I0
sg29
F-3.429864847490137
sg15
I01
sbsg16
I00
sg17
g55
sbsg16
I00
sg17
g33
sbsg14
I3
sg30
(imyEvolve
Tree
p354
(dp355
g24
(imyEvolve
Tree
p356
(dp357
g7
(imyEvolve
Tree
p358
(dp359
g14
I0
sg15
I00
sbsg14
I1
sg16
I01
sg17
g79
sbsg14
I2
sg30
(imyEvolve
Tree
p360
(dp361
g24
(imyEvolve
Tree
p362
(dp363
g14
I0
sg15
I00
sbsg14
I1
sg30
(imyEvolve
Tree
p364
(dp365
g14
I0
sg15
I00
sbsg16
I00
sg17
g33
sbsg16
I00
sg17
g33
sbsg16
I00
sg17
g54
sba(imyEvolve
Tree
p366
(dp367
g24
(imyEvolve
Tree
p368
(dp369
g7
(imyEvolve
Tree
p370
(dp371
g24
(imyEvolve
Tree
p372
(dp373
g7
(imyEvolve
Tree
p374
(dp375
g24
(imyEvolve
Tree
p376
(dp377
g14
I0
sg15
I00
sbsg14
I1
sg30
(imyEvolve
Tree
p378
(dp379
g14
I0
sg29
F4.6137419990963995
sg15
I01
sbsg16
I00
sg17
g54
sbsg14
I2
sg16
I01
sg17
g18
sbsg14
I3
sg30
(imyEvolve
Tree
p380
(dp381
g24
(imyEvolve
Tree
p382
(dp383
g24
(imyEvolve
Tree
p384
(dp385
g14
I0
sg29
F4.187754054368021
sg15
I01
sbsg14
I1
sg30
(imyEvolve
Tree
p386
(dp387
g14
I0
sg29
F4.109180833659183
sg15
I01
sbsg16
I00
sg17
g33
sbsg14
I2
sg30
(imyEvolve
Tree
p388
(dp389
g24
(imyEvolve
Tree
p390
(dp391
g14
I0
sg15
I00
sbsg14
I1
sg30
(imyEvolve
Tree
p392
(dp393
g14
I0
sg29
F-0.2965696124342667
sg15
I01
sbsg16
I00
sg17
g54
sbsg16
I00
sg17
g55
sbsg16
I00
sg17
g33
sbsg14
I4
sg16
I01
sg17
g18
sbsg14
I5
sg30
(imyEvolve
Tree
p394
(dp395
g24
(imyEvolve
Tree
p396
(dp397
g24
(imyEvolve
Tree
p398
(dp399
g24
(imyEvolve
Tree
p400
(dp401
g24
(imyEvolve
Tree
p402
(dp403
g14
I0
sg15
I00
sbsg14
I1
sg30
(imyEvolve
Tree
p404
(dp405
g14
I0
sg15
I00
sbsg16
I00
sg17
g33
sbsg14
I2
sg30
(imyEvolve
Tree
p406
(dp407
g7
(imyEvolve
Tree
p408
(dp409
g14
I0
sg15
I00
sbsg14
I1
sg16
I01
sg17
g79
sbsg16
I00
sg17
g55
sbsg14
I3
sg30
(imyEvolve
Tree
p410
(dp411
g7
(imyEvolve
Tree
p412
(dp413
g24
(imyEvolve
Tree
p414
(dp415
g14
I0
sg15
I00
sbsg14
I1
sg30
(imyEvolve
Tree
p416
(dp417
g14
I0
sg15
I00
sbsg16
I00
sg17
g54
sbsg14
I2
sg16
I01
sg17
g19
sbsg16
I00
sg17
g33
sbsg14
I4
sg30
(imyEvolve
Tree
p418
(dp419
g7
(imyEvolve
Tree
p420
(dp421
g24
(imyEvolve
Tree
p422
(dp423
g24
(imyEvolve
Tree
p424
(dp425
g14
I0
sg15
I00
sbsg14
I1
sg30
(imyEvolve
Tree
p426
(dp427
g14
I0
sg15
I00
sbsg16
I00
sg17
g54
sbsg14
I2
sg30
(imyEvolve
Tree
p428
(dp429
g24
(imyEvolve
Tree
p430
(dp431
g14
I0
sg29
F4.0254278823044345
sg15
I01
sbsg14
I1
sg30
(imyEvolve
Tree
p432
(dp433
g14
I0
sg15
I00
sbsg16
I00
sg17
g55
sbsg16
I00
sg17
g33
sbsg14
I3
sg16
I01
sg17
g79
sbsg16
I00
sg17
g54
sbsg16
I00
sg17
g33
sbaa(lp434
(imyEvolve
Tree
p435
(dp436
g14
I3
sg24
(imyEvolve
Tree
p437
(dp438
g7
(imyEvolve
Tree
p439
(dp440
g7
(imyEvolve
Tree
p441
(dp442
g14
I0
sg29
F-2.104776305557212
sg15
I01
sbsg14
I1
sg16
I01
sg17
g79
sbsg14
I2
sg16
I01
sg17
g19
sbsg30
(imyEvolve
Tree
p443
(dp444
g7
(imyEvolve
Tree
p445
(dp446
g7
(imyEvolve
Tree
p447
(dp448
g14
I0
sg15
I00
sbsg14
I1
sg16
I01
sg17
g18
sbsg14
I2
sg16
I01
sg17
g18
sbsg16
I00
sg17
g33
sba(imyEvolve
Tree
p449
(dp450
g24
(imyEvolve
Tree
p451
(dp452
g7
(imyEvolve
Tree
p453
(dp454
g14
I0
sg29
F3.6303689249808784
sg15
I01
sbsg14
I1
sg16
I01
sg17
g19
sbsg14
I2
sg30
(imyEvolve
Tree
p455
(dp456
g7
(imyEvolve
Tree
p457
(dp458
g14
I0
sg15
I00
sbsg14
I1
sg16
I01
sg17
g19
sbsg16
I00
sg17
g33
sba(imyEvolve
Tree
p459
(dp460
g24
(imyEvolve
Tree
p461
(dp462
g7
(imyEvolve
Tree
p463
(dp464
g7
(imyEvolve
Tree
p465
(dp466
g14
I0
sg15
I00
sbsg14
I1
sg16
I01
sg17
g19
sbsg14
I2
sg16
I01
sg17
g19
sbsg14
I3
sg30
(imyEvolve
Tree
p467
(dp468
g24
(imyEvolve
Tree
p469
(dp470
g24
(imyEvolve
Tree
p471
(dp472
g14
I0
sg29
F-3.2349969979401108
sg15
I01
sbsg14
I1
sg30
(imyEvolve
Tree
p473
(dp474
g14
I0
sg15
I00
sbsg16
I00
sg17
g33
sbsg14
I2
sg30
(imyEvolve
Tree
p475
(dp476
g24
(imyEvolve
Tree
p477
(dp478
g14
I0
sg29
F3.450323439949136
sg15
I01
sbsg14
I1
sg30
(imyEvolve
Tree
p479
(dp480
g14
I0
sg15
I00
sbsg16
I00
sg17
g55
sbsg16
I00
sg17
g55
sbsg16
I00
sg17
g55
sba(imyEvolve
Tree
p481
(dp482
g7
(imyEvolve
Tree
p483
(dp484
g7
(imyEvolve
Tree
p485
(dp486
g14
I0
sg15
I00
sbsg14
I1
sg16
I01
sg17
g79
sbsg14
I2
sg16
I01
sg17
g18
sba(imyEvolve
Tree
p487
(dp488
g7
(imyEvolve
Tree
p489
(dp490
g7
(imyEvolve
Tree
p491
(dp492
g24
(imyEvolve
Tree
p493
(dp494
g7
(imyEvolve
Tree
p495
(dp496
g14
I0
sg29
F1.079034952624581
sg15
I01
sbsg14
I1
sg16
I01
sg17
g19
sbsg14
I2
sg30
(imyEvolve
Tree
p497
(dp498
g7
(imyEvolve
Tree
p499
(dp500
g14
I0
sg15
I00
sbsg14
I1
sg16
I01
sg17
g72
sbsg16
I00
sg17
g54
sbsg14
I3
sg16
I01
sg17
g19
sbsg14
I4
sg16
I01
sg17
g18
sba(imyEvolve
Tree
p501
(dp502
g7
(imyEvolve
Tree
p503
(dp504
g24
(imyEvolve
Tree
p505
(dp506
g24
(imyEvolve
Tree
p507
(dp508
g14
I0
sg29
F-0.1894346779309375
sg15
I01
sbsg14
I1
sg30
(imyEvolve
Tree
p509
(dp510
g14
I0
sg29
F-1.372944929387189
sg15
I01
sbsg16
I00
sg17
g55
sbsg14
I2
sg30
(imyEvolve
Tree
p511
(dp512
g7
(imyEvolve
Tree
p513
(dp514
g14
I0
sg29
F-4.510334855593234
sg15
I01
sbsg14
I1
sg16
I01
sg17
g72
sbsg16
I00
sg17
g33
sbsg14
I3
sg16
I01
sg17
g19
sba(imyEvolve
Tree
p515
(dp516
g7
(imyEvolve
Tree
p517
(dp518
g7
(imyEvolve
Tree
p519
(dp520
g7
(imyEvolve
Tree
p521
(dp522
g14
I0
sg29
F4.512829147774228
sg15
I01
sbsg14
I1
sg16
I01
sg17
g19
sbsg14
I2
sg16
I01
sg17
g72
sbsg14
I3
sg16
I01
sg17
g18
sba(imyEvolve
Tree
p523
(dp524
g7
(imyEvolve
Tree
p525
(dp526
g14
I3
sg24
(imyEvolve
Tree
p527
(dp528
g7
(imyEvolve
Tree
p529
(dp530
g7
(imyEvolve
Tree
p531
(dp532
g14
I0
sg15
I00
sbsg14
I1
sg16
I01
sg17
g72
sbsg14
I2
sg16
I01
sg17
g19
sbsg30
(imyEvolve
Tree
p533
(dp534
g14
I2
sg24
(imyEvolve
Tree
p535
(dp536
g7
(imyEvolve
Tree
p537
(dp538
g14
I0
sg29
F-3.0644662212596527
sg15
I01
sbsg14
I1
sg16
I01
sg17
g72
sbsg30
(imyEvolve
Tree
p539
(dp540
g7
(imyEvolve
Tree
p541
(dp542
g14
I0
sg29
F3.5880591856365047
sg15
I01
sbsg14
I1
sg16
I01
sg17
g72
sbsg16
I00
sg17
g55
sbsg16
I00
sg17
g55
sbsg14
I4
sg16
I01
sg17
g72
sba(imyEvolve
Tree
p543
(dp544
g7
(imyEvolve
Tree
p545
(dp546
g24
(imyEvolve
Tree
p547
(dp548
g24
(imyEvolve
Tree
p549
(dp550
g7
(imyEvolve
Tree
p551
(dp552
g14
I0
sg15
I00
sbsg14
I1
sg16
I01
sg17
g18
sbsg14
I2
sg30
(imyEvolve
Tree
p553
(dp554
g24
(imyEvolve
Tree
p555
(dp556
g14
I0
sg15
I00
sbsg14
I1
sg30
(imyEvolve
Tree
p557
(dp558
g14
I0
sg15
I00
sbsg16
I00
sg17
g54
sbsg16
I00
sg17
g33
sbsg14
I3
sg30
(imyEvolve
Tree
p559
(dp560
g7
(imyEvolve
Tree
p561
(dp562
g7
(imyEvolve
Tree
p563
(dp564
g14
I0
sg15
I00
sbsg14
I1
sg16
I01
sg17
g72
sbsg14
I2
sg16
I01
sg17
g18
sbsg16
I00
sg17
g33
sbsg14
I4
sg16
I01
sg17
g19
sba(imyEvolve
Tree
p565
(dp566
g7
(imyEvolve
Tree
p567
(dp568
g7
(imyEvolve
Tree
p569
(dp570
g7
(imyEvolve
Tree
p571
(dp572
g14
I1
sg24
(imyEvolve
Tree
p573
(dp574
g14
I0
sg29
F-1.9578163000878481
sg15
I01
sbsg30
(imyEvolve
Tree
p575
(dp576
g14
I0
sg15
I00
sbsg16
I00
sg17
g33
sbsg14
I2
sg16
I01
sg17
g72
sbsg14
I3
sg16
I01
sg17
g79
sbsg14
I4
sg16
I01
sg17
g19
sba(imyEvolve
Tree
p577
(dp578
g7
(imyEvolve
Tree
p579
(dp580
g7
(imyEvolve
Tree
p581
(dp582
g24
(imyEvolve
Tree
p583
(dp584
g14
I0
sg29
F1.5540374423131
sg15
I01
sbsg14
I1
sg30
(imyEvolve
Tree
p585
(dp586
g14
I0
sg29
F-1.6027916877869708
sg15
I01
sbsg16
I00
sg17
g54
sbsg14
I2
sg16
I01
sg17
g72
sbsg14
I3
sg16
I01
sg17
g18
sba(imyEvolve
Tree
p587
(dp588
g24
(imyEvolve
Tree
p589
(dp590
g24
(imyEvolve
Tree
p591
(dp592
g7
(imyEvolve
Tree
p593
(dp594
g24
(imyEvolve
Tree
p595
(dp596
g24
(imyEvolve
Tree
p597
(dp598
g14
I0
sg29
F-0.9314163753962585
sg15
I01
sbsg14
I1
sg30
(imyEvolve
Tree
p599
(dp600
g14
I0
sg15
I00
sbsg16
I00
sg17
g54
sbsg14
I2
sg30
(imyEvolve
Tree
p601
(dp602
g24
(imyEvolve
Tree
p603
(dp604
g14
I0
sg15
I00
sbsg14
I1
sg30
(imyEvolve
Tree
p605
(dp606
g14
I0
sg15
I00
sbsg16
I00
sg17
g55
sbsg16
I00
sg17
g54
sbsg14
I3
sg16
I01
sg17
g79
sbsg14
I4
sg30
(imyEvolve
Tree
p607
(dp608
g24
(imyEvolve
Tree
p609
(dp610
g24
(imyEvolve
Tree
p611
(dp612
g7
(imyEvolve
Tree
p613
(dp614
g14
I0
sg15
I00
sbsg14
I1
sg16
I01
sg17
g72
sbsg14
I2
sg30
(imyEvolve
Tree
p615
(dp616
g7
(imyEvolve
Tree
p617
(dp618
g14
I0
sg15
I00
sbsg14
I1
sg16
I01
sg17
g72
sbsg16
I00
sg17
g54
sbsg14
I3
sg30
(imyEvolve
Tree
p619
(dp620
g7
(imyEvolve
Tree
p621
(dp622
g7
(imyEvolve
Tree
p623
(dp624
g14
I0
sg29
F4.468926905194827
sg15
I01
sbsg14
I1
sg16
I01
sg17
g18
sbsg14
I2
sg16
I01
sg17
g79
sbsg16
I00
sg17
g55
sbsg16
I00
sg17
g54
sbsg14
I5
sg30
(imyEvolve
Tree
p625
(dp626
g7
(imyEvolve
Tree
p627
(dp628
g24
(imyEvolve
Tree
p629
(dp630
g7
(imyEvolve
Tree
p631
(dp632
g7
(imyEvolve
Tree
p633
(dp634
g14
I0
sg15
I00
sbsg14
I1
sg16
I01
sg17
g19
sbsg14
I2
sg16
I01
sg17
g18
sbsg14
I3
sg30
(imyEvolve
Tree
p635
(dp636
g7
(imyEvolve
Tree
p637
(dp638
g7
(imyEvolve
Tree
p639
(dp640
g14
I0
sg15
I00
sbsg14
I1
sg16
I01
sg17
g72
sbsg14
I2
sg16
I01
sg17
g72
sbsg16
I00
sg17
g54
sbsg14
I4
sg16
I01
sg17
g72
sbsg16
I00
sg17
g33
sba(imyEvolve
Tree
p641
(dp642
g24
(imyEvolve
Tree
p643
(dp644
g24
(imyEvolve
Tree
p645
(dp646
g24
(imyEvolve
Tree
p647
(dp648
g7
(imyEvolve
Tree
p649
(dp650
g24
(imyEvolve
Tree
p651
(dp652
g14
I0
sg29
F-0.013924324626381157
sg15
I01
sbsg14
I1
sg30
(imyEvolve
Tree
p653
(dp654
g14
I0
sg15
I00
sbsg16
I00
sg17
g33
sbsg14
I2
sg16
I01
sg17
g18
sbsg14
I3
sg30
(imyEvolve
Tree
p655
(dp656
g7
(imyEvolve
Tree
p657
(dp658
g24
(imyEvolve
Tree
p659
(dp660
g14
I0
sg29
F-1.4477807121821251
sg15
I01
sbsg14
I1
sg30
(imyEvolve
Tree
p661
(dp662
g14
I0
sg15
I00
sbsg16
I00
sg17
g55
sbsg14
I2
sg16
I01
sg17
g72
sbsg16
I00
sg17
g33
sbsg14
I4
sg30
(imyEvolve
Tree
p663
(dp664
g24
(imyEvolve
Tree
p665
(dp666
g24
(imyEvolve
Tree
p667
(dp668
g24
(imyEvolve
Tree
p669
(dp670
g14
I0
sg29
F-3.9684167087332645
sg15
I01
sbsg14
I1
sg30
(imyEvolve
Tree
p671
(dp672
g14
I0
sg29
F-1.768354326554602
sg15
I01
sbsg16
I00
sg17
g55
sbsg14
I2
sg30
(imyEvolve
Tree
p673
(dp674
g24
(imyEvolve
Tree
p675
(dp676
g14
I0
sg15
I00
sbsg14
I1
sg30
(imyEvolve
Tree
p677
(dp678
g14
I0
sg15
I00
sbsg16
I00
sg17
g55
sbsg16
I00
sg17
g33
sbsg14
I3
sg30
(imyEvolve
Tree
p679
(dp680
g7
(imyEvolve
Tree
p681
(dp682
g24
(imyEvolve
Tree
p683
(dp684
g14
I0
sg15
I00
sbsg14
I1
sg30
(imyEvolve
Tree
p685
(dp686
g14
I0
sg29
F-4.217186234463686
sg15
I01
sbsg16
I00
sg17
g33
sbsg14
I2
sg16
I01
sg17
g18
sbsg16
I00
sg17
g54
sbsg16
I00
sg17
g55
sbsg14
I5
sg30
(imyEvolve
Tree
p687
(dp688
g7
(imyEvolve
Tree
p689
(dp690
g7
(imyEvolve
Tree
p691
(dp692
g7
(imyEvolve
Tree
p693
(dp694
g24
(imyEvolve
Tree
p695
(dp696
g14
I0
sg29
F-0.7021194204076862
sg15
I01
sbsg14
I1
sg30
(imyEvolve
Tree
p697
(dp698
g14
I0
sg29
F4.772250290562283
sg15
I01
sbsg16
I00
sg17
g33
sbsg14
I2
sg16
I01
sg17
g79
sbsg14
I3
sg16
I01
sg17
g79
sbsg14
I4
sg16
I01
sg17
g72
sbsg16
I00
sg17
g33
sba(imyEvolve
Tree
p699
(dp700
g7
(imyEvolve
Tree
p701
(dp702
g14
I1
sg24
(imyEvolve
Tree
p703
(dp704
g14
I0
sg15
I00
sbsg30
(imyEvolve
Tree
p705
(dp706
g14
I0
sg15
I00
sbsg16
I00
sg17
g33
sbsg14
I2
sg16
I01
sg17
g72
sba(imyEvolve
Tree
p707
(dp708
g7
(imyEvolve
Tree
p709
(dp710
g7
(imyEvolve
Tree
p711
(dp712
g24
(imyEvolve
Tree
p713
(dp714
g14
I0
sg29
F-0.3723743554197121
sg15
I01
sbsg14
I1
sg30
(imyEvolve
Tree
p715
(dp716
g14
I0
sg29
F-3.974977288558379
sg15
I01
sbsg16
I00
sg17
g54
sbsg14
I2
sg16
I01
sg17
g72
sbsg14
I3
sg16
I01
sg17
g79
sba(imyEvolve
Tree
p717
(dp718
g7
(imyEvolve
Tree
p719
(dp720
g7
(imyEvolve
Tree
p721
(dp722
g14
I0
sg15
I00
sbsg14
I1
sg16
I01
sg17
g79
sbsg14
I2
sg16
I01
sg17
g72
sbaa(lp723
(imyEvolve
Tree
p724
(dp725
g14
I4
sg24
(imyEvolve
Tree
p726
(dp727
g7
(imyEvolve
Tree
p728
(dp729
g14
I2
sg24
(imyEvolve
Tree
p730
(dp731
g14
I1
sg24
(imyEvolve
Tree
p732
(dp733
g14
I0
sg29
F-2.9597535008364515
sg15
I01
sbsg30
(imyEvolve
Tree
p734
(dp735
g14
I0
sg29
F-1.1925865415153067
sg15
I01
sbsg16
I00
sg17
g33
sbsg30
(imyEvolve
Tree
p736
(dp737
g7
(imyEvolve
Tree
p738
(dp739
g14
I0
sg29
F0.5173857811437621
sg15
I01
sbsg14
I1
sg16
I01
sg17
g72
sbsg16
I00
sg17
g55
sbsg14
I3
sg16
I01
sg17
g72
sbsg30
(imyEvolve
Tree
p740
(dp741
g14
I3
sg24
(imyEvolve
Tree
p742
(dp743
g14
I2
sg24
(imyEvolve
Tree
p744
(dp745
g7
(imyEvolve
Tree
p746
(dp747
g14
I0
sg29
F4.906315710017491
sg15
I01
sbsg14
I1
sg16
I01
sg17
g19
sbsg30
(imyEvolve
Tree
p748
(dp749
g14
I1
sg24
(imyEvolve
Tree
p750
(dp751
g14
I0
sg15
I00
sbsg30
(imyEvolve
Tree
p752
(dp753
g14
I0
sg29
F-0.8058382167930631
sg15
I01
sbsg16
I00
sg17
g54
sbsg16
I00
sg17
g54
sbsg30
(imyEvolve
Tree
p754
(dp755
g7
(imyEvolve
Tree
p756
(dp757
g14
I1
sg24
(imyEvolve
Tree
p758
(dp759
g14
I0
sg15
I00
sbsg30
(imyEvolve
Tree
p760
(dp761
g14
I0
sg29
F-2.9448022585237488
sg15
I01
sbsg16
I00
sg17
g33
sbsg14
I2
sg16
I01
sg17
g19
sbsg16
I00
sg17
g54
sbsg16
I00
sg17
g55
sba(imyEvolve
Tree
p762
(dp763
g7
(imyEvolve
Tree
p764
(dp765
g14
I4
sg24
(imyEvolve
Tree
p766
(dp767
g7
(imyEvolve
Tree
p768
(dp769
g7
(imyEvolve
Tree
p770
(dp771
g14
I1
sg24
(imyEvolve
Tree
p772
(dp773
g14
I0
sg15
I00
sbsg30
(imyEvolve
Tree
p774
(dp775
g14
I0
sg15
I00
sbsg16
I00
sg17
g54
sbsg14
I2
sg16
I01
sg17
g79
sbsg14
I3
sg16
I01
sg17
g72
sbsg30
(imyEvolve
Tree
p776
(dp777
g14
I3
sg24
(imyEvolve
Tree
p778
(dp779
g14
I2
sg24
(imyEvolve
Tree
p780
(dp781
g14
I1
sg24
(imyEvolve
Tree
p782
(dp783
g14
I0
sg15
I00
sbsg30
(imyEvolve
Tree
p784
(dp785
g14
I0
sg29
F-3.8957536923613967
sg15
I01
sbsg16
I00
sg17
g33
sbsg30
(imyEvolve
Tree
p786
(dp787
g7
(imyEvolve
Tree
p788
(dp789
g14
I0
sg15
I00
sbsg14
I1
sg16
I01
sg17
g79
sbsg16
I00
sg17
g33
sbsg30
(imyEvolve
Tree
p790
(dp791
g7
(imyEvolve
Tree
p792
(dp793
g7
(imyEvolve
Tree
p794
(dp795
g14
I0
sg15
I00
sbsg14
I1
sg16
I01
sg17
g18
sbsg14
I2
sg16
I01
sg17
g72
sbsg16
I00
sg17
g55
sbsg16
I00
sg17
g55
sbsg14
I5
sg16
I01
sg17
g18
sba(imyEvolve
Tree
p796
(dp797
g14
I4
sg24
(imyEvolve
Tree
p798
(dp799
g14
I3
sg24
(imyEvolve
Tree
p800
(dp801
g7
(imyEvolve
Tree
p802
(dp803
g14
I1
sg24
(imyEvolve
Tree
p804
(dp805
g14
I0
sg15
I00
sbsg30
(imyEvolve
Tree
p806
(dp807
g14
I0
sg15
I00
sbsg16
I00
sg17
g55
sbsg14
I2
sg16
I01
sg17
g19
sbsg30
(imyEvolve
Tree
p808
(dp809
g7
(imyEvolve
Tree
p810
(dp811
g14
I1
sg24
(imyEvolve
Tree
p812
(dp813
g14
I0
sg29
F1.8487987535183859
sg15
I01
sbsg30
(imyEvolve
Tree
p814
(dp815
g14
I0
sg29
F1.1517868456107783
sg15
I01
sbsg16
I00
sg17
g33
sbsg14
I2
sg16
I01
sg17
g18
sbsg16
I00
sg17
g33
sbsg30
(imyEvolve
Tree
p816
(dp817
g7
(imyEvolve
Tree
p818
(dp819
g7
(imyEvolve
Tree
p820
(dp821
g14
I1
sg24
(imyEvolve
Tree
p822
(dp823
g14
I0
sg15
I00
sbsg30
(imyEvolve
Tree
p824
(dp825
g14
I0
sg15
I00
sbsg16
I00
sg17
g55
sbsg14
I2
sg16
I01
sg17
g79
sbsg14
I3
sg16
I01
sg17
g79
sbsg16
I00
sg17
g55
sba(imyEvolve
Tree
p826
(dp827
g14
I2
sg24
(imyEvolve
Tree
p828
(dp829
g14
I1
sg24
(imyEvolve
Tree
p830
(dp831
g14
I0
sg29
F-0.8764382115544169
sg15
I01
sbsg30
(imyEvolve
Tree
p832
(dp833
g14
I0
sg15
I00
sbsg16
I00
sg17
g54
sbsg30
(imyEvolve
Tree
p834
(dp835
g7
(imyEvolve
Tree
p836
(dp837
g14
I0
sg15
I00
sbsg14
I1
sg16
I01
sg17
g72
sbsg16
I00
sg17
g54
sba(imyEvolve
Tree
p838
(dp839
g7
(imyEvolve
Tree
p840
(dp841
g7
(imyEvolve
Tree
p842
(dp843
g14
I0
sg15
I00
sbsg14
I1
sg16
I01
sg17
g19
sbsg14
I2
sg16
I01
sg17
g79
sba(imyEvolve
Tree
p844
(dp845
g14
I5
sg24
(imyEvolve
Tree
p846
(dp847
g7
(imyEvolve
Tree
p848
(dp849
g7
(imyEvolve
Tree
p850
(dp851
g14
I2
sg24
(imyEvolve
Tree
p852
(dp853
g7
(imyEvolve
Tree
p854
(dp855
g14
I0
sg15
I00
sbsg14
I1
sg16
I01
sg17
g18
sbsg30
(imyEvolve
Tree
p856
(dp857
g7
(imyEvolve
Tree
p858
(dp859
g14
I0
sg15
I00
sbsg14
I1
sg16
I01
sg17
g19
sbsg16
I00
sg17
g54
sbsg14
I3
sg16
I01
sg17
g19
sbsg14
I4
sg16
I01
sg17
g18
sbsg30
(imyEvolve
Tree
p860
(dp861
g14
I4
sg24
(imyEvolve
Tree
p862
(dp863
g14
I3
sg24
(imyEvolve
Tree
p864
(dp865
g7
(imyEvolve
Tree
p866
(dp867
g7
(imyEvolve
Tree
p868
(dp869
g14
I0
sg15
I00
sbsg14
I1
sg16
I01
sg17
g18
sbsg14
I2
sg16
I01
sg17
g79
sbsg30
(imyEvolve
Tree
p870
(dp871
g14
I2
sg24
(imyEvolve
Tree
p872
(dp873
g14
I1
sg24
(imyEvolve
Tree
p874
(dp875
g14
I0
sg29
F4.18444532682005
sg15
I01
sbsg30
(imyEvolve
Tree
p876
(dp877
g14
I0
sg15
I00
sbsg16
I00
sg17
g55
sbsg30
(imyEvolve
Tree
p878
(dp879
g7
(imyEvolve
Tree
p880
(dp881
g14
I0
sg15
I00
sbsg14
I1
sg16
I01
sg17
g18
sbsg16
I00
sg17
g33
sbsg16
I00
sg17
g55
sbsg30
(imyEvolve
Tree
p882
(dp883
g7
(imyEvolve
Tree
p884
(dp885
g14
I2
sg24
(imyEvolve
Tree
p886
(dp887
g7
(imyEvolve
Tree
p888
(dp889
g14
I0
sg29
F0.9944266708898697
sg15
I01
sbsg14
I1
sg16
I01
sg17
g72
sbsg30
(imyEvolve
Tree
p890
(dp891
g14
I1
sg24
(imyEvolve
Tree
p892
(dp893
g14
I0
sg29
F3.4854077273705606
sg15
I01
sbsg30
(imyEvolve
Tree
p894
(dp895
g14
I0
sg15
I00
sbsg16
I00
sg17
g54
sbsg16
I00
sg17
g55
sbsg14
I3
sg16
I01
sg17
g72
sbsg16
I00
sg17
g33
sbsg16
I00
sg17
g55
sba(imyEvolve
Tree
p896
(dp897
g7
(imyEvolve
Tree
p898
(dp899
g14
I1
sg24
(imyEvolve
Tree
p900
(dp901
g14
I0
sg29
F3.845582064225683
sg15
I01
sbsg30
(imyEvolve
Tree
p902
(dp903
g14
I0
sg15
I00
sbsg16
I00
sg17
g54
sbsg14
I2
sg16
I01
sg17
g18
sba(imyEvolve
Tree
p904
(dp905
g14
I4
sg24
(imyEvolve
Tree
p906
(dp907
g7
(imyEvolve
Tree
p908
(dp909
g14
I2
sg24
(imyEvolve
Tree
p910
(dp911
g14
I1
sg24
(imyEvolve
Tree
p912
(dp913
g14
I0
sg29
F1.6912553601654912
sg15
I01
sbsg30
(imyEvolve
Tree
p914
(dp915
g14
I0
sg15
I00
sbsg16
I00
sg17
g55
sbsg30
(imyEvolve
Tree
p916
(dp917
g14
I1
sg24
(imyEvolve
Tree
p918
(dp919
g14
I0
sg15
I00
sbsg30
(imyEvolve
Tree
p920
(dp921
g14
I0
sg15
I00
sbsg16
I00
sg17
g33
sbsg16
I00
sg17
g55
sbsg14
I3
sg16
I01
sg17
g19
sbsg30
(imyEvolve
Tree
p922
(dp923
g7
(imyEvolve
Tree
p924
(dp925
g14
I2
sg24
(imyEvolve
Tree
p926
(dp927
g14
I1
sg24
(imyEvolve
Tree
p928
(dp929
g14
I0
sg15
I00
sbsg30
(imyEvolve
Tree
p930
(dp931
g14
I0
sg29
F-2.215365090991485
sg15
I01
sbsg16
I00
sg17
g33
sbsg30
(imyEvolve
Tree
p932
(dp933
g14
I1
sg24
(imyEvolve
Tree
p934
(dp935
g14
I0
sg15
I00
sbsg30
(imyEvolve
Tree
p936
(dp937
g14
I0
sg15
I00
sbsg16
I00
sg17
g55
sbsg16
I00
sg17
g54
sbsg14
I3
sg16
I01
sg17
g72
sbsg16
I00
sg17
g33
sba(imyEvolve
Tree
p938
(dp939
g14
I4
sg24
(imyEvolve
Tree
p940
(dp941
g7
(imyEvolve
Tree
p942
(dp943
g14
I2
sg24
(imyEvolve
Tree
p944
(dp945
g14
I1
sg24
(imyEvolve
Tree
p946
(dp947
g14
I0
sg29
F-0.22385678532976527
sg15
I01
sbsg30
(imyEvolve
Tree
p948
(dp949
g14
I0
sg29
F-3.5498950898406587
sg15
I01
sbsg16
I00
sg17
g54
sbsg30
(imyEvolve
Tree
p950
(dp951
g7
(imyEvolve
Tree
p952
(dp953
g14
I0
sg29
F3.273517826960612
sg15
I01
sbsg14
I1
sg16
I01
sg17
g79
sbsg16
I00
sg17
g54
sbsg14
I3
sg16
I01
sg17
g79
sbsg30
(imyEvolve
Tree
p954
(dp955
g14
I3
sg24
(imyEvolve
Tree
p956
(dp957
g7
(imyEvolve
Tree
p958
(dp959
g14
I1
sg24
(imyEvolve
Tree
p960
(dp961
g14
I0
sg15
I00
sbsg30
(imyEvolve
Tree
p962
(dp963
g14
I0
sg15
I00
sbsg16
I00
sg17
g55
sbsg14
I2
sg16
I01
sg17
g72
sbsg30
(imyEvolve
Tree
p964
(dp965
g7
(imyEvolve
Tree
p966
(dp967
g7
(imyEvolve
Tree
p968
(dp969
g14
I0
sg29
F-1.513591266203751
sg15
I01
sbsg14
I1
sg16
I01
sg17
g79
sbsg14
I2
sg16
I01
sg17
g72
sbsg16
I00
sg17
g33
sbsg16
I00
sg17
g55
sba(imyEvolve
Tree
p970
(dp971
g14
I2
sg24
(imyEvolve
Tree
p972
(dp973
g7
(imyEvolve
Tree
p974
(dp975
g14
I0
sg15
I00
sbsg14
I1
sg16
I01
sg17
g72
sbsg30
(imyEvolve
Tree
p976
(dp977
g14
I1
sg24
(imyEvolve
Tree
p978
(dp979
g14
I0
sg29
F-3.7650188536086904
sg15
I01
sbsg30
(imyEvolve
Tree
p980
(dp981
g14
I0
sg29
F1.421298938494652
sg15
I01
sbsg16
I00
sg17
g54
sbsg16
I00
sg17
g33
sba(imyEvolve
Tree
p982
(dp983
g7
(imyEvolve
Tree
p984
(dp985
g14
I1
sg24
(imyEvolve
Tree
p986
(dp987
g14
I0
sg15
I00
sbsg30
(imyEvolve
Tree
p988
(dp989
g14
I0
sg29
F4.129102389069361
sg15
I01
sbsg16
I00
sg17
g33
sbsg14
I2
sg16
I01
sg17
g79
sba(imyEvolve
Tree
p990
(dp991
g14
I4
sg24
(imyEvolve
Tree
p992
(dp993
g14
I3
sg24
(imyEvolve
Tree
p994
(dp995
g7
(imyEvolve
Tree
p996
(dp997
g14
I1
sg24
(imyEvolve
Tree
p998
(dp999
g14
I0
sg29
F3.5432149742187367
sg15
I01
sbsg30
(imyEvolve
Tree
p1000
(dp1001
g14
I0
sg29
F1.7234555320828058
sg15
I01
sbsg16
I00
sg17
g33
sbsg14
I2
sg16
I01
sg17
g72
sbsg30
(imyEvolve
Tree
p1002
(dp1003
g14
I2
sg24
(imyEvolve
Tree
p1004
(dp1005
g7
(imyEvolve
Tree
p1006
(dp1007
g14
I0
sg29
F-1.8396834123597072
sg15
I01
sbsg14
I1
sg16
I01
sg17
g72
sbsg30
(imyEvolve
Tree
p1008
(dp1009
g14
I1
sg24
(imyEvolve
Tree
p1010
(dp1011
g14
I0
sg15
I00
sbsg30
(imyEvolve
Tree
p1012
(dp1013
g14
I0
sg15
I00
sbsg16
I00
sg17
g54
sbsg16
I00
sg17
g54
sbsg16
I00
sg17
g55
sbsg30
(imyEvolve
Tree
p1014
(dp1015
g14
I3
sg24
(imyEvolve
Tree
p1016
(dp1017
g7
(imyEvolve
Tree
p1018
(dp1019
g7
(imyEvolve
Tree
p1020
(dp1021
g14
I0
sg29
F2.2943568666234775
sg15
I01
sbsg14
I1
sg16
I01
sg17
g19
sbsg14
I2
sg16
I01
sg17
g19
sbsg30
(imyEvolve
Tree
p1022
(dp1023
g7
(imyEvolve
Tree
p1024
(dp1025
g14
I1
sg24
(imyEvolve
Tree
p1026
(dp1027
g14
I0
sg29
F-3.4528962435070696
sg15
I01
sbsg30
(imyEvolve
Tree
p1028
(dp1029
g14
I0
sg29
F3.142923863583336
sg15
I01
sbsg16
I00
sg17
g33
sbsg14
I2
sg16
I01
sg17
g18
sbsg16
I00
sg17
g55
sbsg16
I00
sg17
g55
sba(imyEvolve
Tree
p1030
(dp1031
g7
(imyEvolve
Tree
p1032
(dp1033
g7
(imyEvolve
Tree
p1034
(dp1035
g14
I2
sg24
(imyEvolve
Tree
p1036
(dp1037
g14
I1
sg24
(imyEvolve
Tree
p1038
(dp1039
g14
I0
sg29
F-4.998396595550215
sg15
I01
sbsg30
(imyEvolve
Tree
p1040
(dp1041
g14
I0
sg15
I00
sbsg16
I00
sg17
g55
sbsg30
(imyEvolve
Tree
p1042
(dp1043
g7
(imyEvolve
Tree
p1044
(dp1045
g14
I0
sg15
I00
sbsg14
I1
sg16
I01
sg17
g18
sbsg16
I00
sg17
g54
sbsg14
I3
sg16
I01
sg17
g72
sbsg14
I4
sg16
I01
sg17
g79
sba(imyEvolve
Tree
p1046
(dp1047
g14
I5
sg24
(imyEvolve
Tree
p1048
(dp1049
g7
(imyEvolve
Tree
p1050
(dp1051
g7
(imyEvolve
Tree
p1052
(dp1053
g14
I2
sg24
(imyEvolve
Tree
p1054
(dp1055
g7
(imyEvolve
Tree
p1056
(dp1057
g14
I0
sg15
I00
sbsg14
I1
sg16
I01
sg17
g79
sbsg30
(imyEvolve
Tree
p1058
(dp1059
g14
I1
sg24
(imyEvolve
Tree
p1060
(dp1061
g14
I0
sg29
F-1.1254366346823663
sg15
I01
sbsg30
(imyEvolve
Tree
p1062
(dp1063
g14
I0
sg15
I00
sbsg16
I00
sg17
g55
sbsg16
I00
sg17
g33
sbsg14
I3
sg16
I01
sg17
g72
sbsg14
I4
sg16
I01
sg17
g18
sbsg30
(imyEvolve
Tree
p1064
(dp1065
g14
I4
sg24
(imyEvolve
Tree
p1066
(dp1067
g14
I3
sg24
(imyEvolve
Tree
p1068
(dp1069
g14
I2
sg24
(imyEvolve
Tree
p1070
(dp1071
g14
I1
sg24
(imyEvolve
Tree
p1072
(dp1073
g14
I0
sg29
F-1.4824054486518912
sg15
I01
sbsg30
(imyEvolve
Tree
p1074
(dp1075
g14
I0
sg29
F-4.541823803616795
sg15
I01
sbsg16
I00
sg17
g54
sbsg30
(imyEvolve
Tree
p1076
(dp1077
g7
(imyEvolve
Tree
p1078
(dp1079
g14
I0
sg15
I00
sbsg14
I1
sg16
I01
sg17
g72
sbsg16
I00
sg17
g54
sbsg30
(imyEvolve
Tree
p1080
(dp1081
g14
I2
sg24
(imyEvolve
Tree
p1082
(dp1083
g7
(imyEvolve
Tree
p1084
(dp1085
g14
I0
sg29
F0.1566250243320706
sg15
I01
sbsg14
I1
sg16
I01
sg17
g18
sbsg30
(imyEvolve
Tree
p1086
(dp1087
g14
I1
sg24
(imyEvolve
Tree
p1088
(dp1089
g14
I0
sg15
I00
sbsg30
(imyEvolve
Tree
p1090
(dp1091
g14
I0
sg15
I00
sbsg16
I00
sg17
g54
sbsg16
I00
sg17
g54
sbsg16
I00
sg17
g54
sbsg30
(imyEvolve
Tree
p1092
(dp1093
g14
I3
sg24
(imyEvolve
Tree
p1094
(dp1095
g7
(imyEvolve
Tree
p1096
(dp1097
g7
(imyEvolve
Tree
p1098
(dp1099
g14
I0
sg29
F-0.5301207055334984
sg15
I01
sbsg14
I1
sg16
I01
sg17
g18
sbsg14
I2
sg16
I01
sg17
g19
sbsg30
(imyEvolve
Tree
p1100
(dp1101
g7
(imyEvolve
Tree
p1102
(dp1103
g14
I1
sg24
(imyEvolve
Tree
p1104
(dp1105
g14
I0
sg15
I00
sbsg30
(imyEvolve
Tree
p1106
(dp1107
g14
I0
sg15
I00
sbsg16
I00
sg17
g55
sbsg14
I2
sg16
I01
sg17
g18
sbsg16
I00
sg17
g54
sbsg16
I00
sg17
g33
sbsg16
I00
sg17
g54
sba(imyEvolve
Tree
p1108
(dp1109
g14
I3
sg24
(imyEvolve
Tree
p1110
(dp1111
g7
(imyEvolve
Tree
p1112
(dp1113
g14
I1
sg24
(imyEvolve
Tree
p1114
(dp1115
g14
I0
sg29
F4.1043451499344705
sg15
I01
sbsg30
(imyEvolve
Tree
p1116
(dp1117
g14
I0
sg15
I00
sbsg16
I00
sg17
g33
sbsg14
I2
sg16
I01
sg17
g19
sbsg30
(imyEvolve
Tree
p1118
(dp1119
g7
(imyEvolve
Tree
p1120
(dp1121
g7
(imyEvolve
Tree
p1122
(dp1123
g14
I0
sg29
F1.9236886831368993
sg15
I01
sbsg14
I1
sg16
I01
sg17
g18
sbsg14
I2
sg16
I01
sg17
g79
sbsg16
I00
sg17
g33
sba(imyEvolve
Tree
p1124
(dp1125
g14
I4
sg24
(imyEvolve
Tree
p1126
(dp1127
g7
(imyEvolve
Tree
p1128
(dp1129
g14
I2
sg24
(imyEvolve
Tree
p1130
(dp1131
g7
(imyEvolve
Tree
p1132
(dp1133
g14
I0
sg29
F-3.42096261421706
sg15
I01
sbsg14
I1
sg16
I01
sg17
g19
sbsg30
(imyEvolve
Tree
p1134
(dp1135
g7
(imyEvolve
Tree
p1136
(dp1137
g14
I0
sg29
F2.2685407503572748
sg15
I01
sbsg14
I1
sg16
I01
sg17
g19
sbsg16
I00
sg17
g55
sbsg14
I3
sg16
I01
sg17
g72
sbsg30
(imyEvolve
Tree
p1138
(dp1139
g7
(imyEvolve
Tree
p1140
(dp1141
g14
I2
sg24
(imyEvolve
Tree
p1142
(dp1143
g14
I1
sg24
(imyEvolve
Tree
p1144
(dp1145
g14
I0
sg29
F1.6748320769431828
sg15
I01
sbsg30
(imyEvolve
Tree
p1146
(dp1147
g14
I0
sg29
F-3.1932045741118986
sg15
I01
sbsg16
I00
sg17
g55
sbsg30
(imyEvolve
Tree
p1148
(dp1149
g7
(imyEvolve
Tree
p1150
(dp1151
g14
I0
sg29
F-3.175053912352838
sg15
I01
sbsg14
I1
sg16
I01
sg17
g79
sbsg16
I00
sg17
g54
sbsg14
I3
sg16
I01
sg17
g19
sbsg16
I00
sg17
g54
sbaasS'alpha'
p1152
F0.0012068478921166473
sS'fitness'
p1153
cnumpy.core.multiarray
scalar
p1154
(cnumpy
dtype
p1155
(S'f8'
p1156
I0
I1
tp1157
Rp1158
(I3
S'<'
p1159
NNNI-1
I-1
I0
tp1160
bS'|a2\xcb\xf2\x1d\xe6?'
p1161
tp1162
Rp1163
sS'weightSharing'
p1164
(lp1165
I01
asS'fitnessValid'
p1166
I00
sS'resolution'
p1167
I81
sb.