(imyEvolve
Individual
p0
(dp1
S'funcs'
p2
(lp3
(lp4
(imyEvolve
Tree
p5
(dp6
S'left'
p7
(imyEvolve
Tree
p8
(dp9
g7
(imyEvolve
Tree
p10
(dp11
S'depth'
p12
I0
sS'isConstant'
p13
I00
sbsg12
I1
sS'right'
p14
(imyEvolve
Tree
p15
(dp16
g12
I0
sS'constant'
p17
F-0.6423909509239181
sg13
I01
sbsS'single'
p18
I00
sS'op'
p19
coperator
add
p20
sbsg12
I2
sg14
(imyEvolve
Tree
p21
(dp22
S'below'
p23
(imyEvolve
Tree
p24
(dp25
g12
I0
sg17
F2.5151644275100367
sg13
I01
sbsg12
I1
sg18
I01
sg19
cmath
sin
p26
sbsg18
I00
sg19
coperator
mul
p27
sba(imyEvolve
Tree
p28
(dp29
g23
(imyEvolve
Tree
p30
(dp31
g7
(imyEvolve
Tree
p32
(dp33
g23
(imyEvolve
Tree
p34
(dp35
g12
I0
sg17
F-0.7573524128027485
sg13
I01
sbsg12
I1
sg18
I01
sg19
g26
sbsg12
I2
sg14
(imyEvolve
Tree
p36
(dp37
g7
(imyEvolve
Tree
p38
(dp39
g12
I0
sg17
F-0.4033370162106902
sg13
I01
sbsg12
I1
sg14
(imyEvolve
Tree
p40
(dp41
g12
I0
sg17
F0.9046919294210376
sg13
I01
sbsg18
I00
sg19
g27
sbsg18
I00
sg19
g20
sbsg12
I3
sg18
I01
sg19
g26
sba(imyEvolve
Tree
p42
(dp43
g7
(imyEvolve
Tree
p44
(dp45
g7
(imyEvolve
Tree
p46
(dp47
g12
I0
sg13
I00
sbsg12
I1
sg14
(imyEvolve
Tree
p48
(dp49
g12
I0
sg13
I00
sbsg18
I00
sg19
g27
sbsg12
I2
sg14
(imyEvolve
Tree
p50
(dp51
g7
(imyEvolve
Tree
p52
(dp53
g12
I0
sg13
I00
sbsg12
I1
sg14
(imyEvolve
Tree
p54
(dp55
g12
I0
sg17
F-4.8141481444790815
sg13
I01
sbsg18
I00
sg19
g20
sbsg18
I00
sg19
coperator
sub
p56
sba(imyEvolve
Tree
p57
(dp58
g7
(imyEvolve
Tree
p59
(dp60
g7
(imyEvolve
Tree
p61
(dp62
g23
(imyEvolve
Tree
p63
(dp64
g7
(imyEvolve
Tree
p65
(dp66
g23
(imyEvolve
Tree
p67
(dp68
g12
I0
sg17
F-1.4627284152354947
sg13
I01
sbsg12
I1
sg18
I01
sg19
cmyEvolve
absSqrt
p69
sbsg12
I2
sg14
(imyEvolve
Tree
p70
(dp71
g7
(imyEvolve
Tree
p72
(dp73
g12
I0
sg13
I00
sbsg12
I1
sg14
(imyEvolve
Tree
p74
(dp75
g12
I0
sg13
I00
sbsg18
I00
sg19
g27
sbsg18
I00
sg19
g27
sbsg12
I3
sg18
I01
sg19
g69
sbsg12
I4
sg14
(imyEvolve
Tree
p76
(dp77
g23
(imyEvolve
Tree
p78
(dp79
g7
(imyEvolve
Tree
p80
(dp81
g23
(imyEvolve
Tree
p82
(dp83
g12
I0
sg17
F-4.178526413143969
sg13
I01
sbsg12
I1
sg18
I01
sg19
g69
sbsg12
I2
sg14
(imyEvolve
Tree
p84
(dp85
g7
(imyEvolve
Tree
p86
(dp87
g12
I0
sg17
F-0.3947798601193728
sg13
I01
sbsg12
I1
sg14
(imyEvolve
Tree
p88
(dp89
g12
I0
sg17
F-3.688284187974149
sg13
I01
sbsg18
I00
sg19
g27
sbsg18
I00
sg19
g27
sbsg12
I3
sg18
I01
sg19
g26
sbsg18
I00
sg19
g56
sbsg12
I5
sg14
(imyEvolve
Tree
p90
(dp91
g7
(imyEvolve
Tree
p92
(dp93
g23
(imyEvolve
Tree
p94
(dp95
g7
(imyEvolve
Tree
p96
(dp97
g23
(imyEvolve
Tree
p98
(dp99
g12
I0
sg13
I00
sbsg12
I1
sg18
I01
sg19
cmyEvolve
square
p100
sbsg12
I2
sg14
(imyEvolve
Tree
p101
(dp102
g7
(imyEvolve
Tree
p103
(dp104
g12
I0
sg13
I00
sbsg12
I1
sg14
(imyEvolve
Tree
p105
(dp106
g12
I0
sg13
I00
sbsg18
I00
sg19
g27
sbsg18
I00
sg19
g20
sbsg12
I3
sg18
I01
sg19
g100
sbsg12
I4
sg14
(imyEvolve
Tree
p107
(dp108
g7
(imyEvolve
Tree
p109
(dp110
g23
(imyEvolve
Tree
p111
(dp112
g7
(imyEvolve
Tree
p113
(dp114
g12
I0
sg17
F3.435970457466368
sg13
I01
sbsg12
I1
sg14
(imyEvolve
Tree
p115
(dp116
g12
I0
sg17
F-1.8967526745248176
sg13
I01
sbsg18
I00
sg19
g56
sbsg12
I2
sg18
I01
sg19
cmath
cos
p117
sbsg12
I3
sg14
(imyEvolve
Tree
p118
(dp119
g7
(imyEvolve
Tree
p120
(dp121
g7
(imyEvolve
Tree
p122
(dp123
g12
I0
sg13
I00
sbsg12
I1
sg14
(imyEvolve
Tree
p124
(dp125
g12
I0
sg13
I00
sbsg18
I00
sg19
g20
sbsg12
I2
sg14
(imyEvolve
Tree
p126
(dp127
g7
(imyEvolve
Tree
p128
(dp129
g12
I0
sg17
F-4.261280436482378
sg13
I01
sbsg12
I1
sg14
(imyEvolve
Tree
p130
(dp131
g12
I0
sg13
I00
sbsg18
I00
sg19
g20
sbsg18
I00
sg19
g27
sbsg18
I00
sg19
g56
sbsg18
I00
sg19
g20
sbsg18
I00
sg19
g56
sba(imyEvolve
Tree
p132
(dp133
g23
(imyEvolve
Tree
p134
(dp135
g7
(imyEvolve
Tree
p136
(dp137
g7
(imyEvolve
Tree
p138
(dp139
g23
(imyEvolve
Tree
p140
(dp141
g23
(imyEvolve
Tree
p142
(dp143
g12
I0
sg13
I00
sbsg12
I1
sg18
I01
sg19
g26
sbsg12
I2
sg18
I01
sg19
g69
sbsg12
I3
sg14
(imyEvolve
Tree
p144
(dp145
g7
(imyEvolve
Tree
p146
(dp147
g23
(imyEvolve
Tree
p148
(dp149
g12
I0
sg17
F1.6332381595393155
sg13
I01
sbsg12
I1
sg18
I01
sg19
g69
sbsg12
I2
sg14
(imyEvolve
Tree
p150
(dp151
g23
(imyEvolve
Tree
p152
(dp153
g12
I0
sg13
I00
sbsg12
I1
sg18
I01
sg19
g100
sbsg18
I00
sg19
g20
sbsg18
I00
sg19
g20
sbsg12
I4
sg14
(imyEvolve
Tree
p154
(dp155
g23
(imyEvolve
Tree
p156
(dp157
g7
(imyEvolve
Tree
p158
(dp159
g7
(imyEvolve
Tree
p160
(dp161
g12
I0
sg17
F4.8524345854550965
sg13
I01
sbsg12
I1
sg14
(imyEvolve
Tree
p162
(dp163
g12
I0
sg17
F0.8169634613320884
sg13
I01
sbsg18
I00
sg19
g27
sbsg12
I2
sg14
(imyEvolve
Tree
p164
(dp165
g23
(imyEvolve
Tree
p166
(dp167
g12
I0
sg13
I00
sbsg12
I1
sg18
I01
sg19
g100
sbsg18
I00
sg19
g56
sbsg12
I3
sg18
I01
sg19
g26
sbsg18
I00
sg19
g27
sbsg12
I5
sg18
I01
sg19
g100
sba(imyEvolve
Tree
p168
(dp169
g12
I2
sg7
(imyEvolve
Tree
p170
(dp171
g23
(imyEvolve
Tree
p172
(dp173
g12
I0
sg17
F4.6693691983177406
sg13
I01
sbsg12
I1
sg18
I01
sg19
g117
sbsg14
(imyEvolve
Tree
p174
(dp175
g12
I1
sg7
(imyEvolve
Tree
p176
(dp177
g12
I0
sg17
F-1.4197859702366178
sg13
I01
sbsg14
(imyEvolve
Tree
p178
(dp179
g12
I0
sg17
F-0.14297749038359342
sg13
I01
sbsg18
I00
sg19
g27
sbsg18
I00
sg19
g27
sba(imyEvolve
Tree
p180
(dp181
g23
(imyEvolve
Tree
p182
(dp183
g12
I4
sg7
(imyEvolve
Tree
p184
(dp185
g23
(imyEvolve
Tree
p186
(dp187
g12
I2
sg7
(imyEvolve
Tree
p188
(dp189
g23
(imyEvolve
Tree
p190
(dp191
g12
I0
sg17
F0.7642286712970421
sg13
I01
sbsg12
I1
sg18
I01
sg19
g69
sbsg14
(imyEvolve
Tree
p192
(dp193
g12
I1
sg7
(imyEvolve
Tree
p194
(dp195
g12
I0
sg17
F1.9611571816291926
sg13
I01
sbsg14
(imyEvolve
Tree
p196
(dp197
g12
I0
sg13
I00
sbsg18
I00
sg19
g56
sbsg18
I00
sg19
g20
sbsg12
I3
sg18
I01
sg19
g100
sbsg14
(imyEvolve
Tree
p198
(dp199
g23
(imyEvolve
Tree
p200
(dp201
g23
(imyEvolve
Tree
p202
(dp203
g23
(imyEvolve
Tree
p204
(dp205
g12
I0
sg17
F3.592387266393894
sg13
I01
sbsg12
I1
sg18
I01
sg19
g100
sbsg12
I2
sg18
I01
sg19
g69
sbsg12
I3
sg18
I01
sg19
g69
sbsg18
I00
sg19
g20
sbsg12
I5
sg18
I01
sg19
g100
sba(imyEvolve
Tree
p206
(dp207
g23
(imyEvolve
Tree
p208
(dp209
g7
(imyEvolve
Tree
p210
(dp211
g7
(imyEvolve
Tree
p212
(dp213
g7
(imyEvolve
Tree
p214
(dp215
g23
(imyEvolve
Tree
p216
(dp217
g12
I0
sg13
I00
sbsg12
I1
sg18
I01
sg19
g69
sbsg12
I2
sg14
(imyEvolve
Tree
p218
(dp219
g7
(imyEvolve
Tree
p220
(dp221
g12
I0
sg13
I00
sbsg12
I1
sg14
(imyEvolve
Tree
p222
(dp223
g12
I0
sg13
I00
sbsg18
I00
sg19
g20
sbsg18
I00
sg19
g56
sbsg12
I3
sg14
(imyEvolve
Tree
p224
(dp225
g23
(imyEvolve
Tree
p226
(dp227
g7
(imyEvolve
Tree
p228
(dp229
g12
I0
sg13
I00
sbsg12
I1
sg14
(imyEvolve
Tree
p230
(dp231
g12
I0
sg13
I00
sbsg18
I00
sg19
g20
sbsg12
I2
sg18
I01
sg19
g26
sbsg18
I00
sg19
g20
sbsg12
I4
sg14
(imyEvolve
Tree
p232
(dp233
g7
(imyEvolve
Tree
p234
(dp235
g7
(imyEvolve
Tree
p236
(dp237
g23
(imyEvolve
Tree
p238
(dp239
g12
I0
sg13
I00
sbsg12
I1
sg18
I01
sg19
g69
sbsg12
I2
sg14
(imyEvolve
Tree
p240
(dp241
g7
(imyEvolve
Tree
p242
(dp243
g12
I0
sg17
F4.123377740579109
sg13
I01
sbsg12
I1
sg14
(imyEvolve
Tree
p244
(dp245
g12
I0
sg13
I00
sbsg18
I00
sg19
g20
sbsg18
I00
sg19
g56
sbsg12
I3
sg14
(imyEvolve
Tree
p246
(dp247
g23
(imyEvolve
Tree
p248
(dp249
g23
(imyEvolve
Tree
p250
(dp251
g12
I0
sg13
I00
sbsg12
I1
sg18
I01
sg19
g100
sbsg12
I2
sg18
I01
sg19
g69
sbsg18
I00
sg19
g27
sbsg18
I00
sg19
g56
sbsg12
I5
sg18
I01
sg19
g100
sba(imyEvolve
Tree
p252
(dp253
g23
(imyEvolve
Tree
p254
(dp255
g7
(imyEvolve
Tree
p256
(dp257
g12
I0
sg13
I00
sbsg12
I1
sg14
(imyEvolve
Tree
p258
(dp259
g12
I0
sg17
F0.9239452318374255
sg13
I01
sbsg18
I00
sg19
g56
sbsg12
I2
sg18
I01
sg19
g69
sba(imyEvolve
Tree
p260
(dp261
g7
(imyEvolve
Tree
p262
(dp263
g23
(imyEvolve
Tree
p264
(dp265
g12
I0
sg17
F1.8904323632815911
sg13
I01
sbsg12
I1
sg18
I01
sg19
g117
sbsg12
I2
sg14
(imyEvolve
Tree
p266
(dp267
g7
(imyEvolve
Tree
p268
(dp269
g12
I0
sg13
I00
sbsg12
I1
sg14
(imyEvolve
Tree
p270
(dp271
g12
I0
sg17
F-3.6073730964514694
sg13
I01
sbsg18
I00
sg19
g27
sbsg18
I00
sg19
g27
sba(imyEvolve
Tree
p272
(dp273
g23
(imyEvolve
Tree
p274
(dp275
g7
(imyEvolve
Tree
p276
(dp277
g7
(imyEvolve
Tree
p278
(dp279
g12
I0
sg13
I00
sbsg12
I1
sg14
(imyEvolve
Tree
p280
(dp281
g12
I0
sg17
F3.2905625051441287
sg13
I01
sbsg18
I00
sg19
g27
sbsg12
I2
sg14
(imyEvolve
Tree
p282
(dp283
g23
(imyEvolve
Tree
p284
(dp285
g12
I0
sg17
F-0.10411643742277832
sg13
I01
sbsg12
I1
sg18
I01
sg19
g26
sbsg18
I00
sg19
g20
sbsg12
I3
sg18
I01
sg19
g69
sba(imyEvolve
Tree
p286
(dp287
g7
(imyEvolve
Tree
p288
(dp289
g7
(imyEvolve
Tree
p290
(dp291
g12
I0
sg13
I00
sbsg12
I1
sg14
(imyEvolve
Tree
p292
(dp293
g12
I0
sg17
F3.550381872075338
sg13
I01
sbsg18
I00
sg19
g56
sbsg12
I2
sg14
(imyEvolve
Tree
p294
(dp295
g7
(imyEvolve
Tree
p296
(dp297
g12
I0
sg13
I00
sbsg12
I1
sg14
(imyEvolve
Tree
p298
(dp299
g12
I0
sg17
F3.361405058196036
sg13
I01
sbsg18
I00
sg19
g20
sbsg18
I00
sg19
g27
sba(imyEvolve
Tree
p300
(dp301
g23
(imyEvolve
Tree
p302
(dp303
g23
(imyEvolve
Tree
p304
(dp305
g7
(imyEvolve
Tree
p306
(dp307
g12
I0
sg17
F0.9814768532098928
sg13
I01
sbsg12
I1
sg14
(imyEvolve
Tree
p308
(dp309
g12
I0
sg13
I00
sbsg18
I00
sg19
g56
sbsg12
I2
sg18
I01
sg19
g100
sbsg12
I3
sg18
I01
sg19
g117
sba(imyEvolve
Tree
p310
(dp311
g23
(imyEvolve
Tree
p312
(dp313
g23
(imyEvolve
Tree
p314
(dp315
g23
(imyEvolve
Tree
p316
(dp317
g23
(imyEvolve
Tree
p318
(dp319
g12
I0
sg13
I00
sbsg12
I1
sg18
I01
sg19
g26
sbsg12
I2
sg18
I01
sg19
g117
sbsg12
I3
sg18
I01
sg19
g117
sbsg12
I4
sg18
I01
sg19
g69
sba(imyEvolve
Tree
p320
(dp321
g12
I2
sg7
(imyEvolve
Tree
p322
(dp323
g12
I1
sg7
(imyEvolve
Tree
p324
(dp325
g12
I0
sg13
I00
sbsg14
(imyEvolve
Tree
p326
(dp327
g12
I0
sg17
F-1.9534753692766325
sg13
I01
sbsg18
I00
sg19
g27
sbsg14
(imyEvolve
Tree
p328
(dp329
g23
(imyEvolve
Tree
p330
(dp331
g12
I0
sg13
I00
sbsg12
I1
sg18
I01
sg19
g117
sbsg18
I00
sg19
g56
sba(imyEvolve
Tree
p332
(dp333
g7
(imyEvolve
Tree
p334
(dp335
g7
(imyEvolve
Tree
p336
(dp337
g12
I0
sg17
F-2.6035793568859567
sg13
I01
sbsg12
I1
sg14
(imyEvolve
Tree
p338
(dp339
g12
I0
sg13
I00
sbsg18
I00
sg19
g20
sbsg12
I2
sg14
(imyEvolve
Tree
p340
(dp341
g7
(imyEvolve
Tree
p342
(dp343
g12
I0
sg13
I00
sbsg12
I1
sg14
(imyEvolve
Tree
p344
(dp345
g12
I0
sg13
I00
sbsg18
I00
sg19
g56
sbsg18
I00
sg19
g56
sba(imyEvolve
Tree
p346
(dp347
g23
(imyEvolve
Tree
p348
(dp349
g7
(imyEvolve
Tree
p350
(dp351
g7
(imyEvolve
Tree
p352
(dp353
g12
I0
sg17
F2.8211929298365117
sg13
I01
sbsg12
I1
sg14
(imyEvolve
Tree
p354
(dp355
g12
I0
sg17
F1.7468896184750413
sg13
I01
sbsg18
I00
sg19
g20
sbsg12
I2
sg14
(imyEvolve
Tree
p356
(dp357
g23
(imyEvolve
Tree
p358
(dp359
g12
I0
sg13
I00
sbsg12
I1
sg18
I01
sg19
g69
sbsg18
I00
sg19
g20
sbsg12
I3
sg18
I01
sg19
g69
sba(imyEvolve
Tree
p360
(dp361
g7
(imyEvolve
Tree
p362
(dp363
g7
(imyEvolve
Tree
p364
(dp365
g23
(imyEvolve
Tree
p366
(dp367
g12
I0
sg17
F0.5779422017041131
sg13
I01
sbsg12
I1
sg18
I01
sg19
g26
sbsg12
I2
sg14
(imyEvolve
Tree
p368
(dp369
g23
(imyEvolve
Tree
p370
(dp371
g12
I0
sg17
F2.678372429347151
sg13
I01
sbsg12
I1
sg18
I01
sg19
g117
sbsg18
I00
sg19
g27
sbsg12
I3
sg14
(imyEvolve
Tree
p372
(dp373
g23
(imyEvolve
Tree
p374
(dp375
g7
(imyEvolve
Tree
p376
(dp377
g12
I0
sg17
F-3.7874997457824042
sg13
I01
sbsg12
I1
sg14
(imyEvolve
Tree
p378
(dp379
g12
I0
sg13
I00
sbsg18
I00
sg19
g20
sbsg12
I2
sg18
I01
sg19
g69
sbsg18
I00
sg19
g27
sba(imyEvolve
Tree
p380
(dp381
g12
I5
sg7
(imyEvolve
Tree
p382
(dp383
g12
I4
sg7
(imyEvolve
Tree
p384
(dp385
g23
(imyEvolve
Tree
p386
(dp387
g23
(imyEvolve
Tree
p388
(dp389
g23
(imyEvolve
Tree
p390
(dp391
g12
I0
sg17
F1.725995415939133
sg13
I01
sbsg12
I1
sg18
I01
sg19
g117
sbsg12
I2
sg18
I01
sg19
g26
sbsg12
I3
sg18
I01
sg19
g117
sbsg14
(imyEvolve
Tree
p392
(dp393
g23
(imyEvolve
Tree
p394
(dp395
g12
I2
sg7
(imyEvolve
Tree
p396
(dp397
g12
I1
sg7
(imyEvolve
Tree
p398
(dp399
g12
I0
sg17
F-2.281623589283539
sg13
I01
sbsg14
(imyEvolve
Tree
p400
(dp401
g12
I0
sg17
F0.5539634567602629
sg13
I01
sbsg18
I00
sg19
g20
sbsg14
(imyEvolve
Tree
p402
(dp403
g23
(imyEvolve
Tree
p404
(dp405
g12
I0
sg17
F-0.4976635731677872
sg13
I01
sbsg12
I1
sg18
I01
sg19
g26
sbsg18
I00
sg19
g20
sbsg12
I3
sg18
I01
sg19
g117
sbsg18
I00
sg19
g20
sbsg14
(imyEvolve
Tree
p406
(dp407
g12
I4
sg7
(imyEvolve
Tree
p408
(dp409
g23
(imyEvolve
Tree
p410
(dp411
g12
I2
sg7
(imyEvolve
Tree
p412
(dp413
g12
I1
sg7
(imyEvolve
Tree
p414
(dp415
g12
I0
sg17
F2.6498323382118976
sg13
I01
sbsg14
(imyEvolve
Tree
p416
(dp417
g12
I0
sg17
F-0.07963234453649104
sg13
I01
sbsg18
I00
sg19
g56
sbsg14
(imyEvolve
Tree
p418
(dp419
g12
I1
sg7
(imyEvolve
Tree
p420
(dp421
g12
I0
sg13
I00
sbsg14
(imyEvolve
Tree
p422
(dp423
g12
I0
sg13
I00
sbsg18
I00
sg19
g20
sbsg18
I00
sg19
g56
sbsg12
I3
sg18
I01
sg19
g26
sbsg14
(imyEvolve
Tree
p424
(dp425
g12
I3
sg7
(imyEvolve
Tree
p426
(dp427
g12
I2
sg7
(imyEvolve
Tree
p428
(dp429
g12
I1
sg7
(imyEvolve
Tree
p430
(dp431
g12
I0
sg17
F0.18345455143393696
sg13
I01
sbsg14
(imyEvolve
Tree
p432
(dp433
g12
I0
sg13
I00
sbsg18
I00
sg19
g20
sbsg14
(imyEvolve
Tree
p434
(dp435
g12
I1
sg7
(imyEvolve
Tree
p436
(dp437
g12
I0
sg13
I00
sbsg14
(imyEvolve
Tree
p438
(dp439
g12
I0
sg17
F3.727164368494039
sg13
I01
sbsg18
I00
sg19
g20
sbsg18
I00
sg19
g20
sbsg14
(imyEvolve
Tree
p440
(dp441
g23
(imyEvolve
Tree
p442
(dp443
g23
(imyEvolve
Tree
p444
(dp445
g12
I0
sg17
F0.08195810435944217
sg13
I01
sbsg12
I1
sg18
I01
sg19
g117
sbsg12
I2
sg18
I01
sg19
g117
sbsg18
I00
sg19
g27
sbsg18
I00
sg19
g20
sbsg18
I00
sg19
g56
sba(imyEvolve
Tree
p446
(dp447
g12
I3
sg7
(imyEvolve
Tree
p448
(dp449
g12
I2
sg7
(imyEvolve
Tree
p450
(dp451
g23
(imyEvolve
Tree
p452
(dp453
g12
I0
sg13
I00
sbsg12
I1
sg18
I01
sg19
g26
sbsg14
(imyEvolve
Tree
p454
(dp455
g12
I1
sg7
(imyEvolve
Tree
p456
(dp457
g12
I0
sg17
F1.957642796388253
sg13
I01
sbsg14
(imyEvolve
Tree
p458
(dp459
g12
I0
sg17
F-0.8637867077447385
sg13
I01
sbsg18
I00
sg19
g56
sbsg18
I00
sg19
g56
sbsg14
(imyEvolve
Tree
p460
(dp461
g23
(imyEvolve
Tree
p462
(dp463
g23
(imyEvolve
Tree
p464
(dp465
g12
I0
sg17
F-2.055952309398447
sg13
I01
sbsg12
I1
sg18
I01
sg19
g26
sbsg12
I2
sg18
I01
sg19
g26
sbsg18
I00
sg19
g56
sbaa(lp466
(imyEvolve
Tree
p467
(dp468
g23
(imyEvolve
Tree
p469
(dp470
g7
(imyEvolve
Tree
p471
(dp472
g7
(imyEvolve
Tree
p473
(dp474
g12
I0
sg13
I00
sbsg12
I1
sg14
(imyEvolve
Tree
p475
(dp476
g12
I0
sg13
I00
sbsg18
I00
sg19
g20
sbsg12
I2
sg14
(imyEvolve
Tree
p477
(dp478
g23
(imyEvolve
Tree
p479
(dp480
g12
I0
sg13
I00
sbsg12
I1
sg18
I01
sg19
g69
sbsg18
I00
sg19
g56
sbsg12
I3
sg18
I01
sg19
g100
sba(imyEvolve
Tree
p481
(dp482
g23
(imyEvolve
Tree
p483
(dp484
g12
I3
sg7
(imyEvolve
Tree
p485
(dp486
g12
I2
sg7
(imyEvolve
Tree
p487
(dp488
g12
I1
sg7
(imyEvolve
Tree
p489
(dp490
g12
I0
sg17
F-4.602503064181888
sg13
I01
sbsg14
(imyEvolve
Tree
p491
(dp492
g12
I0
sg17
F-4.893293041904738
sg13
I01
sbsg18
I00
sg19
g20
sbsg14
(imyEvolve
Tree
p493
(dp494
g23
(imyEvolve
Tree
p495
(dp496
g12
I0
sg17
F0.9445179591796817
sg13
I01
sbsg12
I1
sg18
I01
sg19
g69
sbsg18
I00
sg19
g27
sbsg14
(imyEvolve
Tree
p497
(dp498
g23
(imyEvolve
Tree
p499
(dp500
g12
I1
sg7
(imyEvolve
Tree
p501
(dp502
g12
I0
sg13
I00
sbsg14
(imyEvolve
Tree
p503
(dp504
g12
I0
sg13
I00
sbsg18
I00
sg19
g20
sbsg12
I2
sg18
I01
sg19
g100
sbsg18
I00
sg19
g20
sbsg12
I4
sg18
I01
sg19
g117
sba(imyEvolve
Tree
p505
(dp506
g23
(imyEvolve
Tree
p507
(dp508
g23
(imyEvolve
Tree
p509
(dp510
g12
I0
sg13
I00
sbsg12
I1
sg18
I01
sg19
g26
sbsg12
I2
sg18
I01
sg19
g69
sba(imyEvolve
Tree
p511
(dp512
g23
(imyEvolve
Tree
p513
(dp514
g7
(imyEvolve
Tree
p515
(dp516
g7
(imyEvolve
Tree
p517
(dp518
g23
(imyEvolve
Tree
p519
(dp520
g12
I0
sg13
I00
sbsg12
I1
sg18
I01
sg19
g100
sbsg12
I2
sg14
(imyEvolve
Tree
p521
(dp522
g7
(imyEvolve
Tree
p523
(dp524
g12
I0
sg13
I00
sbsg12
I1
sg14
(imyEvolve
Tree
p525
(dp526
g12
I0
sg13
I00
sbsg18
I00
sg19
g20
sbsg18
I00
sg19
g56
sbsg12
I3
sg14
(imyEvolve
Tree
p527
(dp528
g7
(imyEvolve
Tree
p529
(dp530
g7
(imyEvolve
Tree
p531
(dp532
g12
I0
sg17
F3.356777415854598
sg13
I01
sbsg12
I1
sg14
(imyEvolve
Tree
p533
(dp534
g12
I0
sg17
F1.0200944809712151
sg13
I01
sbsg18
I00
sg19
g27
sbsg12
I2
sg14
(imyEvolve
Tree
p535
(dp536
g7
(imyEvolve
Tree
p537
(dp538
g12
I0
sg13
I00
sbsg12
I1
sg14
(imyEvolve
Tree
p539
(dp540
g12
I0
sg13
I00
sbsg18
I00
sg19
g27
sbsg18
I00
sg19
g27
sbsg18
I00
sg19
g56
sbsg12
I4
sg18
I01
sg19
g117
sba(imyEvolve
Tree
p541
(dp542
g7
(imyEvolve
Tree
p543
(dp544
g7
(imyEvolve
Tree
p545
(dp546
g23
(imyEvolve
Tree
p547
(dp548
g23
(imyEvolve
Tree
p549
(dp550
g12
I0
sg13
I00
sbsg12
I1
sg18
I01
sg19
g26
sbsg12
I2
sg18
I01
sg19
g100
sbsg12
I3
sg14
(imyEvolve
Tree
p551
(dp552
g23
(imyEvolve
Tree
p553
(dp554
g23
(imyEvolve
Tree
p555
(dp556
g12
I0
sg17
F1.0001772943947085
sg13
I01
sbsg12
I1
sg18
I01
sg19
g26
sbsg12
I2
sg18
I01
sg19
g117
sbsg18
I00
sg19
g20
sbsg12
I4
sg14
(imyEvolve
Tree
p557
(dp558
g7
(imyEvolve
Tree
p559
(dp560
g7
(imyEvolve
Tree
p561
(dp562
g7
(imyEvolve
Tree
p563
(dp564
g12
I0
sg13
I00
sbsg12
I1
sg14
(imyEvolve
Tree
p565
(dp566
g12
I0
sg17
F-4.020805249285849
sg13
I01
sbsg18
I00
sg19
g56
sbsg12
I2
sg14
(imyEvolve
Tree
p567
(dp568
g23
(imyEvolve
Tree
p569
(dp570
g12
I0
sg17
F1.3094354558865309
sg13
I01
sbsg12
I1
sg18
I01
sg19
g69
sbsg18
I00
sg19
g56
sbsg12
I3
sg14
(imyEvolve
Tree
p571
(dp572
g23
(imyEvolve
Tree
p573
(dp574
g7
(imyEvolve
Tree
p575
(dp576
g12
I0
sg17
F-3.0168504602466117
sg13
I01
sbsg12
I1
sg14
(imyEvolve
Tree
p577
(dp578
g12
I0
sg17
F0.044594014025860496
sg13
I01
sbsg18
I00
sg19
g27
sbsg12
I2
sg18
I01
sg19
g100
sbsg18
I00
sg19
g27
sbsg18
I00
sg19
g27
sba(imyEvolve
Tree
p579
(dp580
g7
(imyEvolve
Tree
p581
(dp582
g23
(imyEvolve
Tree
p583
(dp584
g7
(imyEvolve
Tree
p585
(dp586
g7
(imyEvolve
Tree
p587
(dp588
g23
(imyEvolve
Tree
p589
(dp590
g12
I0
sg17
F0.38583131141444227
sg13
I01
sbsg12
I1
sg18
I01
sg19
g26
sbsg12
I2
sg14
(imyEvolve
Tree
p591
(dp592
g23
(imyEvolve
Tree
p593
(dp594
g12
I0
sg13
I00
sbsg12
I1
sg18
I01
sg19
g26
sbsg18
I00
sg19
g27
sbsg12
I3
sg14
(imyEvolve
Tree
p595
(dp596
g23
(imyEvolve
Tree
p597
(dp598
g7
(imyEvolve
Tree
p599
(dp600
g12
I0
sg17
F-0.8731862397721022
sg13
I01
sbsg12
I1
sg14
(imyEvolve
Tree
p601
(dp602
g12
I0
sg17
F-4.286514828431801
sg13
I01
sbsg18
I00
sg19
g56
sbsg12
I2
sg18
I01
sg19
g100
sbsg18
I00
sg19
g27
sbsg12
I4
sg18
I01
sg19
g117
sbsg12
I5
sg14
(imyEvolve
Tree
p603
(dp604
g7
(imyEvolve
Tree
p605
(dp606
g23
(imyEvolve
Tree
p607
(dp608
g23
(imyEvolve
Tree
p609
(dp610
g7
(imyEvolve
Tree
p611
(dp612
g12
I0
sg13
I00
sbsg12
I1
sg14
(imyEvolve
Tree
p613
(dp614
g12
I0
sg13
I00
sbsg18
I00
sg19
g20
sbsg12
I2
sg18
I01
sg19
g69
sbsg12
I3
sg18
I01
sg19
g100
sbsg12
I4
sg14
(imyEvolve
Tree
p615
(dp616
g23
(imyEvolve
Tree
p617
(dp618
g23
(imyEvolve
Tree
p619
(dp620
g23
(imyEvolve
Tree
p621
(dp622
g12
I0
sg17
F-1.5287312355805058
sg13
I01
sbsg12
I1
sg18
I01
sg19
g69
sbsg12
I2
sg18
I01
sg19
g100
sbsg12
I3
sg18
I01
sg19
g26
sbsg18
I00
sg19
g20
sbsg18
I00
sg19
g20
sba(imyEvolve
Tree
p623
(dp624
g12
I3
sg7
(imyEvolve
Tree
p625
(dp626
g12
I2
sg7
(imyEvolve
Tree
p627
(dp628
g23
(imyEvolve
Tree
p629
(dp630
g12
I0
sg13
I00
sbsg12
I1
sg18
I01
sg19
g26
sbsg14
(imyEvolve
Tree
p631
(dp632
g12
I1
sg7
(imyEvolve
Tree
p633
(dp634
g12
I0
sg13
I00
sbsg14
(imyEvolve
Tree
p635
(dp636
g12
I0
sg13
I00
sbsg18
I00
sg19
g27
sbsg18
I00
sg19
g27
sbsg14
(imyEvolve
Tree
p637
(dp638
g12
I2
sg7
(imyEvolve
Tree
p639
(dp640
g12
I1
sg7
(imyEvolve
Tree
p641
(dp642
g12
I0
sg13
I00
sbsg14
(imyEvolve
Tree
p643
(dp644
g12
I0
sg13
I00
sbsg18
I00
sg19
g20
sbsg14
(imyEvolve
Tree
p645
(dp646
g23
(imyEvolve
Tree
p647
(dp648
g12
I0
sg17
F-1.2318502349168359
sg13
I01
sbsg12
I1
sg18
I01
sg19
g69
sbsg18
I00
sg19
g56
sbsg18
I00
sg19
g56
sba(imyEvolve
Tree
p649
(dp650
g23
(imyEvolve
Tree
p651
(dp652
g12
I3
sg7
(imyEvolve
Tree
p653
(dp654
g23
(imyEvolve
Tree
p655
(dp656
g12
I1
sg7
(imyEvolve
Tree
p657
(dp658
g12
I0
sg17
F3.6655880869833695
sg13
I01
sbsg14
(imyEvolve
Tree
p659
(dp660
g12
I0
sg13
I00
sbsg18
I00
sg19
g20
sbsg12
I2
sg18
I01
sg19
g69
sbsg14
(imyEvolve
Tree
p661
(dp662
g12
I2
sg7
(imyEvolve
Tree
p663
(dp664
g23
(imyEvolve
Tree
p665
(dp666
g12
I0
sg17
F1.7702969847720045
sg13
I01
sbsg12
I1
sg18
I01
sg19
g69
sbsg14
(imyEvolve
Tree
p667
(dp668
g23
(imyEvolve
Tree
p669
(dp670
g12
I0
sg17
F1.6296300402003885
sg13
I01
sbsg12
I1
sg18
I01
sg19
g69
sbsg18
I00
sg19
g56
sbsg18
I00
sg19
g20
sbsg12
I4
sg18
I01
sg19
g100
sba(imyEvolve
Tree
p671
(dp672
g12
I3
sg7
(imyEvolve
Tree
p673
(dp674
g12
I2
sg7
(imyEvolve
Tree
p675
(dp676
g12
I1
sg7
(imyEvolve
Tree
p677
(dp678
g12
I0
sg17
F0.972629606078578
sg13
I01
sbsg14
(imyEvolve
Tree
p679
(dp680
g12
I0
sg13
I00
sbsg18
I00
sg19
g56
sbsg14
(imyEvolve
Tree
p681
(dp682
g23
(imyEvolve
Tree
p683
(dp684
g12
I0
sg13
I00
sbsg12
I1
sg18
I01
sg19
g69
sbsg18
I00
sg19
g56
sbsg14
(imyEvolve
Tree
p685
(dp686
g23
(imyEvolve
Tree
p687
(dp688
g12
I1
sg7
(imyEvolve
Tree
p689
(dp690
g12
I0
sg13
I00
sbsg14
(imyEvolve
Tree
p691
(dp692
g12
I0
sg17
F-1.2511747022514008
sg13
I01
sbsg18
I00
sg19
g20
sbsg12
I2
sg18
I01
sg19
g26
sbsg18
I00
sg19
g56
sba(imyEvolve
Tree
p693
(dp694
g23
(imyEvolve
Tree
p695
(dp696
g23
(imyEvolve
Tree
p697
(dp698
g7
(imyEvolve
Tree
p699
(dp700
g7
(imyEvolve
Tree
p701
(dp702
g12
I0
sg17
F1.6054879235135502
sg13
I01
sbsg12
I1
sg14
(imyEvolve
Tree
p703
(dp704
g12
I0
sg13
I00
sbsg18
I00
sg19
g20
sbsg12
I2
sg14
(imyEvolve
Tree
p705
(dp706
g23
(imyEvolve
Tree
p707
(dp708
g12
I0
sg17
F-0.1047063834828057
sg13
I01
sbsg12
I1
sg18
I01
sg19
g26
sbsg18
I00
sg19
g56
sbsg12
I3
sg18
I01
sg19
g117
sbsg12
I4
sg18
I01
sg19
g69
sba(imyEvolve
Tree
p709
(dp710
g23
(imyEvolve
Tree
p711
(dp712
g12
I3
sg7
(imyEvolve
Tree
p713
(dp714
g23
(imyEvolve
Tree
p715
(dp716
g23
(imyEvolve
Tree
p717
(dp718
g12
I0
sg17
F-2.109256482716535
sg13
I01
sbsg12
I1
sg18
I01
sg19
g69
sbsg12
I2
sg18
I01
sg19
g100
sbsg14
(imyEvolve
Tree
p719
(dp720
g23
(imyEvolve
Tree
p721
(dp722
g12
I1
sg7
(imyEvolve
Tree
p723
(dp724
g12
I0
sg17
F4.746403026056909
sg13
I01
sbsg14
(imyEvolve
Tree
p725
(dp726
g12
I0
sg17
F1.4061232759030862
sg13
I01
sbsg18
I00
sg19
g56
sbsg12
I2
sg18
I01
sg19
g26
sbsg18
I00
sg19
g20
sbsg12
I4
sg18
I01
sg19
g100
sba(imyEvolve
Tree
p727
(dp728
g12
I3
sg7
(imyEvolve
Tree
p729
(dp730
g12
I2
sg7
(imyEvolve
Tree
p731
(dp732
g23
(imyEvolve
Tree
p733
(dp734
g12
I0
sg13
I00
sbsg12
I1
sg18
I01
sg19
g26
sbsg14
(imyEvolve
Tree
p735
(dp736
g23
(imyEvolve
Tree
p737
(dp738
g12
I0
sg13
I00
sbsg12
I1
sg18
I01
sg19
g26
sbsg18
I00
sg19
g56
sbsg14
(imyEvolve
Tree
p739
(dp740
g23
(imyEvolve
Tree
p741
(dp742
g23
(imyEvolve
Tree
p743
(dp744
g12
I0
sg17
F-0.8276577706953852
sg13
I01
sbsg12
I1
sg18
I01
sg19
g26
sbsg12
I2
sg18
I01
sg19
g26
sbsg18
I00
sg19
g20
sba(imyEvolve
Tree
p745
(dp746
g7
(imyEvolve
Tree
p747
(dp748
g23
(imyEvolve
Tree
p749
(dp750
g23
(imyEvolve
Tree
p751
(dp752
g7
(imyEvolve
Tree
p753
(dp754
g23
(imyEvolve
Tree
p755
(dp756
g12
I0
sg13
I00
sbsg12
I1
sg18
I01
sg19
g100
sbsg12
I2
sg14
(imyEvolve
Tree
p757
(dp758
g23
(imyEvolve
Tree
p759
(dp760
g12
I0
sg17
F-0.03294635525347367
sg13
I01
sbsg12
I1
sg18
I01
sg19
g26
sbsg18
I00
sg19
g56
sbsg12
I3
sg18
I01
sg19
g69
sbsg12
I4
sg18
I01
sg19
g26
sbsg12
I5
sg14
(imyEvolve
Tree
p761
(dp762
g7
(imyEvolve
Tree
p763
(dp764
g7
(imyEvolve
Tree
p765
(dp766
g7
(imyEvolve
Tree
p767
(dp768
g7
(imyEvolve
Tree
p769
(dp770
g12
I0
sg17
F3.5746065104116163
sg13
I01
sbsg12
I1
sg14
(imyEvolve
Tree
p771
(dp772
g12
I0
sg13
I00
sbsg18
I00
sg19
g20
sbsg12
I2
sg14
(imyEvolve
Tree
p773
(dp774
g23
(imyEvolve
Tree
p775
(dp776
g12
I0
sg17
F1.8914341788979359
sg13
I01
sbsg12
I1
sg18
I01
sg19
g69
sbsg18
I00
sg19
g56
sbsg12
I3
sg14
(imyEvolve
Tree
p777
(dp778
g23
(imyEvolve
Tree
p779
(dp780
g23
(imyEvolve
Tree
p781
(dp782
g12
I0
sg13
I00
sbsg12
I1
sg18
I01
sg19
g117
sbsg12
I2
sg18
I01
sg19
g117
sbsg18
I00
sg19
g20
sbsg12
I4
sg14
(imyEvolve
Tree
p783
(dp784
g7
(imyEvolve
Tree
p785
(dp786
g23
(imyEvolve
Tree
p787
(dp788
g7
(imyEvolve
Tree
p789
(dp790
g12
I0
sg17
F4.407086264078725
sg13
I01
sbsg12
I1
sg14
(imyEvolve
Tree
p791
(dp792
g12
I0
sg13
I00
sbsg18
I00
sg19
g20
sbsg12
I2
sg18
I01
sg19
g26
sbsg12
I3
sg14
(imyEvolve
Tree
p793
(dp794
g23
(imyEvolve
Tree
p795
(dp796
g7
(imyEvolve
Tree
p797
(dp798
g12
I0
sg13
I00
sbsg12
I1
sg14
(imyEvolve
Tree
p799
(dp800
g12
I0
sg13
I00
sbsg18
I00
sg19
g20
sbsg12
I2
sg18
I01
sg19
g117
sbsg18
I00
sg19
g20
sbsg18
I00
sg19
g27
sbsg18
I00
sg19
g27
sba(imyEvolve
Tree
p801
(dp802
g23
(imyEvolve
Tree
p803
(dp804
g23
(imyEvolve
Tree
p805
(dp806
g12
I0
sg17
F3.3998140563506
sg13
I01
sbsg12
I1
sg18
I01
sg19
g117
sbsg12
I2
sg18
I01
sg19
g117
sba(imyEvolve
Tree
p807
(dp808
g7
(imyEvolve
Tree
p809
(dp810
g23
(imyEvolve
Tree
p811
(dp812
g23
(imyEvolve
Tree
p813
(dp814
g23
(imyEvolve
Tree
p815
(dp816
g7
(imyEvolve
Tree
p817
(dp818
g12
I0
sg17
F0.5514266366786149
sg13
I01
sbsg12
I1
sg14
(imyEvolve
Tree
p819
(dp820
g12
I0
sg13
I00
sbsg18
I00
sg19
g56
sbsg12
I2
sg18
I01
sg19
g26
sbsg12
I3
sg18
I01
sg19
g117
sbsg12
I4
sg18
I01
sg19
g117
sbsg12
I5
sg14
(imyEvolve
Tree
p821
(dp822
g7
(imyEvolve
Tree
p823
(dp824
g23
(imyEvolve
Tree
p825
(dp826
g23
(imyEvolve
Tree
p827
(dp828
g7
(imyEvolve
Tree
p829
(dp830
g12
I0
sg13
I00
sbsg12
I1
sg14
(imyEvolve
Tree
p831
(dp832
g12
I0
sg13
I00
sbsg18
I00
sg19
g27
sbsg12
I2
sg18
I01
sg19
g26
sbsg12
I3
sg18
I01
sg19
g100
sbsg12
I4
sg14
(imyEvolve
Tree
p833
(dp834
g23
(imyEvolve
Tree
p835
(dp836
g23
(imyEvolve
Tree
p837
(dp838
g7
(imyEvolve
Tree
p839
(dp840
g12
I0
sg13
I00
sbsg12
I1
sg14
(imyEvolve
Tree
p841
(dp842
g12
I0
sg13
I00
sbsg18
I00
sg19
g20
sbsg12
I2
sg18
I01
sg19
g69
sbsg12
I3
sg18
I01
sg19
g69
sbsg18
I00
sg19
g27
sbsg18
I00
sg19
g27
sba(imyEvolve
Tree
p843
(dp844
g23
(imyEvolve
Tree
p845
(dp846
g23
(imyEvolve
Tree
p847
(dp848
g23
(imyEvolve
Tree
p849
(dp850
g23
(imyEvolve
Tree
p851
(dp852
g23
(imyEvolve
Tree
p853
(dp854
g12
I0
sg17
F-2.1313570834525697
sg13
I01
sbsg12
I1
sg18
I01
sg19
g100
sbsg12
I2
sg18
I01
sg19
g117
sbsg12
I3
sg18
I01
sg19
g69
sbsg12
I4
sg18
I01
sg19
g26
sbsg12
I5
sg18
I01
sg19
g117
sba(imyEvolve
Tree
p855
(dp856
g7
(imyEvolve
Tree
p857
(dp858
g23
(imyEvolve
Tree
p859
(dp860
g7
(imyEvolve
Tree
p861
(dp862
g7
(imyEvolve
Tree
p863
(dp864
g23
(imyEvolve
Tree
p865
(dp866
g12
I0
sg13
I00
sbsg12
I1
sg18
I01
sg19
g100
sbsg12
I2
sg14
(imyEvolve
Tree
p867
(dp868
g23
(imyEvolve
Tree
p869
(dp870
g12
I0
sg13
I00
sbsg12
I1
sg18
I01
sg19
g26
sbsg18
I00
sg19
g27
sbsg12
I3
sg14
(imyEvolve
Tree
p871
(dp872
g7
(imyEvolve
Tree
p873
(dp874
g23
(imyEvolve
Tree
p875
(dp876
g12
I0
sg13
I00
sbsg12
I1
sg18
I01
sg19
g26
sbsg12
I2
sg14
(imyEvolve
Tree
p877
(dp878
g7
(imyEvolve
Tree
p879
(dp880
g12
I0
sg17
F-4.378350185480336
sg13
I01
sbsg12
I1
sg14
(imyEvolve
Tree
p881
(dp882
g12
I0
sg13
I00
sbsg18
I00
sg19
g56
sbsg18
I00
sg19
g27
sbsg18
I00
sg19
g20
sbsg12
I4
sg18
I01
sg19
g26
sbsg12
I5
sg14
(imyEvolve
Tree
p883
(dp884
g23
(imyEvolve
Tree
p885
(dp886
g23
(imyEvolve
Tree
p887
(dp888
g23
(imyEvolve
Tree
p889
(dp890
g7
(imyEvolve
Tree
p891
(dp892
g12
I0
sg17
F-4.466750014225425
sg13
I01
sbsg12
I1
sg14
(imyEvolve
Tree
p893
(dp894
g12
I0
sg17
F0.9530944139931474
sg13
I01
sbsg18
I00
sg19
g27
sbsg12
I2
sg18
I01
sg19
g69
sbsg12
I3
sg18
I01
sg19
g69
sbsg12
I4
sg18
I01
sg19
g69
sbsg18
I00
sg19
g56
sba(imyEvolve
Tree
p895
(dp896
g23
(imyEvolve
Tree
p897
(dp898
g7
(imyEvolve
Tree
p899
(dp900
g7
(imyEvolve
Tree
p901
(dp902
g23
(imyEvolve
Tree
p903
(dp904
g7
(imyEvolve
Tree
p905
(dp906
g12
I0
sg17
F2.312835412101906
sg13
I01
sbsg12
I1
sg14
(imyEvolve
Tree
p907
(dp908
g12
I0
sg17
F2.7410247395858303
sg13
I01
sbsg18
I00
sg19
g56
sbsg12
I2
sg18
I01
sg19
g69
sbsg12
I3
sg14
(imyEvolve
Tree
p909
(dp910
g7
(imyEvolve
Tree
p911
(dp912
g23
(imyEvolve
Tree
p913
(dp914
g12
I0
sg13
I00
sbsg12
I1
sg18
I01
sg19
g117
sbsg12
I2
sg14
(imyEvolve
Tree
p915
(dp916
g23
(imyEvolve
Tree
p917
(dp918
g12
I0
sg17
F2.206424930372018
sg13
I01
sbsg12
I1
sg18
I01
sg19
g69
sbsg18
I00
sg19
g56
sbsg18
I00
sg19
g20
sbsg12
I4
sg14
(imyEvolve
Tree
p919
(dp920
g7
(imyEvolve
Tree
p921
(dp922
g7
(imyEvolve
Tree
p923
(dp924
g23
(imyEvolve
Tree
p925
(dp926
g12
I0
sg17
F-3.6738833669830373
sg13
I01
sbsg12
I1
sg18
I01
sg19
g69
sbsg12
I2
sg14
(imyEvolve
Tree
p927
(dp928
g23
(imyEvolve
Tree
p929
(dp930
g12
I0
sg13
I00
sbsg12
I1
sg18
I01
sg19
g69
sbsg18
I00
sg19
g27
sbsg12
I3
sg14
(imyEvolve
Tree
p931
(dp932
g7
(imyEvolve
Tree
p933
(dp934
g7
(imyEvolve
Tree
p935
(dp936
g12
I0
sg13
I00
sbsg12
I1
sg14
(imyEvolve
Tree
p937
(dp938
g12
I0
sg13
I00
sbsg18
I00
sg19
g56
sbsg12
I2
sg14
(imyEvolve
Tree
p939
(dp940
g23
(imyEvolve
Tree
p941
(dp942
g12
I0
sg13
I00
sbsg12
I1
sg18
I01
sg19
g69
sbsg18
I00
sg19
g27
sbsg18
I00
sg19
g27
sbsg18
I00
sg19
g27
sbsg12
I5
sg18
I01
sg19
g69
sbaasS'alpha'
p943
F0.0025506773862888268
sS'fitness'
p944
cnumpy.core.multiarray
scalar
p945
(cnumpy
dtype
p946
(S'f8'
p947
I0
I1
tp948
Rp949
(I3
S'<'
p950
NNNI-1
I-1
I0
tp951
bS'\xf5\xdb\xd7\x94\xad(\xe6?'
p952
tp953
Rp954
sS'weightSharing'
p955
(lp956
I00
asS'fitnessValid'
p957
I00
sS'resolution'
p958
I74
sb.