(imyEvolve
Individual
p0
(dp1
S'funcs'
p2
(lp3
(lp4
(imyEvolve
Tree
p5
(dp6
S'depth'
p7
I4
sS'left'
p8
(imyEvolve
Tree
p9
(dp10
S'below'
p11
(imyEvolve
Tree
p12
(dp13
g11
(imyEvolve
Tree
p14
(dp15
g11
(imyEvolve
Tree
p16
(dp17
g7
I0
sS'constant'
p18
F-2.8995665531481283
sS'isConstant'
p19
I01
sbsg7
I1
sS'single'
p20
I01
sS'op'
p21
cmath
sin
p22
sbsg7
I2
sg20
I01
sg21
g22
sbsg7
I3
sg20
I01
sg21
cmyEvolve
absSqrt
p23
sbsS'right'
p24
(imyEvolve
Tree
p25
(dp26
g7
I3
sg8
(imyEvolve
Tree
p27
(dp28
g11
(imyEvolve
Tree
p29
(dp30
g7
I1
sg8
(imyEvolve
Tree
p31
(dp32
g7
I0
sg19
I00
sbsg24
(imyEvolve
Tree
p33
(dp34
g7
I0
sg18
F-1.034674554231747
sg19
I01
sbsg20
I00
sg21
coperator
sub
p35
sbsg7
I2
sg20
I01
sg21
cmyEvolve
square
p36
sbsg24
(imyEvolve
Tree
p37
(dp38
g11
(imyEvolve
Tree
p39
(dp40
g11
(imyEvolve
Tree
p41
(dp42
g7
I0
sg19
I00
sbsg7
I1
sg20
I01
sg21
g22
sbsg7
I2
sg20
I01
sg21
g22
sbsg20
I00
sg21
coperator
add
p43
sbsg20
I00
sg21
coperator
mul
p44
sba(imyEvolve
Tree
p45
(dp46
g11
(imyEvolve
Tree
p47
(dp48
g8
(imyEvolve
Tree
p49
(dp50
g11
(imyEvolve
Tree
p51
(dp52
g7
I0
sg18
F-0.7573524128027485
sg19
I01
sbsg7
I1
sg20
I01
sg21
g22
sbsg7
I2
sg24
(imyEvolve
Tree
p53
(dp54
g8
(imyEvolve
Tree
p55
(dp56
g7
I0
sg18
F-0.4033370162106902
sg19
I01
sbsg7
I1
sg24
(imyEvolve
Tree
p57
(dp58
g7
I0
sg18
F0.9046919294210376
sg19
I01
sbsg20
I00
sg21
g44
sbsg20
I00
sg21
g43
sbsg7
I3
sg20
I01
sg21
g22
sba(imyEvolve
Tree
p59
(dp60
g11
(imyEvolve
Tree
p61
(dp62
g8
(imyEvolve
Tree
p63
(dp64
g7
I0
sg19
I00
sbsg7
I1
sg24
(imyEvolve
Tree
p65
(dp66
g7
I0
sg18
F-1.5297780222098778
sg19
I01
sbsg20
I00
sg21
g43
sbsg7
I2
sg20
I01
sg21
g36
sba(imyEvolve
Tree
p67
(dp68
g8
(imyEvolve
Tree
p69
(dp70
g8
(imyEvolve
Tree
p71
(dp72
g11
(imyEvolve
Tree
p73
(dp74
g8
(imyEvolve
Tree
p75
(dp76
g11
(imyEvolve
Tree
p77
(dp78
g7
I0
sg18
F-1.4627284152354947
sg19
I01
sbsg7
I1
sg20
I01
sg21
g23
sbsg7
I2
sg24
(imyEvolve
Tree
p79
(dp80
g8
(imyEvolve
Tree
p81
(dp82
g7
I0
sg19
I00
sbsg7
I1
sg24
(imyEvolve
Tree
p83
(dp84
g7
I0
sg19
I00
sbsg20
I00
sg21
g44
sbsg20
I00
sg21
g44
sbsg7
I3
sg20
I01
sg21
g23
sbsg7
I4
sg24
(imyEvolve
Tree
p85
(dp86
g11
(imyEvolve
Tree
p87
(dp88
g8
(imyEvolve
Tree
p89
(dp90
g11
(imyEvolve
Tree
p91
(dp92
g7
I0
sg18
F-4.178526413143969
sg19
I01
sbsg7
I1
sg20
I01
sg21
g23
sbsg7
I2
sg24
(imyEvolve
Tree
p93
(dp94
g8
(imyEvolve
Tree
p95
(dp96
g7
I0
sg18
F-0.3947798601193728
sg19
I01
sbsg7
I1
sg24
(imyEvolve
Tree
p97
(dp98
g7
I0
sg18
F-3.688284187974149
sg19
I01
sbsg20
I00
sg21
g44
sbsg20
I00
sg21
g44
sbsg7
I3
sg20
I01
sg21
g22
sbsg20
I00
sg21
g35
sbsg7
I5
sg24
(imyEvolve
Tree
p99
(dp100
g8
(imyEvolve
Tree
p101
(dp102
g11
(imyEvolve
Tree
p103
(dp104
g8
(imyEvolve
Tree
p105
(dp106
g11
(imyEvolve
Tree
p107
(dp108
g7
I0
sg19
I00
sbsg7
I1
sg20
I01
sg21
g36
sbsg7
I2
sg24
(imyEvolve
Tree
p109
(dp110
g8
(imyEvolve
Tree
p111
(dp112
g7
I0
sg19
I00
sbsg7
I1
sg24
(imyEvolve
Tree
p113
(dp114
g7
I0
sg19
I00
sbsg20
I00
sg21
g44
sbsg20
I00
sg21
g43
sbsg7
I3
sg20
I01
sg21
g36
sbsg7
I4
sg24
(imyEvolve
Tree
p115
(dp116
g8
(imyEvolve
Tree
p117
(dp118
g11
(imyEvolve
Tree
p119
(dp120
g8
(imyEvolve
Tree
p121
(dp122
g7
I0
sg18
F3.435970457466368
sg19
I01
sbsg7
I1
sg24
(imyEvolve
Tree
p123
(dp124
g7
I0
sg18
F-1.8967526745248176
sg19
I01
sbsg20
I00
sg21
g35
sbsg7
I2
sg20
I01
sg21
cmath
cos
p125
sbsg7
I3
sg24
(imyEvolve
Tree
p126
(dp127
g8
(imyEvolve
Tree
p128
(dp129
g8
(imyEvolve
Tree
p130
(dp131
g7
I0
sg19
I00
sbsg7
I1
sg24
(imyEvolve
Tree
p132
(dp133
g7
I0
sg19
I00
sbsg20
I00
sg21
g43
sbsg7
I2
sg24
(imyEvolve
Tree
p134
(dp135
g8
(imyEvolve
Tree
p136
(dp137
g7
I0
sg18
F-4.261280436482378
sg19
I01
sbsg7
I1
sg24
(imyEvolve
Tree
p138
(dp139
g7
I0
sg19
I00
sbsg20
I00
sg21
g43
sbsg20
I00
sg21
g44
sbsg20
I00
sg21
g35
sbsg20
I00
sg21
g43
sbsg20
I00
sg21
g35
sba(imyEvolve
Tree
p140
(dp141
g11
(imyEvolve
Tree
p142
(dp143
g8
(imyEvolve
Tree
p144
(dp145
g8
(imyEvolve
Tree
p146
(dp147
g11
(imyEvolve
Tree
p148
(dp149
g11
(imyEvolve
Tree
p150
(dp151
g7
I0
sg19
I00
sbsg7
I1
sg20
I01
sg21
g22
sbsg7
I2
sg20
I01
sg21
g23
sbsg7
I3
sg24
(imyEvolve
Tree
p152
(dp153
g8
(imyEvolve
Tree
p154
(dp155
g11
(imyEvolve
Tree
p156
(dp157
g7
I0
sg18
F1.6332381595393155
sg19
I01
sbsg7
I1
sg20
I01
sg21
g23
sbsg7
I2
sg24
(imyEvolve
Tree
p158
(dp159
g11
(imyEvolve
Tree
p160
(dp161
g7
I0
sg19
I00
sbsg7
I1
sg20
I01
sg21
g36
sbsg20
I00
sg21
g43
sbsg20
I00
sg21
g43
sbsg7
I4
sg24
(imyEvolve
Tree
p162
(dp163
g11
(imyEvolve
Tree
p164
(dp165
g8
(imyEvolve
Tree
p166
(dp167
g8
(imyEvolve
Tree
p168
(dp169
g7
I0
sg18
F4.8524345854550965
sg19
I01
sbsg7
I1
sg24
(imyEvolve
Tree
p170
(dp171
g7
I0
sg18
F0.8169634613320884
sg19
I01
sbsg20
I00
sg21
g44
sbsg7
I2
sg24
(imyEvolve
Tree
p172
(dp173
g11
(imyEvolve
Tree
p174
(dp175
g7
I0
sg19
I00
sbsg7
I1
sg20
I01
sg21
g36
sbsg20
I00
sg21
g35
sbsg7
I3
sg20
I01
sg21
g22
sbsg20
I00
sg21
g44
sbsg7
I5
sg20
I01
sg21
g36
sba(imyEvolve
Tree
p176
(dp177
g11
(imyEvolve
Tree
p178
(dp179
g8
(imyEvolve
Tree
p180
(dp181
g11
(imyEvolve
Tree
p182
(dp183
g7
I0
sg19
I00
sbsg7
I1
sg20
I01
sg21
g23
sbsg7
I2
sg24
(imyEvolve
Tree
p184
(dp185
g8
(imyEvolve
Tree
p186
(dp187
g7
I0
sg18
F-3.4731268840405005
sg19
I01
sbsg7
I1
sg24
(imyEvolve
Tree
p188
(dp189
g7
I0
sg18
F0.7724480232484101
sg19
I01
sbsg20
I00
sg21
g43
sbsg20
I00
sg21
g44
sbsg7
I3
sg20
I01
sg21
g125
sba(imyEvolve
Tree
p190
(dp191
g8
(imyEvolve
Tree
p192
(dp193
g11
(imyEvolve
Tree
p194
(dp195
g8
(imyEvolve
Tree
p196
(dp197
g11
(imyEvolve
Tree
p198
(dp199
g8
(imyEvolve
Tree
p200
(dp201
g7
I0
sg19
I00
sbsg7
I1
sg24
(imyEvolve
Tree
p202
(dp203
g7
I0
sg18
F-3.280107237908949
sg19
I01
sbsg20
I00
sg21
g43
sbsg7
I2
sg20
I01
sg21
g36
sbsg7
I3
sg24
(imyEvolve
Tree
p204
(dp205
g8
(imyEvolve
Tree
p206
(dp207
g11
(imyEvolve
Tree
p208
(dp209
g7
I0
sg19
I00
sbsg7
I1
sg20
I01
sg21
g23
sbsg7
I2
sg24
(imyEvolve
Tree
p210
(dp211
g11
(imyEvolve
Tree
p212
(dp213
g7
I0
sg19
I00
sbsg7
I1
sg20
I01
sg21
g36
sbsg20
I00
sg21
g43
sbsg20
I00
sg21
g43
sbsg7
I4
sg20
I01
sg21
g36
sbsg7
I5
sg24
(imyEvolve
Tree
p214
(dp215
g8
(imyEvolve
Tree
p216
(dp217
g8
(imyEvolve
Tree
p218
(dp219
g11
(imyEvolve
Tree
p220
(dp221
g11
(imyEvolve
Tree
p222
(dp223
g7
I0
sg18
F0.21132415384433134
sg19
I01
sbsg7
I1
sg20
I01
sg21
g23
sbsg7
I2
sg20
I01
sg21
g125
sbsg7
I3
sg24
(imyEvolve
Tree
p224
(dp225
g8
(imyEvolve
Tree
p226
(dp227
g8
(imyEvolve
Tree
p228
(dp229
g7
I0
sg19
I00
sbsg7
I1
sg24
(imyEvolve
Tree
p230
(dp231
g7
I0
sg19
I00
sbsg20
I00
sg21
g44
sbsg7
I2
sg24
(imyEvolve
Tree
p232
(dp233
g8
(imyEvolve
Tree
p234
(dp235
g7
I0
sg19
I00
sbsg7
I1
sg24
(imyEvolve
Tree
p236
(dp237
g7
I0
sg19
I00
sbsg20
I00
sg21
g44
sbsg20
I00
sg21
g43
sbsg20
I00
sg21
g43
sbsg7
I4
sg24
(imyEvolve
Tree
p238
(dp239
g11
(imyEvolve
Tree
p240
(dp241
g11
(imyEvolve
Tree
p242
(dp243
g8
(imyEvolve
Tree
p244
(dp245
g7
I0
sg19
I00
sbsg7
I1
sg24
(imyEvolve
Tree
p246
(dp247
g7
I0
sg19
I00
sbsg20
I00
sg21
g35
sbsg7
I2
sg20
I01
sg21
g125
sbsg7
I3
sg20
I01
sg21
g125
sbsg20
I00
sg21
g35
sbsg20
I00
sg21
g44
sba(imyEvolve
Tree
p248
(dp249
g11
(imyEvolve
Tree
p250
(dp251
g11
(imyEvolve
Tree
p252
(dp253
g7
I0
sg18
F1.1125911317097161
sg19
I01
sbsg7
I1
sg20
I01
sg21
g22
sbsg7
I2
sg20
I01
sg21
g23
sba(imyEvolve
Tree
p254
(dp255
g11
(imyEvolve
Tree
p256
(dp257
g11
(imyEvolve
Tree
p258
(dp259
g8
(imyEvolve
Tree
p260
(dp261
g8
(imyEvolve
Tree
p262
(dp263
g7
I0
sg18
F-2.029690646546981
sg19
I01
sbsg7
I1
sg24
(imyEvolve
Tree
p264
(dp265
g7
I0
sg18
F3.739655075523169
sg19
I01
sbsg20
I00
sg21
g43
sbsg7
I2
sg24
(imyEvolve
Tree
p266
(dp267
g8
(imyEvolve
Tree
p268
(dp269
g7
I0
sg19
I00
sbsg7
I1
sg24
(imyEvolve
Tree
p270
(dp271
g7
I0
sg19
I00
sbsg20
I00
sg21
g44
sbsg20
I00
sg21
g43
sbsg7
I3
sg20
I01
sg21
g125
sbsg7
I4
sg20
I01
sg21
g22
sba(imyEvolve
Tree
p272
(dp273
g11
(imyEvolve
Tree
p274
(dp275
g11
(imyEvolve
Tree
p276
(dp277
g8
(imyEvolve
Tree
p278
(dp279
g8
(imyEvolve
Tree
p280
(dp281
g7
I0
sg19
I00
sbsg7
I1
sg24
(imyEvolve
Tree
p282
(dp283
g7
I0
sg19
I00
sbsg20
I00
sg21
g43
sbsg7
I2
sg24
(imyEvolve
Tree
p284
(dp285
g11
(imyEvolve
Tree
p286
(dp287
g7
I0
sg19
I00
sbsg7
I1
sg20
I01
sg21
g23
sbsg20
I00
sg21
g35
sbsg7
I3
sg20
I01
sg21
g22
sbsg7
I4
sg20
I01
sg21
g22
sba(imyEvolve
Tree
p288
(dp289
g8
(imyEvolve
Tree
p290
(dp291
g8
(imyEvolve
Tree
p292
(dp293
g7
I0
sg19
I00
sbsg7
I1
sg24
(imyEvolve
Tree
p294
(dp295
g7
I0
sg19
I00
sbsg20
I00
sg21
g44
sbsg7
I2
sg24
(imyEvolve
Tree
p296
(dp297
g11
(imyEvolve
Tree
p298
(dp299
g7
I0
sg19
I00
sbsg7
I1
sg20
I01
sg21
g125
sbsg20
I00
sg21
g44
sba(imyEvolve
Tree
p300
(dp301
g7
I5
sg8
(imyEvolve
Tree
p302
(dp303
g7
I4
sg8
(imyEvolve
Tree
p304
(dp305
g7
I3
sg8
(imyEvolve
Tree
p306
(dp307
g7
I2
sg8
(imyEvolve
Tree
p308
(dp309
g11
(imyEvolve
Tree
p310
(dp311
g7
I0
sg18
F3.182008260030063
sg19
I01
sbsg7
I1
sg20
I01
sg21
g22
sbsg24
(imyEvolve
Tree
p312
(dp313
g7
I1
sg8
(imyEvolve
Tree
p314
(dp315
g7
I0
sg19
I00
sbsg24
(imyEvolve
Tree
p316
(dp317
g7
I0
sg18
F-0.8991078442515166
sg19
I01
sbsg20
I00
sg21
g43
sbsg20
I00
sg21
g43
sbsg24
(imyEvolve
Tree
p318
(dp319
g7
I2
sg8
(imyEvolve
Tree
p320
(dp321
g11
(imyEvolve
Tree
p322
(dp323
g7
I0
sg18
F-1.9344617852435677
sg19
I01
sbsg7
I1
sg20
I01
sg21
g36
sbsg24
(imyEvolve
Tree
p324
(dp325
g11
(imyEvolve
Tree
p326
(dp327
g7
I0
sg19
I00
sbsg7
I1
sg20
I01
sg21
g23
sbsg20
I00
sg21
g35
sbsg20
I00
sg21
g35
sbsg24
(imyEvolve
Tree
p328
(dp329
g11
(imyEvolve
Tree
p330
(dp331
g11
(imyEvolve
Tree
p332
(dp333
g11
(imyEvolve
Tree
p334
(dp335
g7
I0
sg19
I00
sbsg7
I1
sg20
I01
sg21
g125
sbsg7
I2
sg20
I01
sg21
g22
sbsg7
I3
sg20
I01
sg21
g22
sbsg20
I00
sg21
g35
sbsg24
(imyEvolve
Tree
p336
(dp337
g11
(imyEvolve
Tree
p338
(dp339
g7
I3
sg8
(imyEvolve
Tree
p340
(dp341
g11
(imyEvolve
Tree
p342
(dp343
g11
(imyEvolve
Tree
p344
(dp345
g7
I0
sg18
F4.453646099285061
sg19
I01
sbsg7
I1
sg20
I01
sg21
g22
sbsg7
I2
sg20
I01
sg21
g22
sbsg24
(imyEvolve
Tree
p346
(dp347
g7
I2
sg8
(imyEvolve
Tree
p348
(dp349
g7
I1
sg8
(imyEvolve
Tree
p350
(dp351
g7
I0
sg19
I00
sbsg24
(imyEvolve
Tree
p352
(dp353
g7
I0
sg19
I00
sbsg20
I00
sg21
g35
sbsg24
(imyEvolve
Tree
p354
(dp355
g7
I1
sg8
(imyEvolve
Tree
p356
(dp357
g7
I0
sg19
I00
sbsg24
(imyEvolve
Tree
p358
(dp359
g7
I0
sg19
I00
sbsg20
I00
sg21
g35
sbsg20
I00
sg21
g35
sbsg20
I00
sg21
g43
sbsg7
I4
sg20
I01
sg21
g22
sbsg20
I00
sg21
g44
sba(imyEvolve
Tree
p360
(dp361
g7
I5
sg8
(imyEvolve
Tree
p362
(dp363
g7
I4
sg8
(imyEvolve
Tree
p364
(dp365
g11
(imyEvolve
Tree
p366
(dp367
g11
(imyEvolve
Tree
p368
(dp369
g7
I1
sg8
(imyEvolve
Tree
p370
(dp371
g7
I0
sg18
F-4.180411956971028
sg19
I01
sbsg24
(imyEvolve
Tree
p372
(dp373
g7
I0
sg18
F-1.045021547696555
sg19
I01
sbsg20
I00
sg21
g44
sbsg7
I2
sg20
I01
sg21
g22
sbsg7
I3
sg20
I01
sg21
g23
sbsg24
(imyEvolve
Tree
p374
(dp375
g7
I3
sg8
(imyEvolve
Tree
p376
(dp377
g7
I2
sg8
(imyEvolve
Tree
p378
(dp379
g7
I1
sg8
(imyEvolve
Tree
p380
(dp381
g7
I0
sg18
F-2.7688452183619203
sg19
I01
sbsg24
(imyEvolve
Tree
p382
(dp383
g7
I0
sg18
F1.1478716796734805
sg19
I01
sbsg20
I00
sg21
g44
sbsg24
(imyEvolve
Tree
p384
(dp385
g11
(imyEvolve
Tree
p386
(dp387
g7
I0
sg18
F4.664211565839846
sg19
I01
sbsg7
I1
sg20
I01
sg21
g125
sbsg20
I00
sg21
g35
sbsg24
(imyEvolve
Tree
p388
(dp389
g11
(imyEvolve
Tree
p390
(dp391
g7
I1
sg8
(imyEvolve
Tree
p392
(dp393
g7
I0
sg19
I00
sbsg24
(imyEvolve
Tree
p394
(dp395
g7
I0
sg19
I00
sbsg20
I00
sg21
g44
sbsg7
I2
sg20
I01
sg21
g36
sbsg20
I00
sg21
g35
sbsg20
I00
sg21
g35
sbsg24
(imyEvolve
Tree
p396
(dp397
g11
(imyEvolve
Tree
p398
(dp399
g7
I3
sg8
(imyEvolve
Tree
p400
(dp401
g7
I2
sg8
(imyEvolve
Tree
p402
(dp403
g7
I1
sg8
(imyEvolve
Tree
p404
(dp405
g7
I0
sg19
I00
sbsg24
(imyEvolve
Tree
p406
(dp407
g7
I0
sg18
F-1.6920608855599406
sg19
I01
sbsg20
I00
sg21
g35
sbsg24
(imyEvolve
Tree
p408
(dp409
g11
(imyEvolve
Tree
p410
(dp411
g7
I0
sg19
I00
sbsg7
I1
sg20
I01
sg21
g22
sbsg20
I00
sg21
g35
sbsg24
(imyEvolve
Tree
p412
(dp413
g11
(imyEvolve
Tree
p414
(dp415
g7
I1
sg8
(imyEvolve
Tree
p416
(dp417
g7
I0
sg18
F-3.455754894012922
sg19
I01
sbsg24
(imyEvolve
Tree
p418
(dp419
g7
I0
sg19
I00
sbsg20
I00
sg21
g35
sbsg7
I2
sg20
I01
sg21
g23
sbsg20
I00
sg21
g43
sbsg7
I4
sg20
I01
sg21
g23
sbsg20
I00
sg21
g44
sba(imyEvolve
Tree
p420
(dp421
g8
(imyEvolve
Tree
p422
(dp423
g11
(imyEvolve
Tree
p424
(dp425
g11
(imyEvolve
Tree
p426
(dp427
g8
(imyEvolve
Tree
p428
(dp429
g7
I0
sg19
I00
sbsg7
I1
sg24
(imyEvolve
Tree
p430
(dp431
g7
I0
sg18
F-4.2658845076695435
sg19
I01
sbsg20
I00
sg21
g43
sbsg7
I2
sg20
I01
sg21
g23
sbsg7
I3
sg20
I01
sg21
g125
sbsg7
I4
sg24
(imyEvolve
Tree
p432
(dp433
g8
(imyEvolve
Tree
p434
(dp435
g8
(imyEvolve
Tree
p436
(dp437
g11
(imyEvolve
Tree
p438
(dp439
g7
I0
sg18
F-0.7151891930270349
sg19
I01
sbsg7
I1
sg20
I01
sg21
g22
sbsg7
I2
sg24
(imyEvolve
Tree
p440
(dp441
g8
(imyEvolve
Tree
p442
(dp443
g7
I0
sg19
I00
sbsg7
I1
sg24
(imyEvolve
Tree
p444
(dp445
g7
I0
sg19
I00
sbsg20
I00
sg21
g35
sbsg20
I00
sg21
g43
sbsg7
I3
sg24
(imyEvolve
Tree
p446
(dp447
g8
(imyEvolve
Tree
p448
(dp449
g8
(imyEvolve
Tree
p450
(dp451
g7
I0
sg19
I00
sbsg7
I1
sg24
(imyEvolve
Tree
p452
(dp453
g7
I0
sg19
I00
sbsg20
I00
sg21
g35
sbsg7
I2
sg24
(imyEvolve
Tree
p454
(dp455
g11
(imyEvolve
Tree
p456
(dp457
g7
I0
sg19
I00
sbsg7
I1
sg20
I01
sg21
g23
sbsg20
I00
sg21
g44
sbsg20
I00
sg21
g43
sbsg20
I00
sg21
g35
sba(imyEvolve
Tree
p458
(dp459
g11
(imyEvolve
Tree
p460
(dp461
g8
(imyEvolve
Tree
p462
(dp463
g11
(imyEvolve
Tree
p464
(dp465
g7
I0
sg19
I00
sbsg7
I1
sg20
I01
sg21
g22
sbsg7
I2
sg24
(imyEvolve
Tree
p466
(dp467
g8
(imyEvolve
Tree
p468
(dp469
g7
I0
sg19
I00
sbsg7
I1
sg24
(imyEvolve
Tree
p470
(dp471
g7
I0
sg19
I00
sbsg20
I00
sg21
g35
sbsg20
I00
sg21
g35
sbsg7
I3
sg20
I01
sg21
g23
sba(imyEvolve
Tree
p472
(dp473
g11
(imyEvolve
Tree
p474
(dp475
g7
I3
sg8
(imyEvolve
Tree
p476
(dp477
g7
I2
sg8
(imyEvolve
Tree
p478
(dp479
g7
I1
sg8
(imyEvolve
Tree
p480
(dp481
g7
I0
sg19
I00
sbsg24
(imyEvolve
Tree
p482
(dp483
g7
I0
sg19
I00
sbsg20
I00
sg21
g35
sbsg24
(imyEvolve
Tree
p484
(dp485
g11
(imyEvolve
Tree
p486
(dp487
g7
I0
sg18
F-1.2748488370870037
sg19
I01
sbsg7
I1
sg20
I01
sg21
g36
sbsg20
I00
sg21
g43
sbsg24
(imyEvolve
Tree
p488
(dp489
g11
(imyEvolve
Tree
p490
(dp491
g7
I1
sg8
(imyEvolve
Tree
p492
(dp493
g7
I0
sg19
I00
sbsg24
(imyEvolve
Tree
p494
(dp495
g7
I0
sg19
I00
sbsg20
I00
sg21
g44
sbsg7
I2
sg20
I01
sg21
g125
sbsg20
I00
sg21
g44
sbsg7
I4
sg20
I01
sg21
g36
sba(imyEvolve
Tree
p496
(dp497
g11
(imyEvolve
Tree
p498
(dp499
g11
(imyEvolve
Tree
p500
(dp501
g7
I0
sg18
F3.384586112183481
sg19
I01
sbsg7
I1
sg20
I01
sg21
g22
sbsg7
I2
sg20
I01
sg21
g23
sba(imyEvolve
Tree
p502
(dp503
g8
(imyEvolve
Tree
p504
(dp505
g8
(imyEvolve
Tree
p506
(dp507
g7
I0
sg18
F3.178338160170977
sg19
I01
sbsg7
I1
sg24
(imyEvolve
Tree
p508
(dp509
g7
I0
sg19
I00
sbsg20
I00
sg21
g35
sbsg7
I2
sg24
(imyEvolve
Tree
p510
(dp511
g8
(imyEvolve
Tree
p512
(dp513
g7
I0
sg18
F4.65916394773997
sg19
I01
sbsg7
I1
sg24
(imyEvolve
Tree
p514
(dp515
g7
I0
sg19
I00
sbsg20
I00
sg21
g43
sbsg20
I00
sg21
g44
sbaa(lp516
(imyEvolve
Tree
p517
(dp518
g11
(imyEvolve
Tree
p519
(dp520
g8
(imyEvolve
Tree
p521
(dp522
g8
(imyEvolve
Tree
p523
(dp524
g7
I0
sg19
I00
sbsg7
I1
sg24
(imyEvolve
Tree
p525
(dp526
g7
I0
sg19
I00
sbsg20
I00
sg21
g43
sbsg7
I2
sg24
(imyEvolve
Tree
p527
(dp528
g11
(imyEvolve
Tree
p529
(dp530
g7
I0
sg19
I00
sbsg7
I1
sg20
I01
sg21
g23
sbsg20
I00
sg21
g35
sbsg7
I3
sg20
I01
sg21
g36
sba(imyEvolve
Tree
p531
(dp532
g11
(imyEvolve
Tree
p533
(dp534
g8
(imyEvolve
Tree
p535
(dp536
g8
(imyEvolve
Tree
p537
(dp538
g11
(imyEvolve
Tree
p539
(dp540
g7
I0
sg19
I00
sbsg7
I1
sg20
I01
sg21
g36
sbsg7
I2
sg24
(imyEvolve
Tree
p541
(dp542
g11
(imyEvolve
Tree
p543
(dp544
g7
I0
sg19
I00
sbsg7
I1
sg20
I01
sg21
g23
sbsg20
I00
sg21
g43
sbsg7
I3
sg24
(imyEvolve
Tree
p545
(dp546
g8
(imyEvolve
Tree
p547
(dp548
g11
(imyEvolve
Tree
p549
(dp550
g7
I0
sg19
I00
sbsg7
I1
sg20
I01
sg21
g23
sbsg7
I2
sg24
(imyEvolve
Tree
p551
(dp552
g8
(imyEvolve
Tree
p553
(dp554
g7
I0
sg18
F-0.49695795130495135
sg19
I01
sbsg7
I1
sg24
(imyEvolve
Tree
p555
(dp556
g7
I0
sg19
I00
sbsg20
I00
sg21
g44
sbsg20
I00
sg21
g44
sbsg20
I00
sg21
g44
sbsg7
I4
sg20
I01
sg21
g23
sba(imyEvolve
Tree
p557
(dp558
g8
(imyEvolve
Tree
p559
(dp560
g11
(imyEvolve
Tree
p561
(dp562
g11
(imyEvolve
Tree
p563
(dp564
g11
(imyEvolve
Tree
p565
(dp566
g11
(imyEvolve
Tree
p567
(dp568
g7
I0
sg19
I00
sbsg7
I1
sg20
I01
sg21
g36
sbsg7
I2
sg20
I01
sg21
g22
sbsg7
I3
sg20
I01
sg21
g23
sbsg7
I4
sg20
I01
sg21
g23
sbsg7
I5
sg24
(imyEvolve
Tree
p569
(dp570
g11
(imyEvolve
Tree
p571
(dp572
g8
(imyEvolve
Tree
p573
(dp574
g11
(imyEvolve
Tree
p575
(dp576
g11
(imyEvolve
Tree
p577
(dp578
g7
I0
sg19
I00
sbsg7
I1
sg20
I01
sg21
g36
sbsg7
I2
sg20
I01
sg21
g125
sbsg7
I3
sg24
(imyEvolve
Tree
p579
(dp580
g11
(imyEvolve
Tree
p581
(dp582
g8
(imyEvolve
Tree
p583
(dp584
g7
I0
sg18
F0.7053577025429858
sg19
I01
sbsg7
I1
sg24
(imyEvolve
Tree
p585
(dp586
g7
I0
sg19
I00
sbsg20
I00
sg21
g35
sbsg7
I2
sg20
I01
sg21
g22
sbsg20
I00
sg21
g43
sbsg7
I4
sg20
I01
sg21
g125
sbsg20
I00
sg21
g43
sba(imyEvolve
Tree
p587
(dp588
g8
(imyEvolve
Tree
p589
(dp590
g8
(imyEvolve
Tree
p591
(dp592
g11
(imyEvolve
Tree
p593
(dp594
g11
(imyEvolve
Tree
p595
(dp596
g7
I0
sg19
I00
sbsg7
I1
sg20
I01
sg21
g22
sbsg7
I2
sg20
I01
sg21
g36
sbsg7
I3
sg24
(imyEvolve
Tree
p597
(dp598
g11
(imyEvolve
Tree
p599
(dp600
g11
(imyEvolve
Tree
p601
(dp602
g7
I0
sg18
F1.0001772943947085
sg19
I01
sbsg7
I1
sg20
I01
sg21
g22
sbsg7
I2
sg20
I01
sg21
g125
sbsg20
I00
sg21
g43
sbsg7
I4
sg24
(imyEvolve
Tree
p603
(dp604
g8
(imyEvolve
Tree
p605
(dp606
g8
(imyEvolve
Tree
p607
(dp608
g8
(imyEvolve
Tree
p609
(dp610
g7
I0
sg19
I00
sbsg7
I1
sg24
(imyEvolve
Tree
p611
(dp612
g7
I0
sg18
F-4.020805249285849
sg19
I01
sbsg20
I00
sg21
g35
sbsg7
I2
sg24
(imyEvolve
Tree
p613
(dp614
g11
(imyEvolve
Tree
p615
(dp616
g7
I0
sg18
F1.3094354558865309
sg19
I01
sbsg7
I1
sg20
I01
sg21
g23
sbsg20
I00
sg21
g35
sbsg7
I3
sg24
(imyEvolve
Tree
p617
(dp618
g11
(imyEvolve
Tree
p619
(dp620
g8
(imyEvolve
Tree
p621
(dp622
g7
I0
sg18
F-3.0168504602466117
sg19
I01
sbsg7
I1
sg24
(imyEvolve
Tree
p623
(dp624
g7
I0
sg18
F0.044594014025860496
sg19
I01
sbsg20
I00
sg21
g44
sbsg7
I2
sg20
I01
sg21
g36
sbsg20
I00
sg21
g44
sbsg20
I00
sg21
g44
sba(imyEvolve
Tree
p625
(dp626
g11
(imyEvolve
Tree
p627
(dp628
g11
(imyEvolve
Tree
p629
(dp630
g11
(imyEvolve
Tree
p631
(dp632
g8
(imyEvolve
Tree
p633
(dp634
g11
(imyEvolve
Tree
p635
(dp636
g7
I0
sg18
F-3.982236252416792
sg19
I01
sbsg7
I1
sg20
I01
sg21
g125
sbsg7
I2
sg24
(imyEvolve
Tree
p637
(dp638
g8
(imyEvolve
Tree
p639
(dp640
g7
I0
sg19
I00
sbsg7
I1
sg24
(imyEvolve
Tree
p641
(dp642
g7
I0
sg18
F-0.7219055781401007
sg19
I01
sbsg20
I00
sg21
g44
sbsg20
I00
sg21
g43
sbsg7
I3
sg20
I01
sg21
g22
sbsg7
I4
sg20
I01
sg21
g36
sbsg7
I5
sg20
I01
sg21
g125
sba(imyEvolve
Tree
p643
(dp644
g8
(imyEvolve
Tree
p645
(dp646
g11
(imyEvolve
Tree
p647
(dp648
g7
I0
sg18
F-1.8765376310571802
sg19
I01
sbsg7
I1
sg20
I01
sg21
g125
sbsg7
I2
sg24
(imyEvolve
Tree
p649
(dp650
g8
(imyEvolve
Tree
p651
(dp652
g7
I0
sg18
F-4.3464385475649445
sg19
I01
sbsg7
I1
sg24
(imyEvolve
Tree
p653
(dp654
g7
I0
sg18
F-2.5143004447572515
sg19
I01
sbsg20
I00
sg21
g43
sbsg20
I00
sg21
g44
sba(imyEvolve
Tree
p655
(dp656
g11
(imyEvolve
Tree
p657
(dp658
g11
(imyEvolve
Tree
p659
(dp660
g8
(imyEvolve
Tree
p661
(dp662
g11
(imyEvolve
Tree
p663
(dp664
g8
(imyEvolve
Tree
p665
(dp666
g7
I0
sg18
F4.724329071510255
sg19
I01
sbsg7
I1
sg24
(imyEvolve
Tree
p667
(dp668
g7
I0
sg19
I00
sbsg20
I00
sg21
g44
sbsg7
I2
sg20
I01
sg21
g36
sbsg7
I3
sg24
(imyEvolve
Tree
p669
(dp670
g8
(imyEvolve
Tree
p671
(dp672
g11
(imyEvolve
Tree
p673
(dp674
g7
I0
sg18
F3.1712726919715237
sg19
I01
sbsg7
I1
sg20
I01
sg21
g36
sbsg7
I2
sg24
(imyEvolve
Tree
p675
(dp676
g11
(imyEvolve
Tree
p677
(dp678
g7
I0
sg18
F-2.4378044028652592
sg19
I01
sbsg7
I1
sg20
I01
sg21
g36
sbsg20
I00
sg21
g35
sbsg20
I00
sg21
g35
sbsg7
I4
sg20
I01
sg21
g22
sbsg7
I5
sg20
I01
sg21
g23
sba(imyEvolve
Tree
p679
(dp680
g7
I5
sg8
(imyEvolve
Tree
p681
(dp682
g11
(imyEvolve
Tree
p683
(dp684
g11
(imyEvolve
Tree
p685
(dp686
g11
(imyEvolve
Tree
p687
(dp688
g11
(imyEvolve
Tree
p689
(dp690
g7
I0
sg18
F1.6759623893431357
sg19
I01
sbsg7
I1
sg20
I01
sg21
g23
sbsg7
I2
sg20
I01
sg21
g23
sbsg7
I3
sg20
I01
sg21
g22
sbsg7
I4
sg20
I01
sg21
g22
sbsg24
(imyEvolve
Tree
p691
(dp692
g7
I4
sg8
(imyEvolve
Tree
p693
(dp694
g11
(imyEvolve
Tree
p695
(dp696
g7
I2
sg8
(imyEvolve
Tree
p697
(dp698
g11
(imyEvolve
Tree
p699
(dp700
g7
I0
sg19
I00
sbsg7
I1
sg20
I01
sg21
g36
sbsg24
(imyEvolve
Tree
p701
(dp702
g11
(imyEvolve
Tree
p703
(dp704
g7
I0
sg19
I00
sbsg7
I1
sg20
I01
sg21
g23
sbsg20
I00
sg21
g35
sbsg7
I3
sg20
I01
sg21
g23
sbsg24
(imyEvolve
Tree
p705
(dp706
g7
I3
sg8
(imyEvolve
Tree
p707
(dp708
g7
I2
sg8
(imyEvolve
Tree
p709
(dp710
g7
I1
sg8
(imyEvolve
Tree
p711
(dp712
g7
I0
sg18
F0.21510127155733283
sg19
I01
sbsg24
(imyEvolve
Tree
p713
(dp714
g7
I0
sg18
F4.1771245284434535
sg19
I01
sbsg20
I00
sg21
g44
sbsg24
(imyEvolve
Tree
p715
(dp716
g11
(imyEvolve
Tree
p717
(dp718
g7
I0
sg19
I00
sbsg7
I1
sg20
I01
sg21
g36
sbsg20
I00
sg21
g35
sbsg24
(imyEvolve
Tree
p719
(dp720
g11
(imyEvolve
Tree
p721
(dp722
g11
(imyEvolve
Tree
p723
(dp724
g7
I0
sg18
F4.80684926325422
sg19
I01
sbsg7
I1
sg20
I01
sg21
g22
sbsg7
I2
sg20
I01
sg21
g36
sbsg20
I00
sg21
g44
sbsg20
I00
sg21
g43
sbsg20
I00
sg21
g44
sba(imyEvolve
Tree
p725
(dp726
g8
(imyEvolve
Tree
p727
(dp728
g8
(imyEvolve
Tree
p729
(dp730
g11
(imyEvolve
Tree
p731
(dp732
g11
(imyEvolve
Tree
p733
(dp734
g7
I0
sg18
F2.493071552530779
sg19
I01
sbsg7
I1
sg20
I01
sg21
g36
sbsg7
I2
sg20
I01
sg21
g23
sbsg7
I3
sg24
(imyEvolve
Tree
p735
(dp736
g11
(imyEvolve
Tree
p737
(dp738
g8
(imyEvolve
Tree
p739
(dp740
g7
I0
sg18
F-1.9688625640355184
sg19
I01
sbsg7
I1
sg24
(imyEvolve
Tree
p741
(dp742
g7
I0
sg18
F0.8183637529579553
sg19
I01
sbsg20
I00
sg21
g35
sbsg7
I2
sg20
I01
sg21
g23
sbsg20
I00
sg21
g43
sbsg7
I4
sg24
(imyEvolve
Tree
p743
(dp744
g8
(imyEvolve
Tree
p745
(dp746
g11
(imyEvolve
Tree
p747
(dp748
g8
(imyEvolve
Tree
p749
(dp750
g7
I0
sg18
F-2.2051375433970644
sg19
I01
sbsg7
I1
sg24
(imyEvolve
Tree
p751
(dp752
g7
I0
sg19
I00
sbsg20
I00
sg21
g43
sbsg7
I2
sg20
I01
sg21
g125
sbsg7
I3
sg24
(imyEvolve
Tree
p753
(dp754
g8
(imyEvolve
Tree
p755
(dp756
g8
(imyEvolve
Tree
p757
(dp758
g7
I0
sg18
F2.904198862706444
sg19
I01
sbsg7
I1
sg24
(imyEvolve
Tree
p759
(dp760
g7
I0
sg19
I00
sbsg20
I00
sg21
g43
sbsg7
I2
sg24
(imyEvolve
Tree
p761
(dp762
g8
(imyEvolve
Tree
p763
(dp764
g7
I0
sg19
I00
sbsg7
I1
sg24
(imyEvolve
Tree
p765
(dp766
g7
I0
sg19
I00
sbsg20
I00
sg21
g43
sbsg20
I00
sg21
g44
sbsg20
I00
sg21
g44
sbsg20
I00
sg21
g35
sba(imyEvolve
Tree
p767
(dp768
g11
(imyEvolve
Tree
p769
(dp770
g11
(imyEvolve
Tree
p771
(dp772
g8
(imyEvolve
Tree
p773
(dp774
g8
(imyEvolve
Tree
p775
(dp776
g7
I0
sg18
F1.6054879235135502
sg19
I01
sbsg7
I1
sg24
(imyEvolve
Tree
p777
(dp778
g7
I0
sg19
I00
sbsg20
I00
sg21
g43
sbsg7
I2
sg24
(imyEvolve
Tree
p779
(dp780
g11
(imyEvolve
Tree
p781
(dp782
g7
I0
sg18
F-0.1047063834828057
sg19
I01
sbsg7
I1
sg20
I01
sg21
g22
sbsg20
I00
sg21
g35
sbsg7
I3
sg20
I01
sg21
g125
sbsg7
I4
sg20
I01
sg21
g23
sba(imyEvolve
Tree
p783
(dp784
g8
(imyEvolve
Tree
p785
(dp786
g8
(imyEvolve
Tree
p787
(dp788
g11
(imyEvolve
Tree
p789
(dp790
g7
I0
sg18
F-4.214676492199663
sg19
I01
sbsg7
I1
sg20
I01
sg21
g23
sbsg7
I2
sg24
(imyEvolve
Tree
p791
(dp792
g11
(imyEvolve
Tree
p793
(dp794
g7
I0
sg19
I00
sbsg7
I1
sg20
I01
sg21
g36
sbsg20
I00
sg21
g35
sbsg7
I3
sg24
(imyEvolve
Tree
p795
(dp796
g8
(imyEvolve
Tree
p797
(dp798
g11
(imyEvolve
Tree
p799
(dp800
g7
I0
sg18
F-1.3479012570209257
sg19
I01
sbsg7
I1
sg20
I01
sg21
g36
sbsg7
I2
sg24
(imyEvolve
Tree
p801
(dp802
g8
(imyEvolve
Tree
p803
(dp804
g7
I0
sg18
F-0.5293546841931214
sg19
I01
sbsg7
I1
sg24
(imyEvolve
Tree
p805
(dp806
g7
I0
sg19
I00
sbsg20
I00
sg21
g43
sbsg20
I00
sg21
g43
sbsg20
I00
sg21
g43
sba(imyEvolve
Tree
p807
(dp808
g11
(imyEvolve
Tree
p809
(dp810
g7
I2
sg8
(imyEvolve
Tree
p811
(dp812
g7
I1
sg8
(imyEvolve
Tree
p813
(dp814
g7
I0
sg19
I00
sbsg24
(imyEvolve
Tree
p815
(dp816
g7
I0
sg19
I00
sbsg20
I00
sg21
g35
sbsg24
(imyEvolve
Tree
p817
(dp818
g7
I1
sg8
(imyEvolve
Tree
p819
(dp820
g7
I0
sg19
I00
sbsg24
(imyEvolve
Tree
p821
(dp822
g7
I0
sg18
F-2.8354307079292065
sg19
I01
sbsg20
I00
sg21
g35
sbsg20
I00
sg21
g35
sbsg7
I3
sg20
I01
sg21
g22
sba(imyEvolve
Tree
p823
(dp824
g8
(imyEvolve
Tree
p825
(dp826
g11
(imyEvolve
Tree
p827
(dp828
g11
(imyEvolve
Tree
p829
(dp830
g8
(imyEvolve
Tree
p831
(dp832
g11
(imyEvolve
Tree
p833
(dp834
g7
I0
sg19
I00
sbsg7
I1
sg20
I01
sg21
g36
sbsg7
I2
sg24
(imyEvolve
Tree
p835
(dp836
g11
(imyEvolve
Tree
p837
(dp838
g7
I0
sg18
F-0.03294635525347367
sg19
I01
sbsg7
I1
sg20
I01
sg21
g22
sbsg20
I00
sg21
g35
sbsg7
I3
sg20
I01
sg21
g23
sbsg7
I4
sg20
I01
sg21
g22
sbsg7
I5
sg24
(imyEvolve
Tree
p839
(dp840
g8
(imyEvolve
Tree
p841
(dp842
g8
(imyEvolve
Tree
p843
(dp844
g8
(imyEvolve
Tree
p845
(dp846
g8
(imyEvolve
Tree
p847
(dp848
g7
I0
sg18
F3.5746065104116163
sg19
I01
sbsg7
I1
sg24
(imyEvolve
Tree
p849
(dp850
g7
I0
sg19
I00
sbsg20
I00
sg21
g43
sbsg7
I2
sg24
(imyEvolve
Tree
p851
(dp852
g11
(imyEvolve
Tree
p853
(dp854
g7
I0
sg18
F1.8914341788979359
sg19
I01
sbsg7
I1
sg20
I01
sg21
g23
sbsg20
I00
sg21
g35
sbsg7
I3
sg24
(imyEvolve
Tree
p855
(dp856
g11
(imyEvolve
Tree
p857
(dp858
g11
(imyEvolve
Tree
p859
(dp860
g7
I0
sg19
I00
sbsg7
I1
sg20
I01
sg21
g125
sbsg7
I2
sg20
I01
sg21
g125
sbsg20
I00
sg21
g43
sbsg7
I4
sg24
(imyEvolve
Tree
p861
(dp862
g8
(imyEvolve
Tree
p863
(dp864
g11
(imyEvolve
Tree
p865
(dp866
g8
(imyEvolve
Tree
p867
(dp868
g7
I0
sg18
F4.407086264078725
sg19
I01
sbsg7
I1
sg24
(imyEvolve
Tree
p869
(dp870
g7
I0
sg19
I00
sbsg20
I00
sg21
g43
sbsg7
I2
sg20
I01
sg21
g22
sbsg7
I3
sg24
(imyEvolve
Tree
p871
(dp872
g11
(imyEvolve
Tree
p873
(dp874
g8
(imyEvolve
Tree
p875
(dp876
g7
I0
sg19
I00
sbsg7
I1
sg24
(imyEvolve
Tree
p877
(dp878
g7
I0
sg19
I00
sbsg20
I00
sg21
g43
sbsg7
I2
sg20
I01
sg21
g125
sbsg20
I00
sg21
g43
sbsg20
I00
sg21
g44
sbsg20
I00
sg21
g44
sba(imyEvolve
Tree
p879
(dp880
g8
(imyEvolve
Tree
p881
(dp882
g8
(imyEvolve
Tree
p883
(dp884
g8
(imyEvolve
Tree
p885
(dp886
g7
I0
sg19
I00
sbsg7
I1
sg24
(imyEvolve
Tree
p887
(dp888
g7
I0
sg19
I00
sbsg20
I00
sg21
g35
sbsg7
I2
sg24
(imyEvolve
Tree
p889
(dp890
g11
(imyEvolve
Tree
p891
(dp892
g7
I0
sg18
F-4.895568681079007
sg19
I01
sbsg7
I1
sg20
I01
sg21
g22
sbsg20
I00
sg21
g35
sbsg7
I3
sg24
(imyEvolve
Tree
p893
(dp894
g8
(imyEvolve
Tree
p895
(dp896
g11
(imyEvolve
Tree
p897
(dp898
g7
I0
sg19
I00
sbsg7
I1
sg20
I01
sg21
g23
sbsg7
I2
sg24
(imyEvolve
Tree
p899
(dp900
g11
(imyEvolve
Tree
p901
(dp902
g7
I0
sg19
I00
sbsg7
I1
sg20
I01
sg21
g36
sbsg20
I00
sg21
g44
sbsg20
I00
sg21
g35
sba(imyEvolve
Tree
p903
(dp904
g11
(imyEvolve
Tree
p905
(dp906
g7
I4
sg8
(imyEvolve
Tree
p907
(dp908
g7
I3
sg8
(imyEvolve
Tree
p909
(dp910
g11
(imyEvolve
Tree
p911
(dp912
g11
(imyEvolve
Tree
p913
(dp914
g7
I0
sg19
I00
sbsg7
I1
sg20
I01
sg21
g125
sbsg7
I2
sg20
I01
sg21
g36
sbsg24
(imyEvolve
Tree
p915
(dp916
g7
I2
sg8
(imyEvolve
Tree
p917
(dp918
g11
(imyEvolve
Tree
p919
(dp920
g7
I0
sg18
F-3.3232878423903567
sg19
I01
sbsg7
I1
sg20
I01
sg21
g125
sbsg24
(imyEvolve
Tree
p921
(dp922
g7
I1
sg8
(imyEvolve
Tree
p923
(dp924
g7
I0
sg18
F3.2351152638268736
sg19
I01
sbsg24
(imyEvolve
Tree
p925
(dp926
g7
I0
sg19
I00
sbsg20
I00
sg21
g44
sbsg20
I00
sg21
g44
sbsg20
I00
sg21
g44
sbsg24
(imyEvolve
Tree
p927
(dp928
g7
I3
sg8
(imyEvolve
Tree
p929
(dp930
g7
I2
sg8
(imyEvolve
Tree
p931
(dp932
g7
I1
sg8
(imyEvolve
Tree
p933
(dp934
g7
I0
sg18
F1.3689019013634436
sg19
I01
sbsg24
(imyEvolve
Tree
p935
(dp936
g7
I0
sg19
I00
sbsg20
I00
sg21
g44
sbsg24
(imyEvolve
Tree
p937
(dp938
g11
(imyEvolve
Tree
p939
(dp940
g7
I0
sg18
F4.671207431341678
sg19
I01
sbsg7
I1
sg20
I01
sg21
g36
sbsg20
I00
sg21
g35
sbsg24
(imyEvolve
Tree
p941
(dp942
g11
(imyEvolve
Tree
p943
(dp944
g11
(imyEvolve
Tree
p945
(dp946
g7
I0
sg18
F2.672830385491154
sg19
I01
sbsg7
I1
sg20
I01
sg21
g22
sbsg7
I2
sg20
I01
sg21
g22
sbsg20
I00
sg21
g44
sbsg20
I00
sg21
g43
sbsg7
I5
sg20
I01
sg21
g125
sba(imyEvolve
Tree
p947
(dp948
g11
(imyEvolve
Tree
p949
(dp950
g8
(imyEvolve
Tree
p951
(dp952
g8
(imyEvolve
Tree
p953
(dp954
g7
I0
sg19
I00
sbsg7
I1
sg24
(imyEvolve
Tree
p955
(dp956
g7
I0
sg19
I00
sbsg20
I00
sg21
g35
sbsg7
I2
sg24
(imyEvolve
Tree
p957
(dp958
g11
(imyEvolve
Tree
p959
(dp960
g7
I0
sg18
F-4.706496241494607
sg19
I01
sbsg7
I1
sg20
I01
sg21
g36
sbsg20
I00
sg21
g43
sbsg7
I3
sg20
I01
sg21
g36
sba(imyEvolve
Tree
p961
(dp962
g11
(imyEvolve
Tree
p963
(dp964
g7
I4
sg8
(imyEvolve
Tree
p965
(dp966
g11
(imyEvolve
Tree
p967
(dp968
g11
(imyEvolve
Tree
p969
(dp970
g7
I1
sg8
(imyEvolve
Tree
p971
(dp972
g7
I0
sg19
I00
sbsg24
(imyEvolve
Tree
p973
(dp974
g7
I0
sg19
I00
sbsg20
I00
sg21
g44
sbsg7
I2
sg20
I01
sg21
g36
sbsg7
I3
sg20
I01
sg21
g36
sbsg24
(imyEvolve
Tree
p975
(dp976
g7
I3
sg8
(imyEvolve
Tree
p977
(dp978
g11
(imyEvolve
Tree
p979
(dp980
g7
I1
sg8
(imyEvolve
Tree
p981
(dp982
g7
I0
sg18
F-0.21518106152415672
sg19
I01
sbsg24
(imyEvolve
Tree
p983
(dp984
g7
I0
sg19
I00
sbsg20
I00
sg21
g43
sbsg7
I2
sg20
I01
sg21
g23
sbsg24
(imyEvolve
Tree
p985
(dp986
g7
I2
sg8
(imyEvolve
Tree
p987
(dp988
g11
(imyEvolve
Tree
p989
(dp990
g7
I0
sg19
I00
sbsg7
I1
sg20
I01
sg21
g36
sbsg24
(imyEvolve
Tree
p991
(dp992
g7
I1
sg8
(imyEvolve
Tree
p993
(dp994
g7
I0
sg19
I00
sbsg24
(imyEvolve
Tree
p995
(dp996
g7
I0
sg18
F-2.564030274235096
sg19
I01
sbsg20
I00
sg21
g44
sbsg20
I00
sg21
g44
sbsg20
I00
sg21
g35
sbsg20
I00
sg21
g35
sbsg7
I5
sg20
I01
sg21
g22
sba(imyEvolve
Tree
p997
(dp998
g8
(imyEvolve
Tree
p999
(dp1000
g11
(imyEvolve
Tree
p1001
(dp1002
g7
I0
sg19
I00
sbsg7
I1
sg20
I01
sg21
g36
sbsg7
I2
sg24
(imyEvolve
Tree
p1003
(dp1004
g8
(imyEvolve
Tree
p1005
(dp1006
g7
I0
sg19
I00
sbsg7
I1
sg24
(imyEvolve
Tree
p1007
(dp1008
g7
I0
sg19
I00
sbsg20
I00
sg21
g43
sbsg20
I00
sg21
g35
sbaasS'alpha'
p1009
F0.0025506773862888268
sS'fitness'
p1010
cnumpy.core.multiarray
scalar
p1011
(cnumpy
dtype
p1012
(S'f8'
p1013
I0
I1
tp1014
Rp1015
(I3
S'<'
p1016
NNNI-1
I-1
I0
tp1017
bS'q\xac\x8b&\xae\x1d\xe6?'
p1018
tp1019
Rp1020
sS'weightSharing'
p1021
(lp1022
I01
asS'fitnessValid'
p1023
I00
sS'resolution'
p1024
I78
sb.