(imyEvolve
Individual
p0
(dp1
S'funcs'
p2
(lp3
(lp4
(imyEvolve
Tree
p5
(dp6
S'below'
p7
(imyEvolve
Tree
p8
(dp9
g7
(imyEvolve
Tree
p10
(dp11
S'depth'
p12
I3
sS'left'
p13
(imyEvolve
Tree
p14
(dp15
g7
(imyEvolve
Tree
p16
(dp17
g7
(imyEvolve
Tree
p18
(dp19
g12
I0
sS'constant'
p20
F-3.4245956504759265
sS'isConstant'
p21
I01
sbsg12
I1
sS'single'
p22
I01
sS'op'
p23
cmath
sin
p24
sbsg12
I2
sg22
I01
sg23
g24
sbsS'right'
p25
(imyEvolve
Tree
p26
(dp27
g12
I2
sg13
(imyEvolve
Tree
p28
(dp29
g12
I1
sg13
(imyEvolve
Tree
p30
(dp31
g12
I0
sg21
I00
sbsg25
(imyEvolve
Tree
p32
(dp33
g12
I0
sg20
F-2.3654219246459895
sg21
I01
sbsg22
I00
sg23
coperator
mul
p34
sbsg25
(imyEvolve
Tree
p35
(dp36
g12
I1
sg13
(imyEvolve
Tree
p37
(dp38
g12
I0
sg20
F1.6232180067317001
sg21
I01
sbsg25
(imyEvolve
Tree
p39
(dp40
g12
I0
sg20
F2.6934791141052923
sg21
I01
sbsg22
I00
sg23
g34
sbsg22
I00
sg23
coperator
sub
p41
sbsg22
I00
sg23
g34
sbsg12
I4
sg22
I01
sg23
g24
sbsg12
I5
sg22
I01
sg23
cmyEvolve
square
p42
sba(imyEvolve
Tree
p43
(dp44
g7
(imyEvolve
Tree
p45
(dp46
g7
(imyEvolve
Tree
p47
(dp48
g12
I2
sg13
(imyEvolve
Tree
p49
(dp50
g12
I1
sg13
(imyEvolve
Tree
p51
(dp52
g12
I0
sg21
I00
sbsg25
(imyEvolve
Tree
p53
(dp54
g12
I0
sg20
F-0.3313920444291254
sg21
I01
sbsg22
I00
sg23
g34
sbsg25
(imyEvolve
Tree
p55
(dp56
g7
(imyEvolve
Tree
p57
(dp58
g12
I0
sg20
F3.346396931461621
sg21
I01
sbsg12
I1
sg22
I01
sg23
g42
sbsg22
I00
sg23
g41
sbsg12
I3
sg22
I01
sg23
g42
sbsg12
I4
sg22
I01
sg23
cmyEvolve
absSqrt
p59
sba(imyEvolve
Tree
p60
(dp61
g7
(imyEvolve
Tree
p62
(dp63
g7
(imyEvolve
Tree
p64
(dp65
g7
(imyEvolve
Tree
p66
(dp67
g12
I2
sg13
(imyEvolve
Tree
p68
(dp69
g7
(imyEvolve
Tree
p70
(dp71
g12
I0
sg21
I00
sbsg12
I1
sg22
I01
sg23
g42
sbsg25
(imyEvolve
Tree
p72
(dp73
g7
(imyEvolve
Tree
p74
(dp75
g12
I0
sg21
I00
sbsg12
I1
sg22
I01
sg23
g42
sbsg22
I00
sg23
g34
sbsg12
I3
sg22
I01
sg23
g59
sbsg12
I4
sg22
I01
sg23
cmath
cos
p76
sbsg12
I5
sg22
I01
sg23
g59
sba(imyEvolve
Tree
p77
(dp78
g7
(imyEvolve
Tree
p79
(dp80
g12
I1
sg13
(imyEvolve
Tree
p81
(dp82
g12
I0
sg20
F0.8126422593411089
sg21
I01
sbsg25
(imyEvolve
Tree
p83
(dp84
g12
I0
sg20
F-2.7755432229212698
sg21
I01
sbsg22
I00
sg23
g34
sbsg12
I2
sg22
I01
sg23
g42
sba(imyEvolve
Tree
p85
(dp86
g7
(imyEvolve
Tree
p87
(dp88
g7
(imyEvolve
Tree
p89
(dp90
g12
I2
sg13
(imyEvolve
Tree
p91
(dp92
g7
(imyEvolve
Tree
p93
(dp94
g12
I0
sg21
I00
sbsg12
I1
sg22
I01
sg23
g24
sbsg25
(imyEvolve
Tree
p95
(dp96
g7
(imyEvolve
Tree
p97
(dp98
g12
I0
sg21
I00
sbsg12
I1
sg22
I01
sg23
g59
sbsg22
I00
sg23
g41
sbsg12
I3
sg22
I01
sg23
g59
sbsg12
I4
sg22
I01
sg23
g42
sba(imyEvolve
Tree
p99
(dp100
g7
(imyEvolve
Tree
p101
(dp102
g12
I3
sg13
(imyEvolve
Tree
p103
(dp104
g12
I2
sg13
(imyEvolve
Tree
p105
(dp106
g12
I1
sg13
(imyEvolve
Tree
p107
(dp108
g12
I0
sg20
F-3.2920916451813187
sg21
I01
sbsg25
(imyEvolve
Tree
p109
(dp110
g12
I0
sg21
I00
sbsg22
I00
sg23
g41
sbsg25
(imyEvolve
Tree
p111
(dp112
g12
I1
sg13
(imyEvolve
Tree
p113
(dp114
g12
I0
sg21
I00
sbsg25
(imyEvolve
Tree
p115
(dp116
g12
I0
sg21
I00
sbsg22
I00
sg23
coperator
add
p117
sbsg22
I00
sg23
g117
sbsg25
(imyEvolve
Tree
p118
(dp119
g12
I2
sg13
(imyEvolve
Tree
p120
(dp121
g7
(imyEvolve
Tree
p122
(dp123
g12
I0
sg21
I00
sbsg12
I1
sg22
I01
sg23
g24
sbsg25
(imyEvolve
Tree
p124
(dp125
g7
(imyEvolve
Tree
p126
(dp127
g12
I0
sg20
F0.6738681446956143
sg21
I01
sbsg12
I1
sg22
I01
sg23
g24
sbsg22
I00
sg23
g34
sbsg22
I00
sg23
g34
sbsg12
I4
sg22
I01
sg23
g59
sba(imyEvolve
Tree
p128
(dp129
g12
I5
sg13
(imyEvolve
Tree
p130
(dp131
g7
(imyEvolve
Tree
p132
(dp133
g12
I3
sg13
(imyEvolve
Tree
p134
(dp135
g7
(imyEvolve
Tree
p136
(dp137
g12
I1
sg13
(imyEvolve
Tree
p138
(dp139
g12
I0
sg20
F-2.5167014840176503
sg21
I01
sbsg25
(imyEvolve
Tree
p140
(dp141
g12
I0
sg20
F2.1806297381739803
sg21
I01
sbsg22
I00
sg23
g117
sbsg12
I2
sg22
I01
sg23
g59
sbsg25
(imyEvolve
Tree
p142
(dp143
g12
I2
sg13
(imyEvolve
Tree
p144
(dp145
g12
I1
sg13
(imyEvolve
Tree
p146
(dp147
g12
I0
sg20
F1.5050616160100656
sg21
I01
sbsg25
(imyEvolve
Tree
p148
(dp149
g12
I0
sg21
I00
sbsg22
I00
sg23
g117
sbsg25
(imyEvolve
Tree
p150
(dp151
g12
I1
sg13
(imyEvolve
Tree
p152
(dp153
g12
I0
sg21
I00
sbsg25
(imyEvolve
Tree
p154
(dp155
g12
I0
sg20
F-2.814284085992589
sg21
I01
sbsg22
I00
sg23
g34
sbsg22
I00
sg23
g34
sbsg22
I00
sg23
g41
sbsg12
I4
sg22
I01
sg23
g59
sbsg25
(imyEvolve
Tree
p156
(dp157
g12
I4
sg13
(imyEvolve
Tree
p158
(dp159
g7
(imyEvolve
Tree
p160
(dp161
g12
I2
sg13
(imyEvolve
Tree
p162
(dp163
g7
(imyEvolve
Tree
p164
(dp165
g12
I0
sg20
F2.1321447782639256
sg21
I01
sbsg12
I1
sg22
I01
sg23
g76
sbsg25
(imyEvolve
Tree
p166
(dp167
g12
I1
sg13
(imyEvolve
Tree
p168
(dp169
g12
I0
sg21
I00
sbsg25
(imyEvolve
Tree
p170
(dp171
g12
I0
sg20
F-3.9777542675912105
sg21
I01
sbsg22
I00
sg23
g117
sbsg22
I00
sg23
g34
sbsg12
I3
sg22
I01
sg23
g42
sbsg25
(imyEvolve
Tree
p172
(dp173
g7
(imyEvolve
Tree
p174
(dp175
g7
(imyEvolve
Tree
p176
(dp177
g12
I1
sg13
(imyEvolve
Tree
p178
(dp179
g12
I0
sg21
I00
sbsg25
(imyEvolve
Tree
p180
(dp181
g12
I0
sg20
F0.31989832674055396
sg21
I01
sbsg22
I00
sg23
g117
sbsg12
I2
sg22
I01
sg23
g76
sbsg12
I3
sg22
I01
sg23
g24
sbsg22
I00
sg23
g41
sbsg22
I00
sg23
g41
sba(imyEvolve
Tree
p182
(dp183
g7
(imyEvolve
Tree
p184
(dp185
g12
I2
sg13
(imyEvolve
Tree
p186
(dp187
g12
I1
sg13
(imyEvolve
Tree
p188
(dp189
g12
I0
sg21
I00
sbsg25
(imyEvolve
Tree
p190
(dp191
g12
I0
sg21
I00
sbsg22
I00
sg23
g34
sbsg25
(imyEvolve
Tree
p192
(dp193
g12
I1
sg13
(imyEvolve
Tree
p194
(dp195
g12
I0
sg20
F-3.8813041513586977
sg21
I01
sbsg25
(imyEvolve
Tree
p196
(dp197
g12
I0
sg20
F4.786386081505196
sg21
I01
sbsg22
I00
sg23
g117
sbsg22
I00
sg23
g34
sbsg12
I3
sg22
I01
sg23
g42
sba(imyEvolve
Tree
p198
(dp199
g7
(imyEvolve
Tree
p200
(dp201
g12
I1
sg13
(imyEvolve
Tree
p202
(dp203
g12
I0
sg20
F2.9967903163132634
sg21
I01
sbsg25
(imyEvolve
Tree
p204
(dp205
g12
I0
sg20
F-4.699385340812391
sg21
I01
sbsg22
I00
sg23
g117
sbsg12
I2
sg22
I01
sg23
g59
sba(imyEvolve
Tree
p206
(dp207
g7
(imyEvolve
Tree
p208
(dp209
g7
(imyEvolve
Tree
p210
(dp211
g7
(imyEvolve
Tree
p212
(dp213
g12
I2
sg13
(imyEvolve
Tree
p214
(dp215
g12
I1
sg13
(imyEvolve
Tree
p216
(dp217
g12
I0
sg20
F-4.641267705185895
sg21
I01
sbsg25
(imyEvolve
Tree
p218
(dp219
g12
I0
sg20
F4.0976811013463905
sg21
I01
sbsg22
I00
sg23
g34
sbsg25
(imyEvolve
Tree
p220
(dp221
g12
I1
sg13
(imyEvolve
Tree
p222
(dp223
g12
I0
sg20
F-0.7900513777248097
sg21
I01
sbsg25
(imyEvolve
Tree
p224
(dp225
g12
I0
sg21
I00
sbsg22
I00
sg23
g41
sbsg22
I00
sg23
g117
sbsg12
I3
sg22
I01
sg23
g24
sbsg12
I4
sg22
I01
sg23
g24
sbsg12
I5
sg22
I01
sg23
g42
sba(imyEvolve
Tree
p226
(dp227
g7
(imyEvolve
Tree
p228
(dp229
g12
I2
sg13
(imyEvolve
Tree
p230
(dp231
g7
(imyEvolve
Tree
p232
(dp233
g12
I0
sg21
I00
sbsg12
I1
sg22
I01
sg23
g24
sbsg25
(imyEvolve
Tree
p234
(dp235
g12
I1
sg13
(imyEvolve
Tree
p236
(dp237
g12
I0
sg21
I00
sbsg25
(imyEvolve
Tree
p238
(dp239
g12
I0
sg20
F-2.6548555159550604
sg21
I01
sbsg22
I00
sg23
g117
sbsg22
I00
sg23
g34
sbsg12
I3
sg22
I01
sg23
g76
sba(imyEvolve
Tree
p240
(dp241
g12
I3
sg13
(imyEvolve
Tree
p242
(dp243
g12
I2
sg13
(imyEvolve
Tree
p244
(dp245
g12
I1
sg13
(imyEvolve
Tree
p246
(dp247
g12
I0
sg21
I00
sbsg25
(imyEvolve
Tree
p248
(dp249
g12
I0
sg20
F2.7067501552078923
sg21
I01
sbsg22
I00
sg23
g41
sbsg25
(imyEvolve
Tree
p250
(dp251
g12
I1
sg13
(imyEvolve
Tree
p252
(dp253
g12
I0
sg20
F0.7750450526757362
sg21
I01
sbsg25
(imyEvolve
Tree
p254
(dp255
g12
I0
sg21
I00
sbsg22
I00
sg23
g34
sbsg22
I00
sg23
g117
sbsg25
(imyEvolve
Tree
p256
(dp257
g12
I2
sg13
(imyEvolve
Tree
p258
(dp259
g7
(imyEvolve
Tree
p260
(dp261
g12
I0
sg20
F3.37219521054228
sg21
I01
sbsg12
I1
sg22
I01
sg23
g24
sbsg25
(imyEvolve
Tree
p262
(dp263
g7
(imyEvolve
Tree
p264
(dp265
g12
I0
sg20
F1.751741627431505
sg21
I01
sbsg12
I1
sg22
I01
sg23
g42
sbsg22
I00
sg23
g34
sbsg22
I00
sg23
g117
sba(imyEvolve
Tree
p266
(dp267
g12
I4
sg13
(imyEvolve
Tree
p268
(dp269
g12
I3
sg13
(imyEvolve
Tree
p270
(dp271
g12
I2
sg13
(imyEvolve
Tree
p272
(dp273
g12
I1
sg13
(imyEvolve
Tree
p274
(dp275
g12
I0
sg21
I00
sbsg25
(imyEvolve
Tree
p276
(dp277
g12
I0
sg21
I00
sbsg22
I00
sg23
g117
sbsg25
(imyEvolve
Tree
p278
(dp279
g7
(imyEvolve
Tree
p280
(dp281
g12
I0
sg21
I00
sbsg12
I1
sg22
I01
sg23
g76
sbsg22
I00
sg23
g34
sbsg25
(imyEvolve
Tree
p282
(dp283
g7
(imyEvolve
Tree
p284
(dp285
g7
(imyEvolve
Tree
p286
(dp287
g12
I0
sg20
F2.848460948248361
sg21
I01
sbsg12
I1
sg22
I01
sg23
g59
sbsg12
I2
sg22
I01
sg23
g76
sbsg22
I00
sg23
g117
sbsg25
(imyEvolve
Tree
p288
(dp289
g12
I3
sg13
(imyEvolve
Tree
p290
(dp291
g7
(imyEvolve
Tree
p292
(dp293
g7
(imyEvolve
Tree
p294
(dp295
g12
I0
sg20
F-1.406109122919462
sg21
I01
sbsg12
I1
sg22
I01
sg23
g24
sbsg12
I2
sg22
I01
sg23
g76
sbsg25
(imyEvolve
Tree
p296
(dp297
g7
(imyEvolve
Tree
p298
(dp299
g12
I1
sg13
(imyEvolve
Tree
p300
(dp301
g12
I0
sg20
F1.7280953410564583
sg21
I01
sbsg25
(imyEvolve
Tree
p302
(dp303
g12
I0
sg20
F4.420763815512483
sg21
I01
sbsg22
I00
sg23
g117
sbsg12
I2
sg22
I01
sg23
g24
sbsg22
I00
sg23
g41
sbsg22
I00
sg23
g34
sbaa(lp304
(imyEvolve
Tree
p305
(dp306
g12
I2
sg13
(imyEvolve
Tree
p307
(dp308
g7
(imyEvolve
Tree
p309
(dp310
g12
I0
sg21
I00
sbsg12
I1
sg22
I01
sg23
g59
sbsg25
(imyEvolve
Tree
p311
(dp312
g12
I1
sg13
(imyEvolve
Tree
p313
(dp314
g12
I0
sg20
F-1.596526777335956
sg21
I01
sbsg25
(imyEvolve
Tree
p315
(dp316
g12
I0
sg21
I00
sbsg22
I00
sg23
g34
sbsg22
I00
sg23
g34
sba(imyEvolve
Tree
p317
(dp318
g12
I2
sg13
(imyEvolve
Tree
p319
(dp320
g7
(imyEvolve
Tree
p321
(dp322
g12
I0
sg21
I00
sbsg12
I1
sg22
I01
sg23
g59
sbsg25
(imyEvolve
Tree
p323
(dp324
g12
I1
sg13
(imyEvolve
Tree
p325
(dp326
g12
I0
sg21
I00
sbsg25
(imyEvolve
Tree
p327
(dp328
g12
I0
sg20
F-1.8347959273492789
sg21
I01
sbsg22
I00
sg23
g41
sbsg22
I00
sg23
g34
sba(imyEvolve
Tree
p329
(dp330
g7
(imyEvolve
Tree
p331
(dp332
g7
(imyEvolve
Tree
p333
(dp334
g7
(imyEvolve
Tree
p335
(dp336
g12
I0
sg21
I00
sbsg12
I1
sg22
I01
sg23
g42
sbsg12
I2
sg22
I01
sg23
g76
sbsg12
I3
sg22
I01
sg23
g59
sba(imyEvolve
Tree
p337
(dp338
g7
(imyEvolve
Tree
p339
(dp340
g12
I1
sg13
(imyEvolve
Tree
p341
(dp342
g12
I0
sg20
F0.17428958828044383
sg21
I01
sbsg25
(imyEvolve
Tree
p343
(dp344
g12
I0
sg20
F-4.772657459666757
sg21
I01
sbsg22
I00
sg23
g41
sbsg12
I2
sg22
I01
sg23
g59
sba(imyEvolve
Tree
p345
(dp346
g7
(imyEvolve
Tree
p347
(dp348
g12
I2
sg13
(imyEvolve
Tree
p349
(dp350
g7
(imyEvolve
Tree
p351
(dp352
g12
I0
sg20
F1.5131786147012125
sg21
I01
sbsg12
I1
sg22
I01
sg23
g42
sbsg25
(imyEvolve
Tree
p353
(dp354
g7
(imyEvolve
Tree
p355
(dp356
g12
I0
sg20
F-3.9282761437766354
sg21
I01
sbsg12
I1
sg22
I01
sg23
g42
sbsg22
I00
sg23
g117
sbsg12
I3
sg22
I01
sg23
g42
sba(imyEvolve
Tree
p357
(dp358
g12
I3
sg13
(imyEvolve
Tree
p359
(dp360
g12
I2
sg13
(imyEvolve
Tree
p361
(dp362
g12
I1
sg13
(imyEvolve
Tree
p363
(dp364
g12
I0
sg21
I00
sbsg25
(imyEvolve
Tree
p365
(dp366
g12
I0
sg20
F-2.089983746980936
sg21
I01
sbsg22
I00
sg23
g34
sbsg25
(imyEvolve
Tree
p367
(dp368
g12
I1
sg13
(imyEvolve
Tree
p369
(dp370
g12
I0
sg20
F-2.0077332721935215
sg21
I01
sbsg25
(imyEvolve
Tree
p371
(dp372
g12
I0
sg20
F1.5220054864459156
sg21
I01
sbsg22
I00
sg23
g117
sbsg22
I00
sg23
g117
sbsg25
(imyEvolve
Tree
p373
(dp374
g7
(imyEvolve
Tree
p375
(dp376
g12
I1
sg13
(imyEvolve
Tree
p377
(dp378
g12
I0
sg20
F-1.545164441490301
sg21
I01
sbsg25
(imyEvolve
Tree
p379
(dp380
g12
I0
sg20
F-3.352622706498126
sg21
I01
sbsg22
I00
sg23
g117
sbsg12
I2
sg22
I01
sg23
g76
sbsg22
I00
sg23
g117
sba(imyEvolve
Tree
p381
(dp382
g7
(imyEvolve
Tree
p383
(dp384
g7
(imyEvolve
Tree
p385
(dp386
g7
(imyEvolve
Tree
p387
(dp388
g12
I2
sg13
(imyEvolve
Tree
p389
(dp390
g7
(imyEvolve
Tree
p391
(dp392
g12
I0
sg20
F4.281731709539395
sg21
I01
sbsg12
I1
sg22
I01
sg23
g76
sbsg25
(imyEvolve
Tree
p393
(dp394
g12
I1
sg13
(imyEvolve
Tree
p395
(dp396
g12
I0
sg20
F4.449787998231139
sg21
I01
sbsg25
(imyEvolve
Tree
p397
(dp398
g12
I0
sg20
F-0.5090502898850948
sg21
I01
sbsg22
I00
sg23
g34
sbsg22
I00
sg23
g34
sbsg12
I3
sg22
I01
sg23
g59
sbsg12
I4
sg22
I01
sg23
g59
sbsg12
I5
sg22
I01
sg23
g59
sba(imyEvolve
Tree
p399
(dp400
g7
(imyEvolve
Tree
p401
(dp402
g12
I1
sg13
(imyEvolve
Tree
p403
(dp404
g12
I0
sg21
I00
sbsg25
(imyEvolve
Tree
p405
(dp406
g12
I0
sg20
F-0.5227695373549643
sg21
I01
sbsg22
I00
sg23
g34
sbsg12
I2
sg22
I01
sg23
g24
sba(imyEvolve
Tree
p407
(dp408
g7
(imyEvolve
Tree
p409
(dp410
g12
I3
sg13
(imyEvolve
Tree
p411
(dp412
g7
(imyEvolve
Tree
p413
(dp414
g12
I1
sg13
(imyEvolve
Tree
p415
(dp416
g12
I0
sg20
F-4.896439531870898
sg21
I01
sbsg25
(imyEvolve
Tree
p417
(dp418
g12
I0
sg20
F3.670385939800042
sg21
I01
sbsg22
I00
sg23
g34
sbsg12
I2
sg22
I01
sg23
g59
sbsg25
(imyEvolve
Tree
p419
(dp420
g12
I2
sg13
(imyEvolve
Tree
p421
(dp422
g12
I1
sg13
(imyEvolve
Tree
p423
(dp424
g12
I0
sg21
I00
sbsg25
(imyEvolve
Tree
p425
(dp426
g12
I0
sg20
F3.7155538005371884
sg21
I01
sbsg22
I00
sg23
g117
sbsg25
(imyEvolve
Tree
p427
(dp428
g7
(imyEvolve
Tree
p429
(dp430
g12
I0
sg21
I00
sbsg12
I1
sg22
I01
sg23
g24
sbsg22
I00
sg23
g117
sbsg22
I00
sg23
g117
sbsg12
I4
sg22
I01
sg23
g76
sba(imyEvolve
Tree
p431
(dp432
g12
I5
sg13
(imyEvolve
Tree
p433
(dp434
g12
I4
sg13
(imyEvolve
Tree
p435
(dp436
g12
I3
sg13
(imyEvolve
Tree
p437
(dp438
g7
(imyEvolve
Tree
p439
(dp440
g7
(imyEvolve
Tree
p441
(dp442
g12
I0
sg21
I00
sbsg12
I1
sg22
I01
sg23
g42
sbsg12
I2
sg22
I01
sg23
g76
sbsg25
(imyEvolve
Tree
p443
(dp444
g12
I2
sg13
(imyEvolve
Tree
p445
(dp446
g7
(imyEvolve
Tree
p447
(dp448
g12
I0
sg21
I00
sbsg12
I1
sg22
I01
sg23
g59
sbsg25
(imyEvolve
Tree
p449
(dp450
g12
I1
sg13
(imyEvolve
Tree
p451
(dp452
g12
I0
sg21
I00
sbsg25
(imyEvolve
Tree
p453
(dp454
g12
I0
sg20
F4.472701899947095
sg21
I01
sbsg22
I00
sg23
g117
sbsg22
I00
sg23
g34
sbsg22
I00
sg23
g41
sbsg25
(imyEvolve
Tree
p455
(dp456
g12
I3
sg13
(imyEvolve
Tree
p457
(dp458
g7
(imyEvolve
Tree
p459
(dp460
g7
(imyEvolve
Tree
p461
(dp462
g12
I0
sg20
F-3.7981319936977878
sg21
I01
sbsg12
I1
sg22
I01
sg23
g76
sbsg12
I2
sg22
I01
sg23
g42
sbsg25
(imyEvolve
Tree
p463
(dp464
g7
(imyEvolve
Tree
p465
(dp466
g7
(imyEvolve
Tree
p467
(dp468
g12
I0
sg20
F-1.7660184184783856
sg21
I01
sbsg12
I1
sg22
I01
sg23
g42
sbsg12
I2
sg22
I01
sg23
g76
sbsg22
I00
sg23
g34
sbsg22
I00
sg23
g117
sbsg25
(imyEvolve
Tree
p469
(dp470
g12
I4
sg13
(imyEvolve
Tree
p471
(dp472
g7
(imyEvolve
Tree
p473
(dp474
g12
I2
sg13
(imyEvolve
Tree
p475
(dp476
g12
I1
sg13
(imyEvolve
Tree
p477
(dp478
g12
I0
sg20
F-4.350116375029181
sg21
I01
sbsg25
(imyEvolve
Tree
p479
(dp480
g12
I0
sg21
I00
sbsg22
I00
sg23
g41
sbsg25
(imyEvolve
Tree
p481
(dp482
g7
(imyEvolve
Tree
p483
(dp484
g12
I0
sg21
I00
sbsg12
I1
sg22
I01
sg23
g42
sbsg22
I00
sg23
g117
sbsg12
I3
sg22
I01
sg23
g76
sbsg25
(imyEvolve
Tree
p485
(dp486
g7
(imyEvolve
Tree
p487
(dp488
g12
I2
sg13
(imyEvolve
Tree
p489
(dp490
g7
(imyEvolve
Tree
p491
(dp492
g12
I0
sg20
F1.3279546837239975
sg21
I01
sbsg12
I1
sg22
I01
sg23
g24
sbsg25
(imyEvolve
Tree
p493
(dp494
g12
I1
sg13
(imyEvolve
Tree
p495
(dp496
g12
I0
sg21
I00
sbsg25
(imyEvolve
Tree
p497
(dp498
g12
I0
sg21
I00
sbsg22
I00
sg23
g41
sbsg22
I00
sg23
g41
sbsg12
I3
sg22
I01
sg23
g59
sbsg22
I00
sg23
g34
sbsg22
I00
sg23
g41
sba(imyEvolve
Tree
p499
(dp500
g12
I2
sg13
(imyEvolve
Tree
p501
(dp502
g7
(imyEvolve
Tree
p503
(dp504
g12
I0
sg20
F0.483324440177312
sg21
I01
sbsg12
I1
sg22
I01
sg23
g42
sbsg25
(imyEvolve
Tree
p505
(dp506
g7
(imyEvolve
Tree
p507
(dp508
g12
I0
sg20
F-4.336883288114178
sg21
I01
sbsg12
I1
sg22
I01
sg23
g76
sbsg22
I00
sg23
g117
sba(imyEvolve
Tree
p509
(dp510
g12
I2
sg13
(imyEvolve
Tree
p511
(dp512
g12
I1
sg13
(imyEvolve
Tree
p513
(dp514
g12
I0
sg20
F3.323168091950798
sg21
I01
sbsg25
(imyEvolve
Tree
p515
(dp516
g12
I0
sg20
F4.713604002665722
sg21
I01
sbsg22
I00
sg23
g41
sbsg25
(imyEvolve
Tree
p517
(dp518
g7
(imyEvolve
Tree
p519
(dp520
g12
I0
sg20
F-0.38899984444285085
sg21
I01
sbsg12
I1
sg22
I01
sg23
g24
sbsg22
I00
sg23
g34
sba(imyEvolve
Tree
p521
(dp522
g7
(imyEvolve
Tree
p523
(dp524
g12
I2
sg13
(imyEvolve
Tree
p525
(dp526
g12
I1
sg13
(imyEvolve
Tree
p527
(dp528
g12
I0
sg20
F2.071669880895036
sg21
I01
sbsg25
(imyEvolve
Tree
p529
(dp530
g12
I0
sg21
I00
sbsg22
I00
sg23
g34
sbsg25
(imyEvolve
Tree
p531
(dp532
g7
(imyEvolve
Tree
p533
(dp534
g12
I0
sg21
I00
sbsg12
I1
sg22
I01
sg23
g59
sbsg22
I00
sg23
g34
sbsg12
I3
sg22
I01
sg23
g59
sba(imyEvolve
Tree
p535
(dp536
g12
I3
sg13
(imyEvolve
Tree
p537
(dp538
g12
I2
sg13
(imyEvolve
Tree
p539
(dp540
g7
(imyEvolve
Tree
p541
(dp542
g12
I0
sg21
I00
sbsg12
I1
sg22
I01
sg23
g24
sbsg25
(imyEvolve
Tree
p543
(dp544
g7
(imyEvolve
Tree
p545
(dp546
g12
I0
sg20
F-2.309812690695926
sg21
I01
sbsg12
I1
sg22
I01
sg23
g42
sbsg22
I00
sg23
g41
sbsg25
(imyEvolve
Tree
p547
(dp548
g7
(imyEvolve
Tree
p549
(dp550
g12
I1
sg13
(imyEvolve
Tree
p551
(dp552
g12
I0
sg20
F1.4802900210965984
sg21
I01
sbsg25
(imyEvolve
Tree
p553
(dp554
g12
I0
sg21
I00
sbsg22
I00
sg23
g117
sbsg12
I2
sg22
I01
sg23
g42
sbsg22
I00
sg23
g41
sba(imyEvolve
Tree
p555
(dp556
g7
(imyEvolve
Tree
p557
(dp558
g12
I1
sg13
(imyEvolve
Tree
p559
(dp560
g12
I0
sg21
I00
sbsg25
(imyEvolve
Tree
p561
(dp562
g12
I0
sg20
F-1.1360260758681062
sg21
I01
sbsg22
I00
sg23
g41
sbsg12
I2
sg22
I01
sg23
g59
sba(imyEvolve
Tree
p563
(dp564
g12
I4
sg13
(imyEvolve
Tree
p565
(dp566
g12
I3
sg13
(imyEvolve
Tree
p567
(dp568
g12
I2
sg13
(imyEvolve
Tree
p569
(dp570
g7
(imyEvolve
Tree
p571
(dp572
g12
I0
sg20
F4.216395165963654
sg21
I01
sbsg12
I1
sg22
I01
sg23
g76
sbsg25
(imyEvolve
Tree
p573
(dp574
g12
I1
sg13
(imyEvolve
Tree
p575
(dp576
g12
I0
sg21
I00
sbsg25
(imyEvolve
Tree
p577
(dp578
g12
I0
sg20
F3.8090801673749457
sg21
I01
sbsg22
I00
sg23
g41
sbsg22
I00
sg23
g41
sbsg25
(imyEvolve
Tree
p579
(dp580
g12
I2
sg13
(imyEvolve
Tree
p581
(dp582
g12
I1
sg13
(imyEvolve
Tree
p583
(dp584
g12
I0
sg21
I00
sbsg25
(imyEvolve
Tree
p585
(dp586
g12
I0
sg21
I00
sbsg22
I00
sg23
g117
sbsg25
(imyEvolve
Tree
p587
(dp588
g12
I1
sg13
(imyEvolve
Tree
p589
(dp590
g12
I0
sg21
I00
sbsg25
(imyEvolve
Tree
p591
(dp592
g12
I0
sg20
F1.2966095303918665
sg21
I01
sbsg22
I00
sg23
g41
sbsg22
I00
sg23
g117
sbsg22
I00
sg23
g34
sbsg25
(imyEvolve
Tree
p593
(dp594
g7
(imyEvolve
Tree
p595
(dp596
g12
I2
sg13
(imyEvolve
Tree
p597
(dp598
g7
(imyEvolve
Tree
p599
(dp600
g12
I0
sg21
I00
sbsg12
I1
sg22
I01
sg23
g24
sbsg25
(imyEvolve
Tree
p601
(dp602
g12
I1
sg13
(imyEvolve
Tree
p603
(dp604
g12
I0
sg20
F2.0106662929435695
sg21
I01
sbsg25
(imyEvolve
Tree
p605
(dp606
g12
I0
sg20
F3.5745004890625456
sg21
I01
sbsg22
I00
sg23
g34
sbsg22
I00
sg23
g41
sbsg12
I3
sg22
I01
sg23
g42
sbsg22
I00
sg23
g41
sba(imyEvolve
Tree
p607
(dp608
g7
(imyEvolve
Tree
p609
(dp610
g12
I3
sg13
(imyEvolve
Tree
p611
(dp612
g7
(imyEvolve
Tree
p613
(dp614
g7
(imyEvolve
Tree
p615
(dp616
g12
I0
sg20
F2.6761227714889904
sg21
I01
sbsg12
I1
sg22
I01
sg23
g76
sbsg12
I2
sg22
I01
sg23
g24
sbsg25
(imyEvolve
Tree
p617
(dp618
g7
(imyEvolve
Tree
p619
(dp620
g7
(imyEvolve
Tree
p621
(dp622
g12
I0
sg20
F0.31849079901900357
sg21
I01
sbsg12
I1
sg22
I01
sg23
g59
sbsg12
I2
sg22
I01
sg23
g76
sbsg22
I00
sg23
g117
sbsg12
I4
sg22
I01
sg23
g42
sba(imyEvolve
Tree
p623
(dp624
g12
I5
sg13
(imyEvolve
Tree
p625
(dp626
g12
I4
sg13
(imyEvolve
Tree
p627
(dp628
g12
I3
sg13
(imyEvolve
Tree
p629
(dp630
g7
(imyEvolve
Tree
p631
(dp632
g12
I1
sg13
(imyEvolve
Tree
p633
(dp634
g12
I0
sg20
F-1.0647974839754681
sg21
I01
sbsg25
(imyEvolve
Tree
p635
(dp636
g12
I0
sg20
F-2.854623112062736
sg21
I01
sbsg22
I00
sg23
g117
sbsg12
I2
sg22
I01
sg23
g59
sbsg25
(imyEvolve
Tree
p637
(dp638
g7
(imyEvolve
Tree
p639
(dp640
g7
(imyEvolve
Tree
p641
(dp642
g12
I0
sg20
F1.4764405260396654
sg21
I01
sbsg12
I1
sg22
I01
sg23
g42
sbsg12
I2
sg22
I01
sg23
g59
sbsg22
I00
sg23
g41
sbsg25
(imyEvolve
Tree
p643
(dp644
g12
I3
sg13
(imyEvolve
Tree
p645
(dp646
g12
I2
sg13
(imyEvolve
Tree
p647
(dp648
g12
I1
sg13
(imyEvolve
Tree
p649
(dp650
g12
I0
sg20
F0.7789254670306436
sg21
I01
sbsg25
(imyEvolve
Tree
p651
(dp652
g12
I0
sg21
I00
sbsg22
I00
sg23
g117
sbsg25
(imyEvolve
Tree
p653
(dp654
g12
I1
sg13
(imyEvolve
Tree
p655
(dp656
g12
I0
sg20
F0.16469687049026582
sg21
I01
sbsg25
(imyEvolve
Tree
p657
(dp658
g12
I0
sg20
F-1.9214290924406097
sg21
I01
sbsg22
I00
sg23
g34
sbsg22
I00
sg23
g34
sbsg25
(imyEvolve
Tree
p659
(dp660
g7
(imyEvolve
Tree
p661
(dp662
g12
I1
sg13
(imyEvolve
Tree
p663
(dp664
g12
I0
sg21
I00
sbsg25
(imyEvolve
Tree
p665
(dp666
g12
I0
sg21
I00
sbsg22
I00
sg23
g34
sbsg12
I2
sg22
I01
sg23
g42
sbsg22
I00
sg23
g34
sbsg22
I00
sg23
g117
sbsg25
(imyEvolve
Tree
p667
(dp668
g12
I4
sg13
(imyEvolve
Tree
p669
(dp670
g12
I3
sg13
(imyEvolve
Tree
p671
(dp672
g7
(imyEvolve
Tree
p673
(dp674
g12
I1
sg13
(imyEvolve
Tree
p675
(dp676
g12
I0
sg20
F-4.267089996021926
sg21
I01
sbsg25
(imyEvolve
Tree
p677
(dp678
g12
I0
sg21
I00
sbsg22
I00
sg23
g41
sbsg12
I2
sg22
I01
sg23
g24
sbsg25
(imyEvolve
Tree
p679
(dp680
g12
I2
sg13
(imyEvolve
Tree
p681
(dp682
g12
I1
sg13
(imyEvolve
Tree
p683
(dp684
g12
I0
sg21
I00
sbsg25
(imyEvolve
Tree
p685
(dp686
g12
I0
sg20
F-3.2260191494699586
sg21
I01
sbsg22
I00
sg23
g41
sbsg25
(imyEvolve
Tree
p687
(dp688
g7
(imyEvolve
Tree
p689
(dp690
g12
I0
sg20
F0.6035350114279412
sg21
I01
sbsg12
I1
sg22
I01
sg23
g59
sbsg22
I00
sg23
g117
sbsg22
I00
sg23
g117
sbsg25
(imyEvolve
Tree
p691
(dp692
g12
I3
sg13
(imyEvolve
Tree
p693
(dp694
g12
I2
sg13
(imyEvolve
Tree
p695
(dp696
g12
I1
sg13
(imyEvolve
Tree
p697
(dp698
g12
I0
sg20
F-0.9677430842113566
sg21
I01
sbsg25
(imyEvolve
Tree
p699
(dp700
g12
I0
sg20
F-1.70568947278942
sg21
I01
sbsg22
I00
sg23
g117
sbsg25
(imyEvolve
Tree
p701
(dp702
g12
I1
sg13
(imyEvolve
Tree
p703
(dp704
g12
I0
sg20
F-1.9755759211809556
sg21
I01
sbsg25
(imyEvolve
Tree
p705
(dp706
g12
I0
sg20
F0.22575019798263352
sg21
I01
sbsg22
I00
sg23
g34
sbsg22
I00
sg23
g34
sbsg25
(imyEvolve
Tree
p707
(dp708
g7
(imyEvolve
Tree
p709
(dp710
g12
I1
sg13
(imyEvolve
Tree
p711
(dp712
g12
I0
sg21
I00
sbsg25
(imyEvolve
Tree
p713
(dp714
g12
I0
sg21
I00
sbsg22
I00
sg23
g117
sbsg12
I2
sg22
I01
sg23
g76
sbsg22
I00
sg23
g41
sbsg22
I00
sg23
g34
sbsg22
I00
sg23
g34
sbaa(lp715
(imyEvolve
Tree
p716
(dp717
g12
I2
sg13
(imyEvolve
Tree
p718
(dp719
g7
(imyEvolve
Tree
p720
(dp721
g12
I0
sg20
F-1.8317867461545623
sg21
I01
sbsg12
I1
sg22
I01
sg23
g59
sbsg25
(imyEvolve
Tree
p722
(dp723
g7
(imyEvolve
Tree
p724
(dp725
g12
I0
sg21
I00
sbsg12
I1
sg22
I01
sg23
g24
sbsg22
I00
sg23
g117
sba(imyEvolve
Tree
p726
(dp727
g7
(imyEvolve
Tree
p728
(dp729
g12
I4
sg13
(imyEvolve
Tree
p730
(dp731
g7
(imyEvolve
Tree
p732
(dp733
g7
(imyEvolve
Tree
p734
(dp735
g12
I1
sg13
(imyEvolve
Tree
p736
(dp737
g12
I0
sg20
F1.2695690261309602
sg21
I01
sbsg25
(imyEvolve
Tree
p738
(dp739
g12
I0
sg21
I00
sbsg22
I00
sg23
g41
sbsg12
I2
sg22
I01
sg23
g76
sbsg12
I3
sg22
I01
sg23
g24
sbsg25
(imyEvolve
Tree
p740
(dp741
g7
(imyEvolve
Tree
p742
(dp743
g7
(imyEvolve
Tree
p744
(dp745
g12
I1
sg13
(imyEvolve
Tree
p746
(dp747
g12
I0
sg20
F-3.5754267346351556
sg21
I01
sbsg25
(imyEvolve
Tree
p748
(dp749
g12
I0
sg20
F-3.22231171822575
sg21
I01
sbsg22
I00
sg23
g34
sbsg12
I2
sg22
I01
sg23
g59
sbsg12
I3
sg22
I01
sg23
g42
sbsg22
I00
sg23
g117
sbsg12
I5
sg22
I01
sg23
g59
sba(imyEvolve
Tree
p750
(dp751
g7
(imyEvolve
Tree
p752
(dp753
g12
I3
sg13
(imyEvolve
Tree
p754
(dp755
g7
(imyEvolve
Tree
p756
(dp757
g12
I1
sg13
(imyEvolve
Tree
p758
(dp759
g12
I0
sg20
F4.703220798502983
sg21
I01
sbsg25
(imyEvolve
Tree
p760
(dp761
g12
I0
sg20
F0.7629058386396199
sg21
I01
sbsg22
I00
sg23
g117
sbsg12
I2
sg22
I01
sg23
g24
sbsg25
(imyEvolve
Tree
p762
(dp763
g7
(imyEvolve
Tree
p764
(dp765
g7
(imyEvolve
Tree
p766
(dp767
g12
I0
sg20
F-2.1917519127854526
sg21
I01
sbsg12
I1
sg22
I01
sg23
g59
sbsg12
I2
sg22
I01
sg23
g24
sbsg22
I00
sg23
g41
sbsg12
I4
sg22
I01
sg23
g76
sba(imyEvolve
Tree
p768
(dp769
g7
(imyEvolve
Tree
p770
(dp771
g12
I2
sg13
(imyEvolve
Tree
p772
(dp773
g12
I1
sg13
(imyEvolve
Tree
p774
(dp775
g12
I0
sg20
F4.271433364133868
sg21
I01
sbsg25
(imyEvolve
Tree
p776
(dp777
g12
I0
sg20
F-4.049181409246748
sg21
I01
sbsg22
I00
sg23
g41
sbsg25
(imyEvolve
Tree
p778
(dp779
g7
(imyEvolve
Tree
p780
(dp781
g12
I0
sg21
I00
sbsg12
I1
sg22
I01
sg23
g24
sbsg22
I00
sg23
g41
sbsg12
I3
sg22
I01
sg23
g24
sba(imyEvolve
Tree
p782
(dp783
g12
I4
sg13
(imyEvolve
Tree
p784
(dp785
g12
I3
sg13
(imyEvolve
Tree
p786
(dp787
g12
I2
sg13
(imyEvolve
Tree
p788
(dp789
g7
(imyEvolve
Tree
p790
(dp791
g12
I0
sg20
F-3.8848596792749426
sg21
I01
sbsg12
I1
sg22
I01
sg23
g59
sbsg25
(imyEvolve
Tree
p792
(dp793
g7
(imyEvolve
Tree
p794
(dp795
g12
I0
sg21
I00
sbsg12
I1
sg22
I01
sg23
g59
sbsg22
I00
sg23
g117
sbsg25
(imyEvolve
Tree
p796
(dp797
g12
I2
sg13
(imyEvolve
Tree
p798
(dp799
g12
I1
sg13
(imyEvolve
Tree
p800
(dp801
g12
I0
sg21
I00
sbsg25
(imyEvolve
Tree
p802
(dp803
g12
I0
sg21
I00
sbsg22
I00
sg23
g34
sbsg25
(imyEvolve
Tree
p804
(dp805
g12
I1
sg13
(imyEvolve
Tree
p806
(dp807
g12
I0
sg21
I00
sbsg25
(imyEvolve
Tree
p808
(dp809
g12
I0
sg20
F-0.5119862512999438
sg21
I01
sbsg22
I00
sg23
g34
sbsg22
I00
sg23
g41
sbsg22
I00
sg23
g41
sbsg25
(imyEvolve
Tree
p810
(dp811
g12
I3
sg13
(imyEvolve
Tree
p812
(dp813
g7
(imyEvolve
Tree
p814
(dp815
g12
I1
sg13
(imyEvolve
Tree
p816
(dp817
g12
I0
sg20
F4.361438771848
sg21
I01
sbsg25
(imyEvolve
Tree
p818
(dp819
g12
I0
sg20
F-0.910849485992582
sg21
I01
sbsg22
I00
sg23
g34
sbsg12
I2
sg22
I01
sg23
g59
sbsg25
(imyEvolve
Tree
p820
(dp821
g7
(imyEvolve
Tree
p822
(dp823
g7
(imyEvolve
Tree
p824
(dp825
g12
I0
sg21
I00
sbsg12
I1
sg22
I01
sg23
g76
sbsg12
I2
sg22
I01
sg23
g59
sbsg22
I00
sg23
g117
sbsg22
I00
sg23
g41
sba(imyEvolve
Tree
p826
(dp827
g7
(imyEvolve
Tree
p828
(dp829
g12
I3
sg13
(imyEvolve
Tree
p830
(dp831
g12
I2
sg13
(imyEvolve
Tree
p832
(dp833
g12
I1
sg13
(imyEvolve
Tree
p834
(dp835
g12
I0
sg21
I00
sbsg25
(imyEvolve
Tree
p836
(dp837
g12
I0
sg20
F0.8923648675163829
sg21
I01
sbsg22
I00
sg23
g117
sbsg25
(imyEvolve
Tree
p838
(dp839
g12
I1
sg13
(imyEvolve
Tree
p840
(dp841
g12
I0
sg21
I00
sbsg25
(imyEvolve
Tree
p842
(dp843
g12
I0
sg21
I00
sbsg22
I00
sg23
g41
sbsg22
I00
sg23
g117
sbsg25
(imyEvolve
Tree
p844
(dp845
g12
I2
sg13
(imyEvolve
Tree
p846
(dp847
g7
(imyEvolve
Tree
p848
(dp849
g12
I0
sg21
I00
sbsg12
I1
sg22
I01
sg23
g42
sbsg25
(imyEvolve
Tree
p850
(dp851
g12
I1
sg13
(imyEvolve
Tree
p852
(dp853
g12
I0
sg20
F-1.3059858430771998
sg21
I01
sbsg25
(imyEvolve
Tree
p854
(dp855
g12
I0
sg20
F-4.605953483037179
sg21
I01
sbsg22
I00
sg23
g117
sbsg22
I00
sg23
g117
sbsg22
I00
sg23
g34
sbsg12
I4
sg22
I01
sg23
g76
sba(imyEvolve
Tree
p856
(dp857
g7
(imyEvolve
Tree
p858
(dp859
g12
I1
sg13
(imyEvolve
Tree
p860
(dp861
g12
I0
sg20
F3.20864181565209
sg21
I01
sbsg25
(imyEvolve
Tree
p862
(dp863
g12
I0
sg21
I00
sbsg22
I00
sg23
g41
sbsg12
I2
sg22
I01
sg23
g42
sba(imyEvolve
Tree
p864
(dp865
g7
(imyEvolve
Tree
p866
(dp867
g12
I1
sg13
(imyEvolve
Tree
p868
(dp869
g12
I0
sg21
I00
sbsg25
(imyEvolve
Tree
p870
(dp871
g12
I0
sg20
F-3.325451975987177
sg21
I01
sbsg22
I00
sg23
g41
sbsg12
I2
sg22
I01
sg23
g24
sba(imyEvolve
Tree
p872
(dp873
g7
(imyEvolve
Tree
p874
(dp875
g7
(imyEvolve
Tree
p876
(dp877
g12
I0
sg21
I00
sbsg12
I1
sg22
I01
sg23
g42
sbsg12
I2
sg22
I01
sg23
g59
sba(imyEvolve
Tree
p878
(dp879
g12
I3
sg13
(imyEvolve
Tree
p880
(dp881
g7
(imyEvolve
Tree
p882
(dp883
g12
I1
sg13
(imyEvolve
Tree
p884
(dp885
g12
I0
sg20
F-2.0284622165182187
sg21
I01
sbsg25
(imyEvolve
Tree
p886
(dp887
g12
I0
sg20
F-3.9625882320294856
sg21
I01
sbsg22
I00
sg23
g41
sbsg12
I2
sg22
I01
sg23
g42
sbsg25
(imyEvolve
Tree
p888
(dp889
g7
(imyEvolve
Tree
p890
(dp891
g7
(imyEvolve
Tree
p892
(dp893
g12
I0
sg21
I00
sbsg12
I1
sg22
I01
sg23
g76
sbsg12
I2
sg22
I01
sg23
g59
sbsg22
I00
sg23
g117
sba(imyEvolve
Tree
p894
(dp895
g7
(imyEvolve
Tree
p896
(dp897
g12
I3
sg13
(imyEvolve
Tree
p898
(dp899
g12
I2
sg13
(imyEvolve
Tree
p900
(dp901
g12
I1
sg13
(imyEvolve
Tree
p902
(dp903
g12
I0
sg21
I00
sbsg25
(imyEvolve
Tree
p904
(dp905
g12
I0
sg20
F2.936439092466946
sg21
I01
sbsg22
I00
sg23
g41
sbsg25
(imyEvolve
Tree
p906
(dp907
g7
(imyEvolve
Tree
p908
(dp909
g12
I0
sg20
F-2.859918787170852
sg21
I01
sbsg12
I1
sg22
I01
sg23
g76
sbsg22
I00
sg23
g41
sbsg25
(imyEvolve
Tree
p910
(dp911
g12
I2
sg13
(imyEvolve
Tree
p912
(dp913
g12
I1
sg13
(imyEvolve
Tree
p914
(dp915
g12
I0
sg21
I00
sbsg25
(imyEvolve
Tree
p916
(dp917
g12
I0
sg20
F-4.7812927865312655
sg21
I01
sbsg22
I00
sg23
g34
sbsg25
(imyEvolve
Tree
p918
(dp919
g12
I1
sg13
(imyEvolve
Tree
p920
(dp921
g12
I0
sg21
I00
sbsg25
(imyEvolve
Tree
p922
(dp923
g12
I0
sg21
I00
sbsg22
I00
sg23
g41
sbsg22
I00
sg23
g34
sbsg22
I00
sg23
g117
sbsg12
I4
sg22
I01
sg23
g24
sba(imyEvolve
Tree
p924
(dp925
g12
I5
sg13
(imyEvolve
Tree
p926
(dp927
g7
(imyEvolve
Tree
p928
(dp929
g7
(imyEvolve
Tree
p930
(dp931
g7
(imyEvolve
Tree
p932
(dp933
g12
I1
sg13
(imyEvolve
Tree
p934
(dp935
g12
I0
sg21
I00
sbsg25
(imyEvolve
Tree
p936
(dp937
g12
I0
sg20
F3.0915336286270794
sg21
I01
sbsg22
I00
sg23
g34
sbsg12
I2
sg22
I01
sg23
g76
sbsg12
I3
sg22
I01
sg23
g42
sbsg12
I4
sg22
I01
sg23
g24
sbsg25
(imyEvolve
Tree
p938
(dp939
g12
I4
sg13
(imyEvolve
Tree
p940
(dp941
g12
I3
sg13
(imyEvolve
Tree
p942
(dp943
g7
(imyEvolve
Tree
p944
(dp945
g12
I1
sg13
(imyEvolve
Tree
p946
(dp947
g12
I0
sg20
F0.5714286911216879
sg21
I01
sbsg25
(imyEvolve
Tree
p948
(dp949
g12
I0
sg21
I00
sbsg22
I00
sg23
g41
sbsg12
I2
sg22
I01
sg23
g24
sbsg25
(imyEvolve
Tree
p950
(dp951
g7
(imyEvolve
Tree
p952
(dp953
g7
(imyEvolve
Tree
p954
(dp955
g12
I0
sg21
I00
sbsg12
I1
sg22
I01
sg23
g24
sbsg12
I2
sg22
I01
sg23
g59
sbsg22
I00
sg23
g117
sbsg25
(imyEvolve
Tree
p956
(dp957
g12
I3
sg13
(imyEvolve
Tree
p958
(dp959
g7
(imyEvolve
Tree
p960
(dp961
g7
(imyEvolve
Tree
p962
(dp963
g12
I0
sg20
F2.901971621943302
sg21
I01
sbsg12
I1
sg22
I01
sg23
g24
sbsg12
I2
sg22
I01
sg23
g59
sbsg25
(imyEvolve
Tree
p964
(dp965
g12
I2
sg13
(imyEvolve
Tree
p966
(dp967
g12
I1
sg13
(imyEvolve
Tree
p968
(dp969
g12
I0
sg21
I00
sbsg25
(imyEvolve
Tree
p970
(dp971
g12
I0
sg21
I00
sbsg22
I00
sg23
g34
sbsg25
(imyEvolve
Tree
p972
(dp973
g7
(imyEvolve
Tree
p974
(dp975
g12
I0
sg20
F-0.3320690016953023
sg21
I01
sbsg12
I1
sg22
I01
sg23
g59
sbsg22
I00
sg23
g41
sbsg22
I00
sg23
g117
sbsg22
I00
sg23
g34
sbsg22
I00
sg23
g34
sba(imyEvolve
Tree
p976
(dp977
g7
(imyEvolve
Tree
p978
(dp979
g7
(imyEvolve
Tree
p980
(dp981
g12
I0
sg20
F-4.394556349283587
sg21
I01
sbsg12
I1
sg22
I01
sg23
g76
sbsg12
I2
sg22
I01
sg23
g42
sba(imyEvolve
Tree
p982
(dp983
g12
I2
sg13
(imyEvolve
Tree
p984
(dp985
g7
(imyEvolve
Tree
p986
(dp987
g12
I0
sg21
I00
sbsg12
I1
sg22
I01
sg23
g76
sbsg25
(imyEvolve
Tree
p988
(dp989
g12
I1
sg13
(imyEvolve
Tree
p990
(dp991
g12
I0
sg21
I00
sbsg25
(imyEvolve
Tree
p992
(dp993
g12
I0
sg20
F2.498604450504587
sg21
I01
sbsg22
I00
sg23
g34
sbsg22
I00
sg23
g117
sba(imyEvolve
Tree
p994
(dp995
g12
I5
sg13
(imyEvolve
Tree
p996
(dp997
g12
I4
sg13
(imyEvolve
Tree
p998
(dp999
g12
I3
sg13
(imyEvolve
Tree
p1000
(dp1001
g12
I2
sg13
(imyEvolve
Tree
p1002
(dp1003
g7
(imyEvolve
Tree
p1004
(dp1005
g12
I0
sg20
F0.761276398291324
sg21
I01
sbsg12
I1
sg22
I01
sg23
g59
sbsg25
(imyEvolve
Tree
p1006
(dp1007
g7
(imyEvolve
Tree
p1008
(dp1009
g12
I0
sg20
F-0.6445434860188239
sg21
I01
sbsg12
I1
sg22
I01
sg23
g76
sbsg22
I00
sg23
g117
sbsg25
(imyEvolve
Tree
p1010
(dp1011
g12
I2
sg13
(imyEvolve
Tree
p1012
(dp1013
g7
(imyEvolve
Tree
p1014
(dp1015
g12
I0
sg20
F1.7290154854107378
sg21
I01
sbsg12
I1
sg22
I01
sg23
g76
sbsg25
(imyEvolve
Tree
p1016
(dp1017
g7
(imyEvolve
Tree
p1018
(dp1019
g12
I0
sg20
F2.878356311937976
sg21
I01
sbsg12
I1
sg22
I01
sg23
g59
sbsg22
I00
sg23
g117
sbsg22
I00
sg23
g41
sbsg25
(imyEvolve
Tree
p1020
(dp1021
g7
(imyEvolve
Tree
p1022
(dp1023
g7
(imyEvolve
Tree
p1024
(dp1025
g12
I1
sg13
(imyEvolve
Tree
p1026
(dp1027
g12
I0
sg21
I00
sbsg25
(imyEvolve
Tree
p1028
(dp1029
g12
I0
sg21
I00
sbsg22
I00
sg23
g117
sbsg12
I2
sg22
I01
sg23
g42
sbsg12
I3
sg22
I01
sg23
g42
sbsg22
I00
sg23
g41
sbsg25
(imyEvolve
Tree
p1030
(dp1031
g12
I4
sg13
(imyEvolve
Tree
p1032
(dp1033
g7
(imyEvolve
Tree
p1034
(dp1035
g7
(imyEvolve
Tree
p1036
(dp1037
g7
(imyEvolve
Tree
p1038
(dp1039
g12
I0
sg20
F0.1183876667611381
sg21
I01
sbsg12
I1
sg22
I01
sg23
g24
sbsg12
I2
sg22
I01
sg23
g42
sbsg12
I3
sg22
I01
sg23
g59
sbsg25
(imyEvolve
Tree
p1040
(dp1041
g12
I3
sg13
(imyEvolve
Tree
p1042
(dp1043
g7
(imyEvolve
Tree
p1044
(dp1045
g7
(imyEvolve
Tree
p1046
(dp1047
g12
I0
sg21
I00
sbsg12
I1
sg22
I01
sg23
g42
sbsg12
I2
sg22
I01
sg23
g42
sbsg25
(imyEvolve
Tree
p1048
(dp1049
g7
(imyEvolve
Tree
p1050
(dp1051
g12
I1
sg13
(imyEvolve
Tree
p1052
(dp1053
g12
I0
sg20
F4.283420988375603
sg21
I01
sbsg25
(imyEvolve
Tree
p1054
(dp1055
g12
I0
sg21
I00
sbsg22
I00
sg23
g117
sbsg12
I2
sg22
I01
sg23
g59
sbsg22
I00
sg23
g34
sbsg22
I00
sg23
g34
sbsg22
I00
sg23
g34
sba(imyEvolve
Tree
p1056
(dp1057
g7
(imyEvolve
Tree
p1058
(dp1059
g12
I1
sg13
(imyEvolve
Tree
p1060
(dp1061
g12
I0
sg21
I00
sbsg25
(imyEvolve
Tree
p1062
(dp1063
g12
I0
sg20
F3.72289548886169
sg21
I01
sbsg22
I00
sg23
g34
sbsg12
I2
sg22
I01
sg23
g24
sba(imyEvolve
Tree
p1064
(dp1065
g12
I5
sg13
(imyEvolve
Tree
p1066
(dp1067
g7
(imyEvolve
Tree
p1068
(dp1069
g12
I3
sg13
(imyEvolve
Tree
p1070
(dp1071
g12
I2
sg13
(imyEvolve
Tree
p1072
(dp1073
g7
(imyEvolve
Tree
p1074
(dp1075
g12
I0
sg20
F-0.5637455278238654
sg21
I01
sbsg12
I1
sg22
I01
sg23
g76
sbsg25
(imyEvolve
Tree
p1076
(dp1077
g7
(imyEvolve
Tree
p1078
(dp1079
g12
I0
sg20
F2.7193809277073466
sg21
I01
sbsg12
I1
sg22
I01
sg23
g59
sbsg22
I00
sg23
g117
sbsg25
(imyEvolve
Tree
p1080
(dp1081
g12
I2
sg13
(imyEvolve
Tree
p1082
(dp1083
g7
(imyEvolve
Tree
p1084
(dp1085
g12
I0
sg20
F3.607425515534988
sg21
I01
sbsg12
I1
sg22
I01
sg23
g42
sbsg25
(imyEvolve
Tree
p1086
(dp1087
g7
(imyEvolve
Tree
p1088
(dp1089
g12
I0
sg20
F3.1410663526782123
sg21
I01
sbsg12
I1
sg22
I01
sg23
g24
sbsg22
I00
sg23
g117
sbsg22
I00
sg23
g34
sbsg12
I4
sg22
I01
sg23
g59
sbsg25
(imyEvolve
Tree
p1090
(dp1091
g7
(imyEvolve
Tree
p1092
(dp1093
g7
(imyEvolve
Tree
p1094
(dp1095
g12
I2
sg13
(imyEvolve
Tree
p1096
(dp1097
g12
I1
sg13
(imyEvolve
Tree
p1098
(dp1099
g12
I0
sg21
I00
sbsg25
(imyEvolve
Tree
p1100
(dp1101
g12
I0
sg20
F-1.0921728614471982
sg21
I01
sbsg22
I00
sg23
g117
sbsg25
(imyEvolve
Tree
p1102
(dp1103
g12
I1
sg13
(imyEvolve
Tree
p1104
(dp1105
g12
I0
sg20
F-2.3399623990326566
sg21
I01
sbsg25
(imyEvolve
Tree
p1106
(dp1107
g12
I0
sg21
I00
sbsg22
I00
sg23
g117
sbsg22
I00
sg23
g41
sbsg12
I3
sg22
I01
sg23
g76
sbsg12
I4
sg22
I01
sg23
g59
sbsg22
I00
sg23
g117
sba(imyEvolve
Tree
p1108
(dp1109
g7
(imyEvolve
Tree
p1110
(dp1111
g7
(imyEvolve
Tree
p1112
(dp1113
g7
(imyEvolve
Tree
p1114
(dp1115
g12
I2
sg13
(imyEvolve
Tree
p1116
(dp1117
g12
I1
sg13
(imyEvolve
Tree
p1118
(dp1119
g12
I0
sg21
I00
sbsg25
(imyEvolve
Tree
p1120
(dp1121
g12
I0
sg21
I00
sbsg22
I00
sg23
g34
sbsg25
(imyEvolve
Tree
p1122
(dp1123
g7
(imyEvolve
Tree
p1124
(dp1125
g12
I0
sg20
F-1.1034308114752944
sg21
I01
sbsg12
I1
sg22
I01
sg23
g42
sbsg22
I00
sg23
g117
sbsg12
I3
sg22
I01
sg23
g76
sbsg12
I4
sg22
I01
sg23
g76
sbsg12
I5
sg22
I01
sg23
g24
sbaa(lp1126
(imyEvolve
Tree
p1127
(dp1128
g7
(imyEvolve
Tree
p1129
(dp1130
g7
(imyEvolve
Tree
p1131
(dp1132
g12
I3
sg13
(imyEvolve
Tree
p1133
(dp1134
g12
I2
sg13
(imyEvolve
Tree
p1135
(dp1136
g7
(imyEvolve
Tree
p1137
(dp1138
g12
I0
sg20
F-2.9391926017172776
sg21
I01
sbsg12
I1
sg22
I01
sg23
g76
sbsg25
(imyEvolve
Tree
p1139
(dp1140
g7
(imyEvolve
Tree
p1141
(dp1142
g12
I0
sg20
F4.2329322949331
sg21
I01
sbsg12
I1
sg22
I01
sg23
g42
sbsg22
I00
sg23
g117
sbsg25
(imyEvolve
Tree
p1143
(dp1144
g12
I2
sg13
(imyEvolve
Tree
p1145
(dp1146
g7
(imyEvolve
Tree
p1147
(dp1148
g12
I0
sg20
F-0.331441072050521
sg21
I01
sbsg12
I1
sg22
I01
sg23
g59
sbsg25
(imyEvolve
Tree
p1149
(dp1150
g7
(imyEvolve
Tree
p1151
(dp1152
g12
I0
sg20
F-0.9894207340633479
sg21
I01
sbsg12
I1
sg22
I01
sg23
g24
sbsg22
I00
sg23
g34
sbsg22
I00
sg23
g41
sbsg12
I4
sg22
I01
sg23
g24
sbsg12
I5
sg22
I01
sg23
g59
sba(imyEvolve
Tree
p1153
(dp1154
g7
(imyEvolve
Tree
p1155
(dp1156
g12
I4
sg13
(imyEvolve
Tree
p1157
(dp1158
g7
(imyEvolve
Tree
p1159
(dp1160
g12
I2
sg13
(imyEvolve
Tree
p1161
(dp1162
g12
I1
sg13
(imyEvolve
Tree
p1163
(dp1164
g12
I0
sg21
I00
sbsg25
(imyEvolve
Tree
p1165
(dp1166
g12
I0
sg21
I00
sbsg22
I00
sg23
g41
sbsg25
(imyEvolve
Tree
p1167
(dp1168
g7
(imyEvolve
Tree
p1169
(dp1170
g12
I0
sg20
F-3.698106342743822
sg21
I01
sbsg12
I1
sg22
I01
sg23
g59
sbsg22
I00
sg23
g41
sbsg12
I3
sg22
I01
sg23
g59
sbsg25
(imyEvolve
Tree
p1171
(dp1172
g7
(imyEvolve
Tree
p1173
(dp1174
g7
(imyEvolve
Tree
p1175
(dp1176
g12
I1
sg13
(imyEvolve
Tree
p1177
(dp1178
g12
I0
sg21
I00
sbsg25
(imyEvolve
Tree
p1179
(dp1180
g12
I0
sg20
F-0.8613374309429078
sg21
I01
sbsg22
I00
sg23
g34
sbsg12
I2
sg22
I01
sg23
g42
sbsg12
I3
sg22
I01
sg23
g59
sbsg22
I00
sg23
g117
sbsg12
I5
sg22
I01
sg23
g42
sba(imyEvolve
Tree
p1181
(dp1182
g12
I3
sg13
(imyEvolve
Tree
p1183
(dp1184
g7
(imyEvolve
Tree
p1185
(dp1186
g12
I1
sg13
(imyEvolve
Tree
p1187
(dp1188
g12
I0
sg21
I00
sbsg25
(imyEvolve
Tree
p1189
(dp1190
g12
I0
sg20
F3.5459792605079556
sg21
I01
sbsg22
I00
sg23
g117
sbsg12
I2
sg22
I01
sg23
g59
sbsg25
(imyEvolve
Tree
p1191
(dp1192
g12
I2
sg13
(imyEvolve
Tree
p1193
(dp1194
g12
I1
sg13
(imyEvolve
Tree
p1195
(dp1196
g12
I0
sg21
I00
sbsg25
(imyEvolve
Tree
p1197
(dp1198
g12
I0
sg20
F-0.39935645864851654
sg21
I01
sbsg22
I00
sg23
g117
sbsg25
(imyEvolve
Tree
p1199
(dp1200
g7
(imyEvolve
Tree
p1201
(dp1202
g12
I0
sg21
I00
sbsg12
I1
sg22
I01
sg23
g59
sbsg22
I00
sg23
g34
sbsg22
I00
sg23
g34
sba(imyEvolve
Tree
p1203
(dp1204
g12
I5
sg13
(imyEvolve
Tree
p1205
(dp1206
g7
(imyEvolve
Tree
p1207
(dp1208
g7
(imyEvolve
Tree
p1209
(dp1210
g12
I2
sg13
(imyEvolve
Tree
p1211
(dp1212
g7
(imyEvolve
Tree
p1213
(dp1214
g12
I0
sg21
I00
sbsg12
I1
sg22
I01
sg23
g42
sbsg25
(imyEvolve
Tree
p1215
(dp1216
g7
(imyEvolve
Tree
p1217
(dp1218
g12
I0
sg20
F-2.1996224120388197
sg21
I01
sbsg12
I1
sg22
I01
sg23
g59
sbsg22
I00
sg23
g34
sbsg12
I3
sg22
I01
sg23
g76
sbsg12
I4
sg22
I01
sg23
g24
sbsg25
(imyEvolve
Tree
p1219
(dp1220
g7
(imyEvolve
Tree
p1221
(dp1222
g12
I3
sg13
(imyEvolve
Tree
p1223
(dp1224
g7
(imyEvolve
Tree
p1225
(dp1226
g7
(imyEvolve
Tree
p1227
(dp1228
g12
I0
sg20
F3.1826833670427295
sg21
I01
sbsg12
I1
sg22
I01
sg23
g59
sbsg12
I2
sg22
I01
sg23
g76
sbsg25
(imyEvolve
Tree
p1229
(dp1230
g7
(imyEvolve
Tree
p1231
(dp1232
g7
(imyEvolve
Tree
p1233
(dp1234
g12
I0
sg21
I00
sbsg12
I1
sg22
I01
sg23
g59
sbsg12
I2
sg22
I01
sg23
g42
sbsg22
I00
sg23
g117
sbsg12
I4
sg22
I01
sg23
g76
sbsg22
I00
sg23
g117
sba(imyEvolve
Tree
p1235
(dp1236
g12
I2
sg13
(imyEvolve
Tree
p1237
(dp1238
g12
I1
sg13
(imyEvolve
Tree
p1239
(dp1240
g12
I0
sg20
F3.035790342703921
sg21
I01
sbsg25
(imyEvolve
Tree
p1241
(dp1242
g12
I0
sg20
F-2.6885294673845195
sg21
I01
sbsg22
I00
sg23
g41
sbsg25
(imyEvolve
Tree
p1243
(dp1244
g7
(imyEvolve
Tree
p1245
(dp1246
g12
I0
sg21
I00
sbsg12
I1
sg22
I01
sg23
g42
sbsg22
I00
sg23
g34
sba(imyEvolve
Tree
p1247
(dp1248
g7
(imyEvolve
Tree
p1249
(dp1250
g12
I2
sg13
(imyEvolve
Tree
p1251
(dp1252
g7
(imyEvolve
Tree
p1253
(dp1254
g12
I0
sg20
F-0.5132673607503229
sg21
I01
sbsg12
I1
sg22
I01
sg23
g42
sbsg25
(imyEvolve
Tree
p1255
(dp1256
g12
I1
sg13
(imyEvolve
Tree
p1257
(dp1258
g12
I0
sg21
I00
sbsg25
(imyEvolve
Tree
p1259
(dp1260
g12
I0
sg21
I00
sbsg22
I00
sg23
g117
sbsg22
I00
sg23
g117
sbsg12
I3
sg22
I01
sg23
g59
sba(imyEvolve
Tree
p1261
(dp1262
g12
I4
sg13
(imyEvolve
Tree
p1263
(dp1264
g7
(imyEvolve
Tree
p1265
(dp1266
g12
I2
sg13
(imyEvolve
Tree
p1267
(dp1268
g12
I1
sg13
(imyEvolve
Tree
p1269
(dp1270
g12
I0
sg20
F0.5559132425158229
sg21
I01
sbsg25
(imyEvolve
Tree
p1271
(dp1272
g12
I0
sg21
I00
sbsg22
I00
sg23
g117
sbsg25
(imyEvolve
Tree
p1273
(dp1274
g12
I1
sg13
(imyEvolve
Tree
p1275
(dp1276
g12
I0
sg21
I00
sbsg25
(imyEvolve
Tree
p1277
(dp1278
g12
I0
sg20
F0.45779223921075385
sg21
I01
sbsg22
I00
sg23
g34
sbsg22
I00
sg23
g41
sbsg12
I3
sg22
I01
sg23
g76
sbsg25
(imyEvolve
Tree
p1279
(dp1280
g12
I3
sg13
(imyEvolve
Tree
p1281
(dp1282
g12
I2
sg13
(imyEvolve
Tree
p1283
(dp1284
g7
(imyEvolve
Tree
p1285
(dp1286
g12
I0
sg20
F-0.9932542685039767
sg21
I01
sbsg12
I1
sg22
I01
sg23
g76
sbsg25
(imyEvolve
Tree
p1287
(dp1288
g12
I1
sg13
(imyEvolve
Tree
p1289
(dp1290
g12
I0
sg21
I00
sbsg25
(imyEvolve
Tree
p1291
(dp1292
g12
I0
sg21
I00
sbsg22
I00
sg23
g34
sbsg22
I00
sg23
g34
sbsg25
(imyEvolve
Tree
p1293
(dp1294
g7
(imyEvolve
Tree
p1295
(dp1296
g7
(imyEvolve
Tree
p1297
(dp1298
g12
I0
sg21
I00
sbsg12
I1
sg22
I01
sg23
g59
sbsg12
I2
sg22
I01
sg23
g24
sbsg22
I00
sg23
g34
sbsg22
I00
sg23
g34
sba(imyEvolve
Tree
p1299
(dp1300
g7
(imyEvolve
Tree
p1301
(dp1302
g12
I1
sg13
(imyEvolve
Tree
p1303
(dp1304
g12
I0
sg20
F4.639069102405527
sg21
I01
sbsg25
(imyEvolve
Tree
p1305
(dp1306
g12
I0
sg20
F-4.657463134382143
sg21
I01
sbsg22
I00
sg23
g34
sbsg12
I2
sg22
I01
sg23
g24
sba(imyEvolve
Tree
p1307
(dp1308
g12
I2
sg13
(imyEvolve
Tree
p1309
(dp1310
g12
I1
sg13
(imyEvolve
Tree
p1311
(dp1312
g12
I0
sg21
I00
sbsg25
(imyEvolve
Tree
p1313
(dp1314
g12
I0
sg20
F3.03629660901246
sg21
I01
sbsg22
I00
sg23
g117
sbsg25
(imyEvolve
Tree
p1315
(dp1316
g12
I1
sg13
(imyEvolve
Tree
p1317
(dp1318
g12
I0
sg20
F2.8523933705041626
sg21
I01
sbsg25
(imyEvolve
Tree
p1319
(dp1320
g12
I0
sg20
F1.5743372226668297
sg21
I01
sbsg22
I00
sg23
g117
sbsg22
I00
sg23
g41
sba(imyEvolve
Tree
p1321
(dp1322
g12
I3
sg13
(imyEvolve
Tree
p1323
(dp1324
g12
I2
sg13
(imyEvolve
Tree
p1325
(dp1326
g7
(imyEvolve
Tree
p1327
(dp1328
g12
I0
sg21
I00
sbsg12
I1
sg22
I01
sg23
g42
sbsg25
(imyEvolve
Tree
p1329
(dp1330
g7
(imyEvolve
Tree
p1331
(dp1332
g12
I0
sg21
I00
sbsg12
I1
sg22
I01
sg23
g76
sbsg22
I00
sg23
g34
sbsg25
(imyEvolve
Tree
p1333
(dp1334
g7
(imyEvolve
Tree
p1335
(dp1336
g7
(imyEvolve
Tree
p1337
(dp1338
g12
I0
sg21
I00
sbsg12
I1
sg22
I01
sg23
g59
sbsg12
I2
sg22
I01
sg23
g42
sbsg22
I00
sg23
g41
sba(imyEvolve
Tree
p1339
(dp1340
g7
(imyEvolve
Tree
p1341
(dp1342
g12
I1
sg13
(imyEvolve
Tree
p1343
(dp1344
g12
I0
sg20
F-0.7361717298095822
sg21
I01
sbsg25
(imyEvolve
Tree
p1345
(dp1346
g12
I0
sg21
I00
sbsg22
I00
sg23
g117
sbsg12
I2
sg22
I01
sg23
g42
sba(imyEvolve
Tree
p1347
(dp1348
g7
(imyEvolve
Tree
p1349
(dp1350
g12
I3
sg13
(imyEvolve
Tree
p1351
(dp1352
g7
(imyEvolve
Tree
p1353
(dp1354
g12
I1
sg13
(imyEvolve
Tree
p1355
(dp1356
g12
I0
sg20
F2.4379469409761123
sg21
I01
sbsg25
(imyEvolve
Tree
p1357
(dp1358
g12
I0
sg21
I00
sbsg22
I00
sg23
g34
sbsg12
I2
sg22
I01
sg23
g24
sbsg25
(imyEvolve
Tree
p1359
(dp1360
g7
(imyEvolve
Tree
p1361
(dp1362
g12
I1
sg13
(imyEvolve
Tree
p1363
(dp1364
g12
I0
sg21
I00
sbsg25
(imyEvolve
Tree
p1365
(dp1366
g12
I0
sg20
F-4.0194648037344205
sg21
I01
sbsg22
I00
sg23
g41
sbsg12
I2
sg22
I01
sg23
g76
sbsg22
I00
sg23
g34
sbsg12
I4
sg22
I01
sg23
g24
sba(imyEvolve
Tree
p1367
(dp1368
g7
(imyEvolve
Tree
p1369
(dp1370
g12
I3
sg13
(imyEvolve
Tree
p1371
(dp1372
g7
(imyEvolve
Tree
p1373
(dp1374
g12
I1
sg13
(imyEvolve
Tree
p1375
(dp1376
g12
I0
sg20
F0.4380287272381693
sg21
I01
sbsg25
(imyEvolve
Tree
p1377
(dp1378
g12
I0
sg20
F-1.0829442809864287
sg21
I01
sbsg22
I00
sg23
g41
sbsg12
I2
sg22
I01
sg23
g59
sbsg25
(imyEvolve
Tree
p1379
(dp1380
g12
I2
sg13
(imyEvolve
Tree
p1381
(dp1382
g7
(imyEvolve
Tree
p1383
(dp1384
g12
I0
sg20
F-1.105902110673842
sg21
I01
sbsg12
I1
sg22
I01
sg23
g24
sbsg25
(imyEvolve
Tree
p1385
(dp1386
g12
I1
sg13
(imyEvolve
Tree
p1387
(dp1388
g12
I0
sg20
F-2.7264201320883052
sg21
I01
sbsg25
(imyEvolve
Tree
p1389
(dp1390
g12
I0
sg21
I00
sbsg22
I00
sg23
g41
sbsg22
I00
sg23
g41
sbsg22
I00
sg23
g117
sbsg12
I4
sg22
I01
sg23
g42
sbaasS'weightSharing'
p1391
(lp1392
I00
aI00
asS'fitnessValid'
p1393
I00
sS'fitness'
p1394
cnumpy.core.multiarray
scalar
p1395
(cnumpy
dtype
p1396
(S'f8'
p1397
I0
I1
tp1398
Rp1399
(I3
S'<'
p1400
NNNI-1
I-1
I0
tp1401
bS'\x00\xf8S\xe3-\x0c]\xbf'
p1402
tp1403
Rp1404
sS'alpha'
p1405
F0.007537268521180497
sS'resolution'
p1406
I41
sb.