(imyEvolve
Individual
p0
(dp1
S'funcs'
p2
(lp3
(lp4
(imyEvolve
Tree
p5
(dp6
S'depth'
p7
I4
sS'left'
p8
(imyEvolve
Tree
p9
(dp10
S'below'
p11
(imyEvolve
Tree
p12
(dp13
g7
I2
sg8
(imyEvolve
Tree
p14
(dp15
g7
I1
sg8
(imyEvolve
Tree
p16
(dp17
g7
I0
sS'constant'
p18
F0.5475572394981318
sS'isConstant'
p19
I01
sbsS'right'
p20
(imyEvolve
Tree
p21
(dp22
g7
I0
sg19
I00
sbsS'single'
p23
I00
sS'op'
p24
coperator
sub
p25
sbsg20
(imyEvolve
Tree
p26
(dp27
g11
(imyEvolve
Tree
p28
(dp29
g7
I0
sg18
F-2.783036547426737
sg19
I01
sbsg7
I1
sg23
I01
sg24
cmath
sin
p30
sbsg23
I00
sg24
g25
sbsg7
I3
sg23
I01
sg24
cmyEvolve
square
p31
sbsg20
(imyEvolve
Tree
p32
(dp33
g11
(imyEvolve
Tree
p34
(dp35
g11
(imyEvolve
Tree
p36
(dp37
g7
I1
sg8
(imyEvolve
Tree
p38
(dp39
g7
I0
sg19
I00
sbsg20
(imyEvolve
Tree
p40
(dp41
g7
I0
sg18
F-3.3084815258167577
sg19
I01
sbsg23
I00
sg24
coperator
mul
p42
sbsg7
I2
sg23
I01
sg24
g31
sbsg7
I3
sg23
I01
sg24
cmyEvolve
absSqrt
p43
sbsg23
I00
sg24
g42
sba(imyEvolve
Tree
p44
(dp45
g7
I4
sg8
(imyEvolve
Tree
p46
(dp47
g7
I3
sg8
(imyEvolve
Tree
p48
(dp49
g11
(imyEvolve
Tree
p50
(dp51
g11
(imyEvolve
Tree
p52
(dp53
g7
I0
sg19
I00
sbsg7
I1
sg23
I01
sg24
cmath
cos
p54
sbsg7
I2
sg23
I01
sg24
g43
sbsg20
(imyEvolve
Tree
p55
(dp56
g11
(imyEvolve
Tree
p57
(dp58
g11
(imyEvolve
Tree
p59
(dp60
g7
I0
sg19
I00
sbsg7
I1
sg23
I01
sg24
g31
sbsg7
I2
sg23
I01
sg24
g30
sbsg23
I00
sg24
coperator
add
p61
sbsg20
(imyEvolve
Tree
p62
(dp63
g11
(imyEvolve
Tree
p64
(dp65
g7
I2
sg8
(imyEvolve
Tree
p66
(dp67
g7
I1
sg8
(imyEvolve
Tree
p68
(dp69
g7
I0
sg18
F2.3691045837096647
sg19
I01
sbsg20
(imyEvolve
Tree
p70
(dp71
g7
I0
sg18
F0.9865671133470864
sg19
I01
sbsg23
I00
sg24
g42
sbsg20
(imyEvolve
Tree
p72
(dp73
g7
I1
sg8
(imyEvolve
Tree
p74
(dp75
g7
I0
sg19
I00
sbsg20
(imyEvolve
Tree
p76
(dp77
g7
I0
sg18
F-0.7768725331682793
sg19
I01
sbsg23
I00
sg24
g42
sbsg23
I00
sg24
g61
sbsg7
I3
sg23
I01
sg24
g31
sbsg23
I00
sg24
g42
sba(imyEvolve
Tree
p78
(dp79
g7
I4
sg8
(imyEvolve
Tree
p80
(dp81
g11
(imyEvolve
Tree
p82
(dp83
g11
(imyEvolve
Tree
p84
(dp85
g11
(imyEvolve
Tree
p86
(dp87
g7
I0
sg19
I00
sbsg7
I1
sg23
I01
sg24
g43
sbsg7
I2
sg23
I01
sg24
g43
sbsg7
I3
sg23
I01
sg24
g43
sbsg20
(imyEvolve
Tree
p88
(dp89
g11
(imyEvolve
Tree
p90
(dp91
g7
I2
sg8
(imyEvolve
Tree
p92
(dp93
g7
I1
sg8
(imyEvolve
Tree
p94
(dp95
g7
I0
sg19
I00
sbsg20
(imyEvolve
Tree
p96
(dp97
g7
I0
sg19
I00
sbsg23
I00
sg24
g25
sbsg20
(imyEvolve
Tree
p98
(dp99
g7
I1
sg8
(imyEvolve
Tree
p100
(dp101
g7
I0
sg18
F2.9372126854033045
sg19
I01
sbsg20
(imyEvolve
Tree
p102
(dp103
g7
I0
sg18
F-1.7827596653672972
sg19
I01
sbsg23
I00
sg24
g61
sbsg23
I00
sg24
g61
sbsg7
I3
sg23
I01
sg24
g54
sbsg23
I00
sg24
g25
sba(imyEvolve
Tree
p104
(dp105
g7
I5
sg8
(imyEvolve
Tree
p106
(dp107
g11
(imyEvolve
Tree
p108
(dp109
g11
(imyEvolve
Tree
p110
(dp111
g7
I2
sg8
(imyEvolve
Tree
p112
(dp113
g7
I1
sg8
(imyEvolve
Tree
p114
(dp115
g7
I0
sg19
I00
sbsg20
(imyEvolve
Tree
p116
(dp117
g7
I0
sg18
F-3.8066040710593763
sg19
I01
sbsg23
I00
sg24
g42
sbsg20
(imyEvolve
Tree
p118
(dp119
g7
I1
sg8
(imyEvolve
Tree
p120
(dp121
g7
I0
sg19
I00
sbsg20
(imyEvolve
Tree
p122
(dp123
g7
I0
sg18
F-1.9533057539955454
sg19
I01
sbsg23
I00
sg24
g25
sbsg23
I00
sg24
g42
sbsg7
I3
sg23
I01
sg24
g31
sbsg7
I4
sg23
I01
sg24
g43
sbsg20
(imyEvolve
Tree
p124
(dp125
g7
I4
sg8
(imyEvolve
Tree
p126
(dp127
g7
I3
sg8
(imyEvolve
Tree
p128
(dp129
g7
I2
sg8
(imyEvolve
Tree
p130
(dp131
g11
(imyEvolve
Tree
p132
(dp133
g7
I0
sg19
I00
sbsg7
I1
sg23
I01
sg24
g30
sbsg20
(imyEvolve
Tree
p134
(dp135
g7
I1
sg8
(imyEvolve
Tree
p136
(dp137
g7
I0
sg18
F-0.3323870225258645
sg19
I01
sbsg20
(imyEvolve
Tree
p138
(dp139
g7
I0
sg19
I00
sbsg23
I00
sg24
g61
sbsg23
I00
sg24
g25
sbsg20
(imyEvolve
Tree
p140
(dp141
g11
(imyEvolve
Tree
p142
(dp143
g11
(imyEvolve
Tree
p144
(dp145
g7
I0
sg18
F0.08654688705438485
sg19
I01
sbsg7
I1
sg23
I01
sg24
g30
sbsg7
I2
sg23
I01
sg24
g43
sbsg23
I00
sg24
g61
sbsg20
(imyEvolve
Tree
p146
(dp147
g11
(imyEvolve
Tree
p148
(dp149
g7
I2
sg8
(imyEvolve
Tree
p150
(dp151
g7
I1
sg8
(imyEvolve
Tree
p152
(dp153
g7
I0
sg18
F0.3228699960751893
sg19
I01
sbsg20
(imyEvolve
Tree
p154
(dp155
g7
I0
sg18
F0.5396735159091337
sg19
I01
sbsg23
I00
sg24
g61
sbsg20
(imyEvolve
Tree
p156
(dp157
g7
I1
sg8
(imyEvolve
Tree
p158
(dp159
g7
I0
sg19
I00
sbsg20
(imyEvolve
Tree
p160
(dp161
g7
I0
sg18
F-2.544402514584314
sg19
I01
sbsg23
I00
sg24
g42
sbsg23
I00
sg24
g61
sbsg7
I3
sg23
I01
sg24
g54
sbsg23
I00
sg24
g25
sbsg23
I00
sg24
g61
sba(imyEvolve
Tree
p162
(dp163
g7
I4
sg8
(imyEvolve
Tree
p164
(dp165
g11
(imyEvolve
Tree
p166
(dp167
g11
(imyEvolve
Tree
p168
(dp169
g7
I1
sg8
(imyEvolve
Tree
p170
(dp171
g7
I0
sg19
I00
sbsg20
(imyEvolve
Tree
p172
(dp173
g7
I0
sg19
I00
sbsg23
I00
sg24
g42
sbsg7
I2
sg23
I01
sg24
g30
sbsg7
I3
sg23
I01
sg24
g31
sbsg20
(imyEvolve
Tree
p174
(dp175
g7
I3
sg8
(imyEvolve
Tree
p176
(dp177
g11
(imyEvolve
Tree
p178
(dp179
g7
I1
sg8
(imyEvolve
Tree
p180
(dp181
g7
I0
sg18
F-0.7254756951384769
sg19
I01
sbsg20
(imyEvolve
Tree
p182
(dp183
g7
I0
sg19
I00
sbsg23
I00
sg24
g25
sbsg7
I2
sg23
I01
sg24
g30
sbsg20
(imyEvolve
Tree
p184
(dp185
g7
I2
sg8
(imyEvolve
Tree
p186
(dp187
g11
(imyEvolve
Tree
p188
(dp189
g7
I0
sg19
I00
sbsg7
I1
sg23
I01
sg24
g43
sbsg20
(imyEvolve
Tree
p190
(dp191
g11
(imyEvolve
Tree
p192
(dp193
g7
I0
sg18
F-1.0960427500540426
sg19
I01
sbsg7
I1
sg23
I01
sg24
g31
sbsg23
I00
sg24
g42
sbsg23
I00
sg24
g42
sbsg23
I00
sg24
g61
sba(imyEvolve
Tree
p194
(dp195
g11
(imyEvolve
Tree
p196
(dp197
g11
(imyEvolve
Tree
p198
(dp199
g7
I0
sg19
I00
sbsg7
I1
sg23
I01
sg24
g31
sbsg7
I2
sg23
I01
sg24
g31
sba(imyEvolve
Tree
p200
(dp201
g7
I5
sg8
(imyEvolve
Tree
p202
(dp203
g7
I4
sg8
(imyEvolve
Tree
p204
(dp205
g7
I3
sg8
(imyEvolve
Tree
p206
(dp207
g7
I2
sg8
(imyEvolve
Tree
p208
(dp209
g11
(imyEvolve
Tree
p210
(dp211
g7
I0
sg18
F0.6731739559543755
sg19
I01
sbsg7
I1
sg23
I01
sg24
g54
sbsg20
(imyEvolve
Tree
p212
(dp213
g7
I1
sg8
(imyEvolve
Tree
p214
(dp215
g7
I0
sg18
F-1.3904989560086047
sg19
I01
sbsg20
(imyEvolve
Tree
p216
(dp217
g7
I0
sg18
F3.3914983079895773
sg19
I01
sbsg23
I00
sg24
g61
sbsg23
I00
sg24
g61
sbsg20
(imyEvolve
Tree
p218
(dp219
g7
I2
sg8
(imyEvolve
Tree
p220
(dp221
g11
(imyEvolve
Tree
p222
(dp223
g7
I0
sg18
F-0.4139180196789596
sg19
I01
sbsg7
I1
sg23
I01
sg24
g54
sbsg20
(imyEvolve
Tree
p224
(dp225
g7
I1
sg8
(imyEvolve
Tree
p226
(dp227
g7
I0
sg18
F3.9404456438745825
sg19
I01
sbsg20
(imyEvolve
Tree
p228
(dp229
g7
I0
sg18
F-2.210227268593349
sg19
I01
sbsg23
I00
sg24
g25
sbsg23
I00
sg24
g25
sbsg23
I00
sg24
g42
sbsg20
(imyEvolve
Tree
p230
(dp231
g7
I3
sg8
(imyEvolve
Tree
p232
(dp233
g7
I2
sg8
(imyEvolve
Tree
p234
(dp235
g7
I1
sg8
(imyEvolve
Tree
p236
(dp237
g7
I0
sg19
I00
sbsg20
(imyEvolve
Tree
p238
(dp239
g7
I0
sg18
F-0.7626488458290295
sg19
I01
sbsg23
I00
sg24
g61
sbsg20
(imyEvolve
Tree
p240
(dp241
g11
(imyEvolve
Tree
p242
(dp243
g7
I0
sg18
F0.3596869210530471
sg19
I01
sbsg7
I1
sg23
I01
sg24
g43
sbsg23
I00
sg24
g42
sbsg20
(imyEvolve
Tree
p244
(dp245
g11
(imyEvolve
Tree
p246
(dp247
g11
(imyEvolve
Tree
p248
(dp249
g7
I0
sg18
F-1.4076216861748758
sg19
I01
sbsg7
I1
sg23
I01
sg24
g43
sbsg7
I2
sg23
I01
sg24
g30
sbsg23
I00
sg24
g42
sbsg23
I00
sg24
g25
sbsg20
(imyEvolve
Tree
p250
(dp251
g11
(imyEvolve
Tree
p252
(dp253
g7
I3
sg8
(imyEvolve
Tree
p254
(dp255
g11
(imyEvolve
Tree
p256
(dp257
g7
I1
sg8
(imyEvolve
Tree
p258
(dp259
g7
I0
sg18
F-3.8413833176081957
sg19
I01
sbsg20
(imyEvolve
Tree
p260
(dp261
g7
I0
sg18
F1.6485714981825863
sg19
I01
sbsg23
I00
sg24
g42
sbsg7
I2
sg23
I01
sg24
g30
sbsg20
(imyEvolve
Tree
p262
(dp263
g11
(imyEvolve
Tree
p264
(dp265
g11
(imyEvolve
Tree
p266
(dp267
g7
I0
sg19
I00
sbsg7
I1
sg23
I01
sg24
g54
sbsg7
I2
sg23
I01
sg24
g31
sbsg23
I00
sg24
g61
sbsg7
I4
sg23
I01
sg24
g54
sbsg23
I00
sg24
g42
sba(imyEvolve
Tree
p268
(dp269
g7
I5
sg8
(imyEvolve
Tree
p270
(dp271
g7
I4
sg8
(imyEvolve
Tree
p272
(dp273
g11
(imyEvolve
Tree
p274
(dp275
g11
(imyEvolve
Tree
p276
(dp277
g7
I1
sg8
(imyEvolve
Tree
p278
(dp279
g7
I0
sg18
F-1.1583549326325446
sg19
I01
sbsg20
(imyEvolve
Tree
p280
(dp281
g7
I0
sg18
F-1.8771927240996868
sg19
I01
sbsg23
I00
sg24
g42
sbsg7
I2
sg23
I01
sg24
g43
sbsg7
I3
sg23
I01
sg24
g43
sbsg20
(imyEvolve
Tree
p282
(dp283
g11
(imyEvolve
Tree
p284
(dp285
g11
(imyEvolve
Tree
p286
(dp287
g7
I1
sg8
(imyEvolve
Tree
p288
(dp289
g7
I0
sg19
I00
sbsg20
(imyEvolve
Tree
p290
(dp291
g7
I0
sg19
I00
sbsg23
I00
sg24
g61
sbsg7
I2
sg23
I01
sg24
g30
sbsg7
I3
sg23
I01
sg24
g54
sbsg23
I00
sg24
g25
sbsg20
(imyEvolve
Tree
p292
(dp293
g7
I4
sg8
(imyEvolve
Tree
p294
(dp295
g11
(imyEvolve
Tree
p296
(dp297
g7
I2
sg8
(imyEvolve
Tree
p298
(dp299
g11
(imyEvolve
Tree
p300
(dp301
g7
I0
sg18
F0.9417074554587526
sg19
I01
sbsg7
I1
sg23
I01
sg24
g43
sbsg20
(imyEvolve
Tree
p302
(dp303
g7
I1
sg8
(imyEvolve
Tree
p304
(dp305
g7
I0
sg19
I00
sbsg20
(imyEvolve
Tree
p306
(dp307
g7
I0
sg19
I00
sbsg23
I00
sg24
g25
sbsg23
I00
sg24
g25
sbsg7
I3
sg23
I01
sg24
g43
sbsg20
(imyEvolve
Tree
p308
(dp309
g11
(imyEvolve
Tree
p310
(dp311
g11
(imyEvolve
Tree
p312
(dp313
g7
I1
sg8
(imyEvolve
Tree
p314
(dp315
g7
I0
sg18
F2.825905330519478
sg19
I01
sbsg20
(imyEvolve
Tree
p316
(dp317
g7
I0
sg18
F0.7352979061478315
sg19
I01
sbsg23
I00
sg24
g25
sbsg7
I2
sg23
I01
sg24
g30
sbsg7
I3
sg23
I01
sg24
g43
sbsg23
I00
sg24
g42
sbsg23
I00
sg24
g25
sba(imyEvolve
Tree
p318
(dp319
g7
I5
sg8
(imyEvolve
Tree
p320
(dp321
g7
I4
sg8
(imyEvolve
Tree
p322
(dp323
g11
(imyEvolve
Tree
p324
(dp325
g7
I2
sg8
(imyEvolve
Tree
p326
(dp327
g11
(imyEvolve
Tree
p328
(dp329
g7
I0
sg18
F0.9610001224457152
sg19
I01
sbsg7
I1
sg23
I01
sg24
g30
sbsg20
(imyEvolve
Tree
p330
(dp331
g7
I1
sg8
(imyEvolve
Tree
p332
(dp333
g7
I0
sg19
I00
sbsg20
(imyEvolve
Tree
p334
(dp335
g7
I0
sg18
F0.10948198392055097
sg19
I01
sbsg23
I00
sg24
g42
sbsg23
I00
sg24
g61
sbsg7
I3
sg23
I01
sg24
g31
sbsg20
(imyEvolve
Tree
p336
(dp337
g11
(imyEvolve
Tree
p338
(dp339
g11
(imyEvolve
Tree
p340
(dp341
g11
(imyEvolve
Tree
p342
(dp343
g7
I0
sg19
I00
sbsg7
I1
sg23
I01
sg24
g30
sbsg7
I2
sg23
I01
sg24
g54
sbsg7
I3
sg23
I01
sg24
g43
sbsg23
I00
sg24
g42
sbsg20
(imyEvolve
Tree
p344
(dp345
g11
(imyEvolve
Tree
p346
(dp347
g7
I3
sg8
(imyEvolve
Tree
p348
(dp349
g7
I2
sg8
(imyEvolve
Tree
p350
(dp351
g11
(imyEvolve
Tree
p352
(dp353
g7
I0
sg19
I00
sbsg7
I1
sg23
I01
sg24
g31
sbsg20
(imyEvolve
Tree
p354
(dp355
g7
I1
sg8
(imyEvolve
Tree
p356
(dp357
g7
I0
sg18
F-2.8074650763099243
sg19
I01
sbsg20
(imyEvolve
Tree
p358
(dp359
g7
I0
sg19
I00
sbsg23
I00
sg24
g42
sbsg23
I00
sg24
g25
sbsg20
(imyEvolve
Tree
p360
(dp361
g7
I2
sg8
(imyEvolve
Tree
p362
(dp363
g11
(imyEvolve
Tree
p364
(dp365
g7
I0
sg18
F-0.8672151182765431
sg19
I01
sbsg7
I1
sg23
I01
sg24
g43
sbsg20
(imyEvolve
Tree
p366
(dp367
g11
(imyEvolve
Tree
p368
(dp369
g7
I0
sg19
I00
sbsg7
I1
sg23
I01
sg24
g30
sbsg23
I00
sg24
g25
sbsg23
I00
sg24
g42
sbsg7
I4
sg23
I01
sg24
g31
sbsg23
I00
sg24
g42
sba(imyEvolve
Tree
p370
(dp371
g11
(imyEvolve
Tree
p372
(dp373
g11
(imyEvolve
Tree
p374
(dp375
g7
I0
sg19
I00
sbsg7
I1
sg23
I01
sg24
g43
sbsg7
I2
sg23
I01
sg24
g31
sba(imyEvolve
Tree
p376
(dp377
g7
I4
sg8
(imyEvolve
Tree
p378
(dp379
g11
(imyEvolve
Tree
p380
(dp381
g11
(imyEvolve
Tree
p382
(dp383
g11
(imyEvolve
Tree
p384
(dp385
g7
I0
sg18
F0.10954344470381905
sg19
I01
sbsg7
I1
sg23
I01
sg24
g43
sbsg7
I2
sg23
I01
sg24
g31
sbsg7
I3
sg23
I01
sg24
g54
sbsg20
(imyEvolve
Tree
p386
(dp387
g7
I3
sg8
(imyEvolve
Tree
p388
(dp389
g7
I2
sg8
(imyEvolve
Tree
p390
(dp391
g7
I1
sg8
(imyEvolve
Tree
p392
(dp393
g7
I0
sg19
I00
sbsg20
(imyEvolve
Tree
p394
(dp395
g7
I0
sg19
I00
sbsg23
I00
sg24
g61
sbsg20
(imyEvolve
Tree
p396
(dp397
g7
I1
sg8
(imyEvolve
Tree
p398
(dp399
g7
I0
sg19
I00
sbsg20
(imyEvolve
Tree
p400
(dp401
g7
I0
sg19
I00
sbsg23
I00
sg24
g25
sbsg23
I00
sg24
g25
sbsg20
(imyEvolve
Tree
p402
(dp403
g11
(imyEvolve
Tree
p404
(dp405
g11
(imyEvolve
Tree
p406
(dp407
g7
I0
sg18
F-3.5880730136992067
sg19
I01
sbsg7
I1
sg23
I01
sg24
g54
sbsg7
I2
sg23
I01
sg24
g54
sbsg23
I00
sg24
g25
sbsg23
I00
sg24
g61
sba(imyEvolve
Tree
p408
(dp409
g11
(imyEvolve
Tree
p410
(dp411
g7
I3
sg8
(imyEvolve
Tree
p412
(dp413
g7
I2
sg8
(imyEvolve
Tree
p414
(dp415
g7
I1
sg8
(imyEvolve
Tree
p416
(dp417
g7
I0
sg18
F-3.246486463157062
sg19
I01
sbsg20
(imyEvolve
Tree
p418
(dp419
g7
I0
sg19
I00
sbsg23
I00
sg24
g42
sbsg20
(imyEvolve
Tree
p420
(dp421
g7
I1
sg8
(imyEvolve
Tree
p422
(dp423
g7
I0
sg18
F0.3684619987505915
sg19
I01
sbsg20
(imyEvolve
Tree
p424
(dp425
g7
I0
sg19
I00
sbsg23
I00
sg24
g42
sbsg23
I00
sg24
g61
sbsg20
(imyEvolve
Tree
p426
(dp427
g7
I2
sg8
(imyEvolve
Tree
p428
(dp429
g11
(imyEvolve
Tree
p430
(dp431
g7
I0
sg19
I00
sbsg7
I1
sg23
I01
sg24
g30
sbsg20
(imyEvolve
Tree
p432
(dp433
g11
(imyEvolve
Tree
p434
(dp435
g7
I0
sg19
I00
sbsg7
I1
sg23
I01
sg24
g31
sbsg23
I00
sg24
g25
sbsg23
I00
sg24
g25
sbsg7
I4
sg23
I01
sg24
g54
sba(imyEvolve
Tree
p436
(dp437
g11
(imyEvolve
Tree
p438
(dp439
g7
I4
sg8
(imyEvolve
Tree
p440
(dp441
g7
I3
sg8
(imyEvolve
Tree
p442
(dp443
g11
(imyEvolve
Tree
p444
(dp445
g11
(imyEvolve
Tree
p446
(dp447
g7
I0
sg19
I00
sbsg7
I1
sg23
I01
sg24
g31
sbsg7
I2
sg23
I01
sg24
g54
sbsg20
(imyEvolve
Tree
p448
(dp449
g11
(imyEvolve
Tree
p450
(dp451
g7
I1
sg8
(imyEvolve
Tree
p452
(dp453
g7
I0
sg19
I00
sbsg20
(imyEvolve
Tree
p454
(dp455
g7
I0
sg19
I00
sbsg23
I00
sg24
g61
sbsg7
I2
sg23
I01
sg24
g43
sbsg23
I00
sg24
g25
sbsg20
(imyEvolve
Tree
p456
(dp457
g7
I3
sg8
(imyEvolve
Tree
p458
(dp459
g7
I2
sg8
(imyEvolve
Tree
p460
(dp461
g7
I1
sg8
(imyEvolve
Tree
p462
(dp463
g7
I0
sg19
I00
sbsg20
(imyEvolve
Tree
p464
(dp465
g7
I0
sg18
F-2.5838780417195384
sg19
I01
sbsg23
I00
sg24
g42
sbsg20
(imyEvolve
Tree
p466
(dp467
g11
(imyEvolve
Tree
p468
(dp469
g7
I0
sg18
F2.58852091148536
sg19
I01
sbsg7
I1
sg23
I01
sg24
g31
sbsg23
I00
sg24
g25
sbsg20
(imyEvolve
Tree
p470
(dp471
g11
(imyEvolve
Tree
p472
(dp473
g11
(imyEvolve
Tree
p474
(dp475
g7
I0
sg19
I00
sbsg7
I1
sg23
I01
sg24
g54
sbsg7
I2
sg23
I01
sg24
g30
sbsg23
I00
sg24
g25
sbsg23
I00
sg24
g25
sbsg7
I5
sg23
I01
sg24
g54
sba(imyEvolve
Tree
p476
(dp477
g7
I3
sg8
(imyEvolve
Tree
p478
(dp479
g11
(imyEvolve
Tree
p480
(dp481
g11
(imyEvolve
Tree
p482
(dp483
g7
I0
sg18
F-2.8174516757474812
sg19
I01
sbsg7
I1
sg23
I01
sg24
g30
sbsg7
I2
sg23
I01
sg24
g30
sbsg20
(imyEvolve
Tree
p484
(dp485
g11
(imyEvolve
Tree
p486
(dp487
g7
I1
sg8
(imyEvolve
Tree
p488
(dp489
g7
I0
sg18
F4.140377033899021
sg19
I01
sbsg20
(imyEvolve
Tree
p490
(dp491
g7
I0
sg19
I00
sbsg23
I00
sg24
g25
sbsg7
I2
sg23
I01
sg24
g43
sbsg23
I00
sg24
g42
sba(imyEvolve
Tree
p492
(dp493
g11
(imyEvolve
Tree
p494
(dp495
g7
I4
sg8
(imyEvolve
Tree
p496
(dp497
g11
(imyEvolve
Tree
p498
(dp499
g7
I2
sg8
(imyEvolve
Tree
p500
(dp501
g11
(imyEvolve
Tree
p502
(dp503
g7
I0
sg18
F3.613459855652545
sg19
I01
sbsg7
I1
sg23
I01
sg24
g30
sbsg20
(imyEvolve
Tree
p504
(dp505
g7
I1
sg8
(imyEvolve
Tree
p506
(dp507
g7
I0
sg19
I00
sbsg20
(imyEvolve
Tree
p508
(dp509
g7
I0
sg18
F2.0278231964996625
sg19
I01
sbsg23
I00
sg24
g25
sbsg23
I00
sg24
g42
sbsg7
I3
sg23
I01
sg24
g54
sbsg20
(imyEvolve
Tree
p510
(dp511
g7
I3
sg8
(imyEvolve
Tree
p512
(dp513
g11
(imyEvolve
Tree
p514
(dp515
g7
I1
sg8
(imyEvolve
Tree
p516
(dp517
g7
I0
sg19
I00
sbsg20
(imyEvolve
Tree
p518
(dp519
g7
I0
sg18
F-3.2238394949408877
sg19
I01
sbsg23
I00
sg24
g61
sbsg7
I2
sg23
I01
sg24
g43
sbsg20
(imyEvolve
Tree
p520
(dp521
g7
I2
sg8
(imyEvolve
Tree
p522
(dp523
g11
(imyEvolve
Tree
p524
(dp525
g7
I0
sg18
F2.770096299541077
sg19
I01
sbsg7
I1
sg23
I01
sg24
g30
sbsg20
(imyEvolve
Tree
p526
(dp527
g11
(imyEvolve
Tree
p528
(dp529
g7
I0
sg18
F2.0726270648447684
sg19
I01
sbsg7
I1
sg23
I01
sg24
g54
sbsg23
I00
sg24
g25
sbsg23
I00
sg24
g42
sbsg23
I00
sg24
g42
sbsg7
I5
sg23
I01
sg24
g31
sba(imyEvolve
Tree
p530
(dp531
g7
I2
sg8
(imyEvolve
Tree
p532
(dp533
g7
I1
sg8
(imyEvolve
Tree
p534
(dp535
g7
I0
sg18
F3.429658000257005
sg19
I01
sbsg20
(imyEvolve
Tree
p536
(dp537
g7
I0
sg19
I00
sbsg23
I00
sg24
g25
sbsg20
(imyEvolve
Tree
p538
(dp539
g7
I1
sg8
(imyEvolve
Tree
p540
(dp541
g7
I0
sg18
F-2.6037628509085264
sg19
I01
sbsg20
(imyEvolve
Tree
p542
(dp543
g7
I0
sg19
I00
sbsg23
I00
sg24
g25
sbsg23
I00
sg24
g61
sbaa(lp544
(imyEvolve
Tree
p545
(dp546
g11
(imyEvolve
Tree
p547
(dp548
g11
(imyEvolve
Tree
p549
(dp550
g7
I1
sg8
(imyEvolve
Tree
p551
(dp552
g7
I0
sg19
I00
sbsg20
(imyEvolve
Tree
p553
(dp554
g7
I0
sg18
F-1.8378505707379555
sg19
I01
sbsg23
I00
sg24
g42
sbsg7
I2
sg23
I01
sg24
g54
sbsg7
I3
sg23
I01
sg24
g30
sba(imyEvolve
Tree
p555
(dp556
g11
(imyEvolve
Tree
p557
(dp558
g11
(imyEvolve
Tree
p559
(dp560
g11
(imyEvolve
Tree
p561
(dp562
g11
(imyEvolve
Tree
p563
(dp564
g7
I1
sg8
(imyEvolve
Tree
p565
(dp566
g7
I0
sg19
I00
sbsg20
(imyEvolve
Tree
p567
(dp568
g7
I0
sg19
I00
sbsg23
I00
sg24
g61
sbsg7
I2
sg23
I01
sg24
g31
sbsg7
I3
sg23
I01
sg24
g54
sbsg7
I4
sg23
I01
sg24
g54
sbsg7
I5
sg23
I01
sg24
g54
sba(imyEvolve
Tree
p569
(dp570
g11
(imyEvolve
Tree
p571
(dp572
g11
(imyEvolve
Tree
p573
(dp574
g7
I0
sg18
F-3.7824216336720085
sg19
I01
sbsg7
I1
sg23
I01
sg24
g30
sbsg7
I2
sg23
I01
sg24
g54
sba(imyEvolve
Tree
p575
(dp576
g11
(imyEvolve
Tree
p577
(dp578
g7
I4
sg8
(imyEvolve
Tree
p579
(dp580
g11
(imyEvolve
Tree
p581
(dp582
g11
(imyEvolve
Tree
p583
(dp584
g7
I1
sg8
(imyEvolve
Tree
p585
(dp586
g7
I0
sg18
F-0.2525344999214516
sg19
I01
sbsg20
(imyEvolve
Tree
p587
(dp588
g7
I0
sg18
F-4.98679406145712
sg19
I01
sbsg23
I00
sg24
g25
sbsg7
I2
sg23
I01
sg24
g31
sbsg7
I3
sg23
I01
sg24
g31
sbsg20
(imyEvolve
Tree
p589
(dp590
g7
I3
sg8
(imyEvolve
Tree
p591
(dp592
g11
(imyEvolve
Tree
p593
(dp594
g7
I1
sg8
(imyEvolve
Tree
p595
(dp596
g7
I0
sg18
F-2.550826273066895
sg19
I01
sbsg20
(imyEvolve
Tree
p597
(dp598
g7
I0
sg19
I00
sbsg23
I00
sg24
g42
sbsg7
I2
sg23
I01
sg24
g31
sbsg20
(imyEvolve
Tree
p599
(dp600
g7
I2
sg8
(imyEvolve
Tree
p601
(dp602
g11
(imyEvolve
Tree
p603
(dp604
g7
I0
sg19
I00
sbsg7
I1
sg23
I01
sg24
g43
sbsg20
(imyEvolve
Tree
p605
(dp606
g7
I1
sg8
(imyEvolve
Tree
p607
(dp608
g7
I0
sg19
I00
sbsg20
(imyEvolve
Tree
p609
(dp610
g7
I0
sg19
I00
sbsg23
I00
sg24
g42
sbsg23
I00
sg24
g25
sbsg23
I00
sg24
g42
sbsg23
I00
sg24
g61
sbsg7
I5
sg23
I01
sg24
g54
sba(imyEvolve
Tree
p611
(dp612
g11
(imyEvolve
Tree
p613
(dp614
g11
(imyEvolve
Tree
p615
(dp616
g7
I0
sg19
I00
sbsg7
I1
sg23
I01
sg24
g43
sbsg7
I2
sg23
I01
sg24
g54
sba(imyEvolve
Tree
p617
(dp618
g11
(imyEvolve
Tree
p619
(dp620
g7
I1
sg8
(imyEvolve
Tree
p621
(dp622
g7
I0
sg18
F4.236412428876736
sg19
I01
sbsg20
(imyEvolve
Tree
p623
(dp624
g7
I0
sg19
I00
sbsg23
I00
sg24
g42
sbsg7
I2
sg23
I01
sg24
g31
sba(imyEvolve
Tree
p625
(dp626
g7
I3
sg8
(imyEvolve
Tree
p627
(dp628
g11
(imyEvolve
Tree
p629
(dp630
g11
(imyEvolve
Tree
p631
(dp632
g7
I0
sg19
I00
sbsg7
I1
sg23
I01
sg24
g54
sbsg7
I2
sg23
I01
sg24
g31
sbsg20
(imyEvolve
Tree
p633
(dp634
g11
(imyEvolve
Tree
p635
(dp636
g11
(imyEvolve
Tree
p637
(dp638
g7
I0
sg19
I00
sbsg7
I1
sg23
I01
sg24
g31
sbsg7
I2
sg23
I01
sg24
g31
sbsg23
I00
sg24
g42
sba(imyEvolve
Tree
p639
(dp640
g7
I3
sg8
(imyEvolve
Tree
p641
(dp642
g7
I2
sg8
(imyEvolve
Tree
p643
(dp644
g7
I1
sg8
(imyEvolve
Tree
p645
(dp646
g7
I0
sg19
I00
sbsg20
(imyEvolve
Tree
p647
(dp648
g7
I0
sg18
F3.6047648738645837
sg19
I01
sbsg23
I00
sg24
g42
sbsg20
(imyEvolve
Tree
p649
(dp650
g7
I1
sg8
(imyEvolve
Tree
p651
(dp652
g7
I0
sg18
F4.758906359419646
sg19
I01
sbsg20
(imyEvolve
Tree
p653
(dp654
g7
I0
sg19
I00
sbsg23
I00
sg24
g25
sbsg23
I00
sg24
g42
sbsg20
(imyEvolve
Tree
p655
(dp656
g11
(imyEvolve
Tree
p657
(dp658
g11
(imyEvolve
Tree
p659
(dp660
g7
I0
sg18
F3.364533859207871
sg19
I01
sbsg7
I1
sg23
I01
sg24
g54
sbsg7
I2
sg23
I01
sg24
g30
sbsg23
I00
sg24
g25
sba(imyEvolve
Tree
p661
(dp662
g11
(imyEvolve
Tree
p663
(dp664
g11
(imyEvolve
Tree
p665
(dp666
g11
(imyEvolve
Tree
p667
(dp668
g11
(imyEvolve
Tree
p669
(dp670
g7
I0
sg18
F-1.136856633052572
sg19
I01
sbsg7
I1
sg23
I01
sg24
g30
sbsg7
I2
sg23
I01
sg24
g30
sbsg7
I3
sg23
I01
sg24
g31
sbsg7
I4
sg23
I01
sg24
g30
sba(imyEvolve
Tree
p671
(dp672
g11
(imyEvolve
Tree
p673
(dp674
g11
(imyEvolve
Tree
p675
(dp676
g7
I0
sg19
I00
sbsg7
I1
sg23
I01
sg24
g31
sbsg7
I2
sg23
I01
sg24
g54
sba(imyEvolve
Tree
p677
(dp678
g11
(imyEvolve
Tree
p679
(dp680
g11
(imyEvolve
Tree
p681
(dp682
g11
(imyEvolve
Tree
p683
(dp684
g7
I1
sg8
(imyEvolve
Tree
p685
(dp686
g7
I0
sg19
I00
sbsg20
(imyEvolve
Tree
p687
(dp688
g7
I0
sg19
I00
sbsg23
I00
sg24
g42
sbsg7
I2
sg23
I01
sg24
g54
sbsg7
I3
sg23
I01
sg24
g43
sbsg7
I4
sg23
I01
sg24
g54
sba(imyEvolve
Tree
p689
(dp690
g11
(imyEvolve
Tree
p691
(dp692
g7
I1
sg8
(imyEvolve
Tree
p693
(dp694
g7
I0
sg19
I00
sbsg20
(imyEvolve
Tree
p695
(dp696
g7
I0
sg18
F-2.1285521532943372
sg19
I01
sbsg23
I00
sg24
g25
sbsg7
I2
sg23
I01
sg24
g54
sba(imyEvolve
Tree
p697
(dp698
g7
I3
sg8
(imyEvolve
Tree
p699
(dp700
g11
(imyEvolve
Tree
p701
(dp702
g11
(imyEvolve
Tree
p703
(dp704
g7
I0
sg18
F4.305179450510362
sg19
I01
sbsg7
I1
sg23
I01
sg24
g54
sbsg7
I2
sg23
I01
sg24
g54
sbsg20
(imyEvolve
Tree
p705
(dp706
g11
(imyEvolve
Tree
p707
(dp708
g11
(imyEvolve
Tree
p709
(dp710
g7
I0
sg18
F2.4859140746487407
sg19
I01
sbsg7
I1
sg23
I01
sg24
g31
sbsg7
I2
sg23
I01
sg24
g30
sbsg23
I00
sg24
g61
sba(imyEvolve
Tree
p711
(dp712
g7
I5
sg8
(imyEvolve
Tree
p713
(dp714
g11
(imyEvolve
Tree
p715
(dp716
g7
I3
sg8
(imyEvolve
Tree
p717
(dp718
g11
(imyEvolve
Tree
p719
(dp720
g11
(imyEvolve
Tree
p721
(dp722
g7
I0
sg18
F1.54829594860613
sg19
I01
sbsg7
I1
sg23
I01
sg24
g54
sbsg7
I2
sg23
I01
sg24
g31
sbsg20
(imyEvolve
Tree
p723
(dp724
g11
(imyEvolve
Tree
p725
(dp726
g11
(imyEvolve
Tree
p727
(dp728
g7
I0
sg19
I00
sbsg7
I1
sg23
I01
sg24
g54
sbsg7
I2
sg23
I01
sg24
g31
sbsg23
I00
sg24
g25
sbsg7
I4
sg23
I01
sg24
g43
sbsg20
(imyEvolve
Tree
p729
(dp730
g11
(imyEvolve
Tree
p731
(dp732
g11
(imyEvolve
Tree
p733
(dp734
g7
I2
sg8
(imyEvolve
Tree
p735
(dp736
g11
(imyEvolve
Tree
p737
(dp738
g7
I0
sg18
F-1.1326557739332777
sg19
I01
sbsg7
I1
sg23
I01
sg24
g43
sbsg20
(imyEvolve
Tree
p739
(dp740
g7
I1
sg8
(imyEvolve
Tree
p741
(dp742
g7
I0
sg19
I00
sbsg20
(imyEvolve
Tree
p743
(dp744
g7
I0
sg19
I00
sbsg23
I00
sg24
g61
sbsg23
I00
sg24
g42
sbsg7
I3
sg23
I01
sg24
g30
sbsg7
I4
sg23
I01
sg24
g31
sbsg23
I00
sg24
g61
sba(imyEvolve
Tree
p745
(dp746
g11
(imyEvolve
Tree
p747
(dp748
g11
(imyEvolve
Tree
p749
(dp750
g7
I0
sg19
I00
sbsg7
I1
sg23
I01
sg24
g30
sbsg7
I2
sg23
I01
sg24
g54
sba(imyEvolve
Tree
p751
(dp752
g7
I3
sg8
(imyEvolve
Tree
p753
(dp754
g11
(imyEvolve
Tree
p755
(dp756
g11
(imyEvolve
Tree
p757
(dp758
g7
I0
sg19
I00
sbsg7
I1
sg23
I01
sg24
g43
sbsg7
I2
sg23
I01
sg24
g31
sbsg20
(imyEvolve
Tree
p759
(dp760
g11
(imyEvolve
Tree
p761
(dp762
g11
(imyEvolve
Tree
p763
(dp764
g7
I0
sg18
F-0.5362719394802218
sg19
I01
sbsg7
I1
sg23
I01
sg24
g43
sbsg7
I2
sg23
I01
sg24
g43
sbsg23
I00
sg24
g42
sba(imyEvolve
Tree
p765
(dp766
g7
I4
sg8
(imyEvolve
Tree
p767
(dp768
g11
(imyEvolve
Tree
p769
(dp770
g7
I2
sg8
(imyEvolve
Tree
p771
(dp772
g11
(imyEvolve
Tree
p773
(dp774
g7
I0
sg19
I00
sbsg7
I1
sg23
I01
sg24
g31
sbsg20
(imyEvolve
Tree
p775
(dp776
g11
(imyEvolve
Tree
p777
(dp778
g7
I0
sg19
I00
sbsg7
I1
sg23
I01
sg24
g54
sbsg23
I00
sg24
g61
sbsg7
I3
sg23
I01
sg24
g31
sbsg20
(imyEvolve
Tree
p779
(dp780
g11
(imyEvolve
Tree
p781
(dp782
g7
I2
sg8
(imyEvolve
Tree
p783
(dp784
g11
(imyEvolve
Tree
p785
(dp786
g7
I0
sg19
I00
sbsg7
I1
sg23
I01
sg24
g31
sbsg20
(imyEvolve
Tree
p787
(dp788
g11
(imyEvolve
Tree
p789
(dp790
g7
I0
sg19
I00
sbsg7
I1
sg23
I01
sg24
g43
sbsg23
I00
sg24
g42
sbsg7
I3
sg23
I01
sg24
g43
sbsg23
I00
sg24
g61
sba(imyEvolve
Tree
p791
(dp792
g11
(imyEvolve
Tree
p793
(dp794
g11
(imyEvolve
Tree
p795
(dp796
g11
(imyEvolve
Tree
p797
(dp798
g7
I0
sg18
F4.162170247769058
sg19
I01
sbsg7
I1
sg23
I01
sg24
g43
sbsg7
I2
sg23
I01
sg24
g31
sbsg7
I3
sg23
I01
sg24
g43
sbaasS'weightSharing'
p799
(lp800
I00
aI00
asS'fitnessValid'
p801
I00
sS'fitness'
p802
cnumpy.core.multiarray
scalar
p803
(cnumpy
dtype
p804
(S'f8'
p805
I0
I1
tp806
Rp807
(I3
S'<'
p808
NNNI-1
I-1
I0
tp809
bS'\x00\xcb\x7fH\xf3w`?'
p810
tp811
Rp812
sS'alpha'
p813
F0.007305553562083612
sS'resolution'
p814
I69
sb.