(imyEvolve
Individual
p0
(dp1
S'funcs'
p2
(lp3
(lp4
(imyEvolve
Tree
p5
(dp6
S'below'
p7
(imyEvolve
Tree
p8
(dp9
g7
(imyEvolve
Tree
p10
(dp11
S'depth'
p12
I0
sS'isConstant'
p13
I00
sbsg12
I1
sS'single'
p14
I01
sS'op'
p15
cmath
cos
p16
sbsg12
I2
sg14
I01
sg15
cmath
sin
p17
sba(imyEvolve
Tree
p18
(dp19
S'left'
p20
(imyEvolve
Tree
p21
(dp22
g20
(imyEvolve
Tree
p23
(dp24
g20
(imyEvolve
Tree
p25
(dp26
g7
(imyEvolve
Tree
p27
(dp28
g12
I0
sS'constant'
p29
F-0.914423459473146
sg13
I01
sbsg12
I1
sg14
I01
sg15
cmyEvolve
square
p30
sbsg12
I2
sS'right'
p31
(imyEvolve
Tree
p32
(dp33
g20
(imyEvolve
Tree
p34
(dp35
g12
I0
sg13
I00
sbsg12
I1
sg31
(imyEvolve
Tree
p36
(dp37
g12
I0
sg13
I00
sbsg14
I00
sg15
coperator
mul
p38
sbsg14
I00
sg15
coperator
add
p39
sbsg12
I3
sg31
(imyEvolve
Tree
p40
(dp41
g7
(imyEvolve
Tree
p42
(dp43
g20
(imyEvolve
Tree
p44
(dp45
g12
I0
sg13
I00
sbsg12
I1
sg31
(imyEvolve
Tree
p46
(dp47
g12
I0
sg13
I00
sbsg14
I00
sg15
g38
sbsg12
I2
sg14
I01
sg15
g16
sbsg14
I00
sg15
g38
sbsg12
I4
sg31
(imyEvolve
Tree
p48
(dp49
g20
(imyEvolve
Tree
p50
(dp51
g7
(imyEvolve
Tree
p52
(dp53
g20
(imyEvolve
Tree
p54
(dp55
g12
I0
sg13
I00
sbsg12
I1
sg31
(imyEvolve
Tree
p56
(dp57
g12
I0
sg29
F2.321667585241106
sg13
I01
sbsg14
I00
sg15
g38
sbsg12
I2
sg14
I01
sg15
g17
sbsg12
I3
sg31
(imyEvolve
Tree
p58
(dp59
g7
(imyEvolve
Tree
p60
(dp61
g20
(imyEvolve
Tree
p62
(dp63
g12
I0
sg13
I00
sbsg12
I1
sg31
(imyEvolve
Tree
p64
(dp65
g12
I0
sg13
I00
sbsg14
I00
sg15
g38
sbsg12
I2
sg14
I01
sg15
g30
sbsg14
I00
sg15
g39
sbsg14
I00
sg15
coperator
sub
p66
sba(imyEvolve
Tree
p67
(dp68
g20
(imyEvolve
Tree
p69
(dp70
g20
(imyEvolve
Tree
p71
(dp72
g7
(imyEvolve
Tree
p73
(dp74
g12
I0
sg13
I00
sbsg12
I1
sg14
I01
sg15
g30
sbsg12
I2
sg31
(imyEvolve
Tree
p75
(dp76
g20
(imyEvolve
Tree
p77
(dp78
g12
I0
sg29
F-3.032380191598122
sg13
I01
sbsg12
I1
sg31
(imyEvolve
Tree
p79
(dp80
g12
I0
sg13
I00
sbsg14
I00
sg15
g39
sbsg14
I00
sg15
g39
sbsg12
I3
sg31
(imyEvolve
Tree
p81
(dp82
g7
(imyEvolve
Tree
p83
(dp84
g20
(imyEvolve
Tree
p85
(dp86
g12
I0
sg29
F-1.8707328902086218
sg13
I01
sbsg12
I1
sg31
(imyEvolve
Tree
p87
(dp88
g12
I0
sg13
I00
sbsg14
I00
sg15
g38
sbsg12
I2
sg14
I01
sg15
g16
sbsg14
I00
sg15
g66
sba(imyEvolve
Tree
p89
(dp90
g7
(imyEvolve
Tree
p91
(dp92
g7
(imyEvolve
Tree
p93
(dp94
g12
I0
sg13
I00
sbsg12
I1
sg14
I01
sg15
g17
sbsg12
I2
sg14
I01
sg15
cmyEvolve
absSqrt
p95
sba(imyEvolve
Tree
p96
(dp97
g7
(imyEvolve
Tree
p98
(dp99
g7
(imyEvolve
Tree
p100
(dp101
g7
(imyEvolve
Tree
p102
(dp103
g20
(imyEvolve
Tree
p104
(dp105
g7
(imyEvolve
Tree
p106
(dp107
g12
I0
sg13
I00
sbsg12
I1
sg14
I01
sg15
g17
sbsg12
I2
sg31
(imyEvolve
Tree
p108
(dp109
g20
(imyEvolve
Tree
p110
(dp111
g12
I0
sg13
I00
sbsg12
I1
sg31
(imyEvolve
Tree
p112
(dp113
g12
I0
sg29
F-4.766103049801055
sg13
I01
sbsg14
I00
sg15
g66
sbsg14
I00
sg15
g38
sbsg12
I3
sg14
I01
sg15
g95
sbsg12
I4
sg14
I01
sg15
g30
sbsg12
I5
sg14
I01
sg15
g16
sba(imyEvolve
Tree
p114
(dp115
g20
(imyEvolve
Tree
p116
(dp117
g7
(imyEvolve
Tree
p118
(dp119
g7
(imyEvolve
Tree
p120
(dp121
g12
I0
sg13
I00
sbsg12
I1
sg14
I01
sg15
g30
sbsg12
I2
sg14
I01
sg15
g17
sbsg12
I3
sg31
(imyEvolve
Tree
p122
(dp123
g7
(imyEvolve
Tree
p124
(dp125
g20
(imyEvolve
Tree
p126
(dp127
g12
I0
sg29
F-3.763745197392746
sg13
I01
sbsg12
I1
sg31
(imyEvolve
Tree
p128
(dp129
g12
I0
sg13
I00
sbsg14
I00
sg15
g39
sbsg12
I2
sg14
I01
sg15
g17
sbsg14
I00
sg15
g39
sba(imyEvolve
Tree
p130
(dp131
g12
I3
sg20
(imyEvolve
Tree
p132
(dp133
g12
I2
sg20
(imyEvolve
Tree
p134
(dp135
g7
(imyEvolve
Tree
p136
(dp137
g12
I0
sg13
I00
sbsg12
I1
sg14
I01
sg15
g16
sbsg31
(imyEvolve
Tree
p138
(dp139
g12
I1
sg20
(imyEvolve
Tree
p140
(dp141
g12
I0
sg29
F1.2442463493935039
sg13
I01
sbsg31
(imyEvolve
Tree
p142
(dp143
g12
I0
sg29
F-1.94261484718775
sg13
I01
sbsg14
I00
sg15
g66
sbsg14
I00
sg15
g38
sbsg31
(imyEvolve
Tree
p144
(dp145
g12
I2
sg20
(imyEvolve
Tree
p146
(dp147
g7
(imyEvolve
Tree
p148
(dp149
g12
I0
sg13
I00
sbsg12
I1
sg14
I01
sg15
g95
sbsg31
(imyEvolve
Tree
p150
(dp151
g12
I1
sg20
(imyEvolve
Tree
p152
(dp153
g12
I0
sg13
I00
sbsg31
(imyEvolve
Tree
p154
(dp155
g12
I0
sg13
I00
sbsg14
I00
sg15
g66
sbsg14
I00
sg15
g39
sbsg14
I00
sg15
g38
sba(imyEvolve
Tree
p156
(dp157
g12
I2
sg20
(imyEvolve
Tree
p158
(dp159
g7
(imyEvolve
Tree
p160
(dp161
g12
I0
sg13
I00
sbsg12
I1
sg14
I01
sg15
g16
sbsg31
(imyEvolve
Tree
p162
(dp163
g7
(imyEvolve
Tree
p164
(dp165
g12
I0
sg13
I00
sbsg12
I1
sg14
I01
sg15
g17
sbsg14
I00
sg15
g38
sba(imyEvolve
Tree
p166
(dp167
g20
(imyEvolve
Tree
p168
(dp169
g20
(imyEvolve
Tree
p170
(dp171
g12
I0
sg29
F-0.8599608241347321
sg13
I01
sbsg12
I1
sg31
(imyEvolve
Tree
p172
(dp173
g12
I0
sg29
F-2.8794523240010372
sg13
I01
sbsg14
I00
sg15
g66
sbsg12
I2
sg31
(imyEvolve
Tree
p174
(dp175
g7
(imyEvolve
Tree
p176
(dp177
g12
I0
sg13
I00
sbsg12
I1
sg14
I01
sg15
g95
sbsg14
I00
sg15
g66
sba(imyEvolve
Tree
p178
(dp179
g7
(imyEvolve
Tree
p180
(dp181
g20
(imyEvolve
Tree
p182
(dp183
g7
(imyEvolve
Tree
p184
(dp185
g20
(imyEvolve
Tree
p186
(dp187
g12
I0
sg29
F-3.5783751244498108
sg13
I01
sbsg12
I1
sg31
(imyEvolve
Tree
p188
(dp189
g12
I0
sg29
F2.6726658889832677
sg13
I01
sbsg14
I00
sg15
g38
sbsg12
I2
sg14
I01
sg15
g30
sbsg12
I3
sg31
(imyEvolve
Tree
p190
(dp191
g7
(imyEvolve
Tree
p192
(dp193
g7
(imyEvolve
Tree
p194
(dp195
g12
I0
sg13
I00
sbsg12
I1
sg14
I01
sg15
g95
sbsg12
I2
sg14
I01
sg15
g95
sbsg14
I00
sg15
g66
sbsg12
I4
sg14
I01
sg15
g17
sba(imyEvolve
Tree
p196
(dp197
g7
(imyEvolve
Tree
p198
(dp199
g20
(imyEvolve
Tree
p200
(dp201
g7
(imyEvolve
Tree
p202
(dp203
g20
(imyEvolve
Tree
p204
(dp205
g20
(imyEvolve
Tree
p206
(dp207
g12
I0
sg13
I00
sbsg12
I1
sg31
(imyEvolve
Tree
p208
(dp209
g12
I0
sg29
F-0.06953895828225054
sg13
I01
sbsg14
I00
sg15
g66
sbsg12
I2
sg31
(imyEvolve
Tree
p210
(dp211
g7
(imyEvolve
Tree
p212
(dp213
g12
I0
sg13
I00
sbsg12
I1
sg14
I01
sg15
g17
sbsg14
I00
sg15
g38
sbsg12
I3
sg14
I01
sg15
g30
sbsg12
I4
sg31
(imyEvolve
Tree
p214
(dp215
g7
(imyEvolve
Tree
p216
(dp217
g20
(imyEvolve
Tree
p218
(dp219
g20
(imyEvolve
Tree
p220
(dp221
g12
I0
sg29
F2.48718777464293
sg13
I01
sbsg12
I1
sg31
(imyEvolve
Tree
p222
(dp223
g12
I0
sg29
F2.208156005380709
sg13
I01
sbsg14
I00
sg15
g39
sbsg12
I2
sg31
(imyEvolve
Tree
p224
(dp225
g7
(imyEvolve
Tree
p226
(dp227
g12
I0
sg29
F-1.8756103928723844
sg13
I01
sbsg12
I1
sg14
I01
sg15
g95
sbsg14
I00
sg15
g66
sbsg12
I3
sg14
I01
sg15
g16
sbsg14
I00
sg15
g38
sbsg12
I5
sg14
I01
sg15
g16
sba(imyEvolve
Tree
p228
(dp229
g7
(imyEvolve
Tree
p230
(dp231
g7
(imyEvolve
Tree
p232
(dp233
g12
I2
sg20
(imyEvolve
Tree
p234
(dp235
g12
I1
sg20
(imyEvolve
Tree
p236
(dp237
g12
I0
sg13
I00
sbsg31
(imyEvolve
Tree
p238
(dp239
g12
I0
sg13
I00
sbsg14
I00
sg15
g66
sbsg31
(imyEvolve
Tree
p240
(dp241
g12
I1
sg20
(imyEvolve
Tree
p242
(dp243
g12
I0
sg29
F0.6843962220292079
sg13
I01
sbsg31
(imyEvolve
Tree
p244
(dp245
g12
I0
sg29
F4.167047093284298
sg13
I01
sbsg14
I00
sg15
g66
sbsg14
I00
sg15
g38
sbsg12
I3
sg14
I01
sg15
g17
sbsg12
I4
sg14
I01
sg15
g95
sba(imyEvolve
Tree
p246
(dp247
g20
(imyEvolve
Tree
p248
(dp249
g7
(imyEvolve
Tree
p250
(dp251
g7
(imyEvolve
Tree
p252
(dp253
g7
(imyEvolve
Tree
p254
(dp255
g7
(imyEvolve
Tree
p256
(dp257
g12
I0
sg13
I00
sbsg12
I1
sg14
I01
sg15
g17
sbsg12
I2
sg14
I01
sg15
g95
sbsg12
I3
sg14
I01
sg15
g95
sbsg12
I4
sg14
I01
sg15
g17
sbsg12
I5
sg31
(imyEvolve
Tree
p258
(dp259
g20
(imyEvolve
Tree
p260
(dp261
g20
(imyEvolve
Tree
p262
(dp263
g20
(imyEvolve
Tree
p264
(dp265
g7
(imyEvolve
Tree
p266
(dp267
g12
I0
sg29
F-0.3339038047524001
sg13
I01
sbsg12
I1
sg14
I01
sg15
g30
sbsg12
I2
sg31
(imyEvolve
Tree
p268
(dp269
g7
(imyEvolve
Tree
p270
(dp271
g12
I0
sg13
I00
sbsg12
I1
sg14
I01
sg15
g17
sbsg14
I00
sg15
g66
sbsg12
I3
sg31
(imyEvolve
Tree
p272
(dp273
g7
(imyEvolve
Tree
p274
(dp275
g7
(imyEvolve
Tree
p276
(dp277
g12
I0
sg13
I00
sbsg12
I1
sg14
I01
sg15
g30
sbsg12
I2
sg14
I01
sg15
g30
sbsg14
I00
sg15
g39
sbsg12
I4
sg31
(imyEvolve
Tree
p278
(dp279
g7
(imyEvolve
Tree
p280
(dp281
g20
(imyEvolve
Tree
p282
(dp283
g20
(imyEvolve
Tree
p284
(dp285
g12
I0
sg13
I00
sbsg12
I1
sg31
(imyEvolve
Tree
p286
(dp287
g12
I0
sg13
I00
sbsg14
I00
sg15
g66
sbsg12
I2
sg31
(imyEvolve
Tree
p288
(dp289
g7
(imyEvolve
Tree
p290
(dp291
g12
I0
sg13
I00
sbsg12
I1
sg14
I01
sg15
g95
sbsg14
I00
sg15
g38
sbsg12
I3
sg14
I01
sg15
g17
sbsg14
I00
sg15
g66
sbsg14
I00
sg15
g39
sba(imyEvolve
Tree
p292
(dp293
g12
I4
sg20
(imyEvolve
Tree
p294
(dp295
g7
(imyEvolve
Tree
p296
(dp297
g7
(imyEvolve
Tree
p298
(dp299
g7
(imyEvolve
Tree
p300
(dp301
g12
I0
sg13
I00
sbsg12
I1
sg14
I01
sg15
g30
sbsg12
I2
sg14
I01
sg15
g95
sbsg12
I3
sg14
I01
sg15
g17
sbsg31
(imyEvolve
Tree
p302
(dp303
g12
I3
sg20
(imyEvolve
Tree
p304
(dp305
g12
I2
sg20
(imyEvolve
Tree
p306
(dp307
g12
I1
sg20
(imyEvolve
Tree
p308
(dp309
g12
I0
sg29
F-3.5848770783397077
sg13
I01
sbsg31
(imyEvolve
Tree
p310
(dp311
g12
I0
sg13
I00
sbsg14
I00
sg15
g39
sbsg31
(imyEvolve
Tree
p312
(dp313
g12
I1
sg20
(imyEvolve
Tree
p314
(dp315
g12
I0
sg29
F-4.004985439978464
sg13
I01
sbsg31
(imyEvolve
Tree
p316
(dp317
g12
I0
sg13
I00
sbsg14
I00
sg15
g66
sbsg14
I00
sg15
g39
sbsg31
(imyEvolve
Tree
p318
(dp319
g12
I2
sg20
(imyEvolve
Tree
p320
(dp321
g12
I1
sg20
(imyEvolve
Tree
p322
(dp323
g12
I0
sg29
F0.8053512596697763
sg13
I01
sbsg31
(imyEvolve
Tree
p324
(dp325
g12
I0
sg13
I00
sbsg14
I00
sg15
g39
sbsg31
(imyEvolve
Tree
p326
(dp327
g12
I1
sg20
(imyEvolve
Tree
p328
(dp329
g12
I0
sg29
F-4.180328140478311
sg13
I01
sbsg31
(imyEvolve
Tree
p330
(dp331
g12
I0
sg13
I00
sbsg14
I00
sg15
g66
sbsg14
I00
sg15
g39
sbsg14
I00
sg15
g39
sbsg14
I00
sg15
g38
sba(imyEvolve
Tree
p332
(dp333
g7
(imyEvolve
Tree
p334
(dp335
g7
(imyEvolve
Tree
p336
(dp337
g7
(imyEvolve
Tree
p338
(dp339
g7
(imyEvolve
Tree
p340
(dp341
g12
I0
sg13
I00
sbsg12
I1
sg14
I01
sg15
g30
sbsg12
I2
sg14
I01
sg15
g16
sbsg12
I3
sg14
I01
sg15
g95
sbsg12
I4
sg14
I01
sg15
g16
sbaa(lp342
(imyEvolve
Tree
p343
(dp344
g7
(imyEvolve
Tree
p345
(dp346
g12
I3
sg20
(imyEvolve
Tree
p347
(dp348
g12
I2
sg20
(imyEvolve
Tree
p349
(dp350
g12
I1
sg20
(imyEvolve
Tree
p351
(dp352
g12
I0
sg29
F-0.4310068129840534
sg13
I01
sbsg31
(imyEvolve
Tree
p353
(dp354
g12
I0
sg29
F0.7163779637517242
sg13
I01
sbsg14
I00
sg15
g66
sbsg31
(imyEvolve
Tree
p355
(dp356
g12
I1
sg20
(imyEvolve
Tree
p357
(dp358
g12
I0
sg13
I00
sbsg31
(imyEvolve
Tree
p359
(dp360
g12
I0
sg29
F4.7980978865759525
sg13
I01
sbsg14
I00
sg15
g38
sbsg14
I00
sg15
g38
sbsg31
(imyEvolve
Tree
p361
(dp362
g12
I2
sg20
(imyEvolve
Tree
p363
(dp364
g12
I1
sg20
(imyEvolve
Tree
p365
(dp366
g12
I0
sg13
I00
sbsg31
(imyEvolve
Tree
p367
(dp368
g12
I0
sg13
I00
sbsg14
I00
sg15
g38
sbsg31
(imyEvolve
Tree
p369
(dp370
g7
(imyEvolve
Tree
p371
(dp372
g12
I0
sg13
I00
sbsg12
I1
sg14
I01
sg15
g95
sbsg14
I00
sg15
g39
sbsg14
I00
sg15
g66
sbsg12
I4
sg14
I01
sg15
g95
sba(imyEvolve
Tree
p373
(dp374
g7
(imyEvolve
Tree
p375
(dp376
g7
(imyEvolve
Tree
p377
(dp378
g12
I0
sg29
F4.321177834217041
sg13
I01
sbsg12
I1
sg14
I01
sg15
g17
sbsg12
I2
sg14
I01
sg15
g16
sba(imyEvolve
Tree
p379
(dp380
g7
(imyEvolve
Tree
p381
(dp382
g12
I3
sg20
(imyEvolve
Tree
p383
(dp384
g7
(imyEvolve
Tree
p385
(dp386
g12
I1
sg20
(imyEvolve
Tree
p387
(dp388
g12
I0
sg13
I00
sbsg31
(imyEvolve
Tree
p389
(dp390
g12
I0
sg29
F-0.6717938301489177
sg13
I01
sbsg14
I00
sg15
g38
sbsg12
I2
sg14
I01
sg15
g17
sbsg31
(imyEvolve
Tree
p391
(dp392
g7
(imyEvolve
Tree
p393
(dp394
g12
I1
sg20
(imyEvolve
Tree
p395
(dp396
g12
I0
sg29
F0.2196587475952141
sg13
I01
sbsg31
(imyEvolve
Tree
p397
(dp398
g12
I0
sg13
I00
sbsg14
I00
sg15
g38
sbsg12
I2
sg14
I01
sg15
g17
sbsg14
I00
sg15
g66
sbsg12
I4
sg14
I01
sg15
g16
sba(imyEvolve
Tree
p399
(dp400
g12
I2
sg20
(imyEvolve
Tree
p401
(dp402
g7
(imyEvolve
Tree
p403
(dp404
g12
I0
sg29
F4.2306337872962665
sg13
I01
sbsg12
I1
sg14
I01
sg15
g30
sbsg31
(imyEvolve
Tree
p405
(dp406
g7
(imyEvolve
Tree
p407
(dp408
g12
I0
sg13
I00
sbsg12
I1
sg14
I01
sg15
g30
sbsg14
I00
sg15
g38
sba(imyEvolve
Tree
p409
(dp410
g20
(imyEvolve
Tree
p411
(dp412
g20
(imyEvolve
Tree
p413
(dp414
g12
I0
sg13
I00
sbsg12
I1
sg31
(imyEvolve
Tree
p415
(dp416
g12
I0
sg29
F-4.5864258147774075
sg13
I01
sbsg14
I00
sg15
g39
sbsg12
I2
sg31
(imyEvolve
Tree
p417
(dp418
g7
(imyEvolve
Tree
p419
(dp420
g12
I0
sg29
F-3.8022819772201077
sg13
I01
sbsg12
I1
sg14
I01
sg15
g30
sbsg14
I00
sg15
g66
sba(imyEvolve
Tree
p421
(dp422
g7
(imyEvolve
Tree
p423
(dp424
g7
(imyEvolve
Tree
p425
(dp426
g20
(imyEvolve
Tree
p427
(dp428
g7
(imyEvolve
Tree
p429
(dp430
g20
(imyEvolve
Tree
p431
(dp432
g12
I0
sg13
I00
sbsg12
I1
sg31
(imyEvolve
Tree
p433
(dp434
g12
I0
sg13
I00
sbsg14
I00
sg15
g66
sbsg12
I2
sg14
I01
sg15
g17
sbsg12
I3
sg31
(imyEvolve
Tree
p435
(dp436
g7
(imyEvolve
Tree
p437
(dp438
g7
(imyEvolve
Tree
p439
(dp440
g12
I0
sg13
I00
sbsg12
I1
sg14
I01
sg15
g30
sbsg12
I2
sg14
I01
sg15
g17
sbsg14
I00
sg15
g66
sbsg12
I4
sg14
I01
sg15
g95
sbsg12
I5
sg14
I01
sg15
g95
sba(imyEvolve
Tree
p441
(dp442
g20
(imyEvolve
Tree
p443
(dp444
g7
(imyEvolve
Tree
p445
(dp446
g7
(imyEvolve
Tree
p447
(dp448
g12
I0
sg29
F1.1680864695411666
sg13
I01
sbsg12
I1
sg14
I01
sg15
g16
sbsg12
I2
sg14
I01
sg15
g30
sbsg12
I3
sg31
(imyEvolve
Tree
p449
(dp450
g7
(imyEvolve
Tree
p451
(dp452
g7
(imyEvolve
Tree
p453
(dp454
g12
I0
sg13
I00
sbsg12
I1
sg14
I01
sg15
g95
sbsg12
I2
sg14
I01
sg15
g16
sbsg14
I00
sg15
g66
sba(imyEvolve
Tree
p455
(dp456
g12
I3
sg20
(imyEvolve
Tree
p457
(dp458
g12
I2
sg20
(imyEvolve
Tree
p459
(dp460
g7
(imyEvolve
Tree
p461
(dp462
g12
I0
sg29
F4.772439927549932
sg13
I01
sbsg12
I1
sg14
I01
sg15
g95
sbsg31
(imyEvolve
Tree
p463
(dp464
g7
(imyEvolve
Tree
p465
(dp466
g12
I0
sg29
F1.0629498239068464
sg13
I01
sbsg12
I1
sg14
I01
sg15
g30
sbsg14
I00
sg15
g39
sbsg31
(imyEvolve
Tree
p467
(dp468
g7
(imyEvolve
Tree
p469
(dp470
g7
(imyEvolve
Tree
p471
(dp472
g12
I0
sg29
F-3.7472824904943733
sg13
I01
sbsg12
I1
sg14
I01
sg15
g17
sbsg12
I2
sg14
I01
sg15
g95
sbsg14
I00
sg15
g39
sba(imyEvolve
Tree
p473
(dp474
g7
(imyEvolve
Tree
p475
(dp476
g20
(imyEvolve
Tree
p477
(dp478
g7
(imyEvolve
Tree
p479
(dp480
g7
(imyEvolve
Tree
p481
(dp482
g20
(imyEvolve
Tree
p483
(dp484
g12
I0
sg13
I00
sbsg12
I1
sg31
(imyEvolve
Tree
p485
(dp486
g12
I0
sg13
I00
sbsg14
I00
sg15
g66
sbsg12
I2
sg14
I01
sg15
g16
sbsg12
I3
sg14
I01
sg15
g95
sbsg12
I4
sg31
(imyEvolve
Tree
p487
(dp488
g20
(imyEvolve
Tree
p489
(dp490
g20
(imyEvolve
Tree
p491
(dp492
g20
(imyEvolve
Tree
p493
(dp494
g12
I0
sg13
I00
sbsg12
I1
sg31
(imyEvolve
Tree
p495
(dp496
g12
I0
sg29
F1.742286706766051
sg13
I01
sbsg14
I00
sg15
g38
sbsg12
I2
sg31
(imyEvolve
Tree
p497
(dp498
g7
(imyEvolve
Tree
p499
(dp500
g12
I0
sg29
F-1.2066092056768971
sg13
I01
sbsg12
I1
sg14
I01
sg15
g95
sbsg14
I00
sg15
g39
sbsg12
I3
sg31
(imyEvolve
Tree
p501
(dp502
g7
(imyEvolve
Tree
p503
(dp504
g7
(imyEvolve
Tree
p505
(dp506
g12
I0
sg29
F-3.9375053448004307
sg13
I01
sbsg12
I1
sg14
I01
sg15
g16
sbsg12
I2
sg14
I01
sg15
g30
sbsg14
I00
sg15
g38
sbsg14
I00
sg15
g66
sbsg12
I5
sg14
I01
sg15
g16
sba(imyEvolve
Tree
p507
(dp508
g20
(imyEvolve
Tree
p509
(dp510
g20
(imyEvolve
Tree
p511
(dp512
g20
(imyEvolve
Tree
p513
(dp514
g7
(imyEvolve
Tree
p515
(dp516
g12
I0
sg13
I00
sbsg12
I1
sg14
I01
sg15
g30
sbsg12
I2
sg31
(imyEvolve
Tree
p517
(dp518
g7
(imyEvolve
Tree
p519
(dp520
g12
I0
sg13
I00
sbsg12
I1
sg14
I01
sg15
g17
sbsg14
I00
sg15
g39
sbsg12
I3
sg31
(imyEvolve
Tree
p521
(dp522
g20
(imyEvolve
Tree
p523
(dp524
g20
(imyEvolve
Tree
p525
(dp526
g12
I0
sg29
F4.589783532565184
sg13
I01
sbsg12
I1
sg31
(imyEvolve
Tree
p527
(dp528
g12
I0
sg29
F4.506355044068233
sg13
I01
sbsg14
I00
sg15
g66
sbsg12
I2
sg31
(imyEvolve
Tree
p529
(dp530
g20
(imyEvolve
Tree
p531
(dp532
g12
I0
sg29
F0.3966439209885406
sg13
I01
sbsg12
I1
sg31
(imyEvolve
Tree
p533
(dp534
g12
I0
sg29
F-1.1413834172911197
sg13
I01
sbsg14
I00
sg15
g66
sbsg14
I00
sg15
g66
sbsg14
I00
sg15
g66
sbsg12
I4
sg31
(imyEvolve
Tree
p535
(dp536
g7
(imyEvolve
Tree
p537
(dp538
g20
(imyEvolve
Tree
p539
(dp540
g20
(imyEvolve
Tree
p541
(dp542
g12
I0
sg13
I00
sbsg12
I1
sg31
(imyEvolve
Tree
p543
(dp544
g12
I0
sg13
I00
sbsg14
I00
sg15
g39
sbsg12
I2
sg31
(imyEvolve
Tree
p545
(dp546
g20
(imyEvolve
Tree
p547
(dp548
g12
I0
sg29
F-4.176226819191146
sg13
I01
sbsg12
I1
sg31
(imyEvolve
Tree
p549
(dp550
g12
I0
sg29
F-3.072843717746844
sg13
I01
sbsg14
I00
sg15
g39
sbsg14
I00
sg15
g39
sbsg12
I3
sg14
I01
sg15
g30
sbsg14
I00
sg15
g38
sba(imyEvolve
Tree
p551
(dp552
g7
(imyEvolve
Tree
p553
(dp554
g7
(imyEvolve
Tree
p555
(dp556
g12
I0
sg13
I00
sbsg12
I1
sg14
I01
sg15
g17
sbsg12
I2
sg14
I01
sg15
g95
sba(imyEvolve
Tree
p557
(dp558
g20
(imyEvolve
Tree
p559
(dp560
g7
(imyEvolve
Tree
p561
(dp562
g20
(imyEvolve
Tree
p563
(dp564
g12
I0
sg29
F2.321494126619731
sg13
I01
sbsg12
I1
sg31
(imyEvolve
Tree
p565
(dp566
g12
I0
sg13
I00
sbsg14
I00
sg15
g38
sbsg12
I2
sg14
I01
sg15
g30
sbsg12
I3
sg31
(imyEvolve
Tree
p567
(dp568
g20
(imyEvolve
Tree
p569
(dp570
g20
(imyEvolve
Tree
p571
(dp572
g12
I0
sg29
F4.146970879339333
sg13
I01
sbsg12
I1
sg31
(imyEvolve
Tree
p573
(dp574
g12
I0
sg13
I00
sbsg14
I00
sg15
g66
sbsg12
I2
sg31
(imyEvolve
Tree
p575
(dp576
g20
(imyEvolve
Tree
p577
(dp578
g12
I0
sg13
I00
sbsg12
I1
sg31
(imyEvolve
Tree
p579
(dp580
g12
I0
sg13
I00
sbsg14
I00
sg15
g39
sbsg14
I00
sg15
g39
sbsg14
I00
sg15
g38
sba(imyEvolve
Tree
p581
(dp582
g7
(imyEvolve
Tree
p583
(dp584
g20
(imyEvolve
Tree
p585
(dp586
g7
(imyEvolve
Tree
p587
(dp588
g20
(imyEvolve
Tree
p589
(dp590
g20
(imyEvolve
Tree
p591
(dp592
g12
I0
sg29
F0.5511436931047857
sg13
I01
sbsg12
I1
sg31
(imyEvolve
Tree
p593
(dp594
g12
I0
sg29
F-2.5696910390620054
sg13
I01
sbsg14
I00
sg15
g66
sbsg12
I2
sg31
(imyEvolve
Tree
p595
(dp596
g7
(imyEvolve
Tree
p597
(dp598
g12
I0
sg29
F-0.5505085284148006
sg13
I01
sbsg12
I1
sg14
I01
sg15
g30
sbsg14
I00
sg15
g66
sbsg12
I3
sg14
I01
sg15
g30
sbsg12
I4
sg31
(imyEvolve
Tree
p599
(dp600
g7
(imyEvolve
Tree
p601
(dp602
g20
(imyEvolve
Tree
p603
(dp604
g20
(imyEvolve
Tree
p605
(dp606
g12
I0
sg13
I00
sbsg12
I1
sg31
(imyEvolve
Tree
p607
(dp608
g12
I0
sg29
F1.4226051635491297
sg13
I01
sbsg14
I00
sg15
g66
sbsg12
I2
sg31
(imyEvolve
Tree
p609
(dp610
g7
(imyEvolve
Tree
p611
(dp612
g12
I0
sg29
F-0.5949524360961753
sg13
I01
sbsg12
I1
sg14
I01
sg15
g95
sbsg14
I00
sg15
g39
sbsg12
I3
sg14
I01
sg15
g16
sbsg14
I00
sg15
g39
sbsg12
I5
sg14
I01
sg15
g16
sba(imyEvolve
Tree
p613
(dp614
g12
I3
sg20
(imyEvolve
Tree
p615
(dp616
g7
(imyEvolve
Tree
p617
(dp618
g7
(imyEvolve
Tree
p619
(dp620
g12
I0
sg29
F-3.410044833923098
sg13
I01
sbsg12
I1
sg14
I01
sg15
g95
sbsg12
I2
sg14
I01
sg15
g95
sbsg31
(imyEvolve
Tree
p621
(dp622
g12
I2
sg20
(imyEvolve
Tree
p623
(dp624
g12
I1
sg20
(imyEvolve
Tree
p625
(dp626
g12
I0
sg13
I00
sbsg31
(imyEvolve
Tree
p627
(dp628
g12
I0
sg29
F2.9710987483895677
sg13
I01
sbsg14
I00
sg15
g66
sbsg31
(imyEvolve
Tree
p629
(dp630
g7
(imyEvolve
Tree
p631
(dp632
g12
I0
sg29
F-3.8287816146465303
sg13
I01
sbsg12
I1
sg14
I01
sg15
g16
sbsg14
I00
sg15
g38
sbsg14
I00
sg15
g66
sba(imyEvolve
Tree
p633
(dp634
g7
(imyEvolve
Tree
p635
(dp636
g20
(imyEvolve
Tree
p637
(dp638
g7
(imyEvolve
Tree
p639
(dp640
g7
(imyEvolve
Tree
p641
(dp642
g12
I0
sg13
I00
sbsg12
I1
sg14
I01
sg15
g16
sbsg12
I2
sg14
I01
sg15
g17
sbsg12
I3
sg31
(imyEvolve
Tree
p643
(dp644
g7
(imyEvolve
Tree
p645
(dp646
g20
(imyEvolve
Tree
p647
(dp648
g12
I0
sg29
F0.9613984775954334
sg13
I01
sbsg12
I1
sg31
(imyEvolve
Tree
p649
(dp650
g12
I0
sg29
F-3.4249081922598146
sg13
I01
sbsg14
I00
sg15
g39
sbsg12
I2
sg14
I01
sg15
g95
sbsg14
I00
sg15
g38
sbsg12
I4
sg14
I01
sg15
g16
sbaa(lp651
(imyEvolve
Tree
p652
(dp653
g12
I5
sg20
(imyEvolve
Tree
p654
(dp655
g12
I4
sg20
(imyEvolve
Tree
p656
(dp657
g7
(imyEvolve
Tree
p658
(dp659
g12
I2
sg20
(imyEvolve
Tree
p660
(dp661
g12
I1
sg20
(imyEvolve
Tree
p662
(dp663
g12
I0
sg29
F3.755393189668162
sg13
I01
sbsg31
(imyEvolve
Tree
p664
(dp665
g12
I0
sg29
F4.687686560140742
sg13
I01
sbsg14
I00
sg15
g38
sbsg31
(imyEvolve
Tree
p666
(dp667
g12
I1
sg20
(imyEvolve
Tree
p668
(dp669
g12
I0
sg13
I00
sbsg31
(imyEvolve
Tree
p670
(dp671
g12
I0
sg29
F-0.9872539060301291
sg13
I01
sbsg14
I00
sg15
g66
sbsg14
I00
sg15
g39
sbsg12
I3
sg14
I01
sg15
g16
sbsg31
(imyEvolve
Tree
p672
(dp673
g12
I3
sg20
(imyEvolve
Tree
p674
(dp675
g12
I2
sg20
(imyEvolve
Tree
p676
(dp677
g7
(imyEvolve
Tree
p678
(dp679
g12
I0
sg29
F-1.7942659891614898
sg13
I01
sbsg12
I1
sg14
I01
sg15
g17
sbsg31
(imyEvolve
Tree
p680
(dp681
g12
I1
sg20
(imyEvolve
Tree
p682
(dp683
g12
I0
sg13
I00
sbsg31
(imyEvolve
Tree
p684
(dp685
g12
I0
sg13
I00
sbsg14
I00
sg15
g66
sbsg14
I00
sg15
g39
sbsg31
(imyEvolve
Tree
p686
(dp687
g7
(imyEvolve
Tree
p688
(dp689
g7
(imyEvolve
Tree
p690
(dp691
g12
I0
sg29
F1.7686029856886094
sg13
I01
sbsg12
I1
sg14
I01
sg15
g30
sbsg12
I2
sg14
I01
sg15
g30
sbsg14
I00
sg15
g39
sbsg14
I00
sg15
g38
sbsg31
(imyEvolve
Tree
p692
(dp693
g12
I4
sg20
(imyEvolve
Tree
p694
(dp695
g7
(imyEvolve
Tree
p696
(dp697
g12
I2
sg20
(imyEvolve
Tree
p698
(dp699
g12
I1
sg20
(imyEvolve
Tree
p700
(dp701
g12
I0
sg29
F-4.2707593251286715
sg13
I01
sbsg31
(imyEvolve
Tree
p702
(dp703
g12
I0
sg29
F-0.7313155999088616
sg13
I01
sbsg14
I00
sg15
g38
sbsg31
(imyEvolve
Tree
p704
(dp705
g12
I1
sg20
(imyEvolve
Tree
p706
(dp707
g12
I0
sg13
I00
sbsg31
(imyEvolve
Tree
p708
(dp709
g12
I0
sg29
F4.916958077071975
sg13
I01
sbsg14
I00
sg15
g39
sbsg14
I00
sg15
g38
sbsg12
I3
sg14
I01
sg15
g17
sbsg31
(imyEvolve
Tree
p710
(dp711
g12
I3
sg20
(imyEvolve
Tree
p712
(dp713
g12
I2
sg20
(imyEvolve
Tree
p714
(dp715
g7
(imyEvolve
Tree
p716
(dp717
g12
I0
sg13
I00
sbsg12
I1
sg14
I01
sg15
g17
sbsg31
(imyEvolve
Tree
p718
(dp719
g7
(imyEvolve
Tree
p720
(dp721
g12
I0
sg13
I00
sbsg12
I1
sg14
I01
sg15
g16
sbsg14
I00
sg15
g38
sbsg31
(imyEvolve
Tree
p722
(dp723
g12
I2
sg20
(imyEvolve
Tree
p724
(dp725
g7
(imyEvolve
Tree
p726
(dp727
g12
I0
sg13
I00
sbsg12
I1
sg14
I01
sg15
g30
sbsg31
(imyEvolve
Tree
p728
(dp729
g12
I1
sg20
(imyEvolve
Tree
p730
(dp731
g12
I0
sg29
F-3.9426004712618212
sg13
I01
sbsg31
(imyEvolve
Tree
p732
(dp733
g12
I0
sg29
F2.5157181507261104
sg13
I01
sbsg14
I00
sg15
g38
sbsg14
I00
sg15
g38
sbsg14
I00
sg15
g39
sbsg14
I00
sg15
g39
sbsg14
I00
sg15
g39
sba(imyEvolve
Tree
p734
(dp735
g20
(imyEvolve
Tree
p736
(dp737
g20
(imyEvolve
Tree
p738
(dp739
g7
(imyEvolve
Tree
p740
(dp741
g20
(imyEvolve
Tree
p742
(dp743
g12
I0
sg29
F4.823466157757888
sg13
I01
sbsg12
I1
sg31
(imyEvolve
Tree
p744
(dp745
g12
I0
sg29
F3.8941421413643713
sg13
I01
sbsg14
I00
sg15
g66
sbsg12
I2
sg14
I01
sg15
g30
sbsg12
I3
sg31
(imyEvolve
Tree
p746
(dp747
g20
(imyEvolve
Tree
p748
(dp749
g20
(imyEvolve
Tree
p750
(dp751
g12
I0
sg29
F1.6769526554327472
sg13
I01
sbsg12
I1
sg31
(imyEvolve
Tree
p752
(dp753
g12
I0
sg13
I00
sbsg14
I00
sg15
g38
sbsg12
I2
sg31
(imyEvolve
Tree
p754
(dp755
g20
(imyEvolve
Tree
p756
(dp757
g12
I0
sg29
F-4.316563486242328
sg13
I01
sbsg12
I1
sg31
(imyEvolve
Tree
p758
(dp759
g12
I0
sg13
I00
sbsg14
I00
sg15
g66
sbsg14
I00
sg15
g38
sbsg14
I00
sg15
g66
sbsg12
I4
sg31
(imyEvolve
Tree
p760
(dp761
g20
(imyEvolve
Tree
p762
(dp763
g7
(imyEvolve
Tree
p764
(dp765
g7
(imyEvolve
Tree
p766
(dp767
g12
I0
sg29
F0.02888294946121661
sg13
I01
sbsg12
I1
sg14
I01
sg15
g16
sbsg12
I2
sg14
I01
sg15
g95
sbsg12
I3
sg31
(imyEvolve
Tree
p768
(dp769
g20
(imyEvolve
Tree
p770
(dp771
g7
(imyEvolve
Tree
p772
(dp773
g12
I0
sg13
I00
sbsg12
I1
sg14
I01
sg15
g16
sbsg12
I2
sg31
(imyEvolve
Tree
p774
(dp775
g20
(imyEvolve
Tree
p776
(dp777
g12
I0
sg29
F4.457041230329866
sg13
I01
sbsg12
I1
sg31
(imyEvolve
Tree
p778
(dp779
g12
I0
sg29
F-4.75218491494917
sg13
I01
sbsg14
I00
sg15
g39
sbsg14
I00
sg15
g66
sbsg14
I00
sg15
g38
sbsg14
I00
sg15
g66
sba(imyEvolve
Tree
p780
(dp781
g20
(imyEvolve
Tree
p782
(dp783
g20
(imyEvolve
Tree
p784
(dp785
g20
(imyEvolve
Tree
p786
(dp787
g7
(imyEvolve
Tree
p788
(dp789
g12
I0
sg13
I00
sbsg12
I1
sg14
I01
sg15
g30
sbsg12
I2
sg31
(imyEvolve
Tree
p790
(dp791
g20
(imyEvolve
Tree
p792
(dp793
g12
I0
sg29
F-1.8699062492470464
sg13
I01
sbsg12
I1
sg31
(imyEvolve
Tree
p794
(dp795
g12
I0
sg13
I00
sbsg14
I00
sg15
g38
sbsg14
I00
sg15
g39
sbsg12
I3
sg31
(imyEvolve
Tree
p796
(dp797
g20
(imyEvolve
Tree
p798
(dp799
g7
(imyEvolve
Tree
p800
(dp801
g12
I0
sg29
F-0.9706739731235059
sg13
I01
sbsg12
I1
sg14
I01
sg15
g17
sbsg12
I2
sg31
(imyEvolve
Tree
p802
(dp803
g20
(imyEvolve
Tree
p804
(dp805
g12
I0
sg29
F-1.2260746446701107
sg13
I01
sbsg12
I1
sg31
(imyEvolve
Tree
p806
(dp807
g12
I0
sg13
I00
sbsg14
I00
sg15
g39
sbsg14
I00
sg15
g38
sbsg14
I00
sg15
g39
sbsg12
I4
sg31
(imyEvolve
Tree
p808
(dp809
g20
(imyEvolve
Tree
p810
(dp811
g20
(imyEvolve
Tree
p812
(dp813
g7
(imyEvolve
Tree
p814
(dp815
g12
I0
sg29
F-4.53896893297225
sg13
I01
sbsg12
I1
sg14
I01
sg15
g16
sbsg12
I2
sg31
(imyEvolve
Tree
p816
(dp817
g20
(imyEvolve
Tree
p818
(dp819
g12
I0
sg29
F3.450327230920987
sg13
I01
sbsg12
I1
sg31
(imyEvolve
Tree
p820
(dp821
g12
I0
sg13
I00
sbsg14
I00
sg15
g66
sbsg14
I00
sg15
g38
sbsg12
I3
sg31
(imyEvolve
Tree
p822
(dp823
g7
(imyEvolve
Tree
p824
(dp825
g20
(imyEvolve
Tree
p826
(dp827
g12
I0
sg13
I00
sbsg12
I1
sg31
(imyEvolve
Tree
p828
(dp829
g12
I0
sg29
F-2.9796109169103016
sg13
I01
sbsg14
I00
sg15
g66
sbsg12
I2
sg14
I01
sg15
g95
sbsg14
I00
sg15
g38
sbsg14
I00
sg15
g39
sba(imyEvolve
Tree
p830
(dp831
g12
I2
sg20
(imyEvolve
Tree
p832
(dp833
g12
I1
sg20
(imyEvolve
Tree
p834
(dp835
g12
I0
sg29
F0.005979729453018834
sg13
I01
sbsg31
(imyEvolve
Tree
p836
(dp837
g12
I0
sg29
F4.429927385384646
sg13
I01
sbsg14
I00
sg15
g66
sbsg31
(imyEvolve
Tree
p838
(dp839
g7
(imyEvolve
Tree
p840
(dp841
g12
I0
sg29
F0.5023015492868961
sg13
I01
sbsg12
I1
sg14
I01
sg15
g16
sbsg14
I00
sg15
g39
sba(imyEvolve
Tree
p842
(dp843
g12
I4
sg20
(imyEvolve
Tree
p844
(dp845
g7
(imyEvolve
Tree
p846
(dp847
g12
I2
sg20
(imyEvolve
Tree
p848
(dp849
g12
I1
sg20
(imyEvolve
Tree
p850
(dp851
g12
I0
sg29
F-4.559917304466814
sg13
I01
sbsg31
(imyEvolve
Tree
p852
(dp853
g12
I0
sg29
F2.527296050684633
sg13
I01
sbsg14
I00
sg15
g66
sbsg31
(imyEvolve
Tree
p854
(dp855
g12
I1
sg20
(imyEvolve
Tree
p856
(dp857
g12
I0
sg29
F0.44042478061879997
sg13
I01
sbsg31
(imyEvolve
Tree
p858
(dp859
g12
I0
sg29
F-4.694955517165207
sg13
I01
sbsg14
I00
sg15
g39
sbsg14
I00
sg15
g66
sbsg12
I3
sg14
I01
sg15
g30
sbsg31
(imyEvolve
Tree
p860
(dp861
g12
I3
sg20
(imyEvolve
Tree
p862
(dp863
g7
(imyEvolve
Tree
p864
(dp865
g12
I1
sg20
(imyEvolve
Tree
p866
(dp867
g12
I0
sg29
F0.3055383998179897
sg13
I01
sbsg31
(imyEvolve
Tree
p868
(dp869
g12
I0
sg29
F2.5544210451816873
sg13
I01
sbsg14
I00
sg15
g38
sbsg12
I2
sg14
I01
sg15
g16
sbsg31
(imyEvolve
Tree
p870
(dp871
g7
(imyEvolve
Tree
p872
(dp873
g12
I1
sg20
(imyEvolve
Tree
p874
(dp875
g12
I0
sg29
F-0.7279810200667027
sg13
I01
sbsg31
(imyEvolve
Tree
p876
(dp877
g12
I0
sg13
I00
sbsg14
I00
sg15
g66
sbsg12
I2
sg14
I01
sg15
g95
sbsg14
I00
sg15
g38
sbsg14
I00
sg15
g66
sba(imyEvolve
Tree
p878
(dp879
g7
(imyEvolve
Tree
p880
(dp881
g7
(imyEvolve
Tree
p882
(dp883
g12
I3
sg20
(imyEvolve
Tree
p884
(dp885
g12
I2
sg20
(imyEvolve
Tree
p886
(dp887
g12
I1
sg20
(imyEvolve
Tree
p888
(dp889
g12
I0
sg13
I00
sbsg31
(imyEvolve
Tree
p890
(dp891
g12
I0
sg29
F2.8199115843498355
sg13
I01
sbsg14
I00
sg15
g66
sbsg31
(imyEvolve
Tree
p892
(dp893
g12
I1
sg20
(imyEvolve
Tree
p894
(dp895
g12
I0
sg13
I00
sbsg31
(imyEvolve
Tree
p896
(dp897
g12
I0
sg13
I00
sbsg14
I00
sg15
g39
sbsg14
I00
sg15
g38
sbsg31
(imyEvolve
Tree
p898
(dp899
g12
I2
sg20
(imyEvolve
Tree
p900
(dp901
g12
I1
sg20
(imyEvolve
Tree
p902
(dp903
g12
I0
sg29
F3.6212274365592787
sg13
I01
sbsg31
(imyEvolve
Tree
p904
(dp905
g12
I0
sg13
I00
sbsg14
I00
sg15
g38
sbsg31
(imyEvolve
Tree
p906
(dp907
g7
(imyEvolve
Tree
p908
(dp909
g12
I0
sg29
F0.7478496819794707
sg13
I01
sbsg12
I1
sg14
I01
sg15
g16
sbsg14
I00
sg15
g39
sbsg14
I00
sg15
g38
sbsg12
I4
sg14
I01
sg15
g16
sbsg12
I5
sg14
I01
sg15
g17
sba(imyEvolve
Tree
p910
(dp911
g7
(imyEvolve
Tree
p912
(dp913
g12
I4
sg20
(imyEvolve
Tree
p914
(dp915
g12
I3
sg20
(imyEvolve
Tree
p916
(dp917
g7
(imyEvolve
Tree
p918
(dp919
g7
(imyEvolve
Tree
p920
(dp921
g12
I0
sg29
F-3.2353728412002636
sg13
I01
sbsg12
I1
sg14
I01
sg15
g17
sbsg12
I2
sg14
I01
sg15
g16
sbsg31
(imyEvolve
Tree
p922
(dp923
g12
I2
sg20
(imyEvolve
Tree
p924
(dp925
g7
(imyEvolve
Tree
p926
(dp927
g12
I0
sg29
F0.7015499360147395
sg13
I01
sbsg12
I1
sg14
I01
sg15
g30
sbsg31
(imyEvolve
Tree
p928
(dp929
g12
I1
sg20
(imyEvolve
Tree
p930
(dp931
g12
I0
sg13
I00
sbsg31
(imyEvolve
Tree
p932
(dp933
g12
I0
sg13
I00
sbsg14
I00
sg15
g38
sbsg14
I00
sg15
g38
sbsg14
I00
sg15
g39
sbsg31
(imyEvolve
Tree
p934
(dp935
g12
I3
sg20
(imyEvolve
Tree
p936
(dp937
g12
I2
sg20
(imyEvolve
Tree
p938
(dp939
g12
I1
sg20
(imyEvolve
Tree
p940
(dp941
g12
I0
sg29
F0.9448952479636681
sg13
I01
sbsg31
(imyEvolve
Tree
p942
(dp943
g12
I0
sg29
F3.786584447482305
sg13
I01
sbsg14
I00
sg15
g39
sbsg31
(imyEvolve
Tree
p944
(dp945
g7
(imyEvolve
Tree
p946
(dp947
g12
I0
sg29
F-3.7663184193898513
sg13
I01
sbsg12
I1
sg14
I01
sg15
g17
sbsg14
I00
sg15
g66
sbsg31
(imyEvolve
Tree
p948
(dp949
g7
(imyEvolve
Tree
p950
(dp951
g7
(imyEvolve
Tree
p952
(dp953
g12
I0
sg13
I00
sbsg12
I1
sg14
I01
sg15
g17
sbsg12
I2
sg14
I01
sg15
g16
sbsg14
I00
sg15
g39
sbsg14
I00
sg15
g39
sbsg12
I5
sg14
I01
sg15
g30
sba(imyEvolve
Tree
p954
(dp955
g7
(imyEvolve
Tree
p956
(dp957
g12
I4
sg20
(imyEvolve
Tree
p958
(dp959
g7
(imyEvolve
Tree
p960
(dp961
g7
(imyEvolve
Tree
p962
(dp963
g7
(imyEvolve
Tree
p964
(dp965
g12
I0
sg29
F0.038260950458664844
sg13
I01
sbsg12
I1
sg14
I01
sg15
g30
sbsg12
I2
sg14
I01
sg15
g95
sbsg12
I3
sg14
I01
sg15
g30
sbsg31
(imyEvolve
Tree
p966
(dp967
g7
(imyEvolve
Tree
p968
(dp969
g7
(imyEvolve
Tree
p970
(dp971
g7
(imyEvolve
Tree
p972
(dp973
g12
I0
sg13
I00
sbsg12
I1
sg14
I01
sg15
g30
sbsg12
I2
sg14
I01
sg15
g17
sbsg12
I3
sg14
I01
sg15
g95
sbsg14
I00
sg15
g39
sbsg12
I5
sg14
I01
sg15
g30
sba(imyEvolve
Tree
p974
(dp975
g7
(imyEvolve
Tree
p976
(dp977
g7
(imyEvolve
Tree
p978
(dp979
g12
I0
sg29
F-3.798805150816894
sg13
I01
sbsg12
I1
sg14
I01
sg15
g30
sbsg12
I2
sg14
I01
sg15
g95
sba(imyEvolve
Tree
p980
(dp981
g7
(imyEvolve
Tree
p982
(dp983
g20
(imyEvolve
Tree
p984
(dp985
g20
(imyEvolve
Tree
p986
(dp987
g20
(imyEvolve
Tree
p988
(dp989
g12
I0
sg29
F-2.2020377599557364
sg13
I01
sbsg12
I1
sg31
(imyEvolve
Tree
p990
(dp991
g12
I0
sg29
F-3.6271580895520272
sg13
I01
sbsg14
I00
sg15
g38
sbsg12
I2
sg31
(imyEvolve
Tree
p992
(dp993
g7
(imyEvolve
Tree
p994
(dp995
g12
I0
sg29
F-2.5733513684643325
sg13
I01
sbsg12
I1
sg14
I01
sg15
g17
sbsg14
I00
sg15
g66
sbsg12
I3
sg31
(imyEvolve
Tree
p996
(dp997
g7
(imyEvolve
Tree
p998
(dp999
g7
(imyEvolve
Tree
p1000
(dp1001
g12
I0
sg13
I00
sbsg12
I1
sg14
I01
sg15
g17
sbsg12
I2
sg14
I01
sg15
g17
sbsg14
I00
sg15
g38
sbsg12
I4
sg14
I01
sg15
g95
sba(imyEvolve
Tree
p1002
(dp1003
g20
(imyEvolve
Tree
p1004
(dp1005
g20
(imyEvolve
Tree
p1006
(dp1007
g7
(imyEvolve
Tree
p1008
(dp1009
g7
(imyEvolve
Tree
p1010
(dp1011
g20
(imyEvolve
Tree
p1012
(dp1013
g12
I0
sg13
I00
sbsg12
I1
sg31
(imyEvolve
Tree
p1014
(dp1015
g12
I0
sg29
F1.6948851448311286
sg13
I01
sbsg14
I00
sg15
g66
sbsg12
I2
sg14
I01
sg15
g16
sbsg12
I3
sg14
I01
sg15
g16
sbsg12
I4
sg31
(imyEvolve
Tree
p1016
(dp1017
g7
(imyEvolve
Tree
p1018
(dp1019
g20
(imyEvolve
Tree
p1020
(dp1021
g20
(imyEvolve
Tree
p1022
(dp1023
g12
I0
sg13
I00
sbsg12
I1
sg31
(imyEvolve
Tree
p1024
(dp1025
g12
I0
sg29
F2.8962963575390654
sg13
I01
sbsg14
I00
sg15
g38
sbsg12
I2
sg31
(imyEvolve
Tree
p1026
(dp1027
g7
(imyEvolve
Tree
p1028
(dp1029
g12
I0
sg13
I00
sbsg12
I1
sg14
I01
sg15
g16
sbsg14
I00
sg15
g38
sbsg12
I3
sg14
I01
sg15
g30
sbsg14
I00
sg15
g39
sbsg12
I5
sg31
(imyEvolve
Tree
p1030
(dp1031
g7
(imyEvolve
Tree
p1032
(dp1033
g7
(imyEvolve
Tree
p1034
(dp1035
g7
(imyEvolve
Tree
p1036
(dp1037
g20
(imyEvolve
Tree
p1038
(dp1039
g12
I0
sg13
I00
sbsg12
I1
sg31
(imyEvolve
Tree
p1040
(dp1041
g12
I0
sg29
F-0.700644468669327
sg13
I01
sbsg14
I00
sg15
g38
sbsg12
I2
sg14
I01
sg15
g30
sbsg12
I3
sg14
I01
sg15
g95
sbsg12
I4
sg14
I01
sg15
g95
sbsg14
I00
sg15
g39
sba(imyEvolve
Tree
p1042
(dp1043
g20
(imyEvolve
Tree
p1044
(dp1045
g20
(imyEvolve
Tree
p1046
(dp1047
g7
(imyEvolve
Tree
p1048
(dp1049
g7
(imyEvolve
Tree
p1050
(dp1051
g20
(imyEvolve
Tree
p1052
(dp1053
g12
I0
sg29
F-2.2569961067032542
sg13
I01
sbsg12
I1
sg31
(imyEvolve
Tree
p1054
(dp1055
g12
I0
sg29
F0.983202839378766
sg13
I01
sbsg14
I00
sg15
g38
sbsg12
I2
sg14
I01
sg15
g30
sbsg12
I3
sg14
I01
sg15
g17
sbsg12
I4
sg31
(imyEvolve
Tree
p1056
(dp1057
g20
(imyEvolve
Tree
p1058
(dp1059
g7
(imyEvolve
Tree
p1060
(dp1061
g20
(imyEvolve
Tree
p1062
(dp1063
g12
I0
sg13
I00
sbsg12
I1
sg31
(imyEvolve
Tree
p1064
(dp1065
g12
I0
sg29
F-4.167047866100276
sg13
I01
sbsg14
I00
sg15
g39
sbsg12
I2
sg14
I01
sg15
g17
sbsg12
I3
sg31
(imyEvolve
Tree
p1066
(dp1067
g20
(imyEvolve
Tree
p1068
(dp1069
g7
(imyEvolve
Tree
p1070
(dp1071
g12
I0
sg13
I00
sbsg12
I1
sg14
I01
sg15
g16
sbsg12
I2
sg31
(imyEvolve
Tree
p1072
(dp1073
g20
(imyEvolve
Tree
p1074
(dp1075
g12
I0
sg13
I00
sbsg12
I1
sg31
(imyEvolve
Tree
p1076
(dp1077
g12
I0
sg13
I00
sbsg14
I00
sg15
g39
sbsg14
I00
sg15
g38
sbsg14
I00
sg15
g38
sbsg14
I00
sg15
g66
sbsg12
I5
sg31
(imyEvolve
Tree
p1078
(dp1079
g7
(imyEvolve
Tree
p1080
(dp1081
g20
(imyEvolve
Tree
p1082
(dp1083
g20
(imyEvolve
Tree
p1084
(dp1085
g20
(imyEvolve
Tree
p1086
(dp1087
g12
I0
sg13
I00
sbsg12
I1
sg31
(imyEvolve
Tree
p1088
(dp1089
g12
I0
sg29
F0.6559586929472481
sg13
I01
sbsg14
I00
sg15
g38
sbsg12
I2
sg31
(imyEvolve
Tree
p1090
(dp1091
g7
(imyEvolve
Tree
p1092
(dp1093
g12
I0
sg13
I00
sbsg12
I1
sg14
I01
sg15
g17
sbsg14
I00
sg15
g66
sbsg12
I3
sg31
(imyEvolve
Tree
p1094
(dp1095
g20
(imyEvolve
Tree
p1096
(dp1097
g7
(imyEvolve
Tree
p1098
(dp1099
g12
I0
sg13
I00
sbsg12
I1
sg14
I01
sg15
g30
sbsg12
I2
sg31
(imyEvolve
Tree
p1100
(dp1101
g7
(imyEvolve
Tree
p1102
(dp1103
g12
I0
sg13
I00
sbsg12
I1
sg14
I01
sg15
g30
sbsg14
I00
sg15
g38
sbsg14
I00
sg15
g39
sbsg12
I4
sg14
I01
sg15
g16
sbsg14
I00
sg15
g39
sba(imyEvolve
Tree
p1104
(dp1105
g7
(imyEvolve
Tree
p1106
(dp1107
g7
(imyEvolve
Tree
p1108
(dp1109
g20
(imyEvolve
Tree
p1110
(dp1111
g12
I0
sg29
F2.650198664160575
sg13
I01
sbsg12
I1
sg31
(imyEvolve
Tree
p1112
(dp1113
g12
I0
sg29
F1.7648769827781745
sg13
I01
sbsg14
I00
sg15
g66
sbsg12
I2
sg14
I01
sg15
g30
sbsg12
I3
sg14
I01
sg15
g30
sbaasS'alpha'
p1114
F0.006081428776862099
sS'fitness'
p1115
cnumpy.core.multiarray
scalar
p1116
(cnumpy
dtype
p1117
(S'f8'
p1118
I0
I1
tp1119
Rp1120
(I3
S'<'
p1121
NNNI-1
I-1
I0
tp1122
bS'\x00\xc0\xb5\x84\xfck\r\xbf'
p1123
tp1124
Rp1125
sS'weightSharing'
p1126
(lp1127
I01
asS'fitnessValid'
p1128
I00
sS'resolution'
p1129
I99
sb.