(imyEvolve
Individual
p0
(dp1
S'funcs'
p2
(lp3
(lp4
(imyEvolve
Tree
p5
(dp6
S'depth'
p7
I3
sS'left'
p8
(imyEvolve
Tree
p9
(dp10
g7
I2
sg8
(imyEvolve
Tree
p11
(dp12
g7
I1
sg8
(imyEvolve
Tree
p13
(dp14
g7
I0
sS'constant'
p15
F-3.7309662164743695
sS'isConstant'
p16
I01
sbsS'right'
p17
(imyEvolve
Tree
p18
(dp19
g7
I0
sg15
F-1.1857642599553553
sg16
I01
sbsS'single'
p20
I00
sS'op'
p21
coperator
sub
p22
sbsg17
(imyEvolve
Tree
p23
(dp24
S'below'
p25
(imyEvolve
Tree
p26
(dp27
g7
I0
sg15
F-0.21020088401213943
sg16
I01
sbsg7
I1
sg20
I01
sg21
cmath
sin
p28
sbsg20
I00
sg21
coperator
mul
p29
sbsg17
(imyEvolve
Tree
p30
(dp31
g25
(imyEvolve
Tree
p32
(dp33
g25
(imyEvolve
Tree
p34
(dp35
g7
I0
sg16
I00
sbsg7
I1
sg20
I01
sg21
cmath
cos
p36
sbsg7
I2
sg20
I01
sg21
g28
sbsg20
I00
sg21
coperator
add
p37
sba(imyEvolve
Tree
p38
(dp39
g25
(imyEvolve
Tree
p40
(dp41
g25
(imyEvolve
Tree
p42
(dp43
g7
I0
sg15
F2.430932164372636
sg16
I01
sbsg7
I1
sg20
I01
sg21
cmyEvolve
square
p44
sbsg7
I2
sg20
I01
sg21
cmyEvolve
absSqrt
p45
sba(imyEvolve
Tree
p46
(dp47
g25
(imyEvolve
Tree
p48
(dp49
g7
I2
sg8
(imyEvolve
Tree
p50
(dp51
g7
I1
sg8
(imyEvolve
Tree
p52
(dp53
g7
I0
sg16
I00
sbsg17
(imyEvolve
Tree
p54
(dp55
g7
I0
sg15
F-0.5148222193271863
sg16
I01
sbsg20
I00
sg21
g29
sbsg17
(imyEvolve
Tree
p56
(dp57
g7
I1
sg8
(imyEvolve
Tree
p58
(dp59
g7
I0
sg16
I00
sbsg17
(imyEvolve
Tree
p60
(dp61
g7
I0
sg16
I00
sbsg20
I00
sg21
g22
sbsg20
I00
sg21
g37
sbsg7
I3
sg20
I01
sg21
g28
sba(imyEvolve
Tree
p62
(dp63
g7
I2
sg8
(imyEvolve
Tree
p64
(dp65
g25
(imyEvolve
Tree
p66
(dp67
g7
I0
sg15
F-0.8919135856443026
sg16
I01
sbsg7
I1
sg20
I01
sg21
g36
sbsg17
(imyEvolve
Tree
p68
(dp69
g7
I1
sg8
(imyEvolve
Tree
p70
(dp71
g7
I0
sg16
I00
sbsg17
(imyEvolve
Tree
p72
(dp73
g7
I0
sg16
I00
sbsg20
I00
sg21
g22
sbsg20
I00
sg21
g22
sba(imyEvolve
Tree
p74
(dp75
g25
(imyEvolve
Tree
p76
(dp77
g7
I4
sg8
(imyEvolve
Tree
p78
(dp79
g7
I3
sg8
(imyEvolve
Tree
p80
(dp81
g25
(imyEvolve
Tree
p82
(dp83
g25
(imyEvolve
Tree
p84
(dp85
g7
I0
sg15
F4.7876028729109095
sg16
I01
sbsg7
I1
sg20
I01
sg21
g36
sbsg7
I2
sg20
I01
sg21
g36
sbsg17
(imyEvolve
Tree
p86
(dp87
g25
(imyEvolve
Tree
p88
(dp89
g7
I1
sg8
(imyEvolve
Tree
p90
(dp91
g7
I0
sg15
F1.7024681730453661
sg16
I01
sbsg17
(imyEvolve
Tree
p92
(dp93
g7
I0
sg16
I00
sbsg20
I00
sg21
g37
sbsg7
I2
sg20
I01
sg21
g44
sbsg20
I00
sg21
g29
sbsg17
(imyEvolve
Tree
p94
(dp95
g7
I3
sg8
(imyEvolve
Tree
p96
(dp97
g25
(imyEvolve
Tree
p98
(dp99
g7
I1
sg8
(imyEvolve
Tree
p100
(dp101
g7
I0
sg16
I00
sbsg17
(imyEvolve
Tree
p102
(dp103
g7
I0
sg15
F4.741425787245557
sg16
I01
sbsg20
I00
sg21
g29
sbsg7
I2
sg20
I01
sg21
g28
sbsg17
(imyEvolve
Tree
p104
(dp105
g7
I2
sg8
(imyEvolve
Tree
p106
(dp107
g7
I1
sg8
(imyEvolve
Tree
p108
(dp109
g7
I0
sg15
F2.205394701400614
sg16
I01
sbsg17
(imyEvolve
Tree
p110
(dp111
g7
I0
sg15
F4.229863868291492
sg16
I01
sbsg20
I00
sg21
g29
sbsg17
(imyEvolve
Tree
p112
(dp113
g25
(imyEvolve
Tree
p114
(dp115
g7
I0
sg16
I00
sbsg7
I1
sg20
I01
sg21
g45
sbsg20
I00
sg21
g37
sbsg20
I00
sg21
g29
sbsg20
I00
sg21
g37
sbsg7
I5
sg20
I01
sg21
g28
sba(imyEvolve
Tree
p116
(dp117
g7
I5
sg8
(imyEvolve
Tree
p118
(dp119
g7
I4
sg8
(imyEvolve
Tree
p120
(dp121
g25
(imyEvolve
Tree
p122
(dp123
g7
I2
sg8
(imyEvolve
Tree
p124
(dp125
g25
(imyEvolve
Tree
p126
(dp127
g7
I0
sg16
I00
sbsg7
I1
sg20
I01
sg21
g44
sbsg17
(imyEvolve
Tree
p128
(dp129
g7
I1
sg8
(imyEvolve
Tree
p130
(dp131
g7
I0
sg16
I00
sbsg17
(imyEvolve
Tree
p132
(dp133
g7
I0
sg15
F2.198149622243095
sg16
I01
sbsg20
I00
sg21
g29
sbsg20
I00
sg21
g37
sbsg7
I3
sg20
I01
sg21
g45
sbsg17
(imyEvolve
Tree
p134
(dp135
g25
(imyEvolve
Tree
p136
(dp137
g7
I2
sg8
(imyEvolve
Tree
p138
(dp139
g7
I1
sg8
(imyEvolve
Tree
p140
(dp141
g7
I0
sg16
I00
sbsg17
(imyEvolve
Tree
p142
(dp143
g7
I0
sg15
F-2.54894428672673
sg16
I01
sbsg20
I00
sg21
g37
sbsg17
(imyEvolve
Tree
p144
(dp145
g7
I1
sg8
(imyEvolve
Tree
p146
(dp147
g7
I0
sg15
F-3.1876214850144624
sg16
I01
sbsg17
(imyEvolve
Tree
p148
(dp149
g7
I0
sg15
F3.2625665910440507
sg16
I01
sbsg20
I00
sg21
g37
sbsg20
I00
sg21
g22
sbsg7
I3
sg20
I01
sg21
g36
sbsg20
I00
sg21
g37
sbsg17
(imyEvolve
Tree
p150
(dp151
g7
I4
sg8
(imyEvolve
Tree
p152
(dp153
g7
I3
sg8
(imyEvolve
Tree
p154
(dp155
g7
I2
sg8
(imyEvolve
Tree
p156
(dp157
g7
I1
sg8
(imyEvolve
Tree
p158
(dp159
g7
I0
sg15
F1.1815897077377642
sg16
I01
sbsg17
(imyEvolve
Tree
p160
(dp161
g7
I0
sg16
I00
sbsg20
I00
sg21
g29
sbsg17
(imyEvolve
Tree
p162
(dp163
g25
(imyEvolve
Tree
p164
(dp165
g7
I0
sg16
I00
sbsg7
I1
sg20
I01
sg21
g36
sbsg20
I00
sg21
g37
sbsg17
(imyEvolve
Tree
p166
(dp167
g7
I2
sg8
(imyEvolve
Tree
p168
(dp169
g7
I1
sg8
(imyEvolve
Tree
p170
(dp171
g7
I0
sg16
I00
sbsg17
(imyEvolve
Tree
p172
(dp173
g7
I0
sg16
I00
sbsg20
I00
sg21
g22
sbsg17
(imyEvolve
Tree
p174
(dp175
g25
(imyEvolve
Tree
p176
(dp177
g7
I0
sg15
F-1.413968637230668
sg16
I01
sbsg7
I1
sg20
I01
sg21
g28
sbsg20
I00
sg21
g37
sbsg20
I00
sg21
g37
sbsg17
(imyEvolve
Tree
p178
(dp179
g25
(imyEvolve
Tree
p180
(dp181
g7
I2
sg8
(imyEvolve
Tree
p182
(dp183
g7
I1
sg8
(imyEvolve
Tree
p184
(dp185
g7
I0
sg15
F-2.1902428552445996
sg16
I01
sbsg17
(imyEvolve
Tree
p186
(dp187
g7
I0
sg16
I00
sbsg20
I00
sg21
g37
sbsg17
(imyEvolve
Tree
p188
(dp189
g7
I1
sg8
(imyEvolve
Tree
p190
(dp191
g7
I0
sg15
F1.801299181752972
sg16
I01
sbsg17
(imyEvolve
Tree
p192
(dp193
g7
I0
sg16
I00
sbsg20
I00
sg21
g29
sbsg20
I00
sg21
g29
sbsg7
I3
sg20
I01
sg21
g44
sbsg20
I00
sg21
g29
sbsg20
I00
sg21
g29
sba(imyEvolve
Tree
p194
(dp195
g7
I2
sg8
(imyEvolve
Tree
p196
(dp197
g7
I1
sg8
(imyEvolve
Tree
p198
(dp199
g7
I0
sg15
F4.236863089722291
sg16
I01
sbsg17
(imyEvolve
Tree
p200
(dp201
g7
I0
sg15
F-4.0672937467685975
sg16
I01
sbsg20
I00
sg21
g37
sbsg17
(imyEvolve
Tree
p202
(dp203
g25
(imyEvolve
Tree
p204
(dp205
g7
I0
sg16
I00
sbsg7
I1
sg20
I01
sg21
g44
sbsg20
I00
sg21
g37
sba(imyEvolve
Tree
p206
(dp207
g7
I4
sg8
(imyEvolve
Tree
p208
(dp209
g25
(imyEvolve
Tree
p210
(dp211
g25
(imyEvolve
Tree
p212
(dp213
g7
I1
sg8
(imyEvolve
Tree
p214
(dp215
g7
I0
sg16
I00
sbsg17
(imyEvolve
Tree
p216
(dp217
g7
I0
sg16
I00
sbsg20
I00
sg21
g37
sbsg7
I2
sg20
I01
sg21
g44
sbsg7
I3
sg20
I01
sg21
g36
sbsg17
(imyEvolve
Tree
p218
(dp219
g25
(imyEvolve
Tree
p220
(dp221
g7
I2
sg8
(imyEvolve
Tree
p222
(dp223
g25
(imyEvolve
Tree
p224
(dp225
g7
I0
sg16
I00
sbsg7
I1
sg20
I01
sg21
g28
sbsg17
(imyEvolve
Tree
p226
(dp227
g25
(imyEvolve
Tree
p228
(dp229
g7
I0
sg16
I00
sbsg7
I1
sg20
I01
sg21
g45
sbsg20
I00
sg21
g29
sbsg7
I3
sg20
I01
sg21
g36
sbsg20
I00
sg21
g37
sba(imyEvolve
Tree
p230
(dp231
g7
I2
sg8
(imyEvolve
Tree
p232
(dp233
g25
(imyEvolve
Tree
p234
(dp235
g7
I0
sg16
I00
sbsg7
I1
sg20
I01
sg21
g36
sbsg17
(imyEvolve
Tree
p236
(dp237
g25
(imyEvolve
Tree
p238
(dp239
g7
I0
sg16
I00
sbsg7
I1
sg20
I01
sg21
g44
sbsg20
I00
sg21
g22
sba(imyEvolve
Tree
p240
(dp241
g7
I2
sg8
(imyEvolve
Tree
p242
(dp243
g7
I1
sg8
(imyEvolve
Tree
p244
(dp245
g7
I0
sg16
I00
sbsg17
(imyEvolve
Tree
p246
(dp247
g7
I0
sg15
F-1.5767235312831538
sg16
I01
sbsg20
I00
sg21
g37
sbsg17
(imyEvolve
Tree
p248
(dp249
g7
I1
sg8
(imyEvolve
Tree
p250
(dp251
g7
I0
sg15
F4.836042633037126
sg16
I01
sbsg17
(imyEvolve
Tree
p252
(dp253
g7
I0
sg15
F-2.574680715626736
sg16
I01
sbsg20
I00
sg21
g22
sbsg20
I00
sg21
g37
sba(imyEvolve
Tree
p254
(dp255
g25
(imyEvolve
Tree
p256
(dp257
g25
(imyEvolve
Tree
p258
(dp259
g7
I2
sg8
(imyEvolve
Tree
p260
(dp261
g25
(imyEvolve
Tree
p262
(dp263
g7
I0
sg15
F2.9391022299494853
sg16
I01
sbsg7
I1
sg20
I01
sg21
g44
sbsg17
(imyEvolve
Tree
p264
(dp265
g7
I1
sg8
(imyEvolve
Tree
p266
(dp267
g7
I0
sg15
F-3.9236843362147322
sg16
I01
sbsg17
(imyEvolve
Tree
p268
(dp269
g7
I0
sg15
F-3.483725786798334
sg16
I01
sbsg20
I00
sg21
g37
sbsg20
I00
sg21
g29
sbsg7
I3
sg20
I01
sg21
g28
sbsg7
I4
sg20
I01
sg21
g44
sbaasS'weightSharing'
p270
(lp271
I01
aI00
aI00
aI00
aI00
asS'fitnessValid'
p272
I00
sS'fitness'
p273
cnumpy.core.multiarray
scalar
p274
(cnumpy
dtype
p275
(S'f8'
p276
I0
I1
tp277
Rp278
(I3
S'<'
p279
NNNI-1
I-1
I0
tp280
bS'\x96\xb2\x0c\x95\x06,\xe6?'
p281
tp282
Rp283
sS'alpha'
p284
F0.007130234853586491
sS'resolution'
p285
I42
sb.