(imyEvolve
Individual
p0
(dp1
S'funcs'
p2
(lp3
(lp4
(imyEvolve
Tree
p5
(dp6
S'below'
p7
(imyEvolve
Tree
p8
(dp9
g7
(imyEvolve
Tree
p10
(dp11
g7
(imyEvolve
Tree
p12
(dp13
S'depth'
p14
I0
sS'isConstant'
p15
I00
sbsg14
I1
sS'single'
p16
I01
sS'op'
p17
cmath
cos
p18
sbsg14
I2
sg16
I01
sg17
cmyEvolve
absSqrt
p19
sbsg14
I3
sg16
I01
sg17
g18
sba(imyEvolve
Tree
p20
(dp21
S'left'
p22
(imyEvolve
Tree
p23
(dp24
g7
(imyEvolve
Tree
p25
(dp26
g22
(imyEvolve
Tree
p27
(dp28
g14
I0
sS'constant'
p29
F0.23403116206035524
sg15
I01
sbsg14
I1
sS'right'
p30
(imyEvolve
Tree
p31
(dp32
g14
I0
sg15
I00
sbsg16
I00
sg17
coperator
sub
p33
sbsg14
I2
sg16
I01
sg17
cmyEvolve
square
p34
sbsg14
I3
sg30
(imyEvolve
Tree
p35
(dp36
g22
(imyEvolve
Tree
p37
(dp38
g22
(imyEvolve
Tree
p39
(dp40
g14
I0
sg29
F3.5569515997570402
sg15
I01
sbsg14
I1
sg30
(imyEvolve
Tree
p41
(dp42
g14
I0
sg29
F2.219843764454441
sg15
I01
sbsg16
I00
sg17
coperator
mul
p43
sbsg14
I2
sg30
(imyEvolve
Tree
p44
(dp45
g7
(imyEvolve
Tree
p46
(dp47
g14
I0
sg15
I00
sbsg14
I1
sg16
I01
sg17
cmath
sin
p48
sbsg16
I00
sg17
coperator
add
p49
sbsg16
I00
sg17
g33
sba(imyEvolve
Tree
p50
(dp51
g14
I2
sg22
(imyEvolve
Tree
p52
(dp53
g7
(imyEvolve
Tree
p54
(dp55
g14
I0
sg29
F2.698787503886722
sg15
I01
sbsg14
I1
sg16
I01
sg17
g48
sbsg30
(imyEvolve
Tree
p56
(dp57
g14
I1
sg22
(imyEvolve
Tree
p58
(dp59
g14
I0
sg29
F3.056685894687849
sg15
I01
sbsg30
(imyEvolve
Tree
p60
(dp61
g14
I0
sg29
F-4.835151937866719
sg15
I01
sbsg16
I00
sg17
g49
sbsg16
I00
sg17
g33
sba(imyEvolve
Tree
p62
(dp63
g7
(imyEvolve
Tree
p64
(dp65
g14
I4
sg22
(imyEvolve
Tree
p66
(dp67
g7
(imyEvolve
Tree
p68
(dp69
g7
(imyEvolve
Tree
p70
(dp71
g7
(imyEvolve
Tree
p72
(dp73
g14
I0
sg29
F4.776699597497288
sg15
I01
sbsg14
I1
sg16
I01
sg17
g19
sbsg14
I2
sg16
I01
sg17
g34
sbsg14
I3
sg16
I01
sg17
g19
sbsg30
(imyEvolve
Tree
p74
(dp75
g7
(imyEvolve
Tree
p76
(dp77
g7
(imyEvolve
Tree
p78
(dp79
g14
I1
sg22
(imyEvolve
Tree
p80
(dp81
g14
I0
sg29
F0.44402709295857523
sg15
I01
sbsg30
(imyEvolve
Tree
p82
(dp83
g14
I0
sg29
F2.363991947268244
sg15
I01
sbsg16
I00
sg17
g33
sbsg14
I2
sg16
I01
sg17
g18
sbsg14
I3
sg16
I01
sg17
g48
sbsg16
I00
sg17
g49
sbsg14
I5
sg16
I01
sg17
g19
sba(imyEvolve
Tree
p84
(dp85
g14
I5
sg22
(imyEvolve
Tree
p86
(dp87
g14
I4
sg22
(imyEvolve
Tree
p88
(dp89
g14
I3
sg22
(imyEvolve
Tree
p90
(dp91
g14
I2
sg22
(imyEvolve
Tree
p92
(dp93
g14
I1
sg22
(imyEvolve
Tree
p94
(dp95
g14
I0
sg15
I00
sbsg30
(imyEvolve
Tree
p96
(dp97
g14
I0
sg15
I00
sbsg16
I00
sg17
g49
sbsg30
(imyEvolve
Tree
p98
(dp99
g14
I1
sg22
(imyEvolve
Tree
p100
(dp101
g14
I0
sg29
F3.172016084558182
sg15
I01
sbsg30
(imyEvolve
Tree
p102
(dp103
g14
I0
sg29
F-1.1225843177927008
sg15
I01
sbsg16
I00
sg17
g49
sbsg16
I00
sg17
g43
sbsg30
(imyEvolve
Tree
p104
(dp105
g14
I2
sg22
(imyEvolve
Tree
p106
(dp107
g7
(imyEvolve
Tree
p108
(dp109
g14
I0
sg15
I00
sbsg14
I1
sg16
I01
sg17
g48
sbsg30
(imyEvolve
Tree
p110
(dp111
g7
(imyEvolve
Tree
p112
(dp113
g14
I0
sg29
F-3.9591263049527936
sg15
I01
sbsg14
I1
sg16
I01
sg17
g34
sbsg16
I00
sg17
g33
sbsg16
I00
sg17
g33
sbsg30
(imyEvolve
Tree
p114
(dp115
g14
I3
sg22
(imyEvolve
Tree
p116
(dp117
g7
(imyEvolve
Tree
p118
(dp119
g7
(imyEvolve
Tree
p120
(dp121
g14
I0
sg15
I00
sbsg14
I1
sg16
I01
sg17
g48
sbsg14
I2
sg16
I01
sg17
g48
sbsg30
(imyEvolve
Tree
p122
(dp123
g7
(imyEvolve
Tree
p124
(dp125
g7
(imyEvolve
Tree
p126
(dp127
g14
I0
sg15
I00
sbsg14
I1
sg16
I01
sg17
g18
sbsg14
I2
sg16
I01
sg17
g34
sbsg16
I00
sg17
g49
sbsg16
I00
sg17
g49
sbsg30
(imyEvolve
Tree
p128
(dp129
g7
(imyEvolve
Tree
p130
(dp131
g7
(imyEvolve
Tree
p132
(dp133
g14
I2
sg22
(imyEvolve
Tree
p134
(dp135
g7
(imyEvolve
Tree
p136
(dp137
g14
I0
sg15
I00
sbsg14
I1
sg16
I01
sg17
g19
sbsg30
(imyEvolve
Tree
p138
(dp139
g14
I1
sg22
(imyEvolve
Tree
p140
(dp141
g14
I0
sg29
F4.649654754038288
sg15
I01
sbsg30
(imyEvolve
Tree
p142
(dp143
g14
I0
sg29
F4.980285709669044
sg15
I01
sbsg16
I00
sg17
g43
sbsg16
I00
sg17
g33
sbsg14
I3
sg16
I01
sg17
g34
sbsg14
I4
sg16
I01
sg17
g34
sbsg16
I00
sg17
g49
sba(imyEvolve
Tree
p144
(dp145
g22
(imyEvolve
Tree
p146
(dp147
g22
(imyEvolve
Tree
p148
(dp149
g7
(imyEvolve
Tree
p150
(dp151
g14
I0
sg15
I00
sbsg14
I1
sg16
I01
sg17
g19
sbsg14
I2
sg30
(imyEvolve
Tree
p152
(dp153
g22
(imyEvolve
Tree
p154
(dp155
g14
I0
sg29
F1.6357787650675082
sg15
I01
sbsg14
I1
sg30
(imyEvolve
Tree
p156
(dp157
g14
I0
sg15
I00
sbsg16
I00
sg17
g33
sbsg16
I00
sg17
g33
sbsg14
I3
sg30
(imyEvolve
Tree
p158
(dp159
g7
(imyEvolve
Tree
p160
(dp161
g22
(imyEvolve
Tree
p162
(dp163
g14
I0
sg29
F-0.9555988417013017
sg15
I01
sbsg14
I1
sg30
(imyEvolve
Tree
p164
(dp165
g14
I0
sg15
I00
sbsg16
I00
sg17
g33
sbsg14
I2
sg16
I01
sg17
g18
sbsg16
I00
sg17
g33
sba(imyEvolve
Tree
p166
(dp167
g7
(imyEvolve
Tree
p168
(dp169
g22
(imyEvolve
Tree
p170
(dp171
g14
I0
sg29
F0.7333504045363748
sg15
I01
sbsg14
I1
sg30
(imyEvolve
Tree
p172
(dp173
g14
I0
sg15
I00
sbsg16
I00
sg17
g43
sbsg14
I2
sg16
I01
sg17
g19
sba(imyEvolve
Tree
p174
(dp175
g7
(imyEvolve
Tree
p176
(dp177
g7
(imyEvolve
Tree
p178
(dp179
g7
(imyEvolve
Tree
p180
(dp181
g22
(imyEvolve
Tree
p182
(dp183
g7
(imyEvolve
Tree
p184
(dp185
g14
I0
sg29
F-1.5266529772187711
sg15
I01
sbsg14
I1
sg16
I01
sg17
g18
sbsg14
I2
sg30
(imyEvolve
Tree
p186
(dp187
g22
(imyEvolve
Tree
p188
(dp189
g14
I0
sg29
F2.490962801265403
sg15
I01
sbsg14
I1
sg30
(imyEvolve
Tree
p190
(dp191
g14
I0
sg15
I00
sbsg16
I00
sg17
g33
sbsg16
I00
sg17
g49
sbsg14
I3
sg16
I01
sg17
g48
sbsg14
I4
sg16
I01
sg17
g19
sbsg14
I5
sg16
I01
sg17
g19
sba(imyEvolve
Tree
p192
(dp193
g7
(imyEvolve
Tree
p194
(dp195
g7
(imyEvolve
Tree
p196
(dp197
g22
(imyEvolve
Tree
p198
(dp199
g14
I0
sg15
I00
sbsg14
I1
sg30
(imyEvolve
Tree
p200
(dp201
g14
I0
sg29
F0.12237748139200111
sg15
I01
sbsg16
I00
sg17
g43
sbsg14
I2
sg16
I01
sg17
g48
sbsg14
I3
sg16
I01
sg17
g19
sba(imyEvolve
Tree
p202
(dp203
g22
(imyEvolve
Tree
p204
(dp205
g22
(imyEvolve
Tree
p206
(dp207
g22
(imyEvolve
Tree
p208
(dp209
g22
(imyEvolve
Tree
p210
(dp211
g7
(imyEvolve
Tree
p212
(dp213
g14
I0
sg15
I00
sbsg14
I1
sg16
I01
sg17
g19
sbsg14
I2
sg30
(imyEvolve
Tree
p214
(dp215
g22
(imyEvolve
Tree
p216
(dp217
g14
I0
sg29
F3.24573270997651
sg15
I01
sbsg14
I1
sg30
(imyEvolve
Tree
p218
(dp219
g14
I0
sg15
I00
sbsg16
I00
sg17
g43
sbsg16
I00
sg17
g43
sbsg14
I3
sg30
(imyEvolve
Tree
p220
(dp221
g7
(imyEvolve
Tree
p222
(dp223
g7
(imyEvolve
Tree
p224
(dp225
g14
I0
sg15
I00
sbsg14
I1
sg16
I01
sg17
g19
sbsg14
I2
sg16
I01
sg17
g18
sbsg16
I00
sg17
g43
sbsg14
I4
sg30
(imyEvolve
Tree
p226
(dp227
g7
(imyEvolve
Tree
p228
(dp229
g7
(imyEvolve
Tree
p230
(dp231
g22
(imyEvolve
Tree
p232
(dp233
g14
I0
sg15
I00
sbsg14
I1
sg30
(imyEvolve
Tree
p234
(dp235
g14
I0
sg15
I00
sbsg16
I00
sg17
g43
sbsg14
I2
sg16
I01
sg17
g18
sbsg14
I3
sg16
I01
sg17
g34
sbsg16
I00
sg17
g49
sbsg14
I5
sg30
(imyEvolve
Tree
p236
(dp237
g22
(imyEvolve
Tree
p238
(dp239
g22
(imyEvolve
Tree
p240
(dp241
g7
(imyEvolve
Tree
p242
(dp243
g7
(imyEvolve
Tree
p244
(dp245
g14
I0
sg15
I00
sbsg14
I1
sg16
I01
sg17
g34
sbsg14
I2
sg16
I01
sg17
g34
sbsg14
I3
sg30
(imyEvolve
Tree
p246
(dp247
g22
(imyEvolve
Tree
p248
(dp249
g7
(imyEvolve
Tree
p250
(dp251
g14
I0
sg15
I00
sbsg14
I1
sg16
I01
sg17
g34
sbsg14
I2
sg30
(imyEvolve
Tree
p252
(dp253
g22
(imyEvolve
Tree
p254
(dp255
g14
I0
sg29
F-4.3509255633618515
sg15
I01
sbsg14
I1
sg30
(imyEvolve
Tree
p256
(dp257
g14
I0
sg29
F1.2824754600024848
sg15
I01
sbsg16
I00
sg17
g33
sbsg16
I00
sg17
g43
sbsg16
I00
sg17
g43
sbsg14
I4
sg30
(imyEvolve
Tree
p258
(dp259
g22
(imyEvolve
Tree
p260
(dp261
g7
(imyEvolve
Tree
p262
(dp263
g7
(imyEvolve
Tree
p264
(dp265
g14
I0
sg29
F-4.185139649671111
sg15
I01
sbsg14
I1
sg16
I01
sg17
g19
sbsg14
I2
sg16
I01
sg17
g18
sbsg14
I3
sg30
(imyEvolve
Tree
p266
(dp267
g7
(imyEvolve
Tree
p268
(dp269
g22
(imyEvolve
Tree
p270
(dp271
g14
I0
sg15
I00
sbsg14
I1
sg30
(imyEvolve
Tree
p272
(dp273
g14
I0
sg15
I00
sbsg16
I00
sg17
g33
sbsg14
I2
sg16
I01
sg17
g34
sbsg16
I00
sg17
g43
sbsg16
I00
sg17
g43
sbsg16
I00
sg17
g43
sba(imyEvolve
Tree
p274
(dp275
g7
(imyEvolve
Tree
p276
(dp277
g7
(imyEvolve
Tree
p278
(dp279
g22
(imyEvolve
Tree
p280
(dp281
g14
I0
sg15
I00
sbsg14
I1
sg30
(imyEvolve
Tree
p282
(dp283
g14
I0
sg29
F3.994219386937745
sg15
I01
sbsg16
I00
sg17
g33
sbsg14
I2
sg16
I01
sg17
g48
sbsg14
I3
sg16
I01
sg17
g34
sba(imyEvolve
Tree
p284
(dp285
g7
(imyEvolve
Tree
p286
(dp287
g14
I1
sg22
(imyEvolve
Tree
p288
(dp289
g14
I0
sg15
I00
sbsg30
(imyEvolve
Tree
p290
(dp291
g14
I0
sg15
I00
sbsg16
I00
sg17
g43
sbsg14
I2
sg16
I01
sg17
g48
sba(imyEvolve
Tree
p292
(dp293
g22
(imyEvolve
Tree
p294
(dp295
g7
(imyEvolve
Tree
p296
(dp297
g7
(imyEvolve
Tree
p298
(dp299
g22
(imyEvolve
Tree
p300
(dp301
g22
(imyEvolve
Tree
p302
(dp303
g14
I0
sg15
I00
sbsg14
I1
sg30
(imyEvolve
Tree
p304
(dp305
g14
I0
sg15
I00
sbsg16
I00
sg17
g33
sbsg14
I2
sg30
(imyEvolve
Tree
p306
(dp307
g22
(imyEvolve
Tree
p308
(dp309
g14
I0
sg29
F4.633644690498791
sg15
I01
sbsg14
I1
sg30
(imyEvolve
Tree
p310
(dp311
g14
I0
sg29
F-1.3904863030402037
sg15
I01
sbsg16
I00
sg17
g43
sbsg16
I00
sg17
g43
sbsg14
I3
sg16
I01
sg17
g48
sbsg14
I4
sg16
I01
sg17
g34
sbsg14
I5
sg30
(imyEvolve
Tree
p312
(dp313
g22
(imyEvolve
Tree
p314
(dp315
g7
(imyEvolve
Tree
p316
(dp317
g7
(imyEvolve
Tree
p318
(dp319
g22
(imyEvolve
Tree
p320
(dp321
g14
I0
sg15
I00
sbsg14
I1
sg30
(imyEvolve
Tree
p322
(dp323
g14
I0
sg15
I00
sbsg16
I00
sg17
g43
sbsg14
I2
sg16
I01
sg17
g19
sbsg14
I3
sg16
I01
sg17
g48
sbsg14
I4
sg30
(imyEvolve
Tree
p324
(dp325
g22
(imyEvolve
Tree
p326
(dp327
g7
(imyEvolve
Tree
p328
(dp329
g7
(imyEvolve
Tree
p330
(dp331
g14
I0
sg29
F2.548957050353157
sg15
I01
sbsg14
I1
sg16
I01
sg17
g48
sbsg14
I2
sg16
I01
sg17
g48
sbsg14
I3
sg30
(imyEvolve
Tree
p332
(dp333
g22
(imyEvolve
Tree
p334
(dp335
g7
(imyEvolve
Tree
p336
(dp337
g14
I0
sg29
F-0.19701794788683635
sg15
I01
sbsg14
I1
sg16
I01
sg17
g34
sbsg14
I2
sg30
(imyEvolve
Tree
p338
(dp339
g22
(imyEvolve
Tree
p340
(dp341
g14
I0
sg15
I00
sbsg14
I1
sg30
(imyEvolve
Tree
p342
(dp343
g14
I0
sg29
F-2.619881128855911
sg15
I01
sbsg16
I00
sg17
g49
sbsg16
I00
sg17
g43
sbsg16
I00
sg17
g43
sbsg16
I00
sg17
g49
sbsg16
I00
sg17
g49
sba(imyEvolve
Tree
p344
(dp345
g14
I3
sg22
(imyEvolve
Tree
p346
(dp347
g7
(imyEvolve
Tree
p348
(dp349
g7
(imyEvolve
Tree
p350
(dp351
g14
I0
sg29
F4.41435023082178
sg15
I01
sbsg14
I1
sg16
I01
sg17
g18
sbsg14
I2
sg16
I01
sg17
g19
sbsg30
(imyEvolve
Tree
p352
(dp353
g7
(imyEvolve
Tree
p354
(dp355
g7
(imyEvolve
Tree
p356
(dp357
g14
I0
sg15
I00
sbsg14
I1
sg16
I01
sg17
g48
sbsg14
I2
sg16
I01
sg17
g34
sbsg16
I00
sg17
g43
sba(imyEvolve
Tree
p358
(dp359
g7
(imyEvolve
Tree
p360
(dp361
g7
(imyEvolve
Tree
p362
(dp363
g14
I0
sg29
F-3.169636116661537
sg15
I01
sbsg14
I1
sg16
I01
sg17
g18
sbsg14
I2
sg16
I01
sg17
g18
sba(imyEvolve
Tree
p364
(dp365
g7
(imyEvolve
Tree
p366
(dp367
g22
(imyEvolve
Tree
p368
(dp369
g7
(imyEvolve
Tree
p370
(dp371
g7
(imyEvolve
Tree
p372
(dp373
g14
I0
sg29
F4.864363591071934
sg15
I01
sbsg14
I1
sg16
I01
sg17
g18
sbsg14
I2
sg16
I01
sg17
g34
sbsg14
I3
sg30
(imyEvolve
Tree
p374
(dp375
g7
(imyEvolve
Tree
p376
(dp377
g22
(imyEvolve
Tree
p378
(dp379
g14
I0
sg15
I00
sbsg14
I1
sg30
(imyEvolve
Tree
p380
(dp381
g14
I0
sg29
F3.9655982467009014
sg15
I01
sbsg16
I00
sg17
g43
sbsg14
I2
sg16
I01
sg17
g34
sbsg16
I00
sg17
g43
sbsg14
I4
sg16
I01
sg17
g34
sba(imyEvolve
Tree
p382
(dp383
g14
I4
sg22
(imyEvolve
Tree
p384
(dp385
g14
I3
sg22
(imyEvolve
Tree
p386
(dp387
g7
(imyEvolve
Tree
p388
(dp389
g14
I1
sg22
(imyEvolve
Tree
p390
(dp391
g14
I0
sg29
F2.3814243237118244
sg15
I01
sbsg30
(imyEvolve
Tree
p392
(dp393
g14
I0
sg29
F0.793342718054685
sg15
I01
sbsg16
I00
sg17
g33
sbsg14
I2
sg16
I01
sg17
g19
sbsg30
(imyEvolve
Tree
p394
(dp395
g7
(imyEvolve
Tree
p396
(dp397
g7
(imyEvolve
Tree
p398
(dp399
g14
I0
sg29
F-4.440511672531877
sg15
I01
sbsg14
I1
sg16
I01
sg17
g19
sbsg14
I2
sg16
I01
sg17
g34
sbsg16
I00
sg17
g43
sbsg30
(imyEvolve
Tree
p400
(dp401
g14
I3
sg22
(imyEvolve
Tree
p402
(dp403
g14
I2
sg22
(imyEvolve
Tree
p404
(dp405
g14
I1
sg22
(imyEvolve
Tree
p406
(dp407
g14
I0
sg15
I00
sbsg30
(imyEvolve
Tree
p408
(dp409
g14
I0
sg29
F-0.3111257226138031
sg15
I01
sbsg16
I00
sg17
g33
sbsg30
(imyEvolve
Tree
p410
(dp411
g14
I1
sg22
(imyEvolve
Tree
p412
(dp413
g14
I0
sg15
I00
sbsg30
(imyEvolve
Tree
p414
(dp415
g14
I0
sg15
I00
sbsg16
I00
sg17
g33
sbsg16
I00
sg17
g43
sbsg30
(imyEvolve
Tree
p416
(dp417
g14
I2
sg22
(imyEvolve
Tree
p418
(dp419
g7
(imyEvolve
Tree
p420
(dp421
g14
I0
sg29
F0.7976994807445505
sg15
I01
sbsg14
I1
sg16
I01
sg17
g19
sbsg30
(imyEvolve
Tree
p422
(dp423
g7
(imyEvolve
Tree
p424
(dp425
g14
I0
sg15
I00
sbsg14
I1
sg16
I01
sg17
g48
sbsg16
I00
sg17
g43
sbsg16
I00
sg17
g43
sbsg16
I00
sg17
g43
sba(imyEvolve
Tree
p426
(dp427
g7
(imyEvolve
Tree
p428
(dp429
g14
I2
sg22
(imyEvolve
Tree
p430
(dp431
g7
(imyEvolve
Tree
p432
(dp433
g14
I0
sg29
F0.7485375310505225
sg15
I01
sbsg14
I1
sg16
I01
sg17
g48
sbsg30
(imyEvolve
Tree
p434
(dp435
g14
I1
sg22
(imyEvolve
Tree
p436
(dp437
g14
I0
sg15
I00
sbsg30
(imyEvolve
Tree
p438
(dp439
g14
I0
sg15
I00
sbsg16
I00
sg17
g49
sbsg16
I00
sg17
g49
sbsg14
I3
sg16
I01
sg17
g48
sba(imyEvolve
Tree
p440
(dp441
g22
(imyEvolve
Tree
p442
(dp443
g7
(imyEvolve
Tree
p444
(dp445
g22
(imyEvolve
Tree
p446
(dp447
g7
(imyEvolve
Tree
p448
(dp449
g22
(imyEvolve
Tree
p450
(dp451
g14
I0
sg15
I00
sbsg14
I1
sg30
(imyEvolve
Tree
p452
(dp453
g14
I0
sg29
F4.6137419990963995
sg15
I01
sbsg16
I00
sg17
g43
sbsg14
I2
sg16
I01
sg17
g18
sbsg14
I3
sg30
(imyEvolve
Tree
p454
(dp455
g22
(imyEvolve
Tree
p456
(dp457
g22
(imyEvolve
Tree
p458
(dp459
g14
I0
sg29
F4.187754054368021
sg15
I01
sbsg14
I1
sg30
(imyEvolve
Tree
p460
(dp461
g14
I0
sg29
F4.109180833659183
sg15
I01
sbsg16
I00
sg17
g33
sbsg14
I2
sg30
(imyEvolve
Tree
p462
(dp463
g22
(imyEvolve
Tree
p464
(dp465
g14
I0
sg15
I00
sbsg14
I1
sg30
(imyEvolve
Tree
p466
(dp467
g14
I0
sg29
F-0.2965696124342667
sg15
I01
sbsg16
I00
sg17
g43
sbsg16
I00
sg17
g49
sbsg16
I00
sg17
g33
sbsg14
I4
sg16
I01
sg17
g18
sbsg14
I5
sg30
(imyEvolve
Tree
p468
(dp469
g22
(imyEvolve
Tree
p470
(dp471
g22
(imyEvolve
Tree
p472
(dp473
g22
(imyEvolve
Tree
p474
(dp475
g22
(imyEvolve
Tree
p476
(dp477
g14
I0
sg15
I00
sbsg14
I1
sg30
(imyEvolve
Tree
p478
(dp479
g14
I0
sg15
I00
sbsg16
I00
sg17
g33
sbsg14
I2
sg30
(imyEvolve
Tree
p480
(dp481
g7
(imyEvolve
Tree
p482
(dp483
g14
I0
sg15
I00
sbsg14
I1
sg16
I01
sg17
g34
sbsg16
I00
sg17
g49
sbsg14
I3
sg30
(imyEvolve
Tree
p484
(dp485
g7
(imyEvolve
Tree
p486
(dp487
g22
(imyEvolve
Tree
p488
(dp489
g14
I0
sg15
I00
sbsg14
I1
sg30
(imyEvolve
Tree
p490
(dp491
g14
I0
sg15
I00
sbsg16
I00
sg17
g43
sbsg14
I2
sg16
I01
sg17
g19
sbsg16
I00
sg17
g33
sbsg14
I4
sg30
(imyEvolve
Tree
p492
(dp493
g7
(imyEvolve
Tree
p494
(dp495
g22
(imyEvolve
Tree
p496
(dp497
g22
(imyEvolve
Tree
p498
(dp499
g14
I0
sg15
I00
sbsg14
I1
sg30
(imyEvolve
Tree
p500
(dp501
g14
I0
sg15
I00
sbsg16
I00
sg17
g43
sbsg14
I2
sg30
(imyEvolve
Tree
p502
(dp503
g22
(imyEvolve
Tree
p504
(dp505
g14
I0
sg29
F4.0254278823044345
sg15
I01
sbsg14
I1
sg30
(imyEvolve
Tree
p506
(dp507
g14
I0
sg15
I00
sbsg16
I00
sg17
g49
sbsg16
I00
sg17
g33
sbsg14
I3
sg16
I01
sg17
g34
sbsg16
I00
sg17
g43
sbsg16
I00
sg17
g33
sba(imyEvolve
Tree
p508
(dp509
g14
I2
sg22
(imyEvolve
Tree
p510
(dp511
g14
I1
sg22
(imyEvolve
Tree
p512
(dp513
g14
I0
sg15
I00
sbsg30
(imyEvolve
Tree
p514
(dp515
g14
I0
sg29
F3.948965314136272
sg15
I01
sbsg16
I00
sg17
g49
sbsg30
(imyEvolve
Tree
p516
(dp517
g7
(imyEvolve
Tree
p518
(dp519
g14
I0
sg29
F-4.732473877621989
sg15
I01
sbsg14
I1
sg16
I01
sg17
g34
sbsg16
I00
sg17
g43
sbaa(lp520
(imyEvolve
Tree
p521
(dp522
g14
I4
sg22
(imyEvolve
Tree
p523
(dp524
g14
I3
sg22
(imyEvolve
Tree
p525
(dp526
g7
(imyEvolve
Tree
p527
(dp528
g7
(imyEvolve
Tree
p529
(dp530
g14
I0
sg15
I00
sbsg14
I1
sg16
I01
sg17
g19
sbsg14
I2
sg16
I01
sg17
g34
sbsg30
(imyEvolve
Tree
p531
(dp532
g7
(imyEvolve
Tree
p533
(dp534
g14
I1
sg22
(imyEvolve
Tree
p535
(dp536
g14
I0
sg29
F-3.3205490209185995
sg15
I01
sbsg30
(imyEvolve
Tree
p537
(dp538
g14
I0
sg15
I00
sbsg16
I00
sg17
g49
sbsg14
I2
sg16
I01
sg17
g48
sbsg16
I00
sg17
g43
sbsg30
(imyEvolve
Tree
p539
(dp540
g14
I3
sg22
(imyEvolve
Tree
p541
(dp542
g14
I2
sg22
(imyEvolve
Tree
p543
(dp544
g14
I1
sg22
(imyEvolve
Tree
p545
(dp546
g14
I0
sg15
I00
sbsg30
(imyEvolve
Tree
p547
(dp548
g14
I0
sg29
F4.395982807168986
sg15
I01
sbsg16
I00
sg17
g49
sbsg30
(imyEvolve
Tree
p549
(dp550
g14
I1
sg22
(imyEvolve
Tree
p551
(dp552
g14
I0
sg29
F4.831007135881311
sg15
I01
sbsg30
(imyEvolve
Tree
p553
(dp554
g14
I0
sg29
F-4.952293907692059
sg15
I01
sbsg16
I00
sg17
g49
sbsg16
I00
sg17
g33
sbsg30
(imyEvolve
Tree
p555
(dp556
g7
(imyEvolve
Tree
p557
(dp558
g14
I1
sg22
(imyEvolve
Tree
p559
(dp560
g14
I0
sg29
F-1.1441096770074566
sg15
I01
sbsg30
(imyEvolve
Tree
p561
(dp562
g14
I0
sg15
I00
sbsg16
I00
sg17
g43
sbsg14
I2
sg16
I01
sg17
g18
sbsg16
I00
sg17
g43
sbsg16
I00
sg17
g43
sba(imyEvolve
Tree
p563
(dp564
g22
(imyEvolve
Tree
p565
(dp566
g7
(imyEvolve
Tree
p567
(dp568
g14
I0
sg29
F3.6303689249808784
sg15
I01
sbsg14
I1
sg16
I01
sg17
g19
sbsg14
I2
sg30
(imyEvolve
Tree
p569
(dp570
g7
(imyEvolve
Tree
p571
(dp572
g14
I0
sg15
I00
sbsg14
I1
sg16
I01
sg17
g19
sbsg16
I00
sg17
g33
sba(imyEvolve
Tree
p573
(dp574
g22
(imyEvolve
Tree
p575
(dp576
g7
(imyEvolve
Tree
p577
(dp578
g7
(imyEvolve
Tree
p579
(dp580
g14
I0
sg15
I00
sbsg14
I1
sg16
I01
sg17
g19
sbsg14
I2
sg16
I01
sg17
g19
sbsg14
I3
sg30
(imyEvolve
Tree
p581
(dp582
g22
(imyEvolve
Tree
p583
(dp584
g22
(imyEvolve
Tree
p585
(dp586
g14
I0
sg29
F-3.2349969979401108
sg15
I01
sbsg14
I1
sg30
(imyEvolve
Tree
p587
(dp588
g14
I0
sg15
I00
sbsg16
I00
sg17
g33
sbsg14
I2
sg30
(imyEvolve
Tree
p589
(dp590
g22
(imyEvolve
Tree
p591
(dp592
g14
I0
sg29
F3.450323439949136
sg15
I01
sbsg14
I1
sg30
(imyEvolve
Tree
p593
(dp594
g14
I0
sg15
I00
sbsg16
I00
sg17
g49
sbsg16
I00
sg17
g49
sbsg16
I00
sg17
g49
sba(imyEvolve
Tree
p595
(dp596
g7
(imyEvolve
Tree
p597
(dp598
g7
(imyEvolve
Tree
p599
(dp600
g14
I0
sg15
I00
sbsg14
I1
sg16
I01
sg17
g34
sbsg14
I2
sg16
I01
sg17
g34
sba(imyEvolve
Tree
p601
(dp602
g7
(imyEvolve
Tree
p603
(dp604
g7
(imyEvolve
Tree
p605
(dp606
g22
(imyEvolve
Tree
p607
(dp608
g7
(imyEvolve
Tree
p609
(dp610
g14
I0
sg29
F1.079034952624581
sg15
I01
sbsg14
I1
sg16
I01
sg17
g19
sbsg14
I2
sg30
(imyEvolve
Tree
p611
(dp612
g7
(imyEvolve
Tree
p613
(dp614
g14
I0
sg15
I00
sbsg14
I1
sg16
I01
sg17
g48
sbsg16
I00
sg17
g43
sbsg14
I3
sg16
I01
sg17
g19
sbsg14
I4
sg16
I01
sg17
g18
sba(imyEvolve
Tree
p615
(dp616
g7
(imyEvolve
Tree
p617
(dp618
g22
(imyEvolve
Tree
p619
(dp620
g22
(imyEvolve
Tree
p621
(dp622
g14
I0
sg29
F-0.1894346779309375
sg15
I01
sbsg14
I1
sg30
(imyEvolve
Tree
p623
(dp624
g14
I0
sg29
F-1.372944929387189
sg15
I01
sbsg16
I00
sg17
g49
sbsg14
I2
sg30
(imyEvolve
Tree
p625
(dp626
g7
(imyEvolve
Tree
p627
(dp628
g14
I0
sg29
F-4.510334855593234
sg15
I01
sbsg14
I1
sg16
I01
sg17
g48
sbsg16
I00
sg17
g33
sbsg14
I3
sg16
I01
sg17
g19
sba(imyEvolve
Tree
p629
(dp630
g22
(imyEvolve
Tree
p631
(dp632
g7
(imyEvolve
Tree
p633
(dp634
g14
I0
sg29
F1.7198692565316556
sg15
I01
sbsg14
I1
sg16
I01
sg17
g48
sbsg14
I2
sg30
(imyEvolve
Tree
p635
(dp636
g7
(imyEvolve
Tree
p637
(dp638
g14
I0
sg29
F2.8804175337243523
sg15
I01
sbsg14
I1
sg16
I01
sg17
g19
sbsg16
I00
sg17
g49
sba(imyEvolve
Tree
p639
(dp640
g7
(imyEvolve
Tree
p641
(dp642
g7
(imyEvolve
Tree
p643
(dp644
g14
I1
sg22
(imyEvolve
Tree
p645
(dp646
g14
I0
sg29
F0.20141086045291523
sg15
I01
sbsg30
(imyEvolve
Tree
p647
(dp648
g14
I0
sg15
I00
sbsg16
I00
sg17
g33
sbsg14
I2
sg16
I01
sg17
g18
sbsg14
I3
sg16
I01
sg17
g34
sba(imyEvolve
Tree
p649
(dp650
g7
(imyEvolve
Tree
p651
(dp652
g7
(imyEvolve
Tree
p653
(dp654
g14
I0
sg15
I00
sbsg14
I1
sg16
I01
sg17
g18
sbsg14
I2
sg16
I01
sg17
g18
sba(imyEvolve
Tree
p655
(dp656
g14
I3
sg22
(imyEvolve
Tree
p657
(dp658
g7
(imyEvolve
Tree
p659
(dp660
g14
I1
sg22
(imyEvolve
Tree
p661
(dp662
g14
I0
sg29
F3.3793895285805764
sg15
I01
sbsg30
(imyEvolve
Tree
p663
(dp664
g14
I0
sg29
F3.341244148148647
sg15
I01
sbsg16
I00
sg17
g33
sbsg14
I2
sg16
I01
sg17
g18
sbsg30
(imyEvolve
Tree
p665
(dp666
g7
(imyEvolve
Tree
p667
(dp668
g7
(imyEvolve
Tree
p669
(dp670
g14
I0
sg15
I00
sbsg14
I1
sg16
I01
sg17
g19
sbsg14
I2
sg16
I01
sg17
g34
sbsg16
I00
sg17
g43
sba(imyEvolve
Tree
p671
(dp672
g7
(imyEvolve
Tree
p673
(dp674
g7
(imyEvolve
Tree
p675
(dp676
g22
(imyEvolve
Tree
p677
(dp678
g14
I0
sg29
F1.5540374423131
sg15
I01
sbsg14
I1
sg30
(imyEvolve
Tree
p679
(dp680
g14
I0
sg29
F-1.6027916877869708
sg15
I01
sbsg16
I00
sg17
g43
sbsg14
I2
sg16
I01
sg17
g48
sbsg14
I3
sg16
I01
sg17
g18
sba(imyEvolve
Tree
p681
(dp682
g22
(imyEvolve
Tree
p683
(dp684
g22
(imyEvolve
Tree
p685
(dp686
g7
(imyEvolve
Tree
p687
(dp688
g22
(imyEvolve
Tree
p689
(dp690
g22
(imyEvolve
Tree
p691
(dp692
g14
I0
sg29
F-0.9314163753962585
sg15
I01
sbsg14
I1
sg30
(imyEvolve
Tree
p693
(dp694
g14
I0
sg15
I00
sbsg16
I00
sg17
g43
sbsg14
I2
sg30
(imyEvolve
Tree
p695
(dp696
g22
(imyEvolve
Tree
p697
(dp698
g14
I0
sg15
I00
sbsg14
I1
sg30
(imyEvolve
Tree
p699
(dp700
g14
I0
sg15
I00
sbsg16
I00
sg17
g49
sbsg16
I00
sg17
g43
sbsg14
I3
sg16
I01
sg17
g34
sbsg14
I4
sg30
(imyEvolve
Tree
p701
(dp702
g22
(imyEvolve
Tree
p703
(dp704
g22
(imyEvolve
Tree
p705
(dp706
g7
(imyEvolve
Tree
p707
(dp708
g14
I0
sg15
I00
sbsg14
I1
sg16
I01
sg17
g48
sbsg14
I2
sg30
(imyEvolve
Tree
p709
(dp710
g7
(imyEvolve
Tree
p711
(dp712
g14
I0
sg15
I00
sbsg14
I1
sg16
I01
sg17
g48
sbsg16
I00
sg17
g43
sbsg14
I3
sg30
(imyEvolve
Tree
p713
(dp714
g7
(imyEvolve
Tree
p715
(dp716
g7
(imyEvolve
Tree
p717
(dp718
g14
I0
sg29
F4.468926905194827
sg15
I01
sbsg14
I1
sg16
I01
sg17
g18
sbsg14
I2
sg16
I01
sg17
g34
sbsg16
I00
sg17
g49
sbsg16
I00
sg17
g43
sbsg14
I5
sg30
(imyEvolve
Tree
p719
(dp720
g7
(imyEvolve
Tree
p721
(dp722
g22
(imyEvolve
Tree
p723
(dp724
g7
(imyEvolve
Tree
p725
(dp726
g7
(imyEvolve
Tree
p727
(dp728
g14
I0
sg15
I00
sbsg14
I1
sg16
I01
sg17
g19
sbsg14
I2
sg16
I01
sg17
g18
sbsg14
I3
sg30
(imyEvolve
Tree
p729
(dp730
g7
(imyEvolve
Tree
p731
(dp732
g7
(imyEvolve
Tree
p733
(dp734
g14
I0
sg15
I00
sbsg14
I1
sg16
I01
sg17
g48
sbsg14
I2
sg16
I01
sg17
g48
sbsg16
I00
sg17
g43
sbsg14
I4
sg16
I01
sg17
g48
sbsg16
I00
sg17
g33
sba(imyEvolve
Tree
p735
(dp736
g22
(imyEvolve
Tree
p737
(dp738
g22
(imyEvolve
Tree
p739
(dp740
g22
(imyEvolve
Tree
p741
(dp742
g7
(imyEvolve
Tree
p743
(dp744
g22
(imyEvolve
Tree
p745
(dp746
g14
I0
sg29
F-0.013924324626381157
sg15
I01
sbsg14
I1
sg30
(imyEvolve
Tree
p747
(dp748
g14
I0
sg15
I00
sbsg16
I00
sg17
g33
sbsg14
I2
sg16
I01
sg17
g18
sbsg14
I3
sg30
(imyEvolve
Tree
p749
(dp750
g7
(imyEvolve
Tree
p751
(dp752
g22
(imyEvolve
Tree
p753
(dp754
g14
I0
sg29
F-1.4477807121821251
sg15
I01
sbsg14
I1
sg30
(imyEvolve
Tree
p755
(dp756
g14
I0
sg15
I00
sbsg16
I00
sg17
g49
sbsg14
I2
sg16
I01
sg17
g48
sbsg16
I00
sg17
g33
sbsg14
I4
sg30
(imyEvolve
Tree
p757
(dp758
g22
(imyEvolve
Tree
p759
(dp760
g22
(imyEvolve
Tree
p761
(dp762
g22
(imyEvolve
Tree
p763
(dp764
g14
I0
sg29
F-3.9684167087332645
sg15
I01
sbsg14
I1
sg30
(imyEvolve
Tree
p765
(dp766
g14
I0
sg29
F-1.768354326554602
sg15
I01
sbsg16
I00
sg17
g49
sbsg14
I2
sg30
(imyEvolve
Tree
p767
(dp768
g22
(imyEvolve
Tree
p769
(dp770
g14
I0
sg15
I00
sbsg14
I1
sg30
(imyEvolve
Tree
p771
(dp772
g14
I0
sg15
I00
sbsg16
I00
sg17
g49
sbsg16
I00
sg17
g33
sbsg14
I3
sg30
(imyEvolve
Tree
p773
(dp774
g7
(imyEvolve
Tree
p775
(dp776
g22
(imyEvolve
Tree
p777
(dp778
g14
I0
sg15
I00
sbsg14
I1
sg30
(imyEvolve
Tree
p779
(dp780
g14
I0
sg29
F-4.217186234463686
sg15
I01
sbsg16
I00
sg17
g33
sbsg14
I2
sg16
I01
sg17
g18
sbsg16
I00
sg17
g43
sbsg16
I00
sg17
g49
sbsg14
I5
sg30
(imyEvolve
Tree
p781
(dp782
g7
(imyEvolve
Tree
p783
(dp784
g7
(imyEvolve
Tree
p785
(dp786
g7
(imyEvolve
Tree
p787
(dp788
g22
(imyEvolve
Tree
p789
(dp790
g14
I0
sg29
F-0.7021194204076862
sg15
I01
sbsg14
I1
sg30
(imyEvolve
Tree
p791
(dp792
g14
I0
sg29
F4.772250290562283
sg15
I01
sbsg16
I00
sg17
g33
sbsg14
I2
sg16
I01
sg17
g34
sbsg14
I3
sg16
I01
sg17
g34
sbsg14
I4
sg16
I01
sg17
g48
sbsg16
I00
sg17
g33
sba(imyEvolve
Tree
p793
(dp794
g14
I3
sg22
(imyEvolve
Tree
p795
(dp796
g7
(imyEvolve
Tree
p797
(dp798
g7
(imyEvolve
Tree
p799
(dp800
g14
I0
sg15
I00
sbsg14
I1
sg16
I01
sg17
g34
sbsg14
I2
sg16
I01
sg17
g48
sbsg30
(imyEvolve
Tree
p801
(dp802
g14
I2
sg22
(imyEvolve
Tree
p803
(dp804
g14
I1
sg22
(imyEvolve
Tree
p805
(dp806
g14
I0
sg15
I00
sbsg30
(imyEvolve
Tree
p807
(dp808
g14
I0
sg29
F-1.4924150329726182
sg15
I01
sbsg16
I00
sg17
g33
sbsg30
(imyEvolve
Tree
p809
(dp810
g7
(imyEvolve
Tree
p811
(dp812
g14
I0
sg29
F-0.9059845268729241
sg15
I01
sbsg14
I1
sg16
I01
sg17
g18
sbsg16
I00
sg17
g43
sbsg16
I00
sg17
g43
sba(imyEvolve
Tree
p813
(dp814
g7
(imyEvolve
Tree
p815
(dp816
g7
(imyEvolve
Tree
p817
(dp818
g22
(imyEvolve
Tree
p819
(dp820
g14
I0
sg29
F-0.3723743554197121
sg15
I01
sbsg14
I1
sg30
(imyEvolve
Tree
p821
(dp822
g14
I0
sg29
F-3.974977288558379
sg15
I01
sbsg16
I00
sg17
g43
sbsg14
I2
sg16
I01
sg17
g48
sbsg14
I3
sg16
I01
sg17
g34
sba(imyEvolve
Tree
p823
(dp824
g7
(imyEvolve
Tree
p825
(dp826
g7
(imyEvolve
Tree
p827
(dp828
g14
I0
sg15
I00
sbsg14
I1
sg16
I01
sg17
g34
sbsg14
I2
sg16
I01
sg17
g48
sbaasS'alpha'
p829
F0.0012068478921166473
sS'fitness'
p830
cnumpy.core.multiarray
scalar
p831
(cnumpy
dtype
p832
(S'f8'
p833
I0
I1
tp834
Rp835
(I3
S'<'
p836
NNNI-1
I-1
I0
tp837
bS'%u\x028\xc7"\xe6?'
p838
tp839
Rp840
sS'weightSharing'
p841
(lp842
I01
asS'fitnessValid'
p843
I00
sS'resolution'
p844
I81
sb.