(imyEvolve
Individual
p0
(dp1
S'funcs'
p2
(lp3
(lp4
(imyEvolve
Tree
p5
(dp6
S'below'
p7
(imyEvolve
Tree
p8
(dp9
g7
(imyEvolve
Tree
p10
(dp11
S'depth'
p12
I3
sS'left'
p13
(imyEvolve
Tree
p14
(dp15
g12
I2
sg13
(imyEvolve
Tree
p16
(dp17
g7
(imyEvolve
Tree
p18
(dp19
g12
I0
sS'constant'
p20
F1.7556765247601884
sS'isConstant'
p21
I01
sbsg12
I1
sS'single'
p22
I01
sS'op'
p23
cmyEvolve
absSqrt
p24
sbsS'right'
p25
(imyEvolve
Tree
p26
(dp27
g12
I1
sg13
(imyEvolve
Tree
p28
(dp29
g12
I0
sg21
I00
sbsg25
(imyEvolve
Tree
p30
(dp31
g12
I0
sg21
I00
sbsg22
I00
sg23
coperator
sub
p32
sbsg22
I00
sg23
g32
sbsg25
(imyEvolve
Tree
p33
(dp34
g7
(imyEvolve
Tree
p35
(dp36
g12
I1
sg13
(imyEvolve
Tree
p37
(dp38
g12
I0
sg21
I00
sbsg25
(imyEvolve
Tree
p39
(dp40
g12
I0
sg20
F0.24887929370349404
sg21
I01
sbsg22
I00
sg23
coperator
mul
p41
sbsg12
I2
sg22
I01
sg23
g24
sbsg22
I00
sg23
g32
sbsg12
I4
sg22
I01
sg23
cmath
cos
p42
sbsg12
I5
sg22
I01
sg23
cmyEvolve
square
p43
sba(imyEvolve
Tree
p44
(dp45
g7
(imyEvolve
Tree
p46
(dp47
g12
I2
sg13
(imyEvolve
Tree
p48
(dp49
g7
(imyEvolve
Tree
p50
(dp51
g12
I0
sg21
I00
sbsg12
I1
sg22
I01
sg23
g43
sbsg25
(imyEvolve
Tree
p52
(dp53
g12
I1
sg13
(imyEvolve
Tree
p54
(dp55
g12
I0
sg20
F-0.6937710729619582
sg21
I01
sbsg25
(imyEvolve
Tree
p56
(dp57
g12
I0
sg21
I00
sbsg22
I00
sg23
g32
sbsg22
I00
sg23
g32
sbsg12
I3
sg22
I01
sg23
cmath
sin
p58
sba(imyEvolve
Tree
p59
(dp60
g12
I4
sg13
(imyEvolve
Tree
p61
(dp62
g7
(imyEvolve
Tree
p63
(dp64
g12
I2
sg13
(imyEvolve
Tree
p65
(dp66
g12
I1
sg13
(imyEvolve
Tree
p67
(dp68
g12
I0
sg20
F-0.3693138688372608
sg21
I01
sbsg25
(imyEvolve
Tree
p69
(dp70
g12
I0
sg21
I00
sbsg22
I00
sg23
coperator
add
p71
sbsg25
(imyEvolve
Tree
p72
(dp73
g7
(imyEvolve
Tree
p74
(dp75
g12
I0
sg20
F-3.4232584349687323
sg21
I01
sbsg12
I1
sg22
I01
sg23
g24
sbsg22
I00
sg23
g41
sbsg12
I3
sg22
I01
sg23
g24
sbsg25
(imyEvolve
Tree
p76
(dp77
g12
I3
sg13
(imyEvolve
Tree
p78
(dp79
g7
(imyEvolve
Tree
p80
(dp81
g7
(imyEvolve
Tree
p82
(dp83
g12
I0
sg20
F-0.030592768380093283
sg21
I01
sbsg12
I1
sg22
I01
sg23
g43
sbsg12
I2
sg22
I01
sg23
g43
sbsg25
(imyEvolve
Tree
p84
(dp85
g12
I2
sg13
(imyEvolve
Tree
p86
(dp87
g7
(imyEvolve
Tree
p88
(dp89
g12
I0
sg21
I00
sbsg12
I1
sg22
I01
sg23
g42
sbsg25
(imyEvolve
Tree
p90
(dp91
g12
I1
sg13
(imyEvolve
Tree
p92
(dp93
g12
I0
sg20
F3.9407750086637936
sg21
I01
sbsg25
(imyEvolve
Tree
p94
(dp95
g12
I0
sg20
F-3.0184961238354058
sg21
I01
sbsg22
I00
sg23
g71
sbsg22
I00
sg23
g71
sbsg22
I00
sg23
g41
sbsg22
I00
sg23
g71
sba(imyEvolve
Tree
p96
(dp97
g12
I4
sg13
(imyEvolve
Tree
p98
(dp99
g12
I3
sg13
(imyEvolve
Tree
p100
(dp101
g12
I2
sg13
(imyEvolve
Tree
p102
(dp103
g7
(imyEvolve
Tree
p104
(dp105
g12
I0
sg21
I00
sbsg12
I1
sg22
I01
sg23
g24
sbsg25
(imyEvolve
Tree
p106
(dp107
g7
(imyEvolve
Tree
p108
(dp109
g12
I0
sg20
F-2.6368807768492584
sg21
I01
sbsg12
I1
sg22
I01
sg23
g42
sbsg22
I00
sg23
g32
sbsg25
(imyEvolve
Tree
p110
(dp111
g7
(imyEvolve
Tree
p112
(dp113
g7
(imyEvolve
Tree
p114
(dp115
g12
I0
sg21
I00
sbsg12
I1
sg22
I01
sg23
g43
sbsg12
I2
sg22
I01
sg23
g58
sbsg22
I00
sg23
g71
sbsg25
(imyEvolve
Tree
p116
(dp117
g12
I3
sg13
(imyEvolve
Tree
p118
(dp119
g12
I2
sg13
(imyEvolve
Tree
p120
(dp121
g7
(imyEvolve
Tree
p122
(dp123
g12
I0
sg21
I00
sbsg12
I1
sg22
I01
sg23
g24
sbsg25
(imyEvolve
Tree
p124
(dp125
g12
I1
sg13
(imyEvolve
Tree
p126
(dp127
g12
I0
sg20
F-3.4145673920267328
sg21
I01
sbsg25
(imyEvolve
Tree
p128
(dp129
g12
I0
sg20
F-1.0537600123720212
sg21
I01
sbsg22
I00
sg23
g32
sbsg22
I00
sg23
g32
sbsg25
(imyEvolve
Tree
p130
(dp131
g7
(imyEvolve
Tree
p132
(dp133
g12
I1
sg13
(imyEvolve
Tree
p134
(dp135
g12
I0
sg21
I00
sbsg25
(imyEvolve
Tree
p136
(dp137
g12
I0
sg21
I00
sbsg22
I00
sg23
g41
sbsg12
I2
sg22
I01
sg23
g24
sbsg22
I00
sg23
g71
sbsg22
I00
sg23
g32
sba(imyEvolve
Tree
p138
(dp139
g7
(imyEvolve
Tree
p140
(dp141
g7
(imyEvolve
Tree
p142
(dp143
g7
(imyEvolve
Tree
p144
(dp145
g12
I1
sg13
(imyEvolve
Tree
p146
(dp147
g12
I0
sg21
I00
sbsg25
(imyEvolve
Tree
p148
(dp149
g12
I0
sg20
F4.6403350353852755
sg21
I01
sbsg22
I00
sg23
g71
sbsg12
I2
sg22
I01
sg23
g42
sbsg12
I3
sg22
I01
sg23
g42
sbsg12
I4
sg22
I01
sg23
g43
sba(imyEvolve
Tree
p150
(dp151
g7
(imyEvolve
Tree
p152
(dp153
g12
I4
sg13
(imyEvolve
Tree
p154
(dp155
g12
I3
sg13
(imyEvolve
Tree
p156
(dp157
g12
I2
sg13
(imyEvolve
Tree
p158
(dp159
g7
(imyEvolve
Tree
p160
(dp161
g12
I0
sg20
F4.646871832925129
sg21
I01
sbsg12
I1
sg22
I01
sg23
g43
sbsg25
(imyEvolve
Tree
p162
(dp163
g7
(imyEvolve
Tree
p164
(dp165
g12
I0
sg20
F2.6233888245450574
sg21
I01
sbsg12
I1
sg22
I01
sg23
g58
sbsg22
I00
sg23
g71
sbsg25
(imyEvolve
Tree
p166
(dp167
g12
I2
sg13
(imyEvolve
Tree
p168
(dp169
g7
(imyEvolve
Tree
p170
(dp171
g12
I0
sg20
F-1.4303079375061314
sg21
I01
sbsg12
I1
sg22
I01
sg23
g58
sbsg25
(imyEvolve
Tree
p172
(dp173
g12
I1
sg13
(imyEvolve
Tree
p174
(dp175
g12
I0
sg21
I00
sbsg25
(imyEvolve
Tree
p176
(dp177
g12
I0
sg20
F0.21802320972922207
sg21
I01
sbsg22
I00
sg23
g71
sbsg22
I00
sg23
g41
sbsg22
I00
sg23
g32
sbsg25
(imyEvolve
Tree
p178
(dp179
g7
(imyEvolve
Tree
p180
(dp181
g12
I2
sg13
(imyEvolve
Tree
p182
(dp183
g7
(imyEvolve
Tree
p184
(dp185
g12
I0
sg20
F3.3285568884409624
sg21
I01
sbsg12
I1
sg22
I01
sg23
g24
sbsg25
(imyEvolve
Tree
p186
(dp187
g7
(imyEvolve
Tree
p188
(dp189
g12
I0
sg20
F4.467300401954672
sg21
I01
sbsg12
I1
sg22
I01
sg23
g43
sbsg22
I00
sg23
g32
sbsg12
I3
sg22
I01
sg23
g42
sbsg22
I00
sg23
g32
sbsg12
I5
sg22
I01
sg23
g24
sba(imyEvolve
Tree
p190
(dp191
g12
I3
sg13
(imyEvolve
Tree
p192
(dp193
g12
I2
sg13
(imyEvolve
Tree
p194
(dp195
g12
I1
sg13
(imyEvolve
Tree
p196
(dp197
g12
I0
sg20
F2.4572983948158713
sg21
I01
sbsg25
(imyEvolve
Tree
p198
(dp199
g12
I0
sg21
I00
sbsg22
I00
sg23
g32
sbsg25
(imyEvolve
Tree
p200
(dp201
g7
(imyEvolve
Tree
p202
(dp203
g12
I0
sg21
I00
sbsg12
I1
sg22
I01
sg23
g58
sbsg22
I00
sg23
g71
sbsg25
(imyEvolve
Tree
p204
(dp205
g12
I2
sg13
(imyEvolve
Tree
p206
(dp207
g12
I1
sg13
(imyEvolve
Tree
p208
(dp209
g12
I0
sg20
F3.355245410547557
sg21
I01
sbsg25
(imyEvolve
Tree
p210
(dp211
g12
I0
sg20
F-3.6629027631683773
sg21
I01
sbsg22
I00
sg23
g41
sbsg25
(imyEvolve
Tree
p212
(dp213
g7
(imyEvolve
Tree
p214
(dp215
g12
I0
sg21
I00
sbsg12
I1
sg22
I01
sg23
g43
sbsg22
I00
sg23
g32
sbsg22
I00
sg23
g32
sba(imyEvolve
Tree
p216
(dp217
g7
(imyEvolve
Tree
p218
(dp219
g7
(imyEvolve
Tree
p220
(dp221
g12
I2
sg13
(imyEvolve
Tree
p222
(dp223
g7
(imyEvolve
Tree
p224
(dp225
g12
I0
sg21
I00
sbsg12
I1
sg22
I01
sg23
g24
sbsg25
(imyEvolve
Tree
p226
(dp227
g12
I1
sg13
(imyEvolve
Tree
p228
(dp229
g12
I0
sg20
F-3.657768350222014
sg21
I01
sbsg25
(imyEvolve
Tree
p230
(dp231
g12
I0
sg20
F1.3794653511163437
sg21
I01
sbsg22
I00
sg23
g71
sbsg22
I00
sg23
g41
sbsg12
I3
sg22
I01
sg23
g43
sbsg12
I4
sg22
I01
sg23
g43
sba(imyEvolve
Tree
p232
(dp233
g12
I4
sg13
(imyEvolve
Tree
p234
(dp235
g7
(imyEvolve
Tree
p236
(dp237
g12
I2
sg13
(imyEvolve
Tree
p238
(dp239
g7
(imyEvolve
Tree
p240
(dp241
g12
I0
sg20
F-3.5389589215913544
sg21
I01
sbsg12
I1
sg22
I01
sg23
g43
sbsg25
(imyEvolve
Tree
p242
(dp243
g12
I1
sg13
(imyEvolve
Tree
p244
(dp245
g12
I0
sg20
F3.2425056036232647
sg21
I01
sbsg25
(imyEvolve
Tree
p246
(dp247
g12
I0
sg21
I00
sbsg22
I00
sg23
g71
sbsg22
I00
sg23
g41
sbsg12
I3
sg22
I01
sg23
g24
sbsg25
(imyEvolve
Tree
p248
(dp249
g7
(imyEvolve
Tree
p250
(dp251
g12
I2
sg13
(imyEvolve
Tree
p252
(dp253
g7
(imyEvolve
Tree
p254
(dp255
g12
I0
sg21
I00
sbsg12
I1
sg22
I01
sg23
g58
sbsg25
(imyEvolve
Tree
p256
(dp257
g12
I1
sg13
(imyEvolve
Tree
p258
(dp259
g12
I0
sg21
I00
sbsg25
(imyEvolve
Tree
p260
(dp261
g12
I0
sg21
I00
sbsg22
I00
sg23
g41
sbsg22
I00
sg23
g32
sbsg12
I3
sg22
I01
sg23
g42
sbsg22
I00
sg23
g32
sba(imyEvolve
Tree
p262
(dp263
g12
I4
sg13
(imyEvolve
Tree
p264
(dp265
g7
(imyEvolve
Tree
p266
(dp267
g12
I2
sg13
(imyEvolve
Tree
p268
(dp269
g7
(imyEvolve
Tree
p270
(dp271
g12
I0
sg20
F-3.7910627226170277
sg21
I01
sbsg12
I1
sg22
I01
sg23
g58
sbsg25
(imyEvolve
Tree
p272
(dp273
g12
I1
sg13
(imyEvolve
Tree
p274
(dp275
g12
I0
sg20
F-3.0333479422300202
sg21
I01
sbsg25
(imyEvolve
Tree
p276
(dp277
g12
I0
sg20
F-0.25549121357428994
sg21
I01
sbsg22
I00
sg23
g32
sbsg22
I00
sg23
g71
sbsg12
I3
sg22
I01
sg23
g43
sbsg25
(imyEvolve
Tree
p278
(dp279
g12
I3
sg13
(imyEvolve
Tree
p280
(dp281
g12
I2
sg13
(imyEvolve
Tree
p282
(dp283
g7
(imyEvolve
Tree
p284
(dp285
g12
I0
sg20
F-1.3422910062500923
sg21
I01
sbsg12
I1
sg22
I01
sg23
g58
sbsg25
(imyEvolve
Tree
p286
(dp287
g12
I1
sg13
(imyEvolve
Tree
p288
(dp289
g12
I0
sg20
F-3.6935722314705366
sg21
I01
sbsg25
(imyEvolve
Tree
p290
(dp291
g12
I0
sg21
I00
sbsg22
I00
sg23
g32
sbsg22
I00
sg23
g41
sbsg25
(imyEvolve
Tree
p292
(dp293
g7
(imyEvolve
Tree
p294
(dp295
g7
(imyEvolve
Tree
p296
(dp297
g12
I0
sg21
I00
sbsg12
I1
sg22
I01
sg23
g43
sbsg12
I2
sg22
I01
sg23
g43
sbsg22
I00
sg23
g41
sbsg22
I00
sg23
g71
sba(imyEvolve
Tree
p298
(dp299
g7
(imyEvolve
Tree
p300
(dp301
g7
(imyEvolve
Tree
p302
(dp303
g12
I2
sg13
(imyEvolve
Tree
p304
(dp305
g7
(imyEvolve
Tree
p306
(dp307
g12
I0
sg21
I00
sbsg12
I1
sg22
I01
sg23
g43
sbsg25
(imyEvolve
Tree
p308
(dp309
g7
(imyEvolve
Tree
p310
(dp311
g12
I0
sg21
I00
sbsg12
I1
sg22
I01
sg23
g43
sbsg22
I00
sg23
g41
sbsg12
I3
sg22
I01
sg23
g24
sbsg12
I4
sg22
I01
sg23
g24
sba(imyEvolve
Tree
p312
(dp313
g12
I4
sg13
(imyEvolve
Tree
p314
(dp315
g12
I3
sg13
(imyEvolve
Tree
p316
(dp317
g12
I2
sg13
(imyEvolve
Tree
p318
(dp319
g12
I1
sg13
(imyEvolve
Tree
p320
(dp321
g12
I0
sg20
F-1.7182438163661882
sg21
I01
sbsg25
(imyEvolve
Tree
p322
(dp323
g12
I0
sg20
F0.5370372764602704
sg21
I01
sbsg22
I00
sg23
g32
sbsg25
(imyEvolve
Tree
p324
(dp325
g7
(imyEvolve
Tree
p326
(dp327
g12
I0
sg21
I00
sbsg12
I1
sg22
I01
sg23
g43
sbsg22
I00
sg23
g71
sbsg25
(imyEvolve
Tree
p328
(dp329
g7
(imyEvolve
Tree
p330
(dp331
g7
(imyEvolve
Tree
p332
(dp333
g12
I0
sg21
I00
sbsg12
I1
sg22
I01
sg23
g58
sbsg12
I2
sg22
I01
sg23
g24
sbsg22
I00
sg23
g32
sbsg25
(imyEvolve
Tree
p334
(dp335
g12
I3
sg13
(imyEvolve
Tree
p336
(dp337
g7
(imyEvolve
Tree
p338
(dp339
g12
I1
sg13
(imyEvolve
Tree
p340
(dp341
g12
I0
sg20
F3.2305423419493113
sg21
I01
sbsg25
(imyEvolve
Tree
p342
(dp343
g12
I0
sg20
F3.7346870360119127
sg21
I01
sbsg22
I00
sg23
g71
sbsg12
I2
sg22
I01
sg23
g58
sbsg25
(imyEvolve
Tree
p344
(dp345
g12
I2
sg13
(imyEvolve
Tree
p346
(dp347
g12
I1
sg13
(imyEvolve
Tree
p348
(dp349
g12
I0
sg21
I00
sbsg25
(imyEvolve
Tree
p350
(dp351
g12
I0
sg21
I00
sbsg22
I00
sg23
g71
sbsg25
(imyEvolve
Tree
p352
(dp353
g7
(imyEvolve
Tree
p354
(dp355
g12
I0
sg21
I00
sbsg12
I1
sg22
I01
sg23
g24
sbsg22
I00
sg23
g41
sbsg22
I00
sg23
g41
sbsg22
I00
sg23
g41
sba(imyEvolve
Tree
p356
(dp357
g12
I5
sg13
(imyEvolve
Tree
p358
(dp359
g12
I4
sg13
(imyEvolve
Tree
p360
(dp361
g7
(imyEvolve
Tree
p362
(dp363
g7
(imyEvolve
Tree
p364
(dp365
g12
I1
sg13
(imyEvolve
Tree
p366
(dp367
g12
I0
sg20
F0.16020980362532722
sg21
I01
sbsg25
(imyEvolve
Tree
p368
(dp369
g12
I0
sg21
I00
sbsg22
I00
sg23
g32
sbsg12
I2
sg22
I01
sg23
g43
sbsg12
I3
sg22
I01
sg23
g24
sbsg25
(imyEvolve
Tree
p370
(dp371
g7
(imyEvolve
Tree
p372
(dp373
g7
(imyEvolve
Tree
p374
(dp375
g7
(imyEvolve
Tree
p376
(dp377
g12
I0
sg21
I00
sbsg12
I1
sg22
I01
sg23
g58
sbsg12
I2
sg22
I01
sg23
g24
sbsg12
I3
sg22
I01
sg23
g42
sbsg22
I00
sg23
g41
sbsg25
(imyEvolve
Tree
p378
(dp379
g12
I4
sg13
(imyEvolve
Tree
p380
(dp381
g7
(imyEvolve
Tree
p382
(dp383
g12
I2
sg13
(imyEvolve
Tree
p384
(dp385
g12
I1
sg13
(imyEvolve
Tree
p386
(dp387
g12
I0
sg21
I00
sbsg25
(imyEvolve
Tree
p388
(dp389
g12
I0
sg20
F-3.3211391745466123
sg21
I01
sbsg22
I00
sg23
g71
sbsg25
(imyEvolve
Tree
p390
(dp391
g12
I1
sg13
(imyEvolve
Tree
p392
(dp393
g12
I0
sg20
F1.8145322777117014
sg21
I01
sbsg25
(imyEvolve
Tree
p394
(dp395
g12
I0
sg21
I00
sbsg22
I00
sg23
g71
sbsg22
I00
sg23
g32
sbsg12
I3
sg22
I01
sg23
g24
sbsg25
(imyEvolve
Tree
p396
(dp397
g12
I3
sg13
(imyEvolve
Tree
p398
(dp399
g7
(imyEvolve
Tree
p400
(dp401
g12
I1
sg13
(imyEvolve
Tree
p402
(dp403
g12
I0
sg21
I00
sbsg25
(imyEvolve
Tree
p404
(dp405
g12
I0
sg21
I00
sbsg22
I00
sg23
g41
sbsg12
I2
sg22
I01
sg23
g42
sbsg25
(imyEvolve
Tree
p406
(dp407
g7
(imyEvolve
Tree
p408
(dp409
g12
I1
sg13
(imyEvolve
Tree
p410
(dp411
g12
I0
sg20
F-2.24221609415057
sg21
I01
sbsg25
(imyEvolve
Tree
p412
(dp413
g12
I0
sg20
F0.18785423092673614
sg21
I01
sbsg22
I00
sg23
g71
sbsg12
I2
sg22
I01
sg23
g24
sbsg22
I00
sg23
g71
sbsg22
I00
sg23
g41
sbsg22
I00
sg23
g41
sba(imyEvolve
Tree
p414
(dp415
g7
(imyEvolve
Tree
p416
(dp417
g7
(imyEvolve
Tree
p418
(dp419
g12
I3
sg13
(imyEvolve
Tree
p420
(dp421
g7
(imyEvolve
Tree
p422
(dp423
g7
(imyEvolve
Tree
p424
(dp425
g12
I0
sg20
F4.517267912020301
sg21
I01
sbsg12
I1
sg22
I01
sg23
g58
sbsg12
I2
sg22
I01
sg23
g42
sbsg25
(imyEvolve
Tree
p426
(dp427
g12
I2
sg13
(imyEvolve
Tree
p428
(dp429
g12
I1
sg13
(imyEvolve
Tree
p430
(dp431
g12
I0
sg21
I00
sbsg25
(imyEvolve
Tree
p432
(dp433
g12
I0
sg21
I00
sbsg22
I00
sg23
g32
sbsg25
(imyEvolve
Tree
p434
(dp435
g7
(imyEvolve
Tree
p436
(dp437
g12
I0
sg21
I00
sbsg12
I1
sg22
I01
sg23
g42
sbsg22
I00
sg23
g32
sbsg22
I00
sg23
g71
sbsg12
I4
sg22
I01
sg23
g24
sbsg12
I5
sg22
I01
sg23
g58
sba(imyEvolve
Tree
p438
(dp439
g7
(imyEvolve
Tree
p440
(dp441
g12
I2
sg13
(imyEvolve
Tree
p442
(dp443
g12
I1
sg13
(imyEvolve
Tree
p444
(dp445
g12
I0
sg20
F0.3986245864321001
sg21
I01
sbsg25
(imyEvolve
Tree
p446
(dp447
g12
I0
sg20
F-1.488301710044313
sg21
I01
sbsg22
I00
sg23
g71
sbsg25
(imyEvolve
Tree
p448
(dp449
g12
I1
sg13
(imyEvolve
Tree
p450
(dp451
g12
I0
sg21
I00
sbsg25
(imyEvolve
Tree
p452
(dp453
g12
I0
sg20
F0.1450115853781222
sg21
I01
sbsg22
I00
sg23
g41
sbsg22
I00
sg23
g32
sbsg12
I3
sg22
I01
sg23
g58
sbaasS'weightSharing'
p454
(lp455
I00
aI00
aI00
aI00
aI00
aI00
aI00
aI00
aI00
aI00
aI00
asS'fitnessValid'
p456
I00
sS'fitness'
p457
cnumpy.core.multiarray
scalar
p458
(cnumpy
dtype
p459
(S'f8'
p460
I0
I1
tp461
Rp462
(I3
S'<'
p463
NNNI-1
I-1
I0
tp464
bS'\x00<\xdfO\xc7\x05g\xbf'
p465
tp466
Rp467
sS'alpha'
p468
F0.0022461649025224467
sS'resolution'
p469
I72
sb.