(imyEvolve
Individual
p0
(dp1
S'funcs'
p2
(lp3
(lp4
(imyEvolve
Tree
p5
(dp6
S'below'
p7
(imyEvolve
Tree
p8
(dp9
g7
(imyEvolve
Tree
p10
(dp11
S'depth'
p12
I1
sS'left'
p13
(imyEvolve
Tree
p14
(dp15
g12
I0
sS'isConstant'
p16
I00
sbsS'right'
p17
(imyEvolve
Tree
p18
(dp19
g12
I0
sS'constant'
p20
F-2.6593569640840586
sg16
I01
sbsS'single'
p21
I00
sS'op'
p22
coperator
sub
p23
sbsg12
I2
sg21
I01
sg22
cmyEvolve
square
p24
sbsg12
I3
sg21
I01
sg22
g24
sba(imyEvolve
Tree
p25
(dp26
g7
(imyEvolve
Tree
p27
(dp28
g12
I2
sg13
(imyEvolve
Tree
p29
(dp30
g12
I1
sg13
(imyEvolve
Tree
p31
(dp32
g12
I0
sg20
F4.3027967391036235
sg16
I01
sbsg17
(imyEvolve
Tree
p33
(dp34
g12
I0
sg16
I00
sbsg21
I00
sg22
coperator
add
p35
sbsg17
(imyEvolve
Tree
p36
(dp37
g7
(imyEvolve
Tree
p38
(dp39
g12
I0
sg16
I00
sbsg12
I1
sg21
I01
sg22
g24
sbsg21
I00
sg22
g35
sbsg12
I3
sg21
I01
sg22
cmyEvolve
absSqrt
p40
sba(imyEvolve
Tree
p41
(dp42
g12
I3
sg13
(imyEvolve
Tree
p43
(dp44
g7
(imyEvolve
Tree
p45
(dp46
g12
I1
sg13
(imyEvolve
Tree
p47
(dp48
g12
I0
sg20
F4.9506734602626885
sg16
I01
sbsg17
(imyEvolve
Tree
p49
(dp50
g12
I0
sg16
I00
sbsg21
I00
sg22
g23
sbsg12
I2
sg21
I01
sg22
cmath
cos
p51
sbsg17
(imyEvolve
Tree
p52
(dp53
g12
I2
sg13
(imyEvolve
Tree
p54
(dp55
g12
I1
sg13
(imyEvolve
Tree
p56
(dp57
g12
I0
sg16
I00
sbsg17
(imyEvolve
Tree
p58
(dp59
g12
I0
sg16
I00
sbsg21
I00
sg22
coperator
mul
p60
sbsg17
(imyEvolve
Tree
p61
(dp62
g12
I1
sg13
(imyEvolve
Tree
p63
(dp64
g12
I0
sg16
I00
sbsg17
(imyEvolve
Tree
p65
(dp66
g12
I0
sg16
I00
sbsg21
I00
sg22
g60
sbsg21
I00
sg22
g23
sbsg21
I00
sg22
g35
sba(imyEvolve
Tree
p67
(dp68
g12
I5
sg13
(imyEvolve
Tree
p69
(dp70
g7
(imyEvolve
Tree
p71
(dp72
g12
I3
sg13
(imyEvolve
Tree
p73
(dp74
g12
I2
sg13
(imyEvolve
Tree
p75
(dp76
g12
I1
sg13
(imyEvolve
Tree
p77
(dp78
g12
I0
sg20
F3.6889259153313265
sg16
I01
sbsg17
(imyEvolve
Tree
p79
(dp80
g12
I0
sg16
I00
sbsg21
I00
sg22
g23
sbsg17
(imyEvolve
Tree
p81
(dp82
g12
I1
sg13
(imyEvolve
Tree
p83
(dp84
g12
I0
sg16
I00
sbsg17
(imyEvolve
Tree
p85
(dp86
g12
I0
sg16
I00
sbsg21
I00
sg22
g23
sbsg21
I00
sg22
g35
sbsg17
(imyEvolve
Tree
p87
(dp88
g12
I2
sg13
(imyEvolve
Tree
p89
(dp90
g12
I1
sg13
(imyEvolve
Tree
p91
(dp92
g12
I0
sg16
I00
sbsg17
(imyEvolve
Tree
p93
(dp94
g12
I0
sg20
F2.176331688697494
sg16
I01
sbsg21
I00
sg22
g23
sbsg17
(imyEvolve
Tree
p95
(dp96
g7
(imyEvolve
Tree
p97
(dp98
g12
I0
sg16
I00
sbsg12
I1
sg21
I01
sg22
g24
sbsg21
I00
sg22
g60
sbsg21
I00
sg22
g35
sbsg12
I4
sg21
I01
sg22
g24
sbsg17
(imyEvolve
Tree
p99
(dp100
g7
(imyEvolve
Tree
p101
(dp102
g7
(imyEvolve
Tree
p103
(dp104
g12
I2
sg13
(imyEvolve
Tree
p105
(dp106
g12
I1
sg13
(imyEvolve
Tree
p107
(dp108
g12
I0
sg20
F-4.618274285077945
sg16
I01
sbsg17
(imyEvolve
Tree
p109
(dp110
g12
I0
sg16
I00
sbsg21
I00
sg22
g23
sbsg17
(imyEvolve
Tree
p111
(dp112
g12
I1
sg13
(imyEvolve
Tree
p113
(dp114
g12
I0
sg20
F-2.5404243450576027
sg16
I01
sbsg17
(imyEvolve
Tree
p115
(dp116
g12
I0
sg16
I00
sbsg21
I00
sg22
g60
sbsg21
I00
sg22
g35
sbsg12
I3
sg21
I01
sg22
cmath
sin
p117
sbsg12
I4
sg21
I01
sg22
g40
sbsg21
I00
sg22
g60
sba(imyEvolve
Tree
p118
(dp119
g12
I4
sg13
(imyEvolve
Tree
p120
(dp121
g7
(imyEvolve
Tree
p122
(dp123
g7
(imyEvolve
Tree
p124
(dp125
g12
I1
sg13
(imyEvolve
Tree
p126
(dp127
g12
I0
sg16
I00
sbsg17
(imyEvolve
Tree
p128
(dp129
g12
I0
sg20
F-1.4066008628947357
sg16
I01
sbsg21
I00
sg22
g23
sbsg12
I2
sg21
I01
sg22
g24
sbsg12
I3
sg21
I01
sg22
g51
sbsg17
(imyEvolve
Tree
p130
(dp131
g12
I3
sg13
(imyEvolve
Tree
p132
(dp133
g12
I2
sg13
(imyEvolve
Tree
p134
(dp135
g12
I1
sg13
(imyEvolve
Tree
p136
(dp137
g12
I0
sg16
I00
sbsg17
(imyEvolve
Tree
p138
(dp139
g12
I0
sg16
I00
sbsg21
I00
sg22
g35
sbsg17
(imyEvolve
Tree
p140
(dp141
g7
(imyEvolve
Tree
p142
(dp143
g12
I0
sg20
F2.697930943585356
sg16
I01
sbsg12
I1
sg21
I01
sg22
g40
sbsg21
I00
sg22
g23
sbsg17
(imyEvolve
Tree
p144
(dp145
g7
(imyEvolve
Tree
p146
(dp147
g12
I1
sg13
(imyEvolve
Tree
p148
(dp149
g12
I0
sg20
F4.247224318129984
sg16
I01
sbsg17
(imyEvolve
Tree
p150
(dp151
g12
I0
sg16
I00
sbsg21
I00
sg22
g60
sbsg12
I2
sg21
I01
sg22
g40
sbsg21
I00
sg22
g23
sbsg21
I00
sg22
g35
sba(imyEvolve
Tree
p152
(dp153
g12
I2
sg13
(imyEvolve
Tree
p154
(dp155
g12
I1
sg13
(imyEvolve
Tree
p156
(dp157
g12
I0
sg20
F1.1143265232198836
sg16
I01
sbsg17
(imyEvolve
Tree
p158
(dp159
g12
I0
sg16
I00
sbsg21
I00
sg22
g23
sbsg17
(imyEvolve
Tree
p160
(dp161
g12
I1
sg13
(imyEvolve
Tree
p162
(dp163
g12
I0
sg16
I00
sbsg17
(imyEvolve
Tree
p164
(dp165
g12
I0
sg16
I00
sbsg21
I00
sg22
g60
sbsg21
I00
sg22
g23
sba(imyEvolve
Tree
p166
(dp167
g7
(imyEvolve
Tree
p168
(dp169
g12
I4
sg13
(imyEvolve
Tree
p170
(dp171
g7
(imyEvolve
Tree
p172
(dp173
g12
I2
sg13
(imyEvolve
Tree
p174
(dp175
g7
(imyEvolve
Tree
p176
(dp177
g12
I0
sg16
I00
sbsg12
I1
sg21
I01
sg22
g117
sbsg17
(imyEvolve
Tree
p178
(dp179
g7
(imyEvolve
Tree
p180
(dp181
g12
I0
sg20
F2.4223100901371284
sg16
I01
sbsg12
I1
sg21
I01
sg22
g51
sbsg21
I00
sg22
g35
sbsg12
I3
sg21
I01
sg22
g51
sbsg17
(imyEvolve
Tree
p182
(dp183
g7
(imyEvolve
Tree
p184
(dp185
g7
(imyEvolve
Tree
p186
(dp187
g12
I1
sg13
(imyEvolve
Tree
p188
(dp189
g12
I0
sg16
I00
sbsg17
(imyEvolve
Tree
p190
(dp191
g12
I0
sg20
F3.7298774429417954
sg16
I01
sbsg21
I00
sg22
g23
sbsg12
I2
sg21
I01
sg22
g51
sbsg12
I3
sg21
I01
sg22
g24
sbsg21
I00
sg22
g60
sbsg12
I5
sg21
I01
sg22
g51
sba(imyEvolve
Tree
p192
(dp193
g7
(imyEvolve
Tree
p194
(dp195
g7
(imyEvolve
Tree
p196
(dp197
g12
I2
sg13
(imyEvolve
Tree
p198
(dp199
g12
I1
sg13
(imyEvolve
Tree
p200
(dp201
g12
I0
sg20
F2.4646191684877605
sg16
I01
sbsg17
(imyEvolve
Tree
p202
(dp203
g12
I0
sg20
F4.1932226391234
sg16
I01
sbsg21
I00
sg22
g23
sbsg17
(imyEvolve
Tree
p204
(dp205
g7
(imyEvolve
Tree
p206
(dp207
g12
I0
sg20
F-2.683484867878546
sg16
I01
sbsg12
I1
sg21
I01
sg22
g24
sbsg21
I00
sg22
g60
sbsg12
I3
sg21
I01
sg22
g117
sbsg12
I4
sg21
I01
sg22
g117
sba(imyEvolve
Tree
p208
(dp209
g12
I4
sg13
(imyEvolve
Tree
p210
(dp211
g7
(imyEvolve
Tree
p212
(dp213
g12
I2
sg13
(imyEvolve
Tree
p214
(dp215
g7
(imyEvolve
Tree
p216
(dp217
g12
I0
sg20
F1.2987234215863115
sg16
I01
sbsg12
I1
sg21
I01
sg22
g24
sbsg17
(imyEvolve
Tree
p218
(dp219
g12
I1
sg13
(imyEvolve
Tree
p220
(dp221
g12
I0
sg16
I00
sbsg17
(imyEvolve
Tree
p222
(dp223
g12
I0
sg16
I00
sbsg21
I00
sg22
g60
sbsg21
I00
sg22
g60
sbsg12
I3
sg21
I01
sg22
g40
sbsg17
(imyEvolve
Tree
p224
(dp225
g12
I3
sg13
(imyEvolve
Tree
p226
(dp227
g7
(imyEvolve
Tree
p228
(dp229
g12
I1
sg13
(imyEvolve
Tree
p230
(dp231
g12
I0
sg20
F-0.7479273318660473
sg16
I01
sbsg17
(imyEvolve
Tree
p232
(dp233
g12
I0
sg20
F2.9826668145943334
sg16
I01
sbsg21
I00
sg22
g35
sbsg12
I2
sg21
I01
sg22
g24
sbsg17
(imyEvolve
Tree
p234
(dp235
g12
I2
sg13
(imyEvolve
Tree
p236
(dp237
g12
I1
sg13
(imyEvolve
Tree
p238
(dp239
g12
I0
sg16
I00
sbsg17
(imyEvolve
Tree
p240
(dp241
g12
I0
sg16
I00
sbsg21
I00
sg22
g23
sbsg17
(imyEvolve
Tree
p242
(dp243
g7
(imyEvolve
Tree
p244
(dp245
g12
I0
sg16
I00
sbsg12
I1
sg21
I01
sg22
g24
sbsg21
I00
sg22
g23
sbsg21
I00
sg22
g35
sbsg21
I00
sg22
g35
sba(imyEvolve
Tree
p246
(dp247
g7
(imyEvolve
Tree
p248
(dp249
g12
I1
sg13
(imyEvolve
Tree
p250
(dp251
g12
I0
sg20
F-4.919442485710796
sg16
I01
sbsg17
(imyEvolve
Tree
p252
(dp253
g12
I0
sg20
F2.3330785805961654
sg16
I01
sbsg21
I00
sg22
g23
sbsg12
I2
sg21
I01
sg22
g24
sba(imyEvolve
Tree
p254
(dp255
g12
I4
sg13
(imyEvolve
Tree
p256
(dp257
g12
I3
sg13
(imyEvolve
Tree
p258
(dp259
g12
I2
sg13
(imyEvolve
Tree
p260
(dp261
g7
(imyEvolve
Tree
p262
(dp263
g12
I0
sg20
F3.834979815376542
sg16
I01
sbsg12
I1
sg21
I01
sg22
g24
sbsg17
(imyEvolve
Tree
p264
(dp265
g12
I1
sg13
(imyEvolve
Tree
p266
(dp267
g12
I0
sg16
I00
sbsg17
(imyEvolve
Tree
p268
(dp269
g12
I0
sg16
I00
sbsg21
I00
sg22
g60
sbsg21
I00
sg22
g60
sbsg17
(imyEvolve
Tree
p270
(dp271
g12
I2
sg13
(imyEvolve
Tree
p272
(dp273
g12
I1
sg13
(imyEvolve
Tree
p274
(dp275
g12
I0
sg20
F2.338517153300801
sg16
I01
sbsg17
(imyEvolve
Tree
p276
(dp277
g12
I0
sg20
F4.602431504853369
sg16
I01
sbsg21
I00
sg22
g23
sbsg17
(imyEvolve
Tree
p278
(dp279
g7
(imyEvolve
Tree
p280
(dp281
g12
I0
sg20
F2.479562313682033
sg16
I01
sbsg12
I1
sg21
I01
sg22
g24
sbsg21
I00
sg22
g23
sbsg21
I00
sg22
g23
sbsg17
(imyEvolve
Tree
p282
(dp283
g12
I3
sg13
(imyEvolve
Tree
p284
(dp285
g12
I2
sg13
(imyEvolve
Tree
p286
(dp287
g7
(imyEvolve
Tree
p288
(dp289
g12
I0
sg20
F3.295288298892954
sg16
I01
sbsg12
I1
sg21
I01
sg22
g117
sbsg17
(imyEvolve
Tree
p290
(dp291
g12
I1
sg13
(imyEvolve
Tree
p292
(dp293
g12
I0
sg20
F-0.4762662058660254
sg16
I01
sbsg17
(imyEvolve
Tree
p294
(dp295
g12
I0
sg20
F1.7742865581059455
sg16
I01
sbsg21
I00
sg22
g60
sbsg21
I00
sg22
g23
sbsg17
(imyEvolve
Tree
p296
(dp297
g7
(imyEvolve
Tree
p298
(dp299
g7
(imyEvolve
Tree
p300
(dp301
g12
I0
sg20
F2.4972697633421124
sg16
I01
sbsg12
I1
sg21
I01
sg22
g40
sbsg12
I2
sg21
I01
sg22
g51
sbsg21
I00
sg22
g35
sbsg21
I00
sg22
g35
sba(imyEvolve
Tree
p302
(dp303
g12
I4
sg13
(imyEvolve
Tree
p304
(dp305
g7
(imyEvolve
Tree
p306
(dp307
g12
I2
sg13
(imyEvolve
Tree
p308
(dp309
g12
I1
sg13
(imyEvolve
Tree
p310
(dp311
g12
I0
sg16
I00
sbsg17
(imyEvolve
Tree
p312
(dp313
g12
I0
sg20
F-2.5559755950932663
sg16
I01
sbsg21
I00
sg22
g35
sbsg17
(imyEvolve
Tree
p314
(dp315
g12
I1
sg13
(imyEvolve
Tree
p316
(dp317
g12
I0
sg16
I00
sbsg17
(imyEvolve
Tree
p318
(dp319
g12
I0
sg16
I00
sbsg21
I00
sg22
g35
sbsg21
I00
sg22
g60
sbsg12
I3
sg21
I01
sg22
g51
sbsg17
(imyEvolve
Tree
p320
(dp321
g7
(imyEvolve
Tree
p322
(dp323
g12
I2
sg13
(imyEvolve
Tree
p324
(dp325
g12
I1
sg13
(imyEvolve
Tree
p326
(dp327
g12
I0
sg20
F2.211555695284309
sg16
I01
sbsg17
(imyEvolve
Tree
p328
(dp329
g12
I0
sg20
F4.742004463145243
sg16
I01
sbsg21
I00
sg22
g23
sbsg17
(imyEvolve
Tree
p330
(dp331
g7
(imyEvolve
Tree
p332
(dp333
g12
I0
sg16
I00
sbsg12
I1
sg21
I01
sg22
g51
sbsg21
I00
sg22
g35
sbsg12
I3
sg21
I01
sg22
g51
sbsg21
I00
sg22
g60
sba(imyEvolve
Tree
p334
(dp335
g7
(imyEvolve
Tree
p336
(dp337
g7
(imyEvolve
Tree
p338
(dp339
g12
I1
sg13
(imyEvolve
Tree
p340
(dp341
g12
I0
sg16
I00
sbsg17
(imyEvolve
Tree
p342
(dp343
g12
I0
sg16
I00
sbsg21
I00
sg22
g23
sbsg12
I2
sg21
I01
sg22
g117
sbsg12
I3
sg21
I01
sg22
g24
sba(imyEvolve
Tree
p344
(dp345
g12
I4
sg13
(imyEvolve
Tree
p346
(dp347
g7
(imyEvolve
Tree
p348
(dp349
g12
I2
sg13
(imyEvolve
Tree
p350
(dp351
g12
I1
sg13
(imyEvolve
Tree
p352
(dp353
g12
I0
sg20
F0.3608443217713777
sg16
I01
sbsg17
(imyEvolve
Tree
p354
(dp355
g12
I0
sg16
I00
sbsg21
I00
sg22
g35
sbsg17
(imyEvolve
Tree
p356
(dp357
g7
(imyEvolve
Tree
p358
(dp359
g12
I0
sg16
I00
sbsg12
I1
sg21
I01
sg22
g24
sbsg21
I00
sg22
g23
sbsg12
I3
sg21
I01
sg22
g117
sbsg17
(imyEvolve
Tree
p360
(dp361
g12
I3
sg13
(imyEvolve
Tree
p362
(dp363
g7
(imyEvolve
Tree
p364
(dp365
g7
(imyEvolve
Tree
p366
(dp367
g12
I0
sg20
F-4.581093170021504
sg16
I01
sbsg12
I1
sg21
I01
sg22
g40
sbsg12
I2
sg21
I01
sg22
g40
sbsg17
(imyEvolve
Tree
p368
(dp369
g12
I2
sg13
(imyEvolve
Tree
p370
(dp371
g12
I1
sg13
(imyEvolve
Tree
p372
(dp373
g12
I0
sg20
F1.3717307832965373
sg16
I01
sbsg17
(imyEvolve
Tree
p374
(dp375
g12
I0
sg16
I00
sbsg21
I00
sg22
g23
sbsg17
(imyEvolve
Tree
p376
(dp377
g12
I1
sg13
(imyEvolve
Tree
p378
(dp379
g12
I0
sg20
F-4.499055436386254
sg16
I01
sbsg17
(imyEvolve
Tree
p380
(dp381
g12
I0
sg20
F0.7508797342060269
sg16
I01
sbsg21
I00
sg22
g60
sbsg21
I00
sg22
g23
sbsg21
I00
sg22
g35
sbsg21
I00
sg22
g35
sba(imyEvolve
Tree
p382
(dp383
g12
I2
sg13
(imyEvolve
Tree
p384
(dp385
g12
I1
sg13
(imyEvolve
Tree
p386
(dp387
g12
I0
sg20
F-1.7153328019974188
sg16
I01
sbsg17
(imyEvolve
Tree
p388
(dp389
g12
I0
sg16
I00
sbsg21
I00
sg22
g60
sbsg17
(imyEvolve
Tree
p390
(dp391
g7
(imyEvolve
Tree
p392
(dp393
g12
I0
sg16
I00
sbsg12
I1
sg21
I01
sg22
g24
sbsg21
I00
sg22
g35
sba(imyEvolve
Tree
p394
(dp395
g12
I3
sg13
(imyEvolve
Tree
p396
(dp397
g7
(imyEvolve
Tree
p398
(dp399
g12
I1
sg13
(imyEvolve
Tree
p400
(dp401
g12
I0
sg16
I00
sbsg17
(imyEvolve
Tree
p402
(dp403
g12
I0
sg20
F4.185367739398119
sg16
I01
sbsg21
I00
sg22
g60
sbsg12
I2
sg21
I01
sg22
g24
sbsg17
(imyEvolve
Tree
p404
(dp405
g12
I2
sg13
(imyEvolve
Tree
p406
(dp407
g12
I1
sg13
(imyEvolve
Tree
p408
(dp409
g12
I0
sg16
I00
sbsg17
(imyEvolve
Tree
p410
(dp411
g12
I0
sg16
I00
sbsg21
I00
sg22
g35
sbsg17
(imyEvolve
Tree
p412
(dp413
g7
(imyEvolve
Tree
p414
(dp415
g12
I0
sg16
I00
sbsg12
I1
sg21
I01
sg22
g24
sbsg21
I00
sg22
g23
sbsg21
I00
sg22
g60
sba(imyEvolve
Tree
p416
(dp417
g12
I4
sg13
(imyEvolve
Tree
p418
(dp419
g7
(imyEvolve
Tree
p420
(dp421
g12
I2
sg13
(imyEvolve
Tree
p422
(dp423
g7
(imyEvolve
Tree
p424
(dp425
g12
I0
sg16
I00
sbsg12
I1
sg21
I01
sg22
g117
sbsg17
(imyEvolve
Tree
p426
(dp427
g12
I1
sg13
(imyEvolve
Tree
p428
(dp429
g12
I0
sg16
I00
sbsg17
(imyEvolve
Tree
p430
(dp431
g12
I0
sg16
I00
sbsg21
I00
sg22
g23
sbsg21
I00
sg22
g35
sbsg12
I3
sg21
I01
sg22
g40
sbsg17
(imyEvolve
Tree
p432
(dp433
g12
I3
sg13
(imyEvolve
Tree
p434
(dp435
g7
(imyEvolve
Tree
p436
(dp437
g12
I1
sg13
(imyEvolve
Tree
p438
(dp439
g12
I0
sg20
F-2.69557723852744
sg16
I01
sbsg17
(imyEvolve
Tree
p440
(dp441
g12
I0
sg16
I00
sbsg21
I00
sg22
g35
sbsg12
I2
sg21
I01
sg22
g24
sbsg17
(imyEvolve
Tree
p442
(dp443
g12
I2
sg13
(imyEvolve
Tree
p444
(dp445
g12
I1
sg13
(imyEvolve
Tree
p446
(dp447
g12
I0
sg16
I00
sbsg17
(imyEvolve
Tree
p448
(dp449
g12
I0
sg16
I00
sbsg21
I00
sg22
g23
sbsg17
(imyEvolve
Tree
p450
(dp451
g12
I1
sg13
(imyEvolve
Tree
p452
(dp453
g12
I0
sg16
I00
sbsg17
(imyEvolve
Tree
p454
(dp455
g12
I0
sg20
F2.969253067602974
sg16
I01
sbsg21
I00
sg22
g23
sbsg21
I00
sg22
g60
sbsg21
I00
sg22
g60
sbsg21
I00
sg22
g35
sba(imyEvolve
Tree
p456
(dp457
g7
(imyEvolve
Tree
p458
(dp459
g7
(imyEvolve
Tree
p460
(dp461
g12
I0
sg20
F-4.559638909013173
sg16
I01
sbsg12
I1
sg21
I01
sg22
g24
sbsg12
I2
sg21
I01
sg22
g40
sba(imyEvolve
Tree
p462
(dp463
g12
I5
sg13
(imyEvolve
Tree
p464
(dp465
g7
(imyEvolve
Tree
p466
(dp467
g12
I3
sg13
(imyEvolve
Tree
p468
(dp469
g7
(imyEvolve
Tree
p470
(dp471
g12
I1
sg13
(imyEvolve
Tree
p472
(dp473
g12
I0
sg16
I00
sbsg17
(imyEvolve
Tree
p474
(dp475
g12
I0
sg20
F4.303457862682091
sg16
I01
sbsg21
I00
sg22
g35
sbsg12
I2
sg21
I01
sg22
g24
sbsg17
(imyEvolve
Tree
p476
(dp477
g12
I2
sg13
(imyEvolve
Tree
p478
(dp479
g12
I1
sg13
(imyEvolve
Tree
p480
(dp481
g12
I0
sg16
I00
sbsg17
(imyEvolve
Tree
p482
(dp483
g12
I0
sg20
F-4.546224926644882
sg16
I01
sbsg21
I00
sg22
g23
sbsg17
(imyEvolve
Tree
p484
(dp485
g7
(imyEvolve
Tree
p486
(dp487
g12
I0
sg16
I00
sbsg12
I1
sg21
I01
sg22
g24
sbsg21
I00
sg22
g60
sbsg21
I00
sg22
g60
sbsg12
I4
sg21
I01
sg22
g40
sbsg17
(imyEvolve
Tree
p488
(dp489
g12
I4
sg13
(imyEvolve
Tree
p490
(dp491
g12
I3
sg13
(imyEvolve
Tree
p492
(dp493
g12
I2
sg13
(imyEvolve
Tree
p494
(dp495
g7
(imyEvolve
Tree
p496
(dp497
g12
I0
sg20
F-0.4227784400278889
sg16
I01
sbsg12
I1
sg21
I01
sg22
g40
sbsg17
(imyEvolve
Tree
p498
(dp499
g12
I1
sg13
(imyEvolve
Tree
p500
(dp501
g12
I0
sg20
F-3.743970850330205
sg16
I01
sbsg17
(imyEvolve
Tree
p502
(dp503
g12
I0
sg20
F-3.925560407571308
sg16
I01
sbsg21
I00
sg22
g35
sbsg21
I00
sg22
g35
sbsg17
(imyEvolve
Tree
p504
(dp505
g12
I2
sg13
(imyEvolve
Tree
p506
(dp507
g7
(imyEvolve
Tree
p508
(dp509
g12
I0
sg20
F-3.859283969651597
sg16
I01
sbsg12
I1
sg21
I01
sg22
g117
sbsg17
(imyEvolve
Tree
p510
(dp511
g12
I1
sg13
(imyEvolve
Tree
p512
(dp513
g12
I0
sg16
I00
sbsg17
(imyEvolve
Tree
p514
(dp515
g12
I0
sg20
F-4.384507691310908
sg16
I01
sbsg21
I00
sg22
g60
sbsg21
I00
sg22
g35
sbsg21
I00
sg22
g60
sbsg17
(imyEvolve
Tree
p516
(dp517
g7
(imyEvolve
Tree
p518
(dp519
g7
(imyEvolve
Tree
p520
(dp521
g7
(imyEvolve
Tree
p522
(dp523
g12
I0
sg20
F-3.5312859335755196
sg16
I01
sbsg12
I1
sg21
I01
sg22
g51
sbsg12
I2
sg21
I01
sg22
g117
sbsg12
I3
sg21
I01
sg22
g24
sbsg21
I00
sg22
g23
sbsg21
I00
sg22
g23
sba(imyEvolve
Tree
p524
(dp525
g12
I4
sg13
(imyEvolve
Tree
p526
(dp527
g7
(imyEvolve
Tree
p528
(dp529
g12
I2
sg13
(imyEvolve
Tree
p530
(dp531
g7
(imyEvolve
Tree
p532
(dp533
g12
I0
sg20
F4.380058402870722
sg16
I01
sbsg12
I1
sg21
I01
sg22
g51
sbsg17
(imyEvolve
Tree
p534
(dp535
g7
(imyEvolve
Tree
p536
(dp537
g12
I0
sg16
I00
sbsg12
I1
sg21
I01
sg22
g24
sbsg21
I00
sg22
g23
sbsg12
I3
sg21
I01
sg22
g51
sbsg17
(imyEvolve
Tree
p538
(dp539
g7
(imyEvolve
Tree
p540
(dp541
g12
I2
sg13
(imyEvolve
Tree
p542
(dp543
g12
I1
sg13
(imyEvolve
Tree
p544
(dp545
g12
I0
sg16
I00
sbsg17
(imyEvolve
Tree
p546
(dp547
g12
I0
sg16
I00
sbsg21
I00
sg22
g23
sbsg17
(imyEvolve
Tree
p548
(dp549
g12
I1
sg13
(imyEvolve
Tree
p550
(dp551
g12
I0
sg16
I00
sbsg17
(imyEvolve
Tree
p552
(dp553
g12
I0
sg16
I00
sbsg21
I00
sg22
g60
sbsg21
I00
sg22
g35
sbsg12
I3
sg21
I01
sg22
g40
sbsg21
I00
sg22
g23
sbaa(lp554
(imyEvolve
Tree
p555
(dp556
g12
I4
sg13
(imyEvolve
Tree
p557
(dp558
g12
I3
sg13
(imyEvolve
Tree
p559
(dp560
g12
I2
sg13
(imyEvolve
Tree
p561
(dp562
g12
I1
sg13
(imyEvolve
Tree
p563
(dp564
g12
I0
sg20
F-2.4263379761005455
sg16
I01
sbsg17
(imyEvolve
Tree
p565
(dp566
g12
I0
sg20
F-3.5220630869648026
sg16
I01
sbsg21
I00
sg22
g60
sbsg17
(imyEvolve
Tree
p567
(dp568
g7
(imyEvolve
Tree
p569
(dp570
g12
I0
sg20
F4.505882317833903
sg16
I01
sbsg12
I1
sg21
I01
sg22
g24
sbsg21
I00
sg22
g35
sbsg17
(imyEvolve
Tree
p571
(dp572
g12
I2
sg13
(imyEvolve
Tree
p573
(dp574
g12
I1
sg13
(imyEvolve
Tree
p575
(dp576
g12
I0
sg16
I00
sbsg17
(imyEvolve
Tree
p577
(dp578
g12
I0
sg16
I00
sbsg21
I00
sg22
g60
sbsg17
(imyEvolve
Tree
p579
(dp580
g7
(imyEvolve
Tree
p581
(dp582
g12
I0
sg16
I00
sbsg12
I1
sg21
I01
sg22
g117
sbsg21
I00
sg22
g35
sbsg21
I00
sg22
g60
sbsg17
(imyEvolve
Tree
p583
(dp584
g7
(imyEvolve
Tree
p585
(dp586
g12
I2
sg13
(imyEvolve
Tree
p587
(dp588
g7
(imyEvolve
Tree
p589
(dp590
g12
I0
sg20
F-4.9432075886289155
sg16
I01
sbsg12
I1
sg21
I01
sg22
g24
sbsg17
(imyEvolve
Tree
p591
(dp592
g7
(imyEvolve
Tree
p593
(dp594
g12
I0
sg16
I00
sbsg12
I1
sg21
I01
sg22
g51
sbsg21
I00
sg22
g60
sbsg12
I3
sg21
I01
sg22
g117
sbsg21
I00
sg22
g23
sba(imyEvolve
Tree
p595
(dp596
g7
(imyEvolve
Tree
p597
(dp598
g7
(imyEvolve
Tree
p599
(dp600
g12
I0
sg20
F-2.617106606919651
sg16
I01
sbsg12
I1
sg21
I01
sg22
g117
sbsg12
I2
sg21
I01
sg22
g117
sba(imyEvolve
Tree
p601
(dp602
g7
(imyEvolve
Tree
p603
(dp604
g7
(imyEvolve
Tree
p605
(dp606
g12
I0
sg20
F-1.2440151709737393
sg16
I01
sbsg12
I1
sg21
I01
sg22
g117
sbsg12
I2
sg21
I01
sg22
g117
sba(imyEvolve
Tree
p607
(dp608
g12
I2
sg13
(imyEvolve
Tree
p609
(dp610
g7
(imyEvolve
Tree
p611
(dp612
g12
I0
sg16
I00
sbsg12
I1
sg21
I01
sg22
g51
sbsg17
(imyEvolve
Tree
p613
(dp614
g12
I1
sg13
(imyEvolve
Tree
p615
(dp616
g12
I0
sg16
I00
sbsg17
(imyEvolve
Tree
p617
(dp618
g12
I0
sg16
I00
sbsg21
I00
sg22
g35
sbsg21
I00
sg22
g23
sba(imyEvolve
Tree
p619
(dp620
g12
I4
sg13
(imyEvolve
Tree
p621
(dp622
g12
I3
sg13
(imyEvolve
Tree
p623
(dp624
g12
I2
sg13
(imyEvolve
Tree
p625
(dp626
g12
I1
sg13
(imyEvolve
Tree
p627
(dp628
g12
I0
sg16
I00
sbsg17
(imyEvolve
Tree
p629
(dp630
g12
I0
sg16
I00
sbsg21
I00
sg22
g35
sbsg17
(imyEvolve
Tree
p631
(dp632
g7
(imyEvolve
Tree
p633
(dp634
g12
I0
sg20
F2.6106476551167184
sg16
I01
sbsg12
I1
sg21
I01
sg22
g51
sbsg21
I00
sg22
g60
sbsg17
(imyEvolve
Tree
p635
(dp636
g12
I2
sg13
(imyEvolve
Tree
p637
(dp638
g7
(imyEvolve
Tree
p639
(dp640
g12
I0
sg16
I00
sbsg12
I1
sg21
I01
sg22
g117
sbsg17
(imyEvolve
Tree
p641
(dp642
g12
I1
sg13
(imyEvolve
Tree
p643
(dp644
g12
I0
sg20
F0.04068341837807932
sg16
I01
sbsg17
(imyEvolve
Tree
p645
(dp646
g12
I0
sg20
F-2.7001130895380077
sg16
I01
sbsg21
I00
sg22
g23
sbsg21
I00
sg22
g23
sbsg21
I00
sg22
g23
sbsg17
(imyEvolve
Tree
p647
(dp648
g7
(imyEvolve
Tree
p649
(dp650
g7
(imyEvolve
Tree
p651
(dp652
g7
(imyEvolve
Tree
p653
(dp654
g12
I0
sg16
I00
sbsg12
I1
sg21
I01
sg22
g51
sbsg12
I2
sg21
I01
sg22
g117
sbsg12
I3
sg21
I01
sg22
g40
sbsg21
I00
sg22
g23
sba(imyEvolve
Tree
p655
(dp656
g12
I4
sg13
(imyEvolve
Tree
p657
(dp658
g12
I3
sg13
(imyEvolve
Tree
p659
(dp660
g12
I2
sg13
(imyEvolve
Tree
p661
(dp662
g7
(imyEvolve
Tree
p663
(dp664
g12
I0
sg16
I00
sbsg12
I1
sg21
I01
sg22
g40
sbsg17
(imyEvolve
Tree
p665
(dp666
g12
I1
sg13
(imyEvolve
Tree
p667
(dp668
g12
I0
sg16
I00
sbsg17
(imyEvolve
Tree
p669
(dp670
g12
I0
sg16
I00
sbsg21
I00
sg22
g35
sbsg21
I00
sg22
g60
sbsg17
(imyEvolve
Tree
p671
(dp672
g7
(imyEvolve
Tree
p673
(dp674
g7
(imyEvolve
Tree
p675
(dp676
g12
I0
sg20
F-0.9776628178079889
sg16
I01
sbsg12
I1
sg21
I01
sg22
g51
sbsg12
I2
sg21
I01
sg22
g117
sbsg21
I00
sg22
g60
sbsg17
(imyEvolve
Tree
p677
(dp678
g12
I3
sg13
(imyEvolve
Tree
p679
(dp680
g7
(imyEvolve
Tree
p681
(dp682
g7
(imyEvolve
Tree
p683
(dp684
g12
I0
sg16
I00
sbsg12
I1
sg21
I01
sg22
g51
sbsg12
I2
sg21
I01
sg22
g24
sbsg17
(imyEvolve
Tree
p685
(dp686
g7
(imyEvolve
Tree
p687
(dp688
g7
(imyEvolve
Tree
p689
(dp690
g12
I0
sg20
F-2.731225591562488
sg16
I01
sbsg12
I1
sg21
I01
sg22
g24
sbsg12
I2
sg21
I01
sg22
g117
sbsg21
I00
sg22
g35
sbsg21
I00
sg22
g60
sba(imyEvolve
Tree
p691
(dp692
g12
I3
sg13
(imyEvolve
Tree
p693
(dp694
g12
I2
sg13
(imyEvolve
Tree
p695
(dp696
g12
I1
sg13
(imyEvolve
Tree
p697
(dp698
g12
I0
sg16
I00
sbsg17
(imyEvolve
Tree
p699
(dp700
g12
I0
sg16
I00
sbsg21
I00
sg22
g60
sbsg17
(imyEvolve
Tree
p701
(dp702
g12
I1
sg13
(imyEvolve
Tree
p703
(dp704
g12
I0
sg20
F-1.6052176996577803
sg16
I01
sbsg17
(imyEvolve
Tree
p705
(dp706
g12
I0
sg20
F-2.7403371834274584
sg16
I01
sbsg21
I00
sg22
g35
sbsg21
I00
sg22
g60
sbsg17
(imyEvolve
Tree
p707
(dp708
g7
(imyEvolve
Tree
p709
(dp710
g12
I1
sg13
(imyEvolve
Tree
p711
(dp712
g12
I0
sg16
I00
sbsg17
(imyEvolve
Tree
p713
(dp714
g12
I0
sg16
I00
sbsg21
I00
sg22
g35
sbsg12
I2
sg21
I01
sg22
g51
sbsg21
I00
sg22
g35
sba(imyEvolve
Tree
p715
(dp716
g7
(imyEvolve
Tree
p717
(dp718
g7
(imyEvolve
Tree
p719
(dp720
g7
(imyEvolve
Tree
p721
(dp722
g12
I1
sg13
(imyEvolve
Tree
p723
(dp724
g12
I0
sg20
F-2.6329276600615437
sg16
I01
sbsg17
(imyEvolve
Tree
p725
(dp726
g12
I0
sg20
F-3.5592656417192736
sg16
I01
sbsg21
I00
sg22
g60
sbsg12
I2
sg21
I01
sg22
g117
sbsg12
I3
sg21
I01
sg22
g51
sbsg12
I4
sg21
I01
sg22
g117
sba(imyEvolve
Tree
p727
(dp728
g7
(imyEvolve
Tree
p729
(dp730
g7
(imyEvolve
Tree
p731
(dp732
g12
I3
sg13
(imyEvolve
Tree
p733
(dp734
g7
(imyEvolve
Tree
p735
(dp736
g12
I1
sg13
(imyEvolve
Tree
p737
(dp738
g12
I0
sg20
F3.911620789052046
sg16
I01
sbsg17
(imyEvolve
Tree
p739
(dp740
g12
I0
sg20
F-3.075350844893644
sg16
I01
sbsg21
I00
sg22
g35
sbsg12
I2
sg21
I01
sg22
g24
sbsg17
(imyEvolve
Tree
p741
(dp742
g7
(imyEvolve
Tree
p743
(dp744
g12
I1
sg13
(imyEvolve
Tree
p745
(dp746
g12
I0
sg20
F-1.631465437397054
sg16
I01
sbsg17
(imyEvolve
Tree
p747
(dp748
g12
I0
sg20
F-1.9966333386215949
sg16
I01
sbsg21
I00
sg22
g60
sbsg12
I2
sg21
I01
sg22
g24
sbsg21
I00
sg22
g60
sbsg12
I4
sg21
I01
sg22
g24
sbsg12
I5
sg21
I01
sg22
g24
sba(imyEvolve
Tree
p749
(dp750
g7
(imyEvolve
Tree
p751
(dp752
g7
(imyEvolve
Tree
p753
(dp754
g12
I3
sg13
(imyEvolve
Tree
p755
(dp756
g7
(imyEvolve
Tree
p757
(dp758
g12
I1
sg13
(imyEvolve
Tree
p759
(dp760
g12
I0
sg20
F-3.856818001178741
sg16
I01
sbsg17
(imyEvolve
Tree
p761
(dp762
g12
I0
sg16
I00
sbsg21
I00
sg22
g23
sbsg12
I2
sg21
I01
sg22
g51
sbsg17
(imyEvolve
Tree
p763
(dp764
g7
(imyEvolve
Tree
p765
(dp766
g12
I1
sg13
(imyEvolve
Tree
p767
(dp768
g12
I0
sg20
F-0.35304295841629507
sg16
I01
sbsg17
(imyEvolve
Tree
p769
(dp770
g12
I0
sg16
I00
sbsg21
I00
sg22
g23
sbsg12
I2
sg21
I01
sg22
g117
sbsg21
I00
sg22
g35
sbsg12
I4
sg21
I01
sg22
g40
sbsg12
I5
sg21
I01
sg22
g51
sba(imyEvolve
Tree
p771
(dp772
g7
(imyEvolve
Tree
p773
(dp774
g12
I4
sg13
(imyEvolve
Tree
p775
(dp776
g12
I3
sg13
(imyEvolve
Tree
p777
(dp778
g7
(imyEvolve
Tree
p779
(dp780
g7
(imyEvolve
Tree
p781
(dp782
g12
I0
sg20
F-0.8254936579956453
sg16
I01
sbsg12
I1
sg21
I01
sg22
g40
sbsg12
I2
sg21
I01
sg22
g40
sbsg17
(imyEvolve
Tree
p783
(dp784
g12
I2
sg13
(imyEvolve
Tree
p785
(dp786
g12
I1
sg13
(imyEvolve
Tree
p787
(dp788
g12
I0
sg16
I00
sbsg17
(imyEvolve
Tree
p789
(dp790
g12
I0
sg16
I00
sbsg21
I00
sg22
g35
sbsg17
(imyEvolve
Tree
p791
(dp792
g12
I1
sg13
(imyEvolve
Tree
p793
(dp794
g12
I0
sg20
F-1.2361164715983874
sg16
I01
sbsg17
(imyEvolve
Tree
p795
(dp796
g12
I0
sg16
I00
sbsg21
I00
sg22
g23
sbsg21
I00
sg22
g60
sbsg21
I00
sg22
g23
sbsg17
(imyEvolve
Tree
p797
(dp798
g12
I3
sg13
(imyEvolve
Tree
p799
(dp800
g12
I2
sg13
(imyEvolve
Tree
p801
(dp802
g7
(imyEvolve
Tree
p803
(dp804
g12
I0
sg20
F-3.489807228954227
sg16
I01
sbsg12
I1
sg21
I01
sg22
g40
sbsg17
(imyEvolve
Tree
p805
(dp806
g12
I1
sg13
(imyEvolve
Tree
p807
(dp808
g12
I0
sg20
F1.1148356968340343
sg16
I01
sbsg17
(imyEvolve
Tree
p809
(dp810
g12
I0
sg16
I00
sbsg21
I00
sg22
g23
sbsg21
I00
sg22
g35
sbsg17
(imyEvolve
Tree
p811
(dp812
g7
(imyEvolve
Tree
p813
(dp814
g7
(imyEvolve
Tree
p815
(dp816
g12
I0
sg20
F-3.262346018622452
sg16
I01
sbsg12
I1
sg21
I01
sg22
g40
sbsg12
I2
sg21
I01
sg22
g51
sbsg21
I00
sg22
g35
sbsg21
I00
sg22
g60
sbsg12
I5
sg21
I01
sg22
g117
sba(imyEvolve
Tree
p817
(dp818
g7
(imyEvolve
Tree
p819
(dp820
g12
I2
sg13
(imyEvolve
Tree
p821
(dp822
g12
I1
sg13
(imyEvolve
Tree
p823
(dp824
g12
I0
sg20
F3.8958163006243254
sg16
I01
sbsg17
(imyEvolve
Tree
p825
(dp826
g12
I0
sg16
I00
sbsg21
I00
sg22
g35
sbsg17
(imyEvolve
Tree
p827
(dp828
g7
(imyEvolve
Tree
p829
(dp830
g12
I0
sg16
I00
sbsg12
I1
sg21
I01
sg22
g40
sbsg21
I00
sg22
g23
sbsg12
I3
sg21
I01
sg22
g24
sbaasS'weightSharing'
p831
(lp832
I00
aI00
asS'fitnessValid'
p833
I00
sS'fitness'
p834
cnumpy.core.multiarray
scalar
p835
(cnumpy
dtype
p836
(S'f8'
p837
I0
I1
tp838
Rp839
(I3
S'<'
p840
NNNI-1
I-1
I0
tp841
bS'\xd6V\xec\xcax\x1c\xe6?'
p842
tp843
Rp844
sS'alpha'
p845
F0.002206287572876506
sS'resolution'
p846
I71
sb.