(imyEvolve
Individual
p0
(dp1
S'funcs'
p2
(lp3
(lp4
(imyEvolve
Tree
p5
(dp6
S'below'
p7
(imyEvolve
Tree
p8
(dp9
g7
(imyEvolve
Tree
p10
(dp11
S'depth'
p12
I0
sS'isConstant'
p13
I00
sbsg12
I1
sS'single'
p14
I01
sS'op'
p15
cmath
cos
p16
sbsg12
I2
sg14
I01
sg15
g16
sba(imyEvolve
Tree
p17
(dp18
g12
I3
sS'left'
p19
(imyEvolve
Tree
p20
(dp21
g12
I2
sg19
(imyEvolve
Tree
p22
(dp23
g12
I1
sg19
(imyEvolve
Tree
p24
(dp25
g12
I0
sg13
I00
sbsS'right'
p26
(imyEvolve
Tree
p27
(dp28
g12
I0
sS'constant'
p29
F2.0485101708122864
sg13
I01
sbsg14
I00
sg15
coperator
add
p30
sbsg26
(imyEvolve
Tree
p31
(dp32
g12
I1
sg19
(imyEvolve
Tree
p33
(dp34
g12
I0
sg13
I00
sbsg26
(imyEvolve
Tree
p35
(dp36
g12
I0
sg13
I00
sbsg14
I00
sg15
coperator
sub
p37
sbsg14
I00
sg15
coperator
mul
p38
sbsg26
(imyEvolve
Tree
p39
(dp40
g7
(imyEvolve
Tree
p41
(dp42
g12
I1
sg19
(imyEvolve
Tree
p43
(dp44
g12
I0
sg13
I00
sbsg26
(imyEvolve
Tree
p45
(dp46
g12
I0
sg13
I00
sbsg14
I00
sg15
g37
sbsg12
I2
sg14
I01
sg15
g16
sbsg14
I00
sg15
g38
sba(imyEvolve
Tree
p47
(dp48
g12
I5
sg19
(imyEvolve
Tree
p49
(dp50
g12
I4
sg19
(imyEvolve
Tree
p51
(dp52
g12
I3
sg19
(imyEvolve
Tree
p53
(dp54
g7
(imyEvolve
Tree
p55
(dp56
g12
I1
sg19
(imyEvolve
Tree
p57
(dp58
g12
I0
sg29
F1.9744993820145815
sg13
I01
sbsg26
(imyEvolve
Tree
p59
(dp60
g12
I0
sg13
I00
sbsg14
I00
sg15
g37
sbsg12
I2
sg14
I01
sg15
cmath
sin
p61
sbsg26
(imyEvolve
Tree
p62
(dp63
g12
I2
sg19
(imyEvolve
Tree
p64
(dp65
g12
I1
sg19
(imyEvolve
Tree
p66
(dp67
g12
I0
sg29
F-3.854673691022268
sg13
I01
sbsg26
(imyEvolve
Tree
p68
(dp69
g12
I0
sg29
F-1.236456608822547
sg13
I01
sbsg14
I00
sg15
g37
sbsg26
(imyEvolve
Tree
p70
(dp71
g7
(imyEvolve
Tree
p72
(dp73
g12
I0
sg29
F-2.40817120995076
sg13
I01
sbsg12
I1
sg14
I01
sg15
cmyEvolve
square
p74
sbsg14
I00
sg15
g38
sbsg14
I00
sg15
g38
sbsg26
(imyEvolve
Tree
p75
(dp76
g12
I3
sg19
(imyEvolve
Tree
p77
(dp78
g7
(imyEvolve
Tree
p79
(dp80
g7
(imyEvolve
Tree
p81
(dp82
g12
I0
sg13
I00
sbsg12
I1
sg14
I01
sg15
g16
sbsg12
I2
sg14
I01
sg15
cmyEvolve
absSqrt
p83
sbsg26
(imyEvolve
Tree
p84
(dp85
g12
I2
sg19
(imyEvolve
Tree
p86
(dp87
g12
I1
sg19
(imyEvolve
Tree
p88
(dp89
g12
I0
sg29
F-2.2422582134168065
sg13
I01
sbsg26
(imyEvolve
Tree
p90
(dp91
g12
I0
sg29
F-3.9403977327481376
sg13
I01
sbsg14
I00
sg15
g30
sbsg26
(imyEvolve
Tree
p92
(dp93
g12
I1
sg19
(imyEvolve
Tree
p94
(dp95
g12
I0
sg13
I00
sbsg26
(imyEvolve
Tree
p96
(dp97
g12
I0
sg13
I00
sbsg14
I00
sg15
g38
sbsg14
I00
sg15
g30
sbsg14
I00
sg15
g30
sbsg14
I00
sg15
g30
sbsg26
(imyEvolve
Tree
p98
(dp99
g7
(imyEvolve
Tree
p100
(dp101
g7
(imyEvolve
Tree
p102
(dp103
g12
I2
sg19
(imyEvolve
Tree
p104
(dp105
g7
(imyEvolve
Tree
p106
(dp107
g12
I0
sg29
F-3.3075001469552223
sg13
I01
sbsg12
I1
sg14
I01
sg15
g74
sbsg26
(imyEvolve
Tree
p108
(dp109
g7
(imyEvolve
Tree
p110
(dp111
g12
I0
sg29
F2.2551041791096367
sg13
I01
sbsg12
I1
sg14
I01
sg15
g16
sbsg14
I00
sg15
g38
sbsg12
I3
sg14
I01
sg15
g16
sbsg12
I4
sg14
I01
sg15
g61
sbsg14
I00
sg15
g37
sba(imyEvolve
Tree
p112
(dp113
g7
(imyEvolve
Tree
p114
(dp115
g12
I2
sg19
(imyEvolve
Tree
p116
(dp117
g12
I1
sg19
(imyEvolve
Tree
p118
(dp119
g12
I0
sg13
I00
sbsg26
(imyEvolve
Tree
p120
(dp121
g12
I0
sg29
F-0.1999577390112206
sg13
I01
sbsg14
I00
sg15
g30
sbsg26
(imyEvolve
Tree
p122
(dp123
g12
I1
sg19
(imyEvolve
Tree
p124
(dp125
g12
I0
sg29
F-0.6360627183410443
sg13
I01
sbsg26
(imyEvolve
Tree
p126
(dp127
g12
I0
sg13
I00
sbsg14
I00
sg15
g30
sbsg14
I00
sg15
g38
sbsg12
I3
sg14
I01
sg15
g74
sba(imyEvolve
Tree
p128
(dp129
g12
I3
sg19
(imyEvolve
Tree
p130
(dp131
g7
(imyEvolve
Tree
p132
(dp133
g12
I1
sg19
(imyEvolve
Tree
p134
(dp135
g12
I0
sg29
F-2.4640804460836554
sg13
I01
sbsg26
(imyEvolve
Tree
p136
(dp137
g12
I0
sg13
I00
sbsg14
I00
sg15
g30
sbsg12
I2
sg14
I01
sg15
g83
sbsg26
(imyEvolve
Tree
p138
(dp139
g7
(imyEvolve
Tree
p140
(dp141
g7
(imyEvolve
Tree
p142
(dp143
g12
I0
sg29
F3.791495221316797
sg13
I01
sbsg12
I1
sg14
I01
sg15
g61
sbsg12
I2
sg14
I01
sg15
g16
sbsg14
I00
sg15
g38
sba(imyEvolve
Tree
p144
(dp145
g7
(imyEvolve
Tree
p146
(dp147
g12
I4
sg19
(imyEvolve
Tree
p148
(dp149
g12
I3
sg19
(imyEvolve
Tree
p150
(dp151
g7
(imyEvolve
Tree
p152
(dp153
g12
I1
sg19
(imyEvolve
Tree
p154
(dp155
g12
I0
sg13
I00
sbsg26
(imyEvolve
Tree
p156
(dp157
g12
I0
sg29
F1.670890149132651
sg13
I01
sbsg14
I00
sg15
g38
sbsg12
I2
sg14
I01
sg15
g74
sbsg26
(imyEvolve
Tree
p158
(dp159
g7
(imyEvolve
Tree
p160
(dp161
g12
I1
sg19
(imyEvolve
Tree
p162
(dp163
g12
I0
sg29
F-1.1031267878855076
sg13
I01
sbsg26
(imyEvolve
Tree
p164
(dp165
g12
I0
sg13
I00
sbsg14
I00
sg15
g38
sbsg12
I2
sg14
I01
sg15
g74
sbsg14
I00
sg15
g37
sbsg26
(imyEvolve
Tree
p166
(dp167
g7
(imyEvolve
Tree
p168
(dp169
g12
I2
sg19
(imyEvolve
Tree
p170
(dp171
g12
I1
sg19
(imyEvolve
Tree
p172
(dp173
g12
I0
sg13
I00
sbsg26
(imyEvolve
Tree
p174
(dp175
g12
I0
sg13
I00
sbsg14
I00
sg15
g37
sbsg26
(imyEvolve
Tree
p176
(dp177
g7
(imyEvolve
Tree
p178
(dp179
g12
I0
sg29
F-3.877579923766322
sg13
I01
sbsg12
I1
sg14
I01
sg15
g16
sbsg14
I00
sg15
g37
sbsg12
I3
sg14
I01
sg15
g61
sbsg14
I00
sg15
g30
sbsg12
I5
sg14
I01
sg15
g83
sba(imyEvolve
Tree
p180
(dp181
g7
(imyEvolve
Tree
p182
(dp183
g7
(imyEvolve
Tree
p184
(dp185
g12
I3
sg19
(imyEvolve
Tree
p186
(dp187
g12
I2
sg19
(imyEvolve
Tree
p188
(dp189
g12
I1
sg19
(imyEvolve
Tree
p190
(dp191
g12
I0
sg29
F3.1601442528047503
sg13
I01
sbsg26
(imyEvolve
Tree
p192
(dp193
g12
I0
sg29
F-1.8604508086143223
sg13
I01
sbsg14
I00
sg15
g30
sbsg26
(imyEvolve
Tree
p194
(dp195
g12
I1
sg19
(imyEvolve
Tree
p196
(dp197
g12
I0
sg13
I00
sbsg26
(imyEvolve
Tree
p198
(dp199
g12
I0
sg13
I00
sbsg14
I00
sg15
g38
sbsg14
I00
sg15
g30
sbsg26
(imyEvolve
Tree
p200
(dp201
g12
I2
sg19
(imyEvolve
Tree
p202
(dp203
g12
I1
sg19
(imyEvolve
Tree
p204
(dp205
g12
I0
sg29
F-2.130528094222164
sg13
I01
sbsg26
(imyEvolve
Tree
p206
(dp207
g12
I0
sg29
F-3.412844930972364
sg13
I01
sbsg14
I00
sg15
g30
sbsg26
(imyEvolve
Tree
p208
(dp209
g7
(imyEvolve
Tree
p210
(dp211
g12
I0
sg13
I00
sbsg12
I1
sg14
I01
sg15
g16
sbsg14
I00
sg15
g38
sbsg14
I00
sg15
g30
sbsg12
I4
sg14
I01
sg15
g61
sbsg12
I5
sg14
I01
sg15
g16
sba(imyEvolve
Tree
p212
(dp213
g7
(imyEvolve
Tree
p214
(dp215
g7
(imyEvolve
Tree
p216
(dp217
g12
I0
sg29
F0.7702984148270922
sg13
I01
sbsg12
I1
sg14
I01
sg15
g83
sbsg12
I2
sg14
I01
sg15
g74
sba(imyEvolve
Tree
p218
(dp219
g7
(imyEvolve
Tree
p220
(dp221
g12
I3
sg19
(imyEvolve
Tree
p222
(dp223
g7
(imyEvolve
Tree
p224
(dp225
g7
(imyEvolve
Tree
p226
(dp227
g12
I0
sg13
I00
sbsg12
I1
sg14
I01
sg15
g61
sbsg12
I2
sg14
I01
sg15
g61
sbsg26
(imyEvolve
Tree
p228
(dp229
g7
(imyEvolve
Tree
p230
(dp231
g12
I1
sg19
(imyEvolve
Tree
p232
(dp233
g12
I0
sg13
I00
sbsg26
(imyEvolve
Tree
p234
(dp235
g12
I0
sg13
I00
sbsg14
I00
sg15
g37
sbsg12
I2
sg14
I01
sg15
g83
sbsg14
I00
sg15
g30
sbsg12
I4
sg14
I01
sg15
g61
sba(imyEvolve
Tree
p236
(dp237
g12
I3
sg19
(imyEvolve
Tree
p238
(dp239
g12
I2
sg19
(imyEvolve
Tree
p240
(dp241
g12
I1
sg19
(imyEvolve
Tree
p242
(dp243
g12
I0
sg29
F-1.6748449149792553
sg13
I01
sbsg26
(imyEvolve
Tree
p244
(dp245
g12
I0
sg29
F1.5687955257949726
sg13
I01
sbsg14
I00
sg15
g37
sbsg26
(imyEvolve
Tree
p246
(dp247
g7
(imyEvolve
Tree
p248
(dp249
g12
I0
sg29
F2.7697893540509693
sg13
I01
sbsg12
I1
sg14
I01
sg15
g83
sbsg14
I00
sg15
g37
sbsg26
(imyEvolve
Tree
p250
(dp251
g12
I2
sg19
(imyEvolve
Tree
p252
(dp253
g12
I1
sg19
(imyEvolve
Tree
p254
(dp255
g12
I0
sg29
F3.2666982727574485
sg13
I01
sbsg26
(imyEvolve
Tree
p256
(dp257
g12
I0
sg13
I00
sbsg14
I00
sg15
g37
sbsg26
(imyEvolve
Tree
p258
(dp259
g12
I1
sg19
(imyEvolve
Tree
p260
(dp261
g12
I0
sg13
I00
sbsg26
(imyEvolve
Tree
p262
(dp263
g12
I0
sg29
F-3.4953653542193797
sg13
I01
sbsg14
I00
sg15
g30
sbsg14
I00
sg15
g30
sbsg14
I00
sg15
g37
sba(imyEvolve
Tree
p264
(dp265
g7
(imyEvolve
Tree
p266
(dp267
g7
(imyEvolve
Tree
p268
(dp269
g7
(imyEvolve
Tree
p270
(dp271
g7
(imyEvolve
Tree
p272
(dp273
g12
I0
sg13
I00
sbsg12
I1
sg14
I01
sg15
g83
sbsg12
I2
sg14
I01
sg15
g61
sbsg12
I3
sg14
I01
sg15
g16
sbsg12
I4
sg14
I01
sg15
g61
sba(imyEvolve
Tree
p274
(dp275
g7
(imyEvolve
Tree
p276
(dp277
g7
(imyEvolve
Tree
p278
(dp279
g12
I3
sg19
(imyEvolve
Tree
p280
(dp281
g12
I2
sg19
(imyEvolve
Tree
p282
(dp283
g12
I1
sg19
(imyEvolve
Tree
p284
(dp285
g12
I0
sg13
I00
sbsg26
(imyEvolve
Tree
p286
(dp287
g12
I0
sg29
F2.1774085662553198
sg13
I01
sbsg14
I00
sg15
g37
sbsg26
(imyEvolve
Tree
p288
(dp289
g7
(imyEvolve
Tree
p290
(dp291
g12
I0
sg29
F0.48707923877216963
sg13
I01
sbsg12
I1
sg14
I01
sg15
g16
sbsg14
I00
sg15
g30
sbsg26
(imyEvolve
Tree
p292
(dp293
g7
(imyEvolve
Tree
p294
(dp295
g12
I1
sg19
(imyEvolve
Tree
p296
(dp297
g12
I0
sg13
I00
sbsg26
(imyEvolve
Tree
p298
(dp299
g12
I0
sg29
F-0.4499348864959245
sg13
I01
sbsg14
I00
sg15
g30
sbsg12
I2
sg14
I01
sg15
g74
sbsg14
I00
sg15
g30
sbsg12
I4
sg14
I01
sg15
g61
sbsg12
I5
sg14
I01
sg15
g16
sba(imyEvolve
Tree
p300
(dp301
g7
(imyEvolve
Tree
p302
(dp303
g12
I1
sg19
(imyEvolve
Tree
p304
(dp305
g12
I0
sg29
F0.9978651790150908
sg13
I01
sbsg26
(imyEvolve
Tree
p306
(dp307
g12
I0
sg13
I00
sbsg14
I00
sg15
g38
sbsg12
I2
sg14
I01
sg15
g61
sba(imyEvolve
Tree
p308
(dp309
g12
I5
sg19
(imyEvolve
Tree
p310
(dp311
g7
(imyEvolve
Tree
p312
(dp313
g7
(imyEvolve
Tree
p314
(dp315
g12
I2
sg19
(imyEvolve
Tree
p316
(dp317
g7
(imyEvolve
Tree
p318
(dp319
g12
I0
sg13
I00
sbsg12
I1
sg14
I01
sg15
g16
sbsg26
(imyEvolve
Tree
p320
(dp321
g12
I1
sg19
(imyEvolve
Tree
p322
(dp323
g12
I0
sg29
F-3.5728821908985067
sg13
I01
sbsg26
(imyEvolve
Tree
p324
(dp325
g12
I0
sg13
I00
sbsg14
I00
sg15
g30
sbsg14
I00
sg15
g30
sbsg12
I3
sg14
I01
sg15
g16
sbsg12
I4
sg14
I01
sg15
g61
sbsg26
(imyEvolve
Tree
p326
(dp327
g7
(imyEvolve
Tree
p328
(dp329
g12
I3
sg19
(imyEvolve
Tree
p330
(dp331
g12
I2
sg19
(imyEvolve
Tree
p332
(dp333
g12
I1
sg19
(imyEvolve
Tree
p334
(dp335
g12
I0
sg29
F-1.429604731261147
sg13
I01
sbsg26
(imyEvolve
Tree
p336
(dp337
g12
I0
sg29
F1.0120649492407239
sg13
I01
sbsg14
I00
sg15
g37
sbsg26
(imyEvolve
Tree
p338
(dp339
g12
I1
sg19
(imyEvolve
Tree
p340
(dp341
g12
I0
sg13
I00
sbsg26
(imyEvolve
Tree
p342
(dp343
g12
I0
sg29
F-3.6092936551486066
sg13
I01
sbsg14
I00
sg15
g37
sbsg14
I00
sg15
g30
sbsg26
(imyEvolve
Tree
p344
(dp345
g7
(imyEvolve
Tree
p346
(dp347
g7
(imyEvolve
Tree
p348
(dp349
g12
I0
sg13
I00
sbsg12
I1
sg14
I01
sg15
g61
sbsg12
I2
sg14
I01
sg15
g16
sbsg14
I00
sg15
g38
sbsg12
I4
sg14
I01
sg15
g61
sbsg14
I00
sg15
g38
sba(imyEvolve
Tree
p350
(dp351
g7
(imyEvolve
Tree
p352
(dp353
g7
(imyEvolve
Tree
p354
(dp355
g12
I0
sg13
I00
sbsg12
I1
sg14
I01
sg15
g16
sbsg12
I2
sg14
I01
sg15
g61
sba(imyEvolve
Tree
p356
(dp357
g12
I3
sg19
(imyEvolve
Tree
p358
(dp359
g12
I2
sg19
(imyEvolve
Tree
p360
(dp361
g7
(imyEvolve
Tree
p362
(dp363
g12
I0
sg13
I00
sbsg12
I1
sg14
I01
sg15
g16
sbsg26
(imyEvolve
Tree
p364
(dp365
g12
I1
sg19
(imyEvolve
Tree
p366
(dp367
g12
I0
sg13
I00
sbsg26
(imyEvolve
Tree
p368
(dp369
g12
I0
sg29
F-2.1716684068081857
sg13
I01
sbsg14
I00
sg15
g38
sbsg14
I00
sg15
g38
sbsg26
(imyEvolve
Tree
p370
(dp371
g7
(imyEvolve
Tree
p372
(dp373
g7
(imyEvolve
Tree
p374
(dp375
g12
I0
sg13
I00
sbsg12
I1
sg14
I01
sg15
g74
sbsg12
I2
sg14
I01
sg15
g61
sbsg14
I00
sg15
g30
sba(imyEvolve
Tree
p376
(dp377
g7
(imyEvolve
Tree
p378
(dp379
g7
(imyEvolve
Tree
p380
(dp381
g12
I2
sg19
(imyEvolve
Tree
p382
(dp383
g7
(imyEvolve
Tree
p384
(dp385
g12
I0
sg13
I00
sbsg12
I1
sg14
I01
sg15
g61
sbsg26
(imyEvolve
Tree
p386
(dp387
g7
(imyEvolve
Tree
p388
(dp389
g12
I0
sg13
I00
sbsg12
I1
sg14
I01
sg15
g83
sbsg14
I00
sg15
g37
sbsg12
I3
sg14
I01
sg15
g74
sbsg12
I4
sg14
I01
sg15
g61
sba(imyEvolve
Tree
p390
(dp391
g7
(imyEvolve
Tree
p392
(dp393
g12
I1
sg19
(imyEvolve
Tree
p394
(dp395
g12
I0
sg13
I00
sbsg26
(imyEvolve
Tree
p396
(dp397
g12
I0
sg29
F4.280240430432521
sg13
I01
sbsg14
I00
sg15
g37
sbsg12
I2
sg14
I01
sg15
g61
sba(imyEvolve
Tree
p398
(dp399
g12
I5
sg19
(imyEvolve
Tree
p400
(dp401
g7
(imyEvolve
Tree
p402
(dp403
g7
(imyEvolve
Tree
p404
(dp405
g12
I2
sg19
(imyEvolve
Tree
p406
(dp407
g7
(imyEvolve
Tree
p408
(dp409
g12
I0
sg29
F-1.0757658189056696
sg13
I01
sbsg12
I1
sg14
I01
sg15
g61
sbsg26
(imyEvolve
Tree
p410
(dp411
g7
(imyEvolve
Tree
p412
(dp413
g12
I0
sg13
I00
sbsg12
I1
sg14
I01
sg15
g74
sbsg14
I00
sg15
g37
sbsg12
I3
sg14
I01
sg15
g61
sbsg12
I4
sg14
I01
sg15
g16
sbsg26
(imyEvolve
Tree
p414
(dp415
g12
I4
sg19
(imyEvolve
Tree
p416
(dp417
g7
(imyEvolve
Tree
p418
(dp419
g12
I2
sg19
(imyEvolve
Tree
p420
(dp421
g7
(imyEvolve
Tree
p422
(dp423
g12
I0
sg29
F-2.9856002129742976
sg13
I01
sbsg12
I1
sg14
I01
sg15
g83
sbsg26
(imyEvolve
Tree
p424
(dp425
g7
(imyEvolve
Tree
p426
(dp427
g12
I0
sg13
I00
sbsg12
I1
sg14
I01
sg15
g74
sbsg14
I00
sg15
g37
sbsg12
I3
sg14
I01
sg15
g74
sbsg26
(imyEvolve
Tree
p428
(dp429
g12
I3
sg19
(imyEvolve
Tree
p430
(dp431
g7
(imyEvolve
Tree
p432
(dp433
g7
(imyEvolve
Tree
p434
(dp435
g12
I0
sg29
F3.04987467808912
sg13
I01
sbsg12
I1
sg14
I01
sg15
g61
sbsg12
I2
sg14
I01
sg15
g74
sbsg26
(imyEvolve
Tree
p436
(dp437
g7
(imyEvolve
Tree
p438
(dp439
g7
(imyEvolve
Tree
p440
(dp441
g12
I0
sg13
I00
sbsg12
I1
sg14
I01
sg15
g61
sbsg12
I2
sg14
I01
sg15
g83
sbsg14
I00
sg15
g38
sbsg14
I00
sg15
g30
sbsg14
I00
sg15
g38
sbaasS'weightSharing'
p442
(lp443
I00
aI00
aI00
aI00
aI00
aI00
aI00
aI00
aI00
asS'fitnessValid'
p444
I00
sS'fitness'
p445
cnumpy.core.multiarray
scalar
p446
(cnumpy
dtype
p447
(S'f8'
p448
I0
I1
tp449
Rp450
(I3
S'<'
p451
NNNI-1
I-1
I0
tp452
bS'\x00\xd8\xf0\xf4\xba\x8c2\xbf'
p453
tp454
Rp455
sS'alpha'
p456
F0.007021791767175343
sS'resolution'
p457
I62
sb.