(imyEvolve
Individual
p0
(dp1
S'funcs'
p2
(lp3
(lp4
(imyEvolve
Tree
p5
(dp6
S'left'
p7
(imyEvolve
Tree
p8
(dp9
S'below'
p10
(imyEvolve
Tree
p11
(dp12
g10
(imyEvolve
Tree
p13
(dp14
S'depth'
p15
I0
sS'constant'
p16
F-3.844949732784144
sS'isConstant'
p17
I01
sbsg15
I1
sS'single'
p18
I01
sS'op'
p19
cmyEvolve
square
p20
sbsg15
I2
sg18
I01
sg19
g20
sbsg15
I3
sS'right'
p21
(imyEvolve
Tree
p22
(dp23
g10
(imyEvolve
Tree
p24
(dp25
g10
(imyEvolve
Tree
p26
(dp27
g15
I0
sg16
F0.9357483577926997
sg17
I01
sbsg15
I1
sg18
I01
sg19
cmyEvolve
absSqrt
p28
sbsg15
I2
sg18
I01
sg19
g28
sbsg18
I00
sg19
coperator
mul
p29
sba(imyEvolve
Tree
p30
(dp31
g10
(imyEvolve
Tree
p32
(dp33
g7
(imyEvolve
Tree
p34
(dp35
g10
(imyEvolve
Tree
p36
(dp37
g15
I0
sg16
F-0.7573524128027485
sg17
I01
sbsg15
I1
sg18
I01
sg19
cmath
sin
p38
sbsg15
I2
sg21
(imyEvolve
Tree
p39
(dp40
g7
(imyEvolve
Tree
p41
(dp42
g15
I0
sg16
F-0.4033370162106902
sg17
I01
sbsg15
I1
sg21
(imyEvolve
Tree
p43
(dp44
g15
I0
sg16
F0.9046919294210376
sg17
I01
sbsg18
I00
sg19
g29
sbsg18
I00
sg19
coperator
add
p45
sbsg15
I3
sg18
I01
sg19
g38
sba(imyEvolve
Tree
p46
(dp47
g10
(imyEvolve
Tree
p48
(dp49
g7
(imyEvolve
Tree
p50
(dp51
g15
I0
sg17
I00
sbsg15
I1
sg21
(imyEvolve
Tree
p52
(dp53
g15
I0
sg16
F-1.5297780222098778
sg17
I01
sbsg18
I00
sg19
g45
sbsg15
I2
sg18
I01
sg19
g20
sba(imyEvolve
Tree
p54
(dp55
g15
I3
sg7
(imyEvolve
Tree
p56
(dp57
g10
(imyEvolve
Tree
p58
(dp59
g10
(imyEvolve
Tree
p60
(dp61
g15
I0
sg16
F-0.08796293522911647
sg17
I01
sbsg15
I1
sg18
I01
sg19
g20
sbsg15
I2
sg18
I01
sg19
g20
sbsg21
(imyEvolve
Tree
p62
(dp63
g15
I2
sg7
(imyEvolve
Tree
p64
(dp65
g15
I1
sg7
(imyEvolve
Tree
p66
(dp67
g15
I0
sg17
I00
sbsg21
(imyEvolve
Tree
p68
(dp69
g15
I0
sg16
F-4.920829063916695
sg17
I01
sbsg18
I00
sg19
g45
sbsg21
(imyEvolve
Tree
p70
(dp71
g10
(imyEvolve
Tree
p72
(dp73
g15
I0
sg17
I00
sbsg15
I1
sg18
I01
sg19
g20
sbsg18
I00
sg19
g29
sbsg18
I00
sg19
g29
sba(imyEvolve
Tree
p74
(dp75
g10
(imyEvolve
Tree
p76
(dp77
g7
(imyEvolve
Tree
p78
(dp79
g7
(imyEvolve
Tree
p80
(dp81
g10
(imyEvolve
Tree
p82
(dp83
g10
(imyEvolve
Tree
p84
(dp85
g15
I0
sg17
I00
sbsg15
I1
sg18
I01
sg19
g38
sbsg15
I2
sg18
I01
sg19
g28
sbsg15
I3
sg21
(imyEvolve
Tree
p86
(dp87
g7
(imyEvolve
Tree
p88
(dp89
g10
(imyEvolve
Tree
p90
(dp91
g15
I0
sg16
F1.6332381595393155
sg17
I01
sbsg15
I1
sg18
I01
sg19
g28
sbsg15
I2
sg21
(imyEvolve
Tree
p92
(dp93
g10
(imyEvolve
Tree
p94
(dp95
g15
I0
sg17
I00
sbsg15
I1
sg18
I01
sg19
g20
sbsg18
I00
sg19
g45
sbsg18
I00
sg19
g45
sbsg15
I4
sg21
(imyEvolve
Tree
p96
(dp97
g10
(imyEvolve
Tree
p98
(dp99
g7
(imyEvolve
Tree
p100
(dp101
g7
(imyEvolve
Tree
p102
(dp103
g15
I0
sg16
F4.8524345854550965
sg17
I01
sbsg15
I1
sg21
(imyEvolve
Tree
p104
(dp105
g15
I0
sg16
F0.8169634613320884
sg17
I01
sbsg18
I00
sg19
g29
sbsg15
I2
sg21
(imyEvolve
Tree
p106
(dp107
g10
(imyEvolve
Tree
p108
(dp109
g15
I0
sg17
I00
sbsg15
I1
sg18
I01
sg19
g20
sbsg18
I00
sg19
coperator
sub
p110
sbsg15
I3
sg18
I01
sg19
g38
sbsg18
I00
sg19
g29
sbsg15
I5
sg18
I01
sg19
g20
sba(imyEvolve
Tree
p111
(dp112
g10
(imyEvolve
Tree
p113
(dp114
g7
(imyEvolve
Tree
p115
(dp116
g10
(imyEvolve
Tree
p117
(dp118
g15
I0
sg17
I00
sbsg15
I1
sg18
I01
sg19
g28
sbsg15
I2
sg21
(imyEvolve
Tree
p119
(dp120
g7
(imyEvolve
Tree
p121
(dp122
g15
I0
sg16
F-3.4731268840405005
sg17
I01
sbsg15
I1
sg21
(imyEvolve
Tree
p123
(dp124
g15
I0
sg16
F0.7724480232484101
sg17
I01
sbsg18
I00
sg19
g45
sbsg18
I00
sg19
g29
sbsg15
I3
sg18
I01
sg19
cmath
cos
p125
sba(imyEvolve
Tree
p126
(dp127
g10
(imyEvolve
Tree
p128
(dp129
g10
(imyEvolve
Tree
p130
(dp131
g15
I0
sg17
I00
sbsg15
I1
sg18
I01
sg19
g125
sbsg15
I2
sg18
I01
sg19
g38
sba(imyEvolve
Tree
p132
(dp133
g10
(imyEvolve
Tree
p134
(dp135
g15
I3
sg7
(imyEvolve
Tree
p136
(dp137
g15
I2
sg7
(imyEvolve
Tree
p138
(dp139
g15
I1
sg7
(imyEvolve
Tree
p140
(dp141
g15
I0
sg16
F-4.695729900198804
sg17
I01
sbsg21
(imyEvolve
Tree
p142
(dp143
g15
I0
sg16
F4.5294686564294935
sg17
I01
sbsg18
I00
sg19
g29
sbsg21
(imyEvolve
Tree
p144
(dp145
g10
(imyEvolve
Tree
p146
(dp147
g15
I0
sg17
I00
sbsg15
I1
sg18
I01
sg19
g125
sbsg18
I00
sg19
g29
sbsg21
(imyEvolve
Tree
p148
(dp149
g15
I2
sg7
(imyEvolve
Tree
p150
(dp151
g10
(imyEvolve
Tree
p152
(dp153
g15
I0
sg17
I00
sbsg15
I1
sg18
I01
sg19
g20
sbsg21
(imyEvolve
Tree
p154
(dp155
g10
(imyEvolve
Tree
p156
(dp157
g15
I0
sg17
I00
sbsg15
I1
sg18
I01
sg19
g125
sbsg18
I00
sg19
g29
sbsg18
I00
sg19
g110
sbsg15
I4
sg18
I01
sg19
g20
sba(imyEvolve
Tree
p158
(dp159
g10
(imyEvolve
Tree
p160
(dp161
g10
(imyEvolve
Tree
p162
(dp163
g7
(imyEvolve
Tree
p164
(dp165
g7
(imyEvolve
Tree
p166
(dp167
g15
I0
sg16
F-2.029690646546981
sg17
I01
sbsg15
I1
sg21
(imyEvolve
Tree
p168
(dp169
g15
I0
sg16
F3.739655075523169
sg17
I01
sbsg18
I00
sg19
g45
sbsg15
I2
sg21
(imyEvolve
Tree
p170
(dp171
g7
(imyEvolve
Tree
p172
(dp173
g15
I0
sg17
I00
sbsg15
I1
sg21
(imyEvolve
Tree
p174
(dp175
g15
I0
sg17
I00
sbsg18
I00
sg19
g29
sbsg18
I00
sg19
g45
sbsg15
I3
sg18
I01
sg19
g125
sbsg15
I4
sg18
I01
sg19
g38
sba(imyEvolve
Tree
p176
(dp177
g10
(imyEvolve
Tree
p178
(dp179
g15
I2
sg7
(imyEvolve
Tree
p180
(dp181
g10
(imyEvolve
Tree
p182
(dp183
g15
I0
sg16
F4.315746334998199
sg17
I01
sbsg15
I1
sg18
I01
sg19
g28
sbsg21
(imyEvolve
Tree
p184
(dp185
g15
I1
sg7
(imyEvolve
Tree
p186
(dp187
g15
I0
sg16
F-1.21041960019208
sg17
I01
sbsg21
(imyEvolve
Tree
p188
(dp189
g15
I0
sg16
F4.960078297446426
sg17
I01
sbsg18
I00
sg19
g45
sbsg18
I00
sg19
g29
sbsg15
I3
sg18
I01
sg19
g20
sba(imyEvolve
Tree
p190
(dp191
g15
I3
sg7
(imyEvolve
Tree
p192
(dp193
g10
(imyEvolve
Tree
p194
(dp195
g15
I1
sg7
(imyEvolve
Tree
p196
(dp197
g15
I0
sg17
I00
sbsg21
(imyEvolve
Tree
p198
(dp199
g15
I0
sg17
I00
sbsg18
I00
sg19
g29
sbsg15
I2
sg18
I01
sg19
g20
sbsg21
(imyEvolve
Tree
p200
(dp201
g15
I2
sg7
(imyEvolve
Tree
p202
(dp203
g15
I1
sg7
(imyEvolve
Tree
p204
(dp205
g15
I0
sg16
F-1.5727795407435474
sg17
I01
sbsg21
(imyEvolve
Tree
p206
(dp207
g15
I0
sg16
F4.185000386720649
sg17
I01
sbsg18
I00
sg19
g110
sbsg21
(imyEvolve
Tree
p208
(dp209
g15
I1
sg7
(imyEvolve
Tree
p210
(dp211
g15
I0
sg16
F-0.5531860416282104
sg17
I01
sbsg21
(imyEvolve
Tree
p212
(dp213
g15
I0
sg16
F-3.689786356878683
sg17
I01
sbsg18
I00
sg19
g45
sbsg18
I00
sg19
g29
sbsg18
I00
sg19
g29
sba(imyEvolve
Tree
p214
(dp215
g15
I2
sg7
(imyEvolve
Tree
p216
(dp217
g10
(imyEvolve
Tree
p218
(dp219
g15
I0
sg17
I00
sbsg15
I1
sg18
I01
sg19
g125
sbsg21
(imyEvolve
Tree
p220
(dp221
g15
I1
sg7
(imyEvolve
Tree
p222
(dp223
g15
I0
sg17
I00
sbsg21
(imyEvolve
Tree
p224
(dp225
g15
I0
sg17
I00
sbsg18
I00
sg19
g45
sbsg18
I00
sg19
g29
sba(imyEvolve
Tree
p226
(dp227
g10
(imyEvolve
Tree
p228
(dp229
g15
I2
sg7
(imyEvolve
Tree
p230
(dp231
g15
I1
sg7
(imyEvolve
Tree
p232
(dp233
g15
I0
sg17
I00
sbsg21
(imyEvolve
Tree
p234
(dp235
g15
I0
sg16
F3.595696758111618
sg17
I01
sbsg18
I00
sg19
g29
sbsg21
(imyEvolve
Tree
p236
(dp237
g15
I1
sg7
(imyEvolve
Tree
p238
(dp239
g15
I0
sg16
F-0.005550280301985566
sg17
I01
sbsg21
(imyEvolve
Tree
p240
(dp241
g15
I0
sg17
I00
sbsg18
I00
sg19
g45
sbsg18
I00
sg19
g29
sbsg15
I3
sg18
I01
sg19
g28
sba(imyEvolve
Tree
p242
(dp243
g7
(imyEvolve
Tree
p244
(dp245
g10
(imyEvolve
Tree
p246
(dp247
g10
(imyEvolve
Tree
p248
(dp249
g7
(imyEvolve
Tree
p250
(dp251
g15
I0
sg17
I00
sbsg15
I1
sg21
(imyEvolve
Tree
p252
(dp253
g15
I0
sg16
F-4.2658845076695435
sg17
I01
sbsg18
I00
sg19
g45
sbsg15
I2
sg18
I01
sg19
g28
sbsg15
I3
sg18
I01
sg19
g125
sbsg15
I4
sg21
(imyEvolve
Tree
p254
(dp255
g7
(imyEvolve
Tree
p256
(dp257
g7
(imyEvolve
Tree
p258
(dp259
g10
(imyEvolve
Tree
p260
(dp261
g15
I0
sg16
F-0.7151891930270349
sg17
I01
sbsg15
I1
sg18
I01
sg19
g38
sbsg15
I2
sg21
(imyEvolve
Tree
p262
(dp263
g7
(imyEvolve
Tree
p264
(dp265
g15
I0
sg17
I00
sbsg15
I1
sg21
(imyEvolve
Tree
p266
(dp267
g15
I0
sg17
I00
sbsg18
I00
sg19
g110
sbsg18
I00
sg19
g45
sbsg15
I3
sg21
(imyEvolve
Tree
p268
(dp269
g7
(imyEvolve
Tree
p270
(dp271
g7
(imyEvolve
Tree
p272
(dp273
g15
I0
sg17
I00
sbsg15
I1
sg21
(imyEvolve
Tree
p274
(dp275
g15
I0
sg17
I00
sbsg18
I00
sg19
g110
sbsg15
I2
sg21
(imyEvolve
Tree
p276
(dp277
g10
(imyEvolve
Tree
p278
(dp279
g15
I0
sg17
I00
sbsg15
I1
sg18
I01
sg19
g28
sbsg18
I00
sg19
g29
sbsg18
I00
sg19
g45
sbsg18
I00
sg19
g110
sba(imyEvolve
Tree
p280
(dp281
g10
(imyEvolve
Tree
p282
(dp283
g7
(imyEvolve
Tree
p284
(dp285
g10
(imyEvolve
Tree
p286
(dp287
g15
I0
sg17
I00
sbsg15
I1
sg18
I01
sg19
g38
sbsg15
I2
sg21
(imyEvolve
Tree
p288
(dp289
g7
(imyEvolve
Tree
p290
(dp291
g15
I0
sg17
I00
sbsg15
I1
sg21
(imyEvolve
Tree
p292
(dp293
g15
I0
sg17
I00
sbsg18
I00
sg19
g110
sbsg18
I00
sg19
g110
sbsg15
I3
sg18
I01
sg19
g28
sba(imyEvolve
Tree
p294
(dp295
g7
(imyEvolve
Tree
p296
(dp297
g7
(imyEvolve
Tree
p298
(dp299
g15
I0
sg16
F-2.6035793568859567
sg17
I01
sbsg15
I1
sg21
(imyEvolve
Tree
p300
(dp301
g15
I0
sg17
I00
sbsg18
I00
sg19
g45
sbsg15
I2
sg21
(imyEvolve
Tree
p302
(dp303
g7
(imyEvolve
Tree
p304
(dp305
g15
I0
sg17
I00
sbsg15
I1
sg21
(imyEvolve
Tree
p306
(dp307
g15
I0
sg17
I00
sbsg18
I00
sg19
g110
sbsg18
I00
sg19
g110
sba(imyEvolve
Tree
p308
(dp309
g10
(imyEvolve
Tree
p310
(dp311
g10
(imyEvolve
Tree
p312
(dp313
g15
I0
sg16
F3.384586112183481
sg17
I01
sbsg15
I1
sg18
I01
sg19
g38
sbsg15
I2
sg18
I01
sg19
g28
sba(imyEvolve
Tree
p314
(dp315
g7
(imyEvolve
Tree
p316
(dp317
g7
(imyEvolve
Tree
p318
(dp319
g15
I0
sg16
F3.178338160170977
sg17
I01
sbsg15
I1
sg21
(imyEvolve
Tree
p320
(dp321
g15
I0
sg17
I00
sbsg18
I00
sg19
g110
sbsg15
I2
sg21
(imyEvolve
Tree
p322
(dp323
g7
(imyEvolve
Tree
p324
(dp325
g15
I0
sg16
F4.65916394773997
sg17
I01
sbsg15
I1
sg21
(imyEvolve
Tree
p326
(dp327
g15
I0
sg17
I00
sbsg18
I00
sg19
g45
sbsg18
I00
sg19
g29
sbaasS'alpha'
p328
F0.0025506773862888268
sS'fitness'
p329
cnumpy.core.multiarray
scalar
p330
(cnumpy
dtype
p331
(S'f8'
p332
I0
I1
tp333
Rp334
(I3
S'<'
p335
NNNI-1
I-1
I0
tp336
bS'\xc7K7?\xae%\xe6?'
p337
tp338
Rp339
sS'weightSharing'
p340
(lp341
I01
aI00
asS'fitnessValid'
p342
I00
sS'resolution'
p343
I78
sb.