(imyEvolve
Individual
p0
(dp1
S'funcs'
p2
(lp3
(lp4
(imyEvolve
Tree
p5
(dp6
S'depth'
p7
I5
sS'left'
p8
(imyEvolve
Tree
p9
(dp10
S'below'
p11
(imyEvolve
Tree
p12
(dp13
g7
I3
sg8
(imyEvolve
Tree
p14
(dp15
g11
(imyEvolve
Tree
p16
(dp17
g7
I1
sg8
(imyEvolve
Tree
p18
(dp19
g7
I0
sS'constant'
p20
F-0.4615312181576936
sS'isConstant'
p21
I01
sbsS'right'
p22
(imyEvolve
Tree
p23
(dp24
g7
I0
sg20
F-4.536381701117074
sg21
I01
sbsS'single'
p25
I00
sS'op'
p26
coperator
add
p27
sbsg7
I2
sg25
I01
sg26
cmath
cos
p28
sbsg22
(imyEvolve
Tree
p29
(dp30
g7
I2
sg8
(imyEvolve
Tree
p31
(dp32
g11
(imyEvolve
Tree
p33
(dp34
g7
I0
sg21
I00
sbsg7
I1
sg25
I01
sg26
cmath
sin
p35
sbsg22
(imyEvolve
Tree
p36
(dp37
g7
I1
sg8
(imyEvolve
Tree
p38
(dp39
g7
I0
sg21
I00
sbsg22
(imyEvolve
Tree
p40
(dp41
g7
I0
sg20
F-0.9195692041668586
sg21
I01
sbsg25
I00
sg26
coperator
sub
p42
sbsg25
I00
sg26
coperator
mul
p43
sbsg25
I00
sg26
g42
sbsg7
I4
sg25
I01
sg26
cmyEvolve
square
p44
sbsg22
(imyEvolve
Tree
p45
(dp46
g7
I4
sg8
(imyEvolve
Tree
p47
(dp48
g11
(imyEvolve
Tree
p49
(dp50
g7
I2
sg8
(imyEvolve
Tree
p51
(dp52
g11
(imyEvolve
Tree
p53
(dp54
g7
I0
sg21
I00
sbsg7
I1
sg25
I01
sg26
g44
sbsg22
(imyEvolve
Tree
p55
(dp56
g11
(imyEvolve
Tree
p57
(dp58
g7
I0
sg20
F4.266251754272243
sg21
I01
sbsg7
I1
sg25
I01
sg26
g28
sbsg25
I00
sg26
g43
sbsg7
I3
sg25
I01
sg26
g35
sbsg22
(imyEvolve
Tree
p59
(dp60
g11
(imyEvolve
Tree
p61
(dp62
g11
(imyEvolve
Tree
p63
(dp64
g11
(imyEvolve
Tree
p65
(dp66
g7
I0
sg21
I00
sbsg7
I1
sg25
I01
sg26
g35
sbsg7
I2
sg25
I01
sg26
g35
sbsg7
I3
sg25
I01
sg26
cmyEvolve
absSqrt
p67
sbsg25
I00
sg26
g27
sbsg25
I00
sg26
g42
sba(imyEvolve
Tree
p68
(dp69
g8
(imyEvolve
Tree
p70
(dp71
g8
(imyEvolve
Tree
p72
(dp73
g8
(imyEvolve
Tree
p74
(dp75
g7
I0
sg20
F-1.1881820877800142
sg21
I01
sbsg7
I1
sg22
(imyEvolve
Tree
p76
(dp77
g7
I0
sg20
F3.7094136264459383
sg21
I01
sbsg25
I00
sg26
g27
sbsg7
I2
sg22
(imyEvolve
Tree
p78
(dp79
g8
(imyEvolve
Tree
p80
(dp81
g7
I0
sg21
I00
sbsg7
I1
sg22
(imyEvolve
Tree
p82
(dp83
g7
I0
sg20
F1.160127769962572
sg21
I01
sbsg25
I00
sg26
g42
sbsg25
I00
sg26
g43
sbsg7
I3
sg22
(imyEvolve
Tree
p84
(dp85
g8
(imyEvolve
Tree
p86
(dp87
g8
(imyEvolve
Tree
p88
(dp89
g7
I0
sg21
I00
sbsg7
I1
sg22
(imyEvolve
Tree
p90
(dp91
g7
I0
sg20
F4.4594416747676
sg21
I01
sbsg25
I00
sg26
g42
sbsg7
I2
sg22
(imyEvolve
Tree
p92
(dp93
g8
(imyEvolve
Tree
p94
(dp95
g7
I0
sg20
F-3.711351214475913
sg21
I01
sbsg7
I1
sg22
(imyEvolve
Tree
p96
(dp97
g7
I0
sg20
F4.456129032670791
sg21
I01
sbsg25
I00
sg26
g27
sbsg25
I00
sg26
g43
sbsg25
I00
sg26
g43
sba(imyEvolve
Tree
p98
(dp99
g11
(imyEvolve
Tree
p100
(dp101
g8
(imyEvolve
Tree
p102
(dp103
g8
(imyEvolve
Tree
p104
(dp105
g11
(imyEvolve
Tree
p106
(dp107
g7
I0
sg20
F4.113494049610205
sg21
I01
sbsg7
I1
sg25
I01
sg26
g35
sbsg7
I2
sg22
(imyEvolve
Tree
p108
(dp109
g8
(imyEvolve
Tree
p110
(dp111
g7
I0
sg20
F-1.4277843709730762
sg21
I01
sbsg7
I1
sg22
(imyEvolve
Tree
p112
(dp113
g7
I0
sg21
I00
sbsg25
I00
sg26
g43
sbsg25
I00
sg26
g42
sbsg7
I3
sg22
(imyEvolve
Tree
p114
(dp115
g8
(imyEvolve
Tree
p116
(dp117
g8
(imyEvolve
Tree
p118
(dp119
g7
I0
sg20
F3.5900337533204727
sg21
I01
sbsg7
I1
sg22
(imyEvolve
Tree
p120
(dp121
g7
I0
sg20
F-2.2235786149357697
sg21
I01
sbsg25
I00
sg26
g27
sbsg7
I2
sg22
(imyEvolve
Tree
p122
(dp123
g8
(imyEvolve
Tree
p124
(dp125
g7
I0
sg20
F-0.38695904427439487
sg21
I01
sbsg7
I1
sg22
(imyEvolve
Tree
p126
(dp127
g7
I0
sg21
I00
sbsg25
I00
sg26
g27
sbsg25
I00
sg26
g43
sbsg25
I00
sg26
g43
sbsg7
I4
sg25
I01
sg26
g44
sba(imyEvolve
Tree
p128
(dp129
g11
(imyEvolve
Tree
p130
(dp131
g11
(imyEvolve
Tree
p132
(dp133
g8
(imyEvolve
Tree
p134
(dp135
g8
(imyEvolve
Tree
p136
(dp137
g11
(imyEvolve
Tree
p138
(dp139
g7
I0
sg20
F-2.9263501231869493
sg21
I01
sbsg7
I1
sg25
I01
sg26
g67
sbsg7
I2
sg22
(imyEvolve
Tree
p140
(dp141
g8
(imyEvolve
Tree
p142
(dp143
g7
I0
sg21
I00
sbsg7
I1
sg22
(imyEvolve
Tree
p144
(dp145
g7
I0
sg21
I00
sbsg25
I00
sg26
g42
sbsg25
I00
sg26
g43
sbsg7
I3
sg22
(imyEvolve
Tree
p146
(dp147
g8
(imyEvolve
Tree
p148
(dp149
g11
(imyEvolve
Tree
p150
(dp151
g7
I0
sg20
F1.5276632353878465
sg21
I01
sbsg7
I1
sg25
I01
sg26
g67
sbsg7
I2
sg22
(imyEvolve
Tree
p152
(dp153
g8
(imyEvolve
Tree
p154
(dp155
g7
I0
sg21
I00
sbsg7
I1
sg22
(imyEvolve
Tree
p156
(dp157
g7
I0
sg21
I00
sbsg25
I00
sg26
g27
sbsg25
I00
sg26
g27
sbsg25
I00
sg26
g27
sbsg7
I4
sg25
I01
sg26
g35
sbsg7
I5
sg25
I01
sg26
g28
sba(imyEvolve
Tree
p158
(dp159
g11
(imyEvolve
Tree
p160
(dp161
g8
(imyEvolve
Tree
p162
(dp163
g8
(imyEvolve
Tree
p164
(dp165
g11
(imyEvolve
Tree
p166
(dp167
g11
(imyEvolve
Tree
p168
(dp169
g7
I0
sg20
F0.7779369455138827
sg21
I01
sbsg7
I1
sg25
I01
sg26
g35
sbsg7
I2
sg25
I01
sg26
g28
sbsg7
I3
sg22
(imyEvolve
Tree
p170
(dp171
g11
(imyEvolve
Tree
p172
(dp173
g11
(imyEvolve
Tree
p174
(dp175
g7
I0
sg21
I00
sbsg7
I1
sg25
I01
sg26
g44
sbsg7
I2
sg25
I01
sg26
g35
sbsg25
I00
sg26
g27
sbsg7
I4
sg22
(imyEvolve
Tree
p176
(dp177
g8
(imyEvolve
Tree
p178
(dp179
g8
(imyEvolve
Tree
p180
(dp181
g11
(imyEvolve
Tree
p182
(dp183
g7
I0
sg20
F-4.1651003695969715
sg21
I01
sbsg7
I1
sg25
I01
sg26
g35
sbsg7
I2
sg22
(imyEvolve
Tree
p184
(dp185
g8
(imyEvolve
Tree
p186
(dp187
g7
I0
sg20
F-1.229678635524233
sg21
I01
sbsg7
I1
sg22
(imyEvolve
Tree
p188
(dp189
g7
I0
sg21
I00
sbsg25
I00
sg26
g42
sbsg25
I00
sg26
g43
sbsg7
I3
sg22
(imyEvolve
Tree
p190
(dp191
g11
(imyEvolve
Tree
p192
(dp193
g8
(imyEvolve
Tree
p194
(dp195
g7
I0
sg21
I00
sbsg7
I1
sg22
(imyEvolve
Tree
p196
(dp197
g7
I0
sg20
F1.6740257058900996
sg21
I01
sbsg25
I00
sg26
g27
sbsg7
I2
sg25
I01
sg26
g67
sbsg25
I00
sg26
g42
sbsg25
I00
sg26
g42
sbsg7
I5
sg25
I01
sg26
g35
sba(imyEvolve
Tree
p198
(dp199
g8
(imyEvolve
Tree
p200
(dp201
g8
(imyEvolve
Tree
p202
(dp203
g7
I0
sg21
I00
sbsg7
I1
sg22
(imyEvolve
Tree
p204
(dp205
g7
I0
sg20
F-2.39721498589606
sg21
I01
sbsg25
I00
sg26
g42
sbsg7
I2
sg22
(imyEvolve
Tree
p206
(dp207
g11
(imyEvolve
Tree
p208
(dp209
g7
I0
sg20
F-0.21158833116066766
sg21
I01
sbsg7
I1
sg25
I01
sg26
g35
sbsg25
I00
sg26
g43
sba(imyEvolve
Tree
p210
(dp211
g8
(imyEvolve
Tree
p212
(dp213
g11
(imyEvolve
Tree
p214
(dp215
g8
(imyEvolve
Tree
p216
(dp217
g11
(imyEvolve
Tree
p218
(dp219
g7
I0
sg20
F-2.7591914654907934
sg21
I01
sbsg7
I1
sg25
I01
sg26
g28
sbsg7
I2
sg22
(imyEvolve
Tree
p220
(dp221
g8
(imyEvolve
Tree
p222
(dp223
g7
I0
sg20
F0.3604190333193422
sg21
I01
sbsg7
I1
sg22
(imyEvolve
Tree
p224
(dp225
g7
I0
sg20
F4.349390443728565
sg21
I01
sbsg25
I00
sg26
g43
sbsg25
I00
sg26
g27
sbsg7
I3
sg25
I01
sg26
g67
sbsg7
I4
sg22
(imyEvolve
Tree
p226
(dp227
g8
(imyEvolve
Tree
p228
(dp229
g11
(imyEvolve
Tree
p230
(dp231
g8
(imyEvolve
Tree
p232
(dp233
g7
I0
sg20
F0.8069133229575511
sg21
I01
sbsg7
I1
sg22
(imyEvolve
Tree
p234
(dp235
g7
I0
sg20
F3.209381022253396
sg21
I01
sbsg25
I00
sg26
g43
sbsg7
I2
sg25
I01
sg26
g67
sbsg7
I3
sg22
(imyEvolve
Tree
p236
(dp237
g8
(imyEvolve
Tree
p238
(dp239
g11
(imyEvolve
Tree
p240
(dp241
g7
I0
sg20
F-3.0788127441239688
sg21
I01
sbsg7
I1
sg25
I01
sg26
g67
sbsg7
I2
sg22
(imyEvolve
Tree
p242
(dp243
g8
(imyEvolve
Tree
p244
(dp245
g7
I0
sg20
F1.7838900925546284
sg21
I01
sbsg7
I1
sg22
(imyEvolve
Tree
p246
(dp247
g7
I0
sg20
F-0.20403966627840475
sg21
I01
sbsg25
I00
sg26
g27
sbsg25
I00
sg26
g42
sbsg25
I00
sg26
g42
sbsg25
I00
sg26
g42
sba(imyEvolve
Tree
p248
(dp249
g11
(imyEvolve
Tree
p250
(dp251
g8
(imyEvolve
Tree
p252
(dp253
g11
(imyEvolve
Tree
p254
(dp255
g8
(imyEvolve
Tree
p256
(dp257
g7
I0
sg21
I00
sbsg7
I1
sg22
(imyEvolve
Tree
p258
(dp259
g7
I0
sg21
I00
sbsg25
I00
sg26
g43
sbsg7
I2
sg25
I01
sg26
g44
sbsg7
I3
sg22
(imyEvolve
Tree
p260
(dp261
g11
(imyEvolve
Tree
p262
(dp263
g8
(imyEvolve
Tree
p264
(dp265
g7
I0
sg21
I00
sbsg7
I1
sg22
(imyEvolve
Tree
p266
(dp267
g7
I0
sg20
F-3.5905986459828565
sg21
I01
sbsg25
I00
sg26
g27
sbsg7
I2
sg25
I01
sg26
g67
sbsg25
I00
sg26
g27
sbsg7
I4
sg25
I01
sg26
g35
sba(imyEvolve
Tree
p268
(dp269
g7
I4
sg8
(imyEvolve
Tree
p270
(dp271
g11
(imyEvolve
Tree
p272
(dp273
g7
I2
sg8
(imyEvolve
Tree
p274
(dp275
g7
I1
sg8
(imyEvolve
Tree
p276
(dp277
g7
I0
sg20
F-4.9391175617507095
sg21
I01
sbsg22
(imyEvolve
Tree
p278
(dp279
g7
I0
sg21
I00
sbsg25
I00
sg26
g42
sbsg22
(imyEvolve
Tree
p280
(dp281
g11
(imyEvolve
Tree
p282
(dp283
g7
I0
sg20
F4.6552940331781585
sg21
I01
sbsg7
I1
sg25
I01
sg26
g44
sbsg25
I00
sg26
g43
sbsg7
I3
sg25
I01
sg26
g35
sbsg22
(imyEvolve
Tree
p284
(dp285
g11
(imyEvolve
Tree
p286
(dp287
g7
I2
sg8
(imyEvolve
Tree
p288
(dp289
g11
(imyEvolve
Tree
p290
(dp291
g7
I0
sg20
F-2.0840389264668433
sg21
I01
sbsg7
I1
sg25
I01
sg26
g67
sbsg22
(imyEvolve
Tree
p292
(dp293
g7
I1
sg8
(imyEvolve
Tree
p294
(dp295
g7
I0
sg20
F1.3525643759117125
sg21
I01
sbsg22
(imyEvolve
Tree
p296
(dp297
g7
I0
sg20
F1.4028225833573895
sg21
I01
sbsg25
I00
sg26
g43
sbsg25
I00
sg26
g42
sbsg7
I3
sg25
I01
sg26
g67
sbsg25
I00
sg26
g42
sbaa(lp298
(imyEvolve
Tree
p299
(dp300
g7
I3
sg8
(imyEvolve
Tree
p301
(dp302
g7
I2
sg8
(imyEvolve
Tree
p303
(dp304
g11
(imyEvolve
Tree
p305
(dp306
g7
I0
sg21
I00
sbsg7
I1
sg25
I01
sg26
g67
sbsg22
(imyEvolve
Tree
p307
(dp308
g7
I1
sg8
(imyEvolve
Tree
p309
(dp310
g7
I0
sg20
F-2.6784615057070917
sg21
I01
sbsg22
(imyEvolve
Tree
p311
(dp312
g7
I0
sg21
I00
sbsg25
I00
sg26
g43
sbsg25
I00
sg26
g43
sbsg22
(imyEvolve
Tree
p313
(dp314
g11
(imyEvolve
Tree
p315
(dp316
g7
I1
sg8
(imyEvolve
Tree
p317
(dp318
g7
I0
sg20
F4.346983213082456
sg21
I01
sbsg22
(imyEvolve
Tree
p319
(dp320
g7
I0
sg21
I00
sbsg25
I00
sg26
g43
sbsg7
I2
sg25
I01
sg26
g28
sbsg25
I00
sg26
g27
sba(imyEvolve
Tree
p321
(dp322
g7
I5
sg8
(imyEvolve
Tree
p323
(dp324
g7
I4
sg8
(imyEvolve
Tree
p325
(dp326
g7
I3
sg8
(imyEvolve
Tree
p327
(dp328
g7
I2
sg8
(imyEvolve
Tree
p329
(dp330
g7
I1
sg8
(imyEvolve
Tree
p331
(dp332
g7
I0
sg21
I00
sbsg22
(imyEvolve
Tree
p333
(dp334
g7
I0
sg21
I00
sbsg25
I00
sg26
g42
sbsg22
(imyEvolve
Tree
p335
(dp336
g7
I1
sg8
(imyEvolve
Tree
p337
(dp338
g7
I0
sg20
F0.1724589255958362
sg21
I01
sbsg22
(imyEvolve
Tree
p339
(dp340
g7
I0
sg20
F-3.017356186193899
sg21
I01
sbsg25
I00
sg26
g42
sbsg25
I00
sg26
g27
sbsg22
(imyEvolve
Tree
p341
(dp342
g7
I2
sg8
(imyEvolve
Tree
p343
(dp344
g11
(imyEvolve
Tree
p345
(dp346
g7
I0
sg20
F0.7682638121134406
sg21
I01
sbsg7
I1
sg25
I01
sg26
g67
sbsg22
(imyEvolve
Tree
p347
(dp348
g11
(imyEvolve
Tree
p349
(dp350
g7
I0
sg20
F-3.3093682137363976
sg21
I01
sbsg7
I1
sg25
I01
sg26
g67
sbsg25
I00
sg26
g42
sbsg25
I00
sg26
g42
sbsg22
(imyEvolve
Tree
p351
(dp352
g11
(imyEvolve
Tree
p353
(dp354
g11
(imyEvolve
Tree
p355
(dp356
g7
I1
sg8
(imyEvolve
Tree
p357
(dp358
g7
I0
sg21
I00
sbsg22
(imyEvolve
Tree
p359
(dp360
g7
I0
sg20
F1.2832994799942332
sg21
I01
sbsg25
I00
sg26
g43
sbsg7
I2
sg25
I01
sg26
g28
sbsg7
I3
sg25
I01
sg26
g35
sbsg25
I00
sg26
g42
sbsg22
(imyEvolve
Tree
p361
(dp362
g7
I4
sg8
(imyEvolve
Tree
p363
(dp364
g7
I3
sg8
(imyEvolve
Tree
p365
(dp366
g7
I2
sg8
(imyEvolve
Tree
p367
(dp368
g7
I1
sg8
(imyEvolve
Tree
p369
(dp370
g7
I0
sg20
F1.296281111189912
sg21
I01
sbsg22
(imyEvolve
Tree
p371
(dp372
g7
I0
sg20
F-2.062545591648769
sg21
I01
sbsg25
I00
sg26
g27
sbsg22
(imyEvolve
Tree
p373
(dp374
g11
(imyEvolve
Tree
p375
(dp376
g7
I0
sg20
F2.770287266244308
sg21
I01
sbsg7
I1
sg25
I01
sg26
g44
sbsg25
I00
sg26
g42
sbsg22
(imyEvolve
Tree
p377
(dp378
g7
I2
sg8
(imyEvolve
Tree
p379
(dp380
g11
(imyEvolve
Tree
p381
(dp382
g7
I0
sg21
I00
sbsg7
I1
sg25
I01
sg26
g35
sbsg22
(imyEvolve
Tree
p383
(dp384
g11
(imyEvolve
Tree
p385
(dp386
g7
I0
sg20
F-2.638488939403485
sg21
I01
sbsg7
I1
sg25
I01
sg26
g67
sbsg25
I00
sg26
g43
sbsg25
I00
sg26
g43
sbsg22
(imyEvolve
Tree
p387
(dp388
g7
I3
sg8
(imyEvolve
Tree
p389
(dp390
g7
I2
sg8
(imyEvolve
Tree
p391
(dp392
g11
(imyEvolve
Tree
p393
(dp394
g7
I0
sg21
I00
sbsg7
I1
sg25
I01
sg26
g28
sbsg22
(imyEvolve
Tree
p395
(dp396
g11
(imyEvolve
Tree
p397
(dp398
g7
I0
sg20
F-0.5995329164792231
sg21
I01
sbsg7
I1
sg25
I01
sg26
g28
sbsg25
I00
sg26
g42
sbsg22
(imyEvolve
Tree
p399
(dp400
g7
I2
sg8
(imyEvolve
Tree
p401
(dp402
g7
I1
sg8
(imyEvolve
Tree
p403
(dp404
g7
I0
sg20
F2.214433139552031
sg21
I01
sbsg22
(imyEvolve
Tree
p405
(dp406
g7
I0
sg20
F0.6730510631605053
sg21
I01
sbsg25
I00
sg26
g27
sbsg22
(imyEvolve
Tree
p407
(dp408
g7
I1
sg8
(imyEvolve
Tree
p409
(dp410
g7
I0
sg21
I00
sbsg22
(imyEvolve
Tree
p411
(dp412
g7
I0
sg20
F-0.251508829600418
sg21
I01
sbsg25
I00
sg26
g27
sbsg25
I00
sg26
g27
sbsg25
I00
sg26
g43
sbsg25
I00
sg26
g27
sbsg25
I00
sg26
g27
sba(imyEvolve
Tree
p413
(dp414
g8
(imyEvolve
Tree
p415
(dp416
g11
(imyEvolve
Tree
p417
(dp418
g8
(imyEvolve
Tree
p419
(dp420
g7
I0
sg21
I00
sbsg7
I1
sg22
(imyEvolve
Tree
p421
(dp422
g7
I0
sg20
F-1.5972996347615798
sg21
I01
sbsg25
I00
sg26
g42
sbsg7
I2
sg25
I01
sg26
g44
sbsg7
I3
sg22
(imyEvolve
Tree
p423
(dp424
g8
(imyEvolve
Tree
p425
(dp426
g8
(imyEvolve
Tree
p427
(dp428
g7
I0
sg21
I00
sbsg7
I1
sg22
(imyEvolve
Tree
p429
(dp430
g7
I0
sg21
I00
sbsg25
I00
sg26
g42
sbsg7
I2
sg22
(imyEvolve
Tree
p431
(dp432
g11
(imyEvolve
Tree
p433
(dp434
g7
I0
sg20
F-4.165686258971552
sg21
I01
sbsg7
I1
sg25
I01
sg26
g67
sbsg25
I00
sg26
g42
sbsg25
I00
sg26
g27
sba(imyEvolve
Tree
p435
(dp436
g11
(imyEvolve
Tree
p437
(dp438
g11
(imyEvolve
Tree
p439
(dp440
g7
I3
sg8
(imyEvolve
Tree
p441
(dp442
g11
(imyEvolve
Tree
p443
(dp444
g7
I1
sg8
(imyEvolve
Tree
p445
(dp446
g7
I0
sg21
I00
sbsg22
(imyEvolve
Tree
p447
(dp448
g7
I0
sg21
I00
sbsg25
I00
sg26
g43
sbsg7
I2
sg25
I01
sg26
g28
sbsg22
(imyEvolve
Tree
p449
(dp450
g7
I2
sg8
(imyEvolve
Tree
p451
(dp452
g7
I1
sg8
(imyEvolve
Tree
p453
(dp454
g7
I0
sg21
I00
sbsg22
(imyEvolve
Tree
p455
(dp456
g7
I0
sg21
I00
sbsg25
I00
sg26
g27
sbsg22
(imyEvolve
Tree
p457
(dp458
g7
I1
sg8
(imyEvolve
Tree
p459
(dp460
g7
I0
sg20
F2.1016543203422158
sg21
I01
sbsg22
(imyEvolve
Tree
p461
(dp462
g7
I0
sg21
I00
sbsg25
I00
sg26
g42
sbsg25
I00
sg26
g42
sbsg25
I00
sg26
g43
sbsg7
I4
sg25
I01
sg26
g67
sbsg7
I5
sg25
I01
sg26
g28
sba(imyEvolve
Tree
p463
(dp464
g11
(imyEvolve
Tree
p465
(dp466
g11
(imyEvolve
Tree
p467
(dp468
g11
(imyEvolve
Tree
p469
(dp470
g11
(imyEvolve
Tree
p471
(dp472
g7
I0
sg21
I00
sbsg7
I1
sg25
I01
sg26
g28
sbsg7
I2
sg25
I01
sg26
g28
sbsg7
I3
sg25
I01
sg26
g44
sbsg7
I4
sg25
I01
sg26
g67
sba(imyEvolve
Tree
p473
(dp474
g8
(imyEvolve
Tree
p475
(dp476
g11
(imyEvolve
Tree
p477
(dp478
g7
I0
sg20
F-3.0177508138532527
sg21
I01
sbsg7
I1
sg25
I01
sg26
g28
sbsg7
I2
sg22
(imyEvolve
Tree
p479
(dp480
g8
(imyEvolve
Tree
p481
(dp482
g7
I0
sg21
I00
sbsg7
I1
sg22
(imyEvolve
Tree
p483
(dp484
g7
I0
sg20
F1.3363870941208988
sg21
I01
sbsg25
I00
sg26
g43
sbsg25
I00
sg26
g43
sba(imyEvolve
Tree
p485
(dp486
g8
(imyEvolve
Tree
p487
(dp488
g8
(imyEvolve
Tree
p489
(dp490
g11
(imyEvolve
Tree
p491
(dp492
g7
I0
sg21
I00
sbsg7
I1
sg25
I01
sg26
g35
sbsg7
I2
sg22
(imyEvolve
Tree
p493
(dp494
g8
(imyEvolve
Tree
p495
(dp496
g7
I0
sg20
F1.6307893151257034
sg21
I01
sbsg7
I1
sg22
(imyEvolve
Tree
p497
(dp498
g7
I0
sg21
I00
sbsg25
I00
sg26
g43
sbsg25
I00
sg26
g27
sbsg7
I3
sg22
(imyEvolve
Tree
p499
(dp500
g11
(imyEvolve
Tree
p501
(dp502
g11
(imyEvolve
Tree
p503
(dp504
g7
I0
sg20
F4.678068798671045
sg21
I01
sbsg7
I1
sg25
I01
sg26
g67
sbsg7
I2
sg25
I01
sg26
g44
sbsg25
I00
sg26
g42
sba(imyEvolve
Tree
p505
(dp506
g8
(imyEvolve
Tree
p507
(dp508
g11
(imyEvolve
Tree
p509
(dp510
g11
(imyEvolve
Tree
p511
(dp512
g7
I0
sg21
I00
sbsg7
I1
sg25
I01
sg26
g28
sbsg7
I2
sg25
I01
sg26
g67
sbsg7
I3
sg22
(imyEvolve
Tree
p513
(dp514
g11
(imyEvolve
Tree
p515
(dp516
g11
(imyEvolve
Tree
p517
(dp518
g7
I0
sg21
I00
sbsg7
I1
sg25
I01
sg26
g28
sbsg7
I2
sg25
I01
sg26
g44
sbsg25
I00
sg26
g43
sba(imyEvolve
Tree
p519
(dp520
g11
(imyEvolve
Tree
p521
(dp522
g7
I3
sg8
(imyEvolve
Tree
p523
(dp524
g11
(imyEvolve
Tree
p525
(dp526
g11
(imyEvolve
Tree
p527
(dp528
g7
I0
sg21
I00
sbsg7
I1
sg25
I01
sg26
g28
sbsg7
I2
sg25
I01
sg26
g35
sbsg22
(imyEvolve
Tree
p529
(dp530
g7
I2
sg8
(imyEvolve
Tree
p531
(dp532
g7
I1
sg8
(imyEvolve
Tree
p533
(dp534
g7
I0
sg21
I00
sbsg22
(imyEvolve
Tree
p535
(dp536
g7
I0
sg20
F-1.7646561735438402
sg21
I01
sbsg25
I00
sg26
g27
sbsg22
(imyEvolve
Tree
p537
(dp538
g11
(imyEvolve
Tree
p539
(dp540
g7
I0
sg21
I00
sbsg7
I1
sg25
I01
sg26
g67
sbsg25
I00
sg26
g43
sbsg25
I00
sg26
g27
sbsg7
I4
sg25
I01
sg26
g67
sba(imyEvolve
Tree
p541
(dp542
g11
(imyEvolve
Tree
p543
(dp544
g11
(imyEvolve
Tree
p545
(dp546
g7
I2
sg8
(imyEvolve
Tree
p547
(dp548
g11
(imyEvolve
Tree
p549
(dp550
g7
I0
sg21
I00
sbsg7
I1
sg25
I01
sg26
g67
sbsg22
(imyEvolve
Tree
p551
(dp552
g11
(imyEvolve
Tree
p553
(dp554
g7
I0
sg21
I00
sbsg7
I1
sg25
I01
sg26
g35
sbsg25
I00
sg26
g42
sbsg7
I3
sg25
I01
sg26
g67
sbsg7
I4
sg25
I01
sg26
g44
sba(imyEvolve
Tree
p555
(dp556
g7
I4
sg8
(imyEvolve
Tree
p557
(dp558
g11
(imyEvolve
Tree
p559
(dp560
g7
I2
sg8
(imyEvolve
Tree
p561
(dp562
g7
I1
sg8
(imyEvolve
Tree
p563
(dp564
g7
I0
sg20
F-1.9310106383706294
sg21
I01
sbsg22
(imyEvolve
Tree
p565
(dp566
g7
I0
sg21
I00
sbsg25
I00
sg26
g42
sbsg22
(imyEvolve
Tree
p567
(dp568
g11
(imyEvolve
Tree
p569
(dp570
g7
I0
sg20
F-3.734522793347983
sg21
I01
sbsg7
I1
sg25
I01
sg26
g67
sbsg25
I00
sg26
g27
sbsg7
I3
sg25
I01
sg26
g67
sbsg22
(imyEvolve
Tree
p571
(dp572
g7
I3
sg8
(imyEvolve
Tree
p573
(dp574
g7
I2
sg8
(imyEvolve
Tree
p575
(dp576
g11
(imyEvolve
Tree
p577
(dp578
g7
I0
sg21
I00
sbsg7
I1
sg25
I01
sg26
g35
sbsg22
(imyEvolve
Tree
p579
(dp580
g7
I1
sg8
(imyEvolve
Tree
p581
(dp582
g7
I0
sg21
I00
sbsg22
(imyEvolve
Tree
p583
(dp584
g7
I0
sg21
I00
sbsg25
I00
sg26
g43
sbsg25
I00
sg26
g27
sbsg22
(imyEvolve
Tree
p585
(dp586
g7
I2
sg8
(imyEvolve
Tree
p587
(dp588
g11
(imyEvolve
Tree
p589
(dp590
g7
I0
sg21
I00
sbsg7
I1
sg25
I01
sg26
g28
sbsg22
(imyEvolve
Tree
p591
(dp592
g11
(imyEvolve
Tree
p593
(dp594
g7
I0
sg20
F2.779825637206452
sg21
I01
sbsg7
I1
sg25
I01
sg26
g67
sbsg25
I00
sg26
g42
sbsg25
I00
sg26
g27
sbsg25
I00
sg26
g43
sba(imyEvolve
Tree
p595
(dp596
g7
I3
sg8
(imyEvolve
Tree
p597
(dp598
g11
(imyEvolve
Tree
p599
(dp600
g7
I1
sg8
(imyEvolve
Tree
p601
(dp602
g7
I0
sg21
I00
sbsg22
(imyEvolve
Tree
p603
(dp604
g7
I0
sg20
F-4.281556523030144
sg21
I01
sbsg25
I00
sg26
g27
sbsg7
I2
sg25
I01
sg26
g67
sbsg22
(imyEvolve
Tree
p605
(dp606
g11
(imyEvolve
Tree
p607
(dp608
g7
I1
sg8
(imyEvolve
Tree
p609
(dp610
g7
I0
sg21
I00
sbsg22
(imyEvolve
Tree
p611
(dp612
g7
I0
sg20
F2.049221344107667
sg21
I01
sbsg25
I00
sg26
g27
sbsg7
I2
sg25
I01
sg26
g28
sbsg25
I00
sg26
g27
sbaa(lp613
(imyEvolve
Tree
p614
(dp615
g8
(imyEvolve
Tree
p616
(dp617
g8
(imyEvolve
Tree
p618
(dp619
g7
I0
sg20
F-0.6323255800914298
sg21
I01
sbsg7
I1
sg22
(imyEvolve
Tree
p620
(dp621
g7
I0
sg21
I00
sbsg25
I00
sg26
g43
sbsg7
I2
sg22
(imyEvolve
Tree
p622
(dp623
g11
(imyEvolve
Tree
p624
(dp625
g7
I0
sg20
F3.7525653822434037
sg21
I01
sbsg7
I1
sg25
I01
sg26
g44
sbsg25
I00
sg26
g27
sba(imyEvolve
Tree
p626
(dp627
g8
(imyEvolve
Tree
p628
(dp629
g8
(imyEvolve
Tree
p630
(dp631
g11
(imyEvolve
Tree
p632
(dp633
g8
(imyEvolve
Tree
p634
(dp635
g8
(imyEvolve
Tree
p636
(dp637
g7
I0
sg20
F3.904764344901558
sg21
I01
sbsg7
I1
sg22
(imyEvolve
Tree
p638
(dp639
g7
I0
sg20
F2.060753821990949
sg21
I01
sbsg25
I00
sg26
g43
sbsg7
I2
sg22
(imyEvolve
Tree
p640
(dp641
g11
(imyEvolve
Tree
p642
(dp643
g7
I0
sg20
F-1.1392739968404086
sg21
I01
sbsg7
I1
sg25
I01
sg26
g35
sbsg25
I00
sg26
g43
sbsg7
I3
sg25
I01
sg26
g44
sbsg7
I4
sg22
(imyEvolve
Tree
p644
(dp645
g8
(imyEvolve
Tree
p646
(dp647
g11
(imyEvolve
Tree
p648
(dp649
g11
(imyEvolve
Tree
p650
(dp651
g7
I0
sg20
F0.36521781779022966
sg21
I01
sbsg7
I1
sg25
I01
sg26
g28
sbsg7
I2
sg25
I01
sg26
g35
sbsg7
I3
sg22
(imyEvolve
Tree
p652
(dp653
g11
(imyEvolve
Tree
p654
(dp655
g8
(imyEvolve
Tree
p656
(dp657
g7
I0
sg20
F-4.099463153055747
sg21
I01
sbsg7
I1
sg22
(imyEvolve
Tree
p658
(dp659
g7
I0
sg21
I00
sbsg25
I00
sg26
g27
sbsg7
I2
sg25
I01
sg26
g67
sbsg25
I00
sg26
g42
sbsg25
I00
sg26
g42
sbsg7
I5
sg22
(imyEvolve
Tree
p660
(dp661
g8
(imyEvolve
Tree
p662
(dp663
g8
(imyEvolve
Tree
p664
(dp665
g11
(imyEvolve
Tree
p666
(dp667
g8
(imyEvolve
Tree
p668
(dp669
g7
I0
sg20
F-0.07143448324029222
sg21
I01
sbsg7
I1
sg22
(imyEvolve
Tree
p670
(dp671
g7
I0
sg20
F1.3914131280980477
sg21
I01
sbsg25
I00
sg26
g27
sbsg7
I2
sg25
I01
sg26
g28
sbsg7
I3
sg22
(imyEvolve
Tree
p672
(dp673
g11
(imyEvolve
Tree
p674
(dp675
g8
(imyEvolve
Tree
p676
(dp677
g7
I0
sg20
F-4.45615651891059
sg21
I01
sbsg7
I1
sg22
(imyEvolve
Tree
p678
(dp679
g7
I0
sg20
F2.0767601953079398
sg21
I01
sbsg25
I00
sg26
g27
sbsg7
I2
sg25
I01
sg26
g67
sbsg25
I00
sg26
g27
sbsg7
I4
sg22
(imyEvolve
Tree
p680
(dp681
g8
(imyEvolve
Tree
p682
(dp683
g8
(imyEvolve
Tree
p684
(dp685
g8
(imyEvolve
Tree
p686
(dp687
g7
I0
sg20
F-4.932772731633161
sg21
I01
sbsg7
I1
sg22
(imyEvolve
Tree
p688
(dp689
g7
I0
sg20
F-3.4003348473806128
sg21
I01
sbsg25
I00
sg26
g42
sbsg7
I2
sg22
(imyEvolve
Tree
p690
(dp691
g8
(imyEvolve
Tree
p692
(dp693
g7
I0
sg20
F-4.107577769028311
sg21
I01
sbsg7
I1
sg22
(imyEvolve
Tree
p694
(dp695
g7
I0
sg21
I00
sbsg25
I00
sg26
g42
sbsg25
I00
sg26
g42
sbsg7
I3
sg22
(imyEvolve
Tree
p696
(dp697
g8
(imyEvolve
Tree
p698
(dp699
g8
(imyEvolve
Tree
p700
(dp701
g7
I0
sg20
F-4.792031692400181
sg21
I01
sbsg7
I1
sg22
(imyEvolve
Tree
p702
(dp703
g7
I0
sg21
I00
sbsg25
I00
sg26
g42
sbsg7
I2
sg22
(imyEvolve
Tree
p704
(dp705
g8
(imyEvolve
Tree
p706
(dp707
g7
I0
sg20
F3.5313018003663412
sg21
I01
sbsg7
I1
sg22
(imyEvolve
Tree
p708
(dp709
g7
I0
sg20
F4.686452326413505
sg21
I01
sbsg25
I00
sg26
g43
sbsg25
I00
sg26
g27
sbsg25
I00
sg26
g43
sbsg25
I00
sg26
g43
sbsg25
I00
sg26
g43
sba(imyEvolve
Tree
p710
(dp711
g11
(imyEvolve
Tree
p712
(dp713
g7
I1
sg8
(imyEvolve
Tree
p714
(dp715
g7
I0
sg20
F1.7439484624213257
sg21
I01
sbsg22
(imyEvolve
Tree
p716
(dp717
g7
I0
sg21
I00
sbsg25
I00
sg26
g43
sbsg7
I2
sg25
I01
sg26
g35
sba(imyEvolve
Tree
p718
(dp719
g7
I2
sg8
(imyEvolve
Tree
p720
(dp721
g7
I1
sg8
(imyEvolve
Tree
p722
(dp723
g7
I0
sg20
F-3.03830678869605
sg21
I01
sbsg22
(imyEvolve
Tree
p724
(dp725
g7
I0
sg21
I00
sbsg25
I00
sg26
g27
sbsg22
(imyEvolve
Tree
p726
(dp727
g7
I1
sg8
(imyEvolve
Tree
p728
(dp729
g7
I0
sg20
F3.8315650222120663
sg21
I01
sbsg22
(imyEvolve
Tree
p730
(dp731
g7
I0
sg20
F-4.317666082982694
sg21
I01
sbsg25
I00
sg26
g27
sbsg25
I00
sg26
g27
sba(imyEvolve
Tree
p732
(dp733
g11
(imyEvolve
Tree
p734
(dp735
g11
(imyEvolve
Tree
p736
(dp737
g11
(imyEvolve
Tree
p738
(dp739
g7
I0
sg21
I00
sbsg7
I1
sg25
I01
sg26
g35
sbsg7
I2
sg25
I01
sg26
g35
sbsg7
I3
sg25
I01
sg26
g44
sba(imyEvolve
Tree
p740
(dp741
g11
(imyEvolve
Tree
p742
(dp743
g8
(imyEvolve
Tree
p744
(dp745
g8
(imyEvolve
Tree
p746
(dp747
g8
(imyEvolve
Tree
p748
(dp749
g11
(imyEvolve
Tree
p750
(dp751
g7
I0
sg20
F-3.1672783859146714
sg21
I01
sbsg7
I1
sg25
I01
sg26
g35
sbsg7
I2
sg22
(imyEvolve
Tree
p752
(dp753
g8
(imyEvolve
Tree
p754
(dp755
g7
I0
sg20
F1.4216024719643858
sg21
I01
sbsg7
I1
sg22
(imyEvolve
Tree
p756
(dp757
g7
I0
sg21
I00
sbsg25
I00
sg26
g27
sbsg25
I00
sg26
g27
sbsg7
I3
sg22
(imyEvolve
Tree
p758
(dp759
g11
(imyEvolve
Tree
p760
(dp761
g11
(imyEvolve
Tree
p762
(dp763
g7
I0
sg21
I00
sbsg7
I1
sg25
I01
sg26
g35
sbsg7
I2
sg25
I01
sg26
g44
sbsg25
I00
sg26
g42
sbsg7
I4
sg22
(imyEvolve
Tree
p764
(dp765
g8
(imyEvolve
Tree
p766
(dp767
g11
(imyEvolve
Tree
p768
(dp769
g8
(imyEvolve
Tree
p770
(dp771
g7
I0
sg20
F0.06807839348634293
sg21
I01
sbsg7
I1
sg22
(imyEvolve
Tree
p772
(dp773
g7
I0
sg21
I00
sbsg25
I00
sg26
g27
sbsg7
I2
sg25
I01
sg26
g35
sbsg7
I3
sg22
(imyEvolve
Tree
p774
(dp775
g8
(imyEvolve
Tree
p776
(dp777
g11
(imyEvolve
Tree
p778
(dp779
g7
I0
sg20
F-2.413537894886899
sg21
I01
sbsg7
I1
sg25
I01
sg26
g35
sbsg7
I2
sg22
(imyEvolve
Tree
p780
(dp781
g11
(imyEvolve
Tree
p782
(dp783
g7
I0
sg20
F2.9062212505876968
sg21
I01
sbsg7
I1
sg25
I01
sg26
g44
sbsg25
I00
sg26
g42
sbsg25
I00
sg26
g43
sbsg25
I00
sg26
g42
sbsg7
I5
sg25
I01
sg26
g28
sba(imyEvolve
Tree
p784
(dp785
g11
(imyEvolve
Tree
p786
(dp787
g8
(imyEvolve
Tree
p788
(dp789
g7
I0
sg20
F3.5278467671466522
sg21
I01
sbsg7
I1
sg22
(imyEvolve
Tree
p790
(dp791
g7
I0
sg20
F-0.9388961428783187
sg21
I01
sbsg25
I00
sg26
g27
sbsg7
I2
sg25
I01
sg26
g67
sba(imyEvolve
Tree
p792
(dp793
g8
(imyEvolve
Tree
p794
(dp795
g8
(imyEvolve
Tree
p796
(dp797
g7
I0
sg21
I00
sbsg7
I1
sg22
(imyEvolve
Tree
p798
(dp799
g7
I0
sg21
I00
sbsg25
I00
sg26
g27
sbsg7
I2
sg22
(imyEvolve
Tree
p800
(dp801
g8
(imyEvolve
Tree
p802
(dp803
g7
I0
sg21
I00
sbsg7
I1
sg22
(imyEvolve
Tree
p804
(dp805
g7
I0
sg21
I00
sbsg25
I00
sg26
g43
sbsg25
I00
sg26
g42
sba(imyEvolve
Tree
p806
(dp807
g11
(imyEvolve
Tree
p808
(dp809
g7
I2
sg8
(imyEvolve
Tree
p810
(dp811
g7
I1
sg8
(imyEvolve
Tree
p812
(dp813
g7
I0
sg20
F-3.2560321284635885
sg21
I01
sbsg22
(imyEvolve
Tree
p814
(dp815
g7
I0
sg20
F3.8776056974156496
sg21
I01
sbsg25
I00
sg26
g27
sbsg22
(imyEvolve
Tree
p816
(dp817
g11
(imyEvolve
Tree
p818
(dp819
g7
I0
sg20
F4.432024578969179
sg21
I01
sbsg7
I1
sg25
I01
sg26
g44
sbsg25
I00
sg26
g43
sbsg7
I3
sg25
I01
sg26
g44
sba(imyEvolve
Tree
p820
(dp821
g11
(imyEvolve
Tree
p822
(dp823
g11
(imyEvolve
Tree
p824
(dp825
g8
(imyEvolve
Tree
p826
(dp827
g7
I0
sg21
I00
sbsg7
I1
sg22
(imyEvolve
Tree
p828
(dp829
g7
I0
sg21
I00
sbsg25
I00
sg26
g42
sbsg7
I2
sg25
I01
sg26
g44
sbsg7
I3
sg25
I01
sg26
g28
sba(imyEvolve
Tree
p830
(dp831
g8
(imyEvolve
Tree
p832
(dp833
g8
(imyEvolve
Tree
p834
(dp835
g7
I0
sg20
F-1.439240005232496
sg21
I01
sbsg7
I1
sg22
(imyEvolve
Tree
p836
(dp837
g7
I0
sg21
I00
sbsg25
I00
sg26
g27
sbsg7
I2
sg22
(imyEvolve
Tree
p838
(dp839
g11
(imyEvolve
Tree
p840
(dp841
g7
I0
sg20
F-3.849788957207805
sg21
I01
sbsg7
I1
sg25
I01
sg26
g44
sbsg25
I00
sg26
g43
sba(imyEvolve
Tree
p842
(dp843
g7
I3
sg8
(imyEvolve
Tree
p844
(dp845
g11
(imyEvolve
Tree
p846
(dp847
g7
I1
sg8
(imyEvolve
Tree
p848
(dp849
g7
I0
sg20
F-0.5418663597055655
sg21
I01
sbsg22
(imyEvolve
Tree
p850
(dp851
g7
I0
sg20
F-1.7401867360048016
sg21
I01
sbsg25
I00
sg26
g27
sbsg7
I2
sg25
I01
sg26
g67
sbsg22
(imyEvolve
Tree
p852
(dp853
g7
I2
sg8
(imyEvolve
Tree
p854
(dp855
g11
(imyEvolve
Tree
p856
(dp857
g7
I0
sg21
I00
sbsg7
I1
sg25
I01
sg26
g35
sbsg22
(imyEvolve
Tree
p858
(dp859
g7
I1
sg8
(imyEvolve
Tree
p860
(dp861
g7
I0
sg21
I00
sbsg22
(imyEvolve
Tree
p862
(dp863
g7
I0
sg20
F2.4402211059100356
sg21
I01
sbsg25
I00
sg26
g42
sbsg25
I00
sg26
g27
sbsg25
I00
sg26
g27
sba(imyEvolve
Tree
p864
(dp865
g7
I5
sg8
(imyEvolve
Tree
p866
(dp867
g7
I4
sg8
(imyEvolve
Tree
p868
(dp869
g7
I3
sg8
(imyEvolve
Tree
p870
(dp871
g7
I2
sg8
(imyEvolve
Tree
p872
(dp873
g11
(imyEvolve
Tree
p874
(dp875
g7
I0
sg20
F2.847400336236917
sg21
I01
sbsg7
I1
sg25
I01
sg26
g67
sbsg22
(imyEvolve
Tree
p876
(dp877
g7
I1
sg8
(imyEvolve
Tree
p878
(dp879
g7
I0
sg20
F1.5798576586837711
sg21
I01
sbsg22
(imyEvolve
Tree
p880
(dp881
g7
I0
sg21
I00
sbsg25
I00
sg26
g43
sbsg25
I00
sg26
g27
sbsg22
(imyEvolve
Tree
p882
(dp883
g11
(imyEvolve
Tree
p884
(dp885
g7
I1
sg8
(imyEvolve
Tree
p886
(dp887
g7
I0
sg20
F0.10370689696626378
sg21
I01
sbsg22
(imyEvolve
Tree
p888
(dp889
g7
I0
sg20
F-1.3025984002936477
sg21
I01
sbsg25
I00
sg26
g42
sbsg7
I2
sg25
I01
sg26
g35
sbsg25
I00
sg26
g43
sbsg22
(imyEvolve
Tree
p890
(dp891
g7
I3
sg8
(imyEvolve
Tree
p892
(dp893
g7
I2
sg8
(imyEvolve
Tree
p894
(dp895
g7
I1
sg8
(imyEvolve
Tree
p896
(dp897
g7
I0
sg20
F1.153309493037793
sg21
I01
sbsg22
(imyEvolve
Tree
p898
(dp899
g7
I0
sg21
I00
sbsg25
I00
sg26
g42
sbsg22
(imyEvolve
Tree
p900
(dp901
g7
I1
sg8
(imyEvolve
Tree
p902
(dp903
g7
I0
sg20
F4.616669023426589
sg21
I01
sbsg22
(imyEvolve
Tree
p904
(dp905
g7
I0
sg20
F-1.898621039057653
sg21
I01
sbsg25
I00
sg26
g43
sbsg25
I00
sg26
g43
sbsg22
(imyEvolve
Tree
p906
(dp907
g11
(imyEvolve
Tree
p908
(dp909
g7
I1
sg8
(imyEvolve
Tree
p910
(dp911
g7
I0
sg21
I00
sbsg22
(imyEvolve
Tree
p912
(dp913
g7
I0
sg20
F2.6635918441862234
sg21
I01
sbsg25
I00
sg26
g43
sbsg7
I2
sg25
I01
sg26
g67
sbsg25
I00
sg26
g42
sbsg25
I00
sg26
g27
sbsg22
(imyEvolve
Tree
p914
(dp915
g7
I4
sg8
(imyEvolve
Tree
p916
(dp917
g11
(imyEvolve
Tree
p918
(dp919
g7
I2
sg8
(imyEvolve
Tree
p920
(dp921
g7
I1
sg8
(imyEvolve
Tree
p922
(dp923
g7
I0
sg21
I00
sbsg22
(imyEvolve
Tree
p924
(dp925
g7
I0
sg20
F-3.48063036461331
sg21
I01
sbsg25
I00
sg26
g27
sbsg22
(imyEvolve
Tree
p926
(dp927
g7
I1
sg8
(imyEvolve
Tree
p928
(dp929
g7
I0
sg21
I00
sbsg22
(imyEvolve
Tree
p930
(dp931
g7
I0
sg20
F-2.4949700271771
sg21
I01
sbsg25
I00
sg26
g43
sbsg25
I00
sg26
g43
sbsg7
I3
sg25
I01
sg26
g28
sbsg22
(imyEvolve
Tree
p932
(dp933
g7
I3
sg8
(imyEvolve
Tree
p934
(dp935
g11
(imyEvolve
Tree
p936
(dp937
g11
(imyEvolve
Tree
p938
(dp939
g7
I0
sg21
I00
sbsg7
I1
sg25
I01
sg26
g28
sbsg7
I2
sg25
I01
sg26
g67
sbsg22
(imyEvolve
Tree
p940
(dp941
g7
I2
sg8
(imyEvolve
Tree
p942
(dp943
g7
I1
sg8
(imyEvolve
Tree
p944
(dp945
g7
I0
sg21
I00
sbsg22
(imyEvolve
Tree
p946
(dp947
g7
I0
sg21
I00
sbsg25
I00
sg26
g27
sbsg22
(imyEvolve
Tree
p948
(dp949
g7
I1
sg8
(imyEvolve
Tree
p950
(dp951
g7
I0
sg21
I00
sbsg22
(imyEvolve
Tree
p952
(dp953
g7
I0
sg21
I00
sbsg25
I00
sg26
g43
sbsg25
I00
sg26
g27
sbsg25
I00
sg26
g43
sbsg25
I00
sg26
g27
sbsg25
I00
sg26
g27
sbaa(lp954
(imyEvolve
Tree
p955
(dp956
g11
(imyEvolve
Tree
p957
(dp958
g11
(imyEvolve
Tree
p959
(dp960
g7
I2
sg8
(imyEvolve
Tree
p961
(dp962
g11
(imyEvolve
Tree
p963
(dp964
g7
I0
sg20
F-1.697212031684876
sg21
I01
sbsg7
I1
sg25
I01
sg26
g28
sbsg22
(imyEvolve
Tree
p965
(dp966
g7
I1
sg8
(imyEvolve
Tree
p967
(dp968
g7
I0
sg20
F3.2880374245167197
sg21
I01
sbsg22
(imyEvolve
Tree
p969
(dp970
g7
I0
sg20
F-1.2541519749671837
sg21
I01
sbsg25
I00
sg26
g43
sbsg25
I00
sg26
g43
sbsg7
I3
sg25
I01
sg26
g28
sbsg7
I4
sg25
I01
sg26
g35
sba(imyEvolve
Tree
p971
(dp972
g11
(imyEvolve
Tree
p973
(dp974
g7
I4
sg8
(imyEvolve
Tree
p975
(dp976
g7
I3
sg8
(imyEvolve
Tree
p977
(dp978
g7
I2
sg8
(imyEvolve
Tree
p979
(dp980
g11
(imyEvolve
Tree
p981
(dp982
g7
I0
sg20
F-2.2421197967942117
sg21
I01
sbsg7
I1
sg25
I01
sg26
g35
sbsg22
(imyEvolve
Tree
p983
(dp984
g7
I1
sg8
(imyEvolve
Tree
p985
(dp986
g7
I0
sg20
F1.8014330074388631
sg21
I01
sbsg22
(imyEvolve
Tree
p987
(dp988
g7
I0
sg21
I00
sbsg25
I00
sg26
g42
sbsg25
I00
sg26
g43
sbsg22
(imyEvolve
Tree
p989
(dp990
g7
I2
sg8
(imyEvolve
Tree
p991
(dp992
g7
I1
sg8
(imyEvolve
Tree
p993
(dp994
g7
I0
sg20
F-4.5119181620235445
sg21
I01
sbsg22
(imyEvolve
Tree
p995
(dp996
g7
I0
sg21
I00
sbsg25
I00
sg26
g43
sbsg22
(imyEvolve
Tree
p997
(dp998
g11
(imyEvolve
Tree
p999
(dp1000
g7
I0
sg20
F2.2952386016155613
sg21
I01
sbsg7
I1
sg25
I01
sg26
g44
sbsg25
I00
sg26
g42
sbsg25
I00
sg26
g42
sbsg22
(imyEvolve
Tree
p1001
(dp1002
g11
(imyEvolve
Tree
p1003
(dp1004
g11
(imyEvolve
Tree
p1005
(dp1006
g7
I1
sg8
(imyEvolve
Tree
p1007
(dp1008
g7
I0
sg20
F-4.619742739702869
sg21
I01
sbsg22
(imyEvolve
Tree
p1009
(dp1010
g7
I0
sg20
F4.463715537075386
sg21
I01
sbsg25
I00
sg26
g42
sbsg7
I2
sg25
I01
sg26
g35
sbsg7
I3
sg25
I01
sg26
g44
sbsg25
I00
sg26
g43
sbsg7
I5
sg25
I01
sg26
g44
sba(imyEvolve
Tree
p1011
(dp1012
g11
(imyEvolve
Tree
p1013
(dp1014
g11
(imyEvolve
Tree
p1015
(dp1016
g8
(imyEvolve
Tree
p1017
(dp1018
g8
(imyEvolve
Tree
p1019
(dp1020
g7
I0
sg21
I00
sbsg7
I1
sg22
(imyEvolve
Tree
p1021
(dp1022
g7
I0
sg20
F2.94542720728582
sg21
I01
sbsg25
I00
sg26
g27
sbsg7
I2
sg22
(imyEvolve
Tree
p1023
(dp1024
g8
(imyEvolve
Tree
p1025
(dp1026
g7
I0
sg21
I00
sbsg7
I1
sg22
(imyEvolve
Tree
p1027
(dp1028
g7
I0
sg20
F-0.9517429030458064
sg21
I01
sbsg25
I00
sg26
g43
sbsg25
I00
sg26
g27
sbsg7
I3
sg25
I01
sg26
g44
sbsg7
I4
sg25
I01
sg26
g44
sba(imyEvolve
Tree
p1029
(dp1030
g11
(imyEvolve
Tree
p1031
(dp1032
g11
(imyEvolve
Tree
p1033
(dp1034
g7
I0
sg21
I00
sbsg7
I1
sg25
I01
sg26
g67
sbsg7
I2
sg25
I01
sg26
g28
sba(imyEvolve
Tree
p1035
(dp1036
g8
(imyEvolve
Tree
p1037
(dp1038
g8
(imyEvolve
Tree
p1039
(dp1040
g8
(imyEvolve
Tree
p1041
(dp1042
g7
I0
sg21
I00
sbsg7
I1
sg22
(imyEvolve
Tree
p1043
(dp1044
g7
I0
sg20
F-3.9672254105142892
sg21
I01
sbsg25
I00
sg26
g42
sbsg7
I2
sg22
(imyEvolve
Tree
p1045
(dp1046
g11
(imyEvolve
Tree
p1047
(dp1048
g7
I0
sg21
I00
sbsg7
I1
sg25
I01
sg26
g44
sbsg25
I00
sg26
g43
sbsg7
I3
sg22
(imyEvolve
Tree
p1049
(dp1050
g8
(imyEvolve
Tree
p1051
(dp1052
g8
(imyEvolve
Tree
p1053
(dp1054
g7
I0
sg20
F1.504049151470519
sg21
I01
sbsg7
I1
sg22
(imyEvolve
Tree
p1055
(dp1056
g7
I0
sg21
I00
sbsg25
I00
sg26
g27
sbsg7
I2
sg22
(imyEvolve
Tree
p1057
(dp1058
g11
(imyEvolve
Tree
p1059
(dp1060
g7
I0
sg21
I00
sbsg7
I1
sg25
I01
sg26
g44
sbsg25
I00
sg26
g43
sbsg25
I00
sg26
g43
sba(imyEvolve
Tree
p1061
(dp1062
g8
(imyEvolve
Tree
p1063
(dp1064
g8
(imyEvolve
Tree
p1065
(dp1066
g11
(imyEvolve
Tree
p1067
(dp1068
g11
(imyEvolve
Tree
p1069
(dp1070
g7
I0
sg20
F-0.47476354990083625
sg21
I01
sbsg7
I1
sg25
I01
sg26
g44
sbsg7
I2
sg25
I01
sg26
g28
sbsg7
I3
sg22
(imyEvolve
Tree
p1071
(dp1072
g8
(imyEvolve
Tree
p1073
(dp1074
g8
(imyEvolve
Tree
p1075
(dp1076
g7
I0
sg20
F1.398869140331378
sg21
I01
sbsg7
I1
sg22
(imyEvolve
Tree
p1077
(dp1078
g7
I0
sg20
F-4.193216675891009
sg21
I01
sbsg25
I00
sg26
g42
sbsg7
I2
sg22
(imyEvolve
Tree
p1079
(dp1080
g11
(imyEvolve
Tree
p1081
(dp1082
g7
I0
sg20
F-4.936663967761431
sg21
I01
sbsg7
I1
sg25
I01
sg26
g67
sbsg25
I00
sg26
g42
sbsg25
I00
sg26
g42
sbsg7
I4
sg22
(imyEvolve
Tree
p1083
(dp1084
g11
(imyEvolve
Tree
p1085
(dp1086
g11
(imyEvolve
Tree
p1087
(dp1088
g11
(imyEvolve
Tree
p1089
(dp1090
g7
I0
sg21
I00
sbsg7
I1
sg25
I01
sg26
g44
sbsg7
I2
sg25
I01
sg26
g28
sbsg7
I3
sg25
I01
sg26
g44
sbsg25
I00
sg26
g27
sba(imyEvolve
Tree
p1091
(dp1092
g11
(imyEvolve
Tree
p1093
(dp1094
g8
(imyEvolve
Tree
p1095
(dp1096
g11
(imyEvolve
Tree
p1097
(dp1098
g7
I0
sg20
F-4.595408462970391
sg21
I01
sbsg7
I1
sg25
I01
sg26
g35
sbsg7
I2
sg22
(imyEvolve
Tree
p1099
(dp1100
g11
(imyEvolve
Tree
p1101
(dp1102
g7
I0
sg21
I00
sbsg7
I1
sg25
I01
sg26
g35
sbsg25
I00
sg26
g43
sbsg7
I3
sg25
I01
sg26
g67
sba(imyEvolve
Tree
p1103
(dp1104
g8
(imyEvolve
Tree
p1105
(dp1106
g11
(imyEvolve
Tree
p1107
(dp1108
g11
(imyEvolve
Tree
p1109
(dp1110
g8
(imyEvolve
Tree
p1111
(dp1112
g8
(imyEvolve
Tree
p1113
(dp1114
g7
I0
sg20
F-2.8607915047992294
sg21
I01
sbsg7
I1
sg22
(imyEvolve
Tree
p1115
(dp1116
g7
I0
sg21
I00
sbsg25
I00
sg26
g27
sbsg7
I2
sg22
(imyEvolve
Tree
p1117
(dp1118
g8
(imyEvolve
Tree
p1119
(dp1120
g7
I0
sg21
I00
sbsg7
I1
sg22
(imyEvolve
Tree
p1121
(dp1122
g7
I0
sg20
F4.455227992123449
sg21
I01
sbsg25
I00
sg26
g27
sbsg25
I00
sg26
g42
sbsg7
I3
sg25
I01
sg26
g44
sbsg7
I4
sg25
I01
sg26
g44
sbsg7
I5
sg22
(imyEvolve
Tree
p1123
(dp1124
g11
(imyEvolve
Tree
p1125
(dp1126
g11
(imyEvolve
Tree
p1127
(dp1128
g11
(imyEvolve
Tree
p1129
(dp1130
g8
(imyEvolve
Tree
p1131
(dp1132
g7
I0
sg20
F-3.192644728450796
sg21
I01
sbsg7
I1
sg22
(imyEvolve
Tree
p1133
(dp1134
g7
I0
sg20
F-2.185238877960675
sg21
I01
sbsg25
I00
sg26
g43
sbsg7
I2
sg25
I01
sg26
g28
sbsg7
I3
sg25
I01
sg26
g28
sbsg7
I4
sg25
I01
sg26
g67
sbsg25
I00
sg26
g42
sba(imyEvolve
Tree
p1135
(dp1136
g8
(imyEvolve
Tree
p1137
(dp1138
g8
(imyEvolve
Tree
p1139
(dp1140
g11
(imyEvolve
Tree
p1141
(dp1142
g7
I0
sg21
I00
sbsg7
I1
sg25
I01
sg26
g35
sbsg7
I2
sg22
(imyEvolve
Tree
p1143
(dp1144
g8
(imyEvolve
Tree
p1145
(dp1146
g7
I0
sg21
I00
sbsg7
I1
sg22
(imyEvolve
Tree
p1147
(dp1148
g7
I0
sg20
F4.059431518195966
sg21
I01
sbsg25
I00
sg26
g27
sbsg25
I00
sg26
g42
sbsg7
I3
sg22
(imyEvolve
Tree
p1149
(dp1150
g8
(imyEvolve
Tree
p1151
(dp1152
g11
(imyEvolve
Tree
p1153
(dp1154
g7
I0
sg21
I00
sbsg7
I1
sg25
I01
sg26
g67
sbsg7
I2
sg22
(imyEvolve
Tree
p1155
(dp1156
g11
(imyEvolve
Tree
p1157
(dp1158
g7
I0
sg20
F-0.1440442584332846
sg21
I01
sbsg7
I1
sg25
I01
sg26
g28
sbsg25
I00
sg26
g42
sbsg25
I00
sg26
g27
sba(imyEvolve
Tree
p1159
(dp1160
g11
(imyEvolve
Tree
p1161
(dp1162
g8
(imyEvolve
Tree
p1163
(dp1164
g8
(imyEvolve
Tree
p1165
(dp1166
g8
(imyEvolve
Tree
p1167
(dp1168
g11
(imyEvolve
Tree
p1169
(dp1170
g7
I0
sg21
I00
sbsg7
I1
sg25
I01
sg26
g35
sbsg7
I2
sg22
(imyEvolve
Tree
p1171
(dp1172
g8
(imyEvolve
Tree
p1173
(dp1174
g7
I0
sg21
I00
sbsg7
I1
sg22
(imyEvolve
Tree
p1175
(dp1176
g7
I0
sg20
F2.147470847021613
sg21
I01
sbsg25
I00
sg26
g43
sbsg25
I00
sg26
g27
sbsg7
I3
sg22
(imyEvolve
Tree
p1177
(dp1178
g8
(imyEvolve
Tree
p1179
(dp1180
g8
(imyEvolve
Tree
p1181
(dp1182
g7
I0
sg21
I00
sbsg7
I1
sg22
(imyEvolve
Tree
p1183
(dp1184
g7
I0
sg21
I00
sbsg25
I00
sg26
g27
sbsg7
I2
sg22
(imyEvolve
Tree
p1185
(dp1186
g11
(imyEvolve
Tree
p1187
(dp1188
g7
I0
sg21
I00
sbsg7
I1
sg25
I01
sg26
g28
sbsg25
I00
sg26
g43
sbsg25
I00
sg26
g42
sbsg7
I4
sg22
(imyEvolve
Tree
p1189
(dp1190
g8
(imyEvolve
Tree
p1191
(dp1192
g11
(imyEvolve
Tree
p1193
(dp1194
g8
(imyEvolve
Tree
p1195
(dp1196
g7
I0
sg20
F-4.434134101748582
sg21
I01
sbsg7
I1
sg22
(imyEvolve
Tree
p1197
(dp1198
g7
I0
sg20
F4.896011754435349
sg21
I01
sbsg25
I00
sg26
g27
sbsg7
I2
sg25
I01
sg26
g28
sbsg7
I3
sg22
(imyEvolve
Tree
p1199
(dp1200
g8
(imyEvolve
Tree
p1201
(dp1202
g11
(imyEvolve
Tree
p1203
(dp1204
g7
I0
sg20
F-4.004210451544322
sg21
I01
sbsg7
I1
sg25
I01
sg26
g28
sbsg7
I2
sg22
(imyEvolve
Tree
p1205
(dp1206
g11
(imyEvolve
Tree
p1207
(dp1208
g7
I0
sg21
I00
sbsg7
I1
sg25
I01
sg26
g44
sbsg25
I00
sg26
g43
sbsg25
I00
sg26
g43
sbsg25
I00
sg26
g43
sbsg7
I5
sg25
I01
sg26
g44
sba(imyEvolve
Tree
p1209
(dp1210
g8
(imyEvolve
Tree
p1211
(dp1212
g11
(imyEvolve
Tree
p1213
(dp1214
g11
(imyEvolve
Tree
p1215
(dp1216
g8
(imyEvolve
Tree
p1217
(dp1218
g7
I0
sg20
F-4.467346068923352
sg21
I01
sbsg7
I1
sg22
(imyEvolve
Tree
p1219
(dp1220
g7
I0
sg20
F-1.1923738174692309
sg21
I01
sbsg25
I00
sg26
g43
sbsg7
I2
sg25
I01
sg26
g67
sbsg7
I3
sg25
I01
sg26
g28
sbsg7
I4
sg22
(imyEvolve
Tree
p1221
(dp1222
g11
(imyEvolve
Tree
p1223
(dp1224
g8
(imyEvolve
Tree
p1225
(dp1226
g8
(imyEvolve
Tree
p1227
(dp1228
g7
I0
sg20
F4.985789267498234
sg21
I01
sbsg7
I1
sg22
(imyEvolve
Tree
p1229
(dp1230
g7
I0
sg21
I00
sbsg25
I00
sg26
g27
sbsg7
I2
sg22
(imyEvolve
Tree
p1231
(dp1232
g8
(imyEvolve
Tree
p1233
(dp1234
g7
I0
sg21
I00
sbsg7
I1
sg22
(imyEvolve
Tree
p1235
(dp1236
g7
I0
sg21
I00
sbsg25
I00
sg26
g42
sbsg25
I00
sg26
g27
sbsg7
I3
sg25
I01
sg26
g67
sbsg25
I00
sg26
g42
sba(imyEvolve
Tree
p1237
(dp1238
g11
(imyEvolve
Tree
p1239
(dp1240
g11
(imyEvolve
Tree
p1241
(dp1242
g7
I0
sg20
F-0.8924164427306893
sg21
I01
sbsg7
I1
sg25
I01
sg26
g28
sbsg7
I2
sg25
I01
sg26
g44
sba(imyEvolve
Tree
p1243
(dp1244
g11
(imyEvolve
Tree
p1245
(dp1246
g8
(imyEvolve
Tree
p1247
(dp1248
g11
(imyEvolve
Tree
p1249
(dp1250
g7
I0
sg21
I00
sbsg7
I1
sg25
I01
sg26
g67
sbsg7
I2
sg22
(imyEvolve
Tree
p1251
(dp1252
g11
(imyEvolve
Tree
p1253
(dp1254
g7
I0
sg20
F1.625830827652809
sg21
I01
sbsg7
I1
sg25
I01
sg26
g28
sbsg25
I00
sg26
g43
sbsg7
I3
sg25
I01
sg26
g35
sba(imyEvolve
Tree
p1255
(dp1256
g7
I3
sg8
(imyEvolve
Tree
p1257
(dp1258
g11
(imyEvolve
Tree
p1259
(dp1260
g11
(imyEvolve
Tree
p1261
(dp1262
g7
I0
sg20
F-4.7884093490759305
sg21
I01
sbsg7
I1
sg25
I01
sg26
g28
sbsg7
I2
sg25
I01
sg26
g67
sbsg22
(imyEvolve
Tree
p1263
(dp1264
g7
I2
sg8
(imyEvolve
Tree
p1265
(dp1266
g11
(imyEvolve
Tree
p1267
(dp1268
g7
I0
sg21
I00
sbsg7
I1
sg25
I01
sg26
g67
sbsg22
(imyEvolve
Tree
p1269
(dp1270
g11
(imyEvolve
Tree
p1271
(dp1272
g7
I0
sg20
F3.47417413372324
sg21
I01
sbsg7
I1
sg25
I01
sg26
g44
sbsg25
I00
sg26
g43
sbsg25
I00
sg26
g42
sba(imyEvolve
Tree
p1273
(dp1274
g11
(imyEvolve
Tree
p1275
(dp1276
g11
(imyEvolve
Tree
p1277
(dp1278
g7
I0
sg21
I00
sbsg7
I1
sg25
I01
sg26
g28
sbsg7
I2
sg25
I01
sg26
g28
sba(imyEvolve
Tree
p1279
(dp1280
g11
(imyEvolve
Tree
p1281
(dp1282
g8
(imyEvolve
Tree
p1283
(dp1284
g8
(imyEvolve
Tree
p1285
(dp1286
g8
(imyEvolve
Tree
p1287
(dp1288
g11
(imyEvolve
Tree
p1289
(dp1290
g7
I0
sg20
F1.229742456418407
sg21
I01
sbsg7
I1
sg25
I01
sg26
g67
sbsg7
I2
sg22
(imyEvolve
Tree
p1291
(dp1292
g11
(imyEvolve
Tree
p1293
(dp1294
g7
I0
sg21
I00
sbsg7
I1
sg25
I01
sg26
g67
sbsg25
I00
sg26
g42
sbsg7
I3
sg22
(imyEvolve
Tree
p1295
(dp1296
g11
(imyEvolve
Tree
p1297
(dp1298
g8
(imyEvolve
Tree
p1299
(dp1300
g7
I0
sg21
I00
sbsg7
I1
sg22
(imyEvolve
Tree
p1301
(dp1302
g7
I0
sg21
I00
sbsg25
I00
sg26
g42
sbsg7
I2
sg25
I01
sg26
g35
sbsg25
I00
sg26
g27
sbsg7
I4
sg22
(imyEvolve
Tree
p1303
(dp1304
g8
(imyEvolve
Tree
p1305
(dp1306
g8
(imyEvolve
Tree
p1307
(dp1308
g11
(imyEvolve
Tree
p1309
(dp1310
g7
I0
sg21
I00
sbsg7
I1
sg25
I01
sg26
g28
sbsg7
I2
sg22
(imyEvolve
Tree
p1311
(dp1312
g11
(imyEvolve
Tree
p1313
(dp1314
g7
I0
sg21
I00
sbsg7
I1
sg25
I01
sg26
g67
sbsg25
I00
sg26
g27
sbsg7
I3
sg22
(imyEvolve
Tree
p1315
(dp1316
g11
(imyEvolve
Tree
p1317
(dp1318
g8
(imyEvolve
Tree
p1319
(dp1320
g7
I0
sg20
F-0.7591288882918068
sg21
I01
sbsg7
I1
sg22
(imyEvolve
Tree
p1321
(dp1322
g7
I0
sg20
F-3.768972502934258
sg21
I01
sbsg25
I00
sg26
g43
sbsg7
I2
sg25
I01
sg26
g35
sbsg25
I00
sg26
g27
sbsg25
I00
sg26
g42
sbsg7
I5
sg25
I01
sg26
g28
sba(imyEvolve
Tree
p1323
(dp1324
g11
(imyEvolve
Tree
p1325
(dp1326
g11
(imyEvolve
Tree
p1327
(dp1328
g7
I0
sg21
I00
sbsg7
I1
sg25
I01
sg26
g67
sbsg7
I2
sg25
I01
sg26
g35
sba(imyEvolve
Tree
p1329
(dp1330
g7
I5
sg8
(imyEvolve
Tree
p1331
(dp1332
g7
I4
sg8
(imyEvolve
Tree
p1333
(dp1334
g7
I3
sg8
(imyEvolve
Tree
p1335
(dp1336
g7
I2
sg8
(imyEvolve
Tree
p1337
(dp1338
g11
(imyEvolve
Tree
p1339
(dp1340
g7
I0
sg20
F3.8204198459816006
sg21
I01
sbsg7
I1
sg25
I01
sg26
g67
sbsg22
(imyEvolve
Tree
p1341
(dp1342
g11
(imyEvolve
Tree
p1343
(dp1344
g7
I0
sg20
F-2.3920157590911084
sg21
I01
sbsg7
I1
sg25
I01
sg26
g35
sbsg25
I00
sg26
g27
sbsg22
(imyEvolve
Tree
p1345
(dp1346
g11
(imyEvolve
Tree
p1347
(dp1348
g11
(imyEvolve
Tree
p1349
(dp1350
g7
I0
sg21
I00
sbsg7
I1
sg25
I01
sg26
g67
sbsg7
I2
sg25
I01
sg26
g28
sbsg25
I00
sg26
g42
sbsg22
(imyEvolve
Tree
p1351
(dp1352
g7
I3
sg8
(imyEvolve
Tree
p1353
(dp1354
g11
(imyEvolve
Tree
p1355
(dp1356
g7
I1
sg8
(imyEvolve
Tree
p1357
(dp1358
g7
I0
sg21
I00
sbsg22
(imyEvolve
Tree
p1359
(dp1360
g7
I0
sg20
F-3.8282534482503863
sg21
I01
sbsg25
I00
sg26
g42
sbsg7
I2
sg25
I01
sg26
g35
sbsg22
(imyEvolve
Tree
p1361
(dp1362
g7
I2
sg8
(imyEvolve
Tree
p1363
(dp1364
g7
I1
sg8
(imyEvolve
Tree
p1365
(dp1366
g7
I0
sg21
I00
sbsg22
(imyEvolve
Tree
p1367
(dp1368
g7
I0
sg20
F0.2884389965494272
sg21
I01
sbsg25
I00
sg26
g42
sbsg22
(imyEvolve
Tree
p1369
(dp1370
g7
I1
sg8
(imyEvolve
Tree
p1371
(dp1372
g7
I0
sg21
I00
sbsg22
(imyEvolve
Tree
p1373
(dp1374
g7
I0
sg20
F-3.8448888214694534
sg21
I01
sbsg25
I00
sg26
g42
sbsg25
I00
sg26
g27
sbsg25
I00
sg26
g43
sbsg25
I00
sg26
g42
sbsg22
(imyEvolve
Tree
p1375
(dp1376
g7
I4
sg8
(imyEvolve
Tree
p1377
(dp1378
g11
(imyEvolve
Tree
p1379
(dp1380
g11
(imyEvolve
Tree
p1381
(dp1382
g11
(imyEvolve
Tree
p1383
(dp1384
g7
I0
sg21
I00
sbsg7
I1
sg25
I01
sg26
g28
sbsg7
I2
sg25
I01
sg26
g67
sbsg7
I3
sg25
I01
sg26
g44
sbsg22
(imyEvolve
Tree
p1385
(dp1386
g7
I3
sg8
(imyEvolve
Tree
p1387
(dp1388
g11
(imyEvolve
Tree
p1389
(dp1390
g11
(imyEvolve
Tree
p1391
(dp1392
g7
I0
sg21
I00
sbsg7
I1
sg25
I01
sg26
g44
sbsg7
I2
sg25
I01
sg26
g67
sbsg22
(imyEvolve
Tree
p1393
(dp1394
g11
(imyEvolve
Tree
p1395
(dp1396
g7
I1
sg8
(imyEvolve
Tree
p1397
(dp1398
g7
I0
sg20
F-4.767663382020291
sg21
I01
sbsg22
(imyEvolve
Tree
p1399
(dp1400
g7
I0
sg21
I00
sbsg25
I00
sg26
g42
sbsg7
I2
sg25
I01
sg26
g28
sbsg25
I00
sg26
g43
sbsg25
I00
sg26
g27
sbsg25
I00
sg26
g42
sba(imyEvolve
Tree
p1401
(dp1402
g11
(imyEvolve
Tree
p1403
(dp1404
g11
(imyEvolve
Tree
p1405
(dp1406
g11
(imyEvolve
Tree
p1407
(dp1408
g7
I2
sg8
(imyEvolve
Tree
p1409
(dp1410
g7
I1
sg8
(imyEvolve
Tree
p1411
(dp1412
g7
I0
sg20
F-4.088085910746005
sg21
I01
sbsg22
(imyEvolve
Tree
p1413
(dp1414
g7
I0
sg21
I00
sbsg25
I00
sg26
g43
sbsg22
(imyEvolve
Tree
p1415
(dp1416
g7
I1
sg8
(imyEvolve
Tree
p1417
(dp1418
g7
I0
sg21
I00
sbsg22
(imyEvolve
Tree
p1419
(dp1420
g7
I0
sg20
F-1.7296153044599394
sg21
I01
sbsg25
I00
sg26
g43
sbsg25
I00
sg26
g27
sbsg7
I3
sg25
I01
sg26
g35
sbsg7
I4
sg25
I01
sg26
g67
sbsg7
I5
sg25
I01
sg26
g35
sba(imyEvolve
Tree
p1421
(dp1422
g11
(imyEvolve
Tree
p1423
(dp1424
g8
(imyEvolve
Tree
p1425
(dp1426
g11
(imyEvolve
Tree
p1427
(dp1428
g11
(imyEvolve
Tree
p1429
(dp1430
g7
I0
sg20
F1.7261615480610182
sg21
I01
sbsg7
I1
sg25
I01
sg26
g44
sbsg7
I2
sg25
I01
sg26
g67
sbsg7
I3
sg22
(imyEvolve
Tree
p1431
(dp1432
g11
(imyEvolve
Tree
p1433
(dp1434
g8
(imyEvolve
Tree
p1435
(dp1436
g7
I0
sg20
F3.7701139377024955
sg21
I01
sbsg7
I1
sg22
(imyEvolve
Tree
p1437
(dp1438
g7
I0
sg20
F-0.8675739250034642
sg21
I01
sbsg25
I00
sg26
g43
sbsg7
I2
sg25
I01
sg26
g28
sbsg25
I00
sg26
g42
sbsg7
I4
sg25
I01
sg26
g44
sbaa(lp1439
(imyEvolve
Tree
p1440
(dp1441
g8
(imyEvolve
Tree
p1442
(dp1443
g8
(imyEvolve
Tree
p1444
(dp1445
g7
I0
sg21
I00
sbsg7
I1
sg22
(imyEvolve
Tree
p1446
(dp1447
g7
I0
sg20
F-2.178675747957608
sg21
I01
sbsg25
I00
sg26
g43
sbsg7
I2
sg22
(imyEvolve
Tree
p1448
(dp1449
g11
(imyEvolve
Tree
p1450
(dp1451
g7
I0
sg20
F-2.7533572093255367
sg21
I01
sbsg7
I1
sg25
I01
sg26
g44
sbsg25
I00
sg26
g43
sba(imyEvolve
Tree
p1452
(dp1453
g11
(imyEvolve
Tree
p1454
(dp1455
g11
(imyEvolve
Tree
p1456
(dp1457
g8
(imyEvolve
Tree
p1458
(dp1459
g8
(imyEvolve
Tree
p1460
(dp1461
g8
(imyEvolve
Tree
p1462
(dp1463
g7
I0
sg20
F3.6919759435946187
sg21
I01
sbsg7
I1
sg22
(imyEvolve
Tree
p1464
(dp1465
g7
I0
sg21
I00
sbsg25
I00
sg26
g27
sbsg7
I2
sg22
(imyEvolve
Tree
p1466
(dp1467
g8
(imyEvolve
Tree
p1468
(dp1469
g7
I0
sg20
F1.3818642912088759
sg21
I01
sbsg7
I1
sg22
(imyEvolve
Tree
p1470
(dp1471
g7
I0
sg20
F-4.433441041436429
sg21
I01
sbsg25
I00
sg26
g43
sbsg25
I00
sg26
g43
sbsg7
I3
sg22
(imyEvolve
Tree
p1472
(dp1473
g11
(imyEvolve
Tree
p1474
(dp1475
g11
(imyEvolve
Tree
p1476
(dp1477
g7
I0
sg21
I00
sbsg7
I1
sg25
I01
sg26
g28
sbsg7
I2
sg25
I01
sg26
g44
sbsg25
I00
sg26
g27
sbsg7
I4
sg25
I01
sg26
g67
sbsg7
I5
sg25
I01
sg26
g35
sba(imyEvolve
Tree
p1478
(dp1479
g8
(imyEvolve
Tree
p1480
(dp1481
g8
(imyEvolve
Tree
p1482
(dp1483
g11
(imyEvolve
Tree
p1484
(dp1485
g11
(imyEvolve
Tree
p1486
(dp1487
g7
I0
sg21
I00
sbsg7
I1
sg25
I01
sg26
g67
sbsg7
I2
sg25
I01
sg26
g35
sbsg7
I3
sg22
(imyEvolve
Tree
p1488
(dp1489
g8
(imyEvolve
Tree
p1490
(dp1491
g11
(imyEvolve
Tree
p1492
(dp1493
g7
I0
sg20
F2.070056944586459
sg21
I01
sbsg7
I1
sg25
I01
sg26
g35
sbsg7
I2
sg22
(imyEvolve
Tree
p1494
(dp1495
g8
(imyEvolve
Tree
p1496
(dp1497
g7
I0
sg20
F3.9329189042219017
sg21
I01
sbsg7
I1
sg22
(imyEvolve
Tree
p1498
(dp1499
g7
I0
sg20
F-2.1362530078243704
sg21
I01
sbsg25
I00
sg26
g27
sbsg25
I00
sg26
g42
sbsg25
I00
sg26
g27
sbsg7
I4
sg22
(imyEvolve
Tree
p1500
(dp1501
g8
(imyEvolve
Tree
p1502
(dp1503
g11
(imyEvolve
Tree
p1504
(dp1505
g11
(imyEvolve
Tree
p1506
(dp1507
g7
I0
sg21
I00
sbsg7
I1
sg25
I01
sg26
g35
sbsg7
I2
sg25
I01
sg26
g44
sbsg7
I3
sg22
(imyEvolve
Tree
p1508
(dp1509
g8
(imyEvolve
Tree
p1510
(dp1511
g8
(imyEvolve
Tree
p1512
(dp1513
g7
I0
sg21
I00
sbsg7
I1
sg22
(imyEvolve
Tree
p1514
(dp1515
g7
I0
sg21
I00
sbsg25
I00
sg26
g27
sbsg7
I2
sg22
(imyEvolve
Tree
p1516
(dp1517
g11
(imyEvolve
Tree
p1518
(dp1519
g7
I0
sg20
F-4.2529832894873465
sg21
I01
sbsg7
I1
sg25
I01
sg26
g35
sbsg25
I00
sg26
g43
sbsg25
I00
sg26
g27
sbsg25
I00
sg26
g43
sba(imyEvolve
Tree
p1520
(dp1521
g11
(imyEvolve
Tree
p1522
(dp1523
g11
(imyEvolve
Tree
p1524
(dp1525
g11
(imyEvolve
Tree
p1526
(dp1527
g7
I0
sg21
I00
sbsg7
I1
sg25
I01
sg26
g28
sbsg7
I2
sg25
I01
sg26
g28
sbsg7
I3
sg25
I01
sg26
g44
sba(imyEvolve
Tree
p1528
(dp1529
g11
(imyEvolve
Tree
p1530
(dp1531
g11
(imyEvolve
Tree
p1532
(dp1533
g7
I2
sg8
(imyEvolve
Tree
p1534
(dp1535
g11
(imyEvolve
Tree
p1536
(dp1537
g7
I0
sg21
I00
sbsg7
I1
sg25
I01
sg26
g28
sbsg22
(imyEvolve
Tree
p1538
(dp1539
g7
I1
sg8
(imyEvolve
Tree
p1540
(dp1541
g7
I0
sg21
I00
sbsg22
(imyEvolve
Tree
p1542
(dp1543
g7
I0
sg21
I00
sbsg25
I00
sg26
g43
sbsg25
I00
sg26
g43
sbsg7
I3
sg25
I01
sg26
g28
sbsg7
I4
sg25
I01
sg26
g44
sba(imyEvolve
Tree
p1544
(dp1545
g11
(imyEvolve
Tree
p1546
(dp1547
g8
(imyEvolve
Tree
p1548
(dp1549
g7
I0
sg20
F-3.3336103070957215
sg21
I01
sbsg7
I1
sg22
(imyEvolve
Tree
p1550
(dp1551
g7
I0
sg21
I00
sbsg25
I00
sg26
g27
sbsg7
I2
sg25
I01
sg26
g35
sba(imyEvolve
Tree
p1552
(dp1553
g8
(imyEvolve
Tree
p1554
(dp1555
g8
(imyEvolve
Tree
p1556
(dp1557
g11
(imyEvolve
Tree
p1558
(dp1559
g8
(imyEvolve
Tree
p1560
(dp1561
g7
I0
sg21
I00
sbsg7
I1
sg22
(imyEvolve
Tree
p1562
(dp1563
g7
I0
sg20
F0.3208848869876215
sg21
I01
sbsg25
I00
sg26
g42
sbsg7
I2
sg25
I01
sg26
g67
sbsg7
I3
sg22
(imyEvolve
Tree
p1564
(dp1565
g8
(imyEvolve
Tree
p1566
(dp1567
g11
(imyEvolve
Tree
p1568
(dp1569
g7
I0
sg21
I00
sbsg7
I1
sg25
I01
sg26
g44
sbsg7
I2
sg22
(imyEvolve
Tree
p1570
(dp1571
g11
(imyEvolve
Tree
p1572
(dp1573
g7
I0
sg21
I00
sbsg7
I1
sg25
I01
sg26
g67
sbsg25
I00
sg26
g42
sbsg25
I00
sg26
g27
sbsg7
I4
sg22
(imyEvolve
Tree
p1574
(dp1575
g11
(imyEvolve
Tree
p1576
(dp1577
g11
(imyEvolve
Tree
p1578
(dp1579
g11
(imyEvolve
Tree
p1580
(dp1581
g7
I0
sg21
I00
sbsg7
I1
sg25
I01
sg26
g35
sbsg7
I2
sg25
I01
sg26
g35
sbsg7
I3
sg25
I01
sg26
g44
sbsg25
I00
sg26
g27
sba(imyEvolve
Tree
p1582
(dp1583
g8
(imyEvolve
Tree
p1584
(dp1585
g8
(imyEvolve
Tree
p1586
(dp1587
g7
I0
sg21
I00
sbsg7
I1
sg22
(imyEvolve
Tree
p1588
(dp1589
g7
I0
sg20
F1.942977524232905
sg21
I01
sbsg25
I00
sg26
g27
sbsg7
I2
sg22
(imyEvolve
Tree
p1590
(dp1591
g11
(imyEvolve
Tree
p1592
(dp1593
g7
I0
sg21
I00
sbsg7
I1
sg25
I01
sg26
g28
sbsg25
I00
sg26
g42
sbaasS'alpha'
p1594
F0.006009181424306427
sS'fitness'
p1595
cnumpy.core.multiarray
scalar
p1596
(cnumpy
dtype
p1597
(S'f8'
p1598
I0
I1
tp1599
Rp1600
(I3
S'<'
p1601
NNNI-1
I-1
I0
tp1602
bS'\x00j\xdeq\xc4\x08R\xbf'
p1603
tp1604
Rp1605
sS'weightSharing'
p1606
(lp1607
I00
asS'fitnessValid'
p1608
I00
sS'resolution'
p1609
I82
sb.