(imyEvolve
Individual
p0
(dp1
S'funcs'
p2
(lp3
(lp4
(imyEvolve
Tree
p5
(dp6
S'below'
p7
(imyEvolve
Tree
p8
(dp9
S'depth'
p10
I2
sS'left'
p11
(imyEvolve
Tree
p12
(dp13
g7
(imyEvolve
Tree
p14
(dp15
g10
I0
sS'isConstant'
p16
I00
sbsg10
I1
sS'single'
p17
I01
sS'op'
p18
cmyEvolve
absSqrt
p19
sbsS'right'
p20
(imyEvolve
Tree
p21
(dp22
g7
(imyEvolve
Tree
p23
(dp24
g10
I0
sg16
I00
sbsg10
I1
sg17
I01
sg18
g19
sbsg17
I00
sg18
coperator
mul
p25
sbsg10
I3
sg17
I01
sg18
cmath
cos
p26
sba(imyEvolve
Tree
p27
(dp28
g7
(imyEvolve
Tree
p29
(dp30
g7
(imyEvolve
Tree
p31
(dp32
g10
I0
sg16
I00
sbsg10
I1
sg17
I01
sg18
g19
sbsg10
I2
sg17
I01
sg18
cmyEvolve
square
p33
sba(imyEvolve
Tree
p34
(dp35
g7
(imyEvolve
Tree
p36
(dp37
g7
(imyEvolve
Tree
p38
(dp39
g10
I3
sg11
(imyEvolve
Tree
p40
(dp41
g7
(imyEvolve
Tree
p42
(dp43
g7
(imyEvolve
Tree
p44
(dp45
g10
I0
sS'constant'
p46
F4.220486911174561
sg16
I01
sbsg10
I1
sg17
I01
sg18
cmath
sin
p47
sbsg10
I2
sg17
I01
sg18
g26
sbsg20
(imyEvolve
Tree
p48
(dp49
g10
I2
sg11
(imyEvolve
Tree
p50
(dp51
g10
I1
sg11
(imyEvolve
Tree
p52
(dp53
g10
I0
sg46
F-1.2273446747479646
sg16
I01
sbsg20
(imyEvolve
Tree
p54
(dp55
g10
I0
sg16
I00
sbsg17
I00
sg18
coperator
add
p56
sbsg20
(imyEvolve
Tree
p57
(dp58
g10
I1
sg11
(imyEvolve
Tree
p59
(dp60
g10
I0
sg16
I00
sbsg20
(imyEvolve
Tree
p61
(dp62
g10
I0
sg46
F-3.3560775028584944
sg16
I01
sbsg17
I00
sg18
g56
sbsg17
I00
sg18
coperator
sub
p63
sbsg17
I00
sg18
g56
sbsg10
I4
sg17
I01
sg18
g33
sbsg10
I5
sg17
I01
sg18
g19
sba(imyEvolve
Tree
p64
(dp65
g7
(imyEvolve
Tree
p66
(dp67
g7
(imyEvolve
Tree
p68
(dp69
g7
(imyEvolve
Tree
p70
(dp71
g10
I1
sg11
(imyEvolve
Tree
p72
(dp73
g10
I0
sg16
I00
sbsg20
(imyEvolve
Tree
p74
(dp75
g10
I0
sg46
F2.3881072890924013
sg16
I01
sbsg17
I00
sg18
g56
sbsg10
I2
sg17
I01
sg18
g26
sbsg10
I3
sg17
I01
sg18
g33
sbsg10
I4
sg17
I01
sg18
g47
sba(imyEvolve
Tree
p76
(dp77
g7
(imyEvolve
Tree
p78
(dp79
g10
I1
sg11
(imyEvolve
Tree
p80
(dp81
g10
I0
sg46
F2.133280419590485
sg16
I01
sbsg20
(imyEvolve
Tree
p82
(dp83
g10
I0
sg46
F4.251498996084377
sg16
I01
sbsg17
I00
sg18
g63
sbsg10
I2
sg17
I01
sg18
g47
sba(imyEvolve
Tree
p84
(dp85
g10
I2
sg11
(imyEvolve
Tree
p86
(dp87
g10
I1
sg11
(imyEvolve
Tree
p88
(dp89
g10
I0
sg16
I00
sbsg20
(imyEvolve
Tree
p90
(dp91
g10
I0
sg46
F0.5657740804590174
sg16
I01
sbsg17
I00
sg18
g25
sbsg20
(imyEvolve
Tree
p92
(dp93
g10
I1
sg11
(imyEvolve
Tree
p94
(dp95
g10
I0
sg16
I00
sbsg20
(imyEvolve
Tree
p96
(dp97
g10
I0
sg46
F-4.803611660298806
sg16
I01
sbsg17
I00
sg18
g63
sbsg17
I00
sg18
g25
sba(imyEvolve
Tree
p98
(dp99
g7
(imyEvolve
Tree
p100
(dp101
g7
(imyEvolve
Tree
p102
(dp103
g10
I0
sg16
I00
sbsg10
I1
sg17
I01
sg18
g33
sbsg10
I2
sg17
I01
sg18
g26
sba(imyEvolve
Tree
p104
(dp105
g7
(imyEvolve
Tree
p106
(dp107
g7
(imyEvolve
Tree
p108
(dp109
g10
I1
sg11
(imyEvolve
Tree
p110
(dp111
g10
I0
sg46
F2.8077209986271594
sg16
I01
sbsg20
(imyEvolve
Tree
p112
(dp113
g10
I0
sg46
F-2.5002615156824923
sg16
I01
sbsg17
I00
sg18
g63
sbsg10
I2
sg17
I01
sg18
g33
sbsg10
I3
sg17
I01
sg18
g33
sba(imyEvolve
Tree
p114
(dp115
g10
I3
sg11
(imyEvolve
Tree
p116
(dp117
g10
I2
sg11
(imyEvolve
Tree
p118
(dp119
g7
(imyEvolve
Tree
p120
(dp121
g10
I0
sg16
I00
sbsg10
I1
sg17
I01
sg18
g33
sbsg20
(imyEvolve
Tree
p122
(dp123
g10
I1
sg11
(imyEvolve
Tree
p124
(dp125
g10
I0
sg46
F-3.6161743265339616
sg16
I01
sbsg20
(imyEvolve
Tree
p126
(dp127
g10
I0
sg46
F0.15489741674735136
sg16
I01
sbsg17
I00
sg18
g63
sbsg17
I00
sg18
g56
sbsg20
(imyEvolve
Tree
p128
(dp129
g7
(imyEvolve
Tree
p130
(dp131
g10
I1
sg11
(imyEvolve
Tree
p132
(dp133
g10
I0
sg46
F-4.399110894764937
sg16
I01
sbsg20
(imyEvolve
Tree
p134
(dp135
g10
I0
sg46
F0.572335875883299
sg16
I01
sbsg17
I00
sg18
g56
sbsg10
I2
sg17
I01
sg18
g19
sbsg17
I00
sg18
g56
sba(imyEvolve
Tree
p136
(dp137
g7
(imyEvolve
Tree
p138
(dp139
g10
I4
sg11
(imyEvolve
Tree
p140
(dp141
g10
I3
sg11
(imyEvolve
Tree
p142
(dp143
g10
I2
sg11
(imyEvolve
Tree
p144
(dp145
g10
I1
sg11
(imyEvolve
Tree
p146
(dp147
g10
I0
sg46
F-1.442510459249572
sg16
I01
sbsg20
(imyEvolve
Tree
p148
(dp149
g10
I0
sg16
I00
sbsg17
I00
sg18
g25
sbsg20
(imyEvolve
Tree
p150
(dp151
g10
I1
sg11
(imyEvolve
Tree
p152
(dp153
g10
I0
sg16
I00
sbsg20
(imyEvolve
Tree
p154
(dp155
g10
I0
sg16
I00
sbsg17
I00
sg18
g25
sbsg17
I00
sg18
g25
sbsg20
(imyEvolve
Tree
p156
(dp157
g7
(imyEvolve
Tree
p158
(dp159
g10
I1
sg11
(imyEvolve
Tree
p160
(dp161
g10
I0
sg46
F-0.229566037289616
sg16
I01
sbsg20
(imyEvolve
Tree
p162
(dp163
g10
I0
sg16
I00
sbsg17
I00
sg18
g25
sbsg10
I2
sg17
I01
sg18
g47
sbsg17
I00
sg18
g25
sbsg20
(imyEvolve
Tree
p164
(dp165
g7
(imyEvolve
Tree
p166
(dp167
g7
(imyEvolve
Tree
p168
(dp169
g7
(imyEvolve
Tree
p170
(dp171
g10
I0
sg46
F3.8263040857875463
sg16
I01
sbsg10
I1
sg17
I01
sg18
g47
sbsg10
I2
sg17
I01
sg18
g19
sbsg10
I3
sg17
I01
sg18
g47
sbsg17
I00
sg18
g56
sbsg10
I5
sg17
I01
sg18
g33
sba(imyEvolve
Tree
p172
(dp173
g10
I5
sg11
(imyEvolve
Tree
p174
(dp175
g10
I4
sg11
(imyEvolve
Tree
p176
(dp177
g7
(imyEvolve
Tree
p178
(dp179
g7
(imyEvolve
Tree
p180
(dp181
g7
(imyEvolve
Tree
p182
(dp183
g10
I0
sg16
I00
sbsg10
I1
sg17
I01
sg18
g19
sbsg10
I2
sg17
I01
sg18
g47
sbsg10
I3
sg17
I01
sg18
g19
sbsg20
(imyEvolve
Tree
p184
(dp185
g7
(imyEvolve
Tree
p186
(dp187
g10
I2
sg11
(imyEvolve
Tree
p188
(dp189
g7
(imyEvolve
Tree
p190
(dp191
g10
I0
sg46
F-1.241042389738011
sg16
I01
sbsg10
I1
sg17
I01
sg18
g33
sbsg20
(imyEvolve
Tree
p192
(dp193
g10
I1
sg11
(imyEvolve
Tree
p194
(dp195
g10
I0
sg16
I00
sbsg20
(imyEvolve
Tree
p196
(dp197
g10
I0
sg46
F-0.2774359864637379
sg16
I01
sbsg17
I00
sg18
g56
sbsg17
I00
sg18
g56
sbsg10
I3
sg17
I01
sg18
g33
sbsg17
I00
sg18
g25
sbsg20
(imyEvolve
Tree
p198
(dp199
g10
I4
sg11
(imyEvolve
Tree
p200
(dp201
g10
I3
sg11
(imyEvolve
Tree
p202
(dp203
g10
I2
sg11
(imyEvolve
Tree
p204
(dp205
g10
I1
sg11
(imyEvolve
Tree
p206
(dp207
g10
I0
sg46
F-3.617911714410055
sg16
I01
sbsg20
(imyEvolve
Tree
p208
(dp209
g10
I0
sg16
I00
sbsg17
I00
sg18
g25
sbsg20
(imyEvolve
Tree
p210
(dp211
g7
(imyEvolve
Tree
p212
(dp213
g10
I0
sg16
I00
sbsg10
I1
sg17
I01
sg18
g33
sbsg17
I00
sg18
g56
sbsg20
(imyEvolve
Tree
p214
(dp215
g10
I2
sg11
(imyEvolve
Tree
p216
(dp217
g7
(imyEvolve
Tree
p218
(dp219
g10
I0
sg46
F1.4186433101785179
sg16
I01
sbsg10
I1
sg17
I01
sg18
g26
sbsg20
(imyEvolve
Tree
p220
(dp221
g7
(imyEvolve
Tree
p222
(dp223
g10
I0
sg16
I00
sbsg10
I1
sg17
I01
sg18
g26
sbsg17
I00
sg18
g56
sbsg17
I00
sg18
g63
sbsg20
(imyEvolve
Tree
p224
(dp225
g10
I3
sg11
(imyEvolve
Tree
p226
(dp227
g10
I2
sg11
(imyEvolve
Tree
p228
(dp229
g10
I1
sg11
(imyEvolve
Tree
p230
(dp231
g10
I0
sg16
I00
sbsg20
(imyEvolve
Tree
p232
(dp233
g10
I0
sg46
F1.2580447546666829
sg16
I01
sbsg17
I00
sg18
g25
sbsg20
(imyEvolve
Tree
p234
(dp235
g7
(imyEvolve
Tree
p236
(dp237
g10
I0
sg16
I00
sbsg10
I1
sg17
I01
sg18
g26
sbsg17
I00
sg18
g25
sbsg20
(imyEvolve
Tree
p238
(dp239
g7
(imyEvolve
Tree
p240
(dp241
g10
I1
sg11
(imyEvolve
Tree
p242
(dp243
g10
I0
sg46
F4.881446078521133
sg16
I01
sbsg20
(imyEvolve
Tree
p244
(dp245
g10
I0
sg46
F-1.8972953785926738
sg16
I01
sbsg17
I00
sg18
g25
sbsg10
I2
sg17
I01
sg18
g19
sbsg17
I00
sg18
g25
sbsg17
I00
sg18
g25
sbsg17
I00
sg18
g56
sba(imyEvolve
Tree
p246
(dp247
g10
I4
sg11
(imyEvolve
Tree
p248
(dp249
g7
(imyEvolve
Tree
p250
(dp251
g7
(imyEvolve
Tree
p252
(dp253
g10
I1
sg11
(imyEvolve
Tree
p254
(dp255
g10
I0
sg46
F0.21056483838754225
sg16
I01
sbsg20
(imyEvolve
Tree
p256
(dp257
g10
I0
sg46
F0.5471334227969491
sg16
I01
sbsg17
I00
sg18
g63
sbsg10
I2
sg17
I01
sg18
g33
sbsg10
I3
sg17
I01
sg18
g33
sbsg20
(imyEvolve
Tree
p258
(dp259
g10
I3
sg11
(imyEvolve
Tree
p260
(dp261
g10
I2
sg11
(imyEvolve
Tree
p262
(dp263
g10
I1
sg11
(imyEvolve
Tree
p264
(dp265
g10
I0
sg16
I00
sbsg20
(imyEvolve
Tree
p266
(dp267
g10
I0
sg46
F-3.4126509921695227
sg16
I01
sbsg17
I00
sg18
g25
sbsg20
(imyEvolve
Tree
p268
(dp269
g7
(imyEvolve
Tree
p270
(dp271
g10
I0
sg46
F0.6303629868518277
sg16
I01
sbsg10
I1
sg17
I01
sg18
g26
sbsg17
I00
sg18
g56
sbsg20
(imyEvolve
Tree
p272
(dp273
g10
I2
sg11
(imyEvolve
Tree
p274
(dp275
g10
I1
sg11
(imyEvolve
Tree
p276
(dp277
g10
I0
sg46
F2.0415758351469115
sg16
I01
sbsg20
(imyEvolve
Tree
p278
(dp279
g10
I0
sg46
F3.0747393355588972
sg16
I01
sbsg17
I00
sg18
g25
sbsg20
(imyEvolve
Tree
p280
(dp281
g7
(imyEvolve
Tree
p282
(dp283
g10
I0
sg16
I00
sbsg10
I1
sg17
I01
sg18
g19
sbsg17
I00
sg18
g56
sbsg17
I00
sg18
g63
sbsg17
I00
sg18
g25
sba(imyEvolve
Tree
p284
(dp285
g10
I3
sg11
(imyEvolve
Tree
p286
(dp287
g10
I2
sg11
(imyEvolve
Tree
p288
(dp289
g7
(imyEvolve
Tree
p290
(dp291
g10
I0
sg46
F-2.5957981582887535
sg16
I01
sbsg10
I1
sg17
I01
sg18
g33
sbsg20
(imyEvolve
Tree
p292
(dp293
g7
(imyEvolve
Tree
p294
(dp295
g10
I0
sg46
F4.789598761941017
sg16
I01
sbsg10
I1
sg17
I01
sg18
g19
sbsg17
I00
sg18
g25
sbsg20
(imyEvolve
Tree
p296
(dp297
g7
(imyEvolve
Tree
p298
(dp299
g7
(imyEvolve
Tree
p300
(dp301
g10
I0
sg46
F-1.6142208909318856
sg16
I01
sbsg10
I1
sg17
I01
sg18
g47
sbsg10
I2
sg17
I01
sg18
g47
sbsg17
I00
sg18
g25
sba(imyEvolve
Tree
p302
(dp303
g7
(imyEvolve
Tree
p304
(dp305
g7
(imyEvolve
Tree
p306
(dp307
g7
(imyEvolve
Tree
p308
(dp309
g10
I2
sg11
(imyEvolve
Tree
p310
(dp311
g7
(imyEvolve
Tree
p312
(dp313
g10
I0
sg46
F2.2404206142918515
sg16
I01
sbsg10
I1
sg17
I01
sg18
g33
sbsg20
(imyEvolve
Tree
p314
(dp315
g10
I1
sg11
(imyEvolve
Tree
p316
(dp317
g10
I0
sg16
I00
sbsg20
(imyEvolve
Tree
p318
(dp319
g10
I0
sg16
I00
sbsg17
I00
sg18
g56
sbsg17
I00
sg18
g25
sbsg10
I3
sg17
I01
sg18
g47
sbsg10
I4
sg17
I01
sg18
g26
sbsg10
I5
sg17
I01
sg18
g26
sbaa(lp320
(imyEvolve
Tree
p321
(dp322
g7
(imyEvolve
Tree
p323
(dp324
g10
I1
sg11
(imyEvolve
Tree
p325
(dp326
g10
I0
sg16
I00
sbsg20
(imyEvolve
Tree
p327
(dp328
g10
I0
sg46
F4.993734301319424
sg16
I01
sbsg17
I00
sg18
g56
sbsg10
I2
sg17
I01
sg18
g47
sba(imyEvolve
Tree
p329
(dp330
g10
I4
sg11
(imyEvolve
Tree
p331
(dp332
g10
I3
sg11
(imyEvolve
Tree
p333
(dp334
g10
I2
sg11
(imyEvolve
Tree
p335
(dp336
g7
(imyEvolve
Tree
p337
(dp338
g10
I0
sg16
I00
sbsg10
I1
sg17
I01
sg18
g19
sbsg20
(imyEvolve
Tree
p339
(dp340
g7
(imyEvolve
Tree
p341
(dp342
g10
I0
sg46
F-0.3390989005467375
sg16
I01
sbsg10
I1
sg17
I01
sg18
g19
sbsg17
I00
sg18
g56
sbsg20
(imyEvolve
Tree
p343
(dp344
g10
I2
sg11
(imyEvolve
Tree
p345
(dp346
g7
(imyEvolve
Tree
p347
(dp348
g10
I0
sg46
F1.5649111655145518
sg16
I01
sbsg10
I1
sg17
I01
sg18
g26
sbsg20
(imyEvolve
Tree
p349
(dp350
g7
(imyEvolve
Tree
p351
(dp352
g10
I0
sg16
I00
sbsg10
I1
sg17
I01
sg18
g33
sbsg17
I00
sg18
g25
sbsg17
I00
sg18
g25
sbsg20
(imyEvolve
Tree
p353
(dp354
g7
(imyEvolve
Tree
p355
(dp356
g10
I2
sg11
(imyEvolve
Tree
p357
(dp358
g7
(imyEvolve
Tree
p359
(dp360
g10
I0
sg46
F4.029770261159536
sg16
I01
sbsg10
I1
sg17
I01
sg18
g19
sbsg20
(imyEvolve
Tree
p361
(dp362
g10
I1
sg11
(imyEvolve
Tree
p363
(dp364
g10
I0
sg46
F-1.3108574353054046
sg16
I01
sbsg20
(imyEvolve
Tree
p365
(dp366
g10
I0
sg16
I00
sbsg17
I00
sg18
g56
sbsg17
I00
sg18
g25
sbsg10
I3
sg17
I01
sg18
g33
sbsg17
I00
sg18
g56
sba(imyEvolve
Tree
p367
(dp368
g7
(imyEvolve
Tree
p369
(dp370
g10
I2
sg11
(imyEvolve
Tree
p371
(dp372
g7
(imyEvolve
Tree
p373
(dp374
g10
I0
sg16
I00
sbsg10
I1
sg17
I01
sg18
g47
sbsg20
(imyEvolve
Tree
p375
(dp376
g7
(imyEvolve
Tree
p377
(dp378
g10
I0
sg46
F3.8730240760111307
sg16
I01
sbsg10
I1
sg17
I01
sg18
g33
sbsg17
I00
sg18
g25
sbsg10
I3
sg17
I01
sg18
g26
sba(imyEvolve
Tree
p379
(dp380
g10
I4
sg11
(imyEvolve
Tree
p381
(dp382
g10
I3
sg11
(imyEvolve
Tree
p383
(dp384
g7
(imyEvolve
Tree
p385
(dp386
g10
I1
sg11
(imyEvolve
Tree
p387
(dp388
g10
I0
sg16
I00
sbsg20
(imyEvolve
Tree
p389
(dp390
g10
I0
sg16
I00
sbsg17
I00
sg18
g63
sbsg10
I2
sg17
I01
sg18
g33
sbsg20
(imyEvolve
Tree
p391
(dp392
g7
(imyEvolve
Tree
p393
(dp394
g7
(imyEvolve
Tree
p395
(dp396
g10
I0
sg16
I00
sbsg10
I1
sg17
I01
sg18
g33
sbsg10
I2
sg17
I01
sg18
g19
sbsg17
I00
sg18
g25
sbsg20
(imyEvolve
Tree
p397
(dp398
g7
(imyEvolve
Tree
p399
(dp400
g7
(imyEvolve
Tree
p401
(dp402
g7
(imyEvolve
Tree
p403
(dp404
g10
I0
sg46
F-2.704322764082394
sg16
I01
sbsg10
I1
sg17
I01
sg18
g47
sbsg10
I2
sg17
I01
sg18
g47
sbsg10
I3
sg17
I01
sg18
g33
sbsg17
I00
sg18
g56
sba(imyEvolve
Tree
p405
(dp406
g7
(imyEvolve
Tree
p407
(dp408
g10
I1
sg11
(imyEvolve
Tree
p409
(dp410
g10
I0
sg16
I00
sbsg20
(imyEvolve
Tree
p411
(dp412
g10
I0
sg16
I00
sbsg17
I00
sg18
g25
sbsg10
I2
sg17
I01
sg18
g19
sba(imyEvolve
Tree
p413
(dp414
g7
(imyEvolve
Tree
p415
(dp416
g10
I2
sg11
(imyEvolve
Tree
p417
(dp418
g7
(imyEvolve
Tree
p419
(dp420
g10
I0
sg16
I00
sbsg10
I1
sg17
I01
sg18
g33
sbsg20
(imyEvolve
Tree
p421
(dp422
g7
(imyEvolve
Tree
p423
(dp424
g10
I0
sg46
F-4.985442262997076
sg16
I01
sbsg10
I1
sg17
I01
sg18
g26
sbsg17
I00
sg18
g56
sbsg10
I3
sg17
I01
sg18
g19
sba(imyEvolve
Tree
p425
(dp426
g10
I2
sg11
(imyEvolve
Tree
p427
(dp428
g7
(imyEvolve
Tree
p429
(dp430
g10
I0
sg16
I00
sbsg10
I1
sg17
I01
sg18
g47
sbsg20
(imyEvolve
Tree
p431
(dp432
g10
I1
sg11
(imyEvolve
Tree
p433
(dp434
g10
I0
sg46
F-2.338785995907977
sg16
I01
sbsg20
(imyEvolve
Tree
p435
(dp436
g10
I0
sg16
I00
sbsg17
I00
sg18
g56
sbsg17
I00
sg18
g25
sba(imyEvolve
Tree
p437
(dp438
g7
(imyEvolve
Tree
p439
(dp440
g7
(imyEvolve
Tree
p441
(dp442
g10
I0
sg46
F2.2792175522081557
sg16
I01
sbsg10
I1
sg17
I01
sg18
g47
sbsg10
I2
sg17
I01
sg18
g26
sba(imyEvolve
Tree
p443
(dp444
g10
I3
sg11
(imyEvolve
Tree
p445
(dp446
g10
I2
sg11
(imyEvolve
Tree
p447
(dp448
g10
I1
sg11
(imyEvolve
Tree
p449
(dp450
g10
I0
sg46
F0.670421659370354
sg16
I01
sbsg20
(imyEvolve
Tree
p451
(dp452
g10
I0
sg16
I00
sbsg17
I00
sg18
g25
sbsg20
(imyEvolve
Tree
p453
(dp454
g10
I1
sg11
(imyEvolve
Tree
p455
(dp456
g10
I0
sg16
I00
sbsg20
(imyEvolve
Tree
p457
(dp458
g10
I0
sg16
I00
sbsg17
I00
sg18
g56
sbsg17
I00
sg18
g25
sbsg20
(imyEvolve
Tree
p459
(dp460
g10
I2
sg11
(imyEvolve
Tree
p461
(dp462
g7
(imyEvolve
Tree
p463
(dp464
g10
I0
sg16
I00
sbsg10
I1
sg17
I01
sg18
g19
sbsg20
(imyEvolve
Tree
p465
(dp466
g7
(imyEvolve
Tree
p467
(dp468
g10
I0
sg46
F-0.749767461643045
sg16
I01
sbsg10
I1
sg17
I01
sg18
g47
sbsg17
I00
sg18
g63
sbsg17
I00
sg18
g25
sba(imyEvolve
Tree
p469
(dp470
g7
(imyEvolve
Tree
p471
(dp472
g7
(imyEvolve
Tree
p473
(dp474
g10
I0
sg16
I00
sbsg10
I1
sg17
I01
sg18
g33
sbsg10
I2
sg17
I01
sg18
g33
sba(imyEvolve
Tree
p475
(dp476
g10
I3
sg11
(imyEvolve
Tree
p477
(dp478
g10
I2
sg11
(imyEvolve
Tree
p479
(dp480
g7
(imyEvolve
Tree
p481
(dp482
g10
I0
sg46
F4.794289602625568
sg16
I01
sbsg10
I1
sg17
I01
sg18
g26
sbsg20
(imyEvolve
Tree
p483
(dp484
g10
I1
sg11
(imyEvolve
Tree
p485
(dp486
g10
I0
sg16
I00
sbsg20
(imyEvolve
Tree
p487
(dp488
g10
I0
sg46
F3.99643339934401
sg16
I01
sbsg17
I00
sg18
g63
sbsg17
I00
sg18
g25
sbsg20
(imyEvolve
Tree
p489
(dp490
g10
I2
sg11
(imyEvolve
Tree
p491
(dp492
g7
(imyEvolve
Tree
p493
(dp494
g10
I0
sg16
I00
sbsg10
I1
sg17
I01
sg18
g47
sbsg20
(imyEvolve
Tree
p495
(dp496
g7
(imyEvolve
Tree
p497
(dp498
g10
I0
sg46
F-2.855940342817963
sg16
I01
sbsg10
I1
sg17
I01
sg18
g33
sbsg17
I00
sg18
g63
sbsg17
I00
sg18
g63
sba(imyEvolve
Tree
p499
(dp500
g10
I4
sg11
(imyEvolve
Tree
p501
(dp502
g7
(imyEvolve
Tree
p503
(dp504
g10
I2
sg11
(imyEvolve
Tree
p505
(dp506
g7
(imyEvolve
Tree
p507
(dp508
g10
I0
sg46
F-1.9548933604315377
sg16
I01
sbsg10
I1
sg17
I01
sg18
g19
sbsg20
(imyEvolve
Tree
p509
(dp510
g10
I1
sg11
(imyEvolve
Tree
p511
(dp512
g10
I0
sg16
I00
sbsg20
(imyEvolve
Tree
p513
(dp514
g10
I0
sg46
F4.848797103856553
sg16
I01
sbsg17
I00
sg18
g25
sbsg17
I00
sg18
g63
sbsg10
I3
sg17
I01
sg18
g47
sbsg20
(imyEvolve
Tree
p515
(dp516
g7
(imyEvolve
Tree
p517
(dp518
g7
(imyEvolve
Tree
p519
(dp520
g10
I1
sg11
(imyEvolve
Tree
p521
(dp522
g10
I0
sg46
F2.304897583181914
sg16
I01
sbsg20
(imyEvolve
Tree
p523
(dp524
g10
I0
sg46
F4.792710751665771
sg16
I01
sbsg17
I00
sg18
g56
sbsg10
I2
sg17
I01
sg18
g26
sbsg10
I3
sg17
I01
sg18
g47
sbsg17
I00
sg18
g63
sba(imyEvolve
Tree
p525
(dp526
g7
(imyEvolve
Tree
p527
(dp528
g7
(imyEvolve
Tree
p529
(dp530
g10
I0
sg16
I00
sbsg10
I1
sg17
I01
sg18
g19
sbsg10
I2
sg17
I01
sg18
g19
sba(imyEvolve
Tree
p531
(dp532
g10
I4
sg11
(imyEvolve
Tree
p533
(dp534
g7
(imyEvolve
Tree
p535
(dp536
g7
(imyEvolve
Tree
p537
(dp538
g10
I1
sg11
(imyEvolve
Tree
p539
(dp540
g10
I0
sg16
I00
sbsg20
(imyEvolve
Tree
p541
(dp542
g10
I0
sg46
F4.1389561438231155
sg16
I01
sbsg17
I00
sg18
g63
sbsg10
I2
sg17
I01
sg18
g26
sbsg10
I3
sg17
I01
sg18
g33
sbsg20
(imyEvolve
Tree
p543
(dp544
g10
I3
sg11
(imyEvolve
Tree
p545
(dp546
g7
(imyEvolve
Tree
p547
(dp548
g7
(imyEvolve
Tree
p549
(dp550
g10
I0
sg46
F-4.9339161905157685
sg16
I01
sbsg10
I1
sg17
I01
sg18
g26
sbsg10
I2
sg17
I01
sg18
g19
sbsg20
(imyEvolve
Tree
p551
(dp552
g10
I2
sg11
(imyEvolve
Tree
p553
(dp554
g10
I1
sg11
(imyEvolve
Tree
p555
(dp556
g10
I0
sg16
I00
sbsg20
(imyEvolve
Tree
p557
(dp558
g10
I0
sg16
I00
sbsg17
I00
sg18
g63
sbsg20
(imyEvolve
Tree
p559
(dp560
g7
(imyEvolve
Tree
p561
(dp562
g10
I0
sg46
F-4.74439093959832
sg16
I01
sbsg10
I1
sg17
I01
sg18
g33
sbsg17
I00
sg18
g63
sbsg17
I00
sg18
g56
sbsg17
I00
sg18
g25
sbaa(lp563
(imyEvolve
Tree
p564
(dp565
g7
(imyEvolve
Tree
p566
(dp567
g10
I1
sg11
(imyEvolve
Tree
p568
(dp569
g10
I0
sg16
I00
sbsg20
(imyEvolve
Tree
p570
(dp571
g10
I0
sg16
I00
sbsg17
I00
sg18
g63
sbsg10
I2
sg17
I01
sg18
g47
sba(imyEvolve
Tree
p572
(dp573
g7
(imyEvolve
Tree
p574
(dp575
g7
(imyEvolve
Tree
p576
(dp577
g10
I3
sg11
(imyEvolve
Tree
p578
(dp579
g10
I2
sg11
(imyEvolve
Tree
p580
(dp581
g7
(imyEvolve
Tree
p582
(dp583
g10
I0
sg16
I00
sbsg10
I1
sg17
I01
sg18
g26
sbsg20
(imyEvolve
Tree
p584
(dp585
g7
(imyEvolve
Tree
p586
(dp587
g10
I0
sg16
I00
sbsg10
I1
sg17
I01
sg18
g47
sbsg17
I00
sg18
g25
sbsg20
(imyEvolve
Tree
p588
(dp589
g7
(imyEvolve
Tree
p590
(dp591
g10
I1
sg11
(imyEvolve
Tree
p592
(dp593
g10
I0
sg16
I00
sbsg20
(imyEvolve
Tree
p594
(dp595
g10
I0
sg16
I00
sbsg17
I00
sg18
g56
sbsg10
I2
sg17
I01
sg18
g19
sbsg17
I00
sg18
g63
sbsg10
I4
sg17
I01
sg18
g47
sbsg10
I5
sg17
I01
sg18
g33
sba(imyEvolve
Tree
p596
(dp597
g7
(imyEvolve
Tree
p598
(dp599
g10
I3
sg11
(imyEvolve
Tree
p600
(dp601
g10
I2
sg11
(imyEvolve
Tree
p602
(dp603
g10
I1
sg11
(imyEvolve
Tree
p604
(dp605
g10
I0
sg16
I00
sbsg20
(imyEvolve
Tree
p606
(dp607
g10
I0
sg16
I00
sbsg17
I00
sg18
g56
sbsg20
(imyEvolve
Tree
p608
(dp609
g10
I1
sg11
(imyEvolve
Tree
p610
(dp611
g10
I0
sg16
I00
sbsg20
(imyEvolve
Tree
p612
(dp613
g10
I0
sg46
F1.8965272394770603
sg16
I01
sbsg17
I00
sg18
g56
sbsg17
I00
sg18
g63
sbsg20
(imyEvolve
Tree
p614
(dp615
g10
I2
sg11
(imyEvolve
Tree
p616
(dp617
g7
(imyEvolve
Tree
p618
(dp619
g10
I0
sg46
F-3.6221520478258618
sg16
I01
sbsg10
I1
sg17
I01
sg18
g33
sbsg20
(imyEvolve
Tree
p620
(dp621
g7
(imyEvolve
Tree
p622
(dp623
g10
I0
sg16
I00
sbsg10
I1
sg17
I01
sg18
g26
sbsg17
I00
sg18
g25
sbsg17
I00
sg18
g63
sbsg10
I4
sg17
I01
sg18
g19
sba(imyEvolve
Tree
p624
(dp625
g10
I2
sg11
(imyEvolve
Tree
p626
(dp627
g10
I1
sg11
(imyEvolve
Tree
p628
(dp629
g10
I0
sg16
I00
sbsg20
(imyEvolve
Tree
p630
(dp631
g10
I0
sg46
F0.9865009504130384
sg16
I01
sbsg17
I00
sg18
g25
sbsg20
(imyEvolve
Tree
p632
(dp633
g10
I1
sg11
(imyEvolve
Tree
p634
(dp635
g10
I0
sg46
F-0.2757931714287354
sg16
I01
sbsg20
(imyEvolve
Tree
p636
(dp637
g10
I0
sg46
F-0.14430269992272127
sg16
I01
sbsg17
I00
sg18
g56
sbsg17
I00
sg18
g25
sba(imyEvolve
Tree
p638
(dp639
g10
I5
sg11
(imyEvolve
Tree
p640
(dp641
g7
(imyEvolve
Tree
p642
(dp643
g7
(imyEvolve
Tree
p644
(dp645
g7
(imyEvolve
Tree
p646
(dp647
g10
I1
sg11
(imyEvolve
Tree
p648
(dp649
g10
I0
sg16
I00
sbsg20
(imyEvolve
Tree
p650
(dp651
g10
I0
sg16
I00
sbsg17
I00
sg18
g63
sbsg10
I2
sg17
I01
sg18
g19
sbsg10
I3
sg17
I01
sg18
g19
sbsg10
I4
sg17
I01
sg18
g33
sbsg20
(imyEvolve
Tree
p652
(dp653
g7
(imyEvolve
Tree
p654
(dp655
g7
(imyEvolve
Tree
p656
(dp657
g7
(imyEvolve
Tree
p658
(dp659
g10
I1
sg11
(imyEvolve
Tree
p660
(dp661
g10
I0
sg16
I00
sbsg20
(imyEvolve
Tree
p662
(dp663
g10
I0
sg46
F0.601822957293086
sg16
I01
sbsg17
I00
sg18
g25
sbsg10
I2
sg17
I01
sg18
g33
sbsg10
I3
sg17
I01
sg18
g33
sbsg10
I4
sg17
I01
sg18
g47
sbsg17
I00
sg18
g63
sba(imyEvolve
Tree
p664
(dp665
g7
(imyEvolve
Tree
p666
(dp667
g7
(imyEvolve
Tree
p668
(dp669
g7
(imyEvolve
Tree
p670
(dp671
g7
(imyEvolve
Tree
p672
(dp673
g10
I0
sg46
F-0.5835900927772908
sg16
I01
sbsg10
I1
sg17
I01
sg18
g26
sbsg10
I2
sg17
I01
sg18
g47
sbsg10
I3
sg17
I01
sg18
g26
sbsg10
I4
sg17
I01
sg18
g33
sba(imyEvolve
Tree
p674
(dp675
g7
(imyEvolve
Tree
p676
(dp677
g10
I4
sg11
(imyEvolve
Tree
p678
(dp679
g7
(imyEvolve
Tree
p680
(dp681
g7
(imyEvolve
Tree
p682
(dp683
g7
(imyEvolve
Tree
p684
(dp685
g10
I0
sg16
I00
sbsg10
I1
sg17
I01
sg18
g47
sbsg10
I2
sg17
I01
sg18
g19
sbsg10
I3
sg17
I01
sg18
g47
sbsg20
(imyEvolve
Tree
p686
(dp687
g10
I3
sg11
(imyEvolve
Tree
p688
(dp689
g10
I2
sg11
(imyEvolve
Tree
p690
(dp691
g7
(imyEvolve
Tree
p692
(dp693
g10
I0
sg46
F2.4370178286472584
sg16
I01
sbsg10
I1
sg17
I01
sg18
g26
sbsg20
(imyEvolve
Tree
p694
(dp695
g10
I1
sg11
(imyEvolve
Tree
p696
(dp697
g10
I0
sg16
I00
sbsg20
(imyEvolve
Tree
p698
(dp699
g10
I0
sg46
F0.6214691587083001
sg16
I01
sbsg17
I00
sg18
g25
sbsg17
I00
sg18
g56
sbsg20
(imyEvolve
Tree
p700
(dp701
g7
(imyEvolve
Tree
p702
(dp703
g10
I1
sg11
(imyEvolve
Tree
p704
(dp705
g10
I0
sg46
F-3.1048061142904873
sg16
I01
sbsg20
(imyEvolve
Tree
p706
(dp707
g10
I0
sg46
F-4.672190542038028
sg16
I01
sbsg17
I00
sg18
g56
sbsg10
I2
sg17
I01
sg18
g26
sbsg17
I00
sg18
g56
sbsg17
I00
sg18
g63
sbsg10
I5
sg17
I01
sg18
g26
sba(imyEvolve
Tree
p708
(dp709
g7
(imyEvolve
Tree
p710
(dp711
g7
(imyEvolve
Tree
p712
(dp713
g7
(imyEvolve
Tree
p714
(dp715
g7
(imyEvolve
Tree
p716
(dp717
g7
(imyEvolve
Tree
p718
(dp719
g10
I0
sg16
I00
sbsg10
I1
sg17
I01
sg18
g26
sbsg10
I2
sg17
I01
sg18
g19
sbsg10
I3
sg17
I01
sg18
g19
sbsg10
I4
sg17
I01
sg18
g47
sbsg10
I5
sg17
I01
sg18
g26
sbaa(lp720
(imyEvolve
Tree
p721
(dp722
g7
(imyEvolve
Tree
p723
(dp724
g7
(imyEvolve
Tree
p725
(dp726
g10
I0
sg16
I00
sbsg10
I1
sg17
I01
sg18
g26
sbsg10
I2
sg17
I01
sg18
g19
sba(imyEvolve
Tree
p727
(dp728
g7
(imyEvolve
Tree
p729
(dp730
g7
(imyEvolve
Tree
p731
(dp732
g10
I2
sg11
(imyEvolve
Tree
p733
(dp734
g7
(imyEvolve
Tree
p735
(dp736
g10
I0
sg16
I00
sbsg10
I1
sg17
I01
sg18
g33
sbsg20
(imyEvolve
Tree
p737
(dp738
g10
I1
sg11
(imyEvolve
Tree
p739
(dp740
g10
I0
sg46
F-1.64690658641782
sg16
I01
sbsg20
(imyEvolve
Tree
p741
(dp742
g10
I0
sg46
F2.11634113226424
sg16
I01
sbsg17
I00
sg18
g25
sbsg17
I00
sg18
g63
sbsg10
I3
sg17
I01
sg18
g26
sbsg10
I4
sg17
I01
sg18
g47
sba(imyEvolve
Tree
p743
(dp744
g7
(imyEvolve
Tree
p745
(dp746
g7
(imyEvolve
Tree
p747
(dp748
g7
(imyEvolve
Tree
p749
(dp750
g10
I0
sg16
I00
sbsg10
I1
sg17
I01
sg18
g26
sbsg10
I2
sg17
I01
sg18
g33
sbsg10
I3
sg17
I01
sg18
g33
sba(imyEvolve
Tree
p751
(dp752
g10
I5
sg11
(imyEvolve
Tree
p753
(dp754
g7
(imyEvolve
Tree
p755
(dp756
g7
(imyEvolve
Tree
p757
(dp758
g10
I2
sg11
(imyEvolve
Tree
p759
(dp760
g7
(imyEvolve
Tree
p761
(dp762
g10
I0
sg16
I00
sbsg10
I1
sg17
I01
sg18
g26
sbsg20
(imyEvolve
Tree
p763
(dp764
g7
(imyEvolve
Tree
p765
(dp766
g10
I0
sg16
I00
sbsg10
I1
sg17
I01
sg18
g19
sbsg17
I00
sg18
g56
sbsg10
I3
sg17
I01
sg18
g47
sbsg10
I4
sg17
I01
sg18
g47
sbsg20
(imyEvolve
Tree
p767
(dp768
g10
I4
sg11
(imyEvolve
Tree
p769
(dp770
g10
I3
sg11
(imyEvolve
Tree
p771
(dp772
g10
I2
sg11
(imyEvolve
Tree
p773
(dp774
g10
I1
sg11
(imyEvolve
Tree
p775
(dp776
g10
I0
sg16
I00
sbsg20
(imyEvolve
Tree
p777
(dp778
g10
I0
sg46
F-1.624863716160252
sg16
I01
sbsg17
I00
sg18
g25
sbsg20
(imyEvolve
Tree
p779
(dp780
g10
I1
sg11
(imyEvolve
Tree
p781
(dp782
g10
I0
sg46
F-0.9207383647168008
sg16
I01
sbsg20
(imyEvolve
Tree
p783
(dp784
g10
I0
sg46
F-2.8152229393579353
sg16
I01
sbsg17
I00
sg18
g63
sbsg17
I00
sg18
g56
sbsg20
(imyEvolve
Tree
p785
(dp786
g7
(imyEvolve
Tree
p787
(dp788
g7
(imyEvolve
Tree
p789
(dp790
g10
I0
sg16
I00
sbsg10
I1
sg17
I01
sg18
g19
sbsg10
I2
sg17
I01
sg18
g26
sbsg17
I00
sg18
g63
sbsg20
(imyEvolve
Tree
p791
(dp792
g10
I3
sg11
(imyEvolve
Tree
p793
(dp794
g10
I2
sg11
(imyEvolve
Tree
p795
(dp796
g10
I1
sg11
(imyEvolve
Tree
p797
(dp798
g10
I0
sg46
F4.867539834048186
sg16
I01
sbsg20
(imyEvolve
Tree
p799
(dp800
g10
I0
sg16
I00
sbsg17
I00
sg18
g63
sbsg20
(imyEvolve
Tree
p801
(dp802
g7
(imyEvolve
Tree
p803
(dp804
g10
I0
sg16
I00
sbsg10
I1
sg17
I01
sg18
g33
sbsg17
I00
sg18
g63
sbsg20
(imyEvolve
Tree
p805
(dp806
g10
I2
sg11
(imyEvolve
Tree
p807
(dp808
g10
I1
sg11
(imyEvolve
Tree
p809
(dp810
g10
I0
sg46
F-4.2027593425581875
sg16
I01
sbsg20
(imyEvolve
Tree
p811
(dp812
g10
I0
sg16
I00
sbsg17
I00
sg18
g56
sbsg20
(imyEvolve
Tree
p813
(dp814
g7
(imyEvolve
Tree
p815
(dp816
g10
I0
sg46
F-4.810756676745896
sg16
I01
sbsg10
I1
sg17
I01
sg18
g19
sbsg17
I00
sg18
g56
sbsg17
I00
sg18
g25
sbsg17
I00
sg18
g63
sbsg17
I00
sg18
g63
sba(imyEvolve
Tree
p817
(dp818
g10
I2
sg11
(imyEvolve
Tree
p819
(dp820
g10
I1
sg11
(imyEvolve
Tree
p821
(dp822
g10
I0
sg46
F-3.5441868001053067
sg16
I01
sbsg20
(imyEvolve
Tree
p823
(dp824
g10
I0
sg46
F1.1089965548902567
sg16
I01
sbsg17
I00
sg18
g56
sbsg20
(imyEvolve
Tree
p825
(dp826
g10
I1
sg11
(imyEvolve
Tree
p827
(dp828
g10
I0
sg16
I00
sbsg20
(imyEvolve
Tree
p829
(dp830
g10
I0
sg46
F3.6381121352734542
sg16
I01
sbsg17
I00
sg18
g63
sbsg17
I00
sg18
g63
sba(imyEvolve
Tree
p831
(dp832
g7
(imyEvolve
Tree
p833
(dp834
g7
(imyEvolve
Tree
p835
(dp836
g7
(imyEvolve
Tree
p837
(dp838
g10
I2
sg11
(imyEvolve
Tree
p839
(dp840
g7
(imyEvolve
Tree
p841
(dp842
g10
I0
sg16
I00
sbsg10
I1
sg17
I01
sg18
g47
sbsg20
(imyEvolve
Tree
p843
(dp844
g7
(imyEvolve
Tree
p845
(dp846
g10
I0
sg46
F0.5357305205196958
sg16
I01
sbsg10
I1
sg17
I01
sg18
g47
sbsg17
I00
sg18
g63
sbsg10
I3
sg17
I01
sg18
g33
sbsg10
I4
sg17
I01
sg18
g26
sbsg10
I5
sg17
I01
sg18
g26
sba(imyEvolve
Tree
p847
(dp848
g7
(imyEvolve
Tree
p849
(dp850
g7
(imyEvolve
Tree
p851
(dp852
g7
(imyEvolve
Tree
p853
(dp854
g10
I0
sg16
I00
sbsg10
I1
sg17
I01
sg18
g47
sbsg10
I2
sg17
I01
sg18
g33
sbsg10
I3
sg17
I01
sg18
g47
sba(imyEvolve
Tree
p855
(dp856
g10
I2
sg11
(imyEvolve
Tree
p857
(dp858
g10
I1
sg11
(imyEvolve
Tree
p859
(dp860
g10
I0
sg16
I00
sbsg20
(imyEvolve
Tree
p861
(dp862
g10
I0
sg46
F0.11696106072817702
sg16
I01
sbsg17
I00
sg18
g63
sbsg20
(imyEvolve
Tree
p863
(dp864
g7
(imyEvolve
Tree
p865
(dp866
g10
I0
sg16
I00
sbsg10
I1
sg17
I01
sg18
g33
sbsg17
I00
sg18
g25
sba(imyEvolve
Tree
p867
(dp868
g7
(imyEvolve
Tree
p869
(dp870
g10
I3
sg11
(imyEvolve
Tree
p871
(dp872
g10
I2
sg11
(imyEvolve
Tree
p873
(dp874
g7
(imyEvolve
Tree
p875
(dp876
g10
I0
sg46
F-0.8266994344068612
sg16
I01
sbsg10
I1
sg17
I01
sg18
g26
sbsg20
(imyEvolve
Tree
p877
(dp878
g7
(imyEvolve
Tree
p879
(dp880
g10
I0
sg46
F2.0063726576094503
sg16
I01
sbsg10
I1
sg17
I01
sg18
g47
sbsg17
I00
sg18
g56
sbsg20
(imyEvolve
Tree
p881
(dp882
g7
(imyEvolve
Tree
p883
(dp884
g10
I1
sg11
(imyEvolve
Tree
p885
(dp886
g10
I0
sg46
F4.3683417601257215
sg16
I01
sbsg20
(imyEvolve
Tree
p887
(dp888
g10
I0
sg16
I00
sbsg17
I00
sg18
g56
sbsg10
I2
sg17
I01
sg18
g26
sbsg17
I00
sg18
g25
sbsg10
I4
sg17
I01
sg18
g33
sba(imyEvolve
Tree
p889
(dp890
g10
I4
sg11
(imyEvolve
Tree
p891
(dp892
g10
I3
sg11
(imyEvolve
Tree
p893
(dp894
g10
I2
sg11
(imyEvolve
Tree
p895
(dp896
g7
(imyEvolve
Tree
p897
(dp898
g10
I0
sg16
I00
sbsg10
I1
sg17
I01
sg18
g19
sbsg20
(imyEvolve
Tree
p899
(dp900
g7
(imyEvolve
Tree
p901
(dp902
g10
I0
sg46
F-1.238768544408452
sg16
I01
sbsg10
I1
sg17
I01
sg18
g26
sbsg17
I00
sg18
g25
sbsg20
(imyEvolve
Tree
p903
(dp904
g10
I2
sg11
(imyEvolve
Tree
p905
(dp906
g10
I1
sg11
(imyEvolve
Tree
p907
(dp908
g10
I0
sg46
F-3.8765271101157794
sg16
I01
sbsg20
(imyEvolve
Tree
p909
(dp910
g10
I0
sg46
F-3.9719042408034744
sg16
I01
sbsg17
I00
sg18
g63
sbsg20
(imyEvolve
Tree
p911
(dp912
g10
I1
sg11
(imyEvolve
Tree
p913
(dp914
g10
I0
sg46
F2.055162105914718
sg16
I01
sbsg20
(imyEvolve
Tree
p915
(dp916
g10
I0
sg16
I00
sbsg17
I00
sg18
g25
sbsg17
I00
sg18
g63
sbsg17
I00
sg18
g56
sbsg20
(imyEvolve
Tree
p917
(dp918
g7
(imyEvolve
Tree
p919
(dp920
g10
I2
sg11
(imyEvolve
Tree
p921
(dp922
g10
I1
sg11
(imyEvolve
Tree
p923
(dp924
g10
I0
sg16
I00
sbsg20
(imyEvolve
Tree
p925
(dp926
g10
I0
sg46
F0.348891749515686
sg16
I01
sbsg17
I00
sg18
g25
sbsg20
(imyEvolve
Tree
p927
(dp928
g7
(imyEvolve
Tree
p929
(dp930
g10
I0
sg16
I00
sbsg10
I1
sg17
I01
sg18
g33
sbsg17
I00
sg18
g25
sbsg10
I3
sg17
I01
sg18
g19
sbsg17
I00
sg18
g63
sba(imyEvolve
Tree
p931
(dp932
g7
(imyEvolve
Tree
p933
(dp934
g10
I4
sg11
(imyEvolve
Tree
p935
(dp936
g10
I3
sg11
(imyEvolve
Tree
p937
(dp938
g7
(imyEvolve
Tree
p939
(dp940
g7
(imyEvolve
Tree
p941
(dp942
g10
I0
sg16
I00
sbsg10
I1
sg17
I01
sg18
g47
sbsg10
I2
sg17
I01
sg18
g19
sbsg20
(imyEvolve
Tree
p943
(dp944
g10
I2
sg11
(imyEvolve
Tree
p945
(dp946
g7
(imyEvolve
Tree
p947
(dp948
g10
I0
sg16
I00
sbsg10
I1
sg17
I01
sg18
g19
sbsg20
(imyEvolve
Tree
p949
(dp950
g10
I1
sg11
(imyEvolve
Tree
p951
(dp952
g10
I0
sg16
I00
sbsg20
(imyEvolve
Tree
p953
(dp954
g10
I0
sg16
I00
sbsg17
I00
sg18
g25
sbsg17
I00
sg18
g25
sbsg17
I00
sg18
g56
sbsg20
(imyEvolve
Tree
p955
(dp956
g10
I3
sg11
(imyEvolve
Tree
p957
(dp958
g7
(imyEvolve
Tree
p959
(dp960
g10
I1
sg11
(imyEvolve
Tree
p961
(dp962
g10
I0
sg46
F-4.971648042305651
sg16
I01
sbsg20
(imyEvolve
Tree
p963
(dp964
g10
I0
sg46
F-2.309521037158515
sg16
I01
sbsg17
I00
sg18
g25
sbsg10
I2
sg17
I01
sg18
g33
sbsg20
(imyEvolve
Tree
p965
(dp966
g7
(imyEvolve
Tree
p967
(dp968
g7
(imyEvolve
Tree
p969
(dp970
g10
I0
sg46
F2.873516434637394
sg16
I01
sbsg10
I1
sg17
I01
sg18
g19
sbsg10
I2
sg17
I01
sg18
g47
sbsg17
I00
sg18
g56
sbsg17
I00
sg18
g25
sbsg10
I5
sg17
I01
sg18
g33
sba(imyEvolve
Tree
p971
(dp972
g7
(imyEvolve
Tree
p973
(dp974
g10
I1
sg11
(imyEvolve
Tree
p975
(dp976
g10
I0
sg16
I00
sbsg20
(imyEvolve
Tree
p977
(dp978
g10
I0
sg16
I00
sbsg17
I00
sg18
g56
sbsg10
I2
sg17
I01
sg18
g47
sba(imyEvolve
Tree
p979
(dp980
g10
I3
sg11
(imyEvolve
Tree
p981
(dp982
g7
(imyEvolve
Tree
p983
(dp984
g10
I1
sg11
(imyEvolve
Tree
p985
(dp986
g10
I0
sg46
F-0.3995075483215249
sg16
I01
sbsg20
(imyEvolve
Tree
p987
(dp988
g10
I0
sg16
I00
sbsg17
I00
sg18
g56
sbsg10
I2
sg17
I01
sg18
g33
sbsg20
(imyEvolve
Tree
p989
(dp990
g7
(imyEvolve
Tree
p991
(dp992
g7
(imyEvolve
Tree
p993
(dp994
g10
I0
sg16
I00
sbsg10
I1
sg17
I01
sg18
g33
sbsg10
I2
sg17
I01
sg18
g47
sbsg17
I00
sg18
g56
sba(imyEvolve
Tree
p995
(dp996
g7
(imyEvolve
Tree
p997
(dp998
g7
(imyEvolve
Tree
p999
(dp1000
g10
I0
sg46
F4.5376490041704844
sg16
I01
sbsg10
I1
sg17
I01
sg18
g26
sbsg10
I2
sg17
I01
sg18
g33
sba(imyEvolve
Tree
p1001
(dp1002
g10
I3
sg11
(imyEvolve
Tree
p1003
(dp1004
g10
I2
sg11
(imyEvolve
Tree
p1005
(dp1006
g10
I1
sg11
(imyEvolve
Tree
p1007
(dp1008
g10
I0
sg46
F-1.8334610538014195
sg16
I01
sbsg20
(imyEvolve
Tree
p1009
(dp1010
g10
I0
sg46
F1.7065198781200497
sg16
I01
sbsg17
I00
sg18
g25
sbsg20
(imyEvolve
Tree
p1011
(dp1012
g10
I1
sg11
(imyEvolve
Tree
p1013
(dp1014
g10
I0
sg46
F3.3966010873398407
sg16
I01
sbsg20
(imyEvolve
Tree
p1015
(dp1016
g10
I0
sg46
F3.047287044425488
sg16
I01
sbsg17
I00
sg18
g56
sbsg17
I00
sg18
g25
sbsg20
(imyEvolve
Tree
p1017
(dp1018
g10
I2
sg11
(imyEvolve
Tree
p1019
(dp1020
g10
I1
sg11
(imyEvolve
Tree
p1021
(dp1022
g10
I0
sg16
I00
sbsg20
(imyEvolve
Tree
p1023
(dp1024
g10
I0
sg46
F1.3525950288596178
sg16
I01
sbsg17
I00
sg18
g63
sbsg20
(imyEvolve
Tree
p1025
(dp1026
g7
(imyEvolve
Tree
p1027
(dp1028
g10
I0
sg16
I00
sbsg10
I1
sg17
I01
sg18
g33
sbsg17
I00
sg18
g63
sbsg17
I00
sg18
g56
sba(imyEvolve
Tree
p1029
(dp1030
g10
I5
sg11
(imyEvolve
Tree
p1031
(dp1032
g10
I4
sg11
(imyEvolve
Tree
p1033
(dp1034
g10
I3
sg11
(imyEvolve
Tree
p1035
(dp1036
g7
(imyEvolve
Tree
p1037
(dp1038
g10
I1
sg11
(imyEvolve
Tree
p1039
(dp1040
g10
I0
sg16
I00
sbsg20
(imyEvolve
Tree
p1041
(dp1042
g10
I0
sg16
I00
sbsg17
I00
sg18
g56
sbsg10
I2
sg17
I01
sg18
g19
sbsg20
(imyEvolve
Tree
p1043
(dp1044
g7
(imyEvolve
Tree
p1045
(dp1046
g7
(imyEvolve
Tree
p1047
(dp1048
g10
I0
sg46
F4.417859988301416
sg16
I01
sbsg10
I1
sg17
I01
sg18
g19
sbsg10
I2
sg17
I01
sg18
g33
sbsg17
I00
sg18
g63
sbsg20
(imyEvolve
Tree
p1049
(dp1050
g10
I3
sg11
(imyEvolve
Tree
p1051
(dp1052
g10
I2
sg11
(imyEvolve
Tree
p1053
(dp1054
g10
I1
sg11
(imyEvolve
Tree
p1055
(dp1056
g10
I0
sg16
I00
sbsg20
(imyEvolve
Tree
p1057
(dp1058
g10
I0
sg16
I00
sbsg17
I00
sg18
g63
sbsg20
(imyEvolve
Tree
p1059
(dp1060
g10
I1
sg11
(imyEvolve
Tree
p1061
(dp1062
g10
I0
sg46
F4.177463903370212
sg16
I01
sbsg20
(imyEvolve
Tree
p1063
(dp1064
g10
I0
sg16
I00
sbsg17
I00
sg18
g56
sbsg17
I00
sg18
g56
sbsg20
(imyEvolve
Tree
p1065
(dp1066
g7
(imyEvolve
Tree
p1067
(dp1068
g7
(imyEvolve
Tree
p1069
(dp1070
g10
I0
sg16
I00
sbsg10
I1
sg17
I01
sg18
g47
sbsg10
I2
sg17
I01
sg18
g26
sbsg17
I00
sg18
g56
sbsg17
I00
sg18
g56
sbsg20
(imyEvolve
Tree
p1071
(dp1072
g7
(imyEvolve
Tree
p1073
(dp1074
g10
I3
sg11
(imyEvolve
Tree
p1075
(dp1076
g10
I2
sg11
(imyEvolve
Tree
p1077
(dp1078
g10
I1
sg11
(imyEvolve
Tree
p1079
(dp1080
g10
I0
sg46
F0.35601033228857304
sg16
I01
sbsg20
(imyEvolve
Tree
p1081
(dp1082
g10
I0
sg16
I00
sbsg17
I00
sg18
g63
sbsg20
(imyEvolve
Tree
p1083
(dp1084
g10
I1
sg11
(imyEvolve
Tree
p1085
(dp1086
g10
I0
sg16
I00
sbsg20
(imyEvolve
Tree
p1087
(dp1088
g10
I0
sg16
I00
sbsg17
I00
sg18
g25
sbsg17
I00
sg18
g63
sbsg20
(imyEvolve
Tree
p1089
(dp1090
g10
I2
sg11
(imyEvolve
Tree
p1091
(dp1092
g10
I1
sg11
(imyEvolve
Tree
p1093
(dp1094
g10
I0
sg46
F4.673313412401534
sg16
I01
sbsg20
(imyEvolve
Tree
p1095
(dp1096
g10
I0
sg46
F-4.474634935588804
sg16
I01
sbsg17
I00
sg18
g25
sbsg20
(imyEvolve
Tree
p1097
(dp1098
g10
I1
sg11
(imyEvolve
Tree
p1099
(dp1100
g10
I0
sg16
I00
sbsg20
(imyEvolve
Tree
p1101
(dp1102
g10
I0
sg16
I00
sbsg17
I00
sg18
g25
sbsg17
I00
sg18
g25
sbsg17
I00
sg18
g56
sbsg10
I4
sg17
I01
sg18
g26
sbsg17
I00
sg18
g25
sba(imyEvolve
Tree
p1103
(dp1104
g10
I5
sg11
(imyEvolve
Tree
p1105
(dp1106
g7
(imyEvolve
Tree
p1107
(dp1108
g7
(imyEvolve
Tree
p1109
(dp1110
g7
(imyEvolve
Tree
p1111
(dp1112
g7
(imyEvolve
Tree
p1113
(dp1114
g10
I0
sg46
F3.4590490857640503
sg16
I01
sbsg10
I1
sg17
I01
sg18
g47
sbsg10
I2
sg17
I01
sg18
g26
sbsg10
I3
sg17
I01
sg18
g33
sbsg10
I4
sg17
I01
sg18
g33
sbsg20
(imyEvolve
Tree
p1115
(dp1116
g7
(imyEvolve
Tree
p1117
(dp1118
g10
I3
sg11
(imyEvolve
Tree
p1119
(dp1120
g10
I2
sg11
(imyEvolve
Tree
p1121
(dp1122
g7
(imyEvolve
Tree
p1123
(dp1124
g10
I0
sg16
I00
sbsg10
I1
sg17
I01
sg18
g47
sbsg20
(imyEvolve
Tree
p1125
(dp1126
g7
(imyEvolve
Tree
p1127
(dp1128
g10
I0
sg46
F-3.2766917544383145
sg16
I01
sbsg10
I1
sg17
I01
sg18
g26
sbsg17
I00
sg18
g63
sbsg20
(imyEvolve
Tree
p1129
(dp1130
g7
(imyEvolve
Tree
p1131
(dp1132
g7
(imyEvolve
Tree
p1133
(dp1134
g10
I0
sg16
I00
sbsg10
I1
sg17
I01
sg18
g33
sbsg10
I2
sg17
I01
sg18
g19
sbsg17
I00
sg18
g56
sbsg10
I4
sg17
I01
sg18
g19
sbsg17
I00
sg18
g25
sba(imyEvolve
Tree
p1135
(dp1136
g7
(imyEvolve
Tree
p1137
(dp1138
g10
I4
sg11
(imyEvolve
Tree
p1139
(dp1140
g7
(imyEvolve
Tree
p1141
(dp1142
g10
I2
sg11
(imyEvolve
Tree
p1143
(dp1144
g10
I1
sg11
(imyEvolve
Tree
p1145
(dp1146
g10
I0
sg46
F0.6463700551772629
sg16
I01
sbsg20
(imyEvolve
Tree
p1147
(dp1148
g10
I0
sg16
I00
sbsg17
I00
sg18
g63
sbsg20
(imyEvolve
Tree
p1149
(dp1150
g10
I1
sg11
(imyEvolve
Tree
p1151
(dp1152
g10
I0
sg16
I00
sbsg20
(imyEvolve
Tree
p1153
(dp1154
g10
I0
sg16
I00
sbsg17
I00
sg18
g25
sbsg17
I00
sg18
g56
sbsg10
I3
sg17
I01
sg18
g47
sbsg20
(imyEvolve
Tree
p1155
(dp1156
g10
I3
sg11
(imyEvolve
Tree
p1157
(dp1158
g10
I2
sg11
(imyEvolve
Tree
p1159
(dp1160
g7
(imyEvolve
Tree
p1161
(dp1162
g10
I0
sg46
F-1.887189186177125
sg16
I01
sbsg10
I1
sg17
I01
sg18
g26
sbsg20
(imyEvolve
Tree
p1163
(dp1164
g10
I1
sg11
(imyEvolve
Tree
p1165
(dp1166
g10
I0
sg16
I00
sbsg20
(imyEvolve
Tree
p1167
(dp1168
g10
I0
sg16
I00
sbsg17
I00
sg18
g63
sbsg17
I00
sg18
g56
sbsg20
(imyEvolve
Tree
p1169
(dp1170
g7
(imyEvolve
Tree
p1171
(dp1172
g10
I1
sg11
(imyEvolve
Tree
p1173
(dp1174
g10
I0
sg46
F0.5290609848920891
sg16
I01
sbsg20
(imyEvolve
Tree
p1175
(dp1176
g10
I0
sg46
F-2.755288507703908
sg16
I01
sbsg17
I00
sg18
g56
sbsg10
I2
sg17
I01
sg18
g26
sbsg17
I00
sg18
g56
sbsg17
I00
sg18
g56
sbsg10
I5
sg17
I01
sg18
g26
sba(imyEvolve
Tree
p1177
(dp1178
g7
(imyEvolve
Tree
p1179
(dp1180
g10
I1
sg11
(imyEvolve
Tree
p1181
(dp1182
g10
I0
sg46
F-3.2987044833256087
sg16
I01
sbsg20
(imyEvolve
Tree
p1183
(dp1184
g10
I0
sg16
I00
sbsg17
I00
sg18
g63
sbsg10
I2
sg17
I01
sg18
g33
sbaasS'weightSharing'
p1185
(lp1186
I01
aI00
asS'fitnessValid'
p1187
I00
sS'fitness'
p1188
cnumpy.core.multiarray
scalar
p1189
(cnumpy
dtype
p1190
(S'f8'
p1191
I0
I1
tp1192
Rp1193
(I3
S'<'
p1194
NNNI-1
I-1
I0
tp1195
bS' \xc7\xba8GQ\x97\xbf'
p1196
tp1197
Rp1198
sS'alpha'
p1199
F0.004061949700419752
sS'resolution'
p1200
I83
sb.