(imyEvolve
Individual
p0
(dp1
S'funcs'
p2
(lp3
(lp4
(imyEvolve
Tree
p5
(dp6
S'left'
p7
(imyEvolve
Tree
p8
(dp9
S'below'
p10
(imyEvolve
Tree
p11
(dp12
g10
(imyEvolve
Tree
p13
(dp14
g10
(imyEvolve
Tree
p15
(dp16
S'depth'
p17
I0
sS'constant'
p18
F2.7867354145230667
sS'isConstant'
p19
I01
sbsg17
I1
sS'single'
p20
I01
sS'op'
p21
cmath
cos
p22
sbsg17
I2
sg20
I01
sg21
cmyEvolve
square
p23
sbsg17
I3
sg20
I01
sg21
g23
sbsg17
I4
sS'right'
p24
(imyEvolve
Tree
p25
(dp26
g7
(imyEvolve
Tree
p27
(dp28
g10
(imyEvolve
Tree
p29
(dp30
g10
(imyEvolve
Tree
p31
(dp32
g17
I0
sg18
F-1.777116949784583
sg19
I01
sbsg17
I1
sg20
I01
sg21
cmath
sin
p33
sbsg17
I2
sg20
I01
sg21
g33
sbsg17
I3
sg24
(imyEvolve
Tree
p34
(dp35
g10
(imyEvolve
Tree
p36
(dp37
g7
(imyEvolve
Tree
p38
(dp39
g17
I0
sg18
F2.3026721170063347
sg19
I01
sbsg17
I1
sg24
(imyEvolve
Tree
p40
(dp41
g17
I0
sg19
I00
sbsg20
I00
sg21
coperator
sub
p42
sbsg17
I2
sg20
I01
sg21
g23
sbsg20
I00
sg21
g42
sbsg20
I00
sg21
coperator
mul
p43
sba(imyEvolve
Tree
p44
(dp45
g10
(imyEvolve
Tree
p46
(dp47
g7
(imyEvolve
Tree
p48
(dp49
g10
(imyEvolve
Tree
p50
(dp51
g7
(imyEvolve
Tree
p52
(dp53
g17
I0
sg19
I00
sbsg17
I1
sg24
(imyEvolve
Tree
p54
(dp55
g17
I0
sg18
F-2.9381924687223426
sg19
I01
sbsg20
I00
sg21
coperator
add
p56
sbsg17
I2
sg20
I01
sg21
cmyEvolve
absSqrt
p57
sbsg17
I3
sg24
(imyEvolve
Tree
p58
(dp59
g7
(imyEvolve
Tree
p60
(dp61
g7
(imyEvolve
Tree
p62
(dp63
g17
I0
sg19
I00
sbsg17
I1
sg24
(imyEvolve
Tree
p64
(dp65
g17
I0
sg18
F-3.2630981291832994
sg19
I01
sbsg20
I00
sg21
g43
sbsg17
I2
sg24
(imyEvolve
Tree
p66
(dp67
g10
(imyEvolve
Tree
p68
(dp69
g17
I0
sg18
F4.503871533589578
sg19
I01
sbsg17
I1
sg20
I01
sg21
g57
sbsg20
I00
sg21
g43
sbsg20
I00
sg21
g42
sbsg17
I4
sg20
I01
sg21
g33
sba(imyEvolve
Tree
p70
(dp71
g10
(imyEvolve
Tree
p72
(dp73
g10
(imyEvolve
Tree
p74
(dp75
g10
(imyEvolve
Tree
p76
(dp77
g10
(imyEvolve
Tree
p78
(dp79
g17
I0
sg19
I00
sbsg17
I1
sg20
I01
sg21
g23
sbsg17
I2
sg20
I01
sg21
g57
sbsg17
I3
sg20
I01
sg21
g33
sbsg17
I4
sg20
I01
sg21
g23
sba(imyEvolve
Tree
p80
(dp81
g7
(imyEvolve
Tree
p82
(dp83
g7
(imyEvolve
Tree
p84
(dp85
g17
I0
sg19
I00
sbsg17
I1
sg24
(imyEvolve
Tree
p86
(dp87
g17
I0
sg18
F-2.2925754211799045
sg19
I01
sbsg20
I00
sg21
g56
sbsg17
I2
sg24
(imyEvolve
Tree
p88
(dp89
g7
(imyEvolve
Tree
p90
(dp91
g17
I0
sg18
F-1.7579629441638875
sg19
I01
sbsg17
I1
sg24
(imyEvolve
Tree
p92
(dp93
g17
I0
sg19
I00
sbsg20
I00
sg21
g56
sbsg20
I00
sg21
g56
sba(imyEvolve
Tree
p94
(dp95
g10
(imyEvolve
Tree
p96
(dp97
g10
(imyEvolve
Tree
p98
(dp99
g7
(imyEvolve
Tree
p100
(dp101
g7
(imyEvolve
Tree
p102
(dp103
g10
(imyEvolve
Tree
p104
(dp105
g17
I0
sg19
I00
sbsg17
I1
sg20
I01
sg21
g57
sbsg17
I2
sg24
(imyEvolve
Tree
p106
(dp107
g7
(imyEvolve
Tree
p108
(dp109
g17
I0
sg19
I00
sbsg17
I1
sg24
(imyEvolve
Tree
p110
(dp111
g17
I0
sg18
F-3.6278149255916956
sg19
I01
sbsg20
I00
sg21
g56
sbsg20
I00
sg21
g42
sbsg17
I3
sg24
(imyEvolve
Tree
p112
(dp113
g7
(imyEvolve
Tree
p114
(dp115
g7
(imyEvolve
Tree
p116
(dp117
g17
I0
sg18
F2.946853823456255
sg19
I01
sbsg17
I1
sg24
(imyEvolve
Tree
p118
(dp119
g17
I0
sg18
F0.24897250191702547
sg19
I01
sbsg20
I00
sg21
g43
sbsg17
I2
sg24
(imyEvolve
Tree
p120
(dp121
g10
(imyEvolve
Tree
p122
(dp123
g17
I0
sg19
I00
sbsg17
I1
sg20
I01
sg21
g23
sbsg20
I00
sg21
g43
sbsg20
I00
sg21
g42
sbsg17
I4
sg20
I01
sg21
g57
sbsg17
I5
sg20
I01
sg21
g22
sba(imyEvolve
Tree
p124
(dp125
g17
I4
sg7
(imyEvolve
Tree
p126
(dp127
g10
(imyEvolve
Tree
p128
(dp129
g10
(imyEvolve
Tree
p130
(dp131
g10
(imyEvolve
Tree
p132
(dp133
g17
I0
sg19
I00
sbsg17
I1
sg20
I01
sg21
g23
sbsg17
I2
sg20
I01
sg21
g23
sbsg17
I3
sg20
I01
sg21
g57
sbsg24
(imyEvolve
Tree
p134
(dp135
g17
I3
sg7
(imyEvolve
Tree
p136
(dp137
g17
I2
sg7
(imyEvolve
Tree
p138
(dp139
g17
I1
sg7
(imyEvolve
Tree
p140
(dp141
g17
I0
sg18
F3.3739821726960546
sg19
I01
sbsg24
(imyEvolve
Tree
p142
(dp143
g17
I0
sg19
I00
sbsg20
I00
sg21
g43
sbsg24
(imyEvolve
Tree
p144
(dp145
g17
I1
sg7
(imyEvolve
Tree
p146
(dp147
g17
I0
sg18
F4.461898307073708
sg19
I01
sbsg24
(imyEvolve
Tree
p148
(dp149
g17
I0
sg18
F-4.7830715590342745
sg19
I01
sbsg20
I00
sg21
g42
sbsg20
I00
sg21
g56
sbsg24
(imyEvolve
Tree
p150
(dp151
g10
(imyEvolve
Tree
p152
(dp153
g17
I1
sg7
(imyEvolve
Tree
p154
(dp155
g17
I0
sg19
I00
sbsg24
(imyEvolve
Tree
p156
(dp157
g17
I0
sg19
I00
sbsg20
I00
sg21
g56
sbsg17
I2
sg20
I01
sg21
g23
sbsg20
I00
sg21
g42
sbsg20
I00
sg21
g56
sba(imyEvolve
Tree
p158
(dp159
g10
(imyEvolve
Tree
p160
(dp161
g10
(imyEvolve
Tree
p162
(dp163
g17
I0
sg18
F-0.9403324617953404
sg19
I01
sbsg17
I1
sg20
I01
sg21
g57
sbsg17
I2
sg20
I01
sg21
g33
sba(imyEvolve
Tree
p164
(dp165
g17
I5
sg7
(imyEvolve
Tree
p166
(dp167
g10
(imyEvolve
Tree
p168
(dp169
g17
I3
sg7
(imyEvolve
Tree
p170
(dp171
g10
(imyEvolve
Tree
p172
(dp173
g10
(imyEvolve
Tree
p174
(dp175
g17
I0
sg18
F-0.6877443013574354
sg19
I01
sbsg17
I1
sg20
I01
sg21
g57
sbsg17
I2
sg20
I01
sg21
g33
sbsg24
(imyEvolve
Tree
p176
(dp177
g10
(imyEvolve
Tree
p178
(dp179
g17
I1
sg7
(imyEvolve
Tree
p180
(dp181
g17
I0
sg18
F4.457818873843097
sg19
I01
sbsg24
(imyEvolve
Tree
p182
(dp183
g17
I0
sg19
I00
sbsg20
I00
sg21
g56
sbsg17
I2
sg20
I01
sg21
g23
sbsg20
I00
sg21
g56
sbsg17
I4
sg20
I01
sg21
g57
sbsg24
(imyEvolve
Tree
p184
(dp185
g17
I4
sg7
(imyEvolve
Tree
p186
(dp187
g17
I3
sg7
(imyEvolve
Tree
p188
(dp189
g17
I2
sg7
(imyEvolve
Tree
p190
(dp191
g10
(imyEvolve
Tree
p192
(dp193
g17
I0
sg18
F-0.6476030796506098
sg19
I01
sbsg17
I1
sg20
I01
sg21
g57
sbsg24
(imyEvolve
Tree
p194
(dp195
g10
(imyEvolve
Tree
p196
(dp197
g17
I0
sg19
I00
sbsg17
I1
sg20
I01
sg21
g33
sbsg20
I00
sg21
g43
sbsg24
(imyEvolve
Tree
p198
(dp199
g10
(imyEvolve
Tree
p200
(dp201
g10
(imyEvolve
Tree
p202
(dp203
g17
I0
sg19
I00
sbsg17
I1
sg20
I01
sg21
g57
sbsg17
I2
sg20
I01
sg21
g23
sbsg20
I00
sg21
g42
sbsg24
(imyEvolve
Tree
p204
(dp205
g17
I3
sg7
(imyEvolve
Tree
p206
(dp207
g10
(imyEvolve
Tree
p208
(dp209
g17
I1
sg7
(imyEvolve
Tree
p210
(dp211
g17
I0
sg19
I00
sbsg24
(imyEvolve
Tree
p212
(dp213
g17
I0
sg19
I00
sbsg20
I00
sg21
g43
sbsg17
I2
sg20
I01
sg21
g23
sbsg24
(imyEvolve
Tree
p214
(dp215
g10
(imyEvolve
Tree
p216
(dp217
g10
(imyEvolve
Tree
p218
(dp219
g17
I0
sg18
F-4.701568912345076
sg19
I01
sbsg17
I1
sg20
I01
sg21
g23
sbsg17
I2
sg20
I01
sg21
g22
sbsg20
I00
sg21
g56
sbsg20
I00
sg21
g42
sbsg20
I00
sg21
g56
sba(imyEvolve
Tree
p220
(dp221
g10
(imyEvolve
Tree
p222
(dp223
g7
(imyEvolve
Tree
p224
(dp225
g17
I0
sg18
F2.6926617232902217
sg19
I01
sbsg17
I1
sg24
(imyEvolve
Tree
p226
(dp227
g17
I0
sg18
F-4.572341640681811
sg19
I01
sbsg20
I00
sg21
g42
sbsg17
I2
sg20
I01
sg21
g23
sba(imyEvolve
Tree
p228
(dp229
g10
(imyEvolve
Tree
p230
(dp231
g10
(imyEvolve
Tree
p232
(dp233
g7
(imyEvolve
Tree
p234
(dp235
g7
(imyEvolve
Tree
p236
(dp237
g17
I0
sg18
F-1.8543753197426383
sg19
I01
sbsg17
I1
sg24
(imyEvolve
Tree
p238
(dp239
g17
I0
sg18
F-4.460626241498259
sg19
I01
sbsg20
I00
sg21
g56
sbsg17
I2
sg24
(imyEvolve
Tree
p240
(dp241
g10
(imyEvolve
Tree
p242
(dp243
g17
I0
sg19
I00
sbsg17
I1
sg20
I01
sg21
g33
sbsg20
I00
sg21
g56
sbsg17
I3
sg20
I01
sg21
g23
sbsg17
I4
sg20
I01
sg21
g23
sba(imyEvolve
Tree
p244
(dp245
g7
(imyEvolve
Tree
p246
(dp247
g10
(imyEvolve
Tree
p248
(dp249
g10
(imyEvolve
Tree
p250
(dp251
g17
I0
sg18
F-3.0543762612069503
sg19
I01
sbsg17
I1
sg20
I01
sg21
g22
sbsg17
I2
sg20
I01
sg21
g57
sbsg17
I3
sg24
(imyEvolve
Tree
p252
(dp253
g10
(imyEvolve
Tree
p254
(dp255
g7
(imyEvolve
Tree
p256
(dp257
g17
I0
sg18
F4.1174977866222005
sg19
I01
sbsg17
I1
sg24
(imyEvolve
Tree
p258
(dp259
g17
I0
sg19
I00
sbsg20
I00
sg21
g42
sbsg17
I2
sg20
I01
sg21
g22
sbsg20
I00
sg21
g42
sba(imyEvolve
Tree
p260
(dp261
g10
(imyEvolve
Tree
p262
(dp263
g10
(imyEvolve
Tree
p264
(dp265
g17
I0
sg19
I00
sbsg17
I1
sg20
I01
sg21
g33
sbsg17
I2
sg20
I01
sg21
g57
sba(imyEvolve
Tree
p266
(dp267
g10
(imyEvolve
Tree
p268
(dp269
g7
(imyEvolve
Tree
p270
(dp271
g10
(imyEvolve
Tree
p272
(dp273
g7
(imyEvolve
Tree
p274
(dp275
g17
I0
sg19
I00
sbsg17
I1
sg24
(imyEvolve
Tree
p276
(dp277
g17
I0
sg18
F-0.5314247984387972
sg19
I01
sbsg20
I00
sg21
g56
sbsg17
I2
sg20
I01
sg21
g23
sbsg17
I3
sg24
(imyEvolve
Tree
p278
(dp279
g7
(imyEvolve
Tree
p280
(dp281
g10
(imyEvolve
Tree
p282
(dp283
g17
I0
sg19
I00
sbsg17
I1
sg20
I01
sg21
g23
sbsg17
I2
sg24
(imyEvolve
Tree
p284
(dp285
g7
(imyEvolve
Tree
p286
(dp287
g17
I0
sg19
I00
sbsg17
I1
sg24
(imyEvolve
Tree
p288
(dp289
g17
I0
sg18
F0.5559625963953287
sg19
I01
sbsg20
I00
sg21
g42
sbsg20
I00
sg21
g42
sbsg20
I00
sg21
g42
sbsg17
I4
sg20
I01
sg21
g57
sba(imyEvolve
Tree
p290
(dp291
g17
I3
sg7
(imyEvolve
Tree
p292
(dp293
g17
I2
sg7
(imyEvolve
Tree
p294
(dp295
g17
I1
sg7
(imyEvolve
Tree
p296
(dp297
g17
I0
sg19
I00
sbsg24
(imyEvolve
Tree
p298
(dp299
g17
I0
sg19
I00
sbsg20
I00
sg21
g43
sbsg24
(imyEvolve
Tree
p300
(dp301
g10
(imyEvolve
Tree
p302
(dp303
g17
I0
sg18
F-3.4616893662784367
sg19
I01
sbsg17
I1
sg20
I01
sg21
g33
sbsg20
I00
sg21
g42
sbsg24
(imyEvolve
Tree
p304
(dp305
g10
(imyEvolve
Tree
p306
(dp307
g10
(imyEvolve
Tree
p308
(dp309
g17
I0
sg19
I00
sbsg17
I1
sg20
I01
sg21
g22
sbsg17
I2
sg20
I01
sg21
g23
sbsg20
I00
sg21
g56
sba(imyEvolve
Tree
p310
(dp311
g7
(imyEvolve
Tree
p312
(dp313
g7
(imyEvolve
Tree
p314
(dp315
g17
I0
sg19
I00
sbsg17
I1
sg24
(imyEvolve
Tree
p316
(dp317
g17
I0
sg18
F0.5652147425077692
sg19
I01
sbsg20
I00
sg21
g56
sbsg17
I2
sg24
(imyEvolve
Tree
p318
(dp319
g7
(imyEvolve
Tree
p320
(dp321
g17
I0
sg19
I00
sbsg17
I1
sg24
(imyEvolve
Tree
p322
(dp323
g17
I0
sg19
I00
sbsg20
I00
sg21
g42
sbsg20
I00
sg21
g56
sba(imyEvolve
Tree
p324
(dp325
g10
(imyEvolve
Tree
p326
(dp327
g7
(imyEvolve
Tree
p328
(dp329
g10
(imyEvolve
Tree
p330
(dp331
g7
(imyEvolve
Tree
p332
(dp333
g10
(imyEvolve
Tree
p334
(dp335
g17
I0
sg18
F-2.7242486135304578
sg19
I01
sbsg17
I1
sg20
I01
sg21
g23
sbsg17
I2
sg24
(imyEvolve
Tree
p336
(dp337
g7
(imyEvolve
Tree
p338
(dp339
g17
I0
sg18
F1.5985790411431129
sg19
I01
sbsg17
I1
sg24
(imyEvolve
Tree
p340
(dp341
g17
I0
sg18
F-1.2222975064129713
sg19
I01
sbsg20
I00
sg21
g42
sbsg20
I00
sg21
g56
sbsg17
I3
sg20
I01
sg21
g23
sbsg17
I4
sg24
(imyEvolve
Tree
p342
(dp343
g10
(imyEvolve
Tree
p344
(dp345
g7
(imyEvolve
Tree
p346
(dp347
g7
(imyEvolve
Tree
p348
(dp349
g17
I0
sg19
I00
sbsg17
I1
sg24
(imyEvolve
Tree
p350
(dp351
g17
I0
sg18
F-3.9996517532675524
sg19
I01
sbsg20
I00
sg21
g43
sbsg17
I2
sg24
(imyEvolve
Tree
p352
(dp353
g7
(imyEvolve
Tree
p354
(dp355
g17
I0
sg18
F-0.30244116444470226
sg19
I01
sbsg17
I1
sg24
(imyEvolve
Tree
p356
(dp357
g17
I0
sg19
I00
sbsg20
I00
sg21
g43
sbsg20
I00
sg21
g56
sbsg17
I3
sg20
I01
sg21
g22
sbsg20
I00
sg21
g56
sbsg17
I5
sg20
I01
sg21
g33
sba(imyEvolve
Tree
p358
(dp359
g17
I5
sg7
(imyEvolve
Tree
p360
(dp361
g17
I4
sg7
(imyEvolve
Tree
p362
(dp363
g10
(imyEvolve
Tree
p364
(dp365
g17
I2
sg7
(imyEvolve
Tree
p366
(dp367
g17
I1
sg7
(imyEvolve
Tree
p368
(dp369
g17
I0
sg18
F3.375689860049972
sg19
I01
sbsg24
(imyEvolve
Tree
p370
(dp371
g17
I0
sg19
I00
sbsg20
I00
sg21
g56
sbsg24
(imyEvolve
Tree
p372
(dp373
g17
I1
sg7
(imyEvolve
Tree
p374
(dp375
g17
I0
sg18
F2.5168918030376064
sg19
I01
sbsg24
(imyEvolve
Tree
p376
(dp377
g17
I0
sg19
I00
sbsg20
I00
sg21
g56
sbsg20
I00
sg21
g43
sbsg17
I3
sg20
I01
sg21
g23
sbsg24
(imyEvolve
Tree
p378
(dp379
g17
I3
sg7
(imyEvolve
Tree
p380
(dp381
g10
(imyEvolve
Tree
p382
(dp383
g10
(imyEvolve
Tree
p384
(dp385
g17
I0
sg19
I00
sbsg17
I1
sg20
I01
sg21
g33
sbsg17
I2
sg20
I01
sg21
g33
sbsg24
(imyEvolve
Tree
p386
(dp387
g17
I2
sg7
(imyEvolve
Tree
p388
(dp389
g17
I1
sg7
(imyEvolve
Tree
p390
(dp391
g17
I0
sg19
I00
sbsg24
(imyEvolve
Tree
p392
(dp393
g17
I0
sg19
I00
sbsg20
I00
sg21
g56
sbsg24
(imyEvolve
Tree
p394
(dp395
g17
I1
sg7
(imyEvolve
Tree
p396
(dp397
g17
I0
sg18
F-4.256902023449198
sg19
I01
sbsg24
(imyEvolve
Tree
p398
(dp399
g17
I0
sg19
I00
sbsg20
I00
sg21
g42
sbsg20
I00
sg21
g43
sbsg20
I00
sg21
g42
sbsg20
I00
sg21
g42
sbsg24
(imyEvolve
Tree
p400
(dp401
g10
(imyEvolve
Tree
p402
(dp403
g10
(imyEvolve
Tree
p404
(dp405
g10
(imyEvolve
Tree
p406
(dp407
g10
(imyEvolve
Tree
p408
(dp409
g17
I0
sg18
F-2.591727203565364
sg19
I01
sbsg17
I1
sg20
I01
sg21
g33
sbsg17
I2
sg20
I01
sg21
g57
sbsg17
I3
sg20
I01
sg21
g33
sbsg17
I4
sg20
I01
sg21
g22
sbsg20
I00
sg21
g43
sbaa(lp410
(imyEvolve
Tree
p411
(dp412
g10
(imyEvolve
Tree
p413
(dp414
g17
I3
sg7
(imyEvolve
Tree
p415
(dp416
g17
I2
sg7
(imyEvolve
Tree
p417
(dp418
g17
I1
sg7
(imyEvolve
Tree
p419
(dp420
g17
I0
sg18
F4.319383797153439
sg19
I01
sbsg24
(imyEvolve
Tree
p421
(dp422
g17
I0
sg19
I00
sbsg20
I00
sg21
g43
sbsg24
(imyEvolve
Tree
p423
(dp424
g17
I1
sg7
(imyEvolve
Tree
p425
(dp426
g17
I0
sg18
F3.3654452658384013
sg19
I01
sbsg24
(imyEvolve
Tree
p427
(dp428
g17
I0
sg18
F-0.5351922118465167
sg19
I01
sbsg20
I00
sg21
g56
sbsg20
I00
sg21
g42
sbsg24
(imyEvolve
Tree
p429
(dp430
g17
I2
sg7
(imyEvolve
Tree
p431
(dp432
g10
(imyEvolve
Tree
p433
(dp434
g17
I0
sg19
I00
sbsg17
I1
sg20
I01
sg21
g57
sbsg24
(imyEvolve
Tree
p435
(dp436
g17
I1
sg7
(imyEvolve
Tree
p437
(dp438
g17
I0
sg19
I00
sbsg24
(imyEvolve
Tree
p439
(dp440
g17
I0
sg18
F4.968083008366747
sg19
I01
sbsg20
I00
sg21
g56
sbsg20
I00
sg21
g56
sbsg20
I00
sg21
g43
sbsg17
I4
sg20
I01
sg21
g22
sba(imyEvolve
Tree
p441
(dp442
g7
(imyEvolve
Tree
p443
(dp444
g10
(imyEvolve
Tree
p445
(dp446
g17
I0
sg18
F-0.5147510905500576
sg19
I01
sbsg17
I1
sg20
I01
sg21
g23
sbsg17
I2
sg24
(imyEvolve
Tree
p447
(dp448
g10
(imyEvolve
Tree
p449
(dp450
g17
I0
sg18
F-2.6558443641875726
sg19
I01
sbsg17
I1
sg20
I01
sg21
g22
sbsg20
I00
sg21
g56
sba(imyEvolve
Tree
p451
(dp452
g7
(imyEvolve
Tree
p453
(dp454
g7
(imyEvolve
Tree
p455
(dp456
g7
(imyEvolve
Tree
p457
(dp458
g17
I0
sg19
I00
sbsg17
I1
sg24
(imyEvolve
Tree
p459
(dp460
g17
I0
sg19
I00
sbsg20
I00
sg21
g42
sbsg17
I2
sg24
(imyEvolve
Tree
p461
(dp462
g7
(imyEvolve
Tree
p463
(dp464
g17
I0
sg19
I00
sbsg17
I1
sg24
(imyEvolve
Tree
p465
(dp466
g17
I0
sg18
F-3.7822111859558016
sg19
I01
sbsg20
I00
sg21
g43
sbsg20
I00
sg21
g42
sbsg17
I3
sg24
(imyEvolve
Tree
p467
(dp468
g10
(imyEvolve
Tree
p469
(dp470
g10
(imyEvolve
Tree
p471
(dp472
g17
I0
sg19
I00
sbsg17
I1
sg20
I01
sg21
g22
sbsg17
I2
sg20
I01
sg21
g23
sbsg20
I00
sg21
g42
sba(imyEvolve
Tree
p473
(dp474
g10
(imyEvolve
Tree
p475
(dp476
g10
(imyEvolve
Tree
p477
(dp478
g17
I0
sg18
F-1.7372898852877352
sg19
I01
sbsg17
I1
sg20
I01
sg21
g22
sbsg17
I2
sg20
I01
sg21
g57
sba(imyEvolve
Tree
p479
(dp480
g7
(imyEvolve
Tree
p481
(dp482
g7
(imyEvolve
Tree
p483
(dp484
g10
(imyEvolve
Tree
p485
(dp486
g7
(imyEvolve
Tree
p487
(dp488
g17
I0
sg18
F0.9565475334497258
sg19
I01
sbsg17
I1
sg24
(imyEvolve
Tree
p489
(dp490
g17
I0
sg19
I00
sbsg20
I00
sg21
g42
sbsg17
I2
sg20
I01
sg21
g33
sbsg17
I3
sg24
(imyEvolve
Tree
p491
(dp492
g7
(imyEvolve
Tree
p493
(dp494
g10
(imyEvolve
Tree
p495
(dp496
g17
I0
sg18
F-3.5581440243680884
sg19
I01
sbsg17
I1
sg20
I01
sg21
g33
sbsg17
I2
sg24
(imyEvolve
Tree
p497
(dp498
g10
(imyEvolve
Tree
p499
(dp500
g17
I0
sg19
I00
sbsg17
I1
sg20
I01
sg21
g33
sbsg20
I00
sg21
g56
sbsg20
I00
sg21
g43
sbsg17
I4
sg24
(imyEvolve
Tree
p501
(dp502
g7
(imyEvolve
Tree
p503
(dp504
g7
(imyEvolve
Tree
p505
(dp506
g7
(imyEvolve
Tree
p507
(dp508
g17
I0
sg19
I00
sbsg17
I1
sg24
(imyEvolve
Tree
p509
(dp510
g17
I0
sg19
I00
sbsg20
I00
sg21
g56
sbsg17
I2
sg24
(imyEvolve
Tree
p511
(dp512
g7
(imyEvolve
Tree
p513
(dp514
g17
I0
sg19
I00
sbsg17
I1
sg24
(imyEvolve
Tree
p515
(dp516
g17
I0
sg18
F3.3090298155275004
sg19
I01
sbsg20
I00
sg21
g56
sbsg20
I00
sg21
g56
sbsg17
I3
sg24
(imyEvolve
Tree
p517
(dp518
g7
(imyEvolve
Tree
p519
(dp520
g7
(imyEvolve
Tree
p521
(dp522
g17
I0
sg18
F4.309123646843206
sg19
I01
sbsg17
I1
sg24
(imyEvolve
Tree
p523
(dp524
g17
I0
sg19
I00
sbsg20
I00
sg21
g56
sbsg17
I2
sg24
(imyEvolve
Tree
p525
(dp526
g7
(imyEvolve
Tree
p527
(dp528
g17
I0
sg19
I00
sbsg17
I1
sg24
(imyEvolve
Tree
p529
(dp530
g17
I0
sg18
F3.235093321267369
sg19
I01
sbsg20
I00
sg21
g56
sbsg20
I00
sg21
g56
sbsg20
I00
sg21
g56
sbsg20
I00
sg21
g43
sba(imyEvolve
Tree
p531
(dp532
g10
(imyEvolve
Tree
p533
(dp534
g17
I2
sg7
(imyEvolve
Tree
p535
(dp536
g10
(imyEvolve
Tree
p537
(dp538
g17
I0
sg19
I00
sbsg17
I1
sg20
I01
sg21
g33
sbsg24
(imyEvolve
Tree
p539
(dp540
g17
I1
sg7
(imyEvolve
Tree
p541
(dp542
g17
I0
sg19
I00
sbsg24
(imyEvolve
Tree
p543
(dp544
g17
I0
sg19
I00
sbsg20
I00
sg21
g43
sbsg20
I00
sg21
g43
sbsg17
I3
sg20
I01
sg21
g57
sba(imyEvolve
Tree
p545
(dp546
g10
(imyEvolve
Tree
p547
(dp548
g10
(imyEvolve
Tree
p549
(dp550
g7
(imyEvolve
Tree
p551
(dp552
g7
(imyEvolve
Tree
p553
(dp554
g17
I0
sg18
F-2.137667433961922
sg19
I01
sbsg17
I1
sg24
(imyEvolve
Tree
p555
(dp556
g17
I0
sg19
I00
sbsg20
I00
sg21
g42
sbsg17
I2
sg24
(imyEvolve
Tree
p557
(dp558
g10
(imyEvolve
Tree
p559
(dp560
g17
I0
sg19
I00
sbsg17
I1
sg20
I01
sg21
g33
sbsg20
I00
sg21
g42
sbsg17
I3
sg20
I01
sg21
g23
sbsg17
I4
sg20
I01
sg21
g57
sba(imyEvolve
Tree
p561
(dp562
g7
(imyEvolve
Tree
p563
(dp564
g7
(imyEvolve
Tree
p565
(dp566
g17
I0
sg18
F-3.8455145590888415
sg19
I01
sbsg17
I1
sg24
(imyEvolve
Tree
p567
(dp568
g17
I0
sg18
F2.516194924136218
sg19
I01
sbsg20
I00
sg21
g56
sbsg17
I2
sg24
(imyEvolve
Tree
p569
(dp570
g10
(imyEvolve
Tree
p571
(dp572
g17
I0
sg19
I00
sbsg17
I1
sg20
I01
sg21
g33
sbsg20
I00
sg21
g43
sba(imyEvolve
Tree
p573
(dp574
g10
(imyEvolve
Tree
p575
(dp576
g7
(imyEvolve
Tree
p577
(dp578
g10
(imyEvolve
Tree
p579
(dp580
g7
(imyEvolve
Tree
p581
(dp582
g17
I0
sg18
F2.0404039120947477
sg19
I01
sbsg17
I1
sg24
(imyEvolve
Tree
p583
(dp584
g17
I0
sg19
I00
sbsg20
I00
sg21
g56
sbsg17
I2
sg20
I01
sg21
g23
sbsg17
I3
sg24
(imyEvolve
Tree
p585
(dp586
g10
(imyEvolve
Tree
p587
(dp588
g7
(imyEvolve
Tree
p589
(dp590
g17
I0
sg19
I00
sbsg17
I1
sg24
(imyEvolve
Tree
p591
(dp592
g17
I0
sg19
I00
sbsg20
I00
sg21
g43
sbsg17
I2
sg20
I01
sg21
g57
sbsg20
I00
sg21
g56
sbsg17
I4
sg20
I01
sg21
g23
sba(imyEvolve
Tree
p593
(dp594
g10
(imyEvolve
Tree
p595
(dp596
g7
(imyEvolve
Tree
p597
(dp598
g7
(imyEvolve
Tree
p599
(dp600
g17
I0
sg19
I00
sbsg17
I1
sg24
(imyEvolve
Tree
p601
(dp602
g17
I0
sg19
I00
sbsg20
I00
sg21
g43
sbsg17
I2
sg24
(imyEvolve
Tree
p603
(dp604
g7
(imyEvolve
Tree
p605
(dp606
g17
I0
sg18
F2.857663730263978
sg19
I01
sbsg17
I1
sg24
(imyEvolve
Tree
p607
(dp608
g17
I0
sg19
I00
sbsg20
I00
sg21
g56
sbsg20
I00
sg21
g43
sbsg17
I3
sg20
I01
sg21
g57
sba(imyEvolve
Tree
p609
(dp610
g7
(imyEvolve
Tree
p611
(dp612
g7
(imyEvolve
Tree
p613
(dp614
g17
I0
sg19
I00
sbsg17
I1
sg24
(imyEvolve
Tree
p615
(dp616
g17
I0
sg19
I00
sbsg20
I00
sg21
g43
sbsg17
I2
sg24
(imyEvolve
Tree
p617
(dp618
g10
(imyEvolve
Tree
p619
(dp620
g17
I0
sg18
F3.512412084437541
sg19
I01
sbsg17
I1
sg20
I01
sg21
g23
sbsg20
I00
sg21
g42
sba(imyEvolve
Tree
p621
(dp622
g10
(imyEvolve
Tree
p623
(dp624
g7
(imyEvolve
Tree
p625
(dp626
g7
(imyEvolve
Tree
p627
(dp628
g7
(imyEvolve
Tree
p629
(dp630
g17
I0
sg19
I00
sbsg17
I1
sg24
(imyEvolve
Tree
p631
(dp632
g17
I0
sg19
I00
sbsg20
I00
sg21
g43
sbsg17
I2
sg24
(imyEvolve
Tree
p633
(dp634
g10
(imyEvolve
Tree
p635
(dp636
g17
I0
sg18
F-3.8329573267585637
sg19
I01
sbsg17
I1
sg20
I01
sg21
g33
sbsg20
I00
sg21
g42
sbsg17
I3
sg24
(imyEvolve
Tree
p637
(dp638
g7
(imyEvolve
Tree
p639
(dp640
g7
(imyEvolve
Tree
p641
(dp642
g17
I0
sg18
F-1.8141090824516914
sg19
I01
sbsg17
I1
sg24
(imyEvolve
Tree
p643
(dp644
g17
I0
sg18
F-1.689692895622131
sg19
I01
sbsg20
I00
sg21
g56
sbsg17
I2
sg24
(imyEvolve
Tree
p645
(dp646
g7
(imyEvolve
Tree
p647
(dp648
g17
I0
sg19
I00
sbsg17
I1
sg24
(imyEvolve
Tree
p649
(dp650
g17
I0
sg18
F-0.039579292777424335
sg19
I01
sbsg20
I00
sg21
g56
sbsg20
I00
sg21
g43
sbsg20
I00
sg21
g42
sbsg17
I4
sg20
I01
sg21
g57
sba(imyEvolve
Tree
p651
(dp652
g7
(imyEvolve
Tree
p653
(dp654
g10
(imyEvolve
Tree
p655
(dp656
g17
I0
sg19
I00
sbsg17
I1
sg20
I01
sg21
g23
sbsg17
I2
sg24
(imyEvolve
Tree
p657
(dp658
g10
(imyEvolve
Tree
p659
(dp660
g17
I0
sg19
I00
sbsg17
I1
sg20
I01
sg21
g22
sbsg20
I00
sg21
g56
sba(imyEvolve
Tree
p661
(dp662
g10
(imyEvolve
Tree
p663
(dp664
g17
I3
sg7
(imyEvolve
Tree
p665
(dp666
g10
(imyEvolve
Tree
p667
(dp668
g10
(imyEvolve
Tree
p669
(dp670
g17
I0
sg19
I00
sbsg17
I1
sg20
I01
sg21
g57
sbsg17
I2
sg20
I01
sg21
g57
sbsg24
(imyEvolve
Tree
p671
(dp672
g10
(imyEvolve
Tree
p673
(dp674
g10
(imyEvolve
Tree
p675
(dp676
g17
I0
sg18
F2.588987099285087
sg19
I01
sbsg17
I1
sg20
I01
sg21
g23
sbsg17
I2
sg20
I01
sg21
g22
sbsg20
I00
sg21
g43
sbsg17
I4
sg20
I01
sg21
g33
sbaa(lp677
(imyEvolve
Tree
p678
(dp679
g7
(imyEvolve
Tree
p680
(dp681
g10
(imyEvolve
Tree
p682
(dp683
g10
(imyEvolve
Tree
p684
(dp685
g17
I0
sg18
F3.4041483525916654
sg19
I01
sbsg17
I1
sg20
I01
sg21
g23
sbsg17
I2
sg20
I01
sg21
g57
sbsg17
I3
sg24
(imyEvolve
Tree
p686
(dp687
g7
(imyEvolve
Tree
p688
(dp689
g10
(imyEvolve
Tree
p690
(dp691
g17
I0
sg18
F1.0582084590386263
sg19
I01
sbsg17
I1
sg20
I01
sg21
g22
sbsg17
I2
sg24
(imyEvolve
Tree
p692
(dp693
g7
(imyEvolve
Tree
p694
(dp695
g17
I0
sg18
F0.5845241663559708
sg19
I01
sbsg17
I1
sg24
(imyEvolve
Tree
p696
(dp697
g17
I0
sg18
F1.384185825850385
sg19
I01
sbsg20
I00
sg21
g42
sbsg20
I00
sg21
g43
sbsg20
I00
sg21
g43
sba(imyEvolve
Tree
p698
(dp699
g7
(imyEvolve
Tree
p700
(dp701
g10
(imyEvolve
Tree
p702
(dp703
g10
(imyEvolve
Tree
p704
(dp705
g7
(imyEvolve
Tree
p706
(dp707
g7
(imyEvolve
Tree
p708
(dp709
g17
I0
sg18
F-1.0219906376127117
sg19
I01
sbsg17
I1
sg24
(imyEvolve
Tree
p710
(dp711
g17
I0
sg18
F-0.29420054214707303
sg19
I01
sbsg20
I00
sg21
g42
sbsg17
I2
sg24
(imyEvolve
Tree
p712
(dp713
g7
(imyEvolve
Tree
p714
(dp715
g17
I0
sg19
I00
sbsg17
I1
sg24
(imyEvolve
Tree
p716
(dp717
g17
I0
sg18
F-4.4933270520412405
sg19
I01
sbsg20
I00
sg21
g42
sbsg20
I00
sg21
g42
sbsg17
I3
sg20
I01
sg21
g33
sbsg17
I4
sg20
I01
sg21
g57
sbsg17
I5
sg24
(imyEvolve
Tree
p718
(dp719
g7
(imyEvolve
Tree
p720
(dp721
g7
(imyEvolve
Tree
p722
(dp723
g7
(imyEvolve
Tree
p724
(dp725
g10
(imyEvolve
Tree
p726
(dp727
g17
I0
sg19
I00
sbsg17
I1
sg20
I01
sg21
g57
sbsg17
I2
sg24
(imyEvolve
Tree
p728
(dp729
g7
(imyEvolve
Tree
p730
(dp731
g17
I0
sg19
I00
sbsg17
I1
sg24
(imyEvolve
Tree
p732
(dp733
g17
I0
sg19
I00
sbsg20
I00
sg21
g42
sbsg20
I00
sg21
g43
sbsg17
I3
sg24
(imyEvolve
Tree
p734
(dp735
g7
(imyEvolve
Tree
p736
(dp737
g10
(imyEvolve
Tree
p738
(dp739
g17
I0
sg18
F-3.4194969181621007
sg19
I01
sbsg17
I1
sg20
I01
sg21
g22
sbsg17
I2
sg24
(imyEvolve
Tree
p740
(dp741
g10
(imyEvolve
Tree
p742
(dp743
g17
I0
sg19
I00
sbsg17
I1
sg20
I01
sg21
g57
sbsg20
I00
sg21
g42
sbsg20
I00
sg21
g42
sbsg17
I4
sg24
(imyEvolve
Tree
p744
(dp745
g7
(imyEvolve
Tree
p746
(dp747
g7
(imyEvolve
Tree
p748
(dp749
g10
(imyEvolve
Tree
p750
(dp751
g17
I0
sg18
F-1.673442536430556
sg19
I01
sbsg17
I1
sg20
I01
sg21
g33
sbsg17
I2
sg24
(imyEvolve
Tree
p752
(dp753
g10
(imyEvolve
Tree
p754
(dp755
g17
I0
sg18
F2.230397015063824
sg19
I01
sbsg17
I1
sg20
I01
sg21
g23
sbsg20
I00
sg21
g42
sbsg17
I3
sg24
(imyEvolve
Tree
p756
(dp757
g7
(imyEvolve
Tree
p758
(dp759
g7
(imyEvolve
Tree
p760
(dp761
g17
I0
sg19
I00
sbsg17
I1
sg24
(imyEvolve
Tree
p762
(dp763
g17
I0
sg18
F-2.5835363400552938
sg19
I01
sbsg20
I00
sg21
g43
sbsg17
I2
sg24
(imyEvolve
Tree
p764
(dp765
g10
(imyEvolve
Tree
p766
(dp767
g17
I0
sg19
I00
sbsg17
I1
sg20
I01
sg21
g22
sbsg20
I00
sg21
g43
sbsg20
I00
sg21
g56
sbsg20
I00
sg21
g42
sbsg20
I00
sg21
g56
sba(imyEvolve
Tree
p768
(dp769
g17
I4
sg7
(imyEvolve
Tree
p770
(dp771
g10
(imyEvolve
Tree
p772
(dp773
g10
(imyEvolve
Tree
p774
(dp775
g17
I1
sg7
(imyEvolve
Tree
p776
(dp777
g17
I0
sg18
F0.49716191873830606
sg19
I01
sbsg24
(imyEvolve
Tree
p778
(dp779
g17
I0
sg19
I00
sbsg20
I00
sg21
g43
sbsg17
I2
sg20
I01
sg21
g23
sbsg17
I3
sg20
I01
sg21
g23
sbsg24
(imyEvolve
Tree
p780
(dp781
g10
(imyEvolve
Tree
p782
(dp783
g10
(imyEvolve
Tree
p784
(dp785
g17
I1
sg7
(imyEvolve
Tree
p786
(dp787
g17
I0
sg18
F0.4724016791835943
sg19
I01
sbsg24
(imyEvolve
Tree
p788
(dp789
g17
I0
sg18
F2.553747093587864
sg19
I01
sbsg20
I00
sg21
g42
sbsg17
I2
sg20
I01
sg21
g33
sbsg17
I3
sg20
I01
sg21
g57
sbsg20
I00
sg21
g43
sba(imyEvolve
Tree
p790
(dp791
g10
(imyEvolve
Tree
p792
(dp793
g10
(imyEvolve
Tree
p794
(dp795
g10
(imyEvolve
Tree
p796
(dp797
g7
(imyEvolve
Tree
p798
(dp799
g7
(imyEvolve
Tree
p800
(dp801
g17
I0
sg19
I00
sbsg17
I1
sg24
(imyEvolve
Tree
p802
(dp803
g17
I0
sg19
I00
sbsg20
I00
sg21
g56
sbsg17
I2
sg24
(imyEvolve
Tree
p804
(dp805
g7
(imyEvolve
Tree
p806
(dp807
g17
I0
sg18
F-1.9945142511667493
sg19
I01
sbsg17
I1
sg24
(imyEvolve
Tree
p808
(dp809
g17
I0
sg19
I00
sbsg20
I00
sg21
g42
sbsg20
I00
sg21
g42
sbsg17
I3
sg20
I01
sg21
g22
sbsg17
I4
sg20
I01
sg21
g33
sbsg17
I5
sg20
I01
sg21
g57
sba(imyEvolve
Tree
p810
(dp811
g10
(imyEvolve
Tree
p812
(dp813
g7
(imyEvolve
Tree
p814
(dp815
g7
(imyEvolve
Tree
p816
(dp817
g17
I0
sg19
I00
sbsg17
I1
sg24
(imyEvolve
Tree
p818
(dp819
g17
I0
sg18
F0.6545080116686695
sg19
I01
sbsg20
I00
sg21
g42
sbsg17
I2
sg24
(imyEvolve
Tree
p820
(dp821
g7
(imyEvolve
Tree
p822
(dp823
g17
I0
sg19
I00
sbsg17
I1
sg24
(imyEvolve
Tree
p824
(dp825
g17
I0
sg18
F4.200686742985859
sg19
I01
sbsg20
I00
sg21
g42
sbsg20
I00
sg21
g42
sbsg17
I3
sg20
I01
sg21
g22
sba(imyEvolve
Tree
p826
(dp827
g7
(imyEvolve
Tree
p828
(dp829
g7
(imyEvolve
Tree
p830
(dp831
g17
I0
sg19
I00
sbsg17
I1
sg24
(imyEvolve
Tree
p832
(dp833
g17
I0
sg19
I00
sbsg20
I00
sg21
g43
sbsg17
I2
sg24
(imyEvolve
Tree
p834
(dp835
g10
(imyEvolve
Tree
p836
(dp837
g17
I0
sg18
F2.684125273075879
sg19
I01
sbsg17
I1
sg20
I01
sg21
g22
sbsg20
I00
sg21
g56
sba(imyEvolve
Tree
p838
(dp839
g10
(imyEvolve
Tree
p840
(dp841
g7
(imyEvolve
Tree
p842
(dp843
g10
(imyEvolve
Tree
p844
(dp845
g17
I0
sg19
I00
sbsg17
I1
sg20
I01
sg21
g22
sbsg17
I2
sg24
(imyEvolve
Tree
p846
(dp847
g10
(imyEvolve
Tree
p848
(dp849
g17
I0
sg18
F3.9102557848664006
sg19
I01
sbsg17
I1
sg20
I01
sg21
g57
sbsg20
I00
sg21
g56
sbsg17
I3
sg20
I01
sg21
g22
sba(imyEvolve
Tree
p850
(dp851
g10
(imyEvolve
Tree
p852
(dp853
g10
(imyEvolve
Tree
p854
(dp855
g7
(imyEvolve
Tree
p856
(dp857
g17
I0
sg18
F-3.040320738481358
sg19
I01
sbsg17
I1
sg24
(imyEvolve
Tree
p858
(dp859
g17
I0
sg19
I00
sbsg20
I00
sg21
g42
sbsg17
I2
sg20
I01
sg21
g23
sbsg17
I3
sg20
I01
sg21
g22
sba(imyEvolve
Tree
p860
(dp861
g10
(imyEvolve
Tree
p862
(dp863
g10
(imyEvolve
Tree
p864
(dp865
g10
(imyEvolve
Tree
p866
(dp867
g7
(imyEvolve
Tree
p868
(dp869
g7
(imyEvolve
Tree
p870
(dp871
g17
I0
sg19
I00
sbsg17
I1
sg24
(imyEvolve
Tree
p872
(dp873
g17
I0
sg18
F-4.894506938823971
sg19
I01
sbsg20
I00
sg21
g43
sbsg17
I2
sg24
(imyEvolve
Tree
p874
(dp875
g10
(imyEvolve
Tree
p876
(dp877
g17
I0
sg18
F0.5733957513113186
sg19
I01
sbsg17
I1
sg20
I01
sg21
g33
sbsg20
I00
sg21
g43
sbsg17
I3
sg20
I01
sg21
g23
sbsg17
I4
sg20
I01
sg21
g57
sbsg17
I5
sg20
I01
sg21
g33
sba(imyEvolve
Tree
p878
(dp879
g7
(imyEvolve
Tree
p880
(dp881
g7
(imyEvolve
Tree
p882
(dp883
g7
(imyEvolve
Tree
p884
(dp885
g10
(imyEvolve
Tree
p886
(dp887
g17
I0
sg19
I00
sbsg17
I1
sg20
I01
sg21
g22
sbsg17
I2
sg24
(imyEvolve
Tree
p888
(dp889
g7
(imyEvolve
Tree
p890
(dp891
g17
I0
sg19
I00
sbsg17
I1
sg24
(imyEvolve
Tree
p892
(dp893
g17
I0
sg18
F3.538850364472598
sg19
I01
sbsg20
I00
sg21
g43
sbsg20
I00
sg21
g56
sbsg17
I3
sg24
(imyEvolve
Tree
p894
(dp895
g10
(imyEvolve
Tree
p896
(dp897
g10
(imyEvolve
Tree
p898
(dp899
g17
I0
sg19
I00
sbsg17
I1
sg20
I01
sg21
g57
sbsg17
I2
sg20
I01
sg21
g57
sbsg20
I00
sg21
g43
sbsg17
I4
sg24
(imyEvolve
Tree
p900
(dp901
g7
(imyEvolve
Tree
p902
(dp903
g10
(imyEvolve
Tree
p904
(dp905
g10
(imyEvolve
Tree
p906
(dp907
g17
I0
sg19
I00
sbsg17
I1
sg20
I01
sg21
g22
sbsg17
I2
sg20
I01
sg21
g33
sbsg17
I3
sg24
(imyEvolve
Tree
p908
(dp909
g10
(imyEvolve
Tree
p910
(dp911
g7
(imyEvolve
Tree
p912
(dp913
g17
I0
sg19
I00
sbsg17
I1
sg24
(imyEvolve
Tree
p914
(dp915
g17
I0
sg18
F-4.6576406498942475
sg19
I01
sbsg20
I00
sg21
g43
sbsg17
I2
sg20
I01
sg21
g33
sbsg20
I00
sg21
g56
sbsg20
I00
sg21
g43
sba(imyEvolve
Tree
p916
(dp917
g17
I5
sg7
(imyEvolve
Tree
p918
(dp919
g10
(imyEvolve
Tree
p920
(dp921
g17
I3
sg7
(imyEvolve
Tree
p922
(dp923
g17
I2
sg7
(imyEvolve
Tree
p924
(dp925
g17
I1
sg7
(imyEvolve
Tree
p926
(dp927
g17
I0
sg18
F3.5969357032335
sg19
I01
sbsg24
(imyEvolve
Tree
p928
(dp929
g17
I0
sg18
F2.8876967856710145
sg19
I01
sbsg20
I00
sg21
g56
sbsg24
(imyEvolve
Tree
p930
(dp931
g10
(imyEvolve
Tree
p932
(dp933
g17
I0
sg18
F1.1181416706315064
sg19
I01
sbsg17
I1
sg20
I01
sg21
g33
sbsg20
I00
sg21
g56
sbsg24
(imyEvolve
Tree
p934
(dp935
g17
I2
sg7
(imyEvolve
Tree
p936
(dp937
g17
I1
sg7
(imyEvolve
Tree
p938
(dp939
g17
I0
sg19
I00
sbsg24
(imyEvolve
Tree
p940
(dp941
g17
I0
sg19
I00
sbsg20
I00
sg21
g56
sbsg24
(imyEvolve
Tree
p942
(dp943
g10
(imyEvolve
Tree
p944
(dp945
g17
I0
sg18
F-2.672154285294842
sg19
I01
sbsg17
I1
sg20
I01
sg21
g33
sbsg20
I00
sg21
g43
sbsg20
I00
sg21
g42
sbsg17
I4
sg20
I01
sg21
g57
sbsg24
(imyEvolve
Tree
p946
(dp947
g17
I4
sg7
(imyEvolve
Tree
p948
(dp949
g10
(imyEvolve
Tree
p950
(dp951
g17
I2
sg7
(imyEvolve
Tree
p952
(dp953
g10
(imyEvolve
Tree
p954
(dp955
g17
I0
sg18
F2.174368258564802
sg19
I01
sbsg17
I1
sg20
I01
sg21
g57
sbsg24
(imyEvolve
Tree
p956
(dp957
g17
I1
sg7
(imyEvolve
Tree
p958
(dp959
g17
I0
sg19
I00
sbsg24
(imyEvolve
Tree
p960
(dp961
g17
I0
sg18
F-4.714051992132945
sg19
I01
sbsg20
I00
sg21
g42
sbsg20
I00
sg21
g42
sbsg17
I3
sg20
I01
sg21
g57
sbsg24
(imyEvolve
Tree
p962
(dp963
g17
I3
sg7
(imyEvolve
Tree
p964
(dp965
g10
(imyEvolve
Tree
p966
(dp967
g17
I1
sg7
(imyEvolve
Tree
p968
(dp969
g17
I0
sg18
F-0.30525070893855943
sg19
I01
sbsg24
(imyEvolve
Tree
p970
(dp971
g17
I0
sg19
I00
sbsg20
I00
sg21
g42
sbsg17
I2
sg20
I01
sg21
g57
sbsg24
(imyEvolve
Tree
p972
(dp973
g17
I2
sg7
(imyEvolve
Tree
p974
(dp975
g10
(imyEvolve
Tree
p976
(dp977
g17
I0
sg19
I00
sbsg17
I1
sg20
I01
sg21
g33
sbsg24
(imyEvolve
Tree
p978
(dp979
g17
I1
sg7
(imyEvolve
Tree
p980
(dp981
g17
I0
sg18
F0.9946882775287289
sg19
I01
sbsg24
(imyEvolve
Tree
p982
(dp983
g17
I0
sg18
F-0.8268705723699235
sg19
I01
sbsg20
I00
sg21
g42
sbsg20
I00
sg21
g42
sbsg20
I00
sg21
g43
sbsg20
I00
sg21
g43
sbsg20
I00
sg21
g56
sba(imyEvolve
Tree
p984
(dp985
g17
I2
sg7
(imyEvolve
Tree
p986
(dp987
g10
(imyEvolve
Tree
p988
(dp989
g17
I0
sg18
F1.6265391966601603
sg19
I01
sbsg17
I1
sg20
I01
sg21
g33
sbsg24
(imyEvolve
Tree
p990
(dp991
g17
I1
sg7
(imyEvolve
Tree
p992
(dp993
g17
I0
sg19
I00
sbsg24
(imyEvolve
Tree
p994
(dp995
g17
I0
sg19
I00
sbsg20
I00
sg21
g56
sbsg20
I00
sg21
g42
sbaa(lp996
(imyEvolve
Tree
p997
(dp998
g7
(imyEvolve
Tree
p999
(dp1000
g7
(imyEvolve
Tree
p1001
(dp1002
g10
(imyEvolve
Tree
p1003
(dp1004
g17
I0
sg18
F3.5054068188841594
sg19
I01
sbsg17
I1
sg20
I01
sg21
g22
sbsg17
I2
sg24
(imyEvolve
Tree
p1005
(dp1006
g7
(imyEvolve
Tree
p1007
(dp1008
g17
I0
sg18
F0.6262576309711054
sg19
I01
sbsg17
I1
sg24
(imyEvolve
Tree
p1009
(dp1010
g17
I0
sg19
I00
sbsg20
I00
sg21
g42
sbsg20
I00
sg21
g43
sbsg17
I3
sg24
(imyEvolve
Tree
p1011
(dp1012
g10
(imyEvolve
Tree
p1013
(dp1014
g10
(imyEvolve
Tree
p1015
(dp1016
g17
I0
sg19
I00
sbsg17
I1
sg20
I01
sg21
g22
sbsg17
I2
sg20
I01
sg21
g33
sbsg20
I00
sg21
g43
sba(imyEvolve
Tree
p1017
(dp1018
g7
(imyEvolve
Tree
p1019
(dp1020
g10
(imyEvolve
Tree
p1021
(dp1022
g10
(imyEvolve
Tree
p1023
(dp1024
g17
I0
sg18
F-2.6986055737969283
sg19
I01
sbsg17
I1
sg20
I01
sg21
g22
sbsg17
I2
sg20
I01
sg21
g57
sbsg17
I3
sg24
(imyEvolve
Tree
p1025
(dp1026
g7
(imyEvolve
Tree
p1027
(dp1028
g7
(imyEvolve
Tree
p1029
(dp1030
g17
I0
sg18
F-1.377881429574912
sg19
I01
sbsg17
I1
sg24
(imyEvolve
Tree
p1031
(dp1032
g17
I0
sg19
I00
sbsg20
I00
sg21
g56
sbsg17
I2
sg24
(imyEvolve
Tree
p1033
(dp1034
g10
(imyEvolve
Tree
p1035
(dp1036
g17
I0
sg19
I00
sbsg17
I1
sg20
I01
sg21
g57
sbsg20
I00
sg21
g42
sbsg20
I00
sg21
g42
sba(imyEvolve
Tree
p1037
(dp1038
g10
(imyEvolve
Tree
p1039
(dp1040
g7
(imyEvolve
Tree
p1041
(dp1042
g17
I0
sg18
F4.332415184797643
sg19
I01
sbsg17
I1
sg24
(imyEvolve
Tree
p1043
(dp1044
g17
I0
sg19
I00
sbsg20
I00
sg21
g56
sbsg17
I2
sg20
I01
sg21
g23
sba(imyEvolve
Tree
p1045
(dp1046
g10
(imyEvolve
Tree
p1047
(dp1048
g10
(imyEvolve
Tree
p1049
(dp1050
g10
(imyEvolve
Tree
p1051
(dp1052
g10
(imyEvolve
Tree
p1053
(dp1054
g17
I1
sg7
(imyEvolve
Tree
p1055
(dp1056
g17
I0
sg19
I00
sbsg24
(imyEvolve
Tree
p1057
(dp1058
g17
I0
sg19
I00
sbsg20
I00
sg21
g56
sbsg17
I2
sg20
I01
sg21
g33
sbsg17
I3
sg20
I01
sg21
g23
sbsg17
I4
sg20
I01
sg21
g57
sbsg17
I5
sg20
I01
sg21
g23
sba(imyEvolve
Tree
p1059
(dp1060
g10
(imyEvolve
Tree
p1061
(dp1062
g7
(imyEvolve
Tree
p1063
(dp1064
g7
(imyEvolve
Tree
p1065
(dp1066
g17
I0
sg18
F4.074345342256093
sg19
I01
sbsg17
I1
sg24
(imyEvolve
Tree
p1067
(dp1068
g17
I0
sg18
F-0.6861801366770184
sg19
I01
sbsg20
I00
sg21
g42
sbsg17
I2
sg24
(imyEvolve
Tree
p1069
(dp1070
g10
(imyEvolve
Tree
p1071
(dp1072
g17
I0
sg19
I00
sbsg17
I1
sg20
I01
sg21
g23
sbsg20
I00
sg21
g43
sbsg17
I3
sg20
I01
sg21
g33
sba(imyEvolve
Tree
p1073
(dp1074
g7
(imyEvolve
Tree
p1075
(dp1076
g7
(imyEvolve
Tree
p1077
(dp1078
g7
(imyEvolve
Tree
p1079
(dp1080
g10
(imyEvolve
Tree
p1081
(dp1082
g10
(imyEvolve
Tree
p1083
(dp1084
g17
I0
sg19
I00
sbsg17
I1
sg20
I01
sg21
g23
sbsg17
I2
sg20
I01
sg21
g22
sbsg17
I3
sg24
(imyEvolve
Tree
p1085
(dp1086
g10
(imyEvolve
Tree
p1087
(dp1088
g7
(imyEvolve
Tree
p1089
(dp1090
g17
I0
sg19
I00
sbsg17
I1
sg24
(imyEvolve
Tree
p1091
(dp1092
g17
I0
sg19
I00
sbsg20
I00
sg21
g43
sbsg17
I2
sg20
I01
sg21
g57
sbsg20
I00
sg21
g56
sbsg17
I4
sg24
(imyEvolve
Tree
p1093
(dp1094
g7
(imyEvolve
Tree
p1095
(dp1096
g7
(imyEvolve
Tree
p1097
(dp1098
g7
(imyEvolve
Tree
p1099
(dp1100
g17
I0
sg19
I00
sbsg17
I1
sg24
(imyEvolve
Tree
p1101
(dp1102
g17
I0
sg18
F2.6586616501568594
sg19
I01
sbsg20
I00
sg21
g43
sbsg17
I2
sg24
(imyEvolve
Tree
p1103
(dp1104
g7
(imyEvolve
Tree
p1105
(dp1106
g17
I0
sg19
I00
sbsg17
I1
sg24
(imyEvolve
Tree
p1107
(dp1108
g17
I0
sg19
I00
sbsg20
I00
sg21
g43
sbsg20
I00
sg21
g56
sbsg17
I3
sg24
(imyEvolve
Tree
p1109
(dp1110
g10
(imyEvolve
Tree
p1111
(dp1112
g7
(imyEvolve
Tree
p1113
(dp1114
g17
I0
sg18
F-3.01115895555872
sg19
I01
sbsg17
I1
sg24
(imyEvolve
Tree
p1115
(dp1116
g17
I0
sg18
F-4.459676237411595
sg19
I01
sbsg20
I00
sg21
g56
sbsg17
I2
sg20
I01
sg21
g22
sbsg20
I00
sg21
g43
sbsg20
I00
sg21
g56
sbsg17
I5
sg24
(imyEvolve
Tree
p1117
(dp1118
g7
(imyEvolve
Tree
p1119
(dp1120
g7
(imyEvolve
Tree
p1121
(dp1122
g10
(imyEvolve
Tree
p1123
(dp1124
g10
(imyEvolve
Tree
p1125
(dp1126
g17
I0
sg18
F2.3202691221587006
sg19
I01
sbsg17
I1
sg20
I01
sg21
g57
sbsg17
I2
sg20
I01
sg21
g23
sbsg17
I3
sg24
(imyEvolve
Tree
p1127
(dp1128
g7
(imyEvolve
Tree
p1129
(dp1130
g7
(imyEvolve
Tree
p1131
(dp1132
g17
I0
sg18
F3.7685427123499267
sg19
I01
sbsg17
I1
sg24
(imyEvolve
Tree
p1133
(dp1134
g17
I0
sg19
I00
sbsg20
I00
sg21
g56
sbsg17
I2
sg24
(imyEvolve
Tree
p1135
(dp1136
g7
(imyEvolve
Tree
p1137
(dp1138
g17
I0
sg18
F0.19825187232827535
sg19
I01
sbsg17
I1
sg24
(imyEvolve
Tree
p1139
(dp1140
g17
I0
sg19
I00
sbsg20
I00
sg21
g42
sbsg20
I00
sg21
g43
sbsg20
I00
sg21
g42
sbsg17
I4
sg24
(imyEvolve
Tree
p1141
(dp1142
g7
(imyEvolve
Tree
p1143
(dp1144
g10
(imyEvolve
Tree
p1145
(dp1146
g7
(imyEvolve
Tree
p1147
(dp1148
g17
I0
sg18
F-3.5392911466354935
sg19
I01
sbsg17
I1
sg24
(imyEvolve
Tree
p1149
(dp1150
g17
I0
sg19
I00
sbsg20
I00
sg21
g56
sbsg17
I2
sg20
I01
sg21
g57
sbsg17
I3
sg24
(imyEvolve
Tree
p1151
(dp1152
g7
(imyEvolve
Tree
p1153
(dp1154
g7
(imyEvolve
Tree
p1155
(dp1156
g17
I0
sg18
F-4.308028690453016
sg19
I01
sbsg17
I1
sg24
(imyEvolve
Tree
p1157
(dp1158
g17
I0
sg19
I00
sbsg20
I00
sg21
g43
sbsg17
I2
sg24
(imyEvolve
Tree
p1159
(dp1160
g10
(imyEvolve
Tree
p1161
(dp1162
g17
I0
sg18
F-1.2210852721992724
sg19
I01
sbsg17
I1
sg20
I01
sg21
g23
sbsg20
I00
sg21
g42
sbsg20
I00
sg21
g42
sbsg20
I00
sg21
g43
sbsg20
I00
sg21
g43
sba(imyEvolve
Tree
p1163
(dp1164
g10
(imyEvolve
Tree
p1165
(dp1166
g10
(imyEvolve
Tree
p1167
(dp1168
g10
(imyEvolve
Tree
p1169
(dp1170
g7
(imyEvolve
Tree
p1171
(dp1172
g17
I0
sg18
F-3.68414294629416
sg19
I01
sbsg17
I1
sg24
(imyEvolve
Tree
p1173
(dp1174
g17
I0
sg18
F0.6804482852868121
sg19
I01
sbsg20
I00
sg21
g56
sbsg17
I2
sg20
I01
sg21
g23
sbsg17
I3
sg20
I01
sg21
g22
sbsg17
I4
sg20
I01
sg21
g22
sba(imyEvolve
Tree
p1175
(dp1176
g10
(imyEvolve
Tree
p1177
(dp1178
g10
(imyEvolve
Tree
p1179
(dp1180
g10
(imyEvolve
Tree
p1181
(dp1182
g10
(imyEvolve
Tree
p1183
(dp1184
g10
(imyEvolve
Tree
p1185
(dp1186
g17
I0
sg18
F-2.5712273494561035
sg19
I01
sbsg17
I1
sg20
I01
sg21
g33
sbsg17
I2
sg20
I01
sg21
g33
sbsg17
I3
sg20
I01
sg21
g22
sbsg17
I4
sg20
I01
sg21
g57
sbsg17
I5
sg20
I01
sg21
g57
sba(imyEvolve
Tree
p1187
(dp1188
g10
(imyEvolve
Tree
p1189
(dp1190
g7
(imyEvolve
Tree
p1191
(dp1192
g17
I0
sg19
I00
sbsg17
I1
sg24
(imyEvolve
Tree
p1193
(dp1194
g17
I0
sg19
I00
sbsg20
I00
sg21
g56
sbsg17
I2
sg20
I01
sg21
g23
sba(imyEvolve
Tree
p1195
(dp1196
g10
(imyEvolve
Tree
p1197
(dp1198
g17
I3
sg7
(imyEvolve
Tree
p1199
(dp1200
g17
I2
sg7
(imyEvolve
Tree
p1201
(dp1202
g17
I1
sg7
(imyEvolve
Tree
p1203
(dp1204
g17
I0
sg18
F-1.9992646477112141
sg19
I01
sbsg24
(imyEvolve
Tree
p1205
(dp1206
g17
I0
sg18
F3.877182005969921
sg19
I01
sbsg20
I00
sg21
g43
sbsg24
(imyEvolve
Tree
p1207
(dp1208
g10
(imyEvolve
Tree
p1209
(dp1210
g17
I0
sg18
F-0.1594850290204768
sg19
I01
sbsg17
I1
sg20
I01
sg21
g22
sbsg20
I00
sg21
g56
sbsg24
(imyEvolve
Tree
p1211
(dp1212
g10
(imyEvolve
Tree
p1213
(dp1214
g10
(imyEvolve
Tree
p1215
(dp1216
g17
I0
sg19
I00
sbsg17
I1
sg20
I01
sg21
g33
sbsg17
I2
sg20
I01
sg21
g22
sbsg20
I00
sg21
g42
sbsg17
I4
sg20
I01
sg21
g22
sba(imyEvolve
Tree
p1217
(dp1218
g7
(imyEvolve
Tree
p1219
(dp1220
g10
(imyEvolve
Tree
p1221
(dp1222
g17
I0
sg19
I00
sbsg17
I1
sg20
I01
sg21
g33
sbsg17
I2
sg24
(imyEvolve
Tree
p1223
(dp1224
g7
(imyEvolve
Tree
p1225
(dp1226
g17
I0
sg18
F1.2727712127237805
sg19
I01
sbsg17
I1
sg24
(imyEvolve
Tree
p1227
(dp1228
g17
I0
sg18
F0.4507740526637569
sg19
I01
sbsg20
I00
sg21
g42
sbsg20
I00
sg21
g43
sba(imyEvolve
Tree
p1229
(dp1230
g7
(imyEvolve
Tree
p1231
(dp1232
g10
(imyEvolve
Tree
p1233
(dp1234
g7
(imyEvolve
Tree
p1235
(dp1236
g17
I0
sg19
I00
sbsg17
I1
sg24
(imyEvolve
Tree
p1237
(dp1238
g17
I0
sg19
I00
sbsg20
I00
sg21
g42
sbsg17
I2
sg20
I01
sg21
g33
sbsg17
I3
sg24
(imyEvolve
Tree
p1239
(dp1240
g10
(imyEvolve
Tree
p1241
(dp1242
g10
(imyEvolve
Tree
p1243
(dp1244
g17
I0
sg18
F4.268384079059334
sg19
I01
sbsg17
I1
sg20
I01
sg21
g57
sbsg17
I2
sg20
I01
sg21
g57
sbsg20
I00
sg21
g42
sba(imyEvolve
Tree
p1245
(dp1246
g17
I3
sg7
(imyEvolve
Tree
p1247
(dp1248
g10
(imyEvolve
Tree
p1249
(dp1250
g17
I1
sg7
(imyEvolve
Tree
p1251
(dp1252
g17
I0
sg19
I00
sbsg24
(imyEvolve
Tree
p1253
(dp1254
g17
I0
sg19
I00
sbsg20
I00
sg21
g56
sbsg17
I2
sg20
I01
sg21
g22
sbsg24
(imyEvolve
Tree
p1255
(dp1256
g10
(imyEvolve
Tree
p1257
(dp1258
g10
(imyEvolve
Tree
p1259
(dp1260
g17
I0
sg19
I00
sbsg17
I1
sg20
I01
sg21
g57
sbsg17
I2
sg20
I01
sg21
g57
sbsg20
I00
sg21
g43
sba(imyEvolve
Tree
p1261
(dp1262
g10
(imyEvolve
Tree
p1263
(dp1264
g10
(imyEvolve
Tree
p1265
(dp1266
g17
I0
sg18
F-2.3102449011677595
sg19
I01
sbsg17
I1
sg20
I01
sg21
g33
sbsg17
I2
sg20
I01
sg21
g33
sba(imyEvolve
Tree
p1267
(dp1268
g10
(imyEvolve
Tree
p1269
(dp1270
g17
I1
sg7
(imyEvolve
Tree
p1271
(dp1272
g17
I0
sg18
F4.69026114602859
sg19
I01
sbsg24
(imyEvolve
Tree
p1273
(dp1274
g17
I0
sg19
I00
sbsg20
I00
sg21
g56
sbsg17
I2
sg20
I01
sg21
g33
sba(imyEvolve
Tree
p1275
(dp1276
g17
I4
sg7
(imyEvolve
Tree
p1277
(dp1278
g17
I3
sg7
(imyEvolve
Tree
p1279
(dp1280
g17
I2
sg7
(imyEvolve
Tree
p1281
(dp1282
g10
(imyEvolve
Tree
p1283
(dp1284
g17
I0
sg19
I00
sbsg17
I1
sg20
I01
sg21
g23
sbsg24
(imyEvolve
Tree
p1285
(dp1286
g10
(imyEvolve
Tree
p1287
(dp1288
g17
I0
sg18
F2.843110498596566
sg19
I01
sbsg17
I1
sg20
I01
sg21
g33
sbsg20
I00
sg21
g43
sbsg24
(imyEvolve
Tree
p1289
(dp1290
g17
I2
sg7
(imyEvolve
Tree
p1291
(dp1292
g10
(imyEvolve
Tree
p1293
(dp1294
g17
I0
sg19
I00
sbsg17
I1
sg20
I01
sg21
g23
sbsg24
(imyEvolve
Tree
p1295
(dp1296
g10
(imyEvolve
Tree
p1297
(dp1298
g17
I0
sg18
F3.3443305372778767
sg19
I01
sbsg17
I1
sg20
I01
sg21
g22
sbsg20
I00
sg21
g42
sbsg20
I00
sg21
g43
sbsg24
(imyEvolve
Tree
p1299
(dp1300
g10
(imyEvolve
Tree
p1301
(dp1302
g17
I2
sg7
(imyEvolve
Tree
p1303
(dp1304
g10
(imyEvolve
Tree
p1305
(dp1306
g17
I0
sg19
I00
sbsg17
I1
sg20
I01
sg21
g23
sbsg24
(imyEvolve
Tree
p1307
(dp1308
g17
I1
sg7
(imyEvolve
Tree
p1309
(dp1310
g17
I0
sg18
F1.6419909201126544
sg19
I01
sbsg24
(imyEvolve
Tree
p1311
(dp1312
g17
I0
sg19
I00
sbsg20
I00
sg21
g56
sbsg20
I00
sg21
g42
sbsg17
I3
sg20
I01
sg21
g33
sbsg20
I00
sg21
g56
sbaa(lp1313
(imyEvolve
Tree
p1314
(dp1315
g17
I4
sg7
(imyEvolve
Tree
p1316
(dp1317
g17
I3
sg7
(imyEvolve
Tree
p1318
(dp1319
g17
I2
sg7
(imyEvolve
Tree
p1320
(dp1321
g10
(imyEvolve
Tree
p1322
(dp1323
g17
I0
sg18
F-1.1795764043264647
sg19
I01
sbsg17
I1
sg20
I01
sg21
g57
sbsg24
(imyEvolve
Tree
p1324
(dp1325
g17
I1
sg7
(imyEvolve
Tree
p1326
(dp1327
g17
I0
sg19
I00
sbsg24
(imyEvolve
Tree
p1328
(dp1329
g17
I0
sg18
F-0.18446677031698933
sg19
I01
sbsg20
I00
sg21
g56
sbsg20
I00
sg21
g42
sbsg24
(imyEvolve
Tree
p1330
(dp1331
g17
I2
sg7
(imyEvolve
Tree
p1332
(dp1333
g10
(imyEvolve
Tree
p1334
(dp1335
g17
I0
sg19
I00
sbsg17
I1
sg20
I01
sg21
g22
sbsg24
(imyEvolve
Tree
p1336
(dp1337
g17
I1
sg7
(imyEvolve
Tree
p1338
(dp1339
g17
I0
sg19
I00
sbsg24
(imyEvolve
Tree
p1340
(dp1341
g17
I0
sg18
F-1.1769974766467781
sg19
I01
sbsg20
I00
sg21
g56
sbsg20
I00
sg21
g56
sbsg20
I00
sg21
g42
sbsg24
(imyEvolve
Tree
p1342
(dp1343
g10
(imyEvolve
Tree
p1344
(dp1345
g17
I2
sg7
(imyEvolve
Tree
p1346
(dp1347
g10
(imyEvolve
Tree
p1348
(dp1349
g17
I0
sg19
I00
sbsg17
I1
sg20
I01
sg21
g23
sbsg24
(imyEvolve
Tree
p1350
(dp1351
g17
I1
sg7
(imyEvolve
Tree
p1352
(dp1353
g17
I0
sg18
F4.192204675122689
sg19
I01
sbsg24
(imyEvolve
Tree
p1354
(dp1355
g17
I0
sg19
I00
sbsg20
I00
sg21
g56
sbsg20
I00
sg21
g43
sbsg17
I3
sg20
I01
sg21
g57
sbsg20
I00
sg21
g56
sba(imyEvolve
Tree
p1356
(dp1357
g17
I5
sg7
(imyEvolve
Tree
p1358
(dp1359
g17
I4
sg7
(imyEvolve
Tree
p1360
(dp1361
g10
(imyEvolve
Tree
p1362
(dp1363
g17
I2
sg7
(imyEvolve
Tree
p1364
(dp1365
g17
I1
sg7
(imyEvolve
Tree
p1366
(dp1367
g17
I0
sg18
F-4.664704288278426
sg19
I01
sbsg24
(imyEvolve
Tree
p1368
(dp1369
g17
I0
sg18
F2.2665407648163907
sg19
I01
sbsg20
I00
sg21
g43
sbsg24
(imyEvolve
Tree
p1370
(dp1371
g10
(imyEvolve
Tree
p1372
(dp1373
g17
I0
sg19
I00
sbsg17
I1
sg20
I01
sg21
g22
sbsg20
I00
sg21
g43
sbsg17
I3
sg20
I01
sg21
g57
sbsg24
(imyEvolve
Tree
p1374
(dp1375
g17
I3
sg7
(imyEvolve
Tree
p1376
(dp1377
g17
I2
sg7
(imyEvolve
Tree
p1378
(dp1379
g10
(imyEvolve
Tree
p1380
(dp1381
g17
I0
sg18
F-0.07778102277483612
sg19
I01
sbsg17
I1
sg20
I01
sg21
g22
sbsg24
(imyEvolve
Tree
p1382
(dp1383
g17
I1
sg7
(imyEvolve
Tree
p1384
(dp1385
g17
I0
sg19
I00
sbsg24
(imyEvolve
Tree
p1386
(dp1387
g17
I0
sg19
I00
sbsg20
I00
sg21
g43
sbsg20
I00
sg21
g43
sbsg24
(imyEvolve
Tree
p1388
(dp1389
g10
(imyEvolve
Tree
p1390
(dp1391
g10
(imyEvolve
Tree
p1392
(dp1393
g17
I0
sg18
F2.259772049102252
sg19
I01
sbsg17
I1
sg20
I01
sg21
g23
sbsg17
I2
sg20
I01
sg21
g57
sbsg20
I00
sg21
g42
sbsg20
I00
sg21
g56
sbsg24
(imyEvolve
Tree
p1394
(dp1395
g17
I4
sg7
(imyEvolve
Tree
p1396
(dp1397
g17
I3
sg7
(imyEvolve
Tree
p1398
(dp1399
g10
(imyEvolve
Tree
p1400
(dp1401
g10
(imyEvolve
Tree
p1402
(dp1403
g17
I0
sg18
F-0.9866194164783595
sg19
I01
sbsg17
I1
sg20
I01
sg21
g22
sbsg17
I2
sg20
I01
sg21
g22
sbsg24
(imyEvolve
Tree
p1404
(dp1405
g10
(imyEvolve
Tree
p1406
(dp1407
g10
(imyEvolve
Tree
p1408
(dp1409
g17
I0
sg19
I00
sbsg17
I1
sg20
I01
sg21
g23
sbsg17
I2
sg20
I01
sg21
g33
sbsg20
I00
sg21
g42
sbsg24
(imyEvolve
Tree
p1410
(dp1411
g17
I3
sg7
(imyEvolve
Tree
p1412
(dp1413
g10
(imyEvolve
Tree
p1414
(dp1415
g10
(imyEvolve
Tree
p1416
(dp1417
g17
I0
sg18
F3.8140168788038373
sg19
I01
sbsg17
I1
sg20
I01
sg21
g23
sbsg17
I2
sg20
I01
sg21
g22
sbsg24
(imyEvolve
Tree
p1418
(dp1419
g10
(imyEvolve
Tree
p1420
(dp1421
g10
(imyEvolve
Tree
p1422
(dp1423
g17
I0
sg18
F-1.7879306142193387
sg19
I01
sbsg17
I1
sg20
I01
sg21
g33
sbsg17
I2
sg20
I01
sg21
g33
sbsg20
I00
sg21
g43
sbsg20
I00
sg21
g42
sbsg20
I00
sg21
g43
sba(imyEvolve
Tree
p1424
(dp1425
g7
(imyEvolve
Tree
p1426
(dp1427
g10
(imyEvolve
Tree
p1428
(dp1429
g10
(imyEvolve
Tree
p1430
(dp1431
g10
(imyEvolve
Tree
p1432
(dp1433
g10
(imyEvolve
Tree
p1434
(dp1435
g17
I0
sg18
F-2.0535236785655284
sg19
I01
sbsg17
I1
sg20
I01
sg21
g33
sbsg17
I2
sg20
I01
sg21
g57
sbsg17
I3
sg20
I01
sg21
g23
sbsg17
I4
sg20
I01
sg21
g57
sbsg17
I5
sg24
(imyEvolve
Tree
p1436
(dp1437
g7
(imyEvolve
Tree
p1438
(dp1439
g10
(imyEvolve
Tree
p1440
(dp1441
g7
(imyEvolve
Tree
p1442
(dp1443
g10
(imyEvolve
Tree
p1444
(dp1445
g17
I0
sg19
I00
sbsg17
I1
sg20
I01
sg21
g57
sbsg17
I2
sg24
(imyEvolve
Tree
p1446
(dp1447
g10
(imyEvolve
Tree
p1448
(dp1449
g17
I0
sg19
I00
sbsg17
I1
sg20
I01
sg21
g57
sbsg20
I00
sg21
g56
sbsg17
I3
sg20
I01
sg21
g23
sbsg17
I4
sg24
(imyEvolve
Tree
p1450
(dp1451
g7
(imyEvolve
Tree
p1452
(dp1453
g10
(imyEvolve
Tree
p1454
(dp1455
g7
(imyEvolve
Tree
p1456
(dp1457
g17
I0
sg18
F3.2778553545503204
sg19
I01
sbsg17
I1
sg24
(imyEvolve
Tree
p1458
(dp1459
g17
I0
sg18
F1.3259549856298323
sg19
I01
sbsg20
I00
sg21
g43
sbsg17
I2
sg20
I01
sg21
g22
sbsg17
I3
sg24
(imyEvolve
Tree
p1460
(dp1461
g10
(imyEvolve
Tree
p1462
(dp1463
g7
(imyEvolve
Tree
p1464
(dp1465
g17
I0
sg18
F0.7166694701182603
sg19
I01
sbsg17
I1
sg24
(imyEvolve
Tree
p1466
(dp1467
g17
I0
sg19
I00
sbsg20
I00
sg21
g43
sbsg17
I2
sg20
I01
sg21
g33
sbsg20
I00
sg21
g42
sbsg20
I00
sg21
g43
sbsg20
I00
sg21
g42
sba(imyEvolve
Tree
p1468
(dp1469
g7
(imyEvolve
Tree
p1470
(dp1471
g7
(imyEvolve
Tree
p1472
(dp1473
g7
(imyEvolve
Tree
p1474
(dp1475
g7
(imyEvolve
Tree
p1476
(dp1477
g17
I0
sg19
I00
sbsg17
I1
sg24
(imyEvolve
Tree
p1478
(dp1479
g17
I0
sg18
F2.5668564158758143
sg19
I01
sbsg20
I00
sg21
g43
sbsg17
I2
sg24
(imyEvolve
Tree
p1480
(dp1481
g7
(imyEvolve
Tree
p1482
(dp1483
g17
I0
sg18
F3.4232980728301516
sg19
I01
sbsg17
I1
sg24
(imyEvolve
Tree
p1484
(dp1485
g17
I0
sg18
F-4.760597559671432
sg19
I01
sbsg20
I00
sg21
g42
sbsg20
I00
sg21
g56
sbsg17
I3
sg24
(imyEvolve
Tree
p1486
(dp1487
g10
(imyEvolve
Tree
p1488
(dp1489
g7
(imyEvolve
Tree
p1490
(dp1491
g17
I0
sg19
I00
sbsg17
I1
sg24
(imyEvolve
Tree
p1492
(dp1493
g17
I0
sg18
F4.866482724498072
sg19
I01
sbsg20
I00
sg21
g43
sbsg17
I2
sg20
I01
sg21
g22
sbsg20
I00
sg21
g42
sbsg17
I4
sg24
(imyEvolve
Tree
p1494
(dp1495
g7
(imyEvolve
Tree
p1496
(dp1497
g10
(imyEvolve
Tree
p1498
(dp1499
g10
(imyEvolve
Tree
p1500
(dp1501
g17
I0
sg19
I00
sbsg17
I1
sg20
I01
sg21
g23
sbsg17
I2
sg20
I01
sg21
g23
sbsg17
I3
sg24
(imyEvolve
Tree
p1502
(dp1503
g10
(imyEvolve
Tree
p1504
(dp1505
g10
(imyEvolve
Tree
p1506
(dp1507
g17
I0
sg19
I00
sbsg17
I1
sg20
I01
sg21
g33
sbsg17
I2
sg20
I01
sg21
g33
sbsg20
I00
sg21
g42
sbsg20
I00
sg21
g56
sba(imyEvolve
Tree
p1508
(dp1509
g10
(imyEvolve
Tree
p1510
(dp1511
g10
(imyEvolve
Tree
p1512
(dp1513
g17
I0
sg19
I00
sbsg17
I1
sg20
I01
sg21
g22
sbsg17
I2
sg20
I01
sg21
g23
sba(imyEvolve
Tree
p1514
(dp1515
g10
(imyEvolve
Tree
p1516
(dp1517
g10
(imyEvolve
Tree
p1518
(dp1519
g17
I3
sg7
(imyEvolve
Tree
p1520
(dp1521
g10
(imyEvolve
Tree
p1522
(dp1523
g17
I1
sg7
(imyEvolve
Tree
p1524
(dp1525
g17
I0
sg19
I00
sbsg24
(imyEvolve
Tree
p1526
(dp1527
g17
I0
sg18
F0.9778568028243058
sg19
I01
sbsg20
I00
sg21
g42
sbsg17
I2
sg20
I01
sg21
g57
sbsg24
(imyEvolve
Tree
p1528
(dp1529
g10
(imyEvolve
Tree
p1530
(dp1531
g10
(imyEvolve
Tree
p1532
(dp1533
g17
I0
sg19
I00
sbsg17
I1
sg20
I01
sg21
g57
sbsg17
I2
sg20
I01
sg21
g22
sbsg20
I00
sg21
g43
sbsg17
I4
sg20
I01
sg21
g33
sbsg17
I5
sg20
I01
sg21
g23
sba(imyEvolve
Tree
p1534
(dp1535
g7
(imyEvolve
Tree
p1536
(dp1537
g10
(imyEvolve
Tree
p1538
(dp1539
g10
(imyEvolve
Tree
p1540
(dp1541
g17
I0
sg18
F0.12951811867115737
sg19
I01
sbsg17
I1
sg20
I01
sg21
g22
sbsg17
I2
sg20
I01
sg21
g22
sbsg17
I3
sg24
(imyEvolve
Tree
p1542
(dp1543
g10
(imyEvolve
Tree
p1544
(dp1545
g10
(imyEvolve
Tree
p1546
(dp1547
g17
I0
sg19
I00
sbsg17
I1
sg20
I01
sg21
g23
sbsg17
I2
sg20
I01
sg21
g57
sbsg20
I00
sg21
g56
sba(imyEvolve
Tree
p1548
(dp1549
g7
(imyEvolve
Tree
p1550
(dp1551
g7
(imyEvolve
Tree
p1552
(dp1553
g10
(imyEvolve
Tree
p1554
(dp1555
g17
I0
sg18
F1.4352506779642846
sg19
I01
sbsg17
I1
sg20
I01
sg21
g57
sbsg17
I2
sg24
(imyEvolve
Tree
p1556
(dp1557
g7
(imyEvolve
Tree
p1558
(dp1559
g17
I0
sg19
I00
sbsg17
I1
sg24
(imyEvolve
Tree
p1560
(dp1561
g17
I0
sg18
F-1.931143725366037
sg19
I01
sbsg20
I00
sg21
g42
sbsg20
I00
sg21
g43
sbsg17
I3
sg24
(imyEvolve
Tree
p1562
(dp1563
g10
(imyEvolve
Tree
p1564
(dp1565
g10
(imyEvolve
Tree
p1566
(dp1567
g17
I0
sg19
I00
sbsg17
I1
sg20
I01
sg21
g22
sbsg17
I2
sg20
I01
sg21
g23
sbsg20
I00
sg21
g42
sba(imyEvolve
Tree
p1568
(dp1569
g7
(imyEvolve
Tree
p1570
(dp1571
g10
(imyEvolve
Tree
p1572
(dp1573
g7
(imyEvolve
Tree
p1574
(dp1575
g7
(imyEvolve
Tree
p1576
(dp1577
g7
(imyEvolve
Tree
p1578
(dp1579
g17
I0
sg18
F1.4116389407382615
sg19
I01
sbsg17
I1
sg24
(imyEvolve
Tree
p1580
(dp1581
g17
I0
sg19
I00
sbsg20
I00
sg21
g43
sbsg17
I2
sg24
(imyEvolve
Tree
p1582
(dp1583
g7
(imyEvolve
Tree
p1584
(dp1585
g17
I0
sg18
F-1.0873645725111656
sg19
I01
sbsg17
I1
sg24
(imyEvolve
Tree
p1586
(dp1587
g17
I0
sg18
F3.04871460478285
sg19
I01
sbsg20
I00
sg21
g42
sbsg20
I00
sg21
g43
sbsg17
I3
sg24
(imyEvolve
Tree
p1588
(dp1589
g10
(imyEvolve
Tree
p1590
(dp1591
g10
(imyEvolve
Tree
p1592
(dp1593
g17
I0
sg19
I00
sbsg17
I1
sg20
I01
sg21
g57
sbsg17
I2
sg20
I01
sg21
g23
sbsg20
I00
sg21
g56
sbsg17
I4
sg20
I01
sg21
g57
sbsg17
I5
sg24
(imyEvolve
Tree
p1594
(dp1595
g7
(imyEvolve
Tree
p1596
(dp1597
g10
(imyEvolve
Tree
p1598
(dp1599
g10
(imyEvolve
Tree
p1600
(dp1601
g7
(imyEvolve
Tree
p1602
(dp1603
g17
I0
sg18
F-1.4086109620731415
sg19
I01
sbsg17
I1
sg24
(imyEvolve
Tree
p1604
(dp1605
g17
I0
sg19
I00
sbsg20
I00
sg21
g42
sbsg17
I2
sg20
I01
sg21
g22
sbsg17
I3
sg20
I01
sg21
g23
sbsg17
I4
sg24
(imyEvolve
Tree
p1606
(dp1607
g10
(imyEvolve
Tree
p1608
(dp1609
g10
(imyEvolve
Tree
p1610
(dp1611
g7
(imyEvolve
Tree
p1612
(dp1613
g17
I0
sg18
F-1.1104984481577382
sg19
I01
sbsg17
I1
sg24
(imyEvolve
Tree
p1614
(dp1615
g17
I0
sg18
F-2.0689089456161436
sg19
I01
sbsg20
I00
sg21
g56
sbsg17
I2
sg20
I01
sg21
g57
sbsg17
I3
sg20
I01
sg21
g33
sbsg20
I00
sg21
g56
sbsg20
I00
sg21
g42
sba(imyEvolve
Tree
p1616
(dp1617
g7
(imyEvolve
Tree
p1618
(dp1619
g10
(imyEvolve
Tree
p1620
(dp1621
g10
(imyEvolve
Tree
p1622
(dp1623
g7
(imyEvolve
Tree
p1624
(dp1625
g7
(imyEvolve
Tree
p1626
(dp1627
g17
I0
sg19
I00
sbsg17
I1
sg24
(imyEvolve
Tree
p1628
(dp1629
g17
I0
sg18
F-3.527276896939975
sg19
I01
sbsg20
I00
sg21
g56
sbsg17
I2
sg24
(imyEvolve
Tree
p1630
(dp1631
g7
(imyEvolve
Tree
p1632
(dp1633
g17
I0
sg18
F-0.9328692905495632
sg19
I01
sbsg17
I1
sg24
(imyEvolve
Tree
p1634
(dp1635
g17
I0
sg18
F-4.172451690390131
sg19
I01
sbsg20
I00
sg21
g43
sbsg20
I00
sg21
g43
sbsg17
I3
sg20
I01
sg21
g57
sbsg17
I4
sg20
I01
sg21
g22
sbsg17
I5
sg24
(imyEvolve
Tree
p1636
(dp1637
g10
(imyEvolve
Tree
p1638
(dp1639
g7
(imyEvolve
Tree
p1640
(dp1641
g10
(imyEvolve
Tree
p1642
(dp1643
g7
(imyEvolve
Tree
p1644
(dp1645
g17
I0
sg19
I00
sbsg17
I1
sg24
(imyEvolve
Tree
p1646
(dp1647
g17
I0
sg18
F1.0685724340679101
sg19
I01
sbsg20
I00
sg21
g42
sbsg17
I2
sg20
I01
sg21
g23
sbsg17
I3
sg24
(imyEvolve
Tree
p1648
(dp1649
g7
(imyEvolve
Tree
p1650
(dp1651
g10
(imyEvolve
Tree
p1652
(dp1653
g17
I0
sg18
F1.8844263729819888
sg19
I01
sbsg17
I1
sg20
I01
sg21
g23
sbsg17
I2
sg24
(imyEvolve
Tree
p1654
(dp1655
g7
(imyEvolve
Tree
p1656
(dp1657
g17
I0
sg19
I00
sbsg17
I1
sg24
(imyEvolve
Tree
p1658
(dp1659
g17
I0
sg18
F-1.983303008879914
sg19
I01
sbsg20
I00
sg21
g56
sbsg20
I00
sg21
g42
sbsg20
I00
sg21
g56
sbsg17
I4
sg20
I01
sg21
g57
sbsg20
I00
sg21
g56
sba(imyEvolve
Tree
p1660
(dp1661
g10
(imyEvolve
Tree
p1662
(dp1663
g10
(imyEvolve
Tree
p1664
(dp1665
g10
(imyEvolve
Tree
p1666
(dp1667
g17
I0
sg18
F4.170452359029376
sg19
I01
sbsg17
I1
sg20
I01
sg21
g33
sbsg17
I2
sg20
I01
sg21
g57
sbsg17
I3
sg20
I01
sg21
g23
sba(imyEvolve
Tree
p1668
(dp1669
g10
(imyEvolve
Tree
p1670
(dp1671
g17
I4
sg7
(imyEvolve
Tree
p1672
(dp1673
g10
(imyEvolve
Tree
p1674
(dp1675
g10
(imyEvolve
Tree
p1676
(dp1677
g10
(imyEvolve
Tree
p1678
(dp1679
g17
I0
sg19
I00
sbsg17
I1
sg20
I01
sg21
g57
sbsg17
I2
sg20
I01
sg21
g57
sbsg17
I3
sg20
I01
sg21
g22
sbsg24
(imyEvolve
Tree
p1680
(dp1681
g10
(imyEvolve
Tree
p1682
(dp1683
g10
(imyEvolve
Tree
p1684
(dp1685
g10
(imyEvolve
Tree
p1686
(dp1687
g17
I0
sg19
I00
sbsg17
I1
sg20
I01
sg21
g22
sbsg17
I2
sg20
I01
sg21
g22
sbsg17
I3
sg20
I01
sg21
g23
sbsg20
I00
sg21
g42
sbsg17
I5
sg20
I01
sg21
g57
sba(imyEvolve
Tree
p1688
(dp1689
g7
(imyEvolve
Tree
p1690
(dp1691
g10
(imyEvolve
Tree
p1692
(dp1693
g7
(imyEvolve
Tree
p1694
(dp1695
g10
(imyEvolve
Tree
p1696
(dp1697
g7
(imyEvolve
Tree
p1698
(dp1699
g17
I0
sg18
F2.0182598892802117
sg19
I01
sbsg17
I1
sg24
(imyEvolve
Tree
p1700
(dp1701
g17
I0
sg18
F-0.6815055302108419
sg19
I01
sbsg20
I00
sg21
g42
sbsg17
I2
sg20
I01
sg21
g57
sbsg17
I3
sg24
(imyEvolve
Tree
p1702
(dp1703
g7
(imyEvolve
Tree
p1704
(dp1705
g7
(imyEvolve
Tree
p1706
(dp1707
g17
I0
sg18
F0.987800766893292
sg19
I01
sbsg17
I1
sg24
(imyEvolve
Tree
p1708
(dp1709
g17
I0
sg19
I00
sbsg20
I00
sg21
g43
sbsg17
I2
sg24
(imyEvolve
Tree
p1710
(dp1711
g10
(imyEvolve
Tree
p1712
(dp1713
g17
I0
sg18
F-4.372264894270918
sg19
I01
sbsg17
I1
sg20
I01
sg21
g23
sbsg20
I00
sg21
g56
sbsg20
I00
sg21
g42
sbsg17
I4
sg20
I01
sg21
g23
sbsg17
I5
sg24
(imyEvolve
Tree
p1714
(dp1715
g7
(imyEvolve
Tree
p1716
(dp1717
g7
(imyEvolve
Tree
p1718
(dp1719
g10
(imyEvolve
Tree
p1720
(dp1721
g7
(imyEvolve
Tree
p1722
(dp1723
g17
I0
sg19
I00
sbsg17
I1
sg24
(imyEvolve
Tree
p1724
(dp1725
g17
I0
sg19
I00
sbsg20
I00
sg21
g43
sbsg17
I2
sg20
I01
sg21
g22
sbsg17
I3
sg24
(imyEvolve
Tree
p1726
(dp1727
g10
(imyEvolve
Tree
p1728
(dp1729
g10
(imyEvolve
Tree
p1730
(dp1731
g17
I0
sg18
F3.781626519726922
sg19
I01
sbsg17
I1
sg20
I01
sg21
g22
sbsg17
I2
sg20
I01
sg21
g33
sbsg20
I00
sg21
g56
sbsg17
I4
sg24
(imyEvolve
Tree
p1732
(dp1733
g10
(imyEvolve
Tree
p1734
(dp1735
g10
(imyEvolve
Tree
p1736
(dp1737
g7
(imyEvolve
Tree
p1738
(dp1739
g17
I0
sg19
I00
sbsg17
I1
sg24
(imyEvolve
Tree
p1740
(dp1741
g17
I0
sg19
I00
sbsg20
I00
sg21
g56
sbsg17
I2
sg20
I01
sg21
g23
sbsg17
I3
sg20
I01
sg21
g33
sbsg20
I00
sg21
g42
sbsg20
I00
sg21
g42
sba(imyEvolve
Tree
p1742
(dp1743
g10
(imyEvolve
Tree
p1744
(dp1745
g10
(imyEvolve
Tree
p1746
(dp1747
g7
(imyEvolve
Tree
p1748
(dp1749
g10
(imyEvolve
Tree
p1750
(dp1751
g10
(imyEvolve
Tree
p1752
(dp1753
g17
I0
sg18
F-3.450210854715503
sg19
I01
sbsg17
I1
sg20
I01
sg21
g23
sbsg17
I2
sg20
I01
sg21
g23
sbsg17
I3
sg24
(imyEvolve
Tree
p1754
(dp1755
g7
(imyEvolve
Tree
p1756
(dp1757
g7
(imyEvolve
Tree
p1758
(dp1759
g17
I0
sg19
I00
sbsg17
I1
sg24
(imyEvolve
Tree
p1760
(dp1761
g17
I0
sg19
I00
sbsg20
I00
sg21
g43
sbsg17
I2
sg24
(imyEvolve
Tree
p1762
(dp1763
g10
(imyEvolve
Tree
p1764
(dp1765
g17
I0
sg18
F-2.5893731070852697
sg19
I01
sbsg17
I1
sg20
I01
sg21
g33
sbsg20
I00
sg21
g43
sbsg20
I00
sg21
g43
sbsg17
I4
sg20
I01
sg21
g33
sbsg17
I5
sg20
I01
sg21
g23
sbaasS'alpha'
p1766
F0.007694606804776494
sS'fitness'
p1767
cnumpy.core.multiarray
scalar
p1768
(cnumpy
dtype
p1769
(S'f8'
p1770
I0
I1
tp1771
Rp1772
(I3
S'<'
p1773
NNNI-1
I-1
I0
tp1774
bS'\x00X\xec/\xb5\xb4Y\xbf'
p1775
tp1776
Rp1777
sS'weightSharing'
p1778
(lp1779
I00
aI00
asS'fitnessValid'
p1780
I00
sS'resolution'
p1781
I84
sb.