(imyEvolve
Individual
p0
(dp1
S'funcs'
p2
(lp3
(lp4
(imyEvolve
Tree
p5
(dp6
S'below'
p7
(imyEvolve
Tree
p8
(dp9
S'depth'
p10
I2
sS'left'
p11
(imyEvolve
Tree
p12
(dp13
g10
I1
sg11
(imyEvolve
Tree
p14
(dp15
g10
I0
sS'isConstant'
p16
I00
sbsS'right'
p17
(imyEvolve
Tree
p18
(dp19
g10
I0
sg16
I00
sbsS'single'
p20
I00
sS'op'
p21
coperator
add
p22
sbsg17
(imyEvolve
Tree
p23
(dp24
g10
I1
sg11
(imyEvolve
Tree
p25
(dp26
g10
I0
sg16
I00
sbsg17
(imyEvolve
Tree
p27
(dp28
g10
I0
sg16
I00
sbsg20
I00
sg21
g22
sbsg20
I00
sg21
coperator
sub
p29
sbsg10
I3
sg20
I01
sg21
cmyEvolve
absSqrt
p30
sba(imyEvolve
Tree
p31
(dp32
g7
(imyEvolve
Tree
p33
(dp34
g11
(imyEvolve
Tree
p35
(dp36
g7
(imyEvolve
Tree
p37
(dp38
g10
I0
sS'constant'
p39
F-0.7573524128027485
sg16
I01
sbsg10
I1
sg20
I01
sg21
cmath
sin
p40
sbsg10
I2
sg17
(imyEvolve
Tree
p41
(dp42
g11
(imyEvolve
Tree
p43
(dp44
g10
I0
sg39
F-0.4033370162106902
sg16
I01
sbsg10
I1
sg17
(imyEvolve
Tree
p45
(dp46
g10
I0
sg39
F0.9046919294210376
sg16
I01
sbsg20
I00
sg21
coperator
mul
p47
sbsg20
I00
sg21
g22
sbsg10
I3
sg20
I01
sg21
g40
sba(imyEvolve
Tree
p48
(dp49
g11
(imyEvolve
Tree
p50
(dp51
g11
(imyEvolve
Tree
p52
(dp53
g10
I0
sg16
I00
sbsg10
I1
sg17
(imyEvolve
Tree
p54
(dp55
g10
I0
sg16
I00
sbsg20
I00
sg21
g47
sbsg10
I2
sg17
(imyEvolve
Tree
p56
(dp57
g11
(imyEvolve
Tree
p58
(dp59
g10
I0
sg16
I00
sbsg10
I1
sg17
(imyEvolve
Tree
p60
(dp61
g10
I0
sg39
F-4.8141481444790815
sg16
I01
sbsg20
I00
sg21
g22
sbsg20
I00
sg21
g29
sba(imyEvolve
Tree
p62
(dp63
g11
(imyEvolve
Tree
p64
(dp65
g11
(imyEvolve
Tree
p66
(dp67
g7
(imyEvolve
Tree
p68
(dp69
g11
(imyEvolve
Tree
p70
(dp71
g7
(imyEvolve
Tree
p72
(dp73
g10
I0
sg39
F-1.4627284152354947
sg16
I01
sbsg10
I1
sg20
I01
sg21
g30
sbsg10
I2
sg17
(imyEvolve
Tree
p74
(dp75
g11
(imyEvolve
Tree
p76
(dp77
g10
I0
sg16
I00
sbsg10
I1
sg17
(imyEvolve
Tree
p78
(dp79
g10
I0
sg16
I00
sbsg20
I00
sg21
g47
sbsg20
I00
sg21
g47
sbsg10
I3
sg20
I01
sg21
g30
sbsg10
I4
sg17
(imyEvolve
Tree
p80
(dp81
g7
(imyEvolve
Tree
p82
(dp83
g11
(imyEvolve
Tree
p84
(dp85
g7
(imyEvolve
Tree
p86
(dp87
g10
I0
sg39
F-4.178526413143969
sg16
I01
sbsg10
I1
sg20
I01
sg21
g30
sbsg10
I2
sg17
(imyEvolve
Tree
p88
(dp89
g11
(imyEvolve
Tree
p90
(dp91
g10
I0
sg39
F-0.3947798601193728
sg16
I01
sbsg10
I1
sg17
(imyEvolve
Tree
p92
(dp93
g10
I0
sg39
F-3.688284187974149
sg16
I01
sbsg20
I00
sg21
g47
sbsg20
I00
sg21
g47
sbsg10
I3
sg20
I01
sg21
g40
sbsg20
I00
sg21
g29
sbsg10
I5
sg17
(imyEvolve
Tree
p94
(dp95
g11
(imyEvolve
Tree
p96
(dp97
g7
(imyEvolve
Tree
p98
(dp99
g11
(imyEvolve
Tree
p100
(dp101
g7
(imyEvolve
Tree
p102
(dp103
g10
I0
sg16
I00
sbsg10
I1
sg20
I01
sg21
cmyEvolve
square
p104
sbsg10
I2
sg17
(imyEvolve
Tree
p105
(dp106
g11
(imyEvolve
Tree
p107
(dp108
g10
I0
sg16
I00
sbsg10
I1
sg17
(imyEvolve
Tree
p109
(dp110
g10
I0
sg16
I00
sbsg20
I00
sg21
g47
sbsg20
I00
sg21
g22
sbsg10
I3
sg20
I01
sg21
g104
sbsg10
I4
sg17
(imyEvolve
Tree
p111
(dp112
g11
(imyEvolve
Tree
p113
(dp114
g7
(imyEvolve
Tree
p115
(dp116
g11
(imyEvolve
Tree
p117
(dp118
g10
I0
sg39
F3.435970457466368
sg16
I01
sbsg10
I1
sg17
(imyEvolve
Tree
p119
(dp120
g10
I0
sg39
F-1.8967526745248176
sg16
I01
sbsg20
I00
sg21
g29
sbsg10
I2
sg20
I01
sg21
cmath
cos
p121
sbsg10
I3
sg17
(imyEvolve
Tree
p122
(dp123
g11
(imyEvolve
Tree
p124
(dp125
g11
(imyEvolve
Tree
p126
(dp127
g10
I0
sg16
I00
sbsg10
I1
sg17
(imyEvolve
Tree
p128
(dp129
g10
I0
sg16
I00
sbsg20
I00
sg21
g22
sbsg10
I2
sg17
(imyEvolve
Tree
p130
(dp131
g11
(imyEvolve
Tree
p132
(dp133
g10
I0
sg39
F-4.261280436482378
sg16
I01
sbsg10
I1
sg17
(imyEvolve
Tree
p134
(dp135
g10
I0
sg16
I00
sbsg20
I00
sg21
g22
sbsg20
I00
sg21
g47
sbsg20
I00
sg21
g29
sbsg20
I00
sg21
g22
sbsg20
I00
sg21
g29
sba(imyEvolve
Tree
p136
(dp137
g7
(imyEvolve
Tree
p138
(dp139
g11
(imyEvolve
Tree
p140
(dp141
g11
(imyEvolve
Tree
p142
(dp143
g7
(imyEvolve
Tree
p144
(dp145
g7
(imyEvolve
Tree
p146
(dp147
g10
I0
sg16
I00
sbsg10
I1
sg20
I01
sg21
g40
sbsg10
I2
sg20
I01
sg21
g30
sbsg10
I3
sg17
(imyEvolve
Tree
p148
(dp149
g11
(imyEvolve
Tree
p150
(dp151
g7
(imyEvolve
Tree
p152
(dp153
g10
I0
sg39
F1.6332381595393155
sg16
I01
sbsg10
I1
sg20
I01
sg21
g30
sbsg10
I2
sg17
(imyEvolve
Tree
p154
(dp155
g7
(imyEvolve
Tree
p156
(dp157
g10
I0
sg16
I00
sbsg10
I1
sg20
I01
sg21
g104
sbsg20
I00
sg21
g22
sbsg20
I00
sg21
g22
sbsg10
I4
sg17
(imyEvolve
Tree
p158
(dp159
g7
(imyEvolve
Tree
p160
(dp161
g11
(imyEvolve
Tree
p162
(dp163
g11
(imyEvolve
Tree
p164
(dp165
g10
I0
sg39
F4.8524345854550965
sg16
I01
sbsg10
I1
sg17
(imyEvolve
Tree
p166
(dp167
g10
I0
sg39
F0.8169634613320884
sg16
I01
sbsg20
I00
sg21
g47
sbsg10
I2
sg17
(imyEvolve
Tree
p168
(dp169
g7
(imyEvolve
Tree
p170
(dp171
g10
I0
sg16
I00
sbsg10
I1
sg20
I01
sg21
g104
sbsg20
I00
sg21
g29
sbsg10
I3
sg20
I01
sg21
g40
sbsg20
I00
sg21
g47
sbsg10
I5
sg20
I01
sg21
g104
sba(imyEvolve
Tree
p172
(dp173
g7
(imyEvolve
Tree
p174
(dp175
g11
(imyEvolve
Tree
p176
(dp177
g10
I0
sg16
I00
sbsg10
I1
sg17
(imyEvolve
Tree
p178
(dp179
g10
I0
sg16
I00
sbsg20
I00
sg21
g29
sbsg10
I2
sg20
I01
sg21
g40
sba(imyEvolve
Tree
p180
(dp181
g11
(imyEvolve
Tree
p182
(dp183
g7
(imyEvolve
Tree
p184
(dp185
g11
(imyEvolve
Tree
p186
(dp187
g7
(imyEvolve
Tree
p188
(dp189
g11
(imyEvolve
Tree
p190
(dp191
g10
I0
sg16
I00
sbsg10
I1
sg17
(imyEvolve
Tree
p192
(dp193
g10
I0
sg39
F-3.280107237908949
sg16
I01
sbsg20
I00
sg21
g22
sbsg10
I2
sg20
I01
sg21
g104
sbsg10
I3
sg17
(imyEvolve
Tree
p194
(dp195
g11
(imyEvolve
Tree
p196
(dp197
g7
(imyEvolve
Tree
p198
(dp199
g10
I0
sg16
I00
sbsg10
I1
sg20
I01
sg21
g30
sbsg10
I2
sg17
(imyEvolve
Tree
p200
(dp201
g7
(imyEvolve
Tree
p202
(dp203
g10
I0
sg16
I00
sbsg10
I1
sg20
I01
sg21
g104
sbsg20
I00
sg21
g22
sbsg20
I00
sg21
g22
sbsg10
I4
sg20
I01
sg21
g104
sbsg10
I5
sg17
(imyEvolve
Tree
p204
(dp205
g11
(imyEvolve
Tree
p206
(dp207
g11
(imyEvolve
Tree
p208
(dp209
g7
(imyEvolve
Tree
p210
(dp211
g7
(imyEvolve
Tree
p212
(dp213
g10
I0
sg39
F0.21132415384433134
sg16
I01
sbsg10
I1
sg20
I01
sg21
g30
sbsg10
I2
sg20
I01
sg21
g121
sbsg10
I3
sg17
(imyEvolve
Tree
p214
(dp215
g11
(imyEvolve
Tree
p216
(dp217
g11
(imyEvolve
Tree
p218
(dp219
g10
I0
sg16
I00
sbsg10
I1
sg17
(imyEvolve
Tree
p220
(dp221
g10
I0
sg16
I00
sbsg20
I00
sg21
g47
sbsg10
I2
sg17
(imyEvolve
Tree
p222
(dp223
g11
(imyEvolve
Tree
p224
(dp225
g10
I0
sg16
I00
sbsg10
I1
sg17
(imyEvolve
Tree
p226
(dp227
g10
I0
sg16
I00
sbsg20
I00
sg21
g47
sbsg20
I00
sg21
g22
sbsg20
I00
sg21
g22
sbsg10
I4
sg17
(imyEvolve
Tree
p228
(dp229
g7
(imyEvolve
Tree
p230
(dp231
g7
(imyEvolve
Tree
p232
(dp233
g11
(imyEvolve
Tree
p234
(dp235
g10
I0
sg16
I00
sbsg10
I1
sg17
(imyEvolve
Tree
p236
(dp237
g10
I0
sg16
I00
sbsg20
I00
sg21
g29
sbsg10
I2
sg20
I01
sg21
g121
sbsg10
I3
sg20
I01
sg21
g121
sbsg20
I00
sg21
g29
sbsg20
I00
sg21
g47
sba(imyEvolve
Tree
p238
(dp239
g7
(imyEvolve
Tree
p240
(dp241
g7
(imyEvolve
Tree
p242
(dp243
g10
I0
sg39
F0.2913606689884407
sg16
I01
sbsg10
I1
sg20
I01
sg21
g30
sbsg10
I2
sg20
I01
sg21
g121
sba(imyEvolve
Tree
p244
(dp245
g7
(imyEvolve
Tree
p246
(dp247
g7
(imyEvolve
Tree
p248
(dp249
g11
(imyEvolve
Tree
p250
(dp251
g11
(imyEvolve
Tree
p252
(dp253
g10
I0
sg39
F-2.029690646546981
sg16
I01
sbsg10
I1
sg17
(imyEvolve
Tree
p254
(dp255
g10
I0
sg39
F3.739655075523169
sg16
I01
sbsg20
I00
sg21
g22
sbsg10
I2
sg17
(imyEvolve
Tree
p256
(dp257
g11
(imyEvolve
Tree
p258
(dp259
g10
I0
sg16
I00
sbsg10
I1
sg17
(imyEvolve
Tree
p260
(dp261
g10
I0
sg16
I00
sbsg20
I00
sg21
g47
sbsg20
I00
sg21
g22
sbsg10
I3
sg20
I01
sg21
g121
sbsg10
I4
sg20
I01
sg21
g40
sba(imyEvolve
Tree
p262
(dp263
g10
I4
sg11
(imyEvolve
Tree
p264
(dp265
g7
(imyEvolve
Tree
p266
(dp267
g7
(imyEvolve
Tree
p268
(dp269
g7
(imyEvolve
Tree
p270
(dp271
g10
I0
sg16
I00
sbsg10
I1
sg20
I01
sg21
g121
sbsg10
I2
sg20
I01
sg21
g104
sbsg10
I3
sg20
I01
sg21
g40
sbsg17
(imyEvolve
Tree
p272
(dp273
g10
I3
sg11
(imyEvolve
Tree
p274
(dp275
g10
I2
sg11
(imyEvolve
Tree
p276
(dp277
g10
I1
sg11
(imyEvolve
Tree
p278
(dp279
g10
I0
sg39
F2.908680489030706
sg16
I01
sbsg17
(imyEvolve
Tree
p280
(dp281
g10
I0
sg16
I00
sbsg20
I00
sg21
g29
sbsg17
(imyEvolve
Tree
p282
(dp283
g10
I1
sg11
(imyEvolve
Tree
p284
(dp285
g10
I0
sg16
I00
sbsg17
(imyEvolve
Tree
p286
(dp287
g10
I0
sg16
I00
sbsg20
I00
sg21
g29
sbsg20
I00
sg21
g22
sbsg17
(imyEvolve
Tree
p288
(dp289
g10
I2
sg11
(imyEvolve
Tree
p290
(dp291
g10
I1
sg11
(imyEvolve
Tree
p292
(dp293
g10
I0
sg16
I00
sbsg17
(imyEvolve
Tree
p294
(dp295
g10
I0
sg16
I00
sbsg20
I00
sg21
g22
sbsg17
(imyEvolve
Tree
p296
(dp297
g7
(imyEvolve
Tree
p298
(dp299
g10
I0
sg16
I00
sbsg10
I1
sg20
I01
sg21
g121
sbsg20
I00
sg21
g29
sbsg20
I00
sg21
g47
sbsg20
I00
sg21
g47
sba(imyEvolve
Tree
p300
(dp301
g10
I3
sg11
(imyEvolve
Tree
p302
(dp303
g7
(imyEvolve
Tree
p304
(dp305
g10
I1
sg11
(imyEvolve
Tree
p306
(dp307
g10
I0
sg39
F0.6336375303517521
sg16
I01
sbsg17
(imyEvolve
Tree
p308
(dp309
g10
I0
sg16
I00
sbsg20
I00
sg21
g29
sbsg10
I2
sg20
I01
sg21
g121
sbsg17
(imyEvolve
Tree
p310
(dp311
g7
(imyEvolve
Tree
p312
(dp313
g7
(imyEvolve
Tree
p314
(dp315
g10
I0
sg16
I00
sbsg10
I1
sg20
I01
sg21
g30
sbsg10
I2
sg20
I01
sg21
g104
sbsg20
I00
sg21
g29
sba(imyEvolve
Tree
p316
(dp317
g10
I2
sg11
(imyEvolve
Tree
p318
(dp319
g10
I1
sg11
(imyEvolve
Tree
p320
(dp321
g10
I0
sg16
I00
sbsg17
(imyEvolve
Tree
p322
(dp323
g10
I0
sg39
F-0.7771576286694479
sg16
I01
sbsg20
I00
sg21
g47
sbsg17
(imyEvolve
Tree
p324
(dp325
g10
I1
sg11
(imyEvolve
Tree
p326
(dp327
g10
I0
sg39
F-3.0874839205266644
sg16
I01
sbsg17
(imyEvolve
Tree
p328
(dp329
g10
I0
sg16
I00
sbsg20
I00
sg21
g22
sbsg20
I00
sg21
g29
sba(imyEvolve
Tree
p330
(dp331
g7
(imyEvolve
Tree
p332
(dp333
g7
(imyEvolve
Tree
p334
(dp335
g11
(imyEvolve
Tree
p336
(dp337
g10
I0
sg39
F0.9814768532098928
sg16
I01
sbsg10
I1
sg17
(imyEvolve
Tree
p338
(dp339
g10
I0
sg16
I00
sbsg20
I00
sg21
g29
sbsg10
I2
sg20
I01
sg21
g104
sbsg10
I3
sg20
I01
sg21
g121
sba(imyEvolve
Tree
p340
(dp341
g7
(imyEvolve
Tree
p342
(dp343
g7
(imyEvolve
Tree
p344
(dp345
g7
(imyEvolve
Tree
p346
(dp347
g7
(imyEvolve
Tree
p348
(dp349
g10
I0
sg16
I00
sbsg10
I1
sg20
I01
sg21
g40
sbsg10
I2
sg20
I01
sg21
g121
sbsg10
I3
sg20
I01
sg21
g121
sbsg10
I4
sg20
I01
sg21
g30
sba(imyEvolve
Tree
p350
(dp351
g7
(imyEvolve
Tree
p352
(dp353
g10
I1
sg11
(imyEvolve
Tree
p354
(dp355
g10
I0
sg39
F0.040077389451996126
sg16
I01
sbsg17
(imyEvolve
Tree
p356
(dp357
g10
I0
sg16
I00
sbsg20
I00
sg21
g29
sbsg10
I2
sg20
I01
sg21
g40
sba(imyEvolve
Tree
p358
(dp359
g11
(imyEvolve
Tree
p360
(dp361
g11
(imyEvolve
Tree
p362
(dp363
g10
I0
sg39
F-2.6035793568859567
sg16
I01
sbsg10
I1
sg17
(imyEvolve
Tree
p364
(dp365
g10
I0
sg16
I00
sbsg20
I00
sg21
g22
sbsg10
I2
sg17
(imyEvolve
Tree
p366
(dp367
g11
(imyEvolve
Tree
p368
(dp369
g10
I0
sg16
I00
sbsg10
I1
sg17
(imyEvolve
Tree
p370
(dp371
g10
I0
sg16
I00
sbsg20
I00
sg21
g29
sbsg20
I00
sg21
g29
sba(imyEvolve
Tree
p372
(dp373
g11
(imyEvolve
Tree
p374
(dp375
g7
(imyEvolve
Tree
p376
(dp377
g11
(imyEvolve
Tree
p378
(dp379
g11
(imyEvolve
Tree
p380
(dp381
g7
(imyEvolve
Tree
p382
(dp383
g10
I0
sg39
F1.2263748027334191
sg16
I01
sbsg10
I1
sg20
I01
sg21
g30
sbsg10
I2
sg17
(imyEvolve
Tree
p384
(dp385
g11
(imyEvolve
Tree
p386
(dp387
g10
I0
sg39
F0.4952192976819383
sg16
I01
sbsg10
I1
sg17
(imyEvolve
Tree
p388
(dp389
g10
I0
sg39
F-0.375871237490891
sg16
I01
sbsg20
I00
sg21
g47
sbsg20
I00
sg21
g47
sbsg10
I3
sg17
(imyEvolve
Tree
p390
(dp391
g11
(imyEvolve
Tree
p392
(dp393
g7
(imyEvolve
Tree
p394
(dp395
g10
I0
sg16
I00
sbsg10
I1
sg20
I01
sg21
g40
sbsg10
I2
sg17
(imyEvolve
Tree
p396
(dp397
g7
(imyEvolve
Tree
p398
(dp399
g10
I0
sg39
F-1.7771470953053248
sg16
I01
sbsg10
I1
sg20
I01
sg21
g40
sbsg20
I00
sg21
g47
sbsg20
I00
sg21
g47
sbsg10
I4
sg20
I01
sg21
g30
sbsg10
I5
sg17
(imyEvolve
Tree
p400
(dp401
g11
(imyEvolve
Tree
p402
(dp403
g11
(imyEvolve
Tree
p404
(dp405
g11
(imyEvolve
Tree
p406
(dp407
g7
(imyEvolve
Tree
p408
(dp409
g10
I0
sg39
F1.865593362649486
sg16
I01
sbsg10
I1
sg20
I01
sg21
g121
sbsg10
I2
sg17
(imyEvolve
Tree
p410
(dp411
g11
(imyEvolve
Tree
p412
(dp413
g10
I0
sg16
I00
sbsg10
I1
sg17
(imyEvolve
Tree
p414
(dp415
g10
I0
sg39
F2.0497308977276276
sg16
I01
sbsg20
I00
sg21
g29
sbsg20
I00
sg21
g47
sbsg10
I3
sg17
(imyEvolve
Tree
p416
(dp417
g11
(imyEvolve
Tree
p418
(dp419
g11
(imyEvolve
Tree
p420
(dp421
g10
I0
sg16
I00
sbsg10
I1
sg17
(imyEvolve
Tree
p422
(dp423
g10
I0
sg39
F1.281334016226011
sg16
I01
sbsg20
I00
sg21
g29
sbsg10
I2
sg17
(imyEvolve
Tree
p424
(dp425
g11
(imyEvolve
Tree
p426
(dp427
g10
I0
sg39
F4.552770850103499
sg16
I01
sbsg10
I1
sg17
(imyEvolve
Tree
p428
(dp429
g10
I0
sg39
F-4.421119269394213
sg16
I01
sbsg20
I00
sg21
g22
sbsg20
I00
sg21
g22
sbsg20
I00
sg21
g22
sbsg10
I4
sg17
(imyEvolve
Tree
p430
(dp431
g7
(imyEvolve
Tree
p432
(dp433
g7
(imyEvolve
Tree
p434
(dp435
g11
(imyEvolve
Tree
p436
(dp437
g10
I0
sg39
F0.6831982000491372
sg16
I01
sbsg10
I1
sg17
(imyEvolve
Tree
p438
(dp439
g10
I0
sg16
I00
sbsg20
I00
sg21
g47
sbsg10
I2
sg20
I01
sg21
g121
sbsg10
I3
sg20
I01
sg21
g104
sbsg20
I00
sg21
g29
sbsg20
I00
sg21
g47
sba(imyEvolve
Tree
p440
(dp441
g11
(imyEvolve
Tree
p442
(dp443
g11
(imyEvolve
Tree
p444
(dp445
g7
(imyEvolve
Tree
p446
(dp447
g10
I0
sg39
F0.5779422017041131
sg16
I01
sbsg10
I1
sg20
I01
sg21
g40
sbsg10
I2
sg17
(imyEvolve
Tree
p448
(dp449
g7
(imyEvolve
Tree
p450
(dp451
g10
I0
sg39
F2.678372429347151
sg16
I01
sbsg10
I1
sg20
I01
sg21
g121
sbsg20
I00
sg21
g47
sbsg10
I3
sg17
(imyEvolve
Tree
p452
(dp453
g7
(imyEvolve
Tree
p454
(dp455
g11
(imyEvolve
Tree
p456
(dp457
g10
I0
sg39
F-3.7874997457824042
sg16
I01
sbsg10
I1
sg17
(imyEvolve
Tree
p458
(dp459
g10
I0
sg16
I00
sbsg20
I00
sg21
g22
sbsg10
I2
sg20
I01
sg21
g30
sbsg20
I00
sg21
g47
sba(imyEvolve
Tree
p460
(dp461
g11
(imyEvolve
Tree
p462
(dp463
g7
(imyEvolve
Tree
p464
(dp465
g7
(imyEvolve
Tree
p466
(dp467
g7
(imyEvolve
Tree
p468
(dp469
g10
I0
sg39
F-1.8080949202777785
sg16
I01
sbsg10
I1
sg20
I01
sg21
g40
sbsg10
I2
sg20
I01
sg21
g104
sbsg10
I3
sg20
I01
sg21
g121
sbsg10
I4
sg17
(imyEvolve
Tree
p470
(dp471
g7
(imyEvolve
Tree
p472
(dp473
g11
(imyEvolve
Tree
p474
(dp475
g7
(imyEvolve
Tree
p476
(dp477
g10
I0
sg39
F2.664983657531213
sg16
I01
sbsg10
I1
sg20
I01
sg21
g40
sbsg10
I2
sg17
(imyEvolve
Tree
p478
(dp479
g7
(imyEvolve
Tree
p480
(dp481
g10
I0
sg16
I00
sbsg10
I1
sg20
I01
sg21
g30
sbsg20
I00
sg21
g29
sbsg10
I3
sg20
I01
sg21
g104
sbsg20
I00
sg21
g22
sbaa(lp482
(imyEvolve
Tree
p483
(dp484
g7
(imyEvolve
Tree
p485
(dp486
g11
(imyEvolve
Tree
p487
(dp488
g11
(imyEvolve
Tree
p489
(dp490
g10
I0
sg16
I00
sbsg10
I1
sg17
(imyEvolve
Tree
p491
(dp492
g10
I0
sg16
I00
sbsg20
I00
sg21
g22
sbsg10
I2
sg17
(imyEvolve
Tree
p493
(dp494
g7
(imyEvolve
Tree
p495
(dp496
g10
I0
sg16
I00
sbsg10
I1
sg20
I01
sg21
g30
sbsg20
I00
sg21
g29
sbsg10
I3
sg20
I01
sg21
g104
sba(imyEvolve
Tree
p497
(dp498
g7
(imyEvolve
Tree
p499
(dp500
g11
(imyEvolve
Tree
p501
(dp502
g11
(imyEvolve
Tree
p503
(dp504
g7
(imyEvolve
Tree
p505
(dp506
g10
I0
sg16
I00
sbsg10
I1
sg20
I01
sg21
g104
sbsg10
I2
sg17
(imyEvolve
Tree
p507
(dp508
g7
(imyEvolve
Tree
p509
(dp510
g10
I0
sg16
I00
sbsg10
I1
sg20
I01
sg21
g30
sbsg20
I00
sg21
g22
sbsg10
I3
sg17
(imyEvolve
Tree
p511
(dp512
g11
(imyEvolve
Tree
p513
(dp514
g7
(imyEvolve
Tree
p515
(dp516
g10
I0
sg16
I00
sbsg10
I1
sg20
I01
sg21
g30
sbsg10
I2
sg17
(imyEvolve
Tree
p517
(dp518
g11
(imyEvolve
Tree
p519
(dp520
g10
I0
sg39
F-0.49695795130495135
sg16
I01
sbsg10
I1
sg17
(imyEvolve
Tree
p521
(dp522
g10
I0
sg16
I00
sbsg20
I00
sg21
g47
sbsg20
I00
sg21
g47
sbsg20
I00
sg21
g47
sbsg10
I4
sg20
I01
sg21
g30
sba(imyEvolve
Tree
p523
(dp524
g7
(imyEvolve
Tree
p525
(dp526
g10
I4
sg11
(imyEvolve
Tree
p527
(dp528
g7
(imyEvolve
Tree
p529
(dp530
g7
(imyEvolve
Tree
p531
(dp532
g10
I1
sg11
(imyEvolve
Tree
p533
(dp534
g10
I0
sg16
I00
sbsg17
(imyEvolve
Tree
p535
(dp536
g10
I0
sg39
F0.21510122320507996
sg16
I01
sbsg20
I00
sg21
g47
sbsg10
I2
sg20
I01
sg21
g30
sbsg10
I3
sg20
I01
sg21
g30
sbsg17
(imyEvolve
Tree
p537
(dp538
g7
(imyEvolve
Tree
p539
(dp540
g7
(imyEvolve
Tree
p541
(dp542
g7
(imyEvolve
Tree
p543
(dp544
g10
I0
sg16
I00
sbsg10
I1
sg20
I01
sg21
g30
sbsg10
I2
sg20
I01
sg21
g121
sbsg10
I3
sg20
I01
sg21
g40
sbsg20
I00
sg21
g22
sbsg10
I5
sg20
I01
sg21
g40
sba(imyEvolve
Tree
p545
(dp546
g11
(imyEvolve
Tree
p547
(dp548
g11
(imyEvolve
Tree
p549
(dp550
g10
I0
sg39
F-3.0558260228894008
sg16
I01
sbsg10
I1
sg17
(imyEvolve
Tree
p551
(dp552
g10
I0
sg16
I00
sbsg20
I00
sg21
g22
sbsg10
I2
sg17
(imyEvolve
Tree
p553
(dp554
g11
(imyEvolve
Tree
p555
(dp556
g10
I0
sg39
F-1.4200020506221467
sg16
I01
sbsg10
I1
sg17
(imyEvolve
Tree
p557
(dp558
g10
I0
sg16
I00
sbsg20
I00
sg21
g47
sbsg20
I00
sg21
g22
sba(imyEvolve
Tree
p559
(dp560
g10
I5
sg11
(imyEvolve
Tree
p561
(dp562
g7
(imyEvolve
Tree
p563
(dp564
g10
I3
sg11
(imyEvolve
Tree
p565
(dp566
g10
I2
sg11
(imyEvolve
Tree
p567
(dp568
g10
I1
sg11
(imyEvolve
Tree
p569
(dp570
g10
I0
sg16
I00
sbsg17
(imyEvolve
Tree
p571
(dp572
g10
I0
sg16
I00
sbsg20
I00
sg21
g47
sbsg17
(imyEvolve
Tree
p573
(dp574
g7
(imyEvolve
Tree
p575
(dp576
g10
I0
sg16
I00
sbsg10
I1
sg20
I01
sg21
g30
sbsg20
I00
sg21
g22
sbsg17
(imyEvolve
Tree
p577
(dp578
g10
I2
sg11
(imyEvolve
Tree
p579
(dp580
g7
(imyEvolve
Tree
p581
(dp582
g10
I0
sg16
I00
sbsg10
I1
sg20
I01
sg21
g104
sbsg17
(imyEvolve
Tree
p583
(dp584
g7
(imyEvolve
Tree
p585
(dp586
g10
I0
sg39
F4.709414202996719
sg16
I01
sbsg10
I1
sg20
I01
sg21
g121
sbsg20
I00
sg21
g47
sbsg20
I00
sg21
g22
sbsg10
I4
sg20
I01
sg21
g104
sbsg17
(imyEvolve
Tree
p587
(dp588
g7
(imyEvolve
Tree
p589
(dp590
g7
(imyEvolve
Tree
p591
(dp592
g10
I2
sg11
(imyEvolve
Tree
p593
(dp594
g10
I1
sg11
(imyEvolve
Tree
p595
(dp596
g10
I0
sg16
I00
sbsg17
(imyEvolve
Tree
p597
(dp598
g10
I0
sg39
F2.004252945268197
sg16
I01
sbsg20
I00
sg21
g47
sbsg17
(imyEvolve
Tree
p599
(dp600
g7
(imyEvolve
Tree
p601
(dp602
g10
I0
sg39
F-3.6559077829014552
sg16
I01
sbsg10
I1
sg20
I01
sg21
g30
sbsg20
I00
sg21
g29
sbsg10
I3
sg20
I01
sg21
g104
sbsg10
I4
sg20
I01
sg21
g30
sbsg20
I00
sg21
g47
sba(imyEvolve
Tree
p603
(dp604
g7
(imyEvolve
Tree
p605
(dp606
g7
(imyEvolve
Tree
p607
(dp608
g11
(imyEvolve
Tree
p609
(dp610
g11
(imyEvolve
Tree
p611
(dp612
g7
(imyEvolve
Tree
p613
(dp614
g10
I0
sg16
I00
sbsg10
I1
sg20
I01
sg21
g121
sbsg10
I2
sg17
(imyEvolve
Tree
p615
(dp616
g7
(imyEvolve
Tree
p617
(dp618
g10
I0
sg39
F-3.333037857947426
sg16
I01
sbsg10
I1
sg20
I01
sg21
g40
sbsg20
I00
sg21
g47
sbsg10
I3
sg17
(imyEvolve
Tree
p619
(dp620
g11
(imyEvolve
Tree
p621
(dp622
g7
(imyEvolve
Tree
p623
(dp624
g10
I0
sg16
I00
sbsg10
I1
sg20
I01
sg21
g40
sbsg10
I2
sg17
(imyEvolve
Tree
p625
(dp626
g7
(imyEvolve
Tree
p627
(dp628
g10
I0
sg39
F3.1802072878592327
sg16
I01
sbsg10
I1
sg20
I01
sg21
g104
sbsg20
I00
sg21
g22
sbsg20
I00
sg21
g29
sbsg10
I4
sg20
I01
sg21
g104
sbsg10
I5
sg20
I01
sg21
g30
sba(imyEvolve
Tree
p629
(dp630
g11
(imyEvolve
Tree
p631
(dp632
g7
(imyEvolve
Tree
p633
(dp634
g10
I0
sg39
F-1.8765376310571802
sg16
I01
sbsg10
I1
sg20
I01
sg21
g121
sbsg10
I2
sg17
(imyEvolve
Tree
p635
(dp636
g11
(imyEvolve
Tree
p637
(dp638
g10
I0
sg39
F-4.3464385475649445
sg16
I01
sbsg10
I1
sg17
(imyEvolve
Tree
p639
(dp640
g10
I0
sg39
F-2.5143004447572515
sg16
I01
sbsg20
I00
sg21
g22
sbsg20
I00
sg21
g47
sba(imyEvolve
Tree
p641
(dp642
g7
(imyEvolve
Tree
p643
(dp644
g7
(imyEvolve
Tree
p645
(dp646
g10
I1
sg11
(imyEvolve
Tree
p647
(dp648
g10
I0
sg39
F2.4949696788553934
sg16
I01
sbsg17
(imyEvolve
Tree
p649
(dp650
g10
I0
sg39
F2.40491525667215
sg16
I01
sbsg20
I00
sg21
g22
sbsg10
I2
sg20
I01
sg21
g121
sbsg10
I3
sg20
I01
sg21
g104
sba(imyEvolve
Tree
p651
(dp652
g10
I5
sg11
(imyEvolve
Tree
p653
(dp654
g7
(imyEvolve
Tree
p655
(dp656
g10
I3
sg11
(imyEvolve
Tree
p657
(dp658
g10
I2
sg11
(imyEvolve
Tree
p659
(dp660
g7
(imyEvolve
Tree
p661
(dp662
g10
I0
sg16
I00
sbsg10
I1
sg20
I01
sg21
g104
sbsg17
(imyEvolve
Tree
p663
(dp664
g7
(imyEvolve
Tree
p665
(dp666
g10
I0
sg16
I00
sbsg10
I1
sg20
I01
sg21
g121
sbsg20
I00
sg21
g47
sbsg17
(imyEvolve
Tree
p667
(dp668
g7
(imyEvolve
Tree
p669
(dp670
g7
(imyEvolve
Tree
p671
(dp672
g10
I0
sg16
I00
sbsg10
I1
sg20
I01
sg21
g30
sbsg10
I2
sg20
I01
sg21
g40
sbsg20
I00
sg21
g47
sbsg10
I4
sg20
I01
sg21
g30
sbsg17
(imyEvolve
Tree
p673
(dp674
g10
I4
sg11
(imyEvolve
Tree
p675
(dp676
g10
I3
sg11
(imyEvolve
Tree
p677
(dp678
g7
(imyEvolve
Tree
p679
(dp680
g10
I1
sg11
(imyEvolve
Tree
p681
(dp682
g10
I0
sg39
F-3.359198021715182
sg16
I01
sbsg17
(imyEvolve
Tree
p683
(dp684
g10
I0
sg39
F-3.167582534131983
sg16
I01
sbsg20
I00
sg21
g29
sbsg10
I2
sg20
I01
sg21
g104
sbsg17
(imyEvolve
Tree
p685
(dp686
g10
I2
sg11
(imyEvolve
Tree
p687
(dp688
g7
(imyEvolve
Tree
p689
(dp690
g10
I0
sg16
I00
sbsg10
I1
sg20
I01
sg21
g121
sbsg17
(imyEvolve
Tree
p691
(dp692
g10
I1
sg11
(imyEvolve
Tree
p693
(dp694
g10
I0
sg16
I00
sbsg17
(imyEvolve
Tree
p695
(dp696
g10
I0
sg16
I00
sbsg20
I00
sg21
g22
sbsg20
I00
sg21
g47
sbsg20
I00
sg21
g29
sbsg17
(imyEvolve
Tree
p697
(dp698
g10
I3
sg11
(imyEvolve
Tree
p699
(dp700
g10
I2
sg11
(imyEvolve
Tree
p701
(dp702
g7
(imyEvolve
Tree
p703
(dp704
g10
I0
sg39
F-1.3118039509150705
sg16
I01
sbsg10
I1
sg20
I01
sg21
g30
sbsg17
(imyEvolve
Tree
p705
(dp706
g10
I1
sg11
(imyEvolve
Tree
p707
(dp708
g10
I0
sg16
I00
sbsg17
(imyEvolve
Tree
p709
(dp710
g10
I0
sg39
F-0.09487481705416823
sg16
I01
sbsg20
I00
sg21
g22
sbsg20
I00
sg21
g29
sbsg17
(imyEvolve
Tree
p711
(dp712
g10
I2
sg11
(imyEvolve
Tree
p713
(dp714
g7
(imyEvolve
Tree
p715
(dp716
g10
I0
sg16
I00
sbsg10
I1
sg20
I01
sg21
g121
sbsg17
(imyEvolve
Tree
p717
(dp718
g10
I1
sg11
(imyEvolve
Tree
p719
(dp720
g10
I0
sg39
F-4.992358412072553
sg16
I01
sbsg17
(imyEvolve
Tree
p721
(dp722
g10
I0
sg39
F-0.28604819880155485
sg16
I01
sbsg20
I00
sg21
g47
sbsg20
I00
sg21
g29
sbsg20
I00
sg21
g47
sbsg20
I00
sg21
g47
sbsg20
I00
sg21
g22
sba(imyEvolve
Tree
p723
(dp724
g11
(imyEvolve
Tree
p725
(dp726
g11
(imyEvolve
Tree
p727
(dp728
g7
(imyEvolve
Tree
p729
(dp730
g7
(imyEvolve
Tree
p731
(dp732
g10
I0
sg39
F2.493071552530779
sg16
I01
sbsg10
I1
sg20
I01
sg21
g104
sbsg10
I2
sg20
I01
sg21
g30
sbsg10
I3
sg17
(imyEvolve
Tree
p733
(dp734
g7
(imyEvolve
Tree
p735
(dp736
g11
(imyEvolve
Tree
p737
(dp738
g10
I0
sg39
F-1.9688625640355184
sg16
I01
sbsg10
I1
sg17
(imyEvolve
Tree
p739
(dp740
g10
I0
sg39
F0.8183637529579553
sg16
I01
sbsg20
I00
sg21
g29
sbsg10
I2
sg20
I01
sg21
g30
sbsg20
I00
sg21
g22
sbsg10
I4
sg17
(imyEvolve
Tree
p741
(dp742
g11
(imyEvolve
Tree
p743
(dp744
g7
(imyEvolve
Tree
p745
(dp746
g11
(imyEvolve
Tree
p747
(dp748
g10
I0
sg39
F-2.2051375433970644
sg16
I01
sbsg10
I1
sg17
(imyEvolve
Tree
p749
(dp750
g10
I0
sg16
I00
sbsg20
I00
sg21
g22
sbsg10
I2
sg20
I01
sg21
g121
sbsg10
I3
sg17
(imyEvolve
Tree
p751
(dp752
g11
(imyEvolve
Tree
p753
(dp754
g11
(imyEvolve
Tree
p755
(dp756
g10
I0
sg39
F2.904198862706444
sg16
I01
sbsg10
I1
sg17
(imyEvolve
Tree
p757
(dp758
g10
I0
sg16
I00
sbsg20
I00
sg21
g22
sbsg10
I2
sg17
(imyEvolve
Tree
p759
(dp760
g11
(imyEvolve
Tree
p761
(dp762
g10
I0
sg16
I00
sbsg10
I1
sg17
(imyEvolve
Tree
p763
(dp764
g10
I0
sg16
I00
sbsg20
I00
sg21
g22
sbsg20
I00
sg21
g47
sbsg20
I00
sg21
g47
sbsg20
I00
sg21
g29
sba(imyEvolve
Tree
p765
(dp766
g7
(imyEvolve
Tree
p767
(dp768
g7
(imyEvolve
Tree
p769
(dp770
g11
(imyEvolve
Tree
p771
(dp772
g11
(imyEvolve
Tree
p773
(dp774
g10
I0
sg39
F1.6054879235135502
sg16
I01
sbsg10
I1
sg17
(imyEvolve
Tree
p775
(dp776
g10
I0
sg16
I00
sbsg20
I00
sg21
g22
sbsg10
I2
sg17
(imyEvolve
Tree
p777
(dp778
g7
(imyEvolve
Tree
p779
(dp780
g10
I0
sg39
F-0.1047063834828057
sg16
I01
sbsg10
I1
sg20
I01
sg21
g40
sbsg20
I00
sg21
g29
sbsg10
I3
sg20
I01
sg21
g121
sbsg10
I4
sg20
I01
sg21
g30
sba(imyEvolve
Tree
p781
(dp782
g7
(imyEvolve
Tree
p783
(dp784
g10
I1
sg11
(imyEvolve
Tree
p785
(dp786
g10
I0
sg16
I00
sbsg17
(imyEvolve
Tree
p787
(dp788
g10
I0
sg39
F-3.550494470815726
sg16
I01
sbsg20
I00
sg21
g47
sbsg10
I2
sg20
I01
sg21
g121
sba(imyEvolve
Tree
p789
(dp790
g7
(imyEvolve
Tree
p791
(dp792
g10
I3
sg11
(imyEvolve
Tree
p793
(dp794
g10
I2
sg11
(imyEvolve
Tree
p795
(dp796
g10
I1
sg11
(imyEvolve
Tree
p797
(dp798
g10
I0
sg16
I00
sbsg17
(imyEvolve
Tree
p799
(dp800
g10
I0
sg39
F3.823974693175847
sg16
I01
sbsg20
I00
sg21
g47
sbsg17
(imyEvolve
Tree
p801
(dp802
g7
(imyEvolve
Tree
p803
(dp804
g10
I0
sg39
F-0.9014569619671757
sg16
I01
sbsg10
I1
sg20
I01
sg21
g104
sbsg20
I00
sg21
g29
sbsg17
(imyEvolve
Tree
p805
(dp806
g10
I2
sg11
(imyEvolve
Tree
p807
(dp808
g10
I1
sg11
(imyEvolve
Tree
p809
(dp810
g10
I0
sg39
F0.3190638355340356
sg16
I01
sbsg17
(imyEvolve
Tree
p811
(dp812
g10
I0
sg39
F0.5797368528647535
sg16
I01
sbsg20
I00
sg21
g47
sbsg17
(imyEvolve
Tree
p813
(dp814
g10
I1
sg11
(imyEvolve
Tree
p815
(dp816
g10
I0
sg39
F-3.5165221412674077
sg16
I01
sbsg17
(imyEvolve
Tree
p817
(dp818
g10
I0
sg16
I00
sbsg20
I00
sg21
g22
sbsg20
I00
sg21
g22
sbsg20
I00
sg21
g29
sbsg10
I4
sg20
I01
sg21
g121
sba(imyEvolve
Tree
p819
(dp820
g11
(imyEvolve
Tree
p821
(dp822
g7
(imyEvolve
Tree
p823
(dp824
g7
(imyEvolve
Tree
p825
(dp826
g11
(imyEvolve
Tree
p827
(dp828
g7
(imyEvolve
Tree
p829
(dp830
g10
I0
sg16
I00
sbsg10
I1
sg20
I01
sg21
g104
sbsg10
I2
sg17
(imyEvolve
Tree
p831
(dp832
g7
(imyEvolve
Tree
p833
(dp834
g10
I0
sg39
F-0.03294635525347367
sg16
I01
sbsg10
I1
sg20
I01
sg21
g40
sbsg20
I00
sg21
g29
sbsg10
I3
sg20
I01
sg21
g30
sbsg10
I4
sg20
I01
sg21
g40
sbsg10
I5
sg17
(imyEvolve
Tree
p835
(dp836
g11
(imyEvolve
Tree
p837
(dp838
g11
(imyEvolve
Tree
p839
(dp840
g11
(imyEvolve
Tree
p841
(dp842
g11
(imyEvolve
Tree
p843
(dp844
g10
I0
sg39
F3.5746065104116163
sg16
I01
sbsg10
I1
sg17
(imyEvolve
Tree
p845
(dp846
g10
I0
sg16
I00
sbsg20
I00
sg21
g22
sbsg10
I2
sg17
(imyEvolve
Tree
p847
(dp848
g7
(imyEvolve
Tree
p849
(dp850
g10
I0
sg39
F1.8914341788979359
sg16
I01
sbsg10
I1
sg20
I01
sg21
g30
sbsg20
I00
sg21
g29
sbsg10
I3
sg17
(imyEvolve
Tree
p851
(dp852
g7
(imyEvolve
Tree
p853
(dp854
g7
(imyEvolve
Tree
p855
(dp856
g10
I0
sg16
I00
sbsg10
I1
sg20
I01
sg21
g121
sbsg10
I2
sg20
I01
sg21
g121
sbsg20
I00
sg21
g22
sbsg10
I4
sg17
(imyEvolve
Tree
p857
(dp858
g11
(imyEvolve
Tree
p859
(dp860
g7
(imyEvolve
Tree
p861
(dp862
g11
(imyEvolve
Tree
p863
(dp864
g10
I0
sg39
F4.407086264078725
sg16
I01
sbsg10
I1
sg17
(imyEvolve
Tree
p865
(dp866
g10
I0
sg16
I00
sbsg20
I00
sg21
g22
sbsg10
I2
sg20
I01
sg21
g40
sbsg10
I3
sg17
(imyEvolve
Tree
p867
(dp868
g7
(imyEvolve
Tree
p869
(dp870
g11
(imyEvolve
Tree
p871
(dp872
g10
I0
sg16
I00
sbsg10
I1
sg17
(imyEvolve
Tree
p873
(dp874
g10
I0
sg16
I00
sbsg20
I00
sg21
g22
sbsg10
I2
sg20
I01
sg21
g121
sbsg20
I00
sg21
g22
sbsg20
I00
sg21
g47
sbsg20
I00
sg21
g47
sba(imyEvolve
Tree
p875
(dp876
g7
(imyEvolve
Tree
p877
(dp878
g7
(imyEvolve
Tree
p879
(dp880
g10
I0
sg39
F3.3998140563506
sg16
I01
sbsg10
I1
sg20
I01
sg21
g121
sbsg10
I2
sg20
I01
sg21
g121
sba(imyEvolve
Tree
p881
(dp882
g11
(imyEvolve
Tree
p883
(dp884
g7
(imyEvolve
Tree
p885
(dp886
g10
I0
sg16
I00
sbsg10
I1
sg20
I01
sg21
g104
sbsg10
I2
sg17
(imyEvolve
Tree
p887
(dp888
g7
(imyEvolve
Tree
p889
(dp890
g10
I0
sg39
F4.337476903860351
sg16
I01
sbsg10
I1
sg20
I01
sg21
g40
sbsg20
I00
sg21
g47
sba(imyEvolve
Tree
p891
(dp892
g7
(imyEvolve
Tree
p893
(dp894
g11
(imyEvolve
Tree
p895
(dp896
g11
(imyEvolve
Tree
p897
(dp898
g10
I0
sg16
I00
sbsg10
I1
sg17
(imyEvolve
Tree
p899
(dp900
g10
I0
sg16
I00
sbsg20
I00
sg21
g29
sbsg10
I2
sg17
(imyEvolve
Tree
p901
(dp902
g7
(imyEvolve
Tree
p903
(dp904
g10
I0
sg39
F-4.706496241494607
sg16
I01
sbsg10
I1
sg20
I01
sg21
g104
sbsg20
I00
sg21
g22
sbsg10
I3
sg20
I01
sg21
g104
sba(imyEvolve
Tree
p905
(dp906
g11
(imyEvolve
Tree
p907
(dp908
g7
(imyEvolve
Tree
p909
(dp910
g11
(imyEvolve
Tree
p911
(dp912
g11
(imyEvolve
Tree
p913
(dp914
g7
(imyEvolve
Tree
p915
(dp916
g10
I0
sg16
I00
sbsg10
I1
sg20
I01
sg21
g104
sbsg10
I2
sg17
(imyEvolve
Tree
p917
(dp918
g7
(imyEvolve
Tree
p919
(dp920
g10
I0
sg16
I00
sbsg10
I1
sg20
I01
sg21
g40
sbsg20
I00
sg21
g47
sbsg10
I3
sg17
(imyEvolve
Tree
p921
(dp922
g11
(imyEvolve
Tree
p923
(dp924
g7
(imyEvolve
Tree
p925
(dp926
g10
I0
sg16
I00
sbsg10
I1
sg20
I01
sg21
g40
sbsg10
I2
sg17
(imyEvolve
Tree
p927
(dp928
g11
(imyEvolve
Tree
p929
(dp930
g10
I0
sg39
F-4.378350185480336
sg16
I01
sbsg10
I1
sg17
(imyEvolve
Tree
p931
(dp932
g10
I0
sg16
I00
sbsg20
I00
sg21
g29
sbsg20
I00
sg21
g47
sbsg20
I00
sg21
g22
sbsg10
I4
sg20
I01
sg21
g40
sbsg10
I5
sg17
(imyEvolve
Tree
p933
(dp934
g7
(imyEvolve
Tree
p935
(dp936
g7
(imyEvolve
Tree
p937
(dp938
g7
(imyEvolve
Tree
p939
(dp940
g11
(imyEvolve
Tree
p941
(dp942
g10
I0
sg39
F-4.466750014225425
sg16
I01
sbsg10
I1
sg17
(imyEvolve
Tree
p943
(dp944
g10
I0
sg39
F0.9530944139931474
sg16
I01
sbsg20
I00
sg21
g47
sbsg10
I2
sg20
I01
sg21
g30
sbsg10
I3
sg20
I01
sg21
g30
sbsg10
I4
sg20
I01
sg21
g30
sbsg20
I00
sg21
g29
sba(imyEvolve
Tree
p945
(dp946
g11
(imyEvolve
Tree
p947
(dp948
g7
(imyEvolve
Tree
p949
(dp950
g7
(imyEvolve
Tree
p951
(dp952
g7
(imyEvolve
Tree
p953
(dp954
g7
(imyEvolve
Tree
p955
(dp956
g10
I0
sg39
F1.4540690969218737
sg16
I01
sbsg10
I1
sg20
I01
sg21
g104
sbsg10
I2
sg20
I01
sg21
g104
sbsg10
I3
sg20
I01
sg21
g104
sbsg10
I4
sg20
I01
sg21
g121
sbsg10
I5
sg17
(imyEvolve
Tree
p957
(dp958
g11
(imyEvolve
Tree
p959
(dp960
g7
(imyEvolve
Tree
p961
(dp962
g7
(imyEvolve
Tree
p963
(dp964
g11
(imyEvolve
Tree
p965
(dp966
g10
I0
sg16
I00
sbsg10
I1
sg17
(imyEvolve
Tree
p967
(dp968
g10
I0
sg39
F1.3619213335024494
sg16
I01
sbsg20
I00
sg21
g22
sbsg10
I2
sg20
I01
sg21
g30
sbsg10
I3
sg20
I01
sg21
g40
sbsg10
I4
sg17
(imyEvolve
Tree
p969
(dp970
g11
(imyEvolve
Tree
p971
(dp972
g11
(imyEvolve
Tree
p973
(dp974
g7
(imyEvolve
Tree
p975
(dp976
g10
I0
sg16
I00
sbsg10
I1
sg20
I01
sg21
g40
sbsg10
I2
sg17
(imyEvolve
Tree
p977
(dp978
g11
(imyEvolve
Tree
p979
(dp980
g10
I0
sg16
I00
sbsg10
I1
sg17
(imyEvolve
Tree
p981
(dp982
g10
I0
sg16
I00
sbsg20
I00
sg21
g47
sbsg20
I00
sg21
g29
sbsg10
I3
sg17
(imyEvolve
Tree
p983
(dp984
g11
(imyEvolve
Tree
p985
(dp986
g11
(imyEvolve
Tree
p987
(dp988
g10
I0
sg16
I00
sbsg10
I1
sg17
(imyEvolve
Tree
p989
(dp990
g10
I0
sg16
I00
sbsg20
I00
sg21
g47
sbsg10
I2
sg17
(imyEvolve
Tree
p991
(dp992
g7
(imyEvolve
Tree
p993
(dp994
g10
I0
sg16
I00
sbsg10
I1
sg20
I01
sg21
g121
sbsg20
I00
sg21
g22
sbsg20
I00
sg21
g47
sbsg20
I00
sg21
g22
sbsg20
I00
sg21
g22
sbaa(lp995
(imyEvolve
Tree
p996
(dp997
g10
I2
sg11
(imyEvolve
Tree
p998
(dp999
g10
I1
sg11
(imyEvolve
Tree
p1000
(dp1001
g10
I0
sg16
I00
sbsg17
(imyEvolve
Tree
p1002
(dp1003
g10
I0
sg16
I00
sbsg20
I00
sg21
g47
sbsg17
(imyEvolve
Tree
p1004
(dp1005
g7
(imyEvolve
Tree
p1006
(dp1007
g10
I0
sg16
I00
sbsg10
I1
sg20
I01
sg21
g121
sbsg20
I00
sg21
g22
sba(imyEvolve
Tree
p1008
(dp1009
g10
I5
sg11
(imyEvolve
Tree
p1010
(dp1011
g7
(imyEvolve
Tree
p1012
(dp1013
g10
I3
sg11
(imyEvolve
Tree
p1014
(dp1015
g10
I2
sg11
(imyEvolve
Tree
p1016
(dp1017
g7
(imyEvolve
Tree
p1018
(dp1019
g10
I0
sg16
I00
sbsg10
I1
sg20
I01
sg21
g30
sbsg17
(imyEvolve
Tree
p1020
(dp1021
g7
(imyEvolve
Tree
p1022
(dp1023
g10
I0
sg16
I00
sbsg10
I1
sg20
I01
sg21
g121
sbsg20
I00
sg21
g47
sbsg17
(imyEvolve
Tree
p1024
(dp1025
g7
(imyEvolve
Tree
p1026
(dp1027
g10
I1
sg11
(imyEvolve
Tree
p1028
(dp1029
g10
I0
sg16
I00
sbsg17
(imyEvolve
Tree
p1030
(dp1031
g10
I0
sg16
I00
sbsg20
I00
sg21
g47
sbsg10
I2
sg20
I01
sg21
g40
sbsg20
I00
sg21
g22
sbsg10
I4
sg20
I01
sg21
g121
sbsg17
(imyEvolve
Tree
p1032
(dp1033
g7
(imyEvolve
Tree
p1034
(dp1035
g7
(imyEvolve
Tree
p1036
(dp1037
g7
(imyEvolve
Tree
p1038
(dp1039
g7
(imyEvolve
Tree
p1040
(dp1041
g10
I0
sg16
I00
sbsg10
I1
sg20
I01
sg21
g30
sbsg10
I2
sg20
I01
sg21
g104
sbsg10
I3
sg20
I01
sg21
g104
sbsg10
I4
sg20
I01
sg21
g40
sbsg20
I00
sg21
g47
sba(imyEvolve
Tree
p1042
(dp1043
g7
(imyEvolve
Tree
p1044
(dp1045
g10
I2
sg11
(imyEvolve
Tree
p1046
(dp1047
g10
I1
sg11
(imyEvolve
Tree
p1048
(dp1049
g10
I0
sg16
I00
sbsg17
(imyEvolve
Tree
p1050
(dp1051
g10
I0
sg16
I00
sbsg20
I00
sg21
g22
sbsg17
(imyEvolve
Tree
p1052
(dp1053
g7
(imyEvolve
Tree
p1054
(dp1055
g10
I0
sg16
I00
sbsg10
I1
sg20
I01
sg21
g30
sbsg20
I00
sg21
g29
sbsg10
I3
sg20
I01
sg21
g40
sba(imyEvolve
Tree
p1056
(dp1057
g7
(imyEvolve
Tree
p1058
(dp1059
g7
(imyEvolve
Tree
p1060
(dp1061
g10
I1
sg11
(imyEvolve
Tree
p1062
(dp1063
g10
I0
sg39
F1.1500462031136873
sg16
I01
sbsg17
(imyEvolve
Tree
p1064
(dp1065
g10
I0
sg39
F1.219603001976223
sg16
I01
sbsg20
I00
sg21
g29
sbsg10
I2
sg20
I01
sg21
g121
sbsg10
I3
sg20
I01
sg21
g40
sba(imyEvolve
Tree
p1066
(dp1067
g7
(imyEvolve
Tree
p1068
(dp1069
g10
I4
sg11
(imyEvolve
Tree
p1070
(dp1071
g7
(imyEvolve
Tree
p1072
(dp1073
g7
(imyEvolve
Tree
p1074
(dp1075
g7
(imyEvolve
Tree
p1076
(dp1077
g10
I0
sg16
I00
sbsg10
I1
sg20
I01
sg21
g30
sbsg10
I2
sg20
I01
sg21
g121
sbsg10
I3
sg20
I01
sg21
g121
sbsg17
(imyEvolve
Tree
p1078
(dp1079
g10
I3
sg11
(imyEvolve
Tree
p1080
(dp1081
g10
I2
sg11
(imyEvolve
Tree
p1082
(dp1083
g10
I1
sg11
(imyEvolve
Tree
p1084
(dp1085
g10
I0
sg39
F-4.969077324467591
sg16
I01
sbsg17
(imyEvolve
Tree
p1086
(dp1087
g10
I0
sg16
I00
sbsg20
I00
sg21
g47
sbsg17
(imyEvolve
Tree
p1088
(dp1089
g10
I1
sg11
(imyEvolve
Tree
p1090
(dp1091
g10
I0
sg16
I00
sbsg17
(imyEvolve
Tree
p1092
(dp1093
g10
I0
sg16
I00
sbsg20
I00
sg21
g29
sbsg20
I00
sg21
g29
sbsg17
(imyEvolve
Tree
p1094
(dp1095
g10
I2
sg11
(imyEvolve
Tree
p1096
(dp1097
g7
(imyEvolve
Tree
p1098
(dp1099
g10
I0
sg39
F-3.7404130600147942
sg16
I01
sbsg10
I1
sg20
I01
sg21
g40
sbsg17
(imyEvolve
Tree
p1100
(dp1101
g10
I1
sg11
(imyEvolve
Tree
p1102
(dp1103
g10
I0
sg39
F-3.404475552829637
sg16
I01
sbsg17
(imyEvolve
Tree
p1104
(dp1105
g10
I0
sg39
F3.4253376126083683
sg16
I01
sbsg20
I00
sg21
g22
sbsg20
I00
sg21
g29
sbsg20
I00
sg21
g29
sbsg20
I00
sg21
g47
sbsg10
I5
sg20
I01
sg21
g104
sba(imyEvolve
Tree
p1106
(dp1107
g7
(imyEvolve
Tree
p1108
(dp1109
g10
I2
sg11
(imyEvolve
Tree
p1110
(dp1111
g10
I1
sg11
(imyEvolve
Tree
p1112
(dp1113
g10
I0
sg39
F-1.186725159388632
sg16
I01
sbsg17
(imyEvolve
Tree
p1114
(dp1115
g10
I0
sg16
I00
sbsg20
I00
sg21
g47
sbsg17
(imyEvolve
Tree
p1116
(dp1117
g7
(imyEvolve
Tree
p1118
(dp1119
g10
I0
sg39
F2.959045450196994
sg16
I01
sbsg10
I1
sg20
I01
sg21
g40
sbsg20
I00
sg21
g29
sbsg10
I3
sg20
I01
sg21
g40
sba(imyEvolve
Tree
p1120
(dp1121
g10
I4
sg11
(imyEvolve
Tree
p1122
(dp1123
g7
(imyEvolve
Tree
p1124
(dp1125
g10
I2
sg11
(imyEvolve
Tree
p1126
(dp1127
g10
I1
sg11
(imyEvolve
Tree
p1128
(dp1129
g10
I0
sg16
I00
sbsg17
(imyEvolve
Tree
p1130
(dp1131
g10
I0
sg39
F-2.472799189254652
sg16
I01
sbsg20
I00
sg21
g22
sbsg17
(imyEvolve
Tree
p1132
(dp1133
g10
I1
sg11
(imyEvolve
Tree
p1134
(dp1135
g10
I0
sg39
F0.5845703154146031
sg16
I01
sbsg17
(imyEvolve
Tree
p1136
(dp1137
g10
I0
sg16
I00
sbsg20
I00
sg21
g29
sbsg20
I00
sg21
g29
sbsg10
I3
sg20
I01
sg21
g121
sbsg17
(imyEvolve
Tree
p1138
(dp1139
g7
(imyEvolve
Tree
p1140
(dp1141
g7
(imyEvolve
Tree
p1142
(dp1143
g10
I1
sg11
(imyEvolve
Tree
p1144
(dp1145
g10
I0
sg16
I00
sbsg17
(imyEvolve
Tree
p1146
(dp1147
g10
I0
sg16
I00
sbsg20
I00
sg21
g22
sbsg10
I2
sg20
I01
sg21
g30
sbsg10
I3
sg20
I01
sg21
g40
sbsg20
I00
sg21
g22
sba(imyEvolve
Tree
p1148
(dp1149
g10
I4
sg11
(imyEvolve
Tree
p1150
(dp1151
g7
(imyEvolve
Tree
p1152
(dp1153
g10
I2
sg11
(imyEvolve
Tree
p1154
(dp1155
g10
I1
sg11
(imyEvolve
Tree
p1156
(dp1157
g10
I0
sg16
I00
sbsg17
(imyEvolve
Tree
p1158
(dp1159
g10
I0
sg39
F1.941299764173765
sg16
I01
sbsg20
I00
sg21
g29
sbsg17
(imyEvolve
Tree
p1160
(dp1161
g10
I1
sg11
(imyEvolve
Tree
p1162
(dp1163
g10
I0
sg16
I00
sbsg17
(imyEvolve
Tree
p1164
(dp1165
g10
I0
sg16
I00
sbsg20
I00
sg21
g22
sbsg20
I00
sg21
g29
sbsg10
I3
sg20
I01
sg21
g30
sbsg17
(imyEvolve
Tree
p1166
(dp1167
g7
(imyEvolve
Tree
p1168
(dp1169
g7
(imyEvolve
Tree
p1170
(dp1171
g10
I1
sg11
(imyEvolve
Tree
p1172
(dp1173
g10
I0
sg39
F1.255340873112063
sg16
I01
sbsg17
(imyEvolve
Tree
p1174
(dp1175
g10
I0
sg39
F1.2207717900647905
sg16
I01
sbsg20
I00
sg21
g22
sbsg10
I2
sg20
I01
sg21
g121
sbsg10
I3
sg20
I01
sg21
g104
sbsg20
I00
sg21
g47
sba(imyEvolve
Tree
p1176
(dp1177
g7
(imyEvolve
Tree
p1178
(dp1179
g7
(imyEvolve
Tree
p1180
(dp1181
g10
I0
sg16
I00
sbsg10
I1
sg20
I01
sg21
g40
sbsg10
I2
sg20
I01
sg21
g30
sba(imyEvolve
Tree
p1182
(dp1183
g7
(imyEvolve
Tree
p1184
(dp1185
g10
I1
sg11
(imyEvolve
Tree
p1186
(dp1187
g10
I0
sg39
F-0.8336007541287209
sg16
I01
sbsg17
(imyEvolve
Tree
p1188
(dp1189
g10
I0
sg16
I00
sbsg20
I00
sg21
g47
sbsg10
I2
sg20
I01
sg21
g104
sba(imyEvolve
Tree
p1190
(dp1191
g10
I4
sg11
(imyEvolve
Tree
p1192
(dp1193
g10
I3
sg11
(imyEvolve
Tree
p1194
(dp1195
g10
I2
sg11
(imyEvolve
Tree
p1196
(dp1197
g7
(imyEvolve
Tree
p1198
(dp1199
g10
I0
sg16
I00
sbsg10
I1
sg20
I01
sg21
g40
sbsg17
(imyEvolve
Tree
p1200
(dp1201
g10
I1
sg11
(imyEvolve
Tree
p1202
(dp1203
g10
I0
sg16
I00
sbsg17
(imyEvolve
Tree
p1204
(dp1205
g10
I0
sg16
I00
sbsg20
I00
sg21
g47
sbsg20
I00
sg21
g47
sbsg17
(imyEvolve
Tree
p1206
(dp1207
g7
(imyEvolve
Tree
p1208
(dp1209
g10
I1
sg11
(imyEvolve
Tree
p1210
(dp1211
g10
I0
sg16
I00
sbsg17
(imyEvolve
Tree
p1212
(dp1213
g10
I0
sg39
F4.973837472061891
sg16
I01
sbsg20
I00
sg21
g22
sbsg10
I2
sg20
I01
sg21
g104
sbsg20
I00
sg21
g47
sbsg17
(imyEvolve
Tree
p1214
(dp1215
g10
I3
sg11
(imyEvolve
Tree
p1216
(dp1217
g10
I2
sg11
(imyEvolve
Tree
p1218
(dp1219
g7
(imyEvolve
Tree
p1220
(dp1221
g10
I0
sg16
I00
sbsg10
I1
sg20
I01
sg21
g30
sbsg17
(imyEvolve
Tree
p1222
(dp1223
g10
I1
sg11
(imyEvolve
Tree
p1224
(dp1225
g10
I0
sg39
F0.21293881463319586
sg16
I01
sbsg17
(imyEvolve
Tree
p1226
(dp1227
g10
I0
sg39
F-2.331149582713896
sg16
I01
sbsg20
I00
sg21
g22
sbsg20
I00
sg21
g47
sbsg17
(imyEvolve
Tree
p1228
(dp1229
g7
(imyEvolve
Tree
p1230
(dp1231
g10
I1
sg11
(imyEvolve
Tree
p1232
(dp1233
g10
I0
sg39
F4.109092500174995
sg16
I01
sbsg17
(imyEvolve
Tree
p1234
(dp1235
g10
I0
sg39
F-1.9588588306087882
sg16
I01
sbsg20
I00
sg21
g22
sbsg10
I2
sg20
I01
sg21
g30
sbsg20
I00
sg21
g22
sbsg20
I00
sg21
g29
sba(imyEvolve
Tree
p1236
(dp1237
g7
(imyEvolve
Tree
p1238
(dp1239
g7
(imyEvolve
Tree
p1240
(dp1241
g10
I2
sg11
(imyEvolve
Tree
p1242
(dp1243
g7
(imyEvolve
Tree
p1244
(dp1245
g10
I0
sg39
F2.5102849509239533
sg16
I01
sbsg10
I1
sg20
I01
sg21
g30
sbsg17
(imyEvolve
Tree
p1246
(dp1247
g7
(imyEvolve
Tree
p1248
(dp1249
g10
I0
sg39
F2.675180054701011
sg16
I01
sbsg10
I1
sg20
I01
sg21
g40
sbsg20
I00
sg21
g47
sbsg10
I3
sg20
I01
sg21
g30
sbsg10
I4
sg20
I01
sg21
g30
sbaasS'alpha'
p1250
F0.0025506773862888268
sS'fitness'
p1251
cnumpy.core.multiarray
scalar
p1252
(cnumpy
dtype
p1253
(S'f8'
p1254
I0
I1
tp1255
Rp1256
(I3
S'<'
p1257
NNNI-1
I-1
I0
tp1258
bS'l\t\xf9\x90k\x1d\xe6?'
p1259
tp1260
Rp1261
sS'weightSharing'
p1262
(lp1263
I01
asS'fitnessValid'
p1264
I00
sS'resolution'
p1265
I74
sb.