(imyEvolve
Individual
p0
(dp1
S'funcs'
p2
(lp3
(lp4
(imyEvolve
Tree
p5
(dp6
S'below'
p7
(imyEvolve
Tree
p8
(dp9
g7
(imyEvolve
Tree
p10
(dp11
g7
(imyEvolve
Tree
p12
(dp13
S'depth'
p14
I1
sS'left'
p15
(imyEvolve
Tree
p16
(dp17
g14
I0
sS'constant'
p18
F-3.7446465606771517
sS'isConstant'
p19
I01
sbsS'right'
p20
(imyEvolve
Tree
p21
(dp22
g14
I0
sg18
F-2.0872640064558956
sg19
I01
sbsS'single'
p23
I00
sS'op'
p24
coperator
sub
p25
sbsg14
I2
sg23
I01
sg24
cmyEvolve
square
p26
sbsg14
I3
sg23
I01
sg24
cmath
cos
p27
sbsg14
I4
sg23
I01
sg24
g27
sba(imyEvolve
Tree
p28
(dp29
g7
(imyEvolve
Tree
p30
(dp31
g7
(imyEvolve
Tree
p32
(dp33
g14
I0
sg19
I00
sbsg14
I1
sg23
I01
sg24
cmath
sin
p34
sbsg14
I2
sg23
I01
sg24
g27
sba(imyEvolve
Tree
p35
(dp36
g7
(imyEvolve
Tree
p37
(dp38
g15
(imyEvolve
Tree
p39
(dp40
g14
I0
sg19
I00
sbsg14
I1
sg20
(imyEvolve
Tree
p41
(dp42
g14
I0
sg18
F-1.5297780222098778
sg19
I01
sbsg23
I00
sg24
coperator
add
p43
sbsg14
I2
sg23
I01
sg24
g26
sba(imyEvolve
Tree
p44
(dp45
g14
I3
sg15
(imyEvolve
Tree
p46
(dp47
g14
I2
sg15
(imyEvolve
Tree
p48
(dp49
g14
I1
sg15
(imyEvolve
Tree
p50
(dp51
g14
I0
sg19
I00
sbsg20
(imyEvolve
Tree
p52
(dp53
g14
I0
sg19
I00
sbsg23
I00
sg24
g25
sbsg20
(imyEvolve
Tree
p54
(dp55
g7
(imyEvolve
Tree
p56
(dp57
g14
I0
sg19
I00
sbsg14
I1
sg23
I01
sg24
cmyEvolve
absSqrt
p58
sbsg23
I00
sg24
g43
sbsg20
(imyEvolve
Tree
p59
(dp60
g14
I2
sg15
(imyEvolve
Tree
p61
(dp62
g14
I1
sg15
(imyEvolve
Tree
p63
(dp64
g14
I0
sg18
F-1.9157422935601867
sg19
I01
sbsg20
(imyEvolve
Tree
p65
(dp66
g14
I0
sg19
I00
sbsg23
I00
sg24
g43
sbsg20
(imyEvolve
Tree
p67
(dp68
g14
I1
sg15
(imyEvolve
Tree
p69
(dp70
g14
I0
sg19
I00
sbsg20
(imyEvolve
Tree
p71
(dp72
g14
I0
sg18
F-4.283284214985072
sg19
I01
sbsg23
I00
sg24
g43
sbsg23
I00
sg24
g43
sbsg23
I00
sg24
g25
sba(imyEvolve
Tree
p73
(dp74
g7
(imyEvolve
Tree
p75
(dp76
g15
(imyEvolve
Tree
p77
(dp78
g15
(imyEvolve
Tree
p79
(dp80
g7
(imyEvolve
Tree
p81
(dp82
g7
(imyEvolve
Tree
p83
(dp84
g14
I0
sg19
I00
sbsg14
I1
sg23
I01
sg24
g34
sbsg14
I2
sg23
I01
sg24
g58
sbsg14
I3
sg20
(imyEvolve
Tree
p85
(dp86
g15
(imyEvolve
Tree
p87
(dp88
g7
(imyEvolve
Tree
p89
(dp90
g14
I0
sg18
F1.6332381595393155
sg19
I01
sbsg14
I1
sg23
I01
sg24
g58
sbsg14
I2
sg20
(imyEvolve
Tree
p91
(dp92
g7
(imyEvolve
Tree
p93
(dp94
g14
I0
sg19
I00
sbsg14
I1
sg23
I01
sg24
g26
sbsg23
I00
sg24
g43
sbsg23
I00
sg24
g43
sbsg14
I4
sg20
(imyEvolve
Tree
p95
(dp96
g7
(imyEvolve
Tree
p97
(dp98
g15
(imyEvolve
Tree
p99
(dp100
g15
(imyEvolve
Tree
p101
(dp102
g14
I0
sg18
F4.8524345854550965
sg19
I01
sbsg14
I1
sg20
(imyEvolve
Tree
p103
(dp104
g14
I0
sg18
F0.8169634613320884
sg19
I01
sbsg23
I00
sg24
coperator
mul
p105
sbsg14
I2
sg20
(imyEvolve
Tree
p106
(dp107
g7
(imyEvolve
Tree
p108
(dp109
g14
I0
sg19
I00
sbsg14
I1
sg23
I01
sg24
g26
sbsg23
I00
sg24
g25
sbsg14
I3
sg23
I01
sg24
g34
sbsg23
I00
sg24
g105
sbsg14
I5
sg23
I01
sg24
g26
sba(imyEvolve
Tree
p110
(dp111
g7
(imyEvolve
Tree
p112
(dp113
g15
(imyEvolve
Tree
p114
(dp115
g7
(imyEvolve
Tree
p116
(dp117
g14
I0
sg19
I00
sbsg14
I1
sg23
I01
sg24
g58
sbsg14
I2
sg20
(imyEvolve
Tree
p118
(dp119
g15
(imyEvolve
Tree
p120
(dp121
g14
I0
sg18
F-3.4731268840405005
sg19
I01
sbsg14
I1
sg20
(imyEvolve
Tree
p122
(dp123
g14
I0
sg18
F0.7724480232484101
sg19
I01
sbsg23
I00
sg24
g43
sbsg23
I00
sg24
g105
sbsg14
I3
sg23
I01
sg24
g27
sba(imyEvolve
Tree
p124
(dp125
g15
(imyEvolve
Tree
p126
(dp127
g7
(imyEvolve
Tree
p128
(dp129
g15
(imyEvolve
Tree
p130
(dp131
g7
(imyEvolve
Tree
p132
(dp133
g15
(imyEvolve
Tree
p134
(dp135
g14
I0
sg19
I00
sbsg14
I1
sg20
(imyEvolve
Tree
p136
(dp137
g14
I0
sg18
F-3.280107237908949
sg19
I01
sbsg23
I00
sg24
g43
sbsg14
I2
sg23
I01
sg24
g26
sbsg14
I3
sg20
(imyEvolve
Tree
p138
(dp139
g15
(imyEvolve
Tree
p140
(dp141
g7
(imyEvolve
Tree
p142
(dp143
g14
I0
sg19
I00
sbsg14
I1
sg23
I01
sg24
g58
sbsg14
I2
sg20
(imyEvolve
Tree
p144
(dp145
g7
(imyEvolve
Tree
p146
(dp147
g14
I0
sg19
I00
sbsg14
I1
sg23
I01
sg24
g26
sbsg23
I00
sg24
g43
sbsg23
I00
sg24
g43
sbsg14
I4
sg23
I01
sg24
g26
sbsg14
I5
sg20
(imyEvolve
Tree
p148
(dp149
g15
(imyEvolve
Tree
p150
(dp151
g15
(imyEvolve
Tree
p152
(dp153
g7
(imyEvolve
Tree
p154
(dp155
g7
(imyEvolve
Tree
p156
(dp157
g14
I0
sg18
F0.21132415384433134
sg19
I01
sbsg14
I1
sg23
I01
sg24
g58
sbsg14
I2
sg23
I01
sg24
g27
sbsg14
I3
sg20
(imyEvolve
Tree
p158
(dp159
g15
(imyEvolve
Tree
p160
(dp161
g15
(imyEvolve
Tree
p162
(dp163
g14
I0
sg19
I00
sbsg14
I1
sg20
(imyEvolve
Tree
p164
(dp165
g14
I0
sg19
I00
sbsg23
I00
sg24
g105
sbsg14
I2
sg20
(imyEvolve
Tree
p166
(dp167
g15
(imyEvolve
Tree
p168
(dp169
g14
I0
sg19
I00
sbsg14
I1
sg20
(imyEvolve
Tree
p170
(dp171
g14
I0
sg19
I00
sbsg23
I00
sg24
g105
sbsg23
I00
sg24
g43
sbsg23
I00
sg24
g43
sbsg14
I4
sg20
(imyEvolve
Tree
p172
(dp173
g7
(imyEvolve
Tree
p174
(dp175
g7
(imyEvolve
Tree
p176
(dp177
g15
(imyEvolve
Tree
p178
(dp179
g14
I0
sg19
I00
sbsg14
I1
sg20
(imyEvolve
Tree
p180
(dp181
g14
I0
sg19
I00
sbsg23
I00
sg24
g25
sbsg14
I2
sg23
I01
sg24
g27
sbsg14
I3
sg23
I01
sg24
g27
sbsg23
I00
sg24
g25
sbsg23
I00
sg24
g105
sba(imyEvolve
Tree
p182
(dp183
g7
(imyEvolve
Tree
p184
(dp185
g7
(imyEvolve
Tree
p186
(dp187
g14
I0
sg18
F0.2913606689884407
sg19
I01
sbsg14
I1
sg23
I01
sg24
g58
sbsg14
I2
sg23
I01
sg24
g27
sba(imyEvolve
Tree
p188
(dp189
g7
(imyEvolve
Tree
p190
(dp191
g7
(imyEvolve
Tree
p192
(dp193
g15
(imyEvolve
Tree
p194
(dp195
g15
(imyEvolve
Tree
p196
(dp197
g14
I0
sg18
F-2.029690646546981
sg19
I01
sbsg14
I1
sg20
(imyEvolve
Tree
p198
(dp199
g14
I0
sg18
F3.739655075523169
sg19
I01
sbsg23
I00
sg24
g43
sbsg14
I2
sg20
(imyEvolve
Tree
p200
(dp201
g15
(imyEvolve
Tree
p202
(dp203
g14
I0
sg19
I00
sbsg14
I1
sg20
(imyEvolve
Tree
p204
(dp205
g14
I0
sg19
I00
sbsg23
I00
sg24
g105
sbsg23
I00
sg24
g43
sbsg14
I3
sg23
I01
sg24
g27
sbsg14
I4
sg23
I01
sg24
g34
sba(imyEvolve
Tree
p206
(dp207
g14
I3
sg15
(imyEvolve
Tree
p208
(dp209
g7
(imyEvolve
Tree
p210
(dp211
g7
(imyEvolve
Tree
p212
(dp213
g14
I0
sg19
I00
sbsg14
I1
sg23
I01
sg24
g34
sbsg14
I2
sg23
I01
sg24
g34
sbsg20
(imyEvolve
Tree
p214
(dp215
g7
(imyEvolve
Tree
p216
(dp217
g14
I1
sg15
(imyEvolve
Tree
p218
(dp219
g14
I0
sg19
I00
sbsg20
(imyEvolve
Tree
p220
(dp221
g14
I0
sg19
I00
sbsg23
I00
sg24
g105
sbsg14
I2
sg23
I01
sg24
g26
sbsg23
I00
sg24
g43
sba(imyEvolve
Tree
p222
(dp223
g15
(imyEvolve
Tree
p224
(dp225
g15
(imyEvolve
Tree
p226
(dp227
g14
I0
sg19
I00
sbsg14
I1
sg20
(imyEvolve
Tree
p228
(dp229
g14
I0
sg19
I00
sbsg23
I00
sg24
g105
sbsg14
I2
sg20
(imyEvolve
Tree
p230
(dp231
g7
(imyEvolve
Tree
p232
(dp233
g14
I0
sg19
I00
sbsg14
I1
sg23
I01
sg24
g27
sbsg23
I00
sg24
g105
sba(imyEvolve
Tree
p234
(dp235
g7
(imyEvolve
Tree
p236
(dp237
g14
I2
sg15
(imyEvolve
Tree
p238
(dp239
g7
(imyEvolve
Tree
p240
(dp241
g14
I0
sg18
F-0.9630744644649862
sg19
I01
sbsg14
I1
sg23
I01
sg24
g34
sbsg20
(imyEvolve
Tree
p242
(dp243
g14
I1
sg15
(imyEvolve
Tree
p244
(dp245
g14
I0
sg18
F2.0448774199283415
sg19
I01
sbsg20
(imyEvolve
Tree
p246
(dp247
g14
I0
sg18
F-4.819589125336337
sg19
I01
sbsg23
I00
sg24
g105
sbsg23
I00
sg24
g105
sbsg14
I3
sg23
I01
sg24
g34
sba(imyEvolve
Tree
p248
(dp249
g14
I2
sg15
(imyEvolve
Tree
p250
(dp251
g14
I1
sg15
(imyEvolve
Tree
p252
(dp253
g14
I0
sg18
F2.1284132519047185
sg19
I01
sbsg20
(imyEvolve
Tree
p254
(dp255
g14
I0
sg19
I00
sbsg23
I00
sg24
g25
sbsg20
(imyEvolve
Tree
p256
(dp257
g7
(imyEvolve
Tree
p258
(dp259
g14
I0
sg18
F4.0426699661847145
sg19
I01
sbsg14
I1
sg23
I01
sg24
g58
sbsg23
I00
sg24
g25
sba(imyEvolve
Tree
p260
(dp261
g15
(imyEvolve
Tree
p262
(dp263
g7
(imyEvolve
Tree
p264
(dp265
g7
(imyEvolve
Tree
p266
(dp267
g15
(imyEvolve
Tree
p268
(dp269
g14
I0
sg19
I00
sbsg14
I1
sg20
(imyEvolve
Tree
p270
(dp271
g14
I0
sg18
F-4.2658845076695435
sg19
I01
sbsg23
I00
sg24
g43
sbsg14
I2
sg23
I01
sg24
g58
sbsg14
I3
sg23
I01
sg24
g27
sbsg14
I4
sg20
(imyEvolve
Tree
p272
(dp273
g15
(imyEvolve
Tree
p274
(dp275
g15
(imyEvolve
Tree
p276
(dp277
g7
(imyEvolve
Tree
p278
(dp279
g14
I0
sg18
F-0.7151891930270349
sg19
I01
sbsg14
I1
sg23
I01
sg24
g34
sbsg14
I2
sg20
(imyEvolve
Tree
p280
(dp281
g15
(imyEvolve
Tree
p282
(dp283
g14
I0
sg19
I00
sbsg14
I1
sg20
(imyEvolve
Tree
p284
(dp285
g14
I0
sg19
I00
sbsg23
I00
sg24
g25
sbsg23
I00
sg24
g43
sbsg14
I3
sg20
(imyEvolve
Tree
p286
(dp287
g15
(imyEvolve
Tree
p288
(dp289
g15
(imyEvolve
Tree
p290
(dp291
g14
I0
sg19
I00
sbsg14
I1
sg20
(imyEvolve
Tree
p292
(dp293
g14
I0
sg19
I00
sbsg23
I00
sg24
g25
sbsg14
I2
sg20
(imyEvolve
Tree
p294
(dp295
g7
(imyEvolve
Tree
p296
(dp297
g14
I0
sg19
I00
sbsg14
I1
sg23
I01
sg24
g58
sbsg23
I00
sg24
g105
sbsg23
I00
sg24
g43
sbsg23
I00
sg24
g25
sba(imyEvolve
Tree
p298
(dp299
g7
(imyEvolve
Tree
p300
(dp301
g14
I4
sg15
(imyEvolve
Tree
p302
(dp303
g14
I3
sg15
(imyEvolve
Tree
p304
(dp305
g14
I2
sg15
(imyEvolve
Tree
p306
(dp307
g7
(imyEvolve
Tree
p308
(dp309
g14
I0
sg18
F4.87886057824797
sg19
I01
sbsg14
I1
sg23
I01
sg24
g34
sbsg20
(imyEvolve
Tree
p310
(dp311
g14
I1
sg15
(imyEvolve
Tree
p312
(dp313
g14
I0
sg18
F-0.6944458242286995
sg19
I01
sbsg20
(imyEvolve
Tree
p314
(dp315
g14
I0
sg19
I00
sbsg23
I00
sg24
g105
sbsg23
I00
sg24
g105
sbsg20
(imyEvolve
Tree
p316
(dp317
g14
I2
sg15
(imyEvolve
Tree
p318
(dp319
g14
I1
sg15
(imyEvolve
Tree
p320
(dp321
g14
I0
sg19
I00
sbsg20
(imyEvolve
Tree
p322
(dp323
g14
I0
sg18
F0.33498995290475797
sg19
I01
sbsg23
I00
sg24
g25
sbsg20
(imyEvolve
Tree
p324
(dp325
g14
I1
sg15
(imyEvolve
Tree
p326
(dp327
g14
I0
sg18
F4.4284375182996545
sg19
I01
sbsg20
(imyEvolve
Tree
p328
(dp329
g14
I0
sg18
F-4.698548114727645
sg19
I01
sbsg23
I00
sg24
g43
sbsg23
I00
sg24
g105
sbsg23
I00
sg24
g25
sbsg20
(imyEvolve
Tree
p330
(dp331
g14
I3
sg15
(imyEvolve
Tree
p332
(dp333
g7
(imyEvolve
Tree
p334
(dp335
g7
(imyEvolve
Tree
p336
(dp337
g14
I0
sg18
F2.383151803328209
sg19
I01
sbsg14
I1
sg23
I01
sg24
g58
sbsg14
I2
sg23
I01
sg24
g26
sbsg20
(imyEvolve
Tree
p338
(dp339
g7
(imyEvolve
Tree
p340
(dp341
g7
(imyEvolve
Tree
p342
(dp343
g14
I0
sg18
F-0.899488654994995
sg19
I01
sbsg14
I1
sg23
I01
sg24
g58
sbsg14
I2
sg23
I01
sg24
g34
sbsg23
I00
sg24
g105
sbsg23
I00
sg24
g105
sbsg14
I5
sg23
I01
sg24
g58
sba(imyEvolve
Tree
p344
(dp345
g15
(imyEvolve
Tree
p346
(dp347
g15
(imyEvolve
Tree
p348
(dp349
g14
I0
sg18
F-2.6035793568859567
sg19
I01
sbsg14
I1
sg20
(imyEvolve
Tree
p350
(dp351
g14
I0
sg19
I00
sbsg23
I00
sg24
g43
sbsg14
I2
sg20
(imyEvolve
Tree
p352
(dp353
g15
(imyEvolve
Tree
p354
(dp355
g14
I0
sg19
I00
sbsg14
I1
sg20
(imyEvolve
Tree
p356
(dp357
g14
I0
sg19
I00
sbsg23
I00
sg24
g25
sbsg23
I00
sg24
g25
sba(imyEvolve
Tree
p358
(dp359
g7
(imyEvolve
Tree
p360
(dp361
g7
(imyEvolve
Tree
p362
(dp363
g14
I0
sg18
F3.384586112183481
sg19
I01
sbsg14
I1
sg23
I01
sg24
g34
sbsg14
I2
sg23
I01
sg24
g58
sba(imyEvolve
Tree
p364
(dp365
g15
(imyEvolve
Tree
p366
(dp367
g15
(imyEvolve
Tree
p368
(dp369
g14
I0
sg18
F3.178338160170977
sg19
I01
sbsg14
I1
sg20
(imyEvolve
Tree
p370
(dp371
g14
I0
sg19
I00
sbsg23
I00
sg24
g25
sbsg14
I2
sg20
(imyEvolve
Tree
p372
(dp373
g15
(imyEvolve
Tree
p374
(dp375
g14
I0
sg18
F4.65916394773997
sg19
I01
sbsg14
I1
sg20
(imyEvolve
Tree
p376
(dp377
g14
I0
sg19
I00
sbsg23
I00
sg24
g43
sbsg23
I00
sg24
g105
sbaa(lp378
(imyEvolve
Tree
p379
(dp380
g7
(imyEvolve
Tree
p381
(dp382
g15
(imyEvolve
Tree
p383
(dp384
g15
(imyEvolve
Tree
p385
(dp386
g14
I0
sg19
I00
sbsg14
I1
sg20
(imyEvolve
Tree
p387
(dp388
g14
I0
sg19
I00
sbsg23
I00
sg24
g43
sbsg14
I2
sg20
(imyEvolve
Tree
p389
(dp390
g7
(imyEvolve
Tree
p391
(dp392
g14
I0
sg19
I00
sbsg14
I1
sg23
I01
sg24
g58
sbsg23
I00
sg24
g25
sbsg14
I3
sg23
I01
sg24
g26
sba(imyEvolve
Tree
p393
(dp394
g7
(imyEvolve
Tree
p395
(dp396
g15
(imyEvolve
Tree
p397
(dp398
g15
(imyEvolve
Tree
p399
(dp400
g7
(imyEvolve
Tree
p401
(dp402
g14
I0
sg19
I00
sbsg14
I1
sg23
I01
sg24
g26
sbsg14
I2
sg20
(imyEvolve
Tree
p403
(dp404
g7
(imyEvolve
Tree
p405
(dp406
g14
I0
sg19
I00
sbsg14
I1
sg23
I01
sg24
g58
sbsg23
I00
sg24
g43
sbsg14
I3
sg20
(imyEvolve
Tree
p407
(dp408
g15
(imyEvolve
Tree
p409
(dp410
g7
(imyEvolve
Tree
p411
(dp412
g14
I0
sg19
I00
sbsg14
I1
sg23
I01
sg24
g58
sbsg14
I2
sg20
(imyEvolve
Tree
p413
(dp414
g15
(imyEvolve
Tree
p415
(dp416
g14
I0
sg18
F-0.49695795130495135
sg19
I01
sbsg14
I1
sg20
(imyEvolve
Tree
p417
(dp418
g14
I0
sg19
I00
sbsg23
I00
sg24
g105
sbsg23
I00
sg24
g105
sbsg23
I00
sg24
g105
sbsg14
I4
sg23
I01
sg24
g58
sba(imyEvolve
Tree
p419
(dp420
g15
(imyEvolve
Tree
p421
(dp422
g7
(imyEvolve
Tree
p423
(dp424
g7
(imyEvolve
Tree
p425
(dp426
g7
(imyEvolve
Tree
p427
(dp428
g7
(imyEvolve
Tree
p429
(dp430
g14
I0
sg19
I00
sbsg14
I1
sg23
I01
sg24
g26
sbsg14
I2
sg23
I01
sg24
g34
sbsg14
I3
sg23
I01
sg24
g58
sbsg14
I4
sg23
I01
sg24
g58
sbsg14
I5
sg20
(imyEvolve
Tree
p431
(dp432
g7
(imyEvolve
Tree
p433
(dp434
g15
(imyEvolve
Tree
p435
(dp436
g7
(imyEvolve
Tree
p437
(dp438
g7
(imyEvolve
Tree
p439
(dp440
g14
I0
sg19
I00
sbsg14
I1
sg23
I01
sg24
g26
sbsg14
I2
sg23
I01
sg24
g27
sbsg14
I3
sg20
(imyEvolve
Tree
p441
(dp442
g7
(imyEvolve
Tree
p443
(dp444
g15
(imyEvolve
Tree
p445
(dp446
g14
I0
sg18
F0.7053577025429858
sg19
I01
sbsg14
I1
sg20
(imyEvolve
Tree
p447
(dp448
g14
I0
sg19
I00
sbsg23
I00
sg24
g25
sbsg14
I2
sg23
I01
sg24
g34
sbsg23
I00
sg24
g43
sbsg14
I4
sg23
I01
sg24
g27
sbsg23
I00
sg24
g43
sba(imyEvolve
Tree
p449
(dp450
g14
I4
sg15
(imyEvolve
Tree
p451
(dp452
g14
I3
sg15
(imyEvolve
Tree
p453
(dp454
g14
I2
sg15
(imyEvolve
Tree
p455
(dp456
g7
(imyEvolve
Tree
p457
(dp458
g14
I0
sg18
F-0.438272645028535
sg19
I01
sbsg14
I1
sg23
I01
sg24
g58
sbsg20
(imyEvolve
Tree
p459
(dp460
g7
(imyEvolve
Tree
p461
(dp462
g14
I0
sg19
I00
sbsg14
I1
sg23
I01
sg24
g34
sbsg23
I00
sg24
g25
sbsg20
(imyEvolve
Tree
p463
(dp464
g14
I2
sg15
(imyEvolve
Tree
p465
(dp466
g7
(imyEvolve
Tree
p467
(dp468
g14
I0
sg18
F4.158158644412014
sg19
I01
sbsg14
I1
sg23
I01
sg24
g34
sbsg20
(imyEvolve
Tree
p469
(dp470
g14
I1
sg15
(imyEvolve
Tree
p471
(dp472
g14
I0
sg18
F-3.7948807202500188
sg19
I01
sbsg20
(imyEvolve
Tree
p473
(dp474
g14
I0
sg18
F3.8051712202239756
sg19
I01
sbsg23
I00
sg24
g43
sbsg23
I00
sg24
g43
sbsg23
I00
sg24
g25
sbsg20
(imyEvolve
Tree
p475
(dp476
g7
(imyEvolve
Tree
p477
(dp478
g14
I2
sg15
(imyEvolve
Tree
p479
(dp480
g14
I1
sg15
(imyEvolve
Tree
p481
(dp482
g14
I0
sg19
I00
sbsg20
(imyEvolve
Tree
p483
(dp484
g14
I0
sg19
I00
sbsg23
I00
sg24
g43
sbsg20
(imyEvolve
Tree
p485
(dp486
g14
I1
sg15
(imyEvolve
Tree
p487
(dp488
g14
I0
sg19
I00
sbsg20
(imyEvolve
Tree
p489
(dp490
g14
I0
sg18
F2.0061348895428797
sg19
I01
sbsg23
I00
sg24
g25
sbsg23
I00
sg24
g25
sbsg14
I3
sg23
I01
sg24
g58
sbsg23
I00
sg24
g25
sba(imyEvolve
Tree
p491
(dp492
g15
(imyEvolve
Tree
p493
(dp494
g15
(imyEvolve
Tree
p495
(dp496
g7
(imyEvolve
Tree
p497
(dp498
g7
(imyEvolve
Tree
p499
(dp500
g14
I0
sg19
I00
sbsg14
I1
sg23
I01
sg24
g34
sbsg14
I2
sg23
I01
sg24
g26
sbsg14
I3
sg20
(imyEvolve
Tree
p501
(dp502
g7
(imyEvolve
Tree
p503
(dp504
g7
(imyEvolve
Tree
p505
(dp506
g14
I0
sg18
F1.0001772943947085
sg19
I01
sbsg14
I1
sg23
I01
sg24
g34
sbsg14
I2
sg23
I01
sg24
g27
sbsg23
I00
sg24
g43
sbsg14
I4
sg20
(imyEvolve
Tree
p507
(dp508
g15
(imyEvolve
Tree
p509
(dp510
g15
(imyEvolve
Tree
p511
(dp512
g15
(imyEvolve
Tree
p513
(dp514
g14
I0
sg19
I00
sbsg14
I1
sg20
(imyEvolve
Tree
p515
(dp516
g14
I0
sg18
F-4.020805249285849
sg19
I01
sbsg23
I00
sg24
g25
sbsg14
I2
sg20
(imyEvolve
Tree
p517
(dp518
g7
(imyEvolve
Tree
p519
(dp520
g14
I0
sg18
F1.3094354558865309
sg19
I01
sbsg14
I1
sg23
I01
sg24
g58
sbsg23
I00
sg24
g25
sbsg14
I3
sg20
(imyEvolve
Tree
p521
(dp522
g7
(imyEvolve
Tree
p523
(dp524
g15
(imyEvolve
Tree
p525
(dp526
g14
I0
sg18
F-3.0168504602466117
sg19
I01
sbsg14
I1
sg20
(imyEvolve
Tree
p527
(dp528
g14
I0
sg18
F0.044594014025860496
sg19
I01
sbsg23
I00
sg24
g105
sbsg14
I2
sg23
I01
sg24
g26
sbsg23
I00
sg24
g105
sbsg23
I00
sg24
g105
sba(imyEvolve
Tree
p529
(dp530
g7
(imyEvolve
Tree
p531
(dp532
g7
(imyEvolve
Tree
p533
(dp534
g7
(imyEvolve
Tree
p535
(dp536
g15
(imyEvolve
Tree
p537
(dp538
g7
(imyEvolve
Tree
p539
(dp540
g14
I0
sg18
F-3.982236252416792
sg19
I01
sbsg14
I1
sg23
I01
sg24
g27
sbsg14
I2
sg20
(imyEvolve
Tree
p541
(dp542
g15
(imyEvolve
Tree
p543
(dp544
g14
I0
sg19
I00
sbsg14
I1
sg20
(imyEvolve
Tree
p545
(dp546
g14
I0
sg18
F-0.7219055781401007
sg19
I01
sbsg23
I00
sg24
g105
sbsg23
I00
sg24
g43
sbsg14
I3
sg23
I01
sg24
g34
sbsg14
I4
sg23
I01
sg24
g26
sbsg14
I5
sg23
I01
sg24
g27
sba(imyEvolve
Tree
p547
(dp548
g15
(imyEvolve
Tree
p549
(dp550
g7
(imyEvolve
Tree
p551
(dp552
g14
I0
sg18
F-1.8765376310571802
sg19
I01
sbsg14
I1
sg23
I01
sg24
g27
sbsg14
I2
sg20
(imyEvolve
Tree
p553
(dp554
g15
(imyEvolve
Tree
p555
(dp556
g14
I0
sg18
F-4.3464385475649445
sg19
I01
sbsg14
I1
sg20
(imyEvolve
Tree
p557
(dp558
g14
I0
sg18
F-2.5143004447572515
sg19
I01
sbsg23
I00
sg24
g43
sbsg23
I00
sg24
g105
sba(imyEvolve
Tree
p559
(dp560
g14
I4
sg15
(imyEvolve
Tree
p561
(dp562
g7
(imyEvolve
Tree
p563
(dp564
g14
I2
sg15
(imyEvolve
Tree
p565
(dp566
g7
(imyEvolve
Tree
p567
(dp568
g14
I0
sg19
I00
sbsg14
I1
sg23
I01
sg24
g26
sbsg20
(imyEvolve
Tree
p569
(dp570
g7
(imyEvolve
Tree
p571
(dp572
g14
I0
sg19
I00
sbsg14
I1
sg23
I01
sg24
g26
sbsg23
I00
sg24
g105
sbsg14
I3
sg23
I01
sg24
g34
sbsg20
(imyEvolve
Tree
p573
(dp574
g14
I3
sg15
(imyEvolve
Tree
p575
(dp576
g7
(imyEvolve
Tree
p577
(dp578
g14
I1
sg15
(imyEvolve
Tree
p579
(dp580
g14
I0
sg19
I00
sbsg20
(imyEvolve
Tree
p581
(dp582
g14
I0
sg18
F3.466370490540232
sg19
I01
sbsg23
I00
sg24
g105
sbsg14
I2
sg23
I01
sg24
g34
sbsg20
(imyEvolve
Tree
p583
(dp584
g7
(imyEvolve
Tree
p585
(dp586
g7
(imyEvolve
Tree
p587
(dp588
g14
I0
sg18
F2.0390898628097567
sg19
I01
sbsg14
I1
sg23
I01
sg24
g58
sbsg14
I2
sg23
I01
sg24
g58
sbsg23
I00
sg24
g105
sbsg23
I00
sg24
g105
sba(imyEvolve
Tree
p589
(dp590
g7
(imyEvolve
Tree
p591
(dp592
g7
(imyEvolve
Tree
p593
(dp594
g15
(imyEvolve
Tree
p595
(dp596
g15
(imyEvolve
Tree
p597
(dp598
g14
I0
sg18
F-0.9638951237623434
sg19
I01
sbsg14
I1
sg20
(imyEvolve
Tree
p599
(dp600
g14
I0
sg19
I00
sbsg23
I00
sg24
g105
sbsg14
I2
sg20
(imyEvolve
Tree
p601
(dp602
g15
(imyEvolve
Tree
p603
(dp604
g14
I0
sg18
F0.9251340411452533
sg19
I01
sbsg14
I1
sg20
(imyEvolve
Tree
p605
(dp606
g14
I0
sg18
F4.627826208692214
sg19
I01
sbsg23
I00
sg24
g25
sbsg23
I00
sg24
g25
sbsg14
I3
sg23
I01
sg24
g27
sbsg14
I4
sg23
I01
sg24
g26
sba(imyEvolve
Tree
p607
(dp608
g15
(imyEvolve
Tree
p609
(dp610
g15
(imyEvolve
Tree
p611
(dp612
g7
(imyEvolve
Tree
p613
(dp614
g7
(imyEvolve
Tree
p615
(dp616
g14
I0
sg18
F2.493071552530779
sg19
I01
sbsg14
I1
sg23
I01
sg24
g26
sbsg14
I2
sg23
I01
sg24
g58
sbsg14
I3
sg20
(imyEvolve
Tree
p617
(dp618
g7
(imyEvolve
Tree
p619
(dp620
g15
(imyEvolve
Tree
p621
(dp622
g14
I0
sg18
F-1.9688625640355184
sg19
I01
sbsg14
I1
sg20
(imyEvolve
Tree
p623
(dp624
g14
I0
sg18
F0.8183637529579553
sg19
I01
sbsg23
I00
sg24
g25
sbsg14
I2
sg23
I01
sg24
g58
sbsg23
I00
sg24
g43
sbsg14
I4
sg20
(imyEvolve
Tree
p625
(dp626
g15
(imyEvolve
Tree
p627
(dp628
g7
(imyEvolve
Tree
p629
(dp630
g15
(imyEvolve
Tree
p631
(dp632
g14
I0
sg18
F-2.2051375433970644
sg19
I01
sbsg14
I1
sg20
(imyEvolve
Tree
p633
(dp634
g14
I0
sg19
I00
sbsg23
I00
sg24
g43
sbsg14
I2
sg23
I01
sg24
g27
sbsg14
I3
sg20
(imyEvolve
Tree
p635
(dp636
g15
(imyEvolve
Tree
p637
(dp638
g15
(imyEvolve
Tree
p639
(dp640
g14
I0
sg18
F2.904198862706444
sg19
I01
sbsg14
I1
sg20
(imyEvolve
Tree
p641
(dp642
g14
I0
sg19
I00
sbsg23
I00
sg24
g43
sbsg14
I2
sg20
(imyEvolve
Tree
p643
(dp644
g15
(imyEvolve
Tree
p645
(dp646
g14
I0
sg19
I00
sbsg14
I1
sg20
(imyEvolve
Tree
p647
(dp648
g14
I0
sg19
I00
sbsg23
I00
sg24
g43
sbsg23
I00
sg24
g105
sbsg23
I00
sg24
g105
sbsg23
I00
sg24
g25
sba(imyEvolve
Tree
p649
(dp650
g7
(imyEvolve
Tree
p651
(dp652
g7
(imyEvolve
Tree
p653
(dp654
g15
(imyEvolve
Tree
p655
(dp656
g15
(imyEvolve
Tree
p657
(dp658
g14
I0
sg18
F1.6054879235135502
sg19
I01
sbsg14
I1
sg20
(imyEvolve
Tree
p659
(dp660
g14
I0
sg19
I00
sbsg23
I00
sg24
g43
sbsg14
I2
sg20
(imyEvolve
Tree
p661
(dp662
g7
(imyEvolve
Tree
p663
(dp664
g14
I0
sg18
F-0.1047063834828057
sg19
I01
sbsg14
I1
sg23
I01
sg24
g34
sbsg23
I00
sg24
g25
sbsg14
I3
sg23
I01
sg24
g27
sbsg14
I4
sg23
I01
sg24
g58
sba(imyEvolve
Tree
p665
(dp666
g15
(imyEvolve
Tree
p667
(dp668
g15
(imyEvolve
Tree
p669
(dp670
g7
(imyEvolve
Tree
p671
(dp672
g14
I0
sg18
F-4.214676492199663
sg19
I01
sbsg14
I1
sg23
I01
sg24
g58
sbsg14
I2
sg20
(imyEvolve
Tree
p673
(dp674
g7
(imyEvolve
Tree
p675
(dp676
g14
I0
sg19
I00
sbsg14
I1
sg23
I01
sg24
g26
sbsg23
I00
sg24
g25
sbsg14
I3
sg20
(imyEvolve
Tree
p677
(dp678
g15
(imyEvolve
Tree
p679
(dp680
g7
(imyEvolve
Tree
p681
(dp682
g14
I0
sg18
F-1.3479012570209257
sg19
I01
sbsg14
I1
sg23
I01
sg24
g26
sbsg14
I2
sg20
(imyEvolve
Tree
p683
(dp684
g15
(imyEvolve
Tree
p685
(dp686
g14
I0
sg18
F-0.5293546841931214
sg19
I01
sbsg14
I1
sg20
(imyEvolve
Tree
p687
(dp688
g14
I0
sg19
I00
sbsg23
I00
sg24
g43
sbsg23
I00
sg24
g43
sbsg23
I00
sg24
g43
sba(imyEvolve
Tree
p689
(dp690
g7
(imyEvolve
Tree
p691
(dp692
g7
(imyEvolve
Tree
p693
(dp694
g14
I0
sg18
F4.467544528962547
sg19
I01
sbsg14
I1
sg23
I01
sg24
g58
sbsg14
I2
sg23
I01
sg24
g58
sba(imyEvolve
Tree
p695
(dp696
g14
I3
sg15
(imyEvolve
Tree
p697
(dp698
g14
I2
sg15
(imyEvolve
Tree
p699
(dp700
g14
I1
sg15
(imyEvolve
Tree
p701
(dp702
g14
I0
sg19
I00
sbsg20
(imyEvolve
Tree
p703
(dp704
g14
I0
sg18
F0.9417445466236192
sg19
I01
sbsg23
I00
sg24
g25
sbsg20
(imyEvolve
Tree
p705
(dp706
g7
(imyEvolve
Tree
p707
(dp708
g14
I0
sg19
I00
sbsg14
I1
sg23
I01
sg24
g34
sbsg23
I00
sg24
g105
sbsg20
(imyEvolve
Tree
p709
(dp710
g7
(imyEvolve
Tree
p711
(dp712
g14
I1
sg15
(imyEvolve
Tree
p713
(dp714
g14
I0
sg19
I00
sbsg20
(imyEvolve
Tree
p715
(dp716
g14
I0
sg18
F-0.8552431742003632
sg19
I01
sbsg23
I00
sg24
g43
sbsg14
I2
sg23
I01
sg24
g27
sbsg23
I00
sg24
g105
sba(imyEvolve
Tree
p717
(dp718
g15
(imyEvolve
Tree
p719
(dp720
g15
(imyEvolve
Tree
p721
(dp722
g15
(imyEvolve
Tree
p723
(dp724
g14
I0
sg19
I00
sbsg14
I1
sg20
(imyEvolve
Tree
p725
(dp726
g14
I0
sg19
I00
sbsg23
I00
sg24
g25
sbsg14
I2
sg20
(imyEvolve
Tree
p727
(dp728
g7
(imyEvolve
Tree
p729
(dp730
g14
I0
sg18
F-4.895568681079007
sg19
I01
sbsg14
I1
sg23
I01
sg24
g34
sbsg23
I00
sg24
g25
sbsg14
I3
sg20
(imyEvolve
Tree
p731
(dp732
g15
(imyEvolve
Tree
p733
(dp734
g7
(imyEvolve
Tree
p735
(dp736
g14
I0
sg19
I00
sbsg14
I1
sg23
I01
sg24
g58
sbsg14
I2
sg20
(imyEvolve
Tree
p737
(dp738
g7
(imyEvolve
Tree
p739
(dp740
g14
I0
sg19
I00
sbsg14
I1
sg23
I01
sg24
g26
sbsg23
I00
sg24
g105
sbsg23
I00
sg24
g25
sba(imyEvolve
Tree
p741
(dp742
g15
(imyEvolve
Tree
p743
(dp744
g7
(imyEvolve
Tree
p745
(dp746
g14
I0
sg19
I00
sbsg14
I1
sg23
I01
sg24
g26
sbsg14
I2
sg20
(imyEvolve
Tree
p747
(dp748
g7
(imyEvolve
Tree
p749
(dp750
g14
I0
sg18
F4.337476903860351
sg19
I01
sbsg14
I1
sg23
I01
sg24
g34
sbsg23
I00
sg24
g105
sba(imyEvolve
Tree
p751
(dp752
g7
(imyEvolve
Tree
p753
(dp754
g15
(imyEvolve
Tree
p755
(dp756
g15
(imyEvolve
Tree
p757
(dp758
g14
I0
sg19
I00
sbsg14
I1
sg20
(imyEvolve
Tree
p759
(dp760
g14
I0
sg19
I00
sbsg23
I00
sg24
g25
sbsg14
I2
sg20
(imyEvolve
Tree
p761
(dp762
g7
(imyEvolve
Tree
p763
(dp764
g14
I0
sg18
F-4.706496241494607
sg19
I01
sbsg14
I1
sg23
I01
sg24
g26
sbsg23
I00
sg24
g43
sbsg14
I3
sg23
I01
sg24
g26
sba(imyEvolve
Tree
p765
(dp766
g15
(imyEvolve
Tree
p767
(dp768
g7
(imyEvolve
Tree
p769
(dp770
g15
(imyEvolve
Tree
p771
(dp772
g15
(imyEvolve
Tree
p773
(dp774
g7
(imyEvolve
Tree
p775
(dp776
g14
I0
sg19
I00
sbsg14
I1
sg23
I01
sg24
g26
sbsg14
I2
sg20
(imyEvolve
Tree
p777
(dp778
g7
(imyEvolve
Tree
p779
(dp780
g14
I0
sg19
I00
sbsg14
I1
sg23
I01
sg24
g34
sbsg23
I00
sg24
g105
sbsg14
I3
sg20
(imyEvolve
Tree
p781
(dp782
g15
(imyEvolve
Tree
p783
(dp784
g7
(imyEvolve
Tree
p785
(dp786
g14
I0
sg19
I00
sbsg14
I1
sg23
I01
sg24
g34
sbsg14
I2
sg20
(imyEvolve
Tree
p787
(dp788
g15
(imyEvolve
Tree
p789
(dp790
g14
I0
sg18
F-4.378350185480336
sg19
I01
sbsg14
I1
sg20
(imyEvolve
Tree
p791
(dp792
g14
I0
sg19
I00
sbsg23
I00
sg24
g25
sbsg23
I00
sg24
g105
sbsg23
I00
sg24
g43
sbsg14
I4
sg23
I01
sg24
g34
sbsg14
I5
sg20
(imyEvolve
Tree
p793
(dp794
g7
(imyEvolve
Tree
p795
(dp796
g7
(imyEvolve
Tree
p797
(dp798
g7
(imyEvolve
Tree
p799
(dp800
g15
(imyEvolve
Tree
p801
(dp802
g14
I0
sg18
F-4.466750014225425
sg19
I01
sbsg14
I1
sg20
(imyEvolve
Tree
p803
(dp804
g14
I0
sg18
F0.9530944139931474
sg19
I01
sbsg23
I00
sg24
g105
sbsg14
I2
sg23
I01
sg24
g58
sbsg14
I3
sg23
I01
sg24
g58
sbsg14
I4
sg23
I01
sg24
g58
sbsg23
I00
sg24
g25
sba(imyEvolve
Tree
p805
(dp806
g15
(imyEvolve
Tree
p807
(dp808
g7
(imyEvolve
Tree
p809
(dp810
g14
I0
sg19
I00
sbsg14
I1
sg23
I01
sg24
g26
sbsg14
I2
sg20
(imyEvolve
Tree
p811
(dp812
g15
(imyEvolve
Tree
p813
(dp814
g14
I0
sg19
I00
sbsg14
I1
sg20
(imyEvolve
Tree
p815
(dp816
g14
I0
sg19
I00
sbsg23
I00
sg24
g43
sbsg23
I00
sg24
g25
sba(imyEvolve
Tree
p817
(dp818
g7
(imyEvolve
Tree
p819
(dp820
g14
I1
sg15
(imyEvolve
Tree
p821
(dp822
g14
I0
sg19
I00
sbsg20
(imyEvolve
Tree
p823
(dp824
g14
I0
sg18
F1.1948129271877512
sg19
I01
sbsg23
I00
sg24
g105
sbsg14
I2
sg23
I01
sg24
g27
sbaasS'alpha'
p825
F0.0025506773862888268
sS'fitness'
p826
cnumpy.core.multiarray
scalar
p827
(cnumpy
dtype
p828
(S'f8'
p829
I0
I1
tp830
Rp831
(I3
S'<'
p832
NNNI-1
I-1
I0
tp833
bS';\x01M\n3\x1f\xe6?'
p834
tp835
Rp836
sS'weightSharing'
p837
(lp838
I01
asS'fitnessValid'
p839
I00
sS'resolution'
p840
I73
sb.