(imyEvolve
Individual
p0
(dp1
S'funcs'
p2
(lp3
(lp4
(imyEvolve
Tree
p5
(dp6
S'below'
p7
(imyEvolve
Tree
p8
(dp9
S'left'
p10
(imyEvolve
Tree
p11
(dp12
g7
(imyEvolve
Tree
p13
(dp14
S'depth'
p15
I0
sS'isConstant'
p16
I00
sbsg15
I1
sS'single'
p17
I01
sS'op'
p18
cmath
sin
p19
sbsg15
I2
sS'right'
p20
(imyEvolve
Tree
p21
(dp22
g10
(imyEvolve
Tree
p23
(dp24
g15
I0
sS'constant'
p25
F-1.7084950973149073
sg16
I01
sbsg15
I1
sg20
(imyEvolve
Tree
p26
(dp27
g15
I0
sg25
F-1.6824225675981075
sg16
I01
sbsg17
I00
sg18
coperator
mul
p28
sbsg17
I00
sg18
coperator
sub
p29
sbsg15
I3
sg17
I01
sg18
cmath
cos
p30
sba(imyEvolve
Tree
p31
(dp32
g15
I4
sg10
(imyEvolve
Tree
p33
(dp34
g7
(imyEvolve
Tree
p35
(dp36
g7
(imyEvolve
Tree
p37
(dp38
g15
I1
sg10
(imyEvolve
Tree
p39
(dp40
g15
I0
sg16
I00
sbsg20
(imyEvolve
Tree
p41
(dp42
g15
I0
sg25
F0.9043266788184203
sg16
I01
sbsg17
I00
sg18
coperator
add
p43
sbsg15
I2
sg17
I01
sg18
cmyEvolve
absSqrt
p44
sbsg15
I3
sg17
I01
sg18
cmyEvolve
square
p45
sbsg20
(imyEvolve
Tree
p46
(dp47
g7
(imyEvolve
Tree
p48
(dp49
g15
I2
sg10
(imyEvolve
Tree
p50
(dp51
g7
(imyEvolve
Tree
p52
(dp53
g15
I0
sg16
I00
sbsg15
I1
sg17
I01
sg18
g45
sbsg20
(imyEvolve
Tree
p54
(dp55
g7
(imyEvolve
Tree
p56
(dp57
g15
I0
sg16
I00
sbsg15
I1
sg17
I01
sg18
g45
sbsg17
I00
sg18
g43
sbsg15
I3
sg17
I01
sg18
g19
sbsg17
I00
sg18
g29
sba(imyEvolve
Tree
p58
(dp59
g7
(imyEvolve
Tree
p60
(dp61
g15
I4
sg10
(imyEvolve
Tree
p62
(dp63
g7
(imyEvolve
Tree
p64
(dp65
g15
I2
sg10
(imyEvolve
Tree
p66
(dp67
g15
I1
sg10
(imyEvolve
Tree
p68
(dp69
g15
I0
sg16
I00
sbsg20
(imyEvolve
Tree
p70
(dp71
g15
I0
sg25
F-0.6260541601872536
sg16
I01
sbsg17
I00
sg18
g29
sbsg20
(imyEvolve
Tree
p72
(dp73
g7
(imyEvolve
Tree
p74
(dp75
g15
I0
sg25
F0.3881120535710707
sg16
I01
sbsg15
I1
sg17
I01
sg18
g30
sbsg17
I00
sg18
g28
sbsg15
I3
sg17
I01
sg18
g19
sbsg20
(imyEvolve
Tree
p76
(dp77
g15
I3
sg10
(imyEvolve
Tree
p78
(dp79
g7
(imyEvolve
Tree
p80
(dp81
g7
(imyEvolve
Tree
p82
(dp83
g15
I0
sg25
F-1.549313188620097
sg16
I01
sbsg15
I1
sg17
I01
sg18
g30
sbsg15
I2
sg17
I01
sg18
g45
sbsg20
(imyEvolve
Tree
p84
(dp85
g15
I2
sg10
(imyEvolve
Tree
p86
(dp87
g7
(imyEvolve
Tree
p88
(dp89
g15
I0
sg25
F-0.714914297657165
sg16
I01
sbsg15
I1
sg17
I01
sg18
g19
sbsg20
(imyEvolve
Tree
p90
(dp91
g7
(imyEvolve
Tree
p92
(dp93
g15
I0
sg16
I00
sbsg15
I1
sg17
I01
sg18
g45
sbsg17
I00
sg18
g43
sbsg17
I00
sg18
g43
sbsg17
I00
sg18
g29
sbsg15
I5
sg17
I01
sg18
g19
sba(imyEvolve
Tree
p94
(dp95
g15
I2
sg10
(imyEvolve
Tree
p96
(dp97
g15
I1
sg10
(imyEvolve
Tree
p98
(dp99
g15
I0
sg25
F0.6920349276979927
sg16
I01
sbsg20
(imyEvolve
Tree
p100
(dp101
g15
I0
sg16
I00
sbsg17
I00
sg18
g28
sbsg20
(imyEvolve
Tree
p102
(dp103
g15
I1
sg10
(imyEvolve
Tree
p104
(dp105
g15
I0
sg16
I00
sbsg20
(imyEvolve
Tree
p106
(dp107
g15
I0
sg25
F0.7941437047006525
sg16
I01
sbsg17
I00
sg18
g28
sbsg17
I00
sg18
g29
sba(imyEvolve
Tree
p108
(dp109
g7
(imyEvolve
Tree
p110
(dp111
g7
(imyEvolve
Tree
p112
(dp113
g10
(imyEvolve
Tree
p114
(dp115
g10
(imyEvolve
Tree
p116
(dp117
g7
(imyEvolve
Tree
p118
(dp119
g15
I0
sg16
I00
sbsg15
I1
sg17
I01
sg18
g44
sbsg15
I2
sg20
(imyEvolve
Tree
p120
(dp121
g10
(imyEvolve
Tree
p122
(dp123
g15
I0
sg16
I00
sbsg15
I1
sg20
(imyEvolve
Tree
p124
(dp125
g15
I0
sg25
F-3.6278149255916956
sg16
I01
sbsg17
I00
sg18
g43
sbsg17
I00
sg18
g29
sbsg15
I3
sg20
(imyEvolve
Tree
p126
(dp127
g10
(imyEvolve
Tree
p128
(dp129
g10
(imyEvolve
Tree
p130
(dp131
g15
I0
sg25
F2.946853823456255
sg16
I01
sbsg15
I1
sg20
(imyEvolve
Tree
p132
(dp133
g15
I0
sg25
F0.24897250191702547
sg16
I01
sbsg17
I00
sg18
g28
sbsg15
I2
sg20
(imyEvolve
Tree
p134
(dp135
g7
(imyEvolve
Tree
p136
(dp137
g15
I0
sg16
I00
sbsg15
I1
sg17
I01
sg18
g45
sbsg17
I00
sg18
g28
sbsg17
I00
sg18
g29
sbsg15
I4
sg17
I01
sg18
g44
sbsg15
I5
sg17
I01
sg18
g30
sba(imyEvolve
Tree
p138
(dp139
g10
(imyEvolve
Tree
p140
(dp141
g10
(imyEvolve
Tree
p142
(dp143
g10
(imyEvolve
Tree
p144
(dp145
g7
(imyEvolve
Tree
p146
(dp147
g10
(imyEvolve
Tree
p148
(dp149
g15
I0
sg16
I00
sbsg15
I1
sg20
(imyEvolve
Tree
p150
(dp151
g15
I0
sg16
I00
sbsg17
I00
sg18
g29
sbsg15
I2
sg17
I01
sg18
g44
sbsg15
I3
sg20
(imyEvolve
Tree
p152
(dp153
g7
(imyEvolve
Tree
p154
(dp155
g7
(imyEvolve
Tree
p156
(dp157
g15
I0
sg16
I00
sbsg15
I1
sg17
I01
sg18
g19
sbsg15
I2
sg17
I01
sg18
g45
sbsg17
I00
sg18
g28
sbsg15
I4
sg20
(imyEvolve
Tree
p158
(dp159
g7
(imyEvolve
Tree
p160
(dp161
g10
(imyEvolve
Tree
p162
(dp163
g10
(imyEvolve
Tree
p164
(dp165
g15
I0
sg25
F4.14942424070642
sg16
I01
sbsg15
I1
sg20
(imyEvolve
Tree
p166
(dp167
g15
I0
sg25
F1.7866561919905086
sg16
I01
sbsg17
I00
sg18
g43
sbsg15
I2
sg20
(imyEvolve
Tree
p168
(dp169
g10
(imyEvolve
Tree
p170
(dp171
g15
I0
sg25
F-0.8882746652611138
sg16
I01
sbsg15
I1
sg20
(imyEvolve
Tree
p172
(dp173
g15
I0
sg25
F3.345953361758836
sg16
I01
sbsg17
I00
sg18
g29
sbsg17
I00
sg18
g28
sbsg15
I3
sg17
I01
sg18
g19
sbsg17
I00
sg18
g29
sbsg15
I5
sg20
(imyEvolve
Tree
p174
(dp175
g10
(imyEvolve
Tree
p176
(dp177
g10
(imyEvolve
Tree
p178
(dp179
g10
(imyEvolve
Tree
p180
(dp181
g10
(imyEvolve
Tree
p182
(dp183
g15
I0
sg16
I00
sbsg15
I1
sg20
(imyEvolve
Tree
p184
(dp185
g15
I0
sg25
F-0.7007360503756761
sg16
I01
sbsg17
I00
sg18
g29
sbsg15
I2
sg20
(imyEvolve
Tree
p186
(dp187
g10
(imyEvolve
Tree
p188
(dp189
g15
I0
sg25
F2.1498560398825175
sg16
I01
sbsg15
I1
sg20
(imyEvolve
Tree
p190
(dp191
g15
I0
sg25
F3.5903070217268045
sg16
I01
sbsg17
I00
sg18
g43
sbsg17
I00
sg18
g28
sbsg15
I3
sg20
(imyEvolve
Tree
p192
(dp193
g7
(imyEvolve
Tree
p194
(dp195
g7
(imyEvolve
Tree
p196
(dp197
g15
I0
sg16
I00
sbsg15
I1
sg17
I01
sg18
g45
sbsg15
I2
sg17
I01
sg18
g30
sbsg17
I00
sg18
g29
sbsg15
I4
sg20
(imyEvolve
Tree
p198
(dp199
g10
(imyEvolve
Tree
p200
(dp201
g7
(imyEvolve
Tree
p202
(dp203
g7
(imyEvolve
Tree
p204
(dp205
g15
I0
sg25
F-4.519773415967175
sg16
I01
sbsg15
I1
sg17
I01
sg18
g44
sbsg15
I2
sg17
I01
sg18
g45
sbsg15
I3
sg20
(imyEvolve
Tree
p206
(dp207
g7
(imyEvolve
Tree
p208
(dp209
g7
(imyEvolve
Tree
p210
(dp211
g15
I0
sg25
F-3.603065231273793
sg16
I01
sbsg15
I1
sg17
I01
sg18
g30
sbsg15
I2
sg17
I01
sg18
g19
sbsg17
I00
sg18
g28
sbsg17
I00
sg18
g29
sbsg17
I00
sg18
g43
sba(imyEvolve
Tree
p212
(dp213
g7
(imyEvolve
Tree
p214
(dp215
g7
(imyEvolve
Tree
p216
(dp217
g15
I0
sg25
F4.477822003742421
sg16
I01
sbsg15
I1
sg17
I01
sg18
g30
sbsg15
I2
sg17
I01
sg18
g30
sba(imyEvolve
Tree
p218
(dp219
g7
(imyEvolve
Tree
p220
(dp221
g10
(imyEvolve
Tree
p222
(dp223
g7
(imyEvolve
Tree
p224
(dp225
g15
I0
sg25
F-0.7528714044979843
sg16
I01
sbsg15
I1
sg17
I01
sg18
g45
sbsg15
I2
sg20
(imyEvolve
Tree
p226
(dp227
g7
(imyEvolve
Tree
p228
(dp229
g15
I0
sg16
I00
sbsg15
I1
sg17
I01
sg18
g19
sbsg17
I00
sg18
g28
sbsg15
I3
sg17
I01
sg18
g19
sba(imyEvolve
Tree
p230
(dp231
g7
(imyEvolve
Tree
p232
(dp233
g10
(imyEvolve
Tree
p234
(dp235
g15
I0
sg25
F-4.338470844416218
sg16
I01
sbsg15
I1
sg20
(imyEvolve
Tree
p236
(dp237
g15
I0
sg16
I00
sbsg17
I00
sg18
g29
sbsg15
I2
sg17
I01
sg18
g30
sba(imyEvolve
Tree
p238
(dp239
g10
(imyEvolve
Tree
p240
(dp241
g7
(imyEvolve
Tree
p242
(dp243
g7
(imyEvolve
Tree
p244
(dp245
g7
(imyEvolve
Tree
p246
(dp247
g15
I0
sg16
I00
sbsg15
I1
sg17
I01
sg18
g19
sbsg15
I2
sg17
I01
sg18
g45
sbsg15
I3
sg17
I01
sg18
g44
sbsg15
I4
sg20
(imyEvolve
Tree
p248
(dp249
g10
(imyEvolve
Tree
p250
(dp251
g10
(imyEvolve
Tree
p252
(dp253
g7
(imyEvolve
Tree
p254
(dp255
g15
I0
sg25
F3.6844631502579848
sg16
I01
sbsg15
I1
sg17
I01
sg18
g45
sbsg15
I2
sg20
(imyEvolve
Tree
p256
(dp257
g7
(imyEvolve
Tree
p258
(dp259
g15
I0
sg25
F4.8521322551180575
sg16
I01
sbsg15
I1
sg17
I01
sg18
g44
sbsg17
I00
sg18
g29
sbsg15
I3
sg20
(imyEvolve
Tree
p260
(dp261
g10
(imyEvolve
Tree
p262
(dp263
g10
(imyEvolve
Tree
p264
(dp265
g15
I0
sg25
F-2.0116702489788016
sg16
I01
sbsg15
I1
sg20
(imyEvolve
Tree
p266
(dp267
g15
I0
sg16
I00
sbsg17
I00
sg18
g28
sbsg15
I2
sg20
(imyEvolve
Tree
p268
(dp269
g7
(imyEvolve
Tree
p270
(dp271
g15
I0
sg25
F3.43754186926064
sg16
I01
sbsg15
I1
sg17
I01
sg18
g30
sbsg17
I00
sg18
g28
sbsg17
I00
sg18
g28
sbsg17
I00
sg18
g28
sba(imyEvolve
Tree
p272
(dp273
g10
(imyEvolve
Tree
p274
(dp275
g7
(imyEvolve
Tree
p276
(dp277
g7
(imyEvolve
Tree
p278
(dp279
g15
I0
sg25
F-3.0543762612069503
sg16
I01
sbsg15
I1
sg17
I01
sg18
g30
sbsg15
I2
sg17
I01
sg18
g44
sbsg15
I3
sg20
(imyEvolve
Tree
p280
(dp281
g7
(imyEvolve
Tree
p282
(dp283
g10
(imyEvolve
Tree
p284
(dp285
g15
I0
sg25
F4.1174977866222005
sg16
I01
sbsg15
I1
sg20
(imyEvolve
Tree
p286
(dp287
g15
I0
sg16
I00
sbsg17
I00
sg18
g29
sbsg15
I2
sg17
I01
sg18
g30
sbsg17
I00
sg18
g29
sba(imyEvolve
Tree
p288
(dp289
g7
(imyEvolve
Tree
p290
(dp291
g7
(imyEvolve
Tree
p292
(dp293
g15
I0
sg16
I00
sbsg15
I1
sg17
I01
sg18
g19
sbsg15
I2
sg17
I01
sg18
g44
sba(imyEvolve
Tree
p294
(dp295
g7
(imyEvolve
Tree
p296
(dp297
g10
(imyEvolve
Tree
p298
(dp299
g7
(imyEvolve
Tree
p300
(dp301
g10
(imyEvolve
Tree
p302
(dp303
g15
I0
sg16
I00
sbsg15
I1
sg20
(imyEvolve
Tree
p304
(dp305
g15
I0
sg25
F-0.5314247984387972
sg16
I01
sbsg17
I00
sg18
g43
sbsg15
I2
sg17
I01
sg18
g45
sbsg15
I3
sg20
(imyEvolve
Tree
p306
(dp307
g10
(imyEvolve
Tree
p308
(dp309
g7
(imyEvolve
Tree
p310
(dp311
g15
I0
sg16
I00
sbsg15
I1
sg17
I01
sg18
g45
sbsg15
I2
sg20
(imyEvolve
Tree
p312
(dp313
g10
(imyEvolve
Tree
p314
(dp315
g15
I0
sg16
I00
sbsg15
I1
sg20
(imyEvolve
Tree
p316
(dp317
g15
I0
sg25
F0.5559625963953287
sg16
I01
sbsg17
I00
sg18
g29
sbsg17
I00
sg18
g29
sbsg17
I00
sg18
g29
sbsg15
I4
sg17
I01
sg18
g44
sba(imyEvolve
Tree
p318
(dp319
g15
I5
sg10
(imyEvolve
Tree
p320
(dp321
g15
I4
sg10
(imyEvolve
Tree
p322
(dp323
g7
(imyEvolve
Tree
p324
(dp325
g15
I2
sg10
(imyEvolve
Tree
p326
(dp327
g15
I1
sg10
(imyEvolve
Tree
p328
(dp329
g15
I0
sg16
I00
sbsg20
(imyEvolve
Tree
p330
(dp331
g15
I0
sg16
I00
sbsg17
I00
sg18
g28
sbsg20
(imyEvolve
Tree
p332
(dp333
g7
(imyEvolve
Tree
p334
(dp335
g15
I0
sg16
I00
sbsg15
I1
sg17
I01
sg18
g44
sbsg17
I00
sg18
g43
sbsg15
I3
sg17
I01
sg18
g44
sbsg20
(imyEvolve
Tree
p336
(dp337
g7
(imyEvolve
Tree
p338
(dp339
g15
I2
sg10
(imyEvolve
Tree
p340
(dp341
g15
I1
sg10
(imyEvolve
Tree
p342
(dp343
g15
I0
sg16
I00
sbsg20
(imyEvolve
Tree
p344
(dp345
g15
I0
sg25
F-2.188652543478206
sg16
I01
sbsg17
I00
sg18
g29
sbsg20
(imyEvolve
Tree
p346
(dp347
g7
(imyEvolve
Tree
p348
(dp349
g15
I0
sg16
I00
sbsg15
I1
sg17
I01
sg18
g45
sbsg17
I00
sg18
g29
sbsg15
I3
sg17
I01
sg18
g30
sbsg17
I00
sg18
g29
sbsg20
(imyEvolve
Tree
p350
(dp351
g15
I4
sg10
(imyEvolve
Tree
p352
(dp353
g7
(imyEvolve
Tree
p354
(dp355
g15
I2
sg10
(imyEvolve
Tree
p356
(dp357
g7
(imyEvolve
Tree
p358
(dp359
g15
I0
sg16
I00
sbsg15
I1
sg17
I01
sg18
g44
sbsg20
(imyEvolve
Tree
p360
(dp361
g15
I1
sg10
(imyEvolve
Tree
p362
(dp363
g15
I0
sg16
I00
sbsg20
(imyEvolve
Tree
p364
(dp365
g15
I0
sg25
F-3.1429557688437915
sg16
I01
sbsg17
I00
sg18
g28
sbsg17
I00
sg18
g28
sbsg15
I3
sg17
I01
sg18
g44
sbsg20
(imyEvolve
Tree
p366
(dp367
g7
(imyEvolve
Tree
p368
(dp369
g15
I2
sg10
(imyEvolve
Tree
p370
(dp371
g15
I1
sg10
(imyEvolve
Tree
p372
(dp373
g15
I0
sg16
I00
sbsg20
(imyEvolve
Tree
p374
(dp375
g15
I0
sg25
F-1.783391133909109
sg16
I01
sbsg17
I00
sg18
g28
sbsg20
(imyEvolve
Tree
p376
(dp377
g15
I1
sg10
(imyEvolve
Tree
p378
(dp379
g15
I0
sg16
I00
sbsg20
(imyEvolve
Tree
p380
(dp381
g15
I0
sg16
I00
sbsg17
I00
sg18
g43
sbsg17
I00
sg18
g43
sbsg15
I3
sg17
I01
sg18
g45
sbsg17
I00
sg18
g28
sbsg17
I00
sg18
g29
sba(imyEvolve
Tree
p382
(dp383
g10
(imyEvolve
Tree
p384
(dp385
g10
(imyEvolve
Tree
p386
(dp387
g15
I0
sg16
I00
sbsg15
I1
sg20
(imyEvolve
Tree
p388
(dp389
g15
I0
sg25
F0.5652147425077692
sg16
I01
sbsg17
I00
sg18
g43
sbsg15
I2
sg20
(imyEvolve
Tree
p390
(dp391
g10
(imyEvolve
Tree
p392
(dp393
g15
I0
sg16
I00
sbsg15
I1
sg20
(imyEvolve
Tree
p394
(dp395
g15
I0
sg16
I00
sbsg17
I00
sg18
g29
sbsg17
I00
sg18
g43
sba(imyEvolve
Tree
p396
(dp397
g7
(imyEvolve
Tree
p398
(dp399
g10
(imyEvolve
Tree
p400
(dp401
g7
(imyEvolve
Tree
p402
(dp403
g10
(imyEvolve
Tree
p404
(dp405
g7
(imyEvolve
Tree
p406
(dp407
g15
I0
sg25
F-2.7242486135304578
sg16
I01
sbsg15
I1
sg17
I01
sg18
g45
sbsg15
I2
sg20
(imyEvolve
Tree
p408
(dp409
g10
(imyEvolve
Tree
p410
(dp411
g15
I0
sg25
F1.5985790411431129
sg16
I01
sbsg15
I1
sg20
(imyEvolve
Tree
p412
(dp413
g15
I0
sg25
F-1.2222975064129713
sg16
I01
sbsg17
I00
sg18
g29
sbsg17
I00
sg18
g43
sbsg15
I3
sg17
I01
sg18
g45
sbsg15
I4
sg20
(imyEvolve
Tree
p414
(dp415
g7
(imyEvolve
Tree
p416
(dp417
g10
(imyEvolve
Tree
p418
(dp419
g10
(imyEvolve
Tree
p420
(dp421
g15
I0
sg16
I00
sbsg15
I1
sg20
(imyEvolve
Tree
p422
(dp423
g15
I0
sg25
F-3.9996517532675524
sg16
I01
sbsg17
I00
sg18
g28
sbsg15
I2
sg20
(imyEvolve
Tree
p424
(dp425
g10
(imyEvolve
Tree
p426
(dp427
g15
I0
sg25
F-0.30244116444470226
sg16
I01
sbsg15
I1
sg20
(imyEvolve
Tree
p428
(dp429
g15
I0
sg16
I00
sbsg17
I00
sg18
g28
sbsg17
I00
sg18
g43
sbsg15
I3
sg17
I01
sg18
g30
sbsg17
I00
sg18
g43
sbsg15
I5
sg17
I01
sg18
g19
sba(imyEvolve
Tree
p430
(dp431
g10
(imyEvolve
Tree
p432
(dp433
g10
(imyEvolve
Tree
p434
(dp435
g15
I0
sg25
F-0.35038495678464976
sg16
I01
sbsg15
I1
sg20
(imyEvolve
Tree
p436
(dp437
g15
I0
sg16
I00
sbsg17
I00
sg18
g29
sbsg15
I2
sg20
(imyEvolve
Tree
p438
(dp439
g10
(imyEvolve
Tree
p440
(dp441
g15
I0
sg25
F0.9690842013861118
sg16
I01
sbsg15
I1
sg20
(imyEvolve
Tree
p442
(dp443
g15
I0
sg25
F1.7077105221802817
sg16
I01
sbsg17
I00
sg18
g28
sbsg17
I00
sg18
g29
sbaa(lp444
(imyEvolve
Tree
p445
(dp446
g15
I4
sg10
(imyEvolve
Tree
p447
(dp448
g15
I3
sg10
(imyEvolve
Tree
p449
(dp450
g7
(imyEvolve
Tree
p451
(dp452
g7
(imyEvolve
Tree
p453
(dp454
g15
I0
sg16
I00
sbsg15
I1
sg17
I01
sg18
g45
sbsg15
I2
sg17
I01
sg18
g45
sbsg20
(imyEvolve
Tree
p455
(dp456
g7
(imyEvolve
Tree
p457
(dp458
g15
I1
sg10
(imyEvolve
Tree
p459
(dp460
g15
I0
sg16
I00
sbsg20
(imyEvolve
Tree
p461
(dp462
g15
I0
sg16
I00
sbsg17
I00
sg18
g43
sbsg15
I2
sg17
I01
sg18
g19
sbsg17
I00
sg18
g28
sbsg20
(imyEvolve
Tree
p463
(dp464
g7
(imyEvolve
Tree
p465
(dp466
g15
I2
sg10
(imyEvolve
Tree
p467
(dp468
g15
I1
sg10
(imyEvolve
Tree
p469
(dp470
g15
I0
sg16
I00
sbsg20
(imyEvolve
Tree
p471
(dp472
g15
I0
sg25
F0.007088296602865363
sg16
I01
sbsg17
I00
sg18
g29
sbsg20
(imyEvolve
Tree
p473
(dp474
g7
(imyEvolve
Tree
p475
(dp476
g15
I0
sg25
F-1.7854888624936138
sg16
I01
sbsg15
I1
sg17
I01
sg18
g44
sbsg17
I00
sg18
g28
sbsg15
I3
sg17
I01
sg18
g19
sbsg17
I00
sg18
g29
sba(imyEvolve
Tree
p477
(dp478
g10
(imyEvolve
Tree
p479
(dp480
g10
(imyEvolve
Tree
p481
(dp482
g10
(imyEvolve
Tree
p483
(dp484
g10
(imyEvolve
Tree
p485
(dp486
g7
(imyEvolve
Tree
p487
(dp488
g15
I0
sg16
I00
sbsg15
I1
sg17
I01
sg18
g45
sbsg15
I2
sg20
(imyEvolve
Tree
p489
(dp490
g10
(imyEvolve
Tree
p491
(dp492
g15
I0
sg16
I00
sbsg15
I1
sg20
(imyEvolve
Tree
p493
(dp494
g15
I0
sg25
F-0.5930671965353396
sg16
I01
sbsg17
I00
sg18
g28
sbsg17
I00
sg18
g28
sbsg15
I3
sg20
(imyEvolve
Tree
p495
(dp496
g10
(imyEvolve
Tree
p497
(dp498
g7
(imyEvolve
Tree
p499
(dp500
g15
I0
sg16
I00
sbsg15
I1
sg17
I01
sg18
g45
sbsg15
I2
sg20
(imyEvolve
Tree
p501
(dp502
g10
(imyEvolve
Tree
p503
(dp504
g15
I0
sg25
F1.700004263550948
sg16
I01
sbsg15
I1
sg20
(imyEvolve
Tree
p505
(dp506
g15
I0
sg25
F-4.655613196676736
sg16
I01
sbsg17
I00
sg18
g43
sbsg17
I00
sg18
g28
sbsg17
I00
sg18
g29
sbsg15
I4
sg20
(imyEvolve
Tree
p507
(dp508
g7
(imyEvolve
Tree
p509
(dp510
g10
(imyEvolve
Tree
p511
(dp512
g10
(imyEvolve
Tree
p513
(dp514
g15
I0
sg16
I00
sbsg15
I1
sg20
(imyEvolve
Tree
p515
(dp516
g15
I0
sg25
F1.3448314896859745
sg16
I01
sbsg17
I00
sg18
g43
sbsg15
I2
sg20
(imyEvolve
Tree
p517
(dp518
g10
(imyEvolve
Tree
p519
(dp520
g15
I0
sg16
I00
sbsg15
I1
sg20
(imyEvolve
Tree
p521
(dp522
g15
I0
sg25
F-1.8432993606979964
sg16
I01
sbsg17
I00
sg18
g29
sbsg17
I00
sg18
g29
sbsg15
I3
sg17
I01
sg18
g19
sbsg17
I00
sg18
g28
sbsg15
I5
sg20
(imyEvolve
Tree
p523
(dp524
g10
(imyEvolve
Tree
p525
(dp526
g7
(imyEvolve
Tree
p527
(dp528
g7
(imyEvolve
Tree
p529
(dp530
g7
(imyEvolve
Tree
p531
(dp532
g15
I0
sg25
F-3.5022893895124474
sg16
I01
sbsg15
I1
sg17
I01
sg18
g19
sbsg15
I2
sg17
I01
sg18
g19
sbsg15
I3
sg17
I01
sg18
g44
sbsg15
I4
sg20
(imyEvolve
Tree
p533
(dp534
g10
(imyEvolve
Tree
p535
(dp536
g10
(imyEvolve
Tree
p537
(dp538
g10
(imyEvolve
Tree
p539
(dp540
g15
I0
sg25
F1.0824709945761626
sg16
I01
sbsg15
I1
sg20
(imyEvolve
Tree
p541
(dp542
g15
I0
sg16
I00
sbsg17
I00
sg18
g28
sbsg15
I2
sg20
(imyEvolve
Tree
p543
(dp544
g7
(imyEvolve
Tree
p545
(dp546
g15
I0
sg16
I00
sbsg15
I1
sg17
I01
sg18
g44
sbsg17
I00
sg18
g43
sbsg15
I3
sg20
(imyEvolve
Tree
p547
(dp548
g10
(imyEvolve
Tree
p549
(dp550
g7
(imyEvolve
Tree
p551
(dp552
g15
I0
sg16
I00
sbsg15
I1
sg17
I01
sg18
g19
sbsg15
I2
sg20
(imyEvolve
Tree
p553
(dp554
g7
(imyEvolve
Tree
p555
(dp556
g15
I0
sg16
I00
sbsg15
I1
sg17
I01
sg18
g30
sbsg17
I00
sg18
g43
sbsg17
I00
sg18
g43
sbsg17
I00
sg18
g28
sbsg17
I00
sg18
g43
sba(imyEvolve
Tree
p557
(dp558
g7
(imyEvolve
Tree
p559
(dp560
g15
I2
sg10
(imyEvolve
Tree
p561
(dp562
g15
I1
sg10
(imyEvolve
Tree
p563
(dp564
g15
I0
sg25
F0.769730886741411
sg16
I01
sbsg20
(imyEvolve
Tree
p565
(dp566
g15
I0
sg16
I00
sbsg17
I00
sg18
g28
sbsg20
(imyEvolve
Tree
p567
(dp568
g15
I1
sg10
(imyEvolve
Tree
p569
(dp570
g15
I0
sg16
I00
sbsg20
(imyEvolve
Tree
p571
(dp572
g15
I0
sg16
I00
sbsg17
I00
sg18
g28
sbsg17
I00
sg18
g43
sbsg15
I3
sg17
I01
sg18
g44
sba(imyEvolve
Tree
p573
(dp574
g10
(imyEvolve
Tree
p575
(dp576
g7
(imyEvolve
Tree
p577
(dp578
g15
I0
sg16
I00
sbsg15
I1
sg17
I01
sg18
g19
sbsg15
I2
sg20
(imyEvolve
Tree
p579
(dp580
g10
(imyEvolve
Tree
p581
(dp582
g15
I0
sg25
F-2.32519866387812
sg16
I01
sbsg15
I1
sg20
(imyEvolve
Tree
p583
(dp584
g15
I0
sg16
I00
sbsg17
I00
sg18
g28
sbsg17
I00
sg18
g29
sba(imyEvolve
Tree
p585
(dp586
g10
(imyEvolve
Tree
p587
(dp588
g10
(imyEvolve
Tree
p589
(dp590
g7
(imyEvolve
Tree
p591
(dp592
g10
(imyEvolve
Tree
p593
(dp594
g15
I0
sg25
F0.9565475334497258
sg16
I01
sbsg15
I1
sg20
(imyEvolve
Tree
p595
(dp596
g15
I0
sg16
I00
sbsg17
I00
sg18
g29
sbsg15
I2
sg17
I01
sg18
g19
sbsg15
I3
sg20
(imyEvolve
Tree
p597
(dp598
g10
(imyEvolve
Tree
p599
(dp600
g7
(imyEvolve
Tree
p601
(dp602
g15
I0
sg25
F-3.5581440243680884
sg16
I01
sbsg15
I1
sg17
I01
sg18
g19
sbsg15
I2
sg20
(imyEvolve
Tree
p603
(dp604
g7
(imyEvolve
Tree
p605
(dp606
g15
I0
sg16
I00
sbsg15
I1
sg17
I01
sg18
g19
sbsg17
I00
sg18
g43
sbsg17
I00
sg18
g28
sbsg15
I4
sg20
(imyEvolve
Tree
p607
(dp608
g10
(imyEvolve
Tree
p609
(dp610
g10
(imyEvolve
Tree
p611
(dp612
g10
(imyEvolve
Tree
p613
(dp614
g15
I0
sg16
I00
sbsg15
I1
sg20
(imyEvolve
Tree
p615
(dp616
g15
I0
sg16
I00
sbsg17
I00
sg18
g43
sbsg15
I2
sg20
(imyEvolve
Tree
p617
(dp618
g10
(imyEvolve
Tree
p619
(dp620
g15
I0
sg16
I00
sbsg15
I1
sg20
(imyEvolve
Tree
p621
(dp622
g15
I0
sg25
F3.3090298155275004
sg16
I01
sbsg17
I00
sg18
g43
sbsg17
I00
sg18
g43
sbsg15
I3
sg20
(imyEvolve
Tree
p623
(dp624
g10
(imyEvolve
Tree
p625
(dp626
g10
(imyEvolve
Tree
p627
(dp628
g15
I0
sg25
F4.309123646843206
sg16
I01
sbsg15
I1
sg20
(imyEvolve
Tree
p629
(dp630
g15
I0
sg16
I00
sbsg17
I00
sg18
g43
sbsg15
I2
sg20
(imyEvolve
Tree
p631
(dp632
g10
(imyEvolve
Tree
p633
(dp634
g15
I0
sg16
I00
sbsg15
I1
sg20
(imyEvolve
Tree
p635
(dp636
g15
I0
sg25
F3.235093321267369
sg16
I01
sbsg17
I00
sg18
g43
sbsg17
I00
sg18
g43
sbsg17
I00
sg18
g43
sbsg17
I00
sg18
g28
sba(imyEvolve
Tree
p637
(dp638
g10
(imyEvolve
Tree
p639
(dp640
g7
(imyEvolve
Tree
p641
(dp642
g7
(imyEvolve
Tree
p643
(dp644
g15
I0
sg25
F4.661295087852402
sg16
I01
sbsg15
I1
sg17
I01
sg18
g45
sbsg15
I2
sg17
I01
sg18
g30
sbsg15
I3
sg20
(imyEvolve
Tree
p645
(dp646
g7
(imyEvolve
Tree
p647
(dp648
g7
(imyEvolve
Tree
p649
(dp650
g15
I0
sg16
I00
sbsg15
I1
sg17
I01
sg18
g45
sbsg15
I2
sg17
I01
sg18
g44
sbsg17
I00
sg18
g29
sba(imyEvolve
Tree
p651
(dp652
g7
(imyEvolve
Tree
p653
(dp654
g7
(imyEvolve
Tree
p655
(dp656
g15
I2
sg10
(imyEvolve
Tree
p657
(dp658
g15
I1
sg10
(imyEvolve
Tree
p659
(dp660
g15
I0
sg25
F-0.8465769695002958
sg16
I01
sbsg20
(imyEvolve
Tree
p661
(dp662
g15
I0
sg16
I00
sbsg17
I00
sg18
g29
sbsg20
(imyEvolve
Tree
p663
(dp664
g7
(imyEvolve
Tree
p665
(dp666
g15
I0
sg25
F4.379485580814148
sg16
I01
sbsg15
I1
sg17
I01
sg18
g44
sbsg17
I00
sg18
g29
sbsg15
I3
sg17
I01
sg18
g30
sbsg15
I4
sg17
I01
sg18
g44
sba(imyEvolve
Tree
p667
(dp668
g10
(imyEvolve
Tree
p669
(dp670
g10
(imyEvolve
Tree
p671
(dp672
g15
I0
sg25
F-3.8455145590888415
sg16
I01
sbsg15
I1
sg20
(imyEvolve
Tree
p673
(dp674
g15
I0
sg25
F2.516194924136218
sg16
I01
sbsg17
I00
sg18
g43
sbsg15
I2
sg20
(imyEvolve
Tree
p675
(dp676
g7
(imyEvolve
Tree
p677
(dp678
g15
I0
sg16
I00
sbsg15
I1
sg17
I01
sg18
g19
sbsg17
I00
sg18
g28
sba(imyEvolve
Tree
p679
(dp680
g7
(imyEvolve
Tree
p681
(dp682
g10
(imyEvolve
Tree
p683
(dp684
g7
(imyEvolve
Tree
p685
(dp686
g10
(imyEvolve
Tree
p687
(dp688
g15
I0
sg25
F2.0404039120947477
sg16
I01
sbsg15
I1
sg20
(imyEvolve
Tree
p689
(dp690
g15
I0
sg16
I00
sbsg17
I00
sg18
g43
sbsg15
I2
sg17
I01
sg18
g45
sbsg15
I3
sg20
(imyEvolve
Tree
p691
(dp692
g7
(imyEvolve
Tree
p693
(dp694
g10
(imyEvolve
Tree
p695
(dp696
g15
I0
sg16
I00
sbsg15
I1
sg20
(imyEvolve
Tree
p697
(dp698
g15
I0
sg16
I00
sbsg17
I00
sg18
g28
sbsg15
I2
sg17
I01
sg18
g44
sbsg17
I00
sg18
g43
sbsg15
I4
sg17
I01
sg18
g45
sba(imyEvolve
Tree
p699
(dp700
g7
(imyEvolve
Tree
p701
(dp702
g10
(imyEvolve
Tree
p703
(dp704
g10
(imyEvolve
Tree
p705
(dp706
g15
I0
sg16
I00
sbsg15
I1
sg20
(imyEvolve
Tree
p707
(dp708
g15
I0
sg16
I00
sbsg17
I00
sg18
g28
sbsg15
I2
sg20
(imyEvolve
Tree
p709
(dp710
g10
(imyEvolve
Tree
p711
(dp712
g15
I0
sg25
F2.857663730263978
sg16
I01
sbsg15
I1
sg20
(imyEvolve
Tree
p713
(dp714
g15
I0
sg16
I00
sbsg17
I00
sg18
g43
sbsg17
I00
sg18
g28
sbsg15
I3
sg17
I01
sg18
g44
sba(imyEvolve
Tree
p715
(dp716
g15
I2
sg10
(imyEvolve
Tree
p717
(dp718
g15
I1
sg10
(imyEvolve
Tree
p719
(dp720
g15
I0
sg16
I00
sbsg20
(imyEvolve
Tree
p721
(dp722
g15
I0
sg25
F-3.855835607647725
sg16
I01
sbsg17
I00
sg18
g43
sbsg20
(imyEvolve
Tree
p723
(dp724
g15
I1
sg10
(imyEvolve
Tree
p725
(dp726
g15
I0
sg25
F-3.5643299821981476
sg16
I01
sbsg20
(imyEvolve
Tree
p727
(dp728
g15
I0
sg25
F-0.8700778964540579
sg16
I01
sbsg17
I00
sg18
g29
sbsg17
I00
sg18
g29
sba(imyEvolve
Tree
p729
(dp730
g7
(imyEvolve
Tree
p731
(dp732
g7
(imyEvolve
Tree
p733
(dp734
g10
(imyEvolve
Tree
p735
(dp736
g15
I0
sg25
F-4.559735798481671
sg16
I01
sbsg15
I1
sg20
(imyEvolve
Tree
p737
(dp738
g15
I0
sg16
I00
sbsg17
I00
sg18
g29
sbsg15
I2
sg17
I01
sg18
g45
sbsg15
I3
sg17
I01
sg18
g45
sba(imyEvolve
Tree
p739
(dp740
g7
(imyEvolve
Tree
p741
(dp742
g7
(imyEvolve
Tree
p743
(dp744
g7
(imyEvolve
Tree
p745
(dp746
g10
(imyEvolve
Tree
p747
(dp748
g7
(imyEvolve
Tree
p749
(dp750
g15
I0
sg16
I00
sbsg15
I1
sg17
I01
sg18
g19
sbsg15
I2
sg20
(imyEvolve
Tree
p751
(dp752
g10
(imyEvolve
Tree
p753
(dp754
g15
I0
sg25
F1.3068629937859395
sg16
I01
sbsg15
I1
sg20
(imyEvolve
Tree
p755
(dp756
g15
I0
sg25
F-3.5286024351034015
sg16
I01
sbsg17
I00
sg18
g43
sbsg17
I00
sg18
g29
sbsg15
I3
sg17
I01
sg18
g30
sbsg15
I4
sg17
I01
sg18
g30
sbsg15
I5
sg17
I01
sg18
g19
sbaa(lp757
(imyEvolve
Tree
p758
(dp759
g10
(imyEvolve
Tree
p760
(dp761
g7
(imyEvolve
Tree
p762
(dp763
g7
(imyEvolve
Tree
p764
(dp765
g15
I0
sg25
F3.4041483525916654
sg16
I01
sbsg15
I1
sg17
I01
sg18
g45
sbsg15
I2
sg17
I01
sg18
g44
sbsg15
I3
sg20
(imyEvolve
Tree
p766
(dp767
g10
(imyEvolve
Tree
p768
(dp769
g7
(imyEvolve
Tree
p770
(dp771
g15
I0
sg25
F1.0582084590386263
sg16
I01
sbsg15
I1
sg17
I01
sg18
g30
sbsg15
I2
sg20
(imyEvolve
Tree
p772
(dp773
g10
(imyEvolve
Tree
p774
(dp775
g15
I0
sg25
F0.5845241663559708
sg16
I01
sbsg15
I1
sg20
(imyEvolve
Tree
p776
(dp777
g15
I0
sg25
F1.384185825850385
sg16
I01
sbsg17
I00
sg18
g29
sbsg17
I00
sg18
g28
sbsg17
I00
sg18
g28
sba(imyEvolve
Tree
p778
(dp779
g7
(imyEvolve
Tree
p780
(dp781
g10
(imyEvolve
Tree
p782
(dp783
g15
I0
sg25
F0.3944014611926061
sg16
I01
sbsg15
I1
sg20
(imyEvolve
Tree
p784
(dp785
g15
I0
sg25
F-3.808859878935346
sg16
I01
sbsg17
I00
sg18
g28
sbsg15
I2
sg17
I01
sg18
g44
sba(imyEvolve
Tree
p786
(dp787
g10
(imyEvolve
Tree
p788
(dp789
g10
(imyEvolve
Tree
p790
(dp791
g15
I0
sg25
F-3.480874752789913
sg16
I01
sbsg15
I1
sg20
(imyEvolve
Tree
p792
(dp793
g15
I0
sg16
I00
sbsg17
I00
sg18
g43
sbsg15
I2
sg20
(imyEvolve
Tree
p794
(dp795
g10
(imyEvolve
Tree
p796
(dp797
g15
I0
sg16
I00
sbsg15
I1
sg20
(imyEvolve
Tree
p798
(dp799
g15
I0
sg16
I00
sbsg17
I00
sg18
g43
sbsg17
I00
sg18
g43
sba(imyEvolve
Tree
p800
(dp801
g15
I2
sg10
(imyEvolve
Tree
p802
(dp803
g15
I1
sg10
(imyEvolve
Tree
p804
(dp805
g15
I0
sg25
F3.665998242144271
sg16
I01
sbsg20
(imyEvolve
Tree
p806
(dp807
g15
I0
sg25
F-0.9544862991572742
sg16
I01
sbsg17
I00
sg18
g43
sbsg20
(imyEvolve
Tree
p808
(dp809
g15
I1
sg10
(imyEvolve
Tree
p810
(dp811
g15
I0
sg25
F0.055245983537625776
sg16
I01
sbsg20
(imyEvolve
Tree
p812
(dp813
g15
I0
sg25
F2.207688886607042
sg16
I01
sbsg17
I00
sg18
g28
sbsg17
I00
sg18
g43
sba(imyEvolve
Tree
p814
(dp815
g7
(imyEvolve
Tree
p816
(dp817
g10
(imyEvolve
Tree
p818
(dp819
g10
(imyEvolve
Tree
p820
(dp821
g15
I0
sg16
I00
sbsg15
I1
sg20
(imyEvolve
Tree
p822
(dp823
g15
I0
sg25
F0.6545080116686695
sg16
I01
sbsg17
I00
sg18
g29
sbsg15
I2
sg20
(imyEvolve
Tree
p824
(dp825
g10
(imyEvolve
Tree
p826
(dp827
g15
I0
sg16
I00
sbsg15
I1
sg20
(imyEvolve
Tree
p828
(dp829
g15
I0
sg25
F4.200686742985859
sg16
I01
sbsg17
I00
sg18
g29
sbsg17
I00
sg18
g29
sbsg15
I3
sg17
I01
sg18
g30
sba(imyEvolve
Tree
p830
(dp831
g7
(imyEvolve
Tree
p832
(dp833
g7
(imyEvolve
Tree
p834
(dp835
g15
I0
sg16
I00
sbsg15
I1
sg17
I01
sg18
g30
sbsg15
I2
sg17
I01
sg18
g45
sba(imyEvolve
Tree
p836
(dp837
g15
I5
sg10
(imyEvolve
Tree
p838
(dp839
g7
(imyEvolve
Tree
p840
(dp841
g15
I3
sg10
(imyEvolve
Tree
p842
(dp843
g15
I2
sg10
(imyEvolve
Tree
p844
(dp845
g15
I1
sg10
(imyEvolve
Tree
p846
(dp847
g15
I0
sg25
F-1.5554709692200266
sg16
I01
sbsg20
(imyEvolve
Tree
p848
(dp849
g15
I0
sg25
F-2.2809260513935357
sg16
I01
sbsg17
I00
sg18
g28
sbsg20
(imyEvolve
Tree
p850
(dp851
g7
(imyEvolve
Tree
p852
(dp853
g15
I0
sg16
I00
sbsg15
I1
sg17
I01
sg18
g45
sbsg17
I00
sg18
g43
sbsg20
(imyEvolve
Tree
p854
(dp855
g15
I2
sg10
(imyEvolve
Tree
p856
(dp857
g7
(imyEvolve
Tree
p858
(dp859
g15
I0
sg25
F4.4959320383578785
sg16
I01
sbsg15
I1
sg17
I01
sg18
g45
sbsg20
(imyEvolve
Tree
p860
(dp861
g7
(imyEvolve
Tree
p862
(dp863
g15
I0
sg16
I00
sbsg15
I1
sg17
I01
sg18
g19
sbsg17
I00
sg18
g28
sbsg17
I00
sg18
g29
sbsg15
I4
sg17
I01
sg18
g44
sbsg20
(imyEvolve
Tree
p864
(dp865
g15
I4
sg10
(imyEvolve
Tree
p866
(dp867
g15
I3
sg10
(imyEvolve
Tree
p868
(dp869
g7
(imyEvolve
Tree
p870
(dp871
g7
(imyEvolve
Tree
p872
(dp873
g15
I0
sg16
I00
sbsg15
I1
sg17
I01
sg18
g19
sbsg15
I2
sg17
I01
sg18
g45
sbsg20
(imyEvolve
Tree
p874
(dp875
g15
I2
sg10
(imyEvolve
Tree
p876
(dp877
g15
I1
sg10
(imyEvolve
Tree
p878
(dp879
g15
I0
sg16
I00
sbsg20
(imyEvolve
Tree
p880
(dp881
g15
I0
sg16
I00
sbsg17
I00
sg18
g29
sbsg20
(imyEvolve
Tree
p882
(dp883
g15
I1
sg10
(imyEvolve
Tree
p884
(dp885
g15
I0
sg25
F0.012257677868760197
sg16
I01
sbsg20
(imyEvolve
Tree
p886
(dp887
g15
I0
sg16
I00
sbsg17
I00
sg18
g28
sbsg17
I00
sg18
g28
sbsg17
I00
sg18
g43
sbsg20
(imyEvolve
Tree
p888
(dp889
g15
I3
sg10
(imyEvolve
Tree
p890
(dp891
g7
(imyEvolve
Tree
p892
(dp893
g7
(imyEvolve
Tree
p894
(dp895
g15
I0
sg16
I00
sbsg15
I1
sg17
I01
sg18
g30
sbsg15
I2
sg17
I01
sg18
g45
sbsg20
(imyEvolve
Tree
p896
(dp897
g15
I2
sg10
(imyEvolve
Tree
p898
(dp899
g7
(imyEvolve
Tree
p900
(dp901
g15
I0
sg25
F-2.6523695679045076
sg16
I01
sbsg15
I1
sg17
I01
sg18
g30
sbsg20
(imyEvolve
Tree
p902
(dp903
g15
I1
sg10
(imyEvolve
Tree
p904
(dp905
g15
I0
sg16
I00
sbsg20
(imyEvolve
Tree
p906
(dp907
g15
I0
sg16
I00
sbsg17
I00
sg18
g29
sbsg17
I00
sg18
g43
sbsg17
I00
sg18
g29
sbsg17
I00
sg18
g29
sbsg17
I00
sg18
g28
sba(imyEvolve
Tree
p908
(dp909
g7
(imyEvolve
Tree
p910
(dp911
g15
I2
sg10
(imyEvolve
Tree
p912
(dp913
g7
(imyEvolve
Tree
p914
(dp915
g15
I0
sg16
I00
sbsg15
I1
sg17
I01
sg18
g30
sbsg20
(imyEvolve
Tree
p916
(dp917
g7
(imyEvolve
Tree
p918
(dp919
g15
I0
sg25
F0.5628845536770077
sg16
I01
sbsg15
I1
sg17
I01
sg18
g44
sbsg17
I00
sg18
g43
sbsg15
I3
sg17
I01
sg18
g44
sba(imyEvolve
Tree
p920
(dp921
g7
(imyEvolve
Tree
p922
(dp923
g7
(imyEvolve
Tree
p924
(dp925
g7
(imyEvolve
Tree
p926
(dp927
g10
(imyEvolve
Tree
p928
(dp929
g10
(imyEvolve
Tree
p930
(dp931
g15
I0
sg16
I00
sbsg15
I1
sg20
(imyEvolve
Tree
p932
(dp933
g15
I0
sg25
F-4.894506938823971
sg16
I01
sbsg17
I00
sg18
g28
sbsg15
I2
sg20
(imyEvolve
Tree
p934
(dp935
g7
(imyEvolve
Tree
p936
(dp937
g15
I0
sg25
F0.5733957513113186
sg16
I01
sbsg15
I1
sg17
I01
sg18
g19
sbsg17
I00
sg18
g28
sbsg15
I3
sg17
I01
sg18
g45
sbsg15
I4
sg17
I01
sg18
g44
sbsg15
I5
sg17
I01
sg18
g19
sba(imyEvolve
Tree
p938
(dp939
g15
I5
sg10
(imyEvolve
Tree
p940
(dp941
g7
(imyEvolve
Tree
p942
(dp943
g7
(imyEvolve
Tree
p944
(dp945
g7
(imyEvolve
Tree
p946
(dp947
g15
I1
sg10
(imyEvolve
Tree
p948
(dp949
g15
I0
sg16
I00
sbsg20
(imyEvolve
Tree
p950
(dp951
g15
I0
sg25
F2.4605916278698494
sg16
I01
sbsg17
I00
sg18
g28
sbsg15
I2
sg17
I01
sg18
g44
sbsg15
I3
sg17
I01
sg18
g30
sbsg15
I4
sg17
I01
sg18
g45
sbsg20
(imyEvolve
Tree
p952
(dp953
g7
(imyEvolve
Tree
p954
(dp955
g7
(imyEvolve
Tree
p956
(dp957
g7
(imyEvolve
Tree
p958
(dp959
g7
(imyEvolve
Tree
p960
(dp961
g15
I0
sg16
I00
sbsg15
I1
sg17
I01
sg18
g19
sbsg15
I2
sg17
I01
sg18
g44
sbsg15
I3
sg17
I01
sg18
g19
sbsg15
I4
sg17
I01
sg18
g30
sbsg17
I00
sg18
g29
sba(imyEvolve
Tree
p962
(dp963
g7
(imyEvolve
Tree
p964
(dp965
g7
(imyEvolve
Tree
p966
(dp967
g7
(imyEvolve
Tree
p968
(dp969
g15
I0
sg16
I00
sbsg15
I1
sg17
I01
sg18
g30
sbsg15
I2
sg17
I01
sg18
g44
sbsg15
I3
sg17
I01
sg18
g44
sba(imyEvolve
Tree
p970
(dp971
g10
(imyEvolve
Tree
p972
(dp973
g7
(imyEvolve
Tree
p974
(dp975
g7
(imyEvolve
Tree
p976
(dp977
g15
I0
sg25
F2.214144696259858
sg16
I01
sbsg15
I1
sg17
I01
sg18
g19
sbsg15
I2
sg17
I01
sg18
g44
sbsg15
I3
sg20
(imyEvolve
Tree
p978
(dp979
g10
(imyEvolve
Tree
p980
(dp981
g10
(imyEvolve
Tree
p982
(dp983
g15
I0
sg16
I00
sbsg15
I1
sg20
(imyEvolve
Tree
p984
(dp985
g15
I0
sg25
F-2.529162732400537
sg16
I01
sbsg17
I00
sg18
g29
sbsg15
I2
sg20
(imyEvolve
Tree
p986
(dp987
g7
(imyEvolve
Tree
p988
(dp989
g15
I0
sg25
F-0.11023876122556597
sg16
I01
sbsg15
I1
sg17
I01
sg18
g30
sbsg17
I00
sg18
g28
sbsg17
I00
sg18
g28
sbaa(lp990
(imyEvolve
Tree
p991
(dp992
g10
(imyEvolve
Tree
p993
(dp994
g10
(imyEvolve
Tree
p995
(dp996
g7
(imyEvolve
Tree
p997
(dp998
g15
I0
sg25
F3.5054068188841594
sg16
I01
sbsg15
I1
sg17
I01
sg18
g30
sbsg15
I2
sg20
(imyEvolve
Tree
p999
(dp1000
g10
(imyEvolve
Tree
p1001
(dp1002
g15
I0
sg25
F0.6262576309711054
sg16
I01
sbsg15
I1
sg20
(imyEvolve
Tree
p1003
(dp1004
g15
I0
sg16
I00
sbsg17
I00
sg18
g29
sbsg17
I00
sg18
g28
sbsg15
I3
sg20
(imyEvolve
Tree
p1005
(dp1006
g7
(imyEvolve
Tree
p1007
(dp1008
g7
(imyEvolve
Tree
p1009
(dp1010
g15
I0
sg16
I00
sbsg15
I1
sg17
I01
sg18
g30
sbsg15
I2
sg17
I01
sg18
g19
sbsg17
I00
sg18
g28
sba(imyEvolve
Tree
p1011
(dp1012
g15
I4
sg10
(imyEvolve
Tree
p1013
(dp1014
g15
I3
sg10
(imyEvolve
Tree
p1015
(dp1016
g15
I2
sg10
(imyEvolve
Tree
p1017
(dp1018
g7
(imyEvolve
Tree
p1019
(dp1020
g15
I0
sg25
F-2.7587790380136634
sg16
I01
sbsg15
I1
sg17
I01
sg18
g45
sbsg20
(imyEvolve
Tree
p1021
(dp1022
g7
(imyEvolve
Tree
p1023
(dp1024
g15
I0
sg25
F-2.3874753821375627
sg16
I01
sbsg15
I1
sg17
I01
sg18
g45
sbsg17
I00
sg18
g28
sbsg20
(imyEvolve
Tree
p1025
(dp1026
g15
I2
sg10
(imyEvolve
Tree
p1027
(dp1028
g7
(imyEvolve
Tree
p1029
(dp1030
g15
I0
sg25
F4.92494923163925
sg16
I01
sbsg15
I1
sg17
I01
sg18
g44
sbsg20
(imyEvolve
Tree
p1031
(dp1032
g15
I1
sg10
(imyEvolve
Tree
p1033
(dp1034
g15
I0
sg25
F-2.936238318837625
sg16
I01
sbsg20
(imyEvolve
Tree
p1035
(dp1036
g15
I0
sg16
I00
sbsg17
I00
sg18
g43
sbsg17
I00
sg18
g43
sbsg17
I00
sg18
g29
sbsg20
(imyEvolve
Tree
p1037
(dp1038
g7
(imyEvolve
Tree
p1039
(dp1040
g7
(imyEvolve
Tree
p1041
(dp1042
g7
(imyEvolve
Tree
p1043
(dp1044
g15
I0
sg25
F-3.8803104613249193
sg16
I01
sbsg15
I1
sg17
I01
sg18
g30
sbsg15
I2
sg17
I01
sg18
g44
sbsg15
I3
sg17
I01
sg18
g30
sbsg17
I00
sg18
g29
sba(imyEvolve
Tree
p1045
(dp1046
g7
(imyEvolve
Tree
p1047
(dp1048
g10
(imyEvolve
Tree
p1049
(dp1050
g15
I0
sg25
F-0.02078655914463745
sg16
I01
sbsg15
I1
sg20
(imyEvolve
Tree
p1051
(dp1052
g15
I0
sg16
I00
sbsg17
I00
sg18
g43
sbsg15
I2
sg17
I01
sg18
g30
sba(imyEvolve
Tree
p1053
(dp1054
g7
(imyEvolve
Tree
p1055
(dp1056
g10
(imyEvolve
Tree
p1057
(dp1058
g15
I0
sg25
F1.933659526923563
sg16
I01
sbsg15
I1
sg20
(imyEvolve
Tree
p1059
(dp1060
g15
I0
sg16
I00
sbsg17
I00
sg18
g43
sbsg15
I2
sg17
I01
sg18
g45
sba(imyEvolve
Tree
p1061
(dp1062
g7
(imyEvolve
Tree
p1063
(dp1064
g10
(imyEvolve
Tree
p1065
(dp1066
g10
(imyEvolve
Tree
p1067
(dp1068
g15
I0
sg25
F4.074345342256093
sg16
I01
sbsg15
I1
sg20
(imyEvolve
Tree
p1069
(dp1070
g15
I0
sg25
F-0.6861801366770184
sg16
I01
sbsg17
I00
sg18
g29
sbsg15
I2
sg20
(imyEvolve
Tree
p1071
(dp1072
g7
(imyEvolve
Tree
p1073
(dp1074
g15
I0
sg16
I00
sbsg15
I1
sg17
I01
sg18
g45
sbsg17
I00
sg18
g28
sbsg15
I3
sg17
I01
sg18
g19
sba(imyEvolve
Tree
p1075
(dp1076
g10
(imyEvolve
Tree
p1077
(dp1078
g10
(imyEvolve
Tree
p1079
(dp1080
g10
(imyEvolve
Tree
p1081
(dp1082
g7
(imyEvolve
Tree
p1083
(dp1084
g7
(imyEvolve
Tree
p1085
(dp1086
g15
I0
sg16
I00
sbsg15
I1
sg17
I01
sg18
g45
sbsg15
I2
sg17
I01
sg18
g30
sbsg15
I3
sg20
(imyEvolve
Tree
p1087
(dp1088
g7
(imyEvolve
Tree
p1089
(dp1090
g10
(imyEvolve
Tree
p1091
(dp1092
g15
I0
sg16
I00
sbsg15
I1
sg20
(imyEvolve
Tree
p1093
(dp1094
g15
I0
sg16
I00
sbsg17
I00
sg18
g28
sbsg15
I2
sg17
I01
sg18
g44
sbsg17
I00
sg18
g43
sbsg15
I4
sg20
(imyEvolve
Tree
p1095
(dp1096
g10
(imyEvolve
Tree
p1097
(dp1098
g10
(imyEvolve
Tree
p1099
(dp1100
g10
(imyEvolve
Tree
p1101
(dp1102
g15
I0
sg16
I00
sbsg15
I1
sg20
(imyEvolve
Tree
p1103
(dp1104
g15
I0
sg25
F2.6586616501568594
sg16
I01
sbsg17
I00
sg18
g28
sbsg15
I2
sg20
(imyEvolve
Tree
p1105
(dp1106
g10
(imyEvolve
Tree
p1107
(dp1108
g15
I0
sg16
I00
sbsg15
I1
sg20
(imyEvolve
Tree
p1109
(dp1110
g15
I0
sg16
I00
sbsg17
I00
sg18
g28
sbsg17
I00
sg18
g43
sbsg15
I3
sg20
(imyEvolve
Tree
p1111
(dp1112
g7
(imyEvolve
Tree
p1113
(dp1114
g10
(imyEvolve
Tree
p1115
(dp1116
g15
I0
sg25
F-3.01115895555872
sg16
I01
sbsg15
I1
sg20
(imyEvolve
Tree
p1117
(dp1118
g15
I0
sg25
F-4.459676237411595
sg16
I01
sbsg17
I00
sg18
g43
sbsg15
I2
sg17
I01
sg18
g30
sbsg17
I00
sg18
g28
sbsg17
I00
sg18
g43
sbsg15
I5
sg20
(imyEvolve
Tree
p1119
(dp1120
g10
(imyEvolve
Tree
p1121
(dp1122
g10
(imyEvolve
Tree
p1123
(dp1124
g7
(imyEvolve
Tree
p1125
(dp1126
g7
(imyEvolve
Tree
p1127
(dp1128
g15
I0
sg25
F2.3202691221587006
sg16
I01
sbsg15
I1
sg17
I01
sg18
g44
sbsg15
I2
sg17
I01
sg18
g45
sbsg15
I3
sg20
(imyEvolve
Tree
p1129
(dp1130
g10
(imyEvolve
Tree
p1131
(dp1132
g10
(imyEvolve
Tree
p1133
(dp1134
g15
I0
sg25
F3.7685427123499267
sg16
I01
sbsg15
I1
sg20
(imyEvolve
Tree
p1135
(dp1136
g15
I0
sg16
I00
sbsg17
I00
sg18
g43
sbsg15
I2
sg20
(imyEvolve
Tree
p1137
(dp1138
g10
(imyEvolve
Tree
p1139
(dp1140
g15
I0
sg25
F0.19825187232827535
sg16
I01
sbsg15
I1
sg20
(imyEvolve
Tree
p1141
(dp1142
g15
I0
sg16
I00
sbsg17
I00
sg18
g29
sbsg17
I00
sg18
g28
sbsg17
I00
sg18
g29
sbsg15
I4
sg20
(imyEvolve
Tree
p1143
(dp1144
g10
(imyEvolve
Tree
p1145
(dp1146
g7
(imyEvolve
Tree
p1147
(dp1148
g10
(imyEvolve
Tree
p1149
(dp1150
g15
I0
sg25
F-3.5392911466354935
sg16
I01
sbsg15
I1
sg20
(imyEvolve
Tree
p1151
(dp1152
g15
I0
sg16
I00
sbsg17
I00
sg18
g43
sbsg15
I2
sg17
I01
sg18
g44
sbsg15
I3
sg20
(imyEvolve
Tree
p1153
(dp1154
g10
(imyEvolve
Tree
p1155
(dp1156
g10
(imyEvolve
Tree
p1157
(dp1158
g15
I0
sg25
F-4.308028690453016
sg16
I01
sbsg15
I1
sg20
(imyEvolve
Tree
p1159
(dp1160
g15
I0
sg16
I00
sbsg17
I00
sg18
g28
sbsg15
I2
sg20
(imyEvolve
Tree
p1161
(dp1162
g7
(imyEvolve
Tree
p1163
(dp1164
g15
I0
sg25
F-1.2210852721992724
sg16
I01
sbsg15
I1
sg17
I01
sg18
g45
sbsg17
I00
sg18
g29
sbsg17
I00
sg18
g29
sbsg17
I00
sg18
g28
sbsg17
I00
sg18
g28
sba(imyEvolve
Tree
p1165
(dp1166
g7
(imyEvolve
Tree
p1167
(dp1168
g7
(imyEvolve
Tree
p1169
(dp1170
g7
(imyEvolve
Tree
p1171
(dp1172
g10
(imyEvolve
Tree
p1173
(dp1174
g15
I0
sg25
F-3.68414294629416
sg16
I01
sbsg15
I1
sg20
(imyEvolve
Tree
p1175
(dp1176
g15
I0
sg25
F0.6804482852868121
sg16
I01
sbsg17
I00
sg18
g43
sbsg15
I2
sg17
I01
sg18
g45
sbsg15
I3
sg17
I01
sg18
g30
sbsg15
I4
sg17
I01
sg18
g30
sba(imyEvolve
Tree
p1177
(dp1178
g7
(imyEvolve
Tree
p1179
(dp1180
g7
(imyEvolve
Tree
p1181
(dp1182
g7
(imyEvolve
Tree
p1183
(dp1184
g7
(imyEvolve
Tree
p1185
(dp1186
g7
(imyEvolve
Tree
p1187
(dp1188
g15
I0
sg25
F-2.5712273494561035
sg16
I01
sbsg15
I1
sg17
I01
sg18
g19
sbsg15
I2
sg17
I01
sg18
g19
sbsg15
I3
sg17
I01
sg18
g30
sbsg15
I4
sg17
I01
sg18
g44
sbsg15
I5
sg17
I01
sg18
g44
sba(imyEvolve
Tree
p1189
(dp1190
g7
(imyEvolve
Tree
p1191
(dp1192
g10
(imyEvolve
Tree
p1193
(dp1194
g15
I0
sg16
I00
sbsg15
I1
sg20
(imyEvolve
Tree
p1195
(dp1196
g15
I0
sg16
I00
sbsg17
I00
sg18
g43
sbsg15
I2
sg17
I01
sg18
g45
sba(imyEvolve
Tree
p1197
(dp1198
g7
(imyEvolve
Tree
p1199
(dp1200
g7
(imyEvolve
Tree
p1201
(dp1202
g7
(imyEvolve
Tree
p1203
(dp1204
g10
(imyEvolve
Tree
p1205
(dp1206
g15
I0
sg16
I00
sbsg15
I1
sg20
(imyEvolve
Tree
p1207
(dp1208
g15
I0
sg16
I00
sbsg17
I00
sg18
g29
sbsg15
I2
sg17
I01
sg18
g30
sbsg15
I3
sg17
I01
sg18
g44
sbsg15
I4
sg17
I01
sg18
g19
sba(imyEvolve
Tree
p1209
(dp1210
g15
I5
sg10
(imyEvolve
Tree
p1211
(dp1212
g7
(imyEvolve
Tree
p1213
(dp1214
g15
I3
sg10
(imyEvolve
Tree
p1215
(dp1216
g15
I2
sg10
(imyEvolve
Tree
p1217
(dp1218
g7
(imyEvolve
Tree
p1219
(dp1220
g15
I0
sg25
F-4.281994207575114
sg16
I01
sbsg15
I1
sg17
I01
sg18
g45
sbsg20
(imyEvolve
Tree
p1221
(dp1222
g15
I1
sg10
(imyEvolve
Tree
p1223
(dp1224
g15
I0
sg25
F2.86626303849787
sg16
I01
sbsg20
(imyEvolve
Tree
p1225
(dp1226
g15
I0
sg16
I00
sbsg17
I00
sg18
g28
sbsg17
I00
sg18
g29
sbsg20
(imyEvolve
Tree
p1227
(dp1228
g15
I2
sg10
(imyEvolve
Tree
p1229
(dp1230
g7
(imyEvolve
Tree
p1231
(dp1232
g15
I0
sg16
I00
sbsg15
I1
sg17
I01
sg18
g30
sbsg20
(imyEvolve
Tree
p1233
(dp1234
g7
(imyEvolve
Tree
p1235
(dp1236
g15
I0
sg25
F-4.843089967827304
sg16
I01
sbsg15
I1
sg17
I01
sg18
g45
sbsg17
I00
sg18
g43
sbsg17
I00
sg18
g29
sbsg15
I4
sg17
I01
sg18
g19
sbsg20
(imyEvolve
Tree
p1237
(dp1238
g7
(imyEvolve
Tree
p1239
(dp1240
g7
(imyEvolve
Tree
p1241
(dp1242
g15
I2
sg10
(imyEvolve
Tree
p1243
(dp1244
g15
I1
sg10
(imyEvolve
Tree
p1245
(dp1246
g15
I0
sg25
F-4.012811069692547
sg16
I01
sbsg20
(imyEvolve
Tree
p1247
(dp1248
g15
I0
sg16
I00
sbsg17
I00
sg18
g29
sbsg20
(imyEvolve
Tree
p1249
(dp1250
g7
(imyEvolve
Tree
p1251
(dp1252
g15
I0
sg25
F3.8222083096836013
sg16
I01
sbsg15
I1
sg17
I01
sg18
g45
sbsg17
I00
sg18
g29
sbsg15
I3
sg17
I01
sg18
g30
sbsg15
I4
sg17
I01
sg18
g45
sbsg17
I00
sg18
g29
sba(imyEvolve
Tree
p1253
(dp1254
g10
(imyEvolve
Tree
p1255
(dp1256
g10
(imyEvolve
Tree
p1257
(dp1258
g15
I0
sg16
I00
sbsg15
I1
sg20
(imyEvolve
Tree
p1259
(dp1260
g15
I0
sg25
F0.36583402878725746
sg16
I01
sbsg17
I00
sg18
g29
sbsg15
I2
sg20
(imyEvolve
Tree
p1261
(dp1262
g7
(imyEvolve
Tree
p1263
(dp1264
g15
I0
sg25
F2.749333940777131
sg16
I01
sbsg15
I1
sg17
I01
sg18
g45
sbsg17
I00
sg18
g28
sba(imyEvolve
Tree
p1265
(dp1266
g10
(imyEvolve
Tree
p1267
(dp1268
g7
(imyEvolve
Tree
p1269
(dp1270
g10
(imyEvolve
Tree
p1271
(dp1272
g7
(imyEvolve
Tree
p1273
(dp1274
g15
I0
sg16
I00
sbsg15
I1
sg17
I01
sg18
g30
sbsg15
I2
sg20
(imyEvolve
Tree
p1275
(dp1276
g7
(imyEvolve
Tree
p1277
(dp1278
g15
I0
sg25
F-3.717151736803894
sg16
I01
sbsg15
I1
sg17
I01
sg18
g30
sbsg17
I00
sg18
g43
sbsg15
I3
sg17
I01
sg18
g45
sbsg15
I4
sg20
(imyEvolve
Tree
p1279
(dp1280
g7
(imyEvolve
Tree
p1281
(dp1282
g10
(imyEvolve
Tree
p1283
(dp1284
g10
(imyEvolve
Tree
p1285
(dp1286
g15
I0
sg16
I00
sbsg15
I1
sg20
(imyEvolve
Tree
p1287
(dp1288
g15
I0
sg16
I00
sbsg17
I00
sg18
g43
sbsg15
I2
sg20
(imyEvolve
Tree
p1289
(dp1290
g7
(imyEvolve
Tree
p1291
(dp1292
g15
I0
sg16
I00
sbsg15
I1
sg17
I01
sg18
g45
sbsg17
I00
sg18
g29
sbsg15
I3
sg17
I01
sg18
g19
sbsg17
I00
sg18
g29
sba(imyEvolve
Tree
p1293
(dp1294
g7
(imyEvolve
Tree
p1295
(dp1296
g15
I4
sg10
(imyEvolve
Tree
p1297
(dp1298
g7
(imyEvolve
Tree
p1299
(dp1300
g7
(imyEvolve
Tree
p1301
(dp1302
g7
(imyEvolve
Tree
p1303
(dp1304
g15
I0
sg16
I00
sbsg15
I1
sg17
I01
sg18
g44
sbsg15
I2
sg17
I01
sg18
g44
sbsg15
I3
sg17
I01
sg18
g19
sbsg20
(imyEvolve
Tree
p1305
(dp1306
g7
(imyEvolve
Tree
p1307
(dp1308
g7
(imyEvolve
Tree
p1309
(dp1310
g7
(imyEvolve
Tree
p1311
(dp1312
g15
I0
sg25
F0.8833669919331966
sg16
I01
sbsg15
I1
sg17
I01
sg18
g19
sbsg15
I2
sg17
I01
sg18
g44
sbsg15
I3
sg17
I01
sg18
g44
sbsg17
I00
sg18
g28
sbsg15
I5
sg17
I01
sg18
g30
sba(imyEvolve
Tree
p1313
(dp1314
g7
(imyEvolve
Tree
p1315
(dp1316
g7
(imyEvolve
Tree
p1317
(dp1318
g15
I0
sg25
F2.3243756527407244
sg16
I01
sbsg15
I1
sg17
I01
sg18
g19
sbsg15
I2
sg17
I01
sg18
g19
sba(imyEvolve
Tree
p1319
(dp1320
g7
(imyEvolve
Tree
p1321
(dp1322
g7
(imyEvolve
Tree
p1323
(dp1324
g15
I0
sg16
I00
sbsg15
I1
sg17
I01
sg18
g45
sbsg15
I2
sg17
I01
sg18
g19
sbaa(lp1325
(imyEvolve
Tree
p1326
(dp1327
g10
(imyEvolve
Tree
p1328
(dp1329
g7
(imyEvolve
Tree
p1330
(dp1331
g7
(imyEvolve
Tree
p1332
(dp1333
g7
(imyEvolve
Tree
p1334
(dp1335
g15
I0
sg25
F4.0466873705469695
sg16
I01
sbsg15
I1
sg17
I01
sg18
g45
sbsg15
I2
sg17
I01
sg18
g19
sbsg15
I3
sg17
I01
sg18
g30
sbsg15
I4
sg20
(imyEvolve
Tree
p1336
(dp1337
g10
(imyEvolve
Tree
p1338
(dp1339
g10
(imyEvolve
Tree
p1340
(dp1341
g10
(imyEvolve
Tree
p1342
(dp1343
g15
I0
sg16
I00
sbsg15
I1
sg20
(imyEvolve
Tree
p1344
(dp1345
g15
I0
sg16
I00
sbsg17
I00
sg18
g43
sbsg15
I2
sg20
(imyEvolve
Tree
p1346
(dp1347
g10
(imyEvolve
Tree
p1348
(dp1349
g15
I0
sg16
I00
sbsg15
I1
sg20
(imyEvolve
Tree
p1350
(dp1351
g15
I0
sg16
I00
sbsg17
I00
sg18
g29
sbsg17
I00
sg18
g28
sbsg15
I3
sg20
(imyEvolve
Tree
p1352
(dp1353
g7
(imyEvolve
Tree
p1354
(dp1355
g10
(imyEvolve
Tree
p1356
(dp1357
g15
I0
sg16
I00
sbsg15
I1
sg20
(imyEvolve
Tree
p1358
(dp1359
g15
I0
sg16
I00
sbsg17
I00
sg18
g28
sbsg15
I2
sg17
I01
sg18
g44
sbsg17
I00
sg18
g43
sbsg17
I00
sg18
g43
sba(imyEvolve
Tree
p1360
(dp1361
g7
(imyEvolve
Tree
p1362
(dp1363
g15
I4
sg10
(imyEvolve
Tree
p1364
(dp1365
g15
I3
sg10
(imyEvolve
Tree
p1366
(dp1367
g7
(imyEvolve
Tree
p1368
(dp1369
g7
(imyEvolve
Tree
p1370
(dp1371
g15
I0
sg16
I00
sbsg15
I1
sg17
I01
sg18
g19
sbsg15
I2
sg17
I01
sg18
g30
sbsg20
(imyEvolve
Tree
p1372
(dp1373
g7
(imyEvolve
Tree
p1374
(dp1375
g7
(imyEvolve
Tree
p1376
(dp1377
g15
I0
sg25
F0.9136026181491106
sg16
I01
sbsg15
I1
sg17
I01
sg18
g44
sbsg15
I2
sg17
I01
sg18
g44
sbsg17
I00
sg18
g29
sbsg20
(imyEvolve
Tree
p1378
(dp1379
g15
I3
sg10
(imyEvolve
Tree
p1380
(dp1381
g7
(imyEvolve
Tree
p1382
(dp1383
g7
(imyEvolve
Tree
p1384
(dp1385
g15
I0
sg25
F-0.1070605726858247
sg16
I01
sbsg15
I1
sg17
I01
sg18
g44
sbsg15
I2
sg17
I01
sg18
g19
sbsg20
(imyEvolve
Tree
p1386
(dp1387
g7
(imyEvolve
Tree
p1388
(dp1389
g7
(imyEvolve
Tree
p1390
(dp1391
g15
I0
sg25
F-0.7620961561738513
sg16
I01
sbsg15
I1
sg17
I01
sg18
g44
sbsg15
I2
sg17
I01
sg18
g30
sbsg17
I00
sg18
g29
sbsg17
I00
sg18
g43
sbsg15
I5
sg17
I01
sg18
g44
sba(imyEvolve
Tree
p1392
(dp1393
g10
(imyEvolve
Tree
p1394
(dp1395
g7
(imyEvolve
Tree
p1396
(dp1397
g7
(imyEvolve
Tree
p1398
(dp1399
g7
(imyEvolve
Tree
p1400
(dp1401
g7
(imyEvolve
Tree
p1402
(dp1403
g15
I0
sg25
F-2.0535236785655284
sg16
I01
sbsg15
I1
sg17
I01
sg18
g19
sbsg15
I2
sg17
I01
sg18
g44
sbsg15
I3
sg17
I01
sg18
g45
sbsg15
I4
sg17
I01
sg18
g44
sbsg15
I5
sg20
(imyEvolve
Tree
p1404
(dp1405
g10
(imyEvolve
Tree
p1406
(dp1407
g7
(imyEvolve
Tree
p1408
(dp1409
g10
(imyEvolve
Tree
p1410
(dp1411
g7
(imyEvolve
Tree
p1412
(dp1413
g15
I0
sg16
I00
sbsg15
I1
sg17
I01
sg18
g44
sbsg15
I2
sg20
(imyEvolve
Tree
p1414
(dp1415
g7
(imyEvolve
Tree
p1416
(dp1417
g15
I0
sg16
I00
sbsg15
I1
sg17
I01
sg18
g44
sbsg17
I00
sg18
g43
sbsg15
I3
sg17
I01
sg18
g45
sbsg15
I4
sg20
(imyEvolve
Tree
p1418
(dp1419
g10
(imyEvolve
Tree
p1420
(dp1421
g7
(imyEvolve
Tree
p1422
(dp1423
g10
(imyEvolve
Tree
p1424
(dp1425
g15
I0
sg25
F3.2778553545503204
sg16
I01
sbsg15
I1
sg20
(imyEvolve
Tree
p1426
(dp1427
g15
I0
sg25
F1.3259549856298323
sg16
I01
sbsg17
I00
sg18
g28
sbsg15
I2
sg17
I01
sg18
g30
sbsg15
I3
sg20
(imyEvolve
Tree
p1428
(dp1429
g7
(imyEvolve
Tree
p1430
(dp1431
g10
(imyEvolve
Tree
p1432
(dp1433
g15
I0
sg25
F0.7166694701182603
sg16
I01
sbsg15
I1
sg20
(imyEvolve
Tree
p1434
(dp1435
g15
I0
sg16
I00
sbsg17
I00
sg18
g28
sbsg15
I2
sg17
I01
sg18
g19
sbsg17
I00
sg18
g29
sbsg17
I00
sg18
g28
sbsg17
I00
sg18
g29
sba(imyEvolve
Tree
p1436
(dp1437
g7
(imyEvolve
Tree
p1438
(dp1439
g7
(imyEvolve
Tree
p1440
(dp1441
g15
I3
sg10
(imyEvolve
Tree
p1442
(dp1443
g7
(imyEvolve
Tree
p1444
(dp1445
g7
(imyEvolve
Tree
p1446
(dp1447
g15
I0
sg16
I00
sbsg15
I1
sg17
I01
sg18
g45
sbsg15
I2
sg17
I01
sg18
g30
sbsg20
(imyEvolve
Tree
p1448
(dp1449
g15
I2
sg10
(imyEvolve
Tree
p1450
(dp1451
g15
I1
sg10
(imyEvolve
Tree
p1452
(dp1453
g15
I0
sg25
F-2.9917558506885222
sg16
I01
sbsg20
(imyEvolve
Tree
p1454
(dp1455
g15
I0
sg25
F-1.7882033185733146
sg16
I01
sbsg17
I00
sg18
g28
sbsg20
(imyEvolve
Tree
p1456
(dp1457
g15
I1
sg10
(imyEvolve
Tree
p1458
(dp1459
g15
I0
sg25
F1.1166502019080902
sg16
I01
sbsg20
(imyEvolve
Tree
p1460
(dp1461
g15
I0
sg25
F-3.6445108601417617
sg16
I01
sbsg17
I00
sg18
g28
sbsg17
I00
sg18
g43
sbsg17
I00
sg18
g28
sbsg15
I4
sg17
I01
sg18
g45
sbsg15
I5
sg17
I01
sg18
g45
sba(imyEvolve
Tree
p1462
(dp1463
g10
(imyEvolve
Tree
p1464
(dp1465
g7
(imyEvolve
Tree
p1466
(dp1467
g7
(imyEvolve
Tree
p1468
(dp1469
g15
I0
sg16
I00
sbsg15
I1
sg17
I01
sg18
g44
sbsg15
I2
sg17
I01
sg18
g19
sbsg15
I3
sg20
(imyEvolve
Tree
p1470
(dp1471
g7
(imyEvolve
Tree
p1472
(dp1473
g7
(imyEvolve
Tree
p1474
(dp1475
g15
I0
sg16
I00
sbsg15
I1
sg17
I01
sg18
g45
sbsg15
I2
sg17
I01
sg18
g30
sbsg17
I00
sg18
g43
sba(imyEvolve
Tree
p1476
(dp1477
g7
(imyEvolve
Tree
p1478
(dp1479
g7
(imyEvolve
Tree
p1480
(dp1481
g10
(imyEvolve
Tree
p1482
(dp1483
g15
I0
sg25
F-1.1030434326499607
sg16
I01
sbsg15
I1
sg20
(imyEvolve
Tree
p1484
(dp1485
g15
I0
sg25
F1.228012950190144
sg16
I01
sbsg17
I00
sg18
g43
sbsg15
I2
sg17
I01
sg18
g45
sbsg15
I3
sg17
I01
sg18
g30
sba(imyEvolve
Tree
p1486
(dp1487
g10
(imyEvolve
Tree
p1488
(dp1489
g7
(imyEvolve
Tree
p1490
(dp1491
g7
(imyEvolve
Tree
p1492
(dp1493
g15
I0
sg25
F0.12951811867115737
sg16
I01
sbsg15
I1
sg17
I01
sg18
g30
sbsg15
I2
sg17
I01
sg18
g30
sbsg15
I3
sg20
(imyEvolve
Tree
p1494
(dp1495
g7
(imyEvolve
Tree
p1496
(dp1497
g7
(imyEvolve
Tree
p1498
(dp1499
g15
I0
sg16
I00
sbsg15
I1
sg17
I01
sg18
g45
sbsg15
I2
sg17
I01
sg18
g44
sbsg17
I00
sg18
g43
sba(imyEvolve
Tree
p1500
(dp1501
g15
I4
sg10
(imyEvolve
Tree
p1502
(dp1503
g7
(imyEvolve
Tree
p1504
(dp1505
g15
I2
sg10
(imyEvolve
Tree
p1506
(dp1507
g15
I1
sg10
(imyEvolve
Tree
p1508
(dp1509
g15
I0
sg25
F-1.507215476397381
sg16
I01
sbsg20
(imyEvolve
Tree
p1510
(dp1511
g15
I0
sg25
F4.236801750830066
sg16
I01
sbsg17
I00
sg18
g29
sbsg20
(imyEvolve
Tree
p1512
(dp1513
g7
(imyEvolve
Tree
p1514
(dp1515
g15
I0
sg25
F0.9305579156186568
sg16
I01
sbsg15
I1
sg17
I01
sg18
g19
sbsg17
I00
sg18
g43
sbsg15
I3
sg17
I01
sg18
g19
sbsg20
(imyEvolve
Tree
p1516
(dp1517
g7
(imyEvolve
Tree
p1518
(dp1519
g7
(imyEvolve
Tree
p1520
(dp1521
g15
I1
sg10
(imyEvolve
Tree
p1522
(dp1523
g15
I0
sg25
F-1.938029473764178
sg16
I01
sbsg20
(imyEvolve
Tree
p1524
(dp1525
g15
I0
sg25
F-2.1320416417733767
sg16
I01
sbsg17
I00
sg18
g28
sbsg15
I2
sg17
I01
sg18
g44
sbsg15
I3
sg17
I01
sg18
g19
sbsg17
I00
sg18
g29
sba(imyEvolve
Tree
p1526
(dp1527
g10
(imyEvolve
Tree
p1528
(dp1529
g7
(imyEvolve
Tree
p1530
(dp1531
g10
(imyEvolve
Tree
p1532
(dp1533
g7
(imyEvolve
Tree
p1534
(dp1535
g7
(imyEvolve
Tree
p1536
(dp1537
g15
I0
sg16
I00
sbsg15
I1
sg17
I01
sg18
g30
sbsg15
I2
sg17
I01
sg18
g30
sbsg15
I3
sg20
(imyEvolve
Tree
p1538
(dp1539
g10
(imyEvolve
Tree
p1540
(dp1541
g7
(imyEvolve
Tree
p1542
(dp1543
g15
I0
sg16
I00
sbsg15
I1
sg17
I01
sg18
g19
sbsg15
I2
sg20
(imyEvolve
Tree
p1544
(dp1545
g7
(imyEvolve
Tree
p1546
(dp1547
g15
I0
sg25
F-2.6930063238811486
sg16
I01
sbsg15
I1
sg17
I01
sg18
g45
sbsg17
I00
sg18
g43
sbsg17
I00
sg18
g29
sbsg15
I4
sg17
I01
sg18
g44
sbsg15
I5
sg20
(imyEvolve
Tree
p1548
(dp1549
g10
(imyEvolve
Tree
p1550
(dp1551
g10
(imyEvolve
Tree
p1552
(dp1553
g7
(imyEvolve
Tree
p1554
(dp1555
g10
(imyEvolve
Tree
p1556
(dp1557
g15
I0
sg16
I00
sbsg15
I1
sg20
(imyEvolve
Tree
p1558
(dp1559
g15
I0
sg16
I00
sbsg17
I00
sg18
g28
sbsg15
I2
sg17
I01
sg18
g44
sbsg15
I3
sg20
(imyEvolve
Tree
p1560
(dp1561
g7
(imyEvolve
Tree
p1562
(dp1563
g7
(imyEvolve
Tree
p1564
(dp1565
g15
I0
sg25
F-4.5415698997285485
sg16
I01
sbsg15
I1
sg17
I01
sg18
g45
sbsg15
I2
sg17
I01
sg18
g30
sbsg17
I00
sg18
g28
sbsg15
I4
sg20
(imyEvolve
Tree
p1566
(dp1567
g7
(imyEvolve
Tree
p1568
(dp1569
g7
(imyEvolve
Tree
p1570
(dp1571
g7
(imyEvolve
Tree
p1572
(dp1573
g15
I0
sg16
I00
sbsg15
I1
sg17
I01
sg18
g30
sbsg15
I2
sg17
I01
sg18
g45
sbsg15
I3
sg17
I01
sg18
g30
sbsg17
I00
sg18
g43
sbsg17
I00
sg18
g43
sba(imyEvolve
Tree
p1574
(dp1575
g10
(imyEvolve
Tree
p1576
(dp1577
g7
(imyEvolve
Tree
p1578
(dp1579
g7
(imyEvolve
Tree
p1580
(dp1581
g10
(imyEvolve
Tree
p1582
(dp1583
g10
(imyEvolve
Tree
p1584
(dp1585
g15
I0
sg16
I00
sbsg15
I1
sg20
(imyEvolve
Tree
p1586
(dp1587
g15
I0
sg25
F-3.527276896939975
sg16
I01
sbsg17
I00
sg18
g43
sbsg15
I2
sg20
(imyEvolve
Tree
p1588
(dp1589
g10
(imyEvolve
Tree
p1590
(dp1591
g15
I0
sg25
F-0.9328692905495632
sg16
I01
sbsg15
I1
sg20
(imyEvolve
Tree
p1592
(dp1593
g15
I0
sg25
F-4.172451690390131
sg16
I01
sbsg17
I00
sg18
g28
sbsg17
I00
sg18
g28
sbsg15
I3
sg17
I01
sg18
g44
sbsg15
I4
sg17
I01
sg18
g30
sbsg15
I5
sg20
(imyEvolve
Tree
p1594
(dp1595
g7
(imyEvolve
Tree
p1596
(dp1597
g10
(imyEvolve
Tree
p1598
(dp1599
g7
(imyEvolve
Tree
p1600
(dp1601
g10
(imyEvolve
Tree
p1602
(dp1603
g15
I0
sg16
I00
sbsg15
I1
sg20
(imyEvolve
Tree
p1604
(dp1605
g15
I0
sg25
F1.0685724340679101
sg16
I01
sbsg17
I00
sg18
g29
sbsg15
I2
sg17
I01
sg18
g45
sbsg15
I3
sg20
(imyEvolve
Tree
p1606
(dp1607
g10
(imyEvolve
Tree
p1608
(dp1609
g7
(imyEvolve
Tree
p1610
(dp1611
g15
I0
sg25
F1.8844263729819888
sg16
I01
sbsg15
I1
sg17
I01
sg18
g45
sbsg15
I2
sg20
(imyEvolve
Tree
p1612
(dp1613
g10
(imyEvolve
Tree
p1614
(dp1615
g15
I0
sg16
I00
sbsg15
I1
sg20
(imyEvolve
Tree
p1616
(dp1617
g15
I0
sg25
F-1.983303008879914
sg16
I01
sbsg17
I00
sg18
g43
sbsg17
I00
sg18
g29
sbsg17
I00
sg18
g43
sbsg15
I4
sg17
I01
sg18
g44
sbsg17
I00
sg18
g43
sba(imyEvolve
Tree
p1618
(dp1619
g7
(imyEvolve
Tree
p1620
(dp1621
g7
(imyEvolve
Tree
p1622
(dp1623
g7
(imyEvolve
Tree
p1624
(dp1625
g15
I0
sg25
F4.170452359029376
sg16
I01
sbsg15
I1
sg17
I01
sg18
g19
sbsg15
I2
sg17
I01
sg18
g44
sbsg15
I3
sg17
I01
sg18
g45
sba(imyEvolve
Tree
p1626
(dp1627
g15
I5
sg10
(imyEvolve
Tree
p1628
(dp1629
g15
I4
sg10
(imyEvolve
Tree
p1630
(dp1631
g15
I3
sg10
(imyEvolve
Tree
p1632
(dp1633
g15
I2
sg10
(imyEvolve
Tree
p1634
(dp1635
g7
(imyEvolve
Tree
p1636
(dp1637
g15
I0
sg25
F2.0590596080583587
sg16
I01
sbsg15
I1
sg17
I01
sg18
g45
sbsg20
(imyEvolve
Tree
p1638
(dp1639
g7
(imyEvolve
Tree
p1640
(dp1641
g15
I0
sg25
F3.534549389833021
sg16
I01
sbsg15
I1
sg17
I01
sg18
g44
sbsg17
I00
sg18
g43
sbsg20
(imyEvolve
Tree
p1642
(dp1643
g7
(imyEvolve
Tree
p1644
(dp1645
g15
I1
sg10
(imyEvolve
Tree
p1646
(dp1647
g15
I0
sg16
I00
sbsg20
(imyEvolve
Tree
p1648
(dp1649
g15
I0
sg25
F-3.0700279084955095
sg16
I01
sbsg17
I00
sg18
g29
sbsg15
I2
sg17
I01
sg18
g45
sbsg17
I00
sg18
g29
sbsg20
(imyEvolve
Tree
p1650
(dp1651
g15
I3
sg10
(imyEvolve
Tree
p1652
(dp1653
g15
I2
sg10
(imyEvolve
Tree
p1654
(dp1655
g7
(imyEvolve
Tree
p1656
(dp1657
g15
I0
sg16
I00
sbsg15
I1
sg17
I01
sg18
g19
sbsg20
(imyEvolve
Tree
p1658
(dp1659
g15
I1
sg10
(imyEvolve
Tree
p1660
(dp1661
g15
I0
sg16
I00
sbsg20
(imyEvolve
Tree
p1662
(dp1663
g15
I0
sg25
F-3.295269958782897
sg16
I01
sbsg17
I00
sg18
g43
sbsg17
I00
sg18
g43
sbsg20
(imyEvolve
Tree
p1664
(dp1665
g15
I2
sg10
(imyEvolve
Tree
p1666
(dp1667
g15
I1
sg10
(imyEvolve
Tree
p1668
(dp1669
g15
I0
sg16
I00
sbsg20
(imyEvolve
Tree
p1670
(dp1671
g15
I0
sg25
F2.1016305536015967
sg16
I01
sbsg17
I00
sg18
g43
sbsg20
(imyEvolve
Tree
p1672
(dp1673
g15
I1
sg10
(imyEvolve
Tree
p1674
(dp1675
g15
I0
sg25
F3.3709141086691687
sg16
I01
sbsg20
(imyEvolve
Tree
p1676
(dp1677
g15
I0
sg25
F-2.879187003648976
sg16
I01
sbsg17
I00
sg18
g43
sbsg17
I00
sg18
g28
sbsg17
I00
sg18
g28
sbsg17
I00
sg18
g28
sbsg20
(imyEvolve
Tree
p1678
(dp1679
g7
(imyEvolve
Tree
p1680
(dp1681
g7
(imyEvolve
Tree
p1682
(dp1683
g7
(imyEvolve
Tree
p1684
(dp1685
g7
(imyEvolve
Tree
p1686
(dp1687
g15
I0
sg25
F0.9137927376956299
sg16
I01
sbsg15
I1
sg17
I01
sg18
g19
sbsg15
I2
sg17
I01
sg18
g45
sbsg15
I3
sg17
I01
sg18
g44
sbsg15
I4
sg17
I01
sg18
g19
sbsg17
I00
sg18
g29
sba(imyEvolve
Tree
p1688
(dp1689
g7
(imyEvolve
Tree
p1690
(dp1691
g15
I3
sg10
(imyEvolve
Tree
p1692
(dp1693
g7
(imyEvolve
Tree
p1694
(dp1695
g15
I1
sg10
(imyEvolve
Tree
p1696
(dp1697
g15
I0
sg25
F-1.3461376696997727
sg16
I01
sbsg20
(imyEvolve
Tree
p1698
(dp1699
g15
I0
sg16
I00
sbsg17
I00
sg18
g28
sbsg15
I2
sg17
I01
sg18
g45
sbsg20
(imyEvolve
Tree
p1700
(dp1701
g15
I2
sg10
(imyEvolve
Tree
p1702
(dp1703
g7
(imyEvolve
Tree
p1704
(dp1705
g15
I0
sg25
F0.6779066657686048
sg16
I01
sbsg15
I1
sg17
I01
sg18
g30
sbsg20
(imyEvolve
Tree
p1706
(dp1707
g7
(imyEvolve
Tree
p1708
(dp1709
g15
I0
sg16
I00
sbsg15
I1
sg17
I01
sg18
g45
sbsg17
I00
sg18
g28
sbsg17
I00
sg18
g29
sbsg15
I4
sg17
I01
sg18
g19
sba(imyEvolve
Tree
p1710
(dp1711
g7
(imyEvolve
Tree
p1712
(dp1713
g7
(imyEvolve
Tree
p1714
(dp1715
g15
I3
sg10
(imyEvolve
Tree
p1716
(dp1717
g15
I2
sg10
(imyEvolve
Tree
p1718
(dp1719
g15
I1
sg10
(imyEvolve
Tree
p1720
(dp1721
g15
I0
sg25
F2.836771355067218
sg16
I01
sbsg20
(imyEvolve
Tree
p1722
(dp1723
g15
I0
sg16
I00
sbsg17
I00
sg18
g29
sbsg20
(imyEvolve
Tree
p1724
(dp1725
g15
I1
sg10
(imyEvolve
Tree
p1726
(dp1727
g15
I0
sg16
I00
sbsg20
(imyEvolve
Tree
p1728
(dp1729
g15
I0
sg16
I00
sbsg17
I00
sg18
g43
sbsg17
I00
sg18
g29
sbsg20
(imyEvolve
Tree
p1730
(dp1731
g7
(imyEvolve
Tree
p1732
(dp1733
g7
(imyEvolve
Tree
p1734
(dp1735
g15
I0
sg16
I00
sbsg15
I1
sg17
I01
sg18
g44
sbsg15
I2
sg17
I01
sg18
g30
sbsg17
I00
sg18
g43
sbsg15
I4
sg17
I01
sg18
g30
sbsg15
I5
sg17
I01
sg18
g45
sbaasS'alpha'
p1736
F0.007694606804776494
sS'fitness'
p1737
cnumpy.core.multiarray
scalar
p1738
(cnumpy
dtype
p1739
(S'f8'
p1740
I0
I1
tp1741
Rp1742
(I3
S'<'
p1743
NNNI-1
I-1
I0
tp1744
bS'\xa01w\xcd\xde\x82\x99\xbf'
p1745
tp1746
Rp1747
sS'weightSharing'
p1748
(lp1749
I00
aI00
asS'fitnessValid'
p1750
I00
sS'resolution'
p1751
I84
sb.