(imyEvolve
Individual
p0
(dp1
S'funcs'
p2
(lp3
(lp4
(imyEvolve
Tree
p5
(dp6
S'below'
p7
(imyEvolve
Tree
p8
(dp9
g7
(imyEvolve
Tree
p10
(dp11
g7
(imyEvolve
Tree
p12
(dp13
S'depth'
p14
I0
sS'isConstant'
p15
I00
sbsg14
I1
sS'single'
p16
I01
sS'op'
p17
cmath
cos
p18
sbsg14
I2
sg16
I01
sg17
cmyEvolve
absSqrt
p19
sbsg14
I3
sg16
I01
sg17
g18
sba(imyEvolve
Tree
p20
(dp21
S'left'
p22
(imyEvolve
Tree
p23
(dp24
g7
(imyEvolve
Tree
p25
(dp26
g22
(imyEvolve
Tree
p27
(dp28
g14
I0
sS'constant'
p29
F0.23403116206035524
sg15
I01
sbsg14
I1
sS'right'
p30
(imyEvolve
Tree
p31
(dp32
g14
I0
sg15
I00
sbsg16
I00
sg17
coperator
sub
p33
sbsg14
I2
sg16
I01
sg17
cmyEvolve
square
p34
sbsg14
I3
sg30
(imyEvolve
Tree
p35
(dp36
g22
(imyEvolve
Tree
p37
(dp38
g22
(imyEvolve
Tree
p39
(dp40
g14
I0
sg29
F3.5569515997570402
sg15
I01
sbsg14
I1
sg30
(imyEvolve
Tree
p41
(dp42
g14
I0
sg29
F2.219843764454441
sg15
I01
sbsg16
I00
sg17
coperator
mul
p43
sbsg14
I2
sg30
(imyEvolve
Tree
p44
(dp45
g7
(imyEvolve
Tree
p46
(dp47
g14
I0
sg15
I00
sbsg14
I1
sg16
I01
sg17
cmath
sin
p48
sbsg16
I00
sg17
coperator
add
p49
sbsg16
I00
sg17
g33
sba(imyEvolve
Tree
p50
(dp51
g22
(imyEvolve
Tree
p52
(dp53
g22
(imyEvolve
Tree
p54
(dp55
g14
I0
sg15
I00
sbsg14
I1
sg30
(imyEvolve
Tree
p56
(dp57
g14
I0
sg15
I00
sbsg16
I00
sg17
g33
sbsg14
I2
sg30
(imyEvolve
Tree
p58
(dp59
g22
(imyEvolve
Tree
p60
(dp61
g14
I0
sg15
I00
sbsg14
I1
sg30
(imyEvolve
Tree
p62
(dp63
g14
I0
sg29
F1.1997862212991812
sg15
I01
sbsg16
I00
sg17
g43
sbsg16
I00
sg17
g49
sba(imyEvolve
Tree
p64
(dp65
g7
(imyEvolve
Tree
p66
(dp67
g22
(imyEvolve
Tree
p68
(dp69
g22
(imyEvolve
Tree
p70
(dp71
g14
I0
sg29
F0.36826992967050387
sg15
I01
sbsg14
I1
sg30
(imyEvolve
Tree
p72
(dp73
g14
I0
sg29
F4.856780197386492
sg15
I01
sbsg16
I00
sg17
g33
sbsg14
I2
sg30
(imyEvolve
Tree
p74
(dp75
g22
(imyEvolve
Tree
p76
(dp77
g14
I0
sg29
F-0.5563782429086759
sg15
I01
sbsg14
I1
sg30
(imyEvolve
Tree
p78
(dp79
g14
I0
sg29
F3.779247722163099
sg15
I01
sbsg16
I00
sg17
g43
sbsg16
I00
sg17
g33
sbsg14
I3
sg16
I01
sg17
g48
sba(imyEvolve
Tree
p80
(dp81
g7
(imyEvolve
Tree
p82
(dp83
g7
(imyEvolve
Tree
p84
(dp85
g14
I0
sg29
F-1.3706023648151944
sg15
I01
sbsg14
I1
sg16
I01
sg17
g48
sbsg14
I2
sg16
I01
sg17
g34
sba(imyEvolve
Tree
p86
(dp87
g14
I4
sg22
(imyEvolve
Tree
p88
(dp89
g7
(imyEvolve
Tree
p90
(dp91
g14
I2
sg22
(imyEvolve
Tree
p92
(dp93
g7
(imyEvolve
Tree
p94
(dp95
g14
I0
sg15
I00
sbsg14
I1
sg16
I01
sg17
g19
sbsg30
(imyEvolve
Tree
p96
(dp97
g14
I1
sg22
(imyEvolve
Tree
p98
(dp99
g14
I0
sg29
F0.6681464356631643
sg15
I01
sbsg30
(imyEvolve
Tree
p100
(dp101
g14
I0
sg15
I00
sbsg16
I00
sg17
g49
sbsg16
I00
sg17
g33
sbsg14
I3
sg16
I01
sg17
g19
sbsg30
(imyEvolve
Tree
p102
(dp103
g14
I3
sg22
(imyEvolve
Tree
p104
(dp105
g7
(imyEvolve
Tree
p106
(dp107
g7
(imyEvolve
Tree
p108
(dp109
g14
I0
sg29
F3.26590587943096
sg15
I01
sbsg14
I1
sg16
I01
sg17
g48
sbsg14
I2
sg16
I01
sg17
g19
sbsg30
(imyEvolve
Tree
p110
(dp111
g7
(imyEvolve
Tree
p112
(dp113
g14
I1
sg22
(imyEvolve
Tree
p114
(dp115
g14
I0
sg15
I00
sbsg30
(imyEvolve
Tree
p116
(dp117
g14
I0
sg15
I00
sbsg16
I00
sg17
g43
sbsg14
I2
sg16
I01
sg17
g34
sbsg16
I00
sg17
g33
sbsg16
I00
sg17
g43
sba(imyEvolve
Tree
p118
(dp119
g7
(imyEvolve
Tree
p120
(dp121
g22
(imyEvolve
Tree
p122
(dp123
g14
I0
sg29
F0.7333504045363748
sg15
I01
sbsg14
I1
sg30
(imyEvolve
Tree
p124
(dp125
g14
I0
sg15
I00
sbsg16
I00
sg17
g43
sbsg14
I2
sg16
I01
sg17
g19
sba(imyEvolve
Tree
p126
(dp127
g7
(imyEvolve
Tree
p128
(dp129
g7
(imyEvolve
Tree
p130
(dp131
g7
(imyEvolve
Tree
p132
(dp133
g22
(imyEvolve
Tree
p134
(dp135
g7
(imyEvolve
Tree
p136
(dp137
g14
I0
sg29
F-1.5266529772187711
sg15
I01
sbsg14
I1
sg16
I01
sg17
g18
sbsg14
I2
sg30
(imyEvolve
Tree
p138
(dp139
g22
(imyEvolve
Tree
p140
(dp141
g14
I0
sg29
F2.490962801265403
sg15
I01
sbsg14
I1
sg30
(imyEvolve
Tree
p142
(dp143
g14
I0
sg15
I00
sbsg16
I00
sg17
g33
sbsg16
I00
sg17
g49
sbsg14
I3
sg16
I01
sg17
g48
sbsg14
I4
sg16
I01
sg17
g19
sbsg14
I5
sg16
I01
sg17
g19
sba(imyEvolve
Tree
p144
(dp145
g7
(imyEvolve
Tree
p146
(dp147
g7
(imyEvolve
Tree
p148
(dp149
g22
(imyEvolve
Tree
p150
(dp151
g14
I0
sg15
I00
sbsg14
I1
sg30
(imyEvolve
Tree
p152
(dp153
g14
I0
sg29
F0.12237748139200111
sg15
I01
sbsg16
I00
sg17
g43
sbsg14
I2
sg16
I01
sg17
g48
sbsg14
I3
sg16
I01
sg17
g19
sba(imyEvolve
Tree
p154
(dp155
g22
(imyEvolve
Tree
p156
(dp157
g22
(imyEvolve
Tree
p158
(dp159
g22
(imyEvolve
Tree
p160
(dp161
g22
(imyEvolve
Tree
p162
(dp163
g7
(imyEvolve
Tree
p164
(dp165
g14
I0
sg15
I00
sbsg14
I1
sg16
I01
sg17
g19
sbsg14
I2
sg30
(imyEvolve
Tree
p166
(dp167
g22
(imyEvolve
Tree
p168
(dp169
g14
I0
sg29
F3.24573270997651
sg15
I01
sbsg14
I1
sg30
(imyEvolve
Tree
p170
(dp171
g14
I0
sg15
I00
sbsg16
I00
sg17
g43
sbsg16
I00
sg17
g43
sbsg14
I3
sg30
(imyEvolve
Tree
p172
(dp173
g7
(imyEvolve
Tree
p174
(dp175
g7
(imyEvolve
Tree
p176
(dp177
g14
I0
sg15
I00
sbsg14
I1
sg16
I01
sg17
g19
sbsg14
I2
sg16
I01
sg17
g18
sbsg16
I00
sg17
g43
sbsg14
I4
sg30
(imyEvolve
Tree
p178
(dp179
g7
(imyEvolve
Tree
p180
(dp181
g7
(imyEvolve
Tree
p182
(dp183
g22
(imyEvolve
Tree
p184
(dp185
g14
I0
sg15
I00
sbsg14
I1
sg30
(imyEvolve
Tree
p186
(dp187
g14
I0
sg15
I00
sbsg16
I00
sg17
g43
sbsg14
I2
sg16
I01
sg17
g18
sbsg14
I3
sg16
I01
sg17
g34
sbsg16
I00
sg17
g49
sbsg14
I5
sg30
(imyEvolve
Tree
p188
(dp189
g22
(imyEvolve
Tree
p190
(dp191
g22
(imyEvolve
Tree
p192
(dp193
g7
(imyEvolve
Tree
p194
(dp195
g7
(imyEvolve
Tree
p196
(dp197
g14
I0
sg15
I00
sbsg14
I1
sg16
I01
sg17
g34
sbsg14
I2
sg16
I01
sg17
g34
sbsg14
I3
sg30
(imyEvolve
Tree
p198
(dp199
g22
(imyEvolve
Tree
p200
(dp201
g7
(imyEvolve
Tree
p202
(dp203
g14
I0
sg15
I00
sbsg14
I1
sg16
I01
sg17
g34
sbsg14
I2
sg30
(imyEvolve
Tree
p204
(dp205
g22
(imyEvolve
Tree
p206
(dp207
g14
I0
sg29
F-4.3509255633618515
sg15
I01
sbsg14
I1
sg30
(imyEvolve
Tree
p208
(dp209
g14
I0
sg29
F1.2824754600024848
sg15
I01
sbsg16
I00
sg17
g33
sbsg16
I00
sg17
g43
sbsg16
I00
sg17
g43
sbsg14
I4
sg30
(imyEvolve
Tree
p210
(dp211
g22
(imyEvolve
Tree
p212
(dp213
g7
(imyEvolve
Tree
p214
(dp215
g7
(imyEvolve
Tree
p216
(dp217
g14
I0
sg29
F-4.185139649671111
sg15
I01
sbsg14
I1
sg16
I01
sg17
g19
sbsg14
I2
sg16
I01
sg17
g18
sbsg14
I3
sg30
(imyEvolve
Tree
p218
(dp219
g7
(imyEvolve
Tree
p220
(dp221
g22
(imyEvolve
Tree
p222
(dp223
g14
I0
sg15
I00
sbsg14
I1
sg30
(imyEvolve
Tree
p224
(dp225
g14
I0
sg15
I00
sbsg16
I00
sg17
g33
sbsg14
I2
sg16
I01
sg17
g34
sbsg16
I00
sg17
g43
sbsg16
I00
sg17
g43
sbsg16
I00
sg17
g43
sba(imyEvolve
Tree
p226
(dp227
g7
(imyEvolve
Tree
p228
(dp229
g7
(imyEvolve
Tree
p230
(dp231
g22
(imyEvolve
Tree
p232
(dp233
g14
I0
sg15
I00
sbsg14
I1
sg30
(imyEvolve
Tree
p234
(dp235
g14
I0
sg29
F3.994219386937745
sg15
I01
sbsg16
I00
sg17
g33
sbsg14
I2
sg16
I01
sg17
g48
sbsg14
I3
sg16
I01
sg17
g34
sba(imyEvolve
Tree
p236
(dp237
g22
(imyEvolve
Tree
p238
(dp239
g22
(imyEvolve
Tree
p240
(dp241
g14
I0
sg29
F-1.2994539351659098
sg15
I01
sbsg14
I1
sg30
(imyEvolve
Tree
p242
(dp243
g14
I0
sg29
F-2.5765781421361975
sg15
I01
sbsg16
I00
sg17
g43
sbsg14
I2
sg30
(imyEvolve
Tree
p244
(dp245
g7
(imyEvolve
Tree
p246
(dp247
g14
I0
sg15
I00
sbsg14
I1
sg16
I01
sg17
g18
sbsg16
I00
sg17
g33
sba(imyEvolve
Tree
p248
(dp249
g22
(imyEvolve
Tree
p250
(dp251
g7
(imyEvolve
Tree
p252
(dp253
g7
(imyEvolve
Tree
p254
(dp255
g22
(imyEvolve
Tree
p256
(dp257
g22
(imyEvolve
Tree
p258
(dp259
g14
I0
sg15
I00
sbsg14
I1
sg30
(imyEvolve
Tree
p260
(dp261
g14
I0
sg15
I00
sbsg16
I00
sg17
g33
sbsg14
I2
sg30
(imyEvolve
Tree
p262
(dp263
g22
(imyEvolve
Tree
p264
(dp265
g14
I0
sg29
F4.633644690498791
sg15
I01
sbsg14
I1
sg30
(imyEvolve
Tree
p266
(dp267
g14
I0
sg29
F-1.3904863030402037
sg15
I01
sbsg16
I00
sg17
g43
sbsg16
I00
sg17
g43
sbsg14
I3
sg16
I01
sg17
g48
sbsg14
I4
sg16
I01
sg17
g34
sbsg14
I5
sg30
(imyEvolve
Tree
p268
(dp269
g22
(imyEvolve
Tree
p270
(dp271
g7
(imyEvolve
Tree
p272
(dp273
g7
(imyEvolve
Tree
p274
(dp275
g22
(imyEvolve
Tree
p276
(dp277
g14
I0
sg15
I00
sbsg14
I1
sg30
(imyEvolve
Tree
p278
(dp279
g14
I0
sg15
I00
sbsg16
I00
sg17
g43
sbsg14
I2
sg16
I01
sg17
g19
sbsg14
I3
sg16
I01
sg17
g48
sbsg14
I4
sg30
(imyEvolve
Tree
p280
(dp281
g22
(imyEvolve
Tree
p282
(dp283
g7
(imyEvolve
Tree
p284
(dp285
g7
(imyEvolve
Tree
p286
(dp287
g14
I0
sg29
F2.548957050353157
sg15
I01
sbsg14
I1
sg16
I01
sg17
g48
sbsg14
I2
sg16
I01
sg17
g48
sbsg14
I3
sg30
(imyEvolve
Tree
p288
(dp289
g22
(imyEvolve
Tree
p290
(dp291
g7
(imyEvolve
Tree
p292
(dp293
g14
I0
sg29
F-0.19701794788683635
sg15
I01
sbsg14
I1
sg16
I01
sg17
g34
sbsg14
I2
sg30
(imyEvolve
Tree
p294
(dp295
g22
(imyEvolve
Tree
p296
(dp297
g14
I0
sg15
I00
sbsg14
I1
sg30
(imyEvolve
Tree
p298
(dp299
g14
I0
sg29
F-2.619881128855911
sg15
I01
sbsg16
I00
sg17
g49
sbsg16
I00
sg17
g43
sbsg16
I00
sg17
g43
sbsg16
I00
sg17
g49
sbsg16
I00
sg17
g49
sba(imyEvolve
Tree
p300
(dp301
g7
(imyEvolve
Tree
p302
(dp303
g7
(imyEvolve
Tree
p304
(dp305
g22
(imyEvolve
Tree
p306
(dp307
g7
(imyEvolve
Tree
p308
(dp309
g7
(imyEvolve
Tree
p310
(dp311
g14
I0
sg15
I00
sbsg14
I1
sg16
I01
sg17
g48
sbsg14
I2
sg16
I01
sg17
g34
sbsg14
I3
sg30
(imyEvolve
Tree
p312
(dp313
g22
(imyEvolve
Tree
p314
(dp315
g7
(imyEvolve
Tree
p316
(dp317
g14
I0
sg29
F-4.496614673175651
sg15
I01
sbsg14
I1
sg16
I01
sg17
g19
sbsg14
I2
sg30
(imyEvolve
Tree
p318
(dp319
g7
(imyEvolve
Tree
p320
(dp321
g14
I0
sg15
I00
sbsg14
I1
sg16
I01
sg17
g19
sbsg16
I00
sg17
g33
sbsg16
I00
sg17
g49
sbsg14
I4
sg16
I01
sg17
g48
sbsg14
I5
sg16
I01
sg17
g19
sba(imyEvolve
Tree
p322
(dp323
g22
(imyEvolve
Tree
p324
(dp325
g22
(imyEvolve
Tree
p326
(dp327
g7
(imyEvolve
Tree
p328
(dp329
g22
(imyEvolve
Tree
p330
(dp331
g7
(imyEvolve
Tree
p332
(dp333
g14
I0
sg15
I00
sbsg14
I1
sg16
I01
sg17
g18
sbsg14
I2
sg30
(imyEvolve
Tree
p334
(dp335
g22
(imyEvolve
Tree
p336
(dp337
g14
I0
sg29
F-0.32993897016716645
sg15
I01
sbsg14
I1
sg30
(imyEvolve
Tree
p338
(dp339
g14
I0
sg29
F-2.76741041531153
sg15
I01
sbsg16
I00
sg17
g49
sbsg16
I00
sg17
g49
sbsg14
I3
sg16
I01
sg17
g18
sbsg14
I4
sg30
(imyEvolve
Tree
p340
(dp341
g22
(imyEvolve
Tree
p342
(dp343
g7
(imyEvolve
Tree
p344
(dp345
g7
(imyEvolve
Tree
p346
(dp347
g14
I0
sg15
I00
sbsg14
I1
sg16
I01
sg17
g19
sbsg14
I2
sg16
I01
sg17
g19
sbsg14
I3
sg30
(imyEvolve
Tree
p348
(dp349
g7
(imyEvolve
Tree
p350
(dp351
g7
(imyEvolve
Tree
p352
(dp353
g14
I0
sg29
F0.6165397513670925
sg15
I01
sbsg14
I1
sg16
I01
sg17
g48
sbsg14
I2
sg16
I01
sg17
g19
sbsg16
I00
sg17
g49
sbsg16
I00
sg17
g43
sbsg14
I5
sg30
(imyEvolve
Tree
p354
(dp355
g22
(imyEvolve
Tree
p356
(dp357
g7
(imyEvolve
Tree
p358
(dp359
g22
(imyEvolve
Tree
p360
(dp361
g22
(imyEvolve
Tree
p362
(dp363
g14
I0
sg29
F1.1722639674977833
sg15
I01
sbsg14
I1
sg30
(imyEvolve
Tree
p364
(dp365
g14
I0
sg15
I00
sbsg16
I00
sg17
g33
sbsg14
I2
sg30
(imyEvolve
Tree
p366
(dp367
g22
(imyEvolve
Tree
p368
(dp369
g14
I0
sg29
F-2.5237432323124565
sg15
I01
sbsg14
I1
sg30
(imyEvolve
Tree
p370
(dp371
g14
I0
sg29
F-0.9374002308326759
sg15
I01
sbsg16
I00
sg17
g43
sbsg16
I00
sg17
g49
sbsg14
I3
sg16
I01
sg17
g34
sbsg14
I4
sg30
(imyEvolve
Tree
p372
(dp373
g7
(imyEvolve
Tree
p374
(dp375
g22
(imyEvolve
Tree
p376
(dp377
g7
(imyEvolve
Tree
p378
(dp379
g14
I0
sg29
F-3.9657103343705313
sg15
I01
sbsg14
I1
sg16
I01
sg17
g48
sbsg14
I2
sg30
(imyEvolve
Tree
p380
(dp381
g22
(imyEvolve
Tree
p382
(dp383
g14
I0
sg29
F-4.129501668406897
sg15
I01
sbsg14
I1
sg30
(imyEvolve
Tree
p384
(dp385
g14
I0
sg15
I00
sbsg16
I00
sg17
g33
sbsg16
I00
sg17
g43
sbsg14
I3
sg16
I01
sg17
g34
sbsg16
I00
sg17
g33
sbsg16
I00
sg17
g33
sba(imyEvolve
Tree
p386
(dp387
g7
(imyEvolve
Tree
p388
(dp389
g22
(imyEvolve
Tree
p390
(dp391
g7
(imyEvolve
Tree
p392
(dp393
g7
(imyEvolve
Tree
p394
(dp395
g14
I0
sg29
F4.864363591071934
sg15
I01
sbsg14
I1
sg16
I01
sg17
g18
sbsg14
I2
sg16
I01
sg17
g34
sbsg14
I3
sg30
(imyEvolve
Tree
p396
(dp397
g7
(imyEvolve
Tree
p398
(dp399
g22
(imyEvolve
Tree
p400
(dp401
g14
I0
sg15
I00
sbsg14
I1
sg30
(imyEvolve
Tree
p402
(dp403
g14
I0
sg29
F3.9655982467009014
sg15
I01
sbsg16
I00
sg17
g43
sbsg14
I2
sg16
I01
sg17
g34
sbsg16
I00
sg17
g43
sbsg14
I4
sg16
I01
sg17
g34
sba(imyEvolve
Tree
p404
(dp405
g22
(imyEvolve
Tree
p406
(dp407
g22
(imyEvolve
Tree
p408
(dp409
g7
(imyEvolve
Tree
p410
(dp411
g14
I0
sg29
F-1.5928010025755048
sg15
I01
sbsg14
I1
sg16
I01
sg17
g18
sbsg14
I2
sg30
(imyEvolve
Tree
p412
(dp413
g22
(imyEvolve
Tree
p414
(dp415
g14
I0
sg29
F-0.2856660002625251
sg15
I01
sbsg14
I1
sg30
(imyEvolve
Tree
p416
(dp417
g14
I0
sg29
F4.192145816549843
sg15
I01
sbsg16
I00
sg17
g43
sbsg16
I00
sg17
g33
sbsg14
I3
sg30
(imyEvolve
Tree
p418
(dp419
g22
(imyEvolve
Tree
p420
(dp421
g22
(imyEvolve
Tree
p422
(dp423
g14
I0
sg29
F4.963102354681556
sg15
I01
sbsg14
I1
sg30
(imyEvolve
Tree
p424
(dp425
g14
I0
sg15
I00
sbsg16
I00
sg17
g33
sbsg14
I2
sg30
(imyEvolve
Tree
p426
(dp427
g7
(imyEvolve
Tree
p428
(dp429
g14
I0
sg15
I00
sbsg14
I1
sg16
I01
sg17
g48
sbsg16
I00
sg17
g49
sbsg16
I00
sg17
g49
sba(imyEvolve
Tree
p430
(dp431
g14
I5
sg22
(imyEvolve
Tree
p432
(dp433
g7
(imyEvolve
Tree
p434
(dp435
g14
I3
sg22
(imyEvolve
Tree
p436
(dp437
g14
I2
sg22
(imyEvolve
Tree
p438
(dp439
g7
(imyEvolve
Tree
p440
(dp441
g14
I0
sg15
I00
sbsg14
I1
sg16
I01
sg17
g34
sbsg30
(imyEvolve
Tree
p442
(dp443
g14
I1
sg22
(imyEvolve
Tree
p444
(dp445
g14
I0
sg29
F-3.466857640092801
sg15
I01
sbsg30
(imyEvolve
Tree
p446
(dp447
g14
I0
sg15
I00
sbsg16
I00
sg17
g33
sbsg16
I00
sg17
g33
sbsg30
(imyEvolve
Tree
p448
(dp449
g14
I2
sg22
(imyEvolve
Tree
p450
(dp451
g7
(imyEvolve
Tree
p452
(dp453
g14
I0
sg15
I00
sbsg14
I1
sg16
I01
sg17
g18
sbsg30
(imyEvolve
Tree
p454
(dp455
g14
I1
sg22
(imyEvolve
Tree
p456
(dp457
g14
I0
sg15
I00
sbsg30
(imyEvolve
Tree
p458
(dp459
g14
I0
sg29
F2.6227498767977595
sg15
I01
sbsg16
I00
sg17
g43
sbsg16
I00
sg17
g33
sbsg16
I00
sg17
g49
sbsg14
I4
sg16
I01
sg17
g19
sbsg30
(imyEvolve
Tree
p460
(dp461
g14
I4
sg22
(imyEvolve
Tree
p462
(dp463
g7
(imyEvolve
Tree
p464
(dp465
g14
I2
sg22
(imyEvolve
Tree
p466
(dp467
g7
(imyEvolve
Tree
p468
(dp469
g14
I0
sg15
I00
sbsg14
I1
sg16
I01
sg17
g34
sbsg30
(imyEvolve
Tree
p470
(dp471
g7
(imyEvolve
Tree
p472
(dp473
g14
I0
sg15
I00
sbsg14
I1
sg16
I01
sg17
g48
sbsg16
I00
sg17
g43
sbsg14
I3
sg16
I01
sg17
g18
sbsg30
(imyEvolve
Tree
p474
(dp475
g7
(imyEvolve
Tree
p476
(dp477
g14
I2
sg22
(imyEvolve
Tree
p478
(dp479
g14
I1
sg22
(imyEvolve
Tree
p480
(dp481
g14
I0
sg15
I00
sbsg30
(imyEvolve
Tree
p482
(dp483
g14
I0
sg15
I00
sbsg16
I00
sg17
g33
sbsg30
(imyEvolve
Tree
p484
(dp485
g7
(imyEvolve
Tree
p486
(dp487
g14
I0
sg29
F-3.173779333170197
sg15
I01
sbsg14
I1
sg16
I01
sg17
g18
sbsg16
I00
sg17
g33
sbsg14
I3
sg16
I01
sg17
g18
sbsg16
I00
sg17
g49
sbsg16
I00
sg17
g49
sba(imyEvolve
Tree
p488
(dp489
g22
(imyEvolve
Tree
p490
(dp491
g7
(imyEvolve
Tree
p492
(dp493
g22
(imyEvolve
Tree
p494
(dp495
g7
(imyEvolve
Tree
p496
(dp497
g22
(imyEvolve
Tree
p498
(dp499
g14
I0
sg15
I00
sbsg14
I1
sg30
(imyEvolve
Tree
p500
(dp501
g14
I0
sg29
F4.6137419990963995
sg15
I01
sbsg16
I00
sg17
g43
sbsg14
I2
sg16
I01
sg17
g18
sbsg14
I3
sg30
(imyEvolve
Tree
p502
(dp503
g22
(imyEvolve
Tree
p504
(dp505
g22
(imyEvolve
Tree
p506
(dp507
g14
I0
sg29
F4.187754054368021
sg15
I01
sbsg14
I1
sg30
(imyEvolve
Tree
p508
(dp509
g14
I0
sg29
F4.109180833659183
sg15
I01
sbsg16
I00
sg17
g33
sbsg14
I2
sg30
(imyEvolve
Tree
p510
(dp511
g22
(imyEvolve
Tree
p512
(dp513
g14
I0
sg15
I00
sbsg14
I1
sg30
(imyEvolve
Tree
p514
(dp515
g14
I0
sg29
F-0.2965696124342667
sg15
I01
sbsg16
I00
sg17
g43
sbsg16
I00
sg17
g49
sbsg16
I00
sg17
g33
sbsg14
I4
sg16
I01
sg17
g18
sbsg14
I5
sg30
(imyEvolve
Tree
p516
(dp517
g22
(imyEvolve
Tree
p518
(dp519
g22
(imyEvolve
Tree
p520
(dp521
g22
(imyEvolve
Tree
p522
(dp523
g22
(imyEvolve
Tree
p524
(dp525
g14
I0
sg15
I00
sbsg14
I1
sg30
(imyEvolve
Tree
p526
(dp527
g14
I0
sg15
I00
sbsg16
I00
sg17
g33
sbsg14
I2
sg30
(imyEvolve
Tree
p528
(dp529
g7
(imyEvolve
Tree
p530
(dp531
g14
I0
sg15
I00
sbsg14
I1
sg16
I01
sg17
g34
sbsg16
I00
sg17
g49
sbsg14
I3
sg30
(imyEvolve
Tree
p532
(dp533
g7
(imyEvolve
Tree
p534
(dp535
g22
(imyEvolve
Tree
p536
(dp537
g14
I0
sg15
I00
sbsg14
I1
sg30
(imyEvolve
Tree
p538
(dp539
g14
I0
sg15
I00
sbsg16
I00
sg17
g43
sbsg14
I2
sg16
I01
sg17
g19
sbsg16
I00
sg17
g33
sbsg14
I4
sg30
(imyEvolve
Tree
p540
(dp541
g7
(imyEvolve
Tree
p542
(dp543
g22
(imyEvolve
Tree
p544
(dp545
g22
(imyEvolve
Tree
p546
(dp547
g14
I0
sg15
I00
sbsg14
I1
sg30
(imyEvolve
Tree
p548
(dp549
g14
I0
sg15
I00
sbsg16
I00
sg17
g43
sbsg14
I2
sg30
(imyEvolve
Tree
p550
(dp551
g22
(imyEvolve
Tree
p552
(dp553
g14
I0
sg29
F4.0254278823044345
sg15
I01
sbsg14
I1
sg30
(imyEvolve
Tree
p554
(dp555
g14
I0
sg15
I00
sbsg16
I00
sg17
g49
sbsg16
I00
sg17
g33
sbsg14
I3
sg16
I01
sg17
g34
sbsg16
I00
sg17
g43
sbsg16
I00
sg17
g33
sbaa(lp556
(imyEvolve
Tree
p557
(dp558
g14
I2
sg22
(imyEvolve
Tree
p559
(dp560
g7
(imyEvolve
Tree
p561
(dp562
g14
I0
sg15
I00
sbsg14
I1
sg16
I01
sg17
g19
sbsg30
(imyEvolve
Tree
p563
(dp564
g14
I1
sg22
(imyEvolve
Tree
p565
(dp566
g14
I0
sg29
F-4.16007480530327
sg15
I01
sbsg30
(imyEvolve
Tree
p567
(dp568
g14
I0
sg29
F-1.408474791447134
sg15
I01
sbsg16
I00
sg17
g43
sbsg16
I00
sg17
g43
sba(imyEvolve
Tree
p569
(dp570
g22
(imyEvolve
Tree
p571
(dp572
g7
(imyEvolve
Tree
p573
(dp574
g14
I0
sg29
F3.6303689249808784
sg15
I01
sbsg14
I1
sg16
I01
sg17
g19
sbsg14
I2
sg30
(imyEvolve
Tree
p575
(dp576
g7
(imyEvolve
Tree
p577
(dp578
g14
I0
sg15
I00
sbsg14
I1
sg16
I01
sg17
g19
sbsg16
I00
sg17
g33
sba(imyEvolve
Tree
p579
(dp580
g22
(imyEvolve
Tree
p581
(dp582
g7
(imyEvolve
Tree
p583
(dp584
g7
(imyEvolve
Tree
p585
(dp586
g14
I0
sg15
I00
sbsg14
I1
sg16
I01
sg17
g19
sbsg14
I2
sg16
I01
sg17
g19
sbsg14
I3
sg30
(imyEvolve
Tree
p587
(dp588
g22
(imyEvolve
Tree
p589
(dp590
g22
(imyEvolve
Tree
p591
(dp592
g14
I0
sg29
F-3.2349969979401108
sg15
I01
sbsg14
I1
sg30
(imyEvolve
Tree
p593
(dp594
g14
I0
sg15
I00
sbsg16
I00
sg17
g33
sbsg14
I2
sg30
(imyEvolve
Tree
p595
(dp596
g22
(imyEvolve
Tree
p597
(dp598
g14
I0
sg29
F3.450323439949136
sg15
I01
sbsg14
I1
sg30
(imyEvolve
Tree
p599
(dp600
g14
I0
sg15
I00
sbsg16
I00
sg17
g49
sbsg16
I00
sg17
g49
sbsg16
I00
sg17
g49
sba(imyEvolve
Tree
p601
(dp602
g7
(imyEvolve
Tree
p603
(dp604
g22
(imyEvolve
Tree
p605
(dp606
g14
I0
sg29
F-0.06766433553183848
sg15
I01
sbsg14
I1
sg30
(imyEvolve
Tree
p607
(dp608
g14
I0
sg15
I00
sbsg16
I00
sg17
g33
sbsg14
I2
sg16
I01
sg17
g34
sba(imyEvolve
Tree
p609
(dp610
g7
(imyEvolve
Tree
p611
(dp612
g7
(imyEvolve
Tree
p613
(dp614
g22
(imyEvolve
Tree
p615
(dp616
g7
(imyEvolve
Tree
p617
(dp618
g14
I0
sg29
F1.079034952624581
sg15
I01
sbsg14
I1
sg16
I01
sg17
g19
sbsg14
I2
sg30
(imyEvolve
Tree
p619
(dp620
g7
(imyEvolve
Tree
p621
(dp622
g14
I0
sg15
I00
sbsg14
I1
sg16
I01
sg17
g48
sbsg16
I00
sg17
g43
sbsg14
I3
sg16
I01
sg17
g19
sbsg14
I4
sg16
I01
sg17
g18
sba(imyEvolve
Tree
p623
(dp624
g7
(imyEvolve
Tree
p625
(dp626
g22
(imyEvolve
Tree
p627
(dp628
g22
(imyEvolve
Tree
p629
(dp630
g14
I0
sg29
F-0.1894346779309375
sg15
I01
sbsg14
I1
sg30
(imyEvolve
Tree
p631
(dp632
g14
I0
sg29
F-1.372944929387189
sg15
I01
sbsg16
I00
sg17
g49
sbsg14
I2
sg30
(imyEvolve
Tree
p633
(dp634
g7
(imyEvolve
Tree
p635
(dp636
g14
I0
sg29
F-4.510334855593234
sg15
I01
sbsg14
I1
sg16
I01
sg17
g48
sbsg16
I00
sg17
g33
sbsg14
I3
sg16
I01
sg17
g19
sba(imyEvolve
Tree
p637
(dp638
g22
(imyEvolve
Tree
p639
(dp640
g7
(imyEvolve
Tree
p641
(dp642
g14
I0
sg29
F1.7198692565316556
sg15
I01
sbsg14
I1
sg16
I01
sg17
g48
sbsg14
I2
sg30
(imyEvolve
Tree
p643
(dp644
g7
(imyEvolve
Tree
p645
(dp646
g14
I0
sg29
F2.8804175337243523
sg15
I01
sbsg14
I1
sg16
I01
sg17
g19
sbsg16
I00
sg17
g49
sba(imyEvolve
Tree
p647
(dp648
g7
(imyEvolve
Tree
p649
(dp650
g22
(imyEvolve
Tree
p651
(dp652
g14
I0
sg29
F-0.26615797079395875
sg15
I01
sbsg14
I1
sg30
(imyEvolve
Tree
p653
(dp654
g14
I0
sg15
I00
sbsg16
I00
sg17
g33
sbsg14
I2
sg16
I01
sg17
g18
sba(imyEvolve
Tree
p655
(dp656
g7
(imyEvolve
Tree
p657
(dp658
g14
I1
sg22
(imyEvolve
Tree
p659
(dp660
g14
I0
sg29
F3.08377933822954
sg15
I01
sbsg30
(imyEvolve
Tree
p661
(dp662
g14
I0
sg29
F-1.0319442969292334
sg15
I01
sbsg16
I00
sg17
g33
sbsg14
I2
sg16
I01
sg17
g19
sba(imyEvolve
Tree
p663
(dp664
g22
(imyEvolve
Tree
p665
(dp666
g22
(imyEvolve
Tree
p667
(dp668
g7
(imyEvolve
Tree
p669
(dp670
g7
(imyEvolve
Tree
p671
(dp672
g14
I0
sg15
I00
sbsg14
I1
sg16
I01
sg17
g48
sbsg14
I2
sg16
I01
sg17
g19
sbsg14
I3
sg30
(imyEvolve
Tree
p673
(dp674
g22
(imyEvolve
Tree
p675
(dp676
g7
(imyEvolve
Tree
p677
(dp678
g14
I0
sg15
I00
sbsg14
I1
sg16
I01
sg17
g34
sbsg14
I2
sg30
(imyEvolve
Tree
p679
(dp680
g22
(imyEvolve
Tree
p681
(dp682
g14
I0
sg29
F0.5166643911859676
sg15
I01
sbsg14
I1
sg30
(imyEvolve
Tree
p683
(dp684
g14
I0
sg29
F2.545024982440367
sg15
I01
sbsg16
I00
sg17
g33
sbsg16
I00
sg17
g43
sbsg16
I00
sg17
g33
sbsg14
I4
sg30
(imyEvolve
Tree
p685
(dp686
g7
(imyEvolve
Tree
p687
(dp688
g22
(imyEvolve
Tree
p689
(dp690
g22
(imyEvolve
Tree
p691
(dp692
g14
I0
sg29
F3.0789206330565637
sg15
I01
sbsg14
I1
sg30
(imyEvolve
Tree
p693
(dp694
g14
I0
sg29
F0.5934033040547746
sg15
I01
sbsg16
I00
sg17
g33
sbsg14
I2
sg30
(imyEvolve
Tree
p695
(dp696
g7
(imyEvolve
Tree
p697
(dp698
g14
I0
sg15
I00
sbsg14
I1
sg16
I01
sg17
g18
sbsg16
I00
sg17
g33
sbsg14
I3
sg16
I01
sg17
g18
sbsg16
I00
sg17
g33
sba(imyEvolve
Tree
p699
(dp700
g14
I4
sg22
(imyEvolve
Tree
p701
(dp702
g14
I3
sg22
(imyEvolve
Tree
p703
(dp704
g14
I2
sg22
(imyEvolve
Tree
p705
(dp706
g14
I1
sg22
(imyEvolve
Tree
p707
(dp708
g14
I0
sg15
I00
sbsg30
(imyEvolve
Tree
p709
(dp710
g14
I0
sg29
F4.0344258124773145
sg15
I01
sbsg16
I00
sg17
g33
sbsg30
(imyEvolve
Tree
p711
(dp712
g14
I1
sg22
(imyEvolve
Tree
p713
(dp714
g14
I0
sg15
I00
sbsg30
(imyEvolve
Tree
p715
(dp716
g14
I0
sg15
I00
sbsg16
I00
sg17
g49
sbsg16
I00
sg17
g43
sbsg30
(imyEvolve
Tree
p717
(dp718
g14
I2
sg22
(imyEvolve
Tree
p719
(dp720
g14
I1
sg22
(imyEvolve
Tree
p721
(dp722
g14
I0
sg29
F-1.5993492411625043
sg15
I01
sbsg30
(imyEvolve
Tree
p723
(dp724
g14
I0
sg29
F-2.451268284507048
sg15
I01
sbsg16
I00
sg17
g49
sbsg30
(imyEvolve
Tree
p725
(dp726
g14
I1
sg22
(imyEvolve
Tree
p727
(dp728
g14
I0
sg15
I00
sbsg30
(imyEvolve
Tree
p729
(dp730
g14
I0
sg15
I00
sbsg16
I00
sg17
g49
sbsg16
I00
sg17
g49
sbsg16
I00
sg17
g49
sbsg30
(imyEvolve
Tree
p731
(dp732
g7
(imyEvolve
Tree
p733
(dp734
g14
I2
sg22
(imyEvolve
Tree
p735
(dp736
g14
I1
sg22
(imyEvolve
Tree
p737
(dp738
g14
I0
sg29
F-0.8480777472998344
sg15
I01
sbsg30
(imyEvolve
Tree
p739
(dp740
g14
I0
sg29
F-0.22530252918674343
sg15
I01
sbsg16
I00
sg17
g49
sbsg30
(imyEvolve
Tree
p741
(dp742
g7
(imyEvolve
Tree
p743
(dp744
g14
I0
sg29
F1.070655145591429
sg15
I01
sbsg14
I1
sg16
I01
sg17
g18
sbsg16
I00
sg17
g49
sbsg14
I3
sg16
I01
sg17
g18
sbsg16
I00
sg17
g43
sba(imyEvolve
Tree
p745
(dp746
g22
(imyEvolve
Tree
p747
(dp748
g22
(imyEvolve
Tree
p749
(dp750
g7
(imyEvolve
Tree
p751
(dp752
g22
(imyEvolve
Tree
p753
(dp754
g22
(imyEvolve
Tree
p755
(dp756
g14
I0
sg29
F-0.9314163753962585
sg15
I01
sbsg14
I1
sg30
(imyEvolve
Tree
p757
(dp758
g14
I0
sg15
I00
sbsg16
I00
sg17
g43
sbsg14
I2
sg30
(imyEvolve
Tree
p759
(dp760
g22
(imyEvolve
Tree
p761
(dp762
g14
I0
sg15
I00
sbsg14
I1
sg30
(imyEvolve
Tree
p763
(dp764
g14
I0
sg15
I00
sbsg16
I00
sg17
g49
sbsg16
I00
sg17
g43
sbsg14
I3
sg16
I01
sg17
g34
sbsg14
I4
sg30
(imyEvolve
Tree
p765
(dp766
g22
(imyEvolve
Tree
p767
(dp768
g22
(imyEvolve
Tree
p769
(dp770
g7
(imyEvolve
Tree
p771
(dp772
g14
I0
sg15
I00
sbsg14
I1
sg16
I01
sg17
g48
sbsg14
I2
sg30
(imyEvolve
Tree
p773
(dp774
g7
(imyEvolve
Tree
p775
(dp776
g14
I0
sg15
I00
sbsg14
I1
sg16
I01
sg17
g48
sbsg16
I00
sg17
g43
sbsg14
I3
sg30
(imyEvolve
Tree
p777
(dp778
g7
(imyEvolve
Tree
p779
(dp780
g7
(imyEvolve
Tree
p781
(dp782
g14
I0
sg29
F4.468926905194827
sg15
I01
sbsg14
I1
sg16
I01
sg17
g18
sbsg14
I2
sg16
I01
sg17
g34
sbsg16
I00
sg17
g49
sbsg16
I00
sg17
g43
sbsg14
I5
sg30
(imyEvolve
Tree
p783
(dp784
g7
(imyEvolve
Tree
p785
(dp786
g22
(imyEvolve
Tree
p787
(dp788
g7
(imyEvolve
Tree
p789
(dp790
g7
(imyEvolve
Tree
p791
(dp792
g14
I0
sg15
I00
sbsg14
I1
sg16
I01
sg17
g19
sbsg14
I2
sg16
I01
sg17
g18
sbsg14
I3
sg30
(imyEvolve
Tree
p793
(dp794
g7
(imyEvolve
Tree
p795
(dp796
g7
(imyEvolve
Tree
p797
(dp798
g14
I0
sg15
I00
sbsg14
I1
sg16
I01
sg17
g48
sbsg14
I2
sg16
I01
sg17
g48
sbsg16
I00
sg17
g43
sbsg14
I4
sg16
I01
sg17
g48
sbsg16
I00
sg17
g33
sba(imyEvolve
Tree
p799
(dp800
g7
(imyEvolve
Tree
p801
(dp802
g14
I4
sg22
(imyEvolve
Tree
p803
(dp804
g14
I3
sg22
(imyEvolve
Tree
p805
(dp806
g7
(imyEvolve
Tree
p807
(dp808
g7
(imyEvolve
Tree
p809
(dp810
g14
I0
sg15
I00
sbsg14
I1
sg16
I01
sg17
g19
sbsg14
I2
sg16
I01
sg17
g34
sbsg30
(imyEvolve
Tree
p811
(dp812
g7
(imyEvolve
Tree
p813
(dp814
g7
(imyEvolve
Tree
p815
(dp816
g14
I0
sg29
F-3.848882550585455
sg15
I01
sbsg14
I1
sg16
I01
sg17
g34
sbsg14
I2
sg16
I01
sg17
g19
sbsg16
I00
sg17
g33
sbsg30
(imyEvolve
Tree
p817
(dp818
g14
I3
sg22
(imyEvolve
Tree
p819
(dp820
g7
(imyEvolve
Tree
p821
(dp822
g14
I1
sg22
(imyEvolve
Tree
p823
(dp824
g14
I0
sg29
F-0.5329765013445451
sg15
I01
sbsg30
(imyEvolve
Tree
p825
(dp826
g14
I0
sg15
I00
sbsg16
I00
sg17
g49
sbsg14
I2
sg16
I01
sg17
g19
sbsg30
(imyEvolve
Tree
p827
(dp828
g14
I2
sg22
(imyEvolve
Tree
p829
(dp830
g14
I1
sg22
(imyEvolve
Tree
p831
(dp832
g14
I0
sg29
F3.6046252554961473
sg15
I01
sbsg30
(imyEvolve
Tree
p833
(dp834
g14
I0
sg15
I00
sbsg16
I00
sg17
g49
sbsg30
(imyEvolve
Tree
p835
(dp836
g14
I1
sg22
(imyEvolve
Tree
p837
(dp838
g14
I0
sg15
I00
sbsg30
(imyEvolve
Tree
p839
(dp840
g14
I0
sg29
F1.602641353476903
sg15
I01
sbsg16
I00
sg17
g43
sbsg16
I00
sg17
g43
sbsg16
I00
sg17
g49
sbsg16
I00
sg17
g33
sbsg14
I5
sg16
I01
sg17
g34
sba(imyEvolve
Tree
p841
(dp842
g7
(imyEvolve
Tree
p843
(dp844
g22
(imyEvolve
Tree
p845
(dp846
g7
(imyEvolve
Tree
p847
(dp848
g14
I0
sg15
I00
sbsg14
I1
sg16
I01
sg17
g34
sbsg14
I2
sg30
(imyEvolve
Tree
p849
(dp850
g22
(imyEvolve
Tree
p851
(dp852
g14
I0
sg15
I00
sbsg14
I1
sg30
(imyEvolve
Tree
p853
(dp854
g14
I0
sg29
F-3.74351143126301
sg15
I01
sbsg16
I00
sg17
g43
sbsg16
I00
sg17
g43
sbsg14
I3
sg16
I01
sg17
g19
sba(imyEvolve
Tree
p855
(dp856
g7
(imyEvolve
Tree
p857
(dp858
g7
(imyEvolve
Tree
p859
(dp860
g22
(imyEvolve
Tree
p861
(dp862
g14
I0
sg29
F-0.3723743554197121
sg15
I01
sbsg14
I1
sg30
(imyEvolve
Tree
p863
(dp864
g14
I0
sg29
F-3.974977288558379
sg15
I01
sbsg16
I00
sg17
g43
sbsg14
I2
sg16
I01
sg17
g48
sbsg14
I3
sg16
I01
sg17
g34
sba(imyEvolve
Tree
p865
(dp866
g7
(imyEvolve
Tree
p867
(dp868
g7
(imyEvolve
Tree
p869
(dp870
g14
I0
sg15
I00
sbsg14
I1
sg16
I01
sg17
g34
sbsg14
I2
sg16
I01
sg17
g48
sbaa(lp871
(imyEvolve
Tree
p872
(dp873
g7
(imyEvolve
Tree
p874
(dp875
g7
(imyEvolve
Tree
p876
(dp877
g14
I0
sg15
I00
sbsg14
I1
sg16
I01
sg17
g48
sbsg14
I2
sg16
I01
sg17
g18
sba(imyEvolve
Tree
p878
(dp879
g14
I2
sg22
(imyEvolve
Tree
p880
(dp881
g14
I1
sg22
(imyEvolve
Tree
p882
(dp883
g14
I0
sg29
F-3.0443151658476832
sg15
I01
sbsg30
(imyEvolve
Tree
p884
(dp885
g14
I0
sg15
I00
sbsg16
I00
sg17
g49
sbsg30
(imyEvolve
Tree
p886
(dp887
g14
I1
sg22
(imyEvolve
Tree
p888
(dp889
g14
I0
sg29
F-3.4946568324374914
sg15
I01
sbsg30
(imyEvolve
Tree
p890
(dp891
g14
I0
sg15
I00
sbsg16
I00
sg17
g33
sbsg16
I00
sg17
g33
sba(imyEvolve
Tree
p892
(dp893
g7
(imyEvolve
Tree
p894
(dp895
g14
I3
sg22
(imyEvolve
Tree
p896
(dp897
g7
(imyEvolve
Tree
p898
(dp899
g14
I1
sg22
(imyEvolve
Tree
p900
(dp901
g14
I0
sg29
F-1.7306387253849511
sg15
I01
sbsg30
(imyEvolve
Tree
p902
(dp903
g14
I0
sg15
I00
sbsg16
I00
sg17
g33
sbsg14
I2
sg16
I01
sg17
g18
sbsg30
(imyEvolve
Tree
p904
(dp905
g7
(imyEvolve
Tree
p906
(dp907
g7
(imyEvolve
Tree
p908
(dp909
g14
I0
sg29
F-2.97085748111803
sg15
I01
sbsg14
I1
sg16
I01
sg17
g19
sbsg14
I2
sg16
I01
sg17
g34
sbsg16
I00
sg17
g33
sbsg14
I4
sg16
I01
sg17
g19
sba(imyEvolve
Tree
p910
(dp911
g7
(imyEvolve
Tree
p912
(dp913
g7
(imyEvolve
Tree
p914
(dp915
g14
I0
sg29
F-0.11683187296311459
sg15
I01
sbsg14
I1
sg16
I01
sg17
g34
sbsg14
I2
sg16
I01
sg17
g18
sba(imyEvolve
Tree
p916
(dp917
g7
(imyEvolve
Tree
p918
(dp919
g7
(imyEvolve
Tree
p920
(dp921
g7
(imyEvolve
Tree
p922
(dp923
g14
I2
sg22
(imyEvolve
Tree
p924
(dp925
g14
I1
sg22
(imyEvolve
Tree
p926
(dp927
g14
I0
sg15
I00
sbsg30
(imyEvolve
Tree
p928
(dp929
g14
I0
sg29
F1.6003518982385838
sg15
I01
sbsg16
I00
sg17
g49
sbsg30
(imyEvolve
Tree
p930
(dp931
g14
I1
sg22
(imyEvolve
Tree
p932
(dp933
g14
I0
sg15
I00
sbsg30
(imyEvolve
Tree
p934
(dp935
g14
I0
sg15
I00
sbsg16
I00
sg17
g43
sbsg16
I00
sg17
g43
sbsg14
I3
sg16
I01
sg17
g48
sbsg14
I4
sg16
I01
sg17
g34
sbsg14
I5
sg16
I01
sg17
g18
sba(imyEvolve
Tree
p936
(dp937
g7
(imyEvolve
Tree
p938
(dp939
g14
I1
sg22
(imyEvolve
Tree
p940
(dp941
g14
I0
sg15
I00
sbsg30
(imyEvolve
Tree
p942
(dp943
g14
I0
sg29
F-1.1492429990841102
sg15
I01
sbsg16
I00
sg17
g43
sbsg14
I2
sg16
I01
sg17
g34
sba(imyEvolve
Tree
p944
(dp945
g7
(imyEvolve
Tree
p946
(dp947
g7
(imyEvolve
Tree
p948
(dp949
g14
I0
sg29
F2.668174213345125
sg15
I01
sbsg14
I1
sg16
I01
sg17
g48
sbsg14
I2
sg16
I01
sg17
g34
sba(imyEvolve
Tree
p950
(dp951
g14
I4
sg22
(imyEvolve
Tree
p952
(dp953
g7
(imyEvolve
Tree
p954
(dp955
g7
(imyEvolve
Tree
p956
(dp957
g14
I1
sg22
(imyEvolve
Tree
p958
(dp959
g14
I0
sg29
F-1.130614869319916
sg15
I01
sbsg30
(imyEvolve
Tree
p960
(dp961
g14
I0
sg15
I00
sbsg16
I00
sg17
g33
sbsg14
I2
sg16
I01
sg17
g34
sbsg14
I3
sg16
I01
sg17
g34
sbsg30
(imyEvolve
Tree
p962
(dp963
g14
I3
sg22
(imyEvolve
Tree
p964
(dp965
g7
(imyEvolve
Tree
p966
(dp967
g7
(imyEvolve
Tree
p968
(dp969
g14
I0
sg15
I00
sbsg14
I1
sg16
I01
sg17
g34
sbsg14
I2
sg16
I01
sg17
g48
sbsg30
(imyEvolve
Tree
p970
(dp971
g7
(imyEvolve
Tree
p972
(dp973
g14
I1
sg22
(imyEvolve
Tree
p974
(dp975
g14
I0
sg29
F3.704560472110007
sg15
I01
sbsg30
(imyEvolve
Tree
p976
(dp977
g14
I0
sg29
F-1.1910216086682182
sg15
I01
sbsg16
I00
sg17
g33
sbsg14
I2
sg16
I01
sg17
g18
sbsg16
I00
sg17
g49
sbsg16
I00
sg17
g43
sba(imyEvolve
Tree
p978
(dp979
g7
(imyEvolve
Tree
p980
(dp981
g7
(imyEvolve
Tree
p982
(dp983
g14
I0
sg15
I00
sbsg14
I1
sg16
I01
sg17
g19
sbsg14
I2
sg16
I01
sg17
g18
sba(imyEvolve
Tree
p984
(dp985
g14
I3
sg22
(imyEvolve
Tree
p986
(dp987
g7
(imyEvolve
Tree
p988
(dp989
g14
I1
sg22
(imyEvolve
Tree
p990
(dp991
g14
I0
sg15
I00
sbsg30
(imyEvolve
Tree
p992
(dp993
g14
I0
sg29
F3.400898034015798
sg15
I01
sbsg16
I00
sg17
g43
sbsg14
I2
sg16
I01
sg17
g34
sbsg30
(imyEvolve
Tree
p994
(dp995
g14
I2
sg22
(imyEvolve
Tree
p996
(dp997
g7
(imyEvolve
Tree
p998
(dp999
g14
I0
sg29
F-1.9831006049595823
sg15
I01
sbsg14
I1
sg16
I01
sg17
g18
sbsg30
(imyEvolve
Tree
p1000
(dp1001
g14
I1
sg22
(imyEvolve
Tree
p1002
(dp1003
g14
I0
sg15
I00
sbsg30
(imyEvolve
Tree
p1004
(dp1005
g14
I0
sg29
F2.432878331727525
sg15
I01
sbsg16
I00
sg17
g33
sbsg16
I00
sg17
g49
sbsg16
I00
sg17
g33
sba(imyEvolve
Tree
p1006
(dp1007
g7
(imyEvolve
Tree
p1008
(dp1009
g7
(imyEvolve
Tree
p1010
(dp1011
g7
(imyEvolve
Tree
p1012
(dp1013
g14
I0
sg29
F-2.6234554836114397
sg15
I01
sbsg14
I1
sg16
I01
sg17
g18
sbsg14
I2
sg16
I01
sg17
g48
sbsg14
I3
sg16
I01
sg17
g48
sba(imyEvolve
Tree
p1014
(dp1015
g14
I3
sg22
(imyEvolve
Tree
p1016
(dp1017
g7
(imyEvolve
Tree
p1018
(dp1019
g7
(imyEvolve
Tree
p1020
(dp1021
g14
I0
sg15
I00
sbsg14
I1
sg16
I01
sg17
g34
sbsg14
I2
sg16
I01
sg17
g18
sbsg30
(imyEvolve
Tree
p1022
(dp1023
g14
I2
sg22
(imyEvolve
Tree
p1024
(dp1025
g14
I1
sg22
(imyEvolve
Tree
p1026
(dp1027
g14
I0
sg15
I00
sbsg30
(imyEvolve
Tree
p1028
(dp1029
g14
I0
sg29
F-4.675701984079091
sg15
I01
sbsg16
I00
sg17
g49
sbsg30
(imyEvolve
Tree
p1030
(dp1031
g7
(imyEvolve
Tree
p1032
(dp1033
g14
I0
sg15
I00
sbsg14
I1
sg16
I01
sg17
g18
sbsg16
I00
sg17
g43
sbsg16
I00
sg17
g43
sba(imyEvolve
Tree
p1034
(dp1035
g14
I3
sg22
(imyEvolve
Tree
p1036
(dp1037
g14
I2
sg22
(imyEvolve
Tree
p1038
(dp1039
g14
I1
sg22
(imyEvolve
Tree
p1040
(dp1041
g14
I0
sg29
F-3.1663642490863997
sg15
I01
sbsg30
(imyEvolve
Tree
p1042
(dp1043
g14
I0
sg29
F-3.5969229635970734
sg15
I01
sbsg16
I00
sg17
g43
sbsg30
(imyEvolve
Tree
p1044
(dp1045
g14
I1
sg22
(imyEvolve
Tree
p1046
(dp1047
g14
I0
sg29
F-0.6442507147336745
sg15
I01
sbsg30
(imyEvolve
Tree
p1048
(dp1049
g14
I0
sg15
I00
sbsg16
I00
sg17
g33
sbsg16
I00
sg17
g33
sbsg30
(imyEvolve
Tree
p1050
(dp1051
g14
I2
sg22
(imyEvolve
Tree
p1052
(dp1053
g14
I1
sg22
(imyEvolve
Tree
p1054
(dp1055
g14
I0
sg29
F0.6229988356288167
sg15
I01
sbsg30
(imyEvolve
Tree
p1056
(dp1057
g14
I0
sg15
I00
sbsg16
I00
sg17
g43
sbsg30
(imyEvolve
Tree
p1058
(dp1059
g7
(imyEvolve
Tree
p1060
(dp1061
g14
I0
sg29
F-2.9292975897670006
sg15
I01
sbsg14
I1
sg16
I01
sg17
g34
sbsg16
I00
sg17
g49
sbsg16
I00
sg17
g43
sba(imyEvolve
Tree
p1062
(dp1063
g7
(imyEvolve
Tree
p1064
(dp1065
g7
(imyEvolve
Tree
p1066
(dp1067
g14
I3
sg22
(imyEvolve
Tree
p1068
(dp1069
g14
I2
sg22
(imyEvolve
Tree
p1070
(dp1071
g14
I1
sg22
(imyEvolve
Tree
p1072
(dp1073
g14
I0
sg15
I00
sbsg30
(imyEvolve
Tree
p1074
(dp1075
g14
I0
sg15
I00
sbsg16
I00
sg17
g43
sbsg30
(imyEvolve
Tree
p1076
(dp1077
g7
(imyEvolve
Tree
p1078
(dp1079
g14
I0
sg15
I00
sbsg14
I1
sg16
I01
sg17
g19
sbsg16
I00
sg17
g43
sbsg30
(imyEvolve
Tree
p1080
(dp1081
g7
(imyEvolve
Tree
p1082
(dp1083
g14
I1
sg22
(imyEvolve
Tree
p1084
(dp1085
g14
I0
sg15
I00
sbsg30
(imyEvolve
Tree
p1086
(dp1087
g14
I0
sg29
F-1.8170991228457725
sg15
I01
sbsg16
I00
sg17
g33
sbsg14
I2
sg16
I01
sg17
g48
sbsg16
I00
sg17
g49
sbsg14
I4
sg16
I01
sg17
g19
sbsg14
I5
sg16
I01
sg17
g48
sba(imyEvolve
Tree
p1088
(dp1089
g14
I4
sg22
(imyEvolve
Tree
p1090
(dp1091
g7
(imyEvolve
Tree
p1092
(dp1093
g14
I2
sg22
(imyEvolve
Tree
p1094
(dp1095
g14
I1
sg22
(imyEvolve
Tree
p1096
(dp1097
g14
I0
sg15
I00
sbsg30
(imyEvolve
Tree
p1098
(dp1099
g14
I0
sg15
I00
sbsg16
I00
sg17
g33
sbsg30
(imyEvolve
Tree
p1100
(dp1101
g14
I1
sg22
(imyEvolve
Tree
p1102
(dp1103
g14
I0
sg15
I00
sbsg30
(imyEvolve
Tree
p1104
(dp1105
g14
I0
sg15
I00
sbsg16
I00
sg17
g33
sbsg16
I00
sg17
g43
sbsg14
I3
sg16
I01
sg17
g18
sbsg30
(imyEvolve
Tree
p1106
(dp1107
g14
I3
sg22
(imyEvolve
Tree
p1108
(dp1109
g7
(imyEvolve
Tree
p1110
(dp1111
g7
(imyEvolve
Tree
p1112
(dp1113
g14
I0
sg15
I00
sbsg14
I1
sg16
I01
sg17
g48
sbsg14
I2
sg16
I01
sg17
g34
sbsg30
(imyEvolve
Tree
p1114
(dp1115
g7
(imyEvolve
Tree
p1116
(dp1117
g7
(imyEvolve
Tree
p1118
(dp1119
g14
I0
sg15
I00
sbsg14
I1
sg16
I01
sg17
g19
sbsg14
I2
sg16
I01
sg17
g34
sbsg16
I00
sg17
g33
sbsg16
I00
sg17
g49
sba(imyEvolve
Tree
p1120
(dp1121
g7
(imyEvolve
Tree
p1122
(dp1123
g14
I4
sg22
(imyEvolve
Tree
p1124
(dp1125
g7
(imyEvolve
Tree
p1126
(dp1127
g14
I2
sg22
(imyEvolve
Tree
p1128
(dp1129
g7
(imyEvolve
Tree
p1130
(dp1131
g14
I0
sg15
I00
sbsg14
I1
sg16
I01
sg17
g18
sbsg30
(imyEvolve
Tree
p1132
(dp1133
g14
I1
sg22
(imyEvolve
Tree
p1134
(dp1135
g14
I0
sg29
F2.5179907907144017
sg15
I01
sbsg30
(imyEvolve
Tree
p1136
(dp1137
g14
I0
sg15
I00
sbsg16
I00
sg17
g49
sbsg16
I00
sg17
g43
sbsg14
I3
sg16
I01
sg17
g18
sbsg30
(imyEvolve
Tree
p1138
(dp1139
g14
I3
sg22
(imyEvolve
Tree
p1140
(dp1141
g14
I2
sg22
(imyEvolve
Tree
p1142
(dp1143
g7
(imyEvolve
Tree
p1144
(dp1145
g14
I0
sg29
F3.4911132931034548
sg15
I01
sbsg14
I1
sg16
I01
sg17
g19
sbsg30
(imyEvolve
Tree
p1146
(dp1147
g14
I1
sg22
(imyEvolve
Tree
p1148
(dp1149
g14
I0
sg15
I00
sbsg30
(imyEvolve
Tree
p1150
(dp1151
g14
I0
sg29
F0.6665093707566339
sg15
I01
sbsg16
I00
sg17
g49
sbsg16
I00
sg17
g33
sbsg30
(imyEvolve
Tree
p1152
(dp1153
g14
I2
sg22
(imyEvolve
Tree
p1154
(dp1155
g7
(imyEvolve
Tree
p1156
(dp1157
g14
I0
sg15
I00
sbsg14
I1
sg16
I01
sg17
g19
sbsg30
(imyEvolve
Tree
p1158
(dp1159
g7
(imyEvolve
Tree
p1160
(dp1161
g14
I0
sg15
I00
sbsg14
I1
sg16
I01
sg17
g19
sbsg16
I00
sg17
g43
sbsg16
I00
sg17
g33
sbsg16
I00
sg17
g49
sbsg14
I5
sg16
I01
sg17
g48
sbaasS'alpha'
p1162
F0.0012068478921166473
sS'fitness'
p1163
cnumpy.core.multiarray
scalar
p1164
(cnumpy
dtype
p1165
(S'f8'
p1166
I0
I1
tp1167
Rp1168
(I3
S'<'
p1169
NNNI-1
I-1
I0
tp1170
bS'd;\xdf\xea:\x1c\xe6?'
p1171
tp1172
Rp1173
sS'weightSharing'
p1174
(lp1175
I01
asS'fitnessValid'
p1176
I00
sS'resolution'
p1177
I81
sb.