(imyEvolve
Individual
p0
(dp1
S'funcs'
p2
(lp3
(lp4
(imyEvolve
Tree
p5
(dp6
S'left'
p7
(imyEvolve
Tree
p8
(dp9
g7
(imyEvolve
Tree
p10
(dp11
g7
(imyEvolve
Tree
p12
(dp13
S'below'
p14
(imyEvolve
Tree
p15
(dp16
S'depth'
p17
I0
sS'constant'
p18
F-4.4590358592361135
sS'isConstant'
p19
I01
sbsg17
I1
sS'single'
p20
I01
sS'op'
p21
cmath
sin
p22
sbsg17
I2
sS'right'
p23
(imyEvolve
Tree
p24
(dp25
g14
(imyEvolve
Tree
p26
(dp27
g17
I0
sg18
F-3.8868358677178003
sg19
I01
sbsg17
I1
sg20
I01
sg21
g22
sbsg20
I00
sg21
coperator
sub
p28
sbsg17
I3
sg23
(imyEvolve
Tree
p29
(dp30
g7
(imyEvolve
Tree
p31
(dp32
g14
(imyEvolve
Tree
p33
(dp34
g17
I0
sg19
I00
sbsg17
I1
sg20
I01
sg21
cmyEvolve
absSqrt
p35
sbsg17
I2
sg23
(imyEvolve
Tree
p36
(dp37
g7
(imyEvolve
Tree
p38
(dp39
g17
I0
sg18
F-0.724028644863516
sg19
I01
sbsg17
I1
sg23
(imyEvolve
Tree
p40
(dp41
g17
I0
sg18
F-4.484443587158648
sg19
I01
sbsg20
I00
sg21
coperator
add
p42
sbsg20
I00
sg21
g28
sbsg20
I00
sg21
coperator
mul
p43
sbsg17
I4
sg23
(imyEvolve
Tree
p44
(dp45
g7
(imyEvolve
Tree
p46
(dp47
g7
(imyEvolve
Tree
p48
(dp49
g7
(imyEvolve
Tree
p50
(dp51
g17
I0
sg18
F0.9673238546036531
sg19
I01
sbsg17
I1
sg23
(imyEvolve
Tree
p52
(dp53
g17
I0
sg19
I00
sbsg20
I00
sg21
g28
sbsg17
I2
sg23
(imyEvolve
Tree
p54
(dp55
g14
(imyEvolve
Tree
p56
(dp57
g17
I0
sg18
F-2.290018084195787
sg19
I01
sbsg17
I1
sg20
I01
sg21
g22
sbsg20
I00
sg21
g43
sbsg17
I3
sg23
(imyEvolve
Tree
p58
(dp59
g7
(imyEvolve
Tree
p60
(dp61
g14
(imyEvolve
Tree
p62
(dp63
g17
I0
sg18
F3.5812980826667093
sg19
I01
sbsg17
I1
sg20
I01
sg21
g22
sbsg17
I2
sg23
(imyEvolve
Tree
p64
(dp65
g14
(imyEvolve
Tree
p66
(dp67
g17
I0
sg18
F-4.775513033527141
sg19
I01
sbsg17
I1
sg20
I01
sg21
g35
sbsg20
I00
sg21
g43
sbsg20
I00
sg21
g28
sbsg20
I00
sg21
g42
sba(imyEvolve
Tree
p68
(dp69
g17
I3
sg7
(imyEvolve
Tree
p70
(dp71
g17
I2
sg7
(imyEvolve
Tree
p72
(dp73
g17
I1
sg7
(imyEvolve
Tree
p74
(dp75
g17
I0
sg18
F3.9326124115840884
sg19
I01
sbsg23
(imyEvolve
Tree
p76
(dp77
g17
I0
sg19
I00
sbsg20
I00
sg21
g42
sbsg23
(imyEvolve
Tree
p78
(dp79
g17
I1
sg7
(imyEvolve
Tree
p80
(dp81
g17
I0
sg18
F3.0130776600722005
sg19
I01
sbsg23
(imyEvolve
Tree
p82
(dp83
g17
I0
sg18
F4.486542046453806
sg19
I01
sbsg20
I00
sg21
g42
sbsg20
I00
sg21
g28
sbsg23
(imyEvolve
Tree
p84
(dp85
g14
(imyEvolve
Tree
p86
(dp87
g14
(imyEvolve
Tree
p88
(dp89
g17
I0
sg19
I00
sbsg17
I1
sg20
I01
sg21
g22
sbsg17
I2
sg20
I01
sg21
cmath
cos
p90
sbsg20
I00
sg21
g43
sba(imyEvolve
Tree
p91
(dp92
g7
(imyEvolve
Tree
p93
(dp94
g7
(imyEvolve
Tree
p95
(dp96
g14
(imyEvolve
Tree
p97
(dp98
g17
I0
sg19
I00
sbsg17
I1
sg20
I01
sg21
cmyEvolve
square
p99
sbsg17
I2
sg23
(imyEvolve
Tree
p100
(dp101
g7
(imyEvolve
Tree
p102
(dp103
g17
I0
sg18
F-3.032380191598122
sg19
I01
sbsg17
I1
sg23
(imyEvolve
Tree
p104
(dp105
g17
I0
sg19
I00
sbsg20
I00
sg21
g42
sbsg20
I00
sg21
g42
sbsg17
I3
sg23
(imyEvolve
Tree
p106
(dp107
g14
(imyEvolve
Tree
p108
(dp109
g7
(imyEvolve
Tree
p110
(dp111
g17
I0
sg18
F-1.8707328902086218
sg19
I01
sbsg17
I1
sg23
(imyEvolve
Tree
p112
(dp113
g17
I0
sg19
I00
sbsg20
I00
sg21
g43
sbsg17
I2
sg20
I01
sg21
g90
sbsg20
I00
sg21
g28
sba(imyEvolve
Tree
p114
(dp115
g14
(imyEvolve
Tree
p116
(dp117
g17
I3
sg7
(imyEvolve
Tree
p118
(dp119
g14
(imyEvolve
Tree
p120
(dp121
g14
(imyEvolve
Tree
p122
(dp123
g17
I0
sg18
F-4.736204111578931
sg19
I01
sbsg17
I1
sg20
I01
sg21
g35
sbsg17
I2
sg20
I01
sg21
g22
sbsg23
(imyEvolve
Tree
p124
(dp125
g14
(imyEvolve
Tree
p126
(dp127
g14
(imyEvolve
Tree
p128
(dp129
g17
I0
sg18
F-0.6171573588956116
sg19
I01
sbsg17
I1
sg20
I01
sg21
g90
sbsg17
I2
sg20
I01
sg21
g35
sbsg20
I00
sg21
g42
sbsg17
I4
sg20
I01
sg21
g99
sba(imyEvolve
Tree
p130
(dp131
g14
(imyEvolve
Tree
p132
(dp133
g14
(imyEvolve
Tree
p134
(dp135
g14
(imyEvolve
Tree
p136
(dp137
g7
(imyEvolve
Tree
p138
(dp139
g14
(imyEvolve
Tree
p140
(dp141
g17
I0
sg19
I00
sbsg17
I1
sg20
I01
sg21
g22
sbsg17
I2
sg23
(imyEvolve
Tree
p142
(dp143
g7
(imyEvolve
Tree
p144
(dp145
g17
I0
sg19
I00
sbsg17
I1
sg23
(imyEvolve
Tree
p146
(dp147
g17
I0
sg18
F-4.766103049801055
sg19
I01
sbsg20
I00
sg21
g28
sbsg20
I00
sg21
g43
sbsg17
I3
sg20
I01
sg21
g35
sbsg17
I4
sg20
I01
sg21
g99
sbsg17
I5
sg20
I01
sg21
g90
sba(imyEvolve
Tree
p148
(dp149
g17
I5
sg7
(imyEvolve
Tree
p150
(dp151
g17
I4
sg7
(imyEvolve
Tree
p152
(dp153
g17
I3
sg7
(imyEvolve
Tree
p154
(dp155
g17
I2
sg7
(imyEvolve
Tree
p156
(dp157
g17
I1
sg7
(imyEvolve
Tree
p158
(dp159
g17
I0
sg18
F-1.216248090157376
sg19
I01
sbsg23
(imyEvolve
Tree
p160
(dp161
g17
I0
sg19
I00
sbsg20
I00
sg21
g28
sbsg23
(imyEvolve
Tree
p162
(dp163
g17
I1
sg7
(imyEvolve
Tree
p164
(dp165
g17
I0
sg19
I00
sbsg23
(imyEvolve
Tree
p166
(dp167
g17
I0
sg19
I00
sbsg20
I00
sg21
g43
sbsg20
I00
sg21
g28
sbsg23
(imyEvolve
Tree
p168
(dp169
g14
(imyEvolve
Tree
p170
(dp171
g17
I1
sg7
(imyEvolve
Tree
p172
(dp173
g17
I0
sg19
I00
sbsg23
(imyEvolve
Tree
p174
(dp175
g17
I0
sg18
F-3.314331529061467
sg19
I01
sbsg20
I00
sg21
g43
sbsg17
I2
sg20
I01
sg21
g22
sbsg20
I00
sg21
g42
sbsg23
(imyEvolve
Tree
p176
(dp177
g14
(imyEvolve
Tree
p178
(dp179
g14
(imyEvolve
Tree
p180
(dp181
g14
(imyEvolve
Tree
p182
(dp183
g17
I0
sg18
F-2.5245858765210185
sg19
I01
sbsg17
I1
sg20
I01
sg21
g99
sbsg17
I2
sg20
I01
sg21
g90
sbsg17
I3
sg20
I01
sg21
g22
sbsg20
I00
sg21
g42
sbsg23
(imyEvolve
Tree
p184
(dp185
g17
I4
sg7
(imyEvolve
Tree
p186
(dp187
g17
I3
sg7
(imyEvolve
Tree
p188
(dp189
g14
(imyEvolve
Tree
p190
(dp191
g17
I1
sg7
(imyEvolve
Tree
p192
(dp193
g17
I0
sg19
I00
sbsg23
(imyEvolve
Tree
p194
(dp195
g17
I0
sg19
I00
sbsg20
I00
sg21
g43
sbsg17
I2
sg20
I01
sg21
g22
sbsg23
(imyEvolve
Tree
p196
(dp197
g17
I2
sg7
(imyEvolve
Tree
p198
(dp199
g17
I1
sg7
(imyEvolve
Tree
p200
(dp201
g17
I0
sg18
F1.9655351195540725
sg19
I01
sbsg23
(imyEvolve
Tree
p202
(dp203
g17
I0
sg19
I00
sbsg20
I00
sg21
g43
sbsg23
(imyEvolve
Tree
p204
(dp205
g17
I1
sg7
(imyEvolve
Tree
p206
(dp207
g17
I0
sg19
I00
sbsg23
(imyEvolve
Tree
p208
(dp209
g17
I0
sg19
I00
sbsg20
I00
sg21
g42
sbsg20
I00
sg21
g42
sbsg20
I00
sg21
g42
sbsg23
(imyEvolve
Tree
p210
(dp211
g14
(imyEvolve
Tree
p212
(dp213
g14
(imyEvolve
Tree
p214
(dp215
g17
I1
sg7
(imyEvolve
Tree
p216
(dp217
g17
I0
sg18
F2.523145022319179
sg19
I01
sbsg23
(imyEvolve
Tree
p218
(dp219
g17
I0
sg18
F-0.29697990427522836
sg19
I01
sbsg20
I00
sg21
g28
sbsg17
I2
sg20
I01
sg21
g90
sbsg17
I3
sg20
I01
sg21
g99
sbsg20
I00
sg21
g42
sbsg20
I00
sg21
g43
sba(imyEvolve
Tree
p220
(dp221
g14
(imyEvolve
Tree
p222
(dp223
g7
(imyEvolve
Tree
p224
(dp225
g7
(imyEvolve
Tree
p226
(dp227
g17
I0
sg19
I00
sbsg17
I1
sg23
(imyEvolve
Tree
p228
(dp229
g17
I0
sg18
F-0.0749424781434147
sg19
I01
sbsg20
I00
sg21
g28
sbsg17
I2
sg23
(imyEvolve
Tree
p230
(dp231
g7
(imyEvolve
Tree
p232
(dp233
g17
I0
sg18
F4.875160664368265
sg19
I01
sbsg17
I1
sg23
(imyEvolve
Tree
p234
(dp235
g17
I0
sg19
I00
sbsg20
I00
sg21
g42
sbsg20
I00
sg21
g28
sbsg17
I3
sg20
I01
sg21
g22
sba(imyEvolve
Tree
p236
(dp237
g7
(imyEvolve
Tree
p238
(dp239
g14
(imyEvolve
Tree
p240
(dp241
g14
(imyEvolve
Tree
p242
(dp243
g17
I0
sg19
I00
sbsg17
I1
sg20
I01
sg21
g99
sbsg17
I2
sg20
I01
sg21
g22
sbsg17
I3
sg23
(imyEvolve
Tree
p244
(dp245
g14
(imyEvolve
Tree
p246
(dp247
g7
(imyEvolve
Tree
p248
(dp249
g17
I0
sg19
I00
sbsg17
I1
sg23
(imyEvolve
Tree
p250
(dp251
g17
I0
sg19
I00
sbsg20
I00
sg21
g43
sbsg17
I2
sg20
I01
sg21
g22
sbsg20
I00
sg21
g28
sba(imyEvolve
Tree
p252
(dp253
g7
(imyEvolve
Tree
p254
(dp255
g7
(imyEvolve
Tree
p256
(dp257
g17
I0
sg18
F-0.8599608241347321
sg19
I01
sbsg17
I1
sg23
(imyEvolve
Tree
p258
(dp259
g17
I0
sg18
F-2.8794523240010372
sg19
I01
sbsg20
I00
sg21
g28
sbsg17
I2
sg23
(imyEvolve
Tree
p260
(dp261
g14
(imyEvolve
Tree
p262
(dp263
g17
I0
sg19
I00
sbsg17
I1
sg20
I01
sg21
g35
sbsg20
I00
sg21
g28
sba(imyEvolve
Tree
p264
(dp265
g14
(imyEvolve
Tree
p266
(dp267
g17
I4
sg7
(imyEvolve
Tree
p268
(dp269
g17
I3
sg7
(imyEvolve
Tree
p270
(dp271
g14
(imyEvolve
Tree
p272
(dp273
g14
(imyEvolve
Tree
p274
(dp275
g17
I0
sg18
F4.12886241110737
sg19
I01
sbsg17
I1
sg20
I01
sg21
g99
sbsg17
I2
sg20
I01
sg21
g90
sbsg23
(imyEvolve
Tree
p276
(dp277
g14
(imyEvolve
Tree
p278
(dp279
g17
I1
sg7
(imyEvolve
Tree
p280
(dp281
g17
I0
sg19
I00
sbsg23
(imyEvolve
Tree
p282
(dp283
g17
I0
sg19
I00
sbsg20
I00
sg21
g43
sbsg17
I2
sg20
I01
sg21
g35
sbsg20
I00
sg21
g42
sbsg23
(imyEvolve
Tree
p284
(dp285
g14
(imyEvolve
Tree
p286
(dp287
g17
I2
sg7
(imyEvolve
Tree
p288
(dp289
g17
I1
sg7
(imyEvolve
Tree
p290
(dp291
g17
I0
sg19
I00
sbsg23
(imyEvolve
Tree
p292
(dp293
g17
I0
sg18
F3.988592167268356
sg19
I01
sbsg20
I00
sg21
g43
sbsg23
(imyEvolve
Tree
p294
(dp295
g17
I1
sg7
(imyEvolve
Tree
p296
(dp297
g17
I0
sg18
F-4.832503248902117
sg19
I01
sbsg23
(imyEvolve
Tree
p298
(dp299
g17
I0
sg19
I00
sbsg20
I00
sg21
g28
sbsg20
I00
sg21
g28
sbsg17
I3
sg20
I01
sg21
g22
sbsg20
I00
sg21
g43
sbsg17
I5
sg20
I01
sg21
g90
sba(imyEvolve
Tree
p300
(dp301
g14
(imyEvolve
Tree
p302
(dp303
g7
(imyEvolve
Tree
p304
(dp305
g14
(imyEvolve
Tree
p306
(dp307
g7
(imyEvolve
Tree
p308
(dp309
g7
(imyEvolve
Tree
p310
(dp311
g17
I0
sg19
I00
sbsg17
I1
sg23
(imyEvolve
Tree
p312
(dp313
g17
I0
sg18
F-0.06953895828225054
sg19
I01
sbsg20
I00
sg21
g28
sbsg17
I2
sg23
(imyEvolve
Tree
p314
(dp315
g14
(imyEvolve
Tree
p316
(dp317
g17
I0
sg19
I00
sbsg17
I1
sg20
I01
sg21
g22
sbsg20
I00
sg21
g43
sbsg17
I3
sg20
I01
sg21
g99
sbsg17
I4
sg23
(imyEvolve
Tree
p318
(dp319
g14
(imyEvolve
Tree
p320
(dp321
g7
(imyEvolve
Tree
p322
(dp323
g7
(imyEvolve
Tree
p324
(dp325
g17
I0
sg18
F2.48718777464293
sg19
I01
sbsg17
I1
sg23
(imyEvolve
Tree
p326
(dp327
g17
I0
sg18
F2.208156005380709
sg19
I01
sbsg20
I00
sg21
g42
sbsg17
I2
sg23
(imyEvolve
Tree
p328
(dp329
g14
(imyEvolve
Tree
p330
(dp331
g17
I0
sg18
F-1.8756103928723844
sg19
I01
sbsg17
I1
sg20
I01
sg21
g35
sbsg20
I00
sg21
g28
sbsg17
I3
sg20
I01
sg21
g90
sbsg20
I00
sg21
g43
sbsg17
I5
sg20
I01
sg21
g90
sba(imyEvolve
Tree
p332
(dp333
g7
(imyEvolve
Tree
p334
(dp335
g7
(imyEvolve
Tree
p336
(dp337
g7
(imyEvolve
Tree
p338
(dp339
g17
I0
sg19
I00
sbsg17
I1
sg23
(imyEvolve
Tree
p340
(dp341
g17
I0
sg19
I00
sbsg20
I00
sg21
g43
sbsg17
I2
sg23
(imyEvolve
Tree
p342
(dp343
g7
(imyEvolve
Tree
p344
(dp345
g17
I0
sg18
F-2.743077610343846
sg19
I01
sbsg17
I1
sg23
(imyEvolve
Tree
p346
(dp347
g17
I0
sg18
F3.283815050504437
sg19
I01
sbsg20
I00
sg21
g28
sbsg20
I00
sg21
g28
sbsg17
I3
sg23
(imyEvolve
Tree
p348
(dp349
g7
(imyEvolve
Tree
p350
(dp351
g7
(imyEvolve
Tree
p352
(dp353
g17
I0
sg19
I00
sbsg17
I1
sg23
(imyEvolve
Tree
p354
(dp355
g17
I0
sg19
I00
sbsg20
I00
sg21
g43
sbsg17
I2
sg23
(imyEvolve
Tree
p356
(dp357
g14
(imyEvolve
Tree
p358
(dp359
g17
I0
sg18
F0.9294295887408701
sg19
I01
sbsg17
I1
sg20
I01
sg21
g35
sbsg20
I00
sg21
g42
sbsg20
I00
sg21
g42
sba(imyEvolve
Tree
p360
(dp361
g17
I5
sg7
(imyEvolve
Tree
p362
(dp363
g17
I4
sg7
(imyEvolve
Tree
p364
(dp365
g17
I3
sg7
(imyEvolve
Tree
p366
(dp367
g14
(imyEvolve
Tree
p368
(dp369
g14
(imyEvolve
Tree
p370
(dp371
g17
I0
sg19
I00
sbsg17
I1
sg20
I01
sg21
g35
sbsg17
I2
sg20
I01
sg21
g99
sbsg23
(imyEvolve
Tree
p372
(dp373
g17
I2
sg7
(imyEvolve
Tree
p374
(dp375
g14
(imyEvolve
Tree
p376
(dp377
g17
I0
sg18
F0.9630411768729354
sg19
I01
sbsg17
I1
sg20
I01
sg21
g99
sbsg23
(imyEvolve
Tree
p378
(dp379
g17
I1
sg7
(imyEvolve
Tree
p380
(dp381
g17
I0
sg19
I00
sbsg23
(imyEvolve
Tree
p382
(dp383
g17
I0
sg19
I00
sbsg20
I00
sg21
g42
sbsg20
I00
sg21
g42
sbsg20
I00
sg21
g42
sbsg23
(imyEvolve
Tree
p384
(dp385
g17
I3
sg7
(imyEvolve
Tree
p386
(dp387
g17
I2
sg7
(imyEvolve
Tree
p388
(dp389
g17
I1
sg7
(imyEvolve
Tree
p390
(dp391
g17
I0
sg19
I00
sbsg23
(imyEvolve
Tree
p392
(dp393
g17
I0
sg18
F-0.18788958958088298
sg19
I01
sbsg20
I00
sg21
g28
sbsg23
(imyEvolve
Tree
p394
(dp395
g14
(imyEvolve
Tree
p396
(dp397
g17
I0
sg19
I00
sbsg17
I1
sg20
I01
sg21
g22
sbsg20
I00
sg21
g43
sbsg23
(imyEvolve
Tree
p398
(dp399
g17
I2
sg7
(imyEvolve
Tree
p400
(dp401
g17
I1
sg7
(imyEvolve
Tree
p402
(dp403
g17
I0
sg19
I00
sbsg23
(imyEvolve
Tree
p404
(dp405
g17
I0
sg18
F1.6386936924085562
sg19
I01
sbsg20
I00
sg21
g28
sbsg23
(imyEvolve
Tree
p406
(dp407
g14
(imyEvolve
Tree
p408
(dp409
g17
I0
sg18
F4.325119048271834
sg19
I01
sbsg17
I1
sg20
I01
sg21
g35
sbsg20
I00
sg21
g42
sbsg20
I00
sg21
g28
sbsg20
I00
sg21
g42
sbsg23
(imyEvolve
Tree
p410
(dp411
g14
(imyEvolve
Tree
p412
(dp413
g14
(imyEvolve
Tree
p414
(dp415
g14
(imyEvolve
Tree
p416
(dp417
g14
(imyEvolve
Tree
p418
(dp419
g17
I0
sg18
F-0.003505769254472213
sg19
I01
sbsg17
I1
sg20
I01
sg21
g35
sbsg17
I2
sg20
I01
sg21
g90
sbsg17
I3
sg20
I01
sg21
g35
sbsg17
I4
sg20
I01
sg21
g99
sbsg20
I00
sg21
g42
sba(imyEvolve
Tree
p420
(dp421
g14
(imyEvolve
Tree
p422
(dp423
g7
(imyEvolve
Tree
p424
(dp425
g7
(imyEvolve
Tree
p426
(dp427
g14
(imyEvolve
Tree
p428
(dp429
g17
I0
sg19
I00
sbsg17
I1
sg20
I01
sg21
g35
sbsg17
I2
sg23
(imyEvolve
Tree
p430
(dp431
g14
(imyEvolve
Tree
p432
(dp433
g17
I0
sg18
F1.7539509873770154
sg19
I01
sbsg17
I1
sg20
I01
sg21
g99
sbsg20
I00
sg21
g43
sbsg17
I3
sg23
(imyEvolve
Tree
p434
(dp435
g14
(imyEvolve
Tree
p436
(dp437
g7
(imyEvolve
Tree
p438
(dp439
g17
I0
sg19
I00
sbsg17
I1
sg23
(imyEvolve
Tree
p440
(dp441
g17
I0
sg19
I00
sbsg20
I00
sg21
g28
sbsg17
I2
sg20
I01
sg21
g99
sbsg20
I00
sg21
g28
sbsg17
I4
sg20
I01
sg21
g35
sba(imyEvolve
Tree
p442
(dp443
g14
(imyEvolve
Tree
p444
(dp445
g14
(imyEvolve
Tree
p446
(dp447
g14
(imyEvolve
Tree
p448
(dp449
g14
(imyEvolve
Tree
p450
(dp451
g17
I0
sg19
I00
sbsg17
I1
sg20
I01
sg21
g99
sbsg17
I2
sg20
I01
sg21
g90
sbsg17
I3
sg20
I01
sg21
g35
sbsg17
I4
sg20
I01
sg21
g90
sbaa(lp452
(imyEvolve
Tree
p453
(dp454
g7
(imyEvolve
Tree
p455
(dp456
g7
(imyEvolve
Tree
p457
(dp458
g7
(imyEvolve
Tree
p459
(dp460
g14
(imyEvolve
Tree
p461
(dp462
g17
I0
sg19
I00
sbsg17
I1
sg20
I01
sg21
g99
sbsg17
I2
sg23
(imyEvolve
Tree
p463
(dp464
g7
(imyEvolve
Tree
p465
(dp466
g17
I0
sg18
F2.7425479563792976
sg19
I01
sbsg17
I1
sg23
(imyEvolve
Tree
p467
(dp468
g17
I0
sg18
F-3.292245874052284
sg19
I01
sbsg20
I00
sg21
g43
sbsg20
I00
sg21
g43
sbsg17
I3
sg23
(imyEvolve
Tree
p469
(dp470
g7
(imyEvolve
Tree
p471
(dp472
g7
(imyEvolve
Tree
p473
(dp474
g17
I0
sg18
F-0.8385714682470624
sg19
I01
sbsg17
I1
sg23
(imyEvolve
Tree
p475
(dp476
g17
I0
sg19
I00
sbsg20
I00
sg21
g42
sbsg17
I2
sg23
(imyEvolve
Tree
p477
(dp478
g14
(imyEvolve
Tree
p479
(dp480
g17
I0
sg19
I00
sbsg17
I1
sg20
I01
sg21
g22
sbsg20
I00
sg21
g28
sbsg20
I00
sg21
g28
sbsg17
I4
sg23
(imyEvolve
Tree
p481
(dp482
g14
(imyEvolve
Tree
p483
(dp484
g7
(imyEvolve
Tree
p485
(dp486
g7
(imyEvolve
Tree
p487
(dp488
g17
I0
sg19
I00
sbsg17
I1
sg23
(imyEvolve
Tree
p489
(dp490
g17
I0
sg19
I00
sbsg20
I00
sg21
g42
sbsg17
I2
sg23
(imyEvolve
Tree
p491
(dp492
g7
(imyEvolve
Tree
p493
(dp494
g17
I0
sg19
I00
sbsg17
I1
sg23
(imyEvolve
Tree
p495
(dp496
g17
I0
sg18
F3.758704124851013
sg19
I01
sbsg20
I00
sg21
g28
sbsg20
I00
sg21
g28
sbsg17
I3
sg20
I01
sg21
g99
sbsg20
I00
sg21
g42
sba(imyEvolve
Tree
p497
(dp498
g14
(imyEvolve
Tree
p499
(dp500
g14
(imyEvolve
Tree
p501
(dp502
g17
I0
sg18
F4.321177834217041
sg19
I01
sbsg17
I1
sg20
I01
sg21
g22
sbsg17
I2
sg20
I01
sg21
g90
sba(imyEvolve
Tree
p503
(dp504
g14
(imyEvolve
Tree
p505
(dp506
g7
(imyEvolve
Tree
p507
(dp508
g14
(imyEvolve
Tree
p509
(dp510
g14
(imyEvolve
Tree
p511
(dp512
g17
I0
sg19
I00
sbsg17
I1
sg20
I01
sg21
g22
sbsg17
I2
sg20
I01
sg21
g99
sbsg17
I3
sg23
(imyEvolve
Tree
p513
(dp514
g14
(imyEvolve
Tree
p515
(dp516
g14
(imyEvolve
Tree
p517
(dp518
g17
I0
sg19
I00
sbsg17
I1
sg20
I01
sg21
g35
sbsg17
I2
sg20
I01
sg21
g22
sbsg20
I00
sg21
g43
sbsg17
I4
sg20
I01
sg21
g35
sba(imyEvolve
Tree
p519
(dp520
g17
I2
sg7
(imyEvolve
Tree
p521
(dp522
g17
I1
sg7
(imyEvolve
Tree
p523
(dp524
g17
I0
sg18
F0.20317309765240577
sg19
I01
sbsg23
(imyEvolve
Tree
p525
(dp526
g17
I0
sg18
F-4.189567893402085
sg19
I01
sbsg20
I00
sg21
g28
sbsg23
(imyEvolve
Tree
p527
(dp528
g14
(imyEvolve
Tree
p529
(dp530
g17
I0
sg19
I00
sbsg17
I1
sg20
I01
sg21
g99
sbsg20
I00
sg21
g43
sba(imyEvolve
Tree
p531
(dp532
g17
I2
sg7
(imyEvolve
Tree
p533
(dp534
g17
I1
sg7
(imyEvolve
Tree
p535
(dp536
g17
I0
sg18
F3.881564119750859
sg19
I01
sbsg23
(imyEvolve
Tree
p537
(dp538
g17
I0
sg18
F0.41939668297595567
sg19
I01
sbsg20
I00
sg21
g43
sbsg23
(imyEvolve
Tree
p539
(dp540
g17
I1
sg7
(imyEvolve
Tree
p541
(dp542
g17
I0
sg19
I00
sbsg23
(imyEvolve
Tree
p543
(dp544
g17
I0
sg18
F0.1066429949010983
sg19
I01
sbsg20
I00
sg21
g43
sbsg20
I00
sg21
g42
sba(imyEvolve
Tree
p545
(dp546
g14
(imyEvolve
Tree
p547
(dp548
g14
(imyEvolve
Tree
p549
(dp550
g17
I3
sg7
(imyEvolve
Tree
p551
(dp552
g17
I2
sg7
(imyEvolve
Tree
p553
(dp554
g17
I1
sg7
(imyEvolve
Tree
p555
(dp556
g17
I0
sg19
I00
sbsg23
(imyEvolve
Tree
p557
(dp558
g17
I0
sg18
F-1.310484781198574
sg19
I01
sbsg20
I00
sg21
g28
sbsg23
(imyEvolve
Tree
p559
(dp560
g17
I1
sg7
(imyEvolve
Tree
p561
(dp562
g17
I0
sg18
F2.311136016584266
sg19
I01
sbsg23
(imyEvolve
Tree
p563
(dp564
g17
I0
sg18
F4.216297325841003
sg19
I01
sbsg20
I00
sg21
g28
sbsg20
I00
sg21
g43
sbsg23
(imyEvolve
Tree
p565
(dp566
g17
I2
sg7
(imyEvolve
Tree
p567
(dp568
g14
(imyEvolve
Tree
p569
(dp570
g17
I0
sg19
I00
sbsg17
I1
sg20
I01
sg21
g99
sbsg23
(imyEvolve
Tree
p571
(dp572
g17
I1
sg7
(imyEvolve
Tree
p573
(dp574
g17
I0
sg18
F3.709705930515595
sg19
I01
sbsg23
(imyEvolve
Tree
p575
(dp576
g17
I0
sg18
F0.43924968653855867
sg19
I01
sbsg20
I00
sg21
g28
sbsg20
I00
sg21
g28
sbsg20
I00
sg21
g42
sbsg17
I4
sg20
I01
sg21
g22
sbsg17
I5
sg20
I01
sg21
g99
sba(imyEvolve
Tree
p577
(dp578
g7
(imyEvolve
Tree
p579
(dp580
g14
(imyEvolve
Tree
p581
(dp582
g14
(imyEvolve
Tree
p583
(dp584
g17
I0
sg18
F1.1680864695411666
sg19
I01
sbsg17
I1
sg20
I01
sg21
g90
sbsg17
I2
sg20
I01
sg21
g99
sbsg17
I3
sg23
(imyEvolve
Tree
p585
(dp586
g14
(imyEvolve
Tree
p587
(dp588
g14
(imyEvolve
Tree
p589
(dp590
g17
I0
sg19
I00
sbsg17
I1
sg20
I01
sg21
g35
sbsg17
I2
sg20
I01
sg21
g90
sbsg20
I00
sg21
g28
sba(imyEvolve
Tree
p591
(dp592
g7
(imyEvolve
Tree
p593
(dp594
g7
(imyEvolve
Tree
p595
(dp596
g7
(imyEvolve
Tree
p597
(dp598
g7
(imyEvolve
Tree
p599
(dp600
g17
I0
sg19
I00
sbsg17
I1
sg23
(imyEvolve
Tree
p601
(dp602
g17
I0
sg18
F4.154076654835263
sg19
I01
sbsg20
I00
sg21
g28
sbsg17
I2
sg23
(imyEvolve
Tree
p603
(dp604
g14
(imyEvolve
Tree
p605
(dp606
g17
I0
sg19
I00
sbsg17
I1
sg20
I01
sg21
g22
sbsg20
I00
sg21
g43
sbsg17
I3
sg23
(imyEvolve
Tree
p607
(dp608
g14
(imyEvolve
Tree
p609
(dp610
g7
(imyEvolve
Tree
p611
(dp612
g17
I0
sg18
F-1.8688493047298071
sg19
I01
sbsg17
I1
sg23
(imyEvolve
Tree
p613
(dp614
g17
I0
sg18
F4.031245145718525
sg19
I01
sbsg20
I00
sg21
g42
sbsg17
I2
sg20
I01
sg21
g99
sbsg20
I00
sg21
g43
sbsg17
I4
sg23
(imyEvolve
Tree
p615
(dp616
g7
(imyEvolve
Tree
p617
(dp618
g7
(imyEvolve
Tree
p619
(dp620
g14
(imyEvolve
Tree
p621
(dp622
g17
I0
sg19
I00
sbsg17
I1
sg20
I01
sg21
g35
sbsg17
I2
sg23
(imyEvolve
Tree
p623
(dp624
g7
(imyEvolve
Tree
p625
(dp626
g17
I0
sg19
I00
sbsg17
I1
sg23
(imyEvolve
Tree
p627
(dp628
g17
I0
sg19
I00
sbsg20
I00
sg21
g42
sbsg20
I00
sg21
g42
sbsg17
I3
sg23
(imyEvolve
Tree
p629
(dp630
g7
(imyEvolve
Tree
p631
(dp632
g14
(imyEvolve
Tree
p633
(dp634
g17
I0
sg19
I00
sbsg17
I1
sg20
I01
sg21
g90
sbsg17
I2
sg23
(imyEvolve
Tree
p635
(dp636
g7
(imyEvolve
Tree
p637
(dp638
g17
I0
sg19
I00
sbsg17
I1
sg23
(imyEvolve
Tree
p639
(dp640
g17
I0
sg18
F-4.3776367946030135
sg19
I01
sbsg20
I00
sg21
g42
sbsg20
I00
sg21
g28
sbsg20
I00
sg21
g43
sbsg20
I00
sg21
g28
sba(imyEvolve
Tree
p641
(dp642
g14
(imyEvolve
Tree
p643
(dp644
g7
(imyEvolve
Tree
p645
(dp646
g14
(imyEvolve
Tree
p647
(dp648
g14
(imyEvolve
Tree
p649
(dp650
g7
(imyEvolve
Tree
p651
(dp652
g17
I0
sg19
I00
sbsg17
I1
sg23
(imyEvolve
Tree
p653
(dp654
g17
I0
sg19
I00
sbsg20
I00
sg21
g28
sbsg17
I2
sg20
I01
sg21
g90
sbsg17
I3
sg20
I01
sg21
g35
sbsg17
I4
sg23
(imyEvolve
Tree
p655
(dp656
g7
(imyEvolve
Tree
p657
(dp658
g7
(imyEvolve
Tree
p659
(dp660
g7
(imyEvolve
Tree
p661
(dp662
g17
I0
sg19
I00
sbsg17
I1
sg23
(imyEvolve
Tree
p663
(dp664
g17
I0
sg18
F1.742286706766051
sg19
I01
sbsg20
I00
sg21
g43
sbsg17
I2
sg23
(imyEvolve
Tree
p665
(dp666
g14
(imyEvolve
Tree
p667
(dp668
g17
I0
sg18
F-1.2066092056768971
sg19
I01
sbsg17
I1
sg20
I01
sg21
g35
sbsg20
I00
sg21
g42
sbsg17
I3
sg23
(imyEvolve
Tree
p669
(dp670
g14
(imyEvolve
Tree
p671
(dp672
g14
(imyEvolve
Tree
p673
(dp674
g17
I0
sg18
F-3.9375053448004307
sg19
I01
sbsg17
I1
sg20
I01
sg21
g90
sbsg17
I2
sg20
I01
sg21
g99
sbsg20
I00
sg21
g43
sbsg20
I00
sg21
g28
sbsg17
I5
sg20
I01
sg21
g90
sba(imyEvolve
Tree
p675
(dp676
g17
I3
sg7
(imyEvolve
Tree
p677
(dp678
g14
(imyEvolve
Tree
p679
(dp680
g14
(imyEvolve
Tree
p681
(dp682
g17
I0
sg18
F-3.491887414757602
sg19
I01
sbsg17
I1
sg20
I01
sg21
g22
sbsg17
I2
sg20
I01
sg21
g35
sbsg23
(imyEvolve
Tree
p683
(dp684
g14
(imyEvolve
Tree
p685
(dp686
g14
(imyEvolve
Tree
p687
(dp688
g17
I0
sg19
I00
sbsg17
I1
sg20
I01
sg21
g35
sbsg17
I2
sg20
I01
sg21
g99
sbsg20
I00
sg21
g28
sba(imyEvolve
Tree
p689
(dp690
g17
I2
sg7
(imyEvolve
Tree
p691
(dp692
g14
(imyEvolve
Tree
p693
(dp694
g17
I0
sg19
I00
sbsg17
I1
sg20
I01
sg21
g22
sbsg23
(imyEvolve
Tree
p695
(dp696
g17
I1
sg7
(imyEvolve
Tree
p697
(dp698
g17
I0
sg19
I00
sbsg23
(imyEvolve
Tree
p699
(dp700
g17
I0
sg19
I00
sbsg20
I00
sg21
g43
sbsg20
I00
sg21
g43
sba(imyEvolve
Tree
p701
(dp702
g7
(imyEvolve
Tree
p703
(dp704
g14
(imyEvolve
Tree
p705
(dp706
g7
(imyEvolve
Tree
p707
(dp708
g17
I0
sg18
F2.321494126619731
sg19
I01
sbsg17
I1
sg23
(imyEvolve
Tree
p709
(dp710
g17
I0
sg19
I00
sbsg20
I00
sg21
g43
sbsg17
I2
sg20
I01
sg21
g99
sbsg17
I3
sg23
(imyEvolve
Tree
p711
(dp712
g7
(imyEvolve
Tree
p713
(dp714
g7
(imyEvolve
Tree
p715
(dp716
g17
I0
sg18
F4.146970879339333
sg19
I01
sbsg17
I1
sg23
(imyEvolve
Tree
p717
(dp718
g17
I0
sg19
I00
sbsg20
I00
sg21
g28
sbsg17
I2
sg23
(imyEvolve
Tree
p719
(dp720
g7
(imyEvolve
Tree
p721
(dp722
g17
I0
sg19
I00
sbsg17
I1
sg23
(imyEvolve
Tree
p723
(dp724
g17
I0
sg19
I00
sbsg20
I00
sg21
g42
sbsg20
I00
sg21
g42
sbsg20
I00
sg21
g43
sba(imyEvolve
Tree
p725
(dp726
g14
(imyEvolve
Tree
p727
(dp728
g17
I2
sg7
(imyEvolve
Tree
p729
(dp730
g17
I1
sg7
(imyEvolve
Tree
p731
(dp732
g17
I0
sg18
F1.7496907323031996
sg19
I01
sbsg23
(imyEvolve
Tree
p733
(dp734
g17
I0
sg19
I00
sbsg20
I00
sg21
g42
sbsg23
(imyEvolve
Tree
p735
(dp736
g17
I1
sg7
(imyEvolve
Tree
p737
(dp738
g17
I0
sg19
I00
sbsg23
(imyEvolve
Tree
p739
(dp740
g17
I0
sg18
F0.9778411319060645
sg19
I01
sbsg20
I00
sg21
g28
sbsg20
I00
sg21
g43
sbsg17
I3
sg20
I01
sg21
g22
sba(imyEvolve
Tree
p741
(dp742
g14
(imyEvolve
Tree
p743
(dp744
g14
(imyEvolve
Tree
p745
(dp746
g7
(imyEvolve
Tree
p747
(dp748
g14
(imyEvolve
Tree
p749
(dp750
g14
(imyEvolve
Tree
p751
(dp752
g17
I0
sg18
F-4.505645658621526
sg19
I01
sbsg17
I1
sg20
I01
sg21
g35
sbsg17
I2
sg20
I01
sg21
g90
sbsg17
I3
sg23
(imyEvolve
Tree
p753
(dp754
g14
(imyEvolve
Tree
p755
(dp756
g14
(imyEvolve
Tree
p757
(dp758
g17
I0
sg18
F1.5873823350209388
sg19
I01
sbsg17
I1
sg20
I01
sg21
g99
sbsg17
I2
sg20
I01
sg21
g35
sbsg20
I00
sg21
g43
sbsg17
I4
sg20
I01
sg21
g35
sbsg17
I5
sg20
I01
sg21
g90
sba(imyEvolve
Tree
p759
(dp760
g14
(imyEvolve
Tree
p761
(dp762
g7
(imyEvolve
Tree
p763
(dp764
g14
(imyEvolve
Tree
p765
(dp766
g14
(imyEvolve
Tree
p767
(dp768
g17
I0
sg19
I00
sbsg17
I1
sg20
I01
sg21
g90
sbsg17
I2
sg20
I01
sg21
g22
sbsg17
I3
sg23
(imyEvolve
Tree
p769
(dp770
g14
(imyEvolve
Tree
p771
(dp772
g7
(imyEvolve
Tree
p773
(dp774
g17
I0
sg18
F0.9613984775954334
sg19
I01
sbsg17
I1
sg23
(imyEvolve
Tree
p775
(dp776
g17
I0
sg18
F-3.4249081922598146
sg19
I01
sbsg20
I00
sg21
g42
sbsg17
I2
sg20
I01
sg21
g35
sbsg20
I00
sg21
g43
sbsg17
I4
sg20
I01
sg21
g90
sbaa(lp777
(imyEvolve
Tree
p778
(dp779
g14
(imyEvolve
Tree
p780
(dp781
g7
(imyEvolve
Tree
p782
(dp783
g17
I0
sg19
I00
sbsg17
I1
sg23
(imyEvolve
Tree
p784
(dp785
g17
I0
sg18
F-3.143835399766617
sg19
I01
sbsg20
I00
sg21
g42
sbsg17
I2
sg20
I01
sg21
g99
sba(imyEvolve
Tree
p786
(dp787
g7
(imyEvolve
Tree
p788
(dp789
g7
(imyEvolve
Tree
p790
(dp791
g14
(imyEvolve
Tree
p792
(dp793
g7
(imyEvolve
Tree
p794
(dp795
g17
I0
sg18
F4.823466157757888
sg19
I01
sbsg17
I1
sg23
(imyEvolve
Tree
p796
(dp797
g17
I0
sg18
F3.8941421413643713
sg19
I01
sbsg20
I00
sg21
g28
sbsg17
I2
sg20
I01
sg21
g99
sbsg17
I3
sg23
(imyEvolve
Tree
p798
(dp799
g7
(imyEvolve
Tree
p800
(dp801
g7
(imyEvolve
Tree
p802
(dp803
g17
I0
sg18
F1.6769526554327472
sg19
I01
sbsg17
I1
sg23
(imyEvolve
Tree
p804
(dp805
g17
I0
sg19
I00
sbsg20
I00
sg21
g43
sbsg17
I2
sg23
(imyEvolve
Tree
p806
(dp807
g7
(imyEvolve
Tree
p808
(dp809
g17
I0
sg18
F-4.316563486242328
sg19
I01
sbsg17
I1
sg23
(imyEvolve
Tree
p810
(dp811
g17
I0
sg19
I00
sbsg20
I00
sg21
g28
sbsg20
I00
sg21
g43
sbsg20
I00
sg21
g28
sbsg17
I4
sg23
(imyEvolve
Tree
p812
(dp813
g7
(imyEvolve
Tree
p814
(dp815
g14
(imyEvolve
Tree
p816
(dp817
g14
(imyEvolve
Tree
p818
(dp819
g17
I0
sg18
F0.02888294946121661
sg19
I01
sbsg17
I1
sg20
I01
sg21
g90
sbsg17
I2
sg20
I01
sg21
g35
sbsg17
I3
sg23
(imyEvolve
Tree
p820
(dp821
g7
(imyEvolve
Tree
p822
(dp823
g14
(imyEvolve
Tree
p824
(dp825
g17
I0
sg19
I00
sbsg17
I1
sg20
I01
sg21
g90
sbsg17
I2
sg23
(imyEvolve
Tree
p826
(dp827
g7
(imyEvolve
Tree
p828
(dp829
g17
I0
sg18
F4.457041230329866
sg19
I01
sbsg17
I1
sg23
(imyEvolve
Tree
p830
(dp831
g17
I0
sg18
F-4.75218491494917
sg19
I01
sbsg20
I00
sg21
g42
sbsg20
I00
sg21
g28
sbsg20
I00
sg21
g43
sbsg20
I00
sg21
g28
sba(imyEvolve
Tree
p832
(dp833
g17
I4
sg7
(imyEvolve
Tree
p834
(dp835
g17
I3
sg7
(imyEvolve
Tree
p836
(dp837
g17
I2
sg7
(imyEvolve
Tree
p838
(dp839
g14
(imyEvolve
Tree
p840
(dp841
g17
I0
sg18
F1.1800387412151734
sg19
I01
sbsg17
I1
sg20
I01
sg21
g22
sbsg23
(imyEvolve
Tree
p842
(dp843
g17
I1
sg7
(imyEvolve
Tree
p844
(dp845
g17
I0
sg19
I00
sbsg23
(imyEvolve
Tree
p846
(dp847
g17
I0
sg19
I00
sbsg20
I00
sg21
g42
sbsg20
I00
sg21
g43
sbsg23
(imyEvolve
Tree
p848
(dp849
g17
I2
sg7
(imyEvolve
Tree
p850
(dp851
g17
I1
sg7
(imyEvolve
Tree
p852
(dp853
g17
I0
sg18
F-3.676743252266921
sg19
I01
sbsg23
(imyEvolve
Tree
p854
(dp855
g17
I0
sg19
I00
sbsg20
I00
sg21
g28
sbsg23
(imyEvolve
Tree
p856
(dp857
g14
(imyEvolve
Tree
p858
(dp859
g17
I0
sg18
F1.874076360314393
sg19
I01
sbsg17
I1
sg20
I01
sg21
g99
sbsg20
I00
sg21
g42
sbsg20
I00
sg21
g28
sbsg23
(imyEvolve
Tree
p860
(dp861
g14
(imyEvolve
Tree
p862
(dp863
g14
(imyEvolve
Tree
p864
(dp865
g14
(imyEvolve
Tree
p866
(dp867
g17
I0
sg19
I00
sbsg17
I1
sg20
I01
sg21
g35
sbsg17
I2
sg20
I01
sg21
g90
sbsg17
I3
sg20
I01
sg21
g90
sbsg20
I00
sg21
g28
sba(imyEvolve
Tree
p868
(dp869
g17
I5
sg7
(imyEvolve
Tree
p870
(dp871
g14
(imyEvolve
Tree
p872
(dp873
g14
(imyEvolve
Tree
p874
(dp875
g14
(imyEvolve
Tree
p876
(dp877
g17
I1
sg7
(imyEvolve
Tree
p878
(dp879
g17
I0
sg19
I00
sbsg23
(imyEvolve
Tree
p880
(dp881
g17
I0
sg18
F-2.5643647792469935
sg19
I01
sbsg20
I00
sg21
g43
sbsg17
I2
sg20
I01
sg21
g35
sbsg17
I3
sg20
I01
sg21
g22
sbsg17
I4
sg20
I01
sg21
g22
sbsg23
(imyEvolve
Tree
p882
(dp883
g17
I4
sg7
(imyEvolve
Tree
p884
(dp885
g17
I3
sg7
(imyEvolve
Tree
p886
(dp887
g17
I2
sg7
(imyEvolve
Tree
p888
(dp889
g17
I1
sg7
(imyEvolve
Tree
p890
(dp891
g17
I0
sg18
F3.6512149002534304
sg19
I01
sbsg23
(imyEvolve
Tree
p892
(dp893
g17
I0
sg18
F-1.56728451501389
sg19
I01
sbsg20
I00
sg21
g43
sbsg23
(imyEvolve
Tree
p894
(dp895
g14
(imyEvolve
Tree
p896
(dp897
g17
I0
sg18
F0.43340557092660426
sg19
I01
sbsg17
I1
sg20
I01
sg21
g35
sbsg20
I00
sg21
g43
sbsg23
(imyEvolve
Tree
p898
(dp899
g14
(imyEvolve
Tree
p900
(dp901
g14
(imyEvolve
Tree
p902
(dp903
g17
I0
sg19
I00
sbsg17
I1
sg20
I01
sg21
g35
sbsg17
I2
sg20
I01
sg21
g99
sbsg20
I00
sg21
g43
sbsg23
(imyEvolve
Tree
p904
(dp905
g14
(imyEvolve
Tree
p906
(dp907
g14
(imyEvolve
Tree
p908
(dp909
g17
I1
sg7
(imyEvolve
Tree
p910
(dp911
g17
I0
sg18
F-3.8462103750523013
sg19
I01
sbsg23
(imyEvolve
Tree
p912
(dp913
g17
I0
sg18
F-0.15508153946868575
sg19
I01
sbsg20
I00
sg21
g42
sbsg17
I2
sg20
I01
sg21
g99
sbsg17
I3
sg20
I01
sg21
g99
sbsg20
I00
sg21
g28
sbsg20
I00
sg21
g42
sba(imyEvolve
Tree
p914
(dp915
g7
(imyEvolve
Tree
p916
(dp917
g14
(imyEvolve
Tree
p918
(dp919
g14
(imyEvolve
Tree
p920
(dp921
g7
(imyEvolve
Tree
p922
(dp923
g14
(imyEvolve
Tree
p924
(dp925
g17
I0
sg18
F-2.4735955829724277
sg19
I01
sbsg17
I1
sg20
I01
sg21
g99
sbsg17
I2
sg23
(imyEvolve
Tree
p926
(dp927
g14
(imyEvolve
Tree
p928
(dp929
g17
I0
sg19
I00
sbsg17
I1
sg20
I01
sg21
g99
sbsg20
I00
sg21
g28
sbsg17
I3
sg20
I01
sg21
g90
sbsg17
I4
sg20
I01
sg21
g90
sbsg17
I5
sg23
(imyEvolve
Tree
p930
(dp931
g7
(imyEvolve
Tree
p932
(dp933
g14
(imyEvolve
Tree
p934
(dp935
g14
(imyEvolve
Tree
p936
(dp937
g7
(imyEvolve
Tree
p938
(dp939
g17
I0
sg19
I00
sbsg17
I1
sg23
(imyEvolve
Tree
p940
(dp941
g17
I0
sg19
I00
sbsg20
I00
sg21
g28
sbsg17
I2
sg20
I01
sg21
g35
sbsg17
I3
sg20
I01
sg21
g35
sbsg17
I4
sg23
(imyEvolve
Tree
p942
(dp943
g14
(imyEvolve
Tree
p944
(dp945
g14
(imyEvolve
Tree
p946
(dp947
g14
(imyEvolve
Tree
p948
(dp949
g17
I0
sg19
I00
sbsg17
I1
sg20
I01
sg21
g90
sbsg17
I2
sg20
I01
sg21
g35
sbsg17
I3
sg20
I01
sg21
g90
sbsg20
I00
sg21
g42
sbsg20
I00
sg21
g42
sba(imyEvolve
Tree
p950
(dp951
g14
(imyEvolve
Tree
p952
(dp953
g14
(imyEvolve
Tree
p954
(dp955
g7
(imyEvolve
Tree
p956
(dp957
g7
(imyEvolve
Tree
p958
(dp959
g14
(imyEvolve
Tree
p960
(dp961
g17
I0
sg19
I00
sbsg17
I1
sg20
I01
sg21
g22
sbsg17
I2
sg23
(imyEvolve
Tree
p962
(dp963
g7
(imyEvolve
Tree
p964
(dp965
g17
I0
sg19
I00
sbsg17
I1
sg23
(imyEvolve
Tree
p966
(dp967
g17
I0
sg18
F0.729164685032603
sg19
I01
sbsg20
I00
sg21
g43
sbsg20
I00
sg21
g43
sbsg17
I3
sg23
(imyEvolve
Tree
p968
(dp969
g7
(imyEvolve
Tree
p970
(dp971
g7
(imyEvolve
Tree
p972
(dp973
g17
I0
sg19
I00
sbsg17
I1
sg23
(imyEvolve
Tree
p974
(dp975
g17
I0
sg18
F-1.5172239541471209
sg19
I01
sbsg20
I00
sg21
g42
sbsg17
I2
sg23
(imyEvolve
Tree
p976
(dp977
g7
(imyEvolve
Tree
p978
(dp979
g17
I0
sg19
I00
sbsg17
I1
sg23
(imyEvolve
Tree
p980
(dp981
g17
I0
sg19
I00
sbsg20
I00
sg21
g42
sbsg20
I00
sg21
g28
sbsg20
I00
sg21
g42
sbsg17
I4
sg20
I01
sg21
g35
sbsg17
I5
sg20
I01
sg21
g35
sba(imyEvolve
Tree
p982
(dp983
g14
(imyEvolve
Tree
p984
(dp985
g14
(imyEvolve
Tree
p986
(dp987
g17
I1
sg7
(imyEvolve
Tree
p988
(dp989
g17
I0
sg19
I00
sbsg23
(imyEvolve
Tree
p990
(dp991
g17
I0
sg19
I00
sbsg20
I00
sg21
g43
sbsg17
I2
sg20
I01
sg21
g22
sbsg17
I3
sg20
I01
sg21
g35
sba(imyEvolve
Tree
p992
(dp993
g14
(imyEvolve
Tree
p994
(dp995
g14
(imyEvolve
Tree
p996
(dp997
g14
(imyEvolve
Tree
p998
(dp999
g17
I2
sg7
(imyEvolve
Tree
p1000
(dp1001
g17
I1
sg7
(imyEvolve
Tree
p1002
(dp1003
g17
I0
sg18
F-0.3590359572492403
sg19
I01
sbsg23
(imyEvolve
Tree
p1004
(dp1005
g17
I0
sg18
F2.6907774987113786
sg19
I01
sbsg20
I00
sg21
g43
sbsg23
(imyEvolve
Tree
p1006
(dp1007
g14
(imyEvolve
Tree
p1008
(dp1009
g17
I0
sg18
F-3.1711884359593503
sg19
I01
sbsg17
I1
sg20
I01
sg21
g22
sbsg20
I00
sg21
g43
sbsg17
I3
sg20
I01
sg21
g90
sbsg17
I4
sg20
I01
sg21
g35
sbsg17
I5
sg20
I01
sg21
g99
sba(imyEvolve
Tree
p1010
(dp1011
g17
I4
sg7
(imyEvolve
Tree
p1012
(dp1013
g17
I3
sg7
(imyEvolve
Tree
p1014
(dp1015
g14
(imyEvolve
Tree
p1016
(dp1017
g14
(imyEvolve
Tree
p1018
(dp1019
g17
I0
sg18
F1.832118836061218
sg19
I01
sbsg17
I1
sg20
I01
sg21
g35
sbsg17
I2
sg20
I01
sg21
g22
sbsg23
(imyEvolve
Tree
p1020
(dp1021
g17
I2
sg7
(imyEvolve
Tree
p1022
(dp1023
g14
(imyEvolve
Tree
p1024
(dp1025
g17
I0
sg18
F-3.767635907726592
sg19
I01
sbsg17
I1
sg20
I01
sg21
g22
sbsg23
(imyEvolve
Tree
p1026
(dp1027
g17
I1
sg7
(imyEvolve
Tree
p1028
(dp1029
g17
I0
sg18
F-4.979010339296578
sg19
I01
sbsg23
(imyEvolve
Tree
p1030
(dp1031
g17
I0
sg19
I00
sbsg20
I00
sg21
g28
sbsg20
I00
sg21
g28
sbsg20
I00
sg21
g28
sbsg23
(imyEvolve
Tree
p1032
(dp1033
g14
(imyEvolve
Tree
p1034
(dp1035
g14
(imyEvolve
Tree
p1036
(dp1037
g17
I1
sg7
(imyEvolve
Tree
p1038
(dp1039
g17
I0
sg19
I00
sbsg23
(imyEvolve
Tree
p1040
(dp1041
g17
I0
sg18
F-1.5920153660680558
sg19
I01
sbsg20
I00
sg21
g42
sbsg17
I2
sg20
I01
sg21
g99
sbsg17
I3
sg20
I01
sg21
g90
sbsg20
I00
sg21
g28
sba(imyEvolve
Tree
p1042
(dp1043
g14
(imyEvolve
Tree
p1044
(dp1045
g14
(imyEvolve
Tree
p1046
(dp1047
g17
I0
sg19
I00
sbsg17
I1
sg20
I01
sg21
g90
sbsg17
I2
sg20
I01
sg21
g35
sba(imyEvolve
Tree
p1048
(dp1049
g7
(imyEvolve
Tree
p1050
(dp1051
g7
(imyEvolve
Tree
p1052
(dp1053
g14
(imyEvolve
Tree
p1054
(dp1055
g14
(imyEvolve
Tree
p1056
(dp1057
g7
(imyEvolve
Tree
p1058
(dp1059
g17
I0
sg19
I00
sbsg17
I1
sg23
(imyEvolve
Tree
p1060
(dp1061
g17
I0
sg18
F1.6948851448311286
sg19
I01
sbsg20
I00
sg21
g28
sbsg17
I2
sg20
I01
sg21
g90
sbsg17
I3
sg20
I01
sg21
g90
sbsg17
I4
sg23
(imyEvolve
Tree
p1062
(dp1063
g14
(imyEvolve
Tree
p1064
(dp1065
g7
(imyEvolve
Tree
p1066
(dp1067
g7
(imyEvolve
Tree
p1068
(dp1069
g17
I0
sg19
I00
sbsg17
I1
sg23
(imyEvolve
Tree
p1070
(dp1071
g17
I0
sg18
F2.8962963575390654
sg19
I01
sbsg20
I00
sg21
g43
sbsg17
I2
sg23
(imyEvolve
Tree
p1072
(dp1073
g14
(imyEvolve
Tree
p1074
(dp1075
g17
I0
sg19
I00
sbsg17
I1
sg20
I01
sg21
g90
sbsg20
I00
sg21
g43
sbsg17
I3
sg20
I01
sg21
g99
sbsg20
I00
sg21
g42
sbsg17
I5
sg23
(imyEvolve
Tree
p1076
(dp1077
g14
(imyEvolve
Tree
p1078
(dp1079
g14
(imyEvolve
Tree
p1080
(dp1081
g14
(imyEvolve
Tree
p1082
(dp1083
g7
(imyEvolve
Tree
p1084
(dp1085
g17
I0
sg19
I00
sbsg17
I1
sg23
(imyEvolve
Tree
p1086
(dp1087
g17
I0
sg18
F-0.700644468669327
sg19
I01
sbsg20
I00
sg21
g43
sbsg17
I2
sg20
I01
sg21
g99
sbsg17
I3
sg20
I01
sg21
g35
sbsg17
I4
sg20
I01
sg21
g35
sbsg20
I00
sg21
g42
sba(imyEvolve
Tree
p1088
(dp1089
g7
(imyEvolve
Tree
p1090
(dp1091
g7
(imyEvolve
Tree
p1092
(dp1093
g14
(imyEvolve
Tree
p1094
(dp1095
g14
(imyEvolve
Tree
p1096
(dp1097
g7
(imyEvolve
Tree
p1098
(dp1099
g17
I0
sg18
F-2.2569961067032542
sg19
I01
sbsg17
I1
sg23
(imyEvolve
Tree
p1100
(dp1101
g17
I0
sg18
F0.983202839378766
sg19
I01
sbsg20
I00
sg21
g43
sbsg17
I2
sg20
I01
sg21
g99
sbsg17
I3
sg20
I01
sg21
g22
sbsg17
I4
sg23
(imyEvolve
Tree
p1102
(dp1103
g7
(imyEvolve
Tree
p1104
(dp1105
g14
(imyEvolve
Tree
p1106
(dp1107
g7
(imyEvolve
Tree
p1108
(dp1109
g17
I0
sg19
I00
sbsg17
I1
sg23
(imyEvolve
Tree
p1110
(dp1111
g17
I0
sg18
F-4.167047866100276
sg19
I01
sbsg20
I00
sg21
g42
sbsg17
I2
sg20
I01
sg21
g22
sbsg17
I3
sg23
(imyEvolve
Tree
p1112
(dp1113
g7
(imyEvolve
Tree
p1114
(dp1115
g14
(imyEvolve
Tree
p1116
(dp1117
g17
I0
sg19
I00
sbsg17
I1
sg20
I01
sg21
g90
sbsg17
I2
sg23
(imyEvolve
Tree
p1118
(dp1119
g7
(imyEvolve
Tree
p1120
(dp1121
g17
I0
sg19
I00
sbsg17
I1
sg23
(imyEvolve
Tree
p1122
(dp1123
g17
I0
sg19
I00
sbsg20
I00
sg21
g42
sbsg20
I00
sg21
g43
sbsg20
I00
sg21
g43
sbsg20
I00
sg21
g28
sbsg17
I5
sg23
(imyEvolve
Tree
p1124
(dp1125
g14
(imyEvolve
Tree
p1126
(dp1127
g7
(imyEvolve
Tree
p1128
(dp1129
g7
(imyEvolve
Tree
p1130
(dp1131
g7
(imyEvolve
Tree
p1132
(dp1133
g17
I0
sg19
I00
sbsg17
I1
sg23
(imyEvolve
Tree
p1134
(dp1135
g17
I0
sg18
F0.6559586929472481
sg19
I01
sbsg20
I00
sg21
g43
sbsg17
I2
sg23
(imyEvolve
Tree
p1136
(dp1137
g14
(imyEvolve
Tree
p1138
(dp1139
g17
I0
sg19
I00
sbsg17
I1
sg20
I01
sg21
g22
sbsg20
I00
sg21
g28
sbsg17
I3
sg23
(imyEvolve
Tree
p1140
(dp1141
g7
(imyEvolve
Tree
p1142
(dp1143
g14
(imyEvolve
Tree
p1144
(dp1145
g17
I0
sg19
I00
sbsg17
I1
sg20
I01
sg21
g99
sbsg17
I2
sg23
(imyEvolve
Tree
p1146
(dp1147
g14
(imyEvolve
Tree
p1148
(dp1149
g17
I0
sg19
I00
sbsg17
I1
sg20
I01
sg21
g99
sbsg20
I00
sg21
g43
sbsg20
I00
sg21
g42
sbsg17
I4
sg20
I01
sg21
g90
sbsg20
I00
sg21
g42
sba(imyEvolve
Tree
p1150
(dp1151
g14
(imyEvolve
Tree
p1152
(dp1153
g14
(imyEvolve
Tree
p1154
(dp1155
g7
(imyEvolve
Tree
p1156
(dp1157
g17
I0
sg18
F2.650198664160575
sg19
I01
sbsg17
I1
sg23
(imyEvolve
Tree
p1158
(dp1159
g17
I0
sg18
F1.7648769827781745
sg19
I01
sbsg20
I00
sg21
g28
sbsg17
I2
sg20
I01
sg21
g99
sbsg17
I3
sg20
I01
sg21
g99
sbaa(lp1160
(imyEvolve
Tree
p1161
(dp1162
g17
I4
sg7
(imyEvolve
Tree
p1163
(dp1164
g17
I3
sg7
(imyEvolve
Tree
p1165
(dp1166
g14
(imyEvolve
Tree
p1167
(dp1168
g17
I1
sg7
(imyEvolve
Tree
p1169
(dp1170
g17
I0
sg18
F0.29388075194475416
sg19
I01
sbsg23
(imyEvolve
Tree
p1171
(dp1172
g17
I0
sg19
I00
sbsg20
I00
sg21
g28
sbsg17
I2
sg20
I01
sg21
g22
sbsg23
(imyEvolve
Tree
p1173
(dp1174
g14
(imyEvolve
Tree
p1175
(dp1176
g17
I1
sg7
(imyEvolve
Tree
p1177
(dp1178
g17
I0
sg18
F4.743478404582609
sg19
I01
sbsg23
(imyEvolve
Tree
p1179
(dp1180
g17
I0
sg19
I00
sbsg20
I00
sg21
g43
sbsg17
I2
sg20
I01
sg21
g99
sbsg20
I00
sg21
g28
sbsg23
(imyEvolve
Tree
p1181
(dp1182
g14
(imyEvolve
Tree
p1183
(dp1184
g17
I2
sg7
(imyEvolve
Tree
p1185
(dp1186
g14
(imyEvolve
Tree
p1187
(dp1188
g17
I0
sg19
I00
sbsg17
I1
sg20
I01
sg21
g90
sbsg23
(imyEvolve
Tree
p1189
(dp1190
g17
I1
sg7
(imyEvolve
Tree
p1191
(dp1192
g17
I0
sg18
F4.566369344253067
sg19
I01
sbsg23
(imyEvolve
Tree
p1193
(dp1194
g17
I0
sg19
I00
sbsg20
I00
sg21
g42
sbsg20
I00
sg21
g28
sbsg17
I3
sg20
I01
sg21
g22
sbsg20
I00
sg21
g43
sba(imyEvolve
Tree
p1195
(dp1196
g14
(imyEvolve
Tree
p1197
(dp1198
g14
(imyEvolve
Tree
p1199
(dp1200
g17
I3
sg7
(imyEvolve
Tree
p1201
(dp1202
g14
(imyEvolve
Tree
p1203
(dp1204
g14
(imyEvolve
Tree
p1205
(dp1206
g17
I0
sg18
F4.705544637278537
sg19
I01
sbsg17
I1
sg20
I01
sg21
g99
sbsg17
I2
sg20
I01
sg21
g35
sbsg23
(imyEvolve
Tree
p1207
(dp1208
g17
I2
sg7
(imyEvolve
Tree
p1209
(dp1210
g17
I1
sg7
(imyEvolve
Tree
p1211
(dp1212
g17
I0
sg19
I00
sbsg23
(imyEvolve
Tree
p1213
(dp1214
g17
I0
sg19
I00
sbsg20
I00
sg21
g42
sbsg23
(imyEvolve
Tree
p1215
(dp1216
g14
(imyEvolve
Tree
p1217
(dp1218
g17
I0
sg19
I00
sbsg17
I1
sg20
I01
sg21
g22
sbsg20
I00
sg21
g42
sbsg20
I00
sg21
g42
sbsg17
I4
sg20
I01
sg21
g22
sbsg17
I5
sg20
I01
sg21
g22
sba(imyEvolve
Tree
p1219
(dp1220
g17
I4
sg7
(imyEvolve
Tree
p1221
(dp1222
g14
(imyEvolve
Tree
p1223
(dp1224
g14
(imyEvolve
Tree
p1225
(dp1226
g17
I1
sg7
(imyEvolve
Tree
p1227
(dp1228
g17
I0
sg19
I00
sbsg23
(imyEvolve
Tree
p1229
(dp1230
g17
I0
sg19
I00
sbsg20
I00
sg21
g42
sbsg17
I2
sg20
I01
sg21
g99
sbsg17
I3
sg20
I01
sg21
g90
sbsg23
(imyEvolve
Tree
p1231
(dp1232
g17
I3
sg7
(imyEvolve
Tree
p1233
(dp1234
g14
(imyEvolve
Tree
p1235
(dp1236
g17
I1
sg7
(imyEvolve
Tree
p1237
(dp1238
g17
I0
sg19
I00
sbsg23
(imyEvolve
Tree
p1239
(dp1240
g17
I0
sg18
F1.6301069815104192
sg19
I01
sbsg20
I00
sg21
g43
sbsg17
I2
sg20
I01
sg21
g90
sbsg23
(imyEvolve
Tree
p1241
(dp1242
g14
(imyEvolve
Tree
p1243
(dp1244
g17
I1
sg7
(imyEvolve
Tree
p1245
(dp1246
g17
I0
sg19
I00
sbsg23
(imyEvolve
Tree
p1247
(dp1248
g17
I0
sg19
I00
sbsg20
I00
sg21
g43
sbsg17
I2
sg20
I01
sg21
g35
sbsg20
I00
sg21
g42
sbsg20
I00
sg21
g28
sba(imyEvolve
Tree
p1249
(dp1250
g17
I5
sg7
(imyEvolve
Tree
p1251
(dp1252
g14
(imyEvolve
Tree
p1253
(dp1254
g17
I3
sg7
(imyEvolve
Tree
p1255
(dp1256
g17
I2
sg7
(imyEvolve
Tree
p1257
(dp1258
g14
(imyEvolve
Tree
p1259
(dp1260
g17
I0
sg19
I00
sbsg17
I1
sg20
I01
sg21
g99
sbsg23
(imyEvolve
Tree
p1261
(dp1262
g17
I1
sg7
(imyEvolve
Tree
p1263
(dp1264
g17
I0
sg19
I00
sbsg23
(imyEvolve
Tree
p1265
(dp1266
g17
I0
sg18
F0.7019024239881864
sg19
I01
sbsg20
I00
sg21
g28
sbsg20
I00
sg21
g28
sbsg23
(imyEvolve
Tree
p1267
(dp1268
g14
(imyEvolve
Tree
p1269
(dp1270
g14
(imyEvolve
Tree
p1271
(dp1272
g17
I0
sg18
F2.747779269085301
sg19
I01
sbsg17
I1
sg20
I01
sg21
g90
sbsg17
I2
sg20
I01
sg21
g35
sbsg20
I00
sg21
g43
sbsg17
I4
sg20
I01
sg21
g22
sbsg23
(imyEvolve
Tree
p1273
(dp1274
g17
I4
sg7
(imyEvolve
Tree
p1275
(dp1276
g14
(imyEvolve
Tree
p1277
(dp1278
g14
(imyEvolve
Tree
p1279
(dp1280
g17
I1
sg7
(imyEvolve
Tree
p1281
(dp1282
g17
I0
sg19
I00
sbsg23
(imyEvolve
Tree
p1283
(dp1284
g17
I0
sg18
F0.9288924578906022
sg19
I01
sbsg20
I00
sg21
g28
sbsg17
I2
sg20
I01
sg21
g99
sbsg17
I3
sg20
I01
sg21
g90
sbsg23
(imyEvolve
Tree
p1285
(dp1286
g17
I3
sg7
(imyEvolve
Tree
p1287
(dp1288
g17
I2
sg7
(imyEvolve
Tree
p1289
(dp1290
g17
I1
sg7
(imyEvolve
Tree
p1291
(dp1292
g17
I0
sg19
I00
sbsg23
(imyEvolve
Tree
p1293
(dp1294
g17
I0
sg18
F-2.6976239272717804
sg19
I01
sbsg20
I00
sg21
g43
sbsg23
(imyEvolve
Tree
p1295
(dp1296
g14
(imyEvolve
Tree
p1297
(dp1298
g17
I0
sg19
I00
sbsg17
I1
sg20
I01
sg21
g90
sbsg20
I00
sg21
g43
sbsg23
(imyEvolve
Tree
p1299
(dp1300
g14
(imyEvolve
Tree
p1301
(dp1302
g17
I1
sg7
(imyEvolve
Tree
p1303
(dp1304
g17
I0
sg18
F-3.783682459320905
sg19
I01
sbsg23
(imyEvolve
Tree
p1305
(dp1306
g17
I0
sg18
F3.160076242737505
sg19
I01
sbsg20
I00
sg21
g28
sbsg17
I2
sg20
I01
sg21
g35
sbsg20
I00
sg21
g43
sbsg20
I00
sg21
g43
sbsg20
I00
sg21
g28
sba(imyEvolve
Tree
p1307
(dp1308
g14
(imyEvolve
Tree
p1309
(dp1310
g17
I1
sg7
(imyEvolve
Tree
p1311
(dp1312
g17
I0
sg19
I00
sbsg23
(imyEvolve
Tree
p1313
(dp1314
g17
I0
sg19
I00
sbsg20
I00
sg21
g42
sbsg17
I2
sg20
I01
sg21
g35
sba(imyEvolve
Tree
p1315
(dp1316
g14
(imyEvolve
Tree
p1317
(dp1318
g17
I4
sg7
(imyEvolve
Tree
p1319
(dp1320
g14
(imyEvolve
Tree
p1321
(dp1322
g17
I2
sg7
(imyEvolve
Tree
p1323
(dp1324
g17
I1
sg7
(imyEvolve
Tree
p1325
(dp1326
g17
I0
sg19
I00
sbsg23
(imyEvolve
Tree
p1327
(dp1328
g17
I0
sg19
I00
sbsg20
I00
sg21
g42
sbsg23
(imyEvolve
Tree
p1329
(dp1330
g17
I1
sg7
(imyEvolve
Tree
p1331
(dp1332
g17
I0
sg19
I00
sbsg23
(imyEvolve
Tree
p1333
(dp1334
g17
I0
sg18
F-1.2089816755071157
sg19
I01
sbsg20
I00
sg21
g43
sbsg20
I00
sg21
g42
sbsg17
I3
sg20
I01
sg21
g99
sbsg23
(imyEvolve
Tree
p1335
(dp1336
g14
(imyEvolve
Tree
p1337
(dp1338
g14
(imyEvolve
Tree
p1339
(dp1340
g14
(imyEvolve
Tree
p1341
(dp1342
g17
I0
sg19
I00
sbsg17
I1
sg20
I01
sg21
g90
sbsg17
I2
sg20
I01
sg21
g90
sbsg17
I3
sg20
I01
sg21
g35
sbsg20
I00
sg21
g43
sbsg17
I5
sg20
I01
sg21
g90
sba(imyEvolve
Tree
p1343
(dp1344
g14
(imyEvolve
Tree
p1345
(dp1346
g17
I3
sg7
(imyEvolve
Tree
p1347
(dp1348
g17
I2
sg7
(imyEvolve
Tree
p1349
(dp1350
g14
(imyEvolve
Tree
p1351
(dp1352
g17
I0
sg18
F-4.354986738355775
sg19
I01
sbsg17
I1
sg20
I01
sg21
g90
sbsg23
(imyEvolve
Tree
p1353
(dp1354
g17
I1
sg7
(imyEvolve
Tree
p1355
(dp1356
g17
I0
sg18
F4.94632569806746
sg19
I01
sbsg23
(imyEvolve
Tree
p1357
(dp1358
g17
I0
sg18
F4.415677921951213
sg19
I01
sbsg20
I00
sg21
g42
sbsg20
I00
sg21
g42
sbsg23
(imyEvolve
Tree
p1359
(dp1360
g17
I2
sg7
(imyEvolve
Tree
p1361
(dp1362
g14
(imyEvolve
Tree
p1363
(dp1364
g17
I0
sg18
F0.7124734388045484
sg19
I01
sbsg17
I1
sg20
I01
sg21
g90
sbsg23
(imyEvolve
Tree
p1365
(dp1366
g17
I1
sg7
(imyEvolve
Tree
p1367
(dp1368
g17
I0
sg18
F-0.7147169785199949
sg19
I01
sbsg23
(imyEvolve
Tree
p1369
(dp1370
g17
I0
sg18
F-0.7321807972857499
sg19
I01
sbsg20
I00
sg21
g42
sbsg20
I00
sg21
g42
sbsg20
I00
sg21
g42
sbsg17
I4
sg20
I01
sg21
g22
sba(imyEvolve
Tree
p1371
(dp1372
g17
I4
sg7
(imyEvolve
Tree
p1373
(dp1374
g14
(imyEvolve
Tree
p1375
(dp1376
g14
(imyEvolve
Tree
p1377
(dp1378
g14
(imyEvolve
Tree
p1379
(dp1380
g17
I0
sg19
I00
sbsg17
I1
sg20
I01
sg21
g99
sbsg17
I2
sg20
I01
sg21
g35
sbsg17
I3
sg20
I01
sg21
g22
sbsg23
(imyEvolve
Tree
p1381
(dp1382
g14
(imyEvolve
Tree
p1383
(dp1384
g14
(imyEvolve
Tree
p1385
(dp1386
g14
(imyEvolve
Tree
p1387
(dp1388
g17
I0
sg18
F1.9975176290906393
sg19
I01
sbsg17
I1
sg20
I01
sg21
g35
sbsg17
I2
sg20
I01
sg21
g35
sbsg17
I3
sg20
I01
sg21
g35
sbsg20
I00
sg21
g42
sba(imyEvolve
Tree
p1389
(dp1390
g14
(imyEvolve
Tree
p1391
(dp1392
g17
I4
sg7
(imyEvolve
Tree
p1393
(dp1394
g14
(imyEvolve
Tree
p1395
(dp1396
g17
I2
sg7
(imyEvolve
Tree
p1397
(dp1398
g17
I1
sg7
(imyEvolve
Tree
p1399
(dp1400
g17
I0
sg19
I00
sbsg23
(imyEvolve
Tree
p1401
(dp1402
g17
I0
sg19
I00
sbsg20
I00
sg21
g28
sbsg23
(imyEvolve
Tree
p1403
(dp1404
g17
I1
sg7
(imyEvolve
Tree
p1405
(dp1406
g17
I0
sg19
I00
sbsg23
(imyEvolve
Tree
p1407
(dp1408
g17
I0
sg18
F-3.7542503787292625
sg19
I01
sbsg20
I00
sg21
g42
sbsg20
I00
sg21
g43
sbsg17
I3
sg20
I01
sg21
g99
sbsg23
(imyEvolve
Tree
p1409
(dp1410
g14
(imyEvolve
Tree
p1411
(dp1412
g17
I2
sg7
(imyEvolve
Tree
p1413
(dp1414
g17
I1
sg7
(imyEvolve
Tree
p1415
(dp1416
g17
I0
sg19
I00
sbsg23
(imyEvolve
Tree
p1417
(dp1418
g17
I0
sg18
F-1.000664892861871
sg19
I01
sbsg20
I00
sg21
g28
sbsg23
(imyEvolve
Tree
p1419
(dp1420
g17
I1
sg7
(imyEvolve
Tree
p1421
(dp1422
g17
I0
sg18
F-0.31153389183788516
sg19
I01
sbsg23
(imyEvolve
Tree
p1423
(dp1424
g17
I0
sg19
I00
sbsg20
I00
sg21
g43
sbsg20
I00
sg21
g43
sbsg17
I3
sg20
I01
sg21
g90
sbsg20
I00
sg21
g42
sbsg17
I5
sg20
I01
sg21
g99
sba(imyEvolve
Tree
p1425
(dp1426
g14
(imyEvolve
Tree
p1427
(dp1428
g17
I4
sg7
(imyEvolve
Tree
p1429
(dp1430
g17
I3
sg7
(imyEvolve
Tree
p1431
(dp1432
g17
I2
sg7
(imyEvolve
Tree
p1433
(dp1434
g14
(imyEvolve
Tree
p1435
(dp1436
g17
I0
sg18
F-0.1801341484366139
sg19
I01
sbsg17
I1
sg20
I01
sg21
g99
sbsg23
(imyEvolve
Tree
p1437
(dp1438
g14
(imyEvolve
Tree
p1439
(dp1440
g17
I0
sg18
F-4.776704844541432
sg19
I01
sbsg17
I1
sg20
I01
sg21
g35
sbsg20
I00
sg21
g28
sbsg23
(imyEvolve
Tree
p1441
(dp1442
g17
I2
sg7
(imyEvolve
Tree
p1443
(dp1444
g14
(imyEvolve
Tree
p1445
(dp1446
g17
I0
sg19
I00
sbsg17
I1
sg20
I01
sg21
g90
sbsg23
(imyEvolve
Tree
p1447
(dp1448
g17
I1
sg7
(imyEvolve
Tree
p1449
(dp1450
g17
I0
sg19
I00
sbsg23
(imyEvolve
Tree
p1451
(dp1452
g17
I0
sg18
F0.9556728551071938
sg19
I01
sbsg20
I00
sg21
g42
sbsg20
I00
sg21
g28
sbsg20
I00
sg21
g43
sbsg23
(imyEvolve
Tree
p1453
(dp1454
g14
(imyEvolve
Tree
p1455
(dp1456
g17
I2
sg7
(imyEvolve
Tree
p1457
(dp1458
g14
(imyEvolve
Tree
p1459
(dp1460
g17
I0
sg18
F-4.368749365686599
sg19
I01
sbsg17
I1
sg20
I01
sg21
g90
sbsg23
(imyEvolve
Tree
p1461
(dp1462
g17
I1
sg7
(imyEvolve
Tree
p1463
(dp1464
g17
I0
sg19
I00
sbsg23
(imyEvolve
Tree
p1465
(dp1466
g17
I0
sg19
I00
sbsg20
I00
sg21
g42
sbsg20
I00
sg21
g42
sbsg17
I3
sg20
I01
sg21
g99
sbsg20
I00
sg21
g42
sbsg17
I5
sg20
I01
sg21
g99
sba(imyEvolve
Tree
p1467
(dp1468
g14
(imyEvolve
Tree
p1469
(dp1470
g17
I3
sg7
(imyEvolve
Tree
p1471
(dp1472
g14
(imyEvolve
Tree
p1473
(dp1474
g14
(imyEvolve
Tree
p1475
(dp1476
g17
I0
sg18
F4.383603850952001
sg19
I01
sbsg17
I1
sg20
I01
sg21
g99
sbsg17
I2
sg20
I01
sg21
g22
sbsg23
(imyEvolve
Tree
p1477
(dp1478
g17
I2
sg7
(imyEvolve
Tree
p1479
(dp1480
g14
(imyEvolve
Tree
p1481
(dp1482
g17
I0
sg18
F-0.6203289143983888
sg19
I01
sbsg17
I1
sg20
I01
sg21
g22
sbsg23
(imyEvolve
Tree
p1483
(dp1484
g14
(imyEvolve
Tree
p1485
(dp1486
g17
I0
sg18
F3.8962237282512096
sg19
I01
sbsg17
I1
sg20
I01
sg21
g22
sbsg20
I00
sg21
g28
sbsg20
I00
sg21
g43
sbsg17
I4
sg20
I01
sg21
g22
sba(imyEvolve
Tree
p1487
(dp1488
g14
(imyEvolve
Tree
p1489
(dp1490
g17
I1
sg7
(imyEvolve
Tree
p1491
(dp1492
g17
I0
sg18
F4.25876381497554
sg19
I01
sbsg23
(imyEvolve
Tree
p1493
(dp1494
g17
I0
sg18
F-3.0752256971430167
sg19
I01
sbsg20
I00
sg21
g42
sbsg17
I2
sg20
I01
sg21
g90
sba(imyEvolve
Tree
p1495
(dp1496
g17
I3
sg7
(imyEvolve
Tree
p1497
(dp1498
g14
(imyEvolve
Tree
p1499
(dp1500
g17
I1
sg7
(imyEvolve
Tree
p1501
(dp1502
g17
I0
sg18
F-2.9028079289380537
sg19
I01
sbsg23
(imyEvolve
Tree
p1503
(dp1504
g17
I0
sg19
I00
sbsg20
I00
sg21
g42
sbsg17
I2
sg20
I01
sg21
g90
sbsg23
(imyEvolve
Tree
p1505
(dp1506
g17
I2
sg7
(imyEvolve
Tree
p1507
(dp1508
g14
(imyEvolve
Tree
p1509
(dp1510
g17
I0
sg18
F-3.7508761086113007
sg19
I01
sbsg17
I1
sg20
I01
sg21
g22
sbsg23
(imyEvolve
Tree
p1511
(dp1512
g17
I1
sg7
(imyEvolve
Tree
p1513
(dp1514
g17
I0
sg18
F-1.6644775008532742
sg19
I01
sbsg23
(imyEvolve
Tree
p1515
(dp1516
g17
I0
sg19
I00
sbsg20
I00
sg21
g28
sbsg20
I00
sg21
g43
sbsg20
I00
sg21
g43
sba(imyEvolve
Tree
p1517
(dp1518
g17
I5
sg7
(imyEvolve
Tree
p1519
(dp1520
g14
(imyEvolve
Tree
p1521
(dp1522
g14
(imyEvolve
Tree
p1523
(dp1524
g17
I2
sg7
(imyEvolve
Tree
p1525
(dp1526
g17
I1
sg7
(imyEvolve
Tree
p1527
(dp1528
g17
I0
sg18
F-4.142859562282126
sg19
I01
sbsg23
(imyEvolve
Tree
p1529
(dp1530
g17
I0
sg19
I00
sbsg20
I00
sg21
g42
sbsg23
(imyEvolve
Tree
p1531
(dp1532
g14
(imyEvolve
Tree
p1533
(dp1534
g17
I0
sg18
F-4.080581729199597
sg19
I01
sbsg17
I1
sg20
I01
sg21
g90
sbsg20
I00
sg21
g43
sbsg17
I3
sg20
I01
sg21
g35
sbsg17
I4
sg20
I01
sg21
g22
sbsg23
(imyEvolve
Tree
p1535
(dp1536
g17
I4
sg7
(imyEvolve
Tree
p1537
(dp1538
g17
I3
sg7
(imyEvolve
Tree
p1539
(dp1540
g14
(imyEvolve
Tree
p1541
(dp1542
g14
(imyEvolve
Tree
p1543
(dp1544
g17
I0
sg18
F-0.2366030926566962
sg19
I01
sbsg17
I1
sg20
I01
sg21
g22
sbsg17
I2
sg20
I01
sg21
g99
sbsg23
(imyEvolve
Tree
p1545
(dp1546
g17
I2
sg7
(imyEvolve
Tree
p1547
(dp1548
g14
(imyEvolve
Tree
p1549
(dp1550
g17
I0
sg18
F2.4637114948897176
sg19
I01
sbsg17
I1
sg20
I01
sg21
g35
sbsg23
(imyEvolve
Tree
p1551
(dp1552
g17
I1
sg7
(imyEvolve
Tree
p1553
(dp1554
g17
I0
sg18
F-2.9169109583329798
sg19
I01
sbsg23
(imyEvolve
Tree
p1555
(dp1556
g17
I0
sg18
F4.089713483242033
sg19
I01
sbsg20
I00
sg21
g42
sbsg20
I00
sg21
g42
sbsg20
I00
sg21
g28
sbsg23
(imyEvolve
Tree
p1557
(dp1558
g14
(imyEvolve
Tree
p1559
(dp1560
g17
I2
sg7
(imyEvolve
Tree
p1561
(dp1562
g17
I1
sg7
(imyEvolve
Tree
p1563
(dp1564
g17
I0
sg18
F4.132115953477998
sg19
I01
sbsg23
(imyEvolve
Tree
p1565
(dp1566
g17
I0
sg18
F-2.5730895818368706
sg19
I01
sbsg20
I00
sg21
g42
sbsg23
(imyEvolve
Tree
p1567
(dp1568
g14
(imyEvolve
Tree
p1569
(dp1570
g17
I0
sg18
F-1.06161313407378
sg19
I01
sbsg17
I1
sg20
I01
sg21
g22
sbsg20
I00
sg21
g43
sbsg17
I3
sg20
I01
sg21
g99
sbsg20
I00
sg21
g42
sbsg20
I00
sg21
g42
sbaasS'alpha'
p1571
F0.006081428776862099
sS'fitness'
p1572
cnumpy.core.multiarray
scalar
p1573
(cnumpy
dtype
p1574
(S'f8'
p1575
I0
I1
tp1576
Rp1577
(I3
S'<'
p1578
NNNI-1
I-1
I0
tp1579
bS'\x008\xd6\xc5\x85\x1fM?'
p1580
tp1581
Rp1582
sS'weightSharing'
p1583
(lp1584
I01
asS'fitnessValid'
p1585
I00
sS'resolution'
p1586
I99
sb.