(imyEvolve
Individual
p0
(dp1
S'funcs'
p2
(lp3
(lp4
(imyEvolve
Tree
p5
(dp6
S'left'
p7
(imyEvolve
Tree
p8
(dp9
g7
(imyEvolve
Tree
p10
(dp11
S'depth'
p12
I0
sS'isConstant'
p13
I00
sbsg12
I1
sS'right'
p14
(imyEvolve
Tree
p15
(dp16
g12
I0
sS'constant'
p17
F-0.6423909509239181
sg13
I01
sbsS'single'
p18
I00
sS'op'
p19
coperator
add
p20
sbsg12
I2
sg14
(imyEvolve
Tree
p21
(dp22
S'below'
p23
(imyEvolve
Tree
p24
(dp25
g12
I0
sg17
F2.5151644275100367
sg13
I01
sbsg12
I1
sg18
I01
sg19
cmath
sin
p26
sbsg18
I00
sg19
coperator
mul
p27
sba(imyEvolve
Tree
p28
(dp29
g23
(imyEvolve
Tree
p30
(dp31
g7
(imyEvolve
Tree
p32
(dp33
g23
(imyEvolve
Tree
p34
(dp35
g12
I0
sg17
F-0.7573524128027485
sg13
I01
sbsg12
I1
sg18
I01
sg19
g26
sbsg12
I2
sg14
(imyEvolve
Tree
p36
(dp37
g7
(imyEvolve
Tree
p38
(dp39
g12
I0
sg17
F-0.4033370162106902
sg13
I01
sbsg12
I1
sg14
(imyEvolve
Tree
p40
(dp41
g12
I0
sg17
F0.9046919294210376
sg13
I01
sbsg18
I00
sg19
g27
sbsg18
I00
sg19
g20
sbsg12
I3
sg18
I01
sg19
g26
sba(imyEvolve
Tree
p42
(dp43
g7
(imyEvolve
Tree
p44
(dp45
g7
(imyEvolve
Tree
p46
(dp47
g12
I0
sg13
I00
sbsg12
I1
sg14
(imyEvolve
Tree
p48
(dp49
g12
I0
sg13
I00
sbsg18
I00
sg19
g27
sbsg12
I2
sg14
(imyEvolve
Tree
p50
(dp51
g7
(imyEvolve
Tree
p52
(dp53
g12
I0
sg13
I00
sbsg12
I1
sg14
(imyEvolve
Tree
p54
(dp55
g12
I0
sg17
F-4.8141481444790815
sg13
I01
sbsg18
I00
sg19
g20
sbsg18
I00
sg19
coperator
sub
p56
sba(imyEvolve
Tree
p57
(dp58
g23
(imyEvolve
Tree
p59
(dp60
g23
(imyEvolve
Tree
p61
(dp62
g23
(imyEvolve
Tree
p63
(dp64
g23
(imyEvolve
Tree
p65
(dp66
g12
I1
sg7
(imyEvolve
Tree
p67
(dp68
g12
I0
sg13
I00
sbsg14
(imyEvolve
Tree
p69
(dp70
g12
I0
sg17
F-3.1438201407100097
sg13
I01
sbsg18
I00
sg19
g27
sbsg12
I2
sg18
I01
sg19
g26
sbsg12
I3
sg18
I01
sg19
g26
sbsg12
I4
sg18
I01
sg19
cmyEvolve
absSqrt
p71
sbsg12
I5
sg18
I01
sg19
cmyEvolve
square
p72
sba(imyEvolve
Tree
p73
(dp74
g23
(imyEvolve
Tree
p75
(dp76
g7
(imyEvolve
Tree
p77
(dp78
g7
(imyEvolve
Tree
p79
(dp80
g23
(imyEvolve
Tree
p81
(dp82
g23
(imyEvolve
Tree
p83
(dp84
g12
I0
sg13
I00
sbsg12
I1
sg18
I01
sg19
g26
sbsg12
I2
sg18
I01
sg19
g71
sbsg12
I3
sg14
(imyEvolve
Tree
p85
(dp86
g7
(imyEvolve
Tree
p87
(dp88
g23
(imyEvolve
Tree
p89
(dp90
g12
I0
sg17
F1.6332381595393155
sg13
I01
sbsg12
I1
sg18
I01
sg19
g71
sbsg12
I2
sg14
(imyEvolve
Tree
p91
(dp92
g23
(imyEvolve
Tree
p93
(dp94
g12
I0
sg13
I00
sbsg12
I1
sg18
I01
sg19
g72
sbsg18
I00
sg19
g20
sbsg18
I00
sg19
g20
sbsg12
I4
sg14
(imyEvolve
Tree
p95
(dp96
g23
(imyEvolve
Tree
p97
(dp98
g7
(imyEvolve
Tree
p99
(dp100
g7
(imyEvolve
Tree
p101
(dp102
g12
I0
sg17
F4.8524345854550965
sg13
I01
sbsg12
I1
sg14
(imyEvolve
Tree
p103
(dp104
g12
I0
sg17
F0.8169634613320884
sg13
I01
sbsg18
I00
sg19
g27
sbsg12
I2
sg14
(imyEvolve
Tree
p105
(dp106
g23
(imyEvolve
Tree
p107
(dp108
g12
I0
sg13
I00
sbsg12
I1
sg18
I01
sg19
g72
sbsg18
I00
sg19
g56
sbsg12
I3
sg18
I01
sg19
g26
sbsg18
I00
sg19
g27
sbsg12
I5
sg18
I01
sg19
g72
sba(imyEvolve
Tree
p109
(dp110
g23
(imyEvolve
Tree
p111
(dp112
g23
(imyEvolve
Tree
p113
(dp114
g23
(imyEvolve
Tree
p115
(dp116
g23
(imyEvolve
Tree
p117
(dp118
g23
(imyEvolve
Tree
p119
(dp120
g12
I0
sg13
I00
sbsg12
I1
sg18
I01
sg19
g72
sbsg12
I2
sg18
I01
sg19
g72
sbsg12
I3
sg18
I01
sg19
g72
sbsg12
I4
sg18
I01
sg19
g72
sbsg12
I5
sg18
I01
sg19
cmath
cos
p121
sba(imyEvolve
Tree
p122
(dp123
g23
(imyEvolve
Tree
p124
(dp125
g12
I1
sg7
(imyEvolve
Tree
p126
(dp127
g12
I0
sg17
F-3.391404251225735
sg13
I01
sbsg14
(imyEvolve
Tree
p128
(dp129
g12
I0
sg17
F3.8251774891711996
sg13
I01
sbsg18
I00
sg19
g56
sbsg12
I2
sg18
I01
sg19
g71
sba(imyEvolve
Tree
p130
(dp131
g23
(imyEvolve
Tree
p132
(dp133
g7
(imyEvolve
Tree
p134
(dp135
g7
(imyEvolve
Tree
p136
(dp137
g7
(imyEvolve
Tree
p138
(dp139
g23
(imyEvolve
Tree
p140
(dp141
g12
I0
sg13
I00
sbsg12
I1
sg18
I01
sg19
g71
sbsg12
I2
sg14
(imyEvolve
Tree
p142
(dp143
g7
(imyEvolve
Tree
p144
(dp145
g12
I0
sg13
I00
sbsg12
I1
sg14
(imyEvolve
Tree
p146
(dp147
g12
I0
sg13
I00
sbsg18
I00
sg19
g20
sbsg18
I00
sg19
g56
sbsg12
I3
sg14
(imyEvolve
Tree
p148
(dp149
g23
(imyEvolve
Tree
p150
(dp151
g7
(imyEvolve
Tree
p152
(dp153
g12
I0
sg13
I00
sbsg12
I1
sg14
(imyEvolve
Tree
p154
(dp155
g12
I0
sg13
I00
sbsg18
I00
sg19
g20
sbsg12
I2
sg18
I01
sg19
g26
sbsg18
I00
sg19
g20
sbsg12
I4
sg14
(imyEvolve
Tree
p156
(dp157
g7
(imyEvolve
Tree
p158
(dp159
g7
(imyEvolve
Tree
p160
(dp161
g23
(imyEvolve
Tree
p162
(dp163
g12
I0
sg13
I00
sbsg12
I1
sg18
I01
sg19
g71
sbsg12
I2
sg14
(imyEvolve
Tree
p164
(dp165
g7
(imyEvolve
Tree
p166
(dp167
g12
I0
sg17
F4.123377740579109
sg13
I01
sbsg12
I1
sg14
(imyEvolve
Tree
p168
(dp169
g12
I0
sg13
I00
sbsg18
I00
sg19
g20
sbsg18
I00
sg19
g56
sbsg12
I3
sg14
(imyEvolve
Tree
p170
(dp171
g23
(imyEvolve
Tree
p172
(dp173
g23
(imyEvolve
Tree
p174
(dp175
g12
I0
sg13
I00
sbsg12
I1
sg18
I01
sg19
g72
sbsg12
I2
sg18
I01
sg19
g71
sbsg18
I00
sg19
g27
sbsg18
I00
sg19
g56
sbsg12
I5
sg18
I01
sg19
g72
sba(imyEvolve
Tree
p176
(dp177
g23
(imyEvolve
Tree
p178
(dp179
g7
(imyEvolve
Tree
p180
(dp181
g12
I0
sg13
I00
sbsg12
I1
sg14
(imyEvolve
Tree
p182
(dp183
g12
I0
sg17
F0.9239452318374255
sg13
I01
sbsg18
I00
sg19
g56
sbsg12
I2
sg18
I01
sg19
g71
sba(imyEvolve
Tree
p184
(dp185
g7
(imyEvolve
Tree
p186
(dp187
g23
(imyEvolve
Tree
p188
(dp189
g12
I0
sg17
F1.8904323632815911
sg13
I01
sbsg12
I1
sg18
I01
sg19
g121
sbsg12
I2
sg14
(imyEvolve
Tree
p190
(dp191
g7
(imyEvolve
Tree
p192
(dp193
g12
I0
sg13
I00
sbsg12
I1
sg14
(imyEvolve
Tree
p194
(dp195
g12
I0
sg17
F-3.6073730964514694
sg13
I01
sbsg18
I00
sg19
g27
sbsg18
I00
sg19
g27
sba(imyEvolve
Tree
p196
(dp197
g23
(imyEvolve
Tree
p198
(dp199
g23
(imyEvolve
Tree
p200
(dp201
g23
(imyEvolve
Tree
p202
(dp203
g23
(imyEvolve
Tree
p204
(dp205
g12
I0
sg17
F3.873136854693847
sg13
I01
sbsg12
I1
sg18
I01
sg19
g72
sbsg12
I2
sg18
I01
sg19
g72
sbsg12
I3
sg18
I01
sg19
g71
sbsg12
I4
sg18
I01
sg19
g121
sba(imyEvolve
Tree
p206
(dp207
g7
(imyEvolve
Tree
p208
(dp209
g7
(imyEvolve
Tree
p210
(dp211
g12
I0
sg13
I00
sbsg12
I1
sg14
(imyEvolve
Tree
p212
(dp213
g12
I0
sg17
F3.550381872075338
sg13
I01
sbsg18
I00
sg19
g56
sbsg12
I2
sg14
(imyEvolve
Tree
p214
(dp215
g7
(imyEvolve
Tree
p216
(dp217
g12
I0
sg13
I00
sbsg12
I1
sg14
(imyEvolve
Tree
p218
(dp219
g12
I0
sg17
F3.361405058196036
sg13
I01
sbsg18
I00
sg19
g20
sbsg18
I00
sg19
g27
sba(imyEvolve
Tree
p220
(dp221
g23
(imyEvolve
Tree
p222
(dp223
g23
(imyEvolve
Tree
p224
(dp225
g7
(imyEvolve
Tree
p226
(dp227
g12
I0
sg17
F0.9814768532098928
sg13
I01
sbsg12
I1
sg14
(imyEvolve
Tree
p228
(dp229
g12
I0
sg13
I00
sbsg18
I00
sg19
g56
sbsg12
I2
sg18
I01
sg19
g72
sbsg12
I3
sg18
I01
sg19
g121
sba(imyEvolve
Tree
p230
(dp231
g23
(imyEvolve
Tree
p232
(dp233
g12
I2
sg7
(imyEvolve
Tree
p234
(dp235
g23
(imyEvolve
Tree
p236
(dp237
g12
I0
sg17
F-3.4421908687203184
sg13
I01
sbsg12
I1
sg18
I01
sg19
g72
sbsg14
(imyEvolve
Tree
p238
(dp239
g23
(imyEvolve
Tree
p240
(dp241
g12
I0
sg13
I00
sbsg12
I1
sg18
I01
sg19
g71
sbsg18
I00
sg19
g20
sbsg12
I3
sg18
I01
sg19
g71
sba(imyEvolve
Tree
p242
(dp243
g23
(imyEvolve
Tree
p244
(dp245
g7
(imyEvolve
Tree
p246
(dp247
g23
(imyEvolve
Tree
p248
(dp249
g12
I0
sg13
I00
sbsg12
I1
sg18
I01
sg19
g26
sbsg12
I2
sg14
(imyEvolve
Tree
p250
(dp251
g7
(imyEvolve
Tree
p252
(dp253
g12
I0
sg13
I00
sbsg12
I1
sg14
(imyEvolve
Tree
p254
(dp255
g12
I0
sg13
I00
sbsg18
I00
sg19
g56
sbsg18
I00
sg19
g56
sbsg12
I3
sg18
I01
sg19
g71
sba(imyEvolve
Tree
p256
(dp257
g7
(imyEvolve
Tree
p258
(dp259
g7
(imyEvolve
Tree
p260
(dp261
g12
I0
sg17
F-2.6035793568859567
sg13
I01
sbsg12
I1
sg14
(imyEvolve
Tree
p262
(dp263
g12
I0
sg13
I00
sbsg18
I00
sg19
g20
sbsg12
I2
sg14
(imyEvolve
Tree
p264
(dp265
g7
(imyEvolve
Tree
p266
(dp267
g12
I0
sg13
I00
sbsg12
I1
sg14
(imyEvolve
Tree
p268
(dp269
g12
I0
sg13
I00
sbsg18
I00
sg19
g56
sbsg18
I00
sg19
g56
sba(imyEvolve
Tree
p270
(dp271
g23
(imyEvolve
Tree
p272
(dp273
g12
I4
sg7
(imyEvolve
Tree
p274
(dp275
g23
(imyEvolve
Tree
p276
(dp277
g12
I2
sg7
(imyEvolve
Tree
p278
(dp279
g12
I1
sg7
(imyEvolve
Tree
p280
(dp281
g12
I0
sg17
F-0.5133377983899701
sg13
I01
sbsg14
(imyEvolve
Tree
p282
(dp283
g12
I0
sg17
F4.48313316444842
sg13
I01
sbsg18
I00
sg19
g20
sbsg14
(imyEvolve
Tree
p284
(dp285
g12
I1
sg7
(imyEvolve
Tree
p286
(dp287
g12
I0
sg13
I00
sbsg14
(imyEvolve
Tree
p288
(dp289
g12
I0
sg17
F3.547053861269532
sg13
I01
sbsg18
I00
sg19
g56
sbsg18
I00
sg19
g27
sbsg12
I3
sg18
I01
sg19
g26
sbsg14
(imyEvolve
Tree
p290
(dp291
g12
I3
sg7
(imyEvolve
Tree
p292
(dp293
g12
I2
sg7
(imyEvolve
Tree
p294
(dp295
g12
I1
sg7
(imyEvolve
Tree
p296
(dp297
g12
I0
sg17
F2.862216401568345
sg13
I01
sbsg14
(imyEvolve
Tree
p298
(dp299
g12
I0
sg13
I00
sbsg18
I00
sg19
g27
sbsg14
(imyEvolve
Tree
p300
(dp301
g23
(imyEvolve
Tree
p302
(dp303
g12
I0
sg17
F-4.729582251195382
sg13
I01
sbsg12
I1
sg18
I01
sg19
g71
sbsg18
I00
sg19
g27
sbsg14
(imyEvolve
Tree
p304
(dp305
g12
I2
sg7
(imyEvolve
Tree
p306
(dp307
g23
(imyEvolve
Tree
p308
(dp309
g12
I0
sg13
I00
sbsg12
I1
sg18
I01
sg19
g71
sbsg14
(imyEvolve
Tree
p310
(dp311
g12
I1
sg7
(imyEvolve
Tree
p312
(dp313
g12
I0
sg13
I00
sbsg14
(imyEvolve
Tree
p314
(dp315
g12
I0
sg17
F0.9463686027616109
sg13
I01
sbsg18
I00
sg19
g27
sbsg18
I00
sg19
g27
sbsg18
I00
sg19
g56
sbsg18
I00
sg19
g56
sbsg12
I5
sg18
I01
sg19
g72
sba(imyEvolve
Tree
p316
(dp317
g7
(imyEvolve
Tree
p318
(dp319
g7
(imyEvolve
Tree
p320
(dp321
g23
(imyEvolve
Tree
p322
(dp323
g12
I0
sg17
F0.5779422017041131
sg13
I01
sbsg12
I1
sg18
I01
sg19
g26
sbsg12
I2
sg14
(imyEvolve
Tree
p324
(dp325
g23
(imyEvolve
Tree
p326
(dp327
g12
I0
sg17
F2.678372429347151
sg13
I01
sbsg12
I1
sg18
I01
sg19
g121
sbsg18
I00
sg19
g27
sbsg12
I3
sg14
(imyEvolve
Tree
p328
(dp329
g23
(imyEvolve
Tree
p330
(dp331
g7
(imyEvolve
Tree
p332
(dp333
g12
I0
sg17
F-3.7874997457824042
sg13
I01
sbsg12
I1
sg14
(imyEvolve
Tree
p334
(dp335
g12
I0
sg13
I00
sbsg18
I00
sg19
g20
sbsg12
I2
sg18
I01
sg19
g71
sbsg18
I00
sg19
g27
sba(imyEvolve
Tree
p336
(dp337
g23
(imyEvolve
Tree
p338
(dp339
g23
(imyEvolve
Tree
p340
(dp341
g23
(imyEvolve
Tree
p342
(dp343
g12
I0
sg13
I00
sbsg12
I1
sg18
I01
sg19
g72
sbsg12
I2
sg18
I01
sg19
g121
sbsg12
I3
sg18
I01
sg19
g26
sbaa(lp344
(imyEvolve
Tree
p345
(dp346
g23
(imyEvolve
Tree
p347
(dp348
g7
(imyEvolve
Tree
p349
(dp350
g7
(imyEvolve
Tree
p351
(dp352
g12
I0
sg13
I00
sbsg12
I1
sg14
(imyEvolve
Tree
p353
(dp354
g12
I0
sg13
I00
sbsg18
I00
sg19
g20
sbsg12
I2
sg14
(imyEvolve
Tree
p355
(dp356
g23
(imyEvolve
Tree
p357
(dp358
g12
I0
sg13
I00
sbsg12
I1
sg18
I01
sg19
g71
sbsg18
I00
sg19
g56
sbsg12
I3
sg18
I01
sg19
g72
sba(imyEvolve
Tree
p359
(dp360
g23
(imyEvolve
Tree
p361
(dp362
g7
(imyEvolve
Tree
p363
(dp364
g7
(imyEvolve
Tree
p365
(dp366
g23
(imyEvolve
Tree
p367
(dp368
g12
I0
sg13
I00
sbsg12
I1
sg18
I01
sg19
g72
sbsg12
I2
sg14
(imyEvolve
Tree
p369
(dp370
g23
(imyEvolve
Tree
p371
(dp372
g12
I0
sg13
I00
sbsg12
I1
sg18
I01
sg19
g71
sbsg18
I00
sg19
g20
sbsg12
I3
sg14
(imyEvolve
Tree
p373
(dp374
g7
(imyEvolve
Tree
p375
(dp376
g23
(imyEvolve
Tree
p377
(dp378
g12
I0
sg13
I00
sbsg12
I1
sg18
I01
sg19
g71
sbsg12
I2
sg14
(imyEvolve
Tree
p379
(dp380
g7
(imyEvolve
Tree
p381
(dp382
g12
I0
sg17
F-0.49695795130495135
sg13
I01
sbsg12
I1
sg14
(imyEvolve
Tree
p383
(dp384
g12
I0
sg13
I00
sbsg18
I00
sg19
g27
sbsg18
I00
sg19
g27
sbsg18
I00
sg19
g27
sbsg12
I4
sg18
I01
sg19
g71
sba(imyEvolve
Tree
p385
(dp386
g23
(imyEvolve
Tree
p387
(dp388
g12
I2
sg7
(imyEvolve
Tree
p389
(dp390
g12
I1
sg7
(imyEvolve
Tree
p391
(dp392
g12
I0
sg13
I00
sbsg14
(imyEvolve
Tree
p393
(dp394
g12
I0
sg17
F4.965917552021407
sg13
I01
sbsg18
I00
sg19
g20
sbsg14
(imyEvolve
Tree
p395
(dp396
g23
(imyEvolve
Tree
p397
(dp398
g12
I0
sg13
I00
sbsg12
I1
sg18
I01
sg19
g26
sbsg18
I00
sg19
g27
sbsg12
I3
sg18
I01
sg19
g26
sba(imyEvolve
Tree
p399
(dp400
g23
(imyEvolve
Tree
p401
(dp402
g23
(imyEvolve
Tree
p403
(dp404
g23
(imyEvolve
Tree
p405
(dp406
g12
I0
sg13
I00
sbsg12
I1
sg18
I01
sg19
g72
sbsg12
I2
sg18
I01
sg19
g72
sbsg12
I3
sg18
I01
sg19
g72
sba(imyEvolve
Tree
p407
(dp408
g7
(imyEvolve
Tree
p409
(dp410
g7
(imyEvolve
Tree
p411
(dp412
g23
(imyEvolve
Tree
p413
(dp414
g23
(imyEvolve
Tree
p415
(dp416
g12
I0
sg13
I00
sbsg12
I1
sg18
I01
sg19
g26
sbsg12
I2
sg18
I01
sg19
g72
sbsg12
I3
sg14
(imyEvolve
Tree
p417
(dp418
g23
(imyEvolve
Tree
p419
(dp420
g23
(imyEvolve
Tree
p421
(dp422
g12
I0
sg17
F1.0001772943947085
sg13
I01
sbsg12
I1
sg18
I01
sg19
g26
sbsg12
I2
sg18
I01
sg19
g121
sbsg18
I00
sg19
g20
sbsg12
I4
sg14
(imyEvolve
Tree
p423
(dp424
g7
(imyEvolve
Tree
p425
(dp426
g7
(imyEvolve
Tree
p427
(dp428
g7
(imyEvolve
Tree
p429
(dp430
g12
I0
sg13
I00
sbsg12
I1
sg14
(imyEvolve
Tree
p431
(dp432
g12
I0
sg17
F-4.020805249285849
sg13
I01
sbsg18
I00
sg19
g56
sbsg12
I2
sg14
(imyEvolve
Tree
p433
(dp434
g23
(imyEvolve
Tree
p435
(dp436
g12
I0
sg17
F1.3094354558865309
sg13
I01
sbsg12
I1
sg18
I01
sg19
g71
sbsg18
I00
sg19
g56
sbsg12
I3
sg14
(imyEvolve
Tree
p437
(dp438
g23
(imyEvolve
Tree
p439
(dp440
g7
(imyEvolve
Tree
p441
(dp442
g12
I0
sg17
F-3.0168504602466117
sg13
I01
sbsg12
I1
sg14
(imyEvolve
Tree
p443
(dp444
g12
I0
sg17
F0.044594014025860496
sg13
I01
sbsg18
I00
sg19
g27
sbsg12
I2
sg18
I01
sg19
g72
sbsg18
I00
sg19
g27
sbsg18
I00
sg19
g27
sba(imyEvolve
Tree
p445
(dp446
g7
(imyEvolve
Tree
p447
(dp448
g23
(imyEvolve
Tree
p449
(dp450
g7
(imyEvolve
Tree
p451
(dp452
g7
(imyEvolve
Tree
p453
(dp454
g23
(imyEvolve
Tree
p455
(dp456
g12
I0
sg17
F0.38583131141444227
sg13
I01
sbsg12
I1
sg18
I01
sg19
g26
sbsg12
I2
sg14
(imyEvolve
Tree
p457
(dp458
g23
(imyEvolve
Tree
p459
(dp460
g12
I0
sg13
I00
sbsg12
I1
sg18
I01
sg19
g26
sbsg18
I00
sg19
g27
sbsg12
I3
sg14
(imyEvolve
Tree
p461
(dp462
g23
(imyEvolve
Tree
p463
(dp464
g7
(imyEvolve
Tree
p465
(dp466
g12
I0
sg17
F-0.8731862397721022
sg13
I01
sbsg12
I1
sg14
(imyEvolve
Tree
p467
(dp468
g12
I0
sg17
F-4.286514828431801
sg13
I01
sbsg18
I00
sg19
g56
sbsg12
I2
sg18
I01
sg19
g72
sbsg18
I00
sg19
g27
sbsg12
I4
sg18
I01
sg19
g121
sbsg12
I5
sg14
(imyEvolve
Tree
p469
(dp470
g7
(imyEvolve
Tree
p471
(dp472
g23
(imyEvolve
Tree
p473
(dp474
g23
(imyEvolve
Tree
p475
(dp476
g7
(imyEvolve
Tree
p477
(dp478
g12
I0
sg13
I00
sbsg12
I1
sg14
(imyEvolve
Tree
p479
(dp480
g12
I0
sg13
I00
sbsg18
I00
sg19
g20
sbsg12
I2
sg18
I01
sg19
g71
sbsg12
I3
sg18
I01
sg19
g72
sbsg12
I4
sg14
(imyEvolve
Tree
p481
(dp482
g23
(imyEvolve
Tree
p483
(dp484
g23
(imyEvolve
Tree
p485
(dp486
g23
(imyEvolve
Tree
p487
(dp488
g12
I0
sg17
F-1.5287312355805058
sg13
I01
sbsg12
I1
sg18
I01
sg19
g71
sbsg12
I2
sg18
I01
sg19
g72
sbsg12
I3
sg18
I01
sg19
g26
sbsg18
I00
sg19
g20
sbsg18
I00
sg19
g20
sba(imyEvolve
Tree
p489
(dp490
g23
(imyEvolve
Tree
p491
(dp492
g23
(imyEvolve
Tree
p493
(dp494
g7
(imyEvolve
Tree
p495
(dp496
g23
(imyEvolve
Tree
p497
(dp498
g12
I0
sg13
I00
sbsg12
I1
sg18
I01
sg19
g71
sbsg12
I2
sg14
(imyEvolve
Tree
p499
(dp500
g7
(imyEvolve
Tree
p501
(dp502
g12
I0
sg17
F0.21891749674514482
sg13
I01
sbsg12
I1
sg14
(imyEvolve
Tree
p503
(dp504
g12
I0
sg13
I00
sbsg18
I00
sg19
g20
sbsg18
I00
sg19
g20
sbsg12
I3
sg18
I01
sg19
g72
sbsg12
I4
sg18
I01
sg19
g121
sba(imyEvolve
Tree
p505
(dp506
g7
(imyEvolve
Tree
p507
(dp508
g7
(imyEvolve
Tree
p509
(dp510
g7
(imyEvolve
Tree
p511
(dp512
g7
(imyEvolve
Tree
p513
(dp514
g23
(imyEvolve
Tree
p515
(dp516
g12
I0
sg13
I00
sbsg12
I1
sg18
I01
sg19
g121
sbsg12
I2
sg14
(imyEvolve
Tree
p517
(dp518
g7
(imyEvolve
Tree
p519
(dp520
g12
I0
sg17
F-2.4313487371588605
sg13
I01
sbsg12
I1
sg14
(imyEvolve
Tree
p521
(dp522
g12
I0
sg13
I00
sbsg18
I00
sg19
g56
sbsg18
I00
sg19
g27
sbsg12
I3
sg14
(imyEvolve
Tree
p523
(dp524
g23
(imyEvolve
Tree
p525
(dp526
g23
(imyEvolve
Tree
p527
(dp528
g12
I0
sg17
F3.4996965226884935
sg13
I01
sbsg12
I1
sg18
I01
sg19
g121
sbsg12
I2
sg18
I01
sg19
g72
sbsg18
I00
sg19
g27
sbsg12
I4
sg14
(imyEvolve
Tree
p529
(dp530
g7
(imyEvolve
Tree
p531
(dp532
g7
(imyEvolve
Tree
p533
(dp534
g7
(imyEvolve
Tree
p535
(dp536
g12
I0
sg17
F4.013411583442865
sg13
I01
sbsg12
I1
sg14
(imyEvolve
Tree
p537
(dp538
g12
I0
sg17
F3.9726934625172046
sg13
I01
sbsg18
I00
sg19
g56
sbsg12
I2
sg14
(imyEvolve
Tree
p539
(dp540
g23
(imyEvolve
Tree
p541
(dp542
g12
I0
sg13
I00
sbsg12
I1
sg18
I01
sg19
g71
sbsg18
I00
sg19
g56
sbsg12
I3
sg14
(imyEvolve
Tree
p543
(dp544
g23
(imyEvolve
Tree
p545
(dp546
g23
(imyEvolve
Tree
p547
(dp548
g12
I0
sg13
I00
sbsg12
I1
sg18
I01
sg19
g72
sbsg12
I2
sg18
I01
sg19
g72
sbsg18
I00
sg19
g56
sbsg18
I00
sg19
g27
sbsg12
I5
sg14
(imyEvolve
Tree
p549
(dp550
g23
(imyEvolve
Tree
p551
(dp552
g23
(imyEvolve
Tree
p553
(dp554
g7
(imyEvolve
Tree
p555
(dp556
g23
(imyEvolve
Tree
p557
(dp558
g12
I0
sg17
F-3.7524286904186734
sg13
I01
sbsg12
I1
sg18
I01
sg19
g26
sbsg12
I2
sg14
(imyEvolve
Tree
p559
(dp560
g7
(imyEvolve
Tree
p561
(dp562
g12
I0
sg17
F-0.27930409599080264
sg13
I01
sbsg12
I1
sg14
(imyEvolve
Tree
p563
(dp564
g12
I0
sg17
F3.4999535840451053
sg13
I01
sbsg18
I00
sg19
g20
sbsg18
I00
sg19
g56
sbsg12
I3
sg18
I01
sg19
g26
sbsg12
I4
sg18
I01
sg19
g121
sbsg18
I00
sg19
g56
sba(imyEvolve
Tree
p565
(dp566
g23
(imyEvolve
Tree
p567
(dp568
g23
(imyEvolve
Tree
p569
(dp570
g12
I0
sg13
I00
sbsg12
I1
sg18
I01
sg19
g71
sbsg12
I2
sg18
I01
sg19
g26
sba(imyEvolve
Tree
p571
(dp572
g23
(imyEvolve
Tree
p573
(dp574
g12
I4
sg7
(imyEvolve
Tree
p575
(dp576
g23
(imyEvolve
Tree
p577
(dp578
g23
(imyEvolve
Tree
p579
(dp580
g23
(imyEvolve
Tree
p581
(dp582
g12
I0
sg13
I00
sbsg12
I1
sg18
I01
sg19
g121
sbsg12
I2
sg18
I01
sg19
g71
sbsg12
I3
sg18
I01
sg19
g26
sbsg14
(imyEvolve
Tree
p583
(dp584
g12
I3
sg7
(imyEvolve
Tree
p585
(dp586
g23
(imyEvolve
Tree
p587
(dp588
g12
I1
sg7
(imyEvolve
Tree
p589
(dp590
g12
I0
sg13
I00
sbsg14
(imyEvolve
Tree
p591
(dp592
g12
I0
sg17
F-4.686966986099444
sg13
I01
sbsg18
I00
sg19
g56
sbsg12
I2
sg18
I01
sg19
g26
sbsg14
(imyEvolve
Tree
p593
(dp594
g23
(imyEvolve
Tree
p595
(dp596
g12
I1
sg7
(imyEvolve
Tree
p597
(dp598
g12
I0
sg17
F-0.47992776247404123
sg13
I01
sbsg14
(imyEvolve
Tree
p599
(dp600
g12
I0
sg17
F1.220167811014771
sg13
I01
sbsg18
I00
sg19
g56
sbsg12
I2
sg18
I01
sg19
g26
sbsg18
I00
sg19
g56
sbsg18
I00
sg19
g20
sbsg12
I5
sg18
I01
sg19
g71
sba(imyEvolve
Tree
p601
(dp602
g12
I4
sg7
(imyEvolve
Tree
p603
(dp604
g12
I3
sg7
(imyEvolve
Tree
p605
(dp606
g23
(imyEvolve
Tree
p607
(dp608
g23
(imyEvolve
Tree
p609
(dp610
g12
I0
sg13
I00
sbsg12
I1
sg18
I01
sg19
g71
sbsg12
I2
sg18
I01
sg19
g71
sbsg14
(imyEvolve
Tree
p611
(dp612
g23
(imyEvolve
Tree
p613
(dp614
g12
I1
sg7
(imyEvolve
Tree
p615
(dp616
g12
I0
sg13
I00
sbsg14
(imyEvolve
Tree
p617
(dp618
g12
I0
sg17
F1.1965801798275137
sg13
I01
sbsg18
I00
sg19
g20
sbsg12
I2
sg18
I01
sg19
g26
sbsg18
I00
sg19
g27
sbsg14
(imyEvolve
Tree
p619
(dp620
g23
(imyEvolve
Tree
p621
(dp622
g23
(imyEvolve
Tree
p623
(dp624
g12
I1
sg7
(imyEvolve
Tree
p625
(dp626
g12
I0
sg13
I00
sbsg14
(imyEvolve
Tree
p627
(dp628
g12
I0
sg17
F-3.0623312632062474
sg13
I01
sbsg18
I00
sg19
g56
sbsg12
I2
sg18
I01
sg19
g72
sbsg12
I3
sg18
I01
sg19
g71
sbsg18
I00
sg19
g27
sba(imyEvolve
Tree
p629
(dp630
g23
(imyEvolve
Tree
p631
(dp632
g23
(imyEvolve
Tree
p633
(dp634
g12
I0
sg17
F4.467544528962547
sg13
I01
sbsg12
I1
sg18
I01
sg19
g71
sbsg12
I2
sg18
I01
sg19
g71
sba(imyEvolve
Tree
p635
(dp636
g7
(imyEvolve
Tree
p637
(dp638
g23
(imyEvolve
Tree
p639
(dp640
g23
(imyEvolve
Tree
p641
(dp642
g7
(imyEvolve
Tree
p643
(dp644
g23
(imyEvolve
Tree
p645
(dp646
g12
I0
sg13
I00
sbsg12
I1
sg18
I01
sg19
g72
sbsg12
I2
sg14
(imyEvolve
Tree
p647
(dp648
g23
(imyEvolve
Tree
p649
(dp650
g12
I0
sg17
F-0.03294635525347367
sg13
I01
sbsg12
I1
sg18
I01
sg19
g26
sbsg18
I00
sg19
g56
sbsg12
I3
sg18
I01
sg19
g71
sbsg12
I4
sg18
I01
sg19
g26
sbsg12
I5
sg14
(imyEvolve
Tree
p651
(dp652
g7
(imyEvolve
Tree
p653
(dp654
g7
(imyEvolve
Tree
p655
(dp656
g7
(imyEvolve
Tree
p657
(dp658
g7
(imyEvolve
Tree
p659
(dp660
g12
I0
sg17
F3.5746065104116163
sg13
I01
sbsg12
I1
sg14
(imyEvolve
Tree
p661
(dp662
g12
I0
sg13
I00
sbsg18
I00
sg19
g20
sbsg12
I2
sg14
(imyEvolve
Tree
p663
(dp664
g23
(imyEvolve
Tree
p665
(dp666
g12
I0
sg17
F1.8914341788979359
sg13
I01
sbsg12
I1
sg18
I01
sg19
g71
sbsg18
I00
sg19
g56
sbsg12
I3
sg14
(imyEvolve
Tree
p667
(dp668
g23
(imyEvolve
Tree
p669
(dp670
g23
(imyEvolve
Tree
p671
(dp672
g12
I0
sg13
I00
sbsg12
I1
sg18
I01
sg19
g121
sbsg12
I2
sg18
I01
sg19
g121
sbsg18
I00
sg19
g20
sbsg12
I4
sg14
(imyEvolve
Tree
p673
(dp674
g7
(imyEvolve
Tree
p675
(dp676
g23
(imyEvolve
Tree
p677
(dp678
g7
(imyEvolve
Tree
p679
(dp680
g12
I0
sg17
F4.407086264078725
sg13
I01
sbsg12
I1
sg14
(imyEvolve
Tree
p681
(dp682
g12
I0
sg13
I00
sbsg18
I00
sg19
g20
sbsg12
I2
sg18
I01
sg19
g26
sbsg12
I3
sg14
(imyEvolve
Tree
p683
(dp684
g23
(imyEvolve
Tree
p685
(dp686
g7
(imyEvolve
Tree
p687
(dp688
g12
I0
sg13
I00
sbsg12
I1
sg14
(imyEvolve
Tree
p689
(dp690
g12
I0
sg13
I00
sbsg18
I00
sg19
g20
sbsg12
I2
sg18
I01
sg19
g121
sbsg18
I00
sg19
g20
sbsg18
I00
sg19
g27
sbsg18
I00
sg19
g27
sba(imyEvolve
Tree
p691
(dp692
g12
I5
sg7
(imyEvolve
Tree
p693
(dp694
g23
(imyEvolve
Tree
p695
(dp696
g12
I3
sg7
(imyEvolve
Tree
p697
(dp698
g23
(imyEvolve
Tree
p699
(dp700
g23
(imyEvolve
Tree
p701
(dp702
g12
I0
sg17
F-3.597955809048355
sg13
I01
sbsg12
I1
sg18
I01
sg19
g121
sbsg12
I2
sg18
I01
sg19
g121
sbsg14
(imyEvolve
Tree
p703
(dp704
g12
I2
sg7
(imyEvolve
Tree
p705
(dp706
g23
(imyEvolve
Tree
p707
(dp708
g12
I0
sg13
I00
sbsg12
I1
sg18
I01
sg19
g26
sbsg14
(imyEvolve
Tree
p709
(dp710
g23
(imyEvolve
Tree
p711
(dp712
g12
I0
sg17
F3.1843149924999175
sg13
I01
sbsg12
I1
sg18
I01
sg19
g72
sbsg18
I00
sg19
g27
sbsg18
I00
sg19
g20
sbsg12
I4
sg18
I01
sg19
g72
sbsg14
(imyEvolve
Tree
p713
(dp714
g23
(imyEvolve
Tree
p715
(dp716
g23
(imyEvolve
Tree
p717
(dp718
g23
(imyEvolve
Tree
p719
(dp720
g12
I1
sg7
(imyEvolve
Tree
p721
(dp722
g12
I0
sg13
I00
sbsg14
(imyEvolve
Tree
p723
(dp724
g12
I0
sg13
I00
sbsg18
I00
sg19
g56
sbsg12
I2
sg18
I01
sg19
g121
sbsg12
I3
sg18
I01
sg19
g26
sbsg12
I4
sg18
I01
sg19
g26
sbsg18
I00
sg19
g20
sba(imyEvolve
Tree
p725
(dp726
g23
(imyEvolve
Tree
p727
(dp728
g12
I2
sg7
(imyEvolve
Tree
p729
(dp730
g23
(imyEvolve
Tree
p731
(dp732
g12
I0
sg17
F-1.0121864059474817
sg13
I01
sbsg12
I1
sg18
I01
sg19
g121
sbsg14
(imyEvolve
Tree
p733
(dp734
g12
I1
sg7
(imyEvolve
Tree
p735
(dp736
g12
I0
sg13
I00
sbsg14
(imyEvolve
Tree
p737
(dp738
g12
I0
sg13
I00
sbsg18
I00
sg19
g27
sbsg18
I00
sg19
g56
sbsg12
I3
sg18
I01
sg19
g71
sba(imyEvolve
Tree
p739
(dp740
g23
(imyEvolve
Tree
p741
(dp742
g23
(imyEvolve
Tree
p743
(dp744
g23
(imyEvolve
Tree
p745
(dp746
g23
(imyEvolve
Tree
p747
(dp748
g23
(imyEvolve
Tree
p749
(dp750
g12
I0
sg17
F-2.1313570834525697
sg13
I01
sbsg12
I1
sg18
I01
sg19
g72
sbsg12
I2
sg18
I01
sg19
g121
sbsg12
I3
sg18
I01
sg19
g71
sbsg12
I4
sg18
I01
sg19
g26
sbsg12
I5
sg18
I01
sg19
g121
sba(imyEvolve
Tree
p751
(dp752
g12
I5
sg7
(imyEvolve
Tree
p753
(dp754
g23
(imyEvolve
Tree
p755
(dp756
g23
(imyEvolve
Tree
p757
(dp758
g12
I2
sg7
(imyEvolve
Tree
p759
(dp760
g12
I1
sg7
(imyEvolve
Tree
p761
(dp762
g12
I0
sg13
I00
sbsg14
(imyEvolve
Tree
p763
(dp764
g12
I0
sg13
I00
sbsg18
I00
sg19
g27
sbsg14
(imyEvolve
Tree
p765
(dp766
g23
(imyEvolve
Tree
p767
(dp768
g12
I0
sg13
I00
sbsg12
I1
sg18
I01
sg19
g72
sbsg18
I00
sg19
g27
sbsg12
I3
sg18
I01
sg19
g121
sbsg12
I4
sg18
I01
sg19
g72
sbsg14
(imyEvolve
Tree
p769
(dp770
g23
(imyEvolve
Tree
p771
(dp772
g12
I3
sg7
(imyEvolve
Tree
p773
(dp774
g12
I2
sg7
(imyEvolve
Tree
p775
(dp776
g23
(imyEvolve
Tree
p777
(dp778
g12
I0
sg13
I00
sbsg12
I1
sg18
I01
sg19
g71
sbsg14
(imyEvolve
Tree
p779
(dp780
g12
I1
sg7
(imyEvolve
Tree
p781
(dp782
g12
I0
sg17
F-4.395028568580407
sg13
I01
sbsg14
(imyEvolve
Tree
p783
(dp784
g12
I0
sg13
I00
sbsg18
I00
sg19
g56
sbsg18
I00
sg19
g27
sbsg14
(imyEvolve
Tree
p785
(dp786
g12
I2
sg7
(imyEvolve
Tree
p787
(dp788
g23
(imyEvolve
Tree
p789
(dp790
g12
I0
sg13
I00
sbsg12
I1
sg18
I01
sg19
g26
sbsg14
(imyEvolve
Tree
p791
(dp792
g12
I1
sg7
(imyEvolve
Tree
p793
(dp794
g12
I0
sg17
F3.5191264583902466
sg13
I01
sbsg14
(imyEvolve
Tree
p795
(dp796
g12
I0
sg17
F1.0827009074087757
sg13
I01
sbsg18
I00
sg19
g27
sbsg18
I00
sg19
g27
sbsg18
I00
sg19
g27
sbsg12
I4
sg18
I01
sg19
g71
sbsg18
I00
sg19
g20
sba(imyEvolve
Tree
p797
(dp798
g12
I4
sg7
(imyEvolve
Tree
p799
(dp800
g23
(imyEvolve
Tree
p801
(dp802
g12
I2
sg7
(imyEvolve
Tree
p803
(dp804
g12
I1
sg7
(imyEvolve
Tree
p805
(dp806
g12
I0
sg13
I00
sbsg14
(imyEvolve
Tree
p807
(dp808
g12
I0
sg17
F-4.324058742906233
sg13
I01
sbsg18
I00
sg19
g20
sbsg14
(imyEvolve
Tree
p809
(dp810
g23
(imyEvolve
Tree
p811
(dp812
g12
I0
sg17
F-1.0783440078548012
sg13
I01
sbsg12
I1
sg18
I01
sg19
g121
sbsg18
I00
sg19
g20
sbsg12
I3
sg18
I01
sg19
g26
sbsg14
(imyEvolve
Tree
p813
(dp814
g12
I3
sg7
(imyEvolve
Tree
p815
(dp816
g12
I2
sg7
(imyEvolve
Tree
p817
(dp818
g23
(imyEvolve
Tree
p819
(dp820
g12
I0
sg17
F4.78025589450897
sg13
I01
sbsg12
I1
sg18
I01
sg19
g72
sbsg14
(imyEvolve
Tree
p821
(dp822
g23
(imyEvolve
Tree
p823
(dp824
g12
I0
sg13
I00
sbsg12
I1
sg18
I01
sg19
g121
sbsg18
I00
sg19
g20
sbsg14
(imyEvolve
Tree
p825
(dp826
g12
I2
sg7
(imyEvolve
Tree
p827
(dp828
g12
I1
sg7
(imyEvolve
Tree
p829
(dp830
g12
I0
sg17
F4.151145194720685
sg13
I01
sbsg14
(imyEvolve
Tree
p831
(dp832
g12
I0
sg17
F1.3444154309477891
sg13
I01
sbsg18
I00
sg19
g20
sbsg14
(imyEvolve
Tree
p833
(dp834
g23
(imyEvolve
Tree
p835
(dp836
g12
I0
sg13
I00
sbsg12
I1
sg18
I01
sg19
g71
sbsg18
I00
sg19
g20
sbsg18
I00
sg19
g56
sbsg18
I00
sg19
g20
sbaasS'alpha'
p837
F0.0025506773862888268
sS'fitness'
p838
cnumpy.core.multiarray
scalar
p839
(cnumpy
dtype
p840
(S'f8'
p841
I0
I1
tp842
Rp843
(I3
S'<'
p844
NNNI-1
I-1
I0
tp845
bS'\xee\xeb\xc0%u\x1e\xe6?'
p846
tp847
Rp848
sS'weightSharing'
p849
(lp850
I00
asS'fitnessValid'
p851
I00
sS'resolution'
p852
I74
sb.