(imyEvolve
Individual
p0
(dp1
S'funcs'
p2
(lp3
(lp4
(imyEvolve
Tree
p5
(dp6
S'left'
p7
(imyEvolve
Tree
p8
(dp9
g7
(imyEvolve
Tree
p10
(dp11
g7
(imyEvolve
Tree
p12
(dp13
S'below'
p14
(imyEvolve
Tree
p15
(dp16
S'depth'
p17
I0
sS'constant'
p18
F-4.4590358592361135
sS'isConstant'
p19
I01
sbsg17
I1
sS'single'
p20
I01
sS'op'
p21
cmath
sin
p22
sbsg17
I2
sS'right'
p23
(imyEvolve
Tree
p24
(dp25
g14
(imyEvolve
Tree
p26
(dp27
g17
I0
sg18
F-3.8868358677178003
sg19
I01
sbsg17
I1
sg20
I01
sg21
g22
sbsg20
I00
sg21
coperator
sub
p28
sbsg17
I3
sg23
(imyEvolve
Tree
p29
(dp30
g7
(imyEvolve
Tree
p31
(dp32
g14
(imyEvolve
Tree
p33
(dp34
g17
I0
sg19
I00
sbsg17
I1
sg20
I01
sg21
cmyEvolve
absSqrt
p35
sbsg17
I2
sg23
(imyEvolve
Tree
p36
(dp37
g7
(imyEvolve
Tree
p38
(dp39
g17
I0
sg18
F-0.724028644863516
sg19
I01
sbsg17
I1
sg23
(imyEvolve
Tree
p40
(dp41
g17
I0
sg18
F-4.484443587158648
sg19
I01
sbsg20
I00
sg21
coperator
add
p42
sbsg20
I00
sg21
g28
sbsg20
I00
sg21
coperator
mul
p43
sbsg17
I4
sg23
(imyEvolve
Tree
p44
(dp45
g7
(imyEvolve
Tree
p46
(dp47
g7
(imyEvolve
Tree
p48
(dp49
g7
(imyEvolve
Tree
p50
(dp51
g17
I0
sg18
F0.9673238546036531
sg19
I01
sbsg17
I1
sg23
(imyEvolve
Tree
p52
(dp53
g17
I0
sg19
I00
sbsg20
I00
sg21
g28
sbsg17
I2
sg23
(imyEvolve
Tree
p54
(dp55
g14
(imyEvolve
Tree
p56
(dp57
g17
I0
sg18
F-2.290018084195787
sg19
I01
sbsg17
I1
sg20
I01
sg21
g22
sbsg20
I00
sg21
g43
sbsg17
I3
sg23
(imyEvolve
Tree
p58
(dp59
g7
(imyEvolve
Tree
p60
(dp61
g14
(imyEvolve
Tree
p62
(dp63
g17
I0
sg18
F3.5812980826667093
sg19
I01
sbsg17
I1
sg20
I01
sg21
g22
sbsg17
I2
sg23
(imyEvolve
Tree
p64
(dp65
g14
(imyEvolve
Tree
p66
(dp67
g17
I0
sg18
F-4.775513033527141
sg19
I01
sbsg17
I1
sg20
I01
sg21
g35
sbsg20
I00
sg21
g43
sbsg20
I00
sg21
g28
sbsg20
I00
sg21
g42
sba(imyEvolve
Tree
p68
(dp69
g7
(imyEvolve
Tree
p70
(dp71
g7
(imyEvolve
Tree
p72
(dp73
g7
(imyEvolve
Tree
p74
(dp75
g14
(imyEvolve
Tree
p76
(dp77
g17
I0
sg18
F-0.914423459473146
sg19
I01
sbsg17
I1
sg20
I01
sg21
cmyEvolve
square
p78
sbsg17
I2
sg23
(imyEvolve
Tree
p79
(dp80
g7
(imyEvolve
Tree
p81
(dp82
g17
I0
sg19
I00
sbsg17
I1
sg23
(imyEvolve
Tree
p83
(dp84
g17
I0
sg19
I00
sbsg20
I00
sg21
g43
sbsg20
I00
sg21
g42
sbsg17
I3
sg23
(imyEvolve
Tree
p85
(dp86
g14
(imyEvolve
Tree
p87
(dp88
g7
(imyEvolve
Tree
p89
(dp90
g17
I0
sg19
I00
sbsg17
I1
sg23
(imyEvolve
Tree
p91
(dp92
g17
I0
sg19
I00
sbsg20
I00
sg21
g43
sbsg17
I2
sg20
I01
sg21
cmath
cos
p93
sbsg20
I00
sg21
g43
sbsg17
I4
sg23
(imyEvolve
Tree
p94
(dp95
g7
(imyEvolve
Tree
p96
(dp97
g14
(imyEvolve
Tree
p98
(dp99
g7
(imyEvolve
Tree
p100
(dp101
g17
I0
sg19
I00
sbsg17
I1
sg23
(imyEvolve
Tree
p102
(dp103
g17
I0
sg18
F2.321667585241106
sg19
I01
sbsg20
I00
sg21
g43
sbsg17
I2
sg20
I01
sg21
g22
sbsg17
I3
sg23
(imyEvolve
Tree
p104
(dp105
g14
(imyEvolve
Tree
p106
(dp107
g7
(imyEvolve
Tree
p108
(dp109
g17
I0
sg19
I00
sbsg17
I1
sg23
(imyEvolve
Tree
p110
(dp111
g17
I0
sg19
I00
sbsg20
I00
sg21
g43
sbsg17
I2
sg20
I01
sg21
g78
sbsg20
I00
sg21
g42
sbsg20
I00
sg21
g28
sba(imyEvolve
Tree
p112
(dp113
g17
I5
sg7
(imyEvolve
Tree
p114
(dp115
g17
I4
sg7
(imyEvolve
Tree
p116
(dp117
g17
I3
sg7
(imyEvolve
Tree
p118
(dp119
g14
(imyEvolve
Tree
p120
(dp121
g17
I1
sg7
(imyEvolve
Tree
p122
(dp123
g17
I0
sg19
I00
sbsg23
(imyEvolve
Tree
p124
(dp125
g17
I0
sg19
I00
sbsg20
I00
sg21
g28
sbsg17
I2
sg20
I01
sg21
g93
sbsg23
(imyEvolve
Tree
p126
(dp127
g14
(imyEvolve
Tree
p128
(dp129
g17
I1
sg7
(imyEvolve
Tree
p130
(dp131
g17
I0
sg18
F1.1192983649703336
sg19
I01
sbsg23
(imyEvolve
Tree
p132
(dp133
g17
I0
sg18
F-0.3781743476103969
sg19
I01
sbsg20
I00
sg21
g42
sbsg17
I2
sg20
I01
sg21
g22
sbsg20
I00
sg21
g42
sbsg23
(imyEvolve
Tree
p134
(dp135
g17
I3
sg7
(imyEvolve
Tree
p136
(dp137
g17
I2
sg7
(imyEvolve
Tree
p138
(dp139
g14
(imyEvolve
Tree
p140
(dp141
g17
I0
sg19
I00
sbsg17
I1
sg20
I01
sg21
g35
sbsg23
(imyEvolve
Tree
p142
(dp143
g14
(imyEvolve
Tree
p144
(dp145
g17
I0
sg18
F-2.9449639522738935
sg19
I01
sbsg17
I1
sg20
I01
sg21
g35
sbsg20
I00
sg21
g43
sbsg23
(imyEvolve
Tree
p146
(dp147
g14
(imyEvolve
Tree
p148
(dp149
g14
(imyEvolve
Tree
p150
(dp151
g17
I0
sg18
F-4.6991007314152515
sg19
I01
sbsg17
I1
sg20
I01
sg21
g22
sbsg17
I2
sg20
I01
sg21
g35
sbsg20
I00
sg21
g42
sbsg20
I00
sg21
g43
sbsg23
(imyEvolve
Tree
p152
(dp153
g17
I4
sg7
(imyEvolve
Tree
p154
(dp155
g17
I3
sg7
(imyEvolve
Tree
p156
(dp157
g17
I2
sg7
(imyEvolve
Tree
p158
(dp159
g14
(imyEvolve
Tree
p160
(dp161
g17
I0
sg19
I00
sbsg17
I1
sg20
I01
sg21
g78
sbsg23
(imyEvolve
Tree
p162
(dp163
g17
I1
sg7
(imyEvolve
Tree
p164
(dp165
g17
I0
sg19
I00
sbsg23
(imyEvolve
Tree
p166
(dp167
g17
I0
sg18
F-3.078150973705368
sg19
I01
sbsg20
I00
sg21
g28
sbsg20
I00
sg21
g43
sbsg23
(imyEvolve
Tree
p168
(dp169
g17
I2
sg7
(imyEvolve
Tree
p170
(dp171
g17
I1
sg7
(imyEvolve
Tree
p172
(dp173
g17
I0
sg18
F0.31199209419587426
sg19
I01
sbsg23
(imyEvolve
Tree
p174
(dp175
g17
I0
sg19
I00
sbsg20
I00
sg21
g43
sbsg23
(imyEvolve
Tree
p176
(dp177
g14
(imyEvolve
Tree
p178
(dp179
g17
I0
sg19
I00
sbsg17
I1
sg20
I01
sg21
g22
sbsg20
I00
sg21
g28
sbsg20
I00
sg21
g28
sbsg23
(imyEvolve
Tree
p180
(dp181
g14
(imyEvolve
Tree
p182
(dp183
g17
I2
sg7
(imyEvolve
Tree
p184
(dp185
g14
(imyEvolve
Tree
p186
(dp187
g17
I0
sg18
F-4.099289885703983
sg19
I01
sbsg17
I1
sg20
I01
sg21
g35
sbsg23
(imyEvolve
Tree
p188
(dp189
g17
I1
sg7
(imyEvolve
Tree
p190
(dp191
g17
I0
sg18
F-1.3400870016637914
sg19
I01
sbsg23
(imyEvolve
Tree
p192
(dp193
g17
I0
sg18
F2.3419003432968246
sg19
I01
sbsg20
I00
sg21
g28
sbsg20
I00
sg21
g28
sbsg17
I3
sg20
I01
sg21
g93
sbsg20
I00
sg21
g43
sbsg20
I00
sg21
g43
sba(imyEvolve
Tree
p194
(dp195
g17
I3
sg7
(imyEvolve
Tree
p196
(dp197
g14
(imyEvolve
Tree
p198
(dp199
g14
(imyEvolve
Tree
p200
(dp201
g17
I0
sg18
F4.2510735257270085
sg19
I01
sbsg17
I1
sg20
I01
sg21
g35
sbsg17
I2
sg20
I01
sg21
g78
sbsg23
(imyEvolve
Tree
p202
(dp203
g17
I2
sg7
(imyEvolve
Tree
p204
(dp205
g17
I1
sg7
(imyEvolve
Tree
p206
(dp207
g17
I0
sg19
I00
sbsg23
(imyEvolve
Tree
p208
(dp209
g17
I0
sg18
F-1.1241065580269005
sg19
I01
sbsg20
I00
sg21
g42
sbsg23
(imyEvolve
Tree
p210
(dp211
g14
(imyEvolve
Tree
p212
(dp213
g17
I0
sg19
I00
sbsg17
I1
sg20
I01
sg21
g78
sbsg20
I00
sg21
g28
sbsg20
I00
sg21
g43
sba(imyEvolve
Tree
p214
(dp215
g14
(imyEvolve
Tree
p216
(dp217
g14
(imyEvolve
Tree
p218
(dp219
g14
(imyEvolve
Tree
p220
(dp221
g7
(imyEvolve
Tree
p222
(dp223
g14
(imyEvolve
Tree
p224
(dp225
g17
I0
sg19
I00
sbsg17
I1
sg20
I01
sg21
g22
sbsg17
I2
sg23
(imyEvolve
Tree
p226
(dp227
g7
(imyEvolve
Tree
p228
(dp229
g17
I0
sg19
I00
sbsg17
I1
sg23
(imyEvolve
Tree
p230
(dp231
g17
I0
sg18
F-4.766103049801055
sg19
I01
sbsg20
I00
sg21
g28
sbsg20
I00
sg21
g43
sbsg17
I3
sg20
I01
sg21
g35
sbsg17
I4
sg20
I01
sg21
g78
sbsg17
I5
sg20
I01
sg21
g93
sba(imyEvolve
Tree
p232
(dp233
g7
(imyEvolve
Tree
p234
(dp235
g14
(imyEvolve
Tree
p236
(dp237
g14
(imyEvolve
Tree
p238
(dp239
g17
I0
sg19
I00
sbsg17
I1
sg20
I01
sg21
g78
sbsg17
I2
sg20
I01
sg21
g22
sbsg17
I3
sg23
(imyEvolve
Tree
p240
(dp241
g14
(imyEvolve
Tree
p242
(dp243
g7
(imyEvolve
Tree
p244
(dp245
g17
I0
sg18
F-3.763745197392746
sg19
I01
sbsg17
I1
sg23
(imyEvolve
Tree
p246
(dp247
g17
I0
sg19
I00
sbsg20
I00
sg21
g42
sbsg17
I2
sg20
I01
sg21
g22
sbsg20
I00
sg21
g42
sba(imyEvolve
Tree
p248
(dp249
g14
(imyEvolve
Tree
p250
(dp251
g7
(imyEvolve
Tree
p252
(dp253
g7
(imyEvolve
Tree
p254
(dp255
g17
I0
sg19
I00
sbsg17
I1
sg23
(imyEvolve
Tree
p256
(dp257
g17
I0
sg18
F-0.0749424781434147
sg19
I01
sbsg20
I00
sg21
g28
sbsg17
I2
sg23
(imyEvolve
Tree
p258
(dp259
g7
(imyEvolve
Tree
p260
(dp261
g17
I0
sg18
F4.875160664368265
sg19
I01
sbsg17
I1
sg23
(imyEvolve
Tree
p262
(dp263
g17
I0
sg19
I00
sbsg20
I00
sg21
g42
sbsg20
I00
sg21
g28
sbsg17
I3
sg20
I01
sg21
g22
sba(imyEvolve
Tree
p264
(dp265
g17
I5
sg7
(imyEvolve
Tree
p266
(dp267
g14
(imyEvolve
Tree
p268
(dp269
g14
(imyEvolve
Tree
p270
(dp271
g14
(imyEvolve
Tree
p272
(dp273
g14
(imyEvolve
Tree
p274
(dp275
g17
I0
sg18
F-0.9066857586949428
sg19
I01
sbsg17
I1
sg20
I01
sg21
g22
sbsg17
I2
sg20
I01
sg21
g93
sbsg17
I3
sg20
I01
sg21
g22
sbsg17
I4
sg20
I01
sg21
g93
sbsg23
(imyEvolve
Tree
p276
(dp277
g14
(imyEvolve
Tree
p278
(dp279
g17
I3
sg7
(imyEvolve
Tree
p280
(dp281
g14
(imyEvolve
Tree
p282
(dp283
g14
(imyEvolve
Tree
p284
(dp285
g17
I0
sg18
F-0.1130964824705103
sg19
I01
sbsg17
I1
sg20
I01
sg21
g93
sbsg17
I2
sg20
I01
sg21
g35
sbsg23
(imyEvolve
Tree
p286
(dp287
g17
I2
sg7
(imyEvolve
Tree
p288
(dp289
g14
(imyEvolve
Tree
p290
(dp291
g17
I0
sg18
F4.926697815165419
sg19
I01
sbsg17
I1
sg20
I01
sg21
g22
sbsg23
(imyEvolve
Tree
p292
(dp293
g14
(imyEvolve
Tree
p294
(dp295
g17
I0
sg18
F-4.404740790414091
sg19
I01
sbsg17
I1
sg20
I01
sg21
g22
sbsg20
I00
sg21
g28
sbsg20
I00
sg21
g43
sbsg17
I4
sg20
I01
sg21
g22
sbsg20
I00
sg21
g28
sba(imyEvolve
Tree
p296
(dp297
g7
(imyEvolve
Tree
p298
(dp299
g7
(imyEvolve
Tree
p300
(dp301
g17
I0
sg18
F-0.8599608241347321
sg19
I01
sbsg17
I1
sg23
(imyEvolve
Tree
p302
(dp303
g17
I0
sg18
F-2.8794523240010372
sg19
I01
sbsg20
I00
sg21
g28
sbsg17
I2
sg23
(imyEvolve
Tree
p304
(dp305
g14
(imyEvolve
Tree
p306
(dp307
g17
I0
sg19
I00
sbsg17
I1
sg20
I01
sg21
g35
sbsg20
I00
sg21
g28
sba(imyEvolve
Tree
p308
(dp309
g14
(imyEvolve
Tree
p310
(dp311
g17
I3
sg7
(imyEvolve
Tree
p312
(dp313
g17
I2
sg7
(imyEvolve
Tree
p314
(dp315
g17
I1
sg7
(imyEvolve
Tree
p316
(dp317
g17
I0
sg19
I00
sbsg23
(imyEvolve
Tree
p318
(dp319
g17
I0
sg18
F-2.9666840026255725
sg19
I01
sbsg20
I00
sg21
g43
sbsg23
(imyEvolve
Tree
p320
(dp321
g14
(imyEvolve
Tree
p322
(dp323
g17
I0
sg18
F-0.8825445518469355
sg19
I01
sbsg17
I1
sg20
I01
sg21
g93
sbsg20
I00
sg21
g42
sbsg23
(imyEvolve
Tree
p324
(dp325
g14
(imyEvolve
Tree
p326
(dp327
g14
(imyEvolve
Tree
p328
(dp329
g17
I0
sg19
I00
sbsg17
I1
sg20
I01
sg21
g22
sbsg17
I2
sg20
I01
sg21
g35
sbsg20
I00
sg21
g42
sbsg17
I4
sg20
I01
sg21
g22
sba(imyEvolve
Tree
p330
(dp331
g14
(imyEvolve
Tree
p332
(dp333
g7
(imyEvolve
Tree
p334
(dp335
g14
(imyEvolve
Tree
p336
(dp337
g7
(imyEvolve
Tree
p338
(dp339
g7
(imyEvolve
Tree
p340
(dp341
g17
I0
sg19
I00
sbsg17
I1
sg23
(imyEvolve
Tree
p342
(dp343
g17
I0
sg18
F-0.06953895828225054
sg19
I01
sbsg20
I00
sg21
g28
sbsg17
I2
sg23
(imyEvolve
Tree
p344
(dp345
g14
(imyEvolve
Tree
p346
(dp347
g17
I0
sg19
I00
sbsg17
I1
sg20
I01
sg21
g22
sbsg20
I00
sg21
g43
sbsg17
I3
sg20
I01
sg21
g78
sbsg17
I4
sg23
(imyEvolve
Tree
p348
(dp349
g14
(imyEvolve
Tree
p350
(dp351
g7
(imyEvolve
Tree
p352
(dp353
g7
(imyEvolve
Tree
p354
(dp355
g17
I0
sg18
F2.48718777464293
sg19
I01
sbsg17
I1
sg23
(imyEvolve
Tree
p356
(dp357
g17
I0
sg18
F2.208156005380709
sg19
I01
sbsg20
I00
sg21
g42
sbsg17
I2
sg23
(imyEvolve
Tree
p358
(dp359
g14
(imyEvolve
Tree
p360
(dp361
g17
I0
sg18
F-1.8756103928723844
sg19
I01
sbsg17
I1
sg20
I01
sg21
g35
sbsg20
I00
sg21
g28
sbsg17
I3
sg20
I01
sg21
g93
sbsg20
I00
sg21
g43
sbsg17
I5
sg20
I01
sg21
g93
sba(imyEvolve
Tree
p362
(dp363
g17
I3
sg7
(imyEvolve
Tree
p364
(dp365
g14
(imyEvolve
Tree
p366
(dp367
g14
(imyEvolve
Tree
p368
(dp369
g17
I0
sg19
I00
sbsg17
I1
sg20
I01
sg21
g78
sbsg17
I2
sg20
I01
sg21
g22
sbsg23
(imyEvolve
Tree
p370
(dp371
g14
(imyEvolve
Tree
p372
(dp373
g17
I1
sg7
(imyEvolve
Tree
p374
(dp375
g17
I0
sg19
I00
sbsg23
(imyEvolve
Tree
p376
(dp377
g17
I0
sg18
F2.846540141740542
sg19
I01
sbsg20
I00
sg21
g28
sbsg17
I2
sg20
I01
sg21
g35
sbsg20
I00
sg21
g43
sba(imyEvolve
Tree
p378
(dp379
g14
(imyEvolve
Tree
p380
(dp381
g17
I3
sg7
(imyEvolve
Tree
p382
(dp383
g17
I2
sg7
(imyEvolve
Tree
p384
(dp385
g14
(imyEvolve
Tree
p386
(dp387
g17
I0
sg19
I00
sbsg17
I1
sg20
I01
sg21
g78
sbsg23
(imyEvolve
Tree
p388
(dp389
g17
I1
sg7
(imyEvolve
Tree
p390
(dp391
g17
I0
sg19
I00
sbsg23
(imyEvolve
Tree
p392
(dp393
g17
I0
sg19
I00
sbsg20
I00
sg21
g43
sbsg20
I00
sg21
g42
sbsg23
(imyEvolve
Tree
p394
(dp395
g14
(imyEvolve
Tree
p396
(dp397
g17
I1
sg7
(imyEvolve
Tree
p398
(dp399
g17
I0
sg19
I00
sbsg23
(imyEvolve
Tree
p400
(dp401
g17
I0
sg19
I00
sbsg20
I00
sg21
g42
sbsg17
I2
sg20
I01
sg21
g93
sbsg20
I00
sg21
g28
sbsg17
I4
sg20
I01
sg21
g22
sba(imyEvolve
Tree
p402
(dp403
g17
I4
sg7
(imyEvolve
Tree
p404
(dp405
g17
I3
sg7
(imyEvolve
Tree
p406
(dp407
g17
I2
sg7
(imyEvolve
Tree
p408
(dp409
g14
(imyEvolve
Tree
p410
(dp411
g17
I0
sg19
I00
sbsg17
I1
sg20
I01
sg21
g78
sbsg23
(imyEvolve
Tree
p412
(dp413
g17
I1
sg7
(imyEvolve
Tree
p414
(dp415
g17
I0
sg19
I00
sbsg23
(imyEvolve
Tree
p416
(dp417
g17
I0
sg19
I00
sbsg20
I00
sg21
g43
sbsg20
I00
sg21
g28
sbsg23
(imyEvolve
Tree
p418
(dp419
g17
I2
sg7
(imyEvolve
Tree
p420
(dp421
g17
I1
sg7
(imyEvolve
Tree
p422
(dp423
g17
I0
sg18
F-1.0281022765690375
sg19
I01
sbsg23
(imyEvolve
Tree
p424
(dp425
g17
I0
sg18
F3.9501679857901824
sg19
I01
sbsg20
I00
sg21
g28
sbsg23
(imyEvolve
Tree
p426
(dp427
g17
I1
sg7
(imyEvolve
Tree
p428
(dp429
g17
I0
sg18
F-2.5806083785498557
sg19
I01
sbsg23
(imyEvolve
Tree
p430
(dp431
g17
I0
sg19
I00
sbsg20
I00
sg21
g43
sbsg20
I00
sg21
g43
sbsg20
I00
sg21
g28
sbsg23
(imyEvolve
Tree
p432
(dp433
g14
(imyEvolve
Tree
p434
(dp435
g17
I2
sg7
(imyEvolve
Tree
p436
(dp437
g17
I1
sg7
(imyEvolve
Tree
p438
(dp439
g17
I0
sg19
I00
sbsg23
(imyEvolve
Tree
p440
(dp441
g17
I0
sg18
F-2.085609081484141
sg19
I01
sbsg20
I00
sg21
g28
sbsg23
(imyEvolve
Tree
p442
(dp443
g14
(imyEvolve
Tree
p444
(dp445
g17
I0
sg18
F2.608195652300406
sg19
I01
sbsg17
I1
sg20
I01
sg21
g93
sbsg20
I00
sg21
g28
sbsg17
I3
sg20
I01
sg21
g93
sbsg20
I00
sg21
g43
sba(imyEvolve
Tree
p446
(dp447
g14
(imyEvolve
Tree
p448
(dp449
g14
(imyEvolve
Tree
p450
(dp451
g14
(imyEvolve
Tree
p452
(dp453
g14
(imyEvolve
Tree
p454
(dp455
g17
I0
sg19
I00
sbsg17
I1
sg20
I01
sg21
g78
sbsg17
I2
sg20
I01
sg21
g93
sbsg17
I3
sg20
I01
sg21
g35
sbsg17
I4
sg20
I01
sg21
g93
sbaa(lp456
(imyEvolve
Tree
p457
(dp458
g17
I2
sg7
(imyEvolve
Tree
p459
(dp460
g17
I1
sg7
(imyEvolve
Tree
p461
(dp462
g17
I0
sg18
F-3.1995021557642023
sg19
I01
sbsg23
(imyEvolve
Tree
p463
(dp464
g17
I0
sg18
F0.3574072381379665
sg19
I01
sbsg20
I00
sg21
g28
sbsg23
(imyEvolve
Tree
p465
(dp466
g17
I1
sg7
(imyEvolve
Tree
p467
(dp468
g17
I0
sg18
F-1.5897231946430157
sg19
I01
sbsg23
(imyEvolve
Tree
p469
(dp470
g17
I0
sg18
F-4.811742540494888
sg19
I01
sbsg20
I00
sg21
g43
sbsg20
I00
sg21
g42
sba(imyEvolve
Tree
p471
(dp472
g14
(imyEvolve
Tree
p473
(dp474
g14
(imyEvolve
Tree
p475
(dp476
g17
I0
sg18
F4.321177834217041
sg19
I01
sbsg17
I1
sg20
I01
sg21
g22
sbsg17
I2
sg20
I01
sg21
g93
sba(imyEvolve
Tree
p477
(dp478
g14
(imyEvolve
Tree
p479
(dp480
g7
(imyEvolve
Tree
p481
(dp482
g14
(imyEvolve
Tree
p483
(dp484
g14
(imyEvolve
Tree
p485
(dp486
g17
I0
sg19
I00
sbsg17
I1
sg20
I01
sg21
g22
sbsg17
I2
sg20
I01
sg21
g78
sbsg17
I3
sg23
(imyEvolve
Tree
p487
(dp488
g14
(imyEvolve
Tree
p489
(dp490
g14
(imyEvolve
Tree
p491
(dp492
g17
I0
sg19
I00
sbsg17
I1
sg20
I01
sg21
g35
sbsg17
I2
sg20
I01
sg21
g22
sbsg20
I00
sg21
g43
sbsg17
I4
sg20
I01
sg21
g35
sba(imyEvolve
Tree
p493
(dp494
g14
(imyEvolve
Tree
p495
(dp496
g7
(imyEvolve
Tree
p497
(dp498
g14
(imyEvolve
Tree
p499
(dp500
g7
(imyEvolve
Tree
p501
(dp502
g7
(imyEvolve
Tree
p503
(dp504
g17
I0
sg18
F4.501624481026063
sg19
I01
sbsg17
I1
sg23
(imyEvolve
Tree
p505
(dp506
g17
I0
sg18
F1.3137790738959847
sg19
I01
sbsg20
I00
sg21
g43
sbsg17
I2
sg23
(imyEvolve
Tree
p507
(dp508
g7
(imyEvolve
Tree
p509
(dp510
g17
I0
sg19
I00
sbsg17
I1
sg23
(imyEvolve
Tree
p511
(dp512
g17
I0
sg18
F4.671861384209839
sg19
I01
sbsg20
I00
sg21
g28
sbsg20
I00
sg21
g43
sbsg17
I3
sg20
I01
sg21
g78
sbsg17
I4
sg23
(imyEvolve
Tree
p513
(dp514
g14
(imyEvolve
Tree
p515
(dp516
g7
(imyEvolve
Tree
p517
(dp518
g14
(imyEvolve
Tree
p519
(dp520
g17
I0
sg18
F4.579144577383429
sg19
I01
sbsg17
I1
sg20
I01
sg21
g78
sbsg17
I2
sg23
(imyEvolve
Tree
p521
(dp522
g14
(imyEvolve
Tree
p523
(dp524
g17
I0
sg19
I00
sbsg17
I1
sg20
I01
sg21
g22
sbsg20
I00
sg21
g42
sbsg17
I3
sg20
I01
sg21
g93
sbsg20
I00
sg21
g42
sbsg17
I5
sg20
I01
sg21
g22
sba(imyEvolve
Tree
p525
(dp526
g14
(imyEvolve
Tree
p527
(dp528
g17
I1
sg7
(imyEvolve
Tree
p529
(dp530
g17
I0
sg19
I00
sbsg23
(imyEvolve
Tree
p531
(dp532
g17
I0
sg19
I00
sbsg20
I00
sg21
g43
sbsg17
I2
sg20
I01
sg21
g35
sba(imyEvolve
Tree
p533
(dp534
g14
(imyEvolve
Tree
p535
(dp536
g17
I1
sg7
(imyEvolve
Tree
p537
(dp538
g17
I0
sg19
I00
sbsg23
(imyEvolve
Tree
p539
(dp540
g17
I0
sg18
F2.690246713691254
sg19
I01
sbsg20
I00
sg21
g42
sbsg17
I2
sg20
I01
sg21
g35
sba(imyEvolve
Tree
p541
(dp542
g7
(imyEvolve
Tree
p543
(dp544
g14
(imyEvolve
Tree
p545
(dp546
g14
(imyEvolve
Tree
p547
(dp548
g17
I0
sg18
F1.1680864695411666
sg19
I01
sbsg17
I1
sg20
I01
sg21
g93
sbsg17
I2
sg20
I01
sg21
g78
sbsg17
I3
sg23
(imyEvolve
Tree
p549
(dp550
g14
(imyEvolve
Tree
p551
(dp552
g14
(imyEvolve
Tree
p553
(dp554
g17
I0
sg19
I00
sbsg17
I1
sg20
I01
sg21
g35
sbsg17
I2
sg20
I01
sg21
g93
sbsg20
I00
sg21
g28
sba(imyEvolve
Tree
p555
(dp556
g7
(imyEvolve
Tree
p557
(dp558
g7
(imyEvolve
Tree
p559
(dp560
g7
(imyEvolve
Tree
p561
(dp562
g7
(imyEvolve
Tree
p563
(dp564
g17
I0
sg19
I00
sbsg17
I1
sg23
(imyEvolve
Tree
p565
(dp566
g17
I0
sg18
F4.154076654835263
sg19
I01
sbsg20
I00
sg21
g28
sbsg17
I2
sg23
(imyEvolve
Tree
p567
(dp568
g14
(imyEvolve
Tree
p569
(dp570
g17
I0
sg19
I00
sbsg17
I1
sg20
I01
sg21
g22
sbsg20
I00
sg21
g43
sbsg17
I3
sg23
(imyEvolve
Tree
p571
(dp572
g14
(imyEvolve
Tree
p573
(dp574
g7
(imyEvolve
Tree
p575
(dp576
g17
I0
sg18
F-1.8688493047298071
sg19
I01
sbsg17
I1
sg23
(imyEvolve
Tree
p577
(dp578
g17
I0
sg18
F4.031245145718525
sg19
I01
sbsg20
I00
sg21
g42
sbsg17
I2
sg20
I01
sg21
g78
sbsg20
I00
sg21
g43
sbsg17
I4
sg23
(imyEvolve
Tree
p579
(dp580
g7
(imyEvolve
Tree
p581
(dp582
g7
(imyEvolve
Tree
p583
(dp584
g14
(imyEvolve
Tree
p585
(dp586
g17
I0
sg19
I00
sbsg17
I1
sg20
I01
sg21
g35
sbsg17
I2
sg23
(imyEvolve
Tree
p587
(dp588
g7
(imyEvolve
Tree
p589
(dp590
g17
I0
sg19
I00
sbsg17
I1
sg23
(imyEvolve
Tree
p591
(dp592
g17
I0
sg19
I00
sbsg20
I00
sg21
g42
sbsg20
I00
sg21
g42
sbsg17
I3
sg23
(imyEvolve
Tree
p593
(dp594
g7
(imyEvolve
Tree
p595
(dp596
g14
(imyEvolve
Tree
p597
(dp598
g17
I0
sg19
I00
sbsg17
I1
sg20
I01
sg21
g93
sbsg17
I2
sg23
(imyEvolve
Tree
p599
(dp600
g7
(imyEvolve
Tree
p601
(dp602
g17
I0
sg19
I00
sbsg17
I1
sg23
(imyEvolve
Tree
p603
(dp604
g17
I0
sg18
F-4.3776367946030135
sg19
I01
sbsg20
I00
sg21
g42
sbsg20
I00
sg21
g28
sbsg20
I00
sg21
g43
sbsg20
I00
sg21
g28
sba(imyEvolve
Tree
p605
(dp606
g14
(imyEvolve
Tree
p607
(dp608
g14
(imyEvolve
Tree
p609
(dp610
g14
(imyEvolve
Tree
p611
(dp612
g14
(imyEvolve
Tree
p613
(dp614
g17
I1
sg7
(imyEvolve
Tree
p615
(dp616
g17
I0
sg18
F4.602155163876084
sg19
I01
sbsg23
(imyEvolve
Tree
p617
(dp618
g17
I0
sg19
I00
sbsg20
I00
sg21
g42
sbsg17
I2
sg20
I01
sg21
g35
sbsg17
I3
sg20
I01
sg21
g35
sbsg17
I4
sg20
I01
sg21
g93
sbsg17
I5
sg20
I01
sg21
g22
sba(imyEvolve
Tree
p619
(dp620
g7
(imyEvolve
Tree
p621
(dp622
g7
(imyEvolve
Tree
p623
(dp624
g7
(imyEvolve
Tree
p625
(dp626
g14
(imyEvolve
Tree
p627
(dp628
g17
I0
sg19
I00
sbsg17
I1
sg20
I01
sg21
g78
sbsg17
I2
sg23
(imyEvolve
Tree
p629
(dp630
g14
(imyEvolve
Tree
p631
(dp632
g17
I0
sg19
I00
sbsg17
I1
sg20
I01
sg21
g22
sbsg20
I00
sg21
g42
sbsg17
I3
sg23
(imyEvolve
Tree
p633
(dp634
g7
(imyEvolve
Tree
p635
(dp636
g7
(imyEvolve
Tree
p637
(dp638
g17
I0
sg18
F4.589783532565184
sg19
I01
sbsg17
I1
sg23
(imyEvolve
Tree
p639
(dp640
g17
I0
sg18
F4.506355044068233
sg19
I01
sbsg20
I00
sg21
g28
sbsg17
I2
sg23
(imyEvolve
Tree
p641
(dp642
g7
(imyEvolve
Tree
p643
(dp644
g17
I0
sg18
F0.3966439209885406
sg19
I01
sbsg17
I1
sg23
(imyEvolve
Tree
p645
(dp646
g17
I0
sg18
F-1.1413834172911197
sg19
I01
sbsg20
I00
sg21
g28
sbsg20
I00
sg21
g28
sbsg20
I00
sg21
g28
sbsg17
I4
sg23
(imyEvolve
Tree
p647
(dp648
g14
(imyEvolve
Tree
p649
(dp650
g7
(imyEvolve
Tree
p651
(dp652
g7
(imyEvolve
Tree
p653
(dp654
g17
I0
sg19
I00
sbsg17
I1
sg23
(imyEvolve
Tree
p655
(dp656
g17
I0
sg19
I00
sbsg20
I00
sg21
g42
sbsg17
I2
sg23
(imyEvolve
Tree
p657
(dp658
g7
(imyEvolve
Tree
p659
(dp660
g17
I0
sg18
F-4.176226819191146
sg19
I01
sbsg17
I1
sg23
(imyEvolve
Tree
p661
(dp662
g17
I0
sg18
F-3.072843717746844
sg19
I01
sbsg20
I00
sg21
g42
sbsg20
I00
sg21
g42
sbsg17
I3
sg20
I01
sg21
g78
sbsg20
I00
sg21
g43
sba(imyEvolve
Tree
p663
(dp664
g14
(imyEvolve
Tree
p665
(dp666
g14
(imyEvolve
Tree
p667
(dp668
g17
I0
sg19
I00
sbsg17
I1
sg20
I01
sg21
g22
sbsg17
I2
sg20
I01
sg21
g35
sba(imyEvolve
Tree
p669
(dp670
g7
(imyEvolve
Tree
p671
(dp672
g14
(imyEvolve
Tree
p673
(dp674
g7
(imyEvolve
Tree
p675
(dp676
g17
I0
sg18
F2.321494126619731
sg19
I01
sbsg17
I1
sg23
(imyEvolve
Tree
p677
(dp678
g17
I0
sg19
I00
sbsg20
I00
sg21
g43
sbsg17
I2
sg20
I01
sg21
g78
sbsg17
I3
sg23
(imyEvolve
Tree
p679
(dp680
g7
(imyEvolve
Tree
p681
(dp682
g7
(imyEvolve
Tree
p683
(dp684
g17
I0
sg18
F4.146970879339333
sg19
I01
sbsg17
I1
sg23
(imyEvolve
Tree
p685
(dp686
g17
I0
sg19
I00
sbsg20
I00
sg21
g28
sbsg17
I2
sg23
(imyEvolve
Tree
p687
(dp688
g7
(imyEvolve
Tree
p689
(dp690
g17
I0
sg19
I00
sbsg17
I1
sg23
(imyEvolve
Tree
p691
(dp692
g17
I0
sg19
I00
sbsg20
I00
sg21
g42
sbsg20
I00
sg21
g42
sbsg20
I00
sg21
g43
sba(imyEvolve
Tree
p693
(dp694
g14
(imyEvolve
Tree
p695
(dp696
g7
(imyEvolve
Tree
p697
(dp698
g14
(imyEvolve
Tree
p699
(dp700
g7
(imyEvolve
Tree
p701
(dp702
g7
(imyEvolve
Tree
p703
(dp704
g17
I0
sg18
F0.5511436931047857
sg19
I01
sbsg17
I1
sg23
(imyEvolve
Tree
p705
(dp706
g17
I0
sg18
F-2.5696910390620054
sg19
I01
sbsg20
I00
sg21
g28
sbsg17
I2
sg23
(imyEvolve
Tree
p707
(dp708
g14
(imyEvolve
Tree
p709
(dp710
g17
I0
sg18
F-0.5505085284148006
sg19
I01
sbsg17
I1
sg20
I01
sg21
g78
sbsg20
I00
sg21
g28
sbsg17
I3
sg20
I01
sg21
g78
sbsg17
I4
sg23
(imyEvolve
Tree
p711
(dp712
g14
(imyEvolve
Tree
p713
(dp714
g7
(imyEvolve
Tree
p715
(dp716
g7
(imyEvolve
Tree
p717
(dp718
g17
I0
sg19
I00
sbsg17
I1
sg23
(imyEvolve
Tree
p719
(dp720
g17
I0
sg18
F1.4226051635491297
sg19
I01
sbsg20
I00
sg21
g28
sbsg17
I2
sg23
(imyEvolve
Tree
p721
(dp722
g14
(imyEvolve
Tree
p723
(dp724
g17
I0
sg18
F-0.5949524360961753
sg19
I01
sbsg17
I1
sg20
I01
sg21
g35
sbsg20
I00
sg21
g42
sbsg17
I3
sg20
I01
sg21
g93
sbsg20
I00
sg21
g42
sbsg17
I5
sg20
I01
sg21
g93
sba(imyEvolve
Tree
p725
(dp726
g14
(imyEvolve
Tree
p727
(dp728
g14
(imyEvolve
Tree
p729
(dp730
g7
(imyEvolve
Tree
p731
(dp732
g14
(imyEvolve
Tree
p733
(dp734
g14
(imyEvolve
Tree
p735
(dp736
g17
I0
sg18
F-4.505645658621526
sg19
I01
sbsg17
I1
sg20
I01
sg21
g35
sbsg17
I2
sg20
I01
sg21
g93
sbsg17
I3
sg23
(imyEvolve
Tree
p737
(dp738
g14
(imyEvolve
Tree
p739
(dp740
g14
(imyEvolve
Tree
p741
(dp742
g17
I0
sg18
F1.5873823350209388
sg19
I01
sbsg17
I1
sg20
I01
sg21
g78
sbsg17
I2
sg20
I01
sg21
g35
sbsg20
I00
sg21
g43
sbsg17
I4
sg20
I01
sg21
g35
sbsg17
I5
sg20
I01
sg21
g93
sba(imyEvolve
Tree
p743
(dp744
g14
(imyEvolve
Tree
p745
(dp746
g7
(imyEvolve
Tree
p747
(dp748
g14
(imyEvolve
Tree
p749
(dp750
g14
(imyEvolve
Tree
p751
(dp752
g17
I0
sg19
I00
sbsg17
I1
sg20
I01
sg21
g93
sbsg17
I2
sg20
I01
sg21
g22
sbsg17
I3
sg23
(imyEvolve
Tree
p753
(dp754
g14
(imyEvolve
Tree
p755
(dp756
g7
(imyEvolve
Tree
p757
(dp758
g17
I0
sg18
F0.9613984775954334
sg19
I01
sbsg17
I1
sg23
(imyEvolve
Tree
p759
(dp760
g17
I0
sg18
F-3.4249081922598146
sg19
I01
sbsg20
I00
sg21
g42
sbsg17
I2
sg20
I01
sg21
g35
sbsg20
I00
sg21
g43
sbsg17
I4
sg20
I01
sg21
g93
sbaa(lp761
(imyEvolve
Tree
p762
(dp763
g14
(imyEvolve
Tree
p764
(dp765
g17
I1
sg7
(imyEvolve
Tree
p766
(dp767
g17
I0
sg18
F-4.635773632745723
sg19
I01
sbsg23
(imyEvolve
Tree
p768
(dp769
g17
I0
sg19
I00
sbsg20
I00
sg21
g42
sbsg17
I2
sg20
I01
sg21
g35
sba(imyEvolve
Tree
p770
(dp771
g14
(imyEvolve
Tree
p772
(dp773
g17
I3
sg7
(imyEvolve
Tree
p774
(dp775
g14
(imyEvolve
Tree
p776
(dp777
g14
(imyEvolve
Tree
p778
(dp779
g17
I0
sg19
I00
sbsg17
I1
sg20
I01
sg21
g93
sbsg17
I2
sg20
I01
sg21
g78
sbsg23
(imyEvolve
Tree
p780
(dp781
g14
(imyEvolve
Tree
p782
(dp783
g17
I1
sg7
(imyEvolve
Tree
p784
(dp785
g17
I0
sg19
I00
sbsg23
(imyEvolve
Tree
p786
(dp787
g17
I0
sg18
F1.829950168248466
sg19
I01
sbsg20
I00
sg21
g28
sbsg17
I2
sg20
I01
sg21
g22
sbsg20
I00
sg21
g28
sbsg17
I4
sg20
I01
sg21
g35
sba(imyEvolve
Tree
p788
(dp789
g7
(imyEvolve
Tree
p790
(dp791
g7
(imyEvolve
Tree
p792
(dp793
g7
(imyEvolve
Tree
p794
(dp795
g14
(imyEvolve
Tree
p796
(dp797
g17
I0
sg19
I00
sbsg17
I1
sg20
I01
sg21
g78
sbsg17
I2
sg23
(imyEvolve
Tree
p798
(dp799
g7
(imyEvolve
Tree
p800
(dp801
g17
I0
sg18
F-1.8699062492470464
sg19
I01
sbsg17
I1
sg23
(imyEvolve
Tree
p802
(dp803
g17
I0
sg19
I00
sbsg20
I00
sg21
g43
sbsg20
I00
sg21
g42
sbsg17
I3
sg23
(imyEvolve
Tree
p804
(dp805
g7
(imyEvolve
Tree
p806
(dp807
g14
(imyEvolve
Tree
p808
(dp809
g17
I0
sg18
F-0.9706739731235059
sg19
I01
sbsg17
I1
sg20
I01
sg21
g22
sbsg17
I2
sg23
(imyEvolve
Tree
p810
(dp811
g7
(imyEvolve
Tree
p812
(dp813
g17
I0
sg18
F-1.2260746446701107
sg19
I01
sbsg17
I1
sg23
(imyEvolve
Tree
p814
(dp815
g17
I0
sg19
I00
sbsg20
I00
sg21
g42
sbsg20
I00
sg21
g43
sbsg20
I00
sg21
g42
sbsg17
I4
sg23
(imyEvolve
Tree
p816
(dp817
g7
(imyEvolve
Tree
p818
(dp819
g7
(imyEvolve
Tree
p820
(dp821
g14
(imyEvolve
Tree
p822
(dp823
g17
I0
sg18
F-4.53896893297225
sg19
I01
sbsg17
I1
sg20
I01
sg21
g93
sbsg17
I2
sg23
(imyEvolve
Tree
p824
(dp825
g7
(imyEvolve
Tree
p826
(dp827
g17
I0
sg18
F3.450327230920987
sg19
I01
sbsg17
I1
sg23
(imyEvolve
Tree
p828
(dp829
g17
I0
sg19
I00
sbsg20
I00
sg21
g28
sbsg20
I00
sg21
g43
sbsg17
I3
sg23
(imyEvolve
Tree
p830
(dp831
g14
(imyEvolve
Tree
p832
(dp833
g7
(imyEvolve
Tree
p834
(dp835
g17
I0
sg19
I00
sbsg17
I1
sg23
(imyEvolve
Tree
p836
(dp837
g17
I0
sg18
F-2.9796109169103016
sg19
I01
sbsg20
I00
sg21
g28
sbsg17
I2
sg20
I01
sg21
g35
sbsg20
I00
sg21
g43
sbsg20
I00
sg21
g42
sba(imyEvolve
Tree
p838
(dp839
g14
(imyEvolve
Tree
p840
(dp841
g14
(imyEvolve
Tree
p842
(dp843
g7
(imyEvolve
Tree
p844
(dp845
g14
(imyEvolve
Tree
p846
(dp847
g17
I0
sg18
F-4.2858587952288785
sg19
I01
sbsg17
I1
sg20
I01
sg21
g22
sbsg17
I2
sg23
(imyEvolve
Tree
p848
(dp849
g14
(imyEvolve
Tree
p850
(dp851
g17
I0
sg18
F-3.0562177345982713
sg19
I01
sbsg17
I1
sg20
I01
sg21
g22
sbsg20
I00
sg21
g28
sbsg17
I3
sg20
I01
sg21
g22
sbsg17
I4
sg20
I01
sg21
g78
sba(imyEvolve
Tree
p852
(dp853
g14
(imyEvolve
Tree
p854
(dp855
g14
(imyEvolve
Tree
p856
(dp857
g17
I1
sg7
(imyEvolve
Tree
p858
(dp859
g17
I0
sg19
I00
sbsg23
(imyEvolve
Tree
p860
(dp861
g17
I0
sg18
F-0.5986922390551417
sg19
I01
sbsg20
I00
sg21
g42
sbsg17
I2
sg20
I01
sg21
g93
sbsg17
I3
sg20
I01
sg21
g35
sba(imyEvolve
Tree
p862
(dp863
g14
(imyEvolve
Tree
p864
(dp865
g17
I2
sg7
(imyEvolve
Tree
p866
(dp867
g14
(imyEvolve
Tree
p868
(dp869
g17
I0
sg19
I00
sbsg17
I1
sg20
I01
sg21
g22
sbsg23
(imyEvolve
Tree
p870
(dp871
g17
I1
sg7
(imyEvolve
Tree
p872
(dp873
g17
I0
sg19
I00
sbsg23
(imyEvolve
Tree
p874
(dp875
g17
I0
sg18
F-4.26277179236494
sg19
I01
sbsg20
I00
sg21
g28
sbsg20
I00
sg21
g42
sbsg17
I3
sg20
I01
sg21
g22
sba(imyEvolve
Tree
p876
(dp877
g14
(imyEvolve
Tree
p878
(dp879
g7
(imyEvolve
Tree
p880
(dp881
g14
(imyEvolve
Tree
p882
(dp883
g14
(imyEvolve
Tree
p884
(dp885
g7
(imyEvolve
Tree
p886
(dp887
g17
I0
sg19
I00
sbsg17
I1
sg23
(imyEvolve
Tree
p888
(dp889
g17
I0
sg19
I00
sbsg20
I00
sg21
g43
sbsg17
I2
sg20
I01
sg21
g93
sbsg17
I3
sg20
I01
sg21
g78
sbsg17
I4
sg23
(imyEvolve
Tree
p890
(dp891
g14
(imyEvolve
Tree
p892
(dp893
g14
(imyEvolve
Tree
p894
(dp895
g14
(imyEvolve
Tree
p896
(dp897
g17
I0
sg19
I00
sbsg17
I1
sg20
I01
sg21
g35
sbsg17
I2
sg20
I01
sg21
g22
sbsg17
I3
sg20
I01
sg21
g78
sbsg20
I00
sg21
g28
sbsg17
I5
sg20
I01
sg21
g93
sba(imyEvolve
Tree
p898
(dp899
g14
(imyEvolve
Tree
p900
(dp901
g7
(imyEvolve
Tree
p902
(dp903
g7
(imyEvolve
Tree
p904
(dp905
g7
(imyEvolve
Tree
p906
(dp907
g7
(imyEvolve
Tree
p908
(dp909
g17
I0
sg19
I00
sbsg17
I1
sg23
(imyEvolve
Tree
p910
(dp911
g17
I0
sg19
I00
sbsg20
I00
sg21
g42
sbsg17
I2
sg23
(imyEvolve
Tree
p912
(dp913
g14
(imyEvolve
Tree
p914
(dp915
g17
I0
sg18
F-0.1266730618161951
sg19
I01
sbsg17
I1
sg20
I01
sg21
g93
sbsg20
I00
sg21
g43
sbsg17
I3
sg23
(imyEvolve
Tree
p916
(dp917
g7
(imyEvolve
Tree
p918
(dp919
g14
(imyEvolve
Tree
p920
(dp921
g17
I0
sg19
I00
sbsg17
I1
sg20
I01
sg21
g22
sbsg17
I2
sg23
(imyEvolve
Tree
p922
(dp923
g14
(imyEvolve
Tree
p924
(dp925
g17
I0
sg19
I00
sbsg17
I1
sg20
I01
sg21
g35
sbsg20
I00
sg21
g28
sbsg20
I00
sg21
g43
sbsg17
I4
sg23
(imyEvolve
Tree
p926
(dp927
g14
(imyEvolve
Tree
p928
(dp929
g7
(imyEvolve
Tree
p930
(dp931
g7
(imyEvolve
Tree
p932
(dp933
g17
I0
sg18
F3.382179438546544
sg19
I01
sbsg17
I1
sg23
(imyEvolve
Tree
p934
(dp935
g17
I0
sg19
I00
sbsg20
I00
sg21
g28
sbsg17
I2
sg23
(imyEvolve
Tree
p936
(dp937
g14
(imyEvolve
Tree
p938
(dp939
g17
I0
sg19
I00
sbsg17
I1
sg20
I01
sg21
g78
sbsg20
I00
sg21
g28
sbsg17
I3
sg20
I01
sg21
g78
sbsg20
I00
sg21
g28
sbsg17
I5
sg20
I01
sg21
g78
sba(imyEvolve
Tree
p940
(dp941
g14
(imyEvolve
Tree
p942
(dp943
g14
(imyEvolve
Tree
p944
(dp945
g17
I0
sg18
F-3.798805150816894
sg19
I01
sbsg17
I1
sg20
I01
sg21
g78
sbsg17
I2
sg20
I01
sg21
g35
sba(imyEvolve
Tree
p946
(dp947
g14
(imyEvolve
Tree
p948
(dp949
g7
(imyEvolve
Tree
p950
(dp951
g7
(imyEvolve
Tree
p952
(dp953
g7
(imyEvolve
Tree
p954
(dp955
g17
I0
sg18
F-2.2020377599557364
sg19
I01
sbsg17
I1
sg23
(imyEvolve
Tree
p956
(dp957
g17
I0
sg18
F-3.6271580895520272
sg19
I01
sbsg20
I00
sg21
g43
sbsg17
I2
sg23
(imyEvolve
Tree
p958
(dp959
g14
(imyEvolve
Tree
p960
(dp961
g17
I0
sg18
F-2.5733513684643325
sg19
I01
sbsg17
I1
sg20
I01
sg21
g22
sbsg20
I00
sg21
g28
sbsg17
I3
sg23
(imyEvolve
Tree
p962
(dp963
g14
(imyEvolve
Tree
p964
(dp965
g14
(imyEvolve
Tree
p966
(dp967
g17
I0
sg19
I00
sbsg17
I1
sg20
I01
sg21
g22
sbsg17
I2
sg20
I01
sg21
g22
sbsg20
I00
sg21
g43
sbsg17
I4
sg20
I01
sg21
g35
sba(imyEvolve
Tree
p968
(dp969
g14
(imyEvolve
Tree
p970
(dp971
g17
I1
sg7
(imyEvolve
Tree
p972
(dp973
g17
I0
sg18
F4.222098750229007
sg19
I01
sbsg23
(imyEvolve
Tree
p974
(dp975
g17
I0
sg19
I00
sbsg20
I00
sg21
g43
sbsg17
I2
sg20
I01
sg21
g93
sba(imyEvolve
Tree
p976
(dp977
g7
(imyEvolve
Tree
p978
(dp979
g7
(imyEvolve
Tree
p980
(dp981
g14
(imyEvolve
Tree
p982
(dp983
g14
(imyEvolve
Tree
p984
(dp985
g7
(imyEvolve
Tree
p986
(dp987
g17
I0
sg18
F-2.2569961067032542
sg19
I01
sbsg17
I1
sg23
(imyEvolve
Tree
p988
(dp989
g17
I0
sg18
F0.983202839378766
sg19
I01
sbsg20
I00
sg21
g43
sbsg17
I2
sg20
I01
sg21
g78
sbsg17
I3
sg20
I01
sg21
g22
sbsg17
I4
sg23
(imyEvolve
Tree
p990
(dp991
g7
(imyEvolve
Tree
p992
(dp993
g14
(imyEvolve
Tree
p994
(dp995
g7
(imyEvolve
Tree
p996
(dp997
g17
I0
sg19
I00
sbsg17
I1
sg23
(imyEvolve
Tree
p998
(dp999
g17
I0
sg18
F-4.167047866100276
sg19
I01
sbsg20
I00
sg21
g42
sbsg17
I2
sg20
I01
sg21
g22
sbsg17
I3
sg23
(imyEvolve
Tree
p1000
(dp1001
g7
(imyEvolve
Tree
p1002
(dp1003
g14
(imyEvolve
Tree
p1004
(dp1005
g17
I0
sg19
I00
sbsg17
I1
sg20
I01
sg21
g93
sbsg17
I2
sg23
(imyEvolve
Tree
p1006
(dp1007
g7
(imyEvolve
Tree
p1008
(dp1009
g17
I0
sg19
I00
sbsg17
I1
sg23
(imyEvolve
Tree
p1010
(dp1011
g17
I0
sg19
I00
sbsg20
I00
sg21
g42
sbsg20
I00
sg21
g43
sbsg20
I00
sg21
g43
sbsg20
I00
sg21
g28
sbsg17
I5
sg23
(imyEvolve
Tree
p1012
(dp1013
g14
(imyEvolve
Tree
p1014
(dp1015
g7
(imyEvolve
Tree
p1016
(dp1017
g7
(imyEvolve
Tree
p1018
(dp1019
g7
(imyEvolve
Tree
p1020
(dp1021
g17
I0
sg19
I00
sbsg17
I1
sg23
(imyEvolve
Tree
p1022
(dp1023
g17
I0
sg18
F0.6559586929472481
sg19
I01
sbsg20
I00
sg21
g43
sbsg17
I2
sg23
(imyEvolve
Tree
p1024
(dp1025
g14
(imyEvolve
Tree
p1026
(dp1027
g17
I0
sg19
I00
sbsg17
I1
sg20
I01
sg21
g22
sbsg20
I00
sg21
g28
sbsg17
I3
sg23
(imyEvolve
Tree
p1028
(dp1029
g7
(imyEvolve
Tree
p1030
(dp1031
g14
(imyEvolve
Tree
p1032
(dp1033
g17
I0
sg19
I00
sbsg17
I1
sg20
I01
sg21
g78
sbsg17
I2
sg23
(imyEvolve
Tree
p1034
(dp1035
g14
(imyEvolve
Tree
p1036
(dp1037
g17
I0
sg19
I00
sbsg17
I1
sg20
I01
sg21
g78
sbsg20
I00
sg21
g43
sbsg20
I00
sg21
g42
sbsg17
I4
sg20
I01
sg21
g93
sbsg20
I00
sg21
g42
sba(imyEvolve
Tree
p1038
(dp1039
g14
(imyEvolve
Tree
p1040
(dp1041
g14
(imyEvolve
Tree
p1042
(dp1043
g7
(imyEvolve
Tree
p1044
(dp1045
g17
I0
sg18
F2.650198664160575
sg19
I01
sbsg17
I1
sg23
(imyEvolve
Tree
p1046
(dp1047
g17
I0
sg18
F1.7648769827781745
sg19
I01
sbsg20
I00
sg21
g28
sbsg17
I2
sg20
I01
sg21
g78
sbsg17
I3
sg20
I01
sg21
g78
sbaasS'alpha'
p1048
F0.003823449480424179
sS'fitness'
p1049
cnumpy.core.multiarray
scalar
p1050
(cnumpy
dtype
p1051
(S'f8'
p1052
I0
I1
tp1053
Rp1054
(I3
S'<'
p1055
NNNI-1
I-1
I0
tp1056
bS'\x00\xac\x1cZPuF\xbf'
p1057
tp1058
Rp1059
sS'weightSharing'
p1060
(lp1061
I00
asS'fitnessValid'
p1062
I00
sS'resolution'
p1063
I99
sb.