(imyEvolve
Individual
p0
(dp1
S'funcs'
p2
(lp3
(lp4
(imyEvolve
Tree
p5
(dp6
S'left'
p7
(imyEvolve
Tree
p8
(dp9
S'below'
p10
(imyEvolve
Tree
p11
(dp12
g10
(imyEvolve
Tree
p13
(dp14
S'depth'
p15
I0
sS'constant'
p16
F-3.844949732784144
sS'isConstant'
p17
I01
sbsg15
I1
sS'single'
p18
I01
sS'op'
p19
cmyEvolve
square
p20
sbsg15
I2
sg18
I01
sg19
g20
sbsg15
I3
sS'right'
p21
(imyEvolve
Tree
p22
(dp23
g10
(imyEvolve
Tree
p24
(dp25
g10
(imyEvolve
Tree
p26
(dp27
g15
I0
sg16
F0.9357483577926997
sg17
I01
sbsg15
I1
sg18
I01
sg19
cmyEvolve
absSqrt
p28
sbsg15
I2
sg18
I01
sg19
g28
sbsg18
I00
sg19
coperator
mul
p29
sba(imyEvolve
Tree
p30
(dp31
g15
I2
sg7
(imyEvolve
Tree
p32
(dp33
g10
(imyEvolve
Tree
p34
(dp35
g15
I0
sg16
F3.628840055720456
sg17
I01
sbsg15
I1
sg18
I01
sg19
cmath
sin
p36
sbsg21
(imyEvolve
Tree
p37
(dp38
g10
(imyEvolve
Tree
p39
(dp40
g15
I0
sg16
F3.940015464795403
sg17
I01
sbsg15
I1
sg18
I01
sg19
g28
sbsg18
I00
sg19
coperator
add
p41
sba(imyEvolve
Tree
p42
(dp43
g10
(imyEvolve
Tree
p44
(dp45
g7
(imyEvolve
Tree
p46
(dp47
g15
I0
sg17
I00
sbsg15
I1
sg21
(imyEvolve
Tree
p48
(dp49
g15
I0
sg16
F-1.5297780222098778
sg17
I01
sbsg18
I00
sg19
g41
sbsg15
I2
sg18
I01
sg19
g20
sba(imyEvolve
Tree
p50
(dp51
g15
I2
sg7
(imyEvolve
Tree
p52
(dp53
g15
I1
sg7
(imyEvolve
Tree
p54
(dp55
g15
I0
sg17
I00
sbsg21
(imyEvolve
Tree
p56
(dp57
g15
I0
sg17
I00
sbsg18
I00
sg19
g29
sbsg21
(imyEvolve
Tree
p58
(dp59
g15
I1
sg7
(imyEvolve
Tree
p60
(dp61
g15
I0
sg16
F-3.965592925428665
sg17
I01
sbsg21
(imyEvolve
Tree
p62
(dp63
g15
I0
sg16
F-4.678769365613187
sg17
I01
sbsg18
I00
sg19
g29
sbsg18
I00
sg19
g29
sba(imyEvolve
Tree
p64
(dp65
g10
(imyEvolve
Tree
p66
(dp67
g7
(imyEvolve
Tree
p68
(dp69
g7
(imyEvolve
Tree
p70
(dp71
g10
(imyEvolve
Tree
p72
(dp73
g10
(imyEvolve
Tree
p74
(dp75
g15
I0
sg17
I00
sbsg15
I1
sg18
I01
sg19
g36
sbsg15
I2
sg18
I01
sg19
g28
sbsg15
I3
sg21
(imyEvolve
Tree
p76
(dp77
g7
(imyEvolve
Tree
p78
(dp79
g10
(imyEvolve
Tree
p80
(dp81
g15
I0
sg16
F1.6332381595393155
sg17
I01
sbsg15
I1
sg18
I01
sg19
g28
sbsg15
I2
sg21
(imyEvolve
Tree
p82
(dp83
g10
(imyEvolve
Tree
p84
(dp85
g15
I0
sg17
I00
sbsg15
I1
sg18
I01
sg19
g20
sbsg18
I00
sg19
g41
sbsg18
I00
sg19
g41
sbsg15
I4
sg21
(imyEvolve
Tree
p86
(dp87
g10
(imyEvolve
Tree
p88
(dp89
g7
(imyEvolve
Tree
p90
(dp91
g7
(imyEvolve
Tree
p92
(dp93
g15
I0
sg16
F4.8524345854550965
sg17
I01
sbsg15
I1
sg21
(imyEvolve
Tree
p94
(dp95
g15
I0
sg16
F0.8169634613320884
sg17
I01
sbsg18
I00
sg19
g29
sbsg15
I2
sg21
(imyEvolve
Tree
p96
(dp97
g10
(imyEvolve
Tree
p98
(dp99
g15
I0
sg17
I00
sbsg15
I1
sg18
I01
sg19
g20
sbsg18
I00
sg19
coperator
sub
p100
sbsg15
I3
sg18
I01
sg19
g36
sbsg18
I00
sg19
g29
sbsg15
I5
sg18
I01
sg19
g20
sba(imyEvolve
Tree
p101
(dp102
g10
(imyEvolve
Tree
p103
(dp104
g7
(imyEvolve
Tree
p105
(dp106
g10
(imyEvolve
Tree
p107
(dp108
g15
I0
sg17
I00
sbsg15
I1
sg18
I01
sg19
g28
sbsg15
I2
sg21
(imyEvolve
Tree
p109
(dp110
g7
(imyEvolve
Tree
p111
(dp112
g15
I0
sg16
F-3.4731268840405005
sg17
I01
sbsg15
I1
sg21
(imyEvolve
Tree
p113
(dp114
g15
I0
sg16
F0.7724480232484101
sg17
I01
sbsg18
I00
sg19
g41
sbsg18
I00
sg19
g29
sbsg15
I3
sg18
I01
sg19
cmath
cos
p115
sba(imyEvolve
Tree
p116
(dp117
g15
I2
sg7
(imyEvolve
Tree
p118
(dp119
g15
I1
sg7
(imyEvolve
Tree
p120
(dp121
g15
I0
sg17
I00
sbsg21
(imyEvolve
Tree
p122
(dp123
g15
I0
sg16
F-3.743144044754078
sg17
I01
sbsg18
I00
sg19
g41
sbsg21
(imyEvolve
Tree
p124
(dp125
g10
(imyEvolve
Tree
p126
(dp127
g15
I0
sg16
F-3.182431572676373
sg17
I01
sbsg15
I1
sg18
I01
sg19
g20
sbsg18
I00
sg19
g41
sba(imyEvolve
Tree
p128
(dp129
g10
(imyEvolve
Tree
p130
(dp131
g10
(imyEvolve
Tree
p132
(dp133
g15
I0
sg16
F0.2913606689884407
sg17
I01
sbsg15
I1
sg18
I01
sg19
g28
sbsg15
I2
sg18
I01
sg19
g115
sba(imyEvolve
Tree
p134
(dp135
g10
(imyEvolve
Tree
p136
(dp137
g10
(imyEvolve
Tree
p138
(dp139
g7
(imyEvolve
Tree
p140
(dp141
g7
(imyEvolve
Tree
p142
(dp143
g15
I0
sg16
F-2.029690646546981
sg17
I01
sbsg15
I1
sg21
(imyEvolve
Tree
p144
(dp145
g15
I0
sg16
F3.739655075523169
sg17
I01
sbsg18
I00
sg19
g41
sbsg15
I2
sg21
(imyEvolve
Tree
p146
(dp147
g7
(imyEvolve
Tree
p148
(dp149
g15
I0
sg17
I00
sbsg15
I1
sg21
(imyEvolve
Tree
p150
(dp151
g15
I0
sg17
I00
sbsg18
I00
sg19
g29
sbsg18
I00
sg19
g41
sbsg15
I3
sg18
I01
sg19
g115
sbsg15
I4
sg18
I01
sg19
g36
sba(imyEvolve
Tree
p152
(dp153
g10
(imyEvolve
Tree
p154
(dp155
g10
(imyEvolve
Tree
p156
(dp157
g7
(imyEvolve
Tree
p158
(dp159
g7
(imyEvolve
Tree
p160
(dp161
g15
I0
sg17
I00
sbsg15
I1
sg21
(imyEvolve
Tree
p162
(dp163
g15
I0
sg17
I00
sbsg18
I00
sg19
g41
sbsg15
I2
sg21
(imyEvolve
Tree
p164
(dp165
g10
(imyEvolve
Tree
p166
(dp167
g15
I0
sg17
I00
sbsg15
I1
sg18
I01
sg19
g28
sbsg18
I00
sg19
g100
sbsg15
I3
sg18
I01
sg19
g36
sbsg15
I4
sg18
I01
sg19
g36
sba(imyEvolve
Tree
p168
(dp169
g15
I5
sg7
(imyEvolve
Tree
p170
(dp171
g10
(imyEvolve
Tree
p172
(dp173
g15
I3
sg7
(imyEvolve
Tree
p174
(dp175
g15
I2
sg7
(imyEvolve
Tree
p176
(dp177
g15
I1
sg7
(imyEvolve
Tree
p178
(dp179
g15
I0
sg17
I00
sbsg21
(imyEvolve
Tree
p180
(dp181
g15
I0
sg17
I00
sbsg18
I00
sg19
g100
sbsg21
(imyEvolve
Tree
p182
(dp183
g10
(imyEvolve
Tree
p184
(dp185
g15
I0
sg17
I00
sbsg15
I1
sg18
I01
sg19
g115
sbsg18
I00
sg19
g29
sbsg21
(imyEvolve
Tree
p186
(dp187
g10
(imyEvolve
Tree
p188
(dp189
g10
(imyEvolve
Tree
p190
(dp191
g15
I0
sg17
I00
sbsg15
I1
sg18
I01
sg19
g28
sbsg15
I2
sg18
I01
sg19
g28
sbsg18
I00
sg19
g41
sbsg15
I4
sg18
I01
sg19
g20
sbsg21
(imyEvolve
Tree
p192
(dp193
g15
I4
sg7
(imyEvolve
Tree
p194
(dp195
g10
(imyEvolve
Tree
p196
(dp197
g10
(imyEvolve
Tree
p198
(dp199
g15
I1
sg7
(imyEvolve
Tree
p200
(dp201
g15
I0
sg16
F0.902860277696675
sg17
I01
sbsg21
(imyEvolve
Tree
p202
(dp203
g15
I0
sg16
F3.1044946052396973
sg17
I01
sbsg18
I00
sg19
g100
sbsg15
I2
sg18
I01
sg19
g36
sbsg15
I3
sg18
I01
sg19
g28
sbsg21
(imyEvolve
Tree
p204
(dp205
g15
I3
sg7
(imyEvolve
Tree
p206
(dp207
g15
I2
sg7
(imyEvolve
Tree
p208
(dp209
g10
(imyEvolve
Tree
p210
(dp211
g15
I0
sg16
F-4.801997705587683
sg17
I01
sbsg15
I1
sg18
I01
sg19
g36
sbsg21
(imyEvolve
Tree
p212
(dp213
g15
I1
sg7
(imyEvolve
Tree
p214
(dp215
g15
I0
sg17
I00
sbsg21
(imyEvolve
Tree
p216
(dp217
g15
I0
sg16
F2.5738554105110465
sg17
I01
sbsg18
I00
sg19
g100
sbsg18
I00
sg19
g29
sbsg21
(imyEvolve
Tree
p218
(dp219
g10
(imyEvolve
Tree
p220
(dp221
g10
(imyEvolve
Tree
p222
(dp223
g15
I0
sg17
I00
sbsg15
I1
sg18
I01
sg19
g36
sbsg15
I2
sg18
I01
sg19
g20
sbsg18
I00
sg19
g29
sbsg18
I00
sg19
g29
sbsg18
I00
sg19
g100
sba(imyEvolve
Tree
p224
(dp225
g7
(imyEvolve
Tree
p226
(dp227
g7
(imyEvolve
Tree
p228
(dp229
g15
I0
sg17
I00
sbsg15
I1
sg21
(imyEvolve
Tree
p230
(dp231
g15
I0
sg16
F3.550381872075338
sg17
I01
sbsg18
I00
sg19
g100
sbsg15
I2
sg21
(imyEvolve
Tree
p232
(dp233
g7
(imyEvolve
Tree
p234
(dp235
g15
I0
sg17
I00
sbsg15
I1
sg21
(imyEvolve
Tree
p236
(dp237
g15
I0
sg16
F3.361405058196036
sg17
I01
sbsg18
I00
sg19
g41
sbsg18
I00
sg19
g29
sba(imyEvolve
Tree
p238
(dp239
g10
(imyEvolve
Tree
p240
(dp241
g10
(imyEvolve
Tree
p242
(dp243
g7
(imyEvolve
Tree
p244
(dp245
g15
I0
sg16
F0.9814768532098928
sg17
I01
sbsg15
I1
sg21
(imyEvolve
Tree
p246
(dp247
g15
I0
sg17
I00
sbsg18
I00
sg19
g100
sbsg15
I2
sg18
I01
sg19
g20
sbsg15
I3
sg18
I01
sg19
g115
sba(imyEvolve
Tree
p248
(dp249
g7
(imyEvolve
Tree
p250
(dp251
g10
(imyEvolve
Tree
p252
(dp253
g10
(imyEvolve
Tree
p254
(dp255
g7
(imyEvolve
Tree
p256
(dp257
g15
I0
sg17
I00
sbsg15
I1
sg21
(imyEvolve
Tree
p258
(dp259
g15
I0
sg16
F-4.2658845076695435
sg17
I01
sbsg18
I00
sg19
g41
sbsg15
I2
sg18
I01
sg19
g28
sbsg15
I3
sg18
I01
sg19
g115
sbsg15
I4
sg21
(imyEvolve
Tree
p260
(dp261
g7
(imyEvolve
Tree
p262
(dp263
g7
(imyEvolve
Tree
p264
(dp265
g10
(imyEvolve
Tree
p266
(dp267
g15
I0
sg16
F-0.7151891930270349
sg17
I01
sbsg15
I1
sg18
I01
sg19
g36
sbsg15
I2
sg21
(imyEvolve
Tree
p268
(dp269
g7
(imyEvolve
Tree
p270
(dp271
g15
I0
sg17
I00
sbsg15
I1
sg21
(imyEvolve
Tree
p272
(dp273
g15
I0
sg17
I00
sbsg18
I00
sg19
g100
sbsg18
I00
sg19
g41
sbsg15
I3
sg21
(imyEvolve
Tree
p274
(dp275
g7
(imyEvolve
Tree
p276
(dp277
g7
(imyEvolve
Tree
p278
(dp279
g15
I0
sg17
I00
sbsg15
I1
sg21
(imyEvolve
Tree
p280
(dp281
g15
I0
sg17
I00
sbsg18
I00
sg19
g100
sbsg15
I2
sg21
(imyEvolve
Tree
p282
(dp283
g10
(imyEvolve
Tree
p284
(dp285
g15
I0
sg17
I00
sbsg15
I1
sg18
I01
sg19
g28
sbsg18
I00
sg19
g29
sbsg18
I00
sg19
g41
sbsg18
I00
sg19
g100
sba(imyEvolve
Tree
p286
(dp287
g10
(imyEvolve
Tree
p288
(dp289
g10
(imyEvolve
Tree
p290
(dp291
g10
(imyEvolve
Tree
p292
(dp293
g10
(imyEvolve
Tree
p294
(dp295
g15
I0
sg16
F0.2263496454887033
sg17
I01
sbsg15
I1
sg18
I01
sg19
g115
sbsg15
I2
sg18
I01
sg19
g20
sbsg15
I3
sg18
I01
sg19
g28
sbsg15
I4
sg18
I01
sg19
g20
sba(imyEvolve
Tree
p296
(dp297
g7
(imyEvolve
Tree
p298
(dp299
g7
(imyEvolve
Tree
p300
(dp301
g15
I0
sg16
F-2.6035793568859567
sg17
I01
sbsg15
I1
sg21
(imyEvolve
Tree
p302
(dp303
g15
I0
sg17
I00
sbsg18
I00
sg19
g41
sbsg15
I2
sg21
(imyEvolve
Tree
p304
(dp305
g7
(imyEvolve
Tree
p306
(dp307
g15
I0
sg17
I00
sbsg15
I1
sg21
(imyEvolve
Tree
p308
(dp309
g15
I0
sg17
I00
sbsg18
I00
sg19
g100
sbsg18
I00
sg19
g100
sba(imyEvolve
Tree
p310
(dp311
g10
(imyEvolve
Tree
p312
(dp313
g15
I1
sg7
(imyEvolve
Tree
p314
(dp315
g15
I0
sg16
F-2.0773280650409753
sg17
I01
sbsg21
(imyEvolve
Tree
p316
(dp317
g15
I0
sg17
I00
sbsg18
I00
sg19
g100
sbsg15
I2
sg18
I01
sg19
g115
sbaa(lp318
(imyEvolve
Tree
p319
(dp320
g10
(imyEvolve
Tree
p321
(dp322
g7
(imyEvolve
Tree
p323
(dp324
g7
(imyEvolve
Tree
p325
(dp326
g15
I0
sg17
I00
sbsg15
I1
sg21
(imyEvolve
Tree
p327
(dp328
g15
I0
sg17
I00
sbsg18
I00
sg19
g41
sbsg15
I2
sg21
(imyEvolve
Tree
p329
(dp330
g10
(imyEvolve
Tree
p331
(dp332
g15
I0
sg17
I00
sbsg15
I1
sg18
I01
sg19
g28
sbsg18
I00
sg19
g100
sbsg15
I3
sg18
I01
sg19
g20
sba(imyEvolve
Tree
p333
(dp334
g10
(imyEvolve
Tree
p335
(dp336
g7
(imyEvolve
Tree
p337
(dp338
g7
(imyEvolve
Tree
p339
(dp340
g10
(imyEvolve
Tree
p341
(dp342
g15
I0
sg17
I00
sbsg15
I1
sg18
I01
sg19
g20
sbsg15
I2
sg21
(imyEvolve
Tree
p343
(dp344
g10
(imyEvolve
Tree
p345
(dp346
g15
I0
sg17
I00
sbsg15
I1
sg18
I01
sg19
g28
sbsg18
I00
sg19
g41
sbsg15
I3
sg21
(imyEvolve
Tree
p347
(dp348
g7
(imyEvolve
Tree
p349
(dp350
g10
(imyEvolve
Tree
p351
(dp352
g15
I0
sg17
I00
sbsg15
I1
sg18
I01
sg19
g28
sbsg15
I2
sg21
(imyEvolve
Tree
p353
(dp354
g7
(imyEvolve
Tree
p355
(dp356
g15
I0
sg16
F-0.49695795130495135
sg17
I01
sbsg15
I1
sg21
(imyEvolve
Tree
p357
(dp358
g15
I0
sg17
I00
sbsg18
I00
sg19
g29
sbsg18
I00
sg19
g29
sbsg18
I00
sg19
g29
sbsg15
I4
sg18
I01
sg19
g28
sba(imyEvolve
Tree
p359
(dp360
g15
I2
sg7
(imyEvolve
Tree
p361
(dp362
g10
(imyEvolve
Tree
p363
(dp364
g15
I0
sg16
F-0.35495261412863766
sg17
I01
sbsg15
I1
sg18
I01
sg19
g36
sbsg21
(imyEvolve
Tree
p365
(dp366
g10
(imyEvolve
Tree
p367
(dp368
g15
I0
sg16
F-1.2485062788548627
sg17
I01
sbsg15
I1
sg18
I01
sg19
g115
sbsg18
I00
sg19
g41
sba(imyEvolve
Tree
p369
(dp370
g15
I2
sg7
(imyEvolve
Tree
p371
(dp372
g15
I1
sg7
(imyEvolve
Tree
p373
(dp374
g15
I0
sg16
F-2.090615081502445
sg17
I01
sbsg21
(imyEvolve
Tree
p375
(dp376
g15
I0
sg16
F-4.708136423022154
sg17
I01
sbsg18
I00
sg19
g41
sbsg21
(imyEvolve
Tree
p377
(dp378
g15
I1
sg7
(imyEvolve
Tree
p379
(dp380
g15
I0
sg16
F-3.649683049930358
sg17
I01
sbsg21
(imyEvolve
Tree
p381
(dp382
g15
I0
sg17
I00
sbsg18
I00
sg19
g29
sbsg18
I00
sg19
g41
sba(imyEvolve
Tree
p383
(dp384
g7
(imyEvolve
Tree
p385
(dp386
g7
(imyEvolve
Tree
p387
(dp388
g10
(imyEvolve
Tree
p389
(dp390
g10
(imyEvolve
Tree
p391
(dp392
g15
I0
sg17
I00
sbsg15
I1
sg18
I01
sg19
g36
sbsg15
I2
sg18
I01
sg19
g20
sbsg15
I3
sg21
(imyEvolve
Tree
p393
(dp394
g10
(imyEvolve
Tree
p395
(dp396
g10
(imyEvolve
Tree
p397
(dp398
g15
I0
sg16
F1.0001772943947085
sg17
I01
sbsg15
I1
sg18
I01
sg19
g36
sbsg15
I2
sg18
I01
sg19
g115
sbsg18
I00
sg19
g41
sbsg15
I4
sg21
(imyEvolve
Tree
p399
(dp400
g7
(imyEvolve
Tree
p401
(dp402
g7
(imyEvolve
Tree
p403
(dp404
g7
(imyEvolve
Tree
p405
(dp406
g15
I0
sg17
I00
sbsg15
I1
sg21
(imyEvolve
Tree
p407
(dp408
g15
I0
sg16
F-4.020805249285849
sg17
I01
sbsg18
I00
sg19
g100
sbsg15
I2
sg21
(imyEvolve
Tree
p409
(dp410
g10
(imyEvolve
Tree
p411
(dp412
g15
I0
sg16
F1.3094354558865309
sg17
I01
sbsg15
I1
sg18
I01
sg19
g28
sbsg18
I00
sg19
g100
sbsg15
I3
sg21
(imyEvolve
Tree
p413
(dp414
g10
(imyEvolve
Tree
p415
(dp416
g7
(imyEvolve
Tree
p417
(dp418
g15
I0
sg16
F-3.0168504602466117
sg17
I01
sbsg15
I1
sg21
(imyEvolve
Tree
p419
(dp420
g15
I0
sg16
F0.044594014025860496
sg17
I01
sbsg18
I00
sg19
g29
sbsg15
I2
sg18
I01
sg19
g20
sbsg18
I00
sg19
g29
sbsg18
I00
sg19
g29
sba(imyEvolve
Tree
p421
(dp422
g10
(imyEvolve
Tree
p423
(dp424
g10
(imyEvolve
Tree
p425
(dp426
g10
(imyEvolve
Tree
p427
(dp428
g7
(imyEvolve
Tree
p429
(dp430
g10
(imyEvolve
Tree
p431
(dp432
g15
I0
sg16
F-3.982236252416792
sg17
I01
sbsg15
I1
sg18
I01
sg19
g115
sbsg15
I2
sg21
(imyEvolve
Tree
p433
(dp434
g7
(imyEvolve
Tree
p435
(dp436
g15
I0
sg17
I00
sbsg15
I1
sg21
(imyEvolve
Tree
p437
(dp438
g15
I0
sg16
F-0.7219055781401007
sg17
I01
sbsg18
I00
sg19
g29
sbsg18
I00
sg19
g41
sbsg15
I3
sg18
I01
sg19
g36
sbsg15
I4
sg18
I01
sg19
g20
sbsg15
I5
sg18
I01
sg19
g115
sba(imyEvolve
Tree
p439
(dp440
g15
I3
sg7
(imyEvolve
Tree
p441
(dp442
g10
(imyEvolve
Tree
p443
(dp444
g15
I1
sg7
(imyEvolve
Tree
p445
(dp446
g15
I0
sg17
I00
sbsg21
(imyEvolve
Tree
p447
(dp448
g15
I0
sg16
F-4.040608557407097
sg17
I01
sbsg18
I00
sg19
g100
sbsg15
I2
sg18
I01
sg19
g36
sbsg21
(imyEvolve
Tree
p449
(dp450
g10
(imyEvolve
Tree
p451
(dp452
g10
(imyEvolve
Tree
p453
(dp454
g15
I0
sg16
F4.77754023887565
sg17
I01
sbsg15
I1
sg18
I01
sg19
g36
sbsg15
I2
sg18
I01
sg19
g28
sbsg18
I00
sg19
g41
sba(imyEvolve
Tree
p455
(dp456
g10
(imyEvolve
Tree
p457
(dp458
g10
(imyEvolve
Tree
p459
(dp460
g7
(imyEvolve
Tree
p461
(dp462
g10
(imyEvolve
Tree
p463
(dp464
g7
(imyEvolve
Tree
p465
(dp466
g15
I0
sg16
F4.724329071510255
sg17
I01
sbsg15
I1
sg21
(imyEvolve
Tree
p467
(dp468
g15
I0
sg17
I00
sbsg18
I00
sg19
g29
sbsg15
I2
sg18
I01
sg19
g20
sbsg15
I3
sg21
(imyEvolve
Tree
p469
(dp470
g7
(imyEvolve
Tree
p471
(dp472
g10
(imyEvolve
Tree
p473
(dp474
g15
I0
sg16
F3.1712726919715237
sg17
I01
sbsg15
I1
sg18
I01
sg19
g20
sbsg15
I2
sg21
(imyEvolve
Tree
p475
(dp476
g10
(imyEvolve
Tree
p477
(dp478
g15
I0
sg16
F-2.4378044028652592
sg17
I01
sbsg15
I1
sg18
I01
sg19
g20
sbsg18
I00
sg19
g100
sbsg18
I00
sg19
g100
sbsg15
I4
sg18
I01
sg19
g36
sbsg15
I5
sg18
I01
sg19
g28
sba(imyEvolve
Tree
p479
(dp480
g10
(imyEvolve
Tree
p481
(dp482
g10
(imyEvolve
Tree
p483
(dp484
g7
(imyEvolve
Tree
p485
(dp486
g7
(imyEvolve
Tree
p487
(dp488
g15
I0
sg16
F-0.9638951237623434
sg17
I01
sbsg15
I1
sg21
(imyEvolve
Tree
p489
(dp490
g15
I0
sg17
I00
sbsg18
I00
sg19
g29
sbsg15
I2
sg21
(imyEvolve
Tree
p491
(dp492
g7
(imyEvolve
Tree
p493
(dp494
g15
I0
sg16
F0.9251340411452533
sg17
I01
sbsg15
I1
sg21
(imyEvolve
Tree
p495
(dp496
g15
I0
sg16
F4.627826208692214
sg17
I01
sbsg18
I00
sg19
g100
sbsg18
I00
sg19
g100
sbsg15
I3
sg18
I01
sg19
g115
sbsg15
I4
sg18
I01
sg19
g20
sba(imyEvolve
Tree
p497
(dp498
g7
(imyEvolve
Tree
p499
(dp500
g7
(imyEvolve
Tree
p501
(dp502
g10
(imyEvolve
Tree
p503
(dp504
g10
(imyEvolve
Tree
p505
(dp506
g15
I0
sg16
F2.493071552530779
sg17
I01
sbsg15
I1
sg18
I01
sg19
g20
sbsg15
I2
sg18
I01
sg19
g28
sbsg15
I3
sg21
(imyEvolve
Tree
p507
(dp508
g10
(imyEvolve
Tree
p509
(dp510
g7
(imyEvolve
Tree
p511
(dp512
g15
I0
sg16
F-1.9688625640355184
sg17
I01
sbsg15
I1
sg21
(imyEvolve
Tree
p513
(dp514
g15
I0
sg16
F0.8183637529579553
sg17
I01
sbsg18
I00
sg19
g100
sbsg15
I2
sg18
I01
sg19
g28
sbsg18
I00
sg19
g41
sbsg15
I4
sg21
(imyEvolve
Tree
p515
(dp516
g7
(imyEvolve
Tree
p517
(dp518
g10
(imyEvolve
Tree
p519
(dp520
g7
(imyEvolve
Tree
p521
(dp522
g15
I0
sg16
F-2.2051375433970644
sg17
I01
sbsg15
I1
sg21
(imyEvolve
Tree
p523
(dp524
g15
I0
sg17
I00
sbsg18
I00
sg19
g41
sbsg15
I2
sg18
I01
sg19
g115
sbsg15
I3
sg21
(imyEvolve
Tree
p525
(dp526
g7
(imyEvolve
Tree
p527
(dp528
g7
(imyEvolve
Tree
p529
(dp530
g15
I0
sg16
F2.904198862706444
sg17
I01
sbsg15
I1
sg21
(imyEvolve
Tree
p531
(dp532
g15
I0
sg17
I00
sbsg18
I00
sg19
g41
sbsg15
I2
sg21
(imyEvolve
Tree
p533
(dp534
g7
(imyEvolve
Tree
p535
(dp536
g15
I0
sg17
I00
sbsg15
I1
sg21
(imyEvolve
Tree
p537
(dp538
g15
I0
sg17
I00
sbsg18
I00
sg19
g41
sbsg18
I00
sg19
g29
sbsg18
I00
sg19
g29
sbsg18
I00
sg19
g100
sba(imyEvolve
Tree
p539
(dp540
g10
(imyEvolve
Tree
p541
(dp542
g10
(imyEvolve
Tree
p543
(dp544
g7
(imyEvolve
Tree
p545
(dp546
g7
(imyEvolve
Tree
p547
(dp548
g15
I0
sg16
F1.6054879235135502
sg17
I01
sbsg15
I1
sg21
(imyEvolve
Tree
p549
(dp550
g15
I0
sg17
I00
sbsg18
I00
sg19
g41
sbsg15
I2
sg21
(imyEvolve
Tree
p551
(dp552
g10
(imyEvolve
Tree
p553
(dp554
g15
I0
sg16
F-0.1047063834828057
sg17
I01
sbsg15
I1
sg18
I01
sg19
g36
sbsg18
I00
sg19
g100
sbsg15
I3
sg18
I01
sg19
g115
sbsg15
I4
sg18
I01
sg19
g28
sba(imyEvolve
Tree
p555
(dp556
g7
(imyEvolve
Tree
p557
(dp558
g7
(imyEvolve
Tree
p559
(dp560
g10
(imyEvolve
Tree
p561
(dp562
g15
I0
sg16
F-4.214676492199663
sg17
I01
sbsg15
I1
sg18
I01
sg19
g28
sbsg15
I2
sg21
(imyEvolve
Tree
p563
(dp564
g10
(imyEvolve
Tree
p565
(dp566
g15
I0
sg17
I00
sbsg15
I1
sg18
I01
sg19
g20
sbsg18
I00
sg19
g100
sbsg15
I3
sg21
(imyEvolve
Tree
p567
(dp568
g7
(imyEvolve
Tree
p569
(dp570
g10
(imyEvolve
Tree
p571
(dp572
g15
I0
sg16
F-1.3479012570209257
sg17
I01
sbsg15
I1
sg18
I01
sg19
g20
sbsg15
I2
sg21
(imyEvolve
Tree
p573
(dp574
g7
(imyEvolve
Tree
p575
(dp576
g15
I0
sg16
F-0.5293546841931214
sg17
I01
sbsg15
I1
sg21
(imyEvolve
Tree
p577
(dp578
g15
I0
sg17
I00
sbsg18
I00
sg19
g41
sbsg18
I00
sg19
g41
sbsg18
I00
sg19
g41
sba(imyEvolve
Tree
p579
(dp580
g15
I2
sg7
(imyEvolve
Tree
p581
(dp582
g15
I1
sg7
(imyEvolve
Tree
p583
(dp584
g15
I0
sg17
I00
sbsg21
(imyEvolve
Tree
p585
(dp586
g15
I0
sg16
F-1.2683924540742386
sg17
I01
sbsg18
I00
sg19
g100
sbsg21
(imyEvolve
Tree
p587
(dp588
g10
(imyEvolve
Tree
p589
(dp590
g15
I0
sg16
F1.8299731477348713
sg17
I01
sbsg15
I1
sg18
I01
sg19
g36
sbsg18
I00
sg19
g29
sba(imyEvolve
Tree
p591
(dp592
g7
(imyEvolve
Tree
p593
(dp594
g10
(imyEvolve
Tree
p595
(dp596
g10
(imyEvolve
Tree
p597
(dp598
g7
(imyEvolve
Tree
p599
(dp600
g10
(imyEvolve
Tree
p601
(dp602
g15
I0
sg17
I00
sbsg15
I1
sg18
I01
sg19
g20
sbsg15
I2
sg21
(imyEvolve
Tree
p603
(dp604
g10
(imyEvolve
Tree
p605
(dp606
g15
I0
sg16
F-0.03294635525347367
sg17
I01
sbsg15
I1
sg18
I01
sg19
g36
sbsg18
I00
sg19
g100
sbsg15
I3
sg18
I01
sg19
g28
sbsg15
I4
sg18
I01
sg19
g36
sbsg15
I5
sg21
(imyEvolve
Tree
p607
(dp608
g7
(imyEvolve
Tree
p609
(dp610
g7
(imyEvolve
Tree
p611
(dp612
g7
(imyEvolve
Tree
p613
(dp614
g7
(imyEvolve
Tree
p615
(dp616
g15
I0
sg16
F3.5746065104116163
sg17
I01
sbsg15
I1
sg21
(imyEvolve
Tree
p617
(dp618
g15
I0
sg17
I00
sbsg18
I00
sg19
g41
sbsg15
I2
sg21
(imyEvolve
Tree
p619
(dp620
g10
(imyEvolve
Tree
p621
(dp622
g15
I0
sg16
F1.8914341788979359
sg17
I01
sbsg15
I1
sg18
I01
sg19
g28
sbsg18
I00
sg19
g100
sbsg15
I3
sg21
(imyEvolve
Tree
p623
(dp624
g10
(imyEvolve
Tree
p625
(dp626
g10
(imyEvolve
Tree
p627
(dp628
g15
I0
sg17
I00
sbsg15
I1
sg18
I01
sg19
g115
sbsg15
I2
sg18
I01
sg19
g115
sbsg18
I00
sg19
g41
sbsg15
I4
sg21
(imyEvolve
Tree
p629
(dp630
g7
(imyEvolve
Tree
p631
(dp632
g10
(imyEvolve
Tree
p633
(dp634
g7
(imyEvolve
Tree
p635
(dp636
g15
I0
sg16
F4.407086264078725
sg17
I01
sbsg15
I1
sg21
(imyEvolve
Tree
p637
(dp638
g15
I0
sg17
I00
sbsg18
I00
sg19
g41
sbsg15
I2
sg18
I01
sg19
g36
sbsg15
I3
sg21
(imyEvolve
Tree
p639
(dp640
g10
(imyEvolve
Tree
p641
(dp642
g7
(imyEvolve
Tree
p643
(dp644
g15
I0
sg17
I00
sbsg15
I1
sg21
(imyEvolve
Tree
p645
(dp646
g15
I0
sg17
I00
sbsg18
I00
sg19
g41
sbsg15
I2
sg18
I01
sg19
g115
sbsg18
I00
sg19
g41
sbsg18
I00
sg19
g29
sbsg18
I00
sg19
g29
sba(imyEvolve
Tree
p647
(dp648
g7
(imyEvolve
Tree
p649
(dp650
g7
(imyEvolve
Tree
p651
(dp652
g7
(imyEvolve
Tree
p653
(dp654
g15
I0
sg17
I00
sbsg15
I1
sg21
(imyEvolve
Tree
p655
(dp656
g15
I0
sg17
I00
sbsg18
I00
sg19
g100
sbsg15
I2
sg21
(imyEvolve
Tree
p657
(dp658
g10
(imyEvolve
Tree
p659
(dp660
g15
I0
sg16
F-4.895568681079007
sg17
I01
sbsg15
I1
sg18
I01
sg19
g36
sbsg18
I00
sg19
g100
sbsg15
I3
sg21
(imyEvolve
Tree
p661
(dp662
g7
(imyEvolve
Tree
p663
(dp664
g10
(imyEvolve
Tree
p665
(dp666
g15
I0
sg17
I00
sbsg15
I1
sg18
I01
sg19
g28
sbsg15
I2
sg21
(imyEvolve
Tree
p667
(dp668
g10
(imyEvolve
Tree
p669
(dp670
g15
I0
sg17
I00
sbsg15
I1
sg18
I01
sg19
g20
sbsg18
I00
sg19
g29
sbsg18
I00
sg19
g100
sba(imyEvolve
Tree
p671
(dp672
g7
(imyEvolve
Tree
p673
(dp674
g10
(imyEvolve
Tree
p675
(dp676
g15
I0
sg17
I00
sbsg15
I1
sg18
I01
sg19
g20
sbsg15
I2
sg21
(imyEvolve
Tree
p677
(dp678
g10
(imyEvolve
Tree
p679
(dp680
g15
I0
sg16
F4.337476903860351
sg17
I01
sbsg15
I1
sg18
I01
sg19
g36
sbsg18
I00
sg19
g29
sba(imyEvolve
Tree
p681
(dp682
g10
(imyEvolve
Tree
p683
(dp684
g15
I2
sg7
(imyEvolve
Tree
p685
(dp686
g15
I1
sg7
(imyEvolve
Tree
p687
(dp688
g15
I0
sg16
F-3.8380734514870065
sg17
I01
sbsg21
(imyEvolve
Tree
p689
(dp690
g15
I0
sg17
I00
sbsg18
I00
sg19
g100
sbsg21
(imyEvolve
Tree
p691
(dp692
g15
I1
sg7
(imyEvolve
Tree
p693
(dp694
g15
I0
sg17
I00
sbsg21
(imyEvolve
Tree
p695
(dp696
g15
I0
sg17
I00
sbsg18
I00
sg19
g29
sbsg18
I00
sg19
g41
sbsg15
I3
sg18
I01
sg19
g115
sba(imyEvolve
Tree
p697
(dp698
g7
(imyEvolve
Tree
p699
(dp700
g10
(imyEvolve
Tree
p701
(dp702
g7
(imyEvolve
Tree
p703
(dp704
g7
(imyEvolve
Tree
p705
(dp706
g10
(imyEvolve
Tree
p707
(dp708
g15
I0
sg17
I00
sbsg15
I1
sg18
I01
sg19
g20
sbsg15
I2
sg21
(imyEvolve
Tree
p709
(dp710
g10
(imyEvolve
Tree
p711
(dp712
g15
I0
sg17
I00
sbsg15
I1
sg18
I01
sg19
g36
sbsg18
I00
sg19
g29
sbsg15
I3
sg21
(imyEvolve
Tree
p713
(dp714
g7
(imyEvolve
Tree
p715
(dp716
g10
(imyEvolve
Tree
p717
(dp718
g15
I0
sg17
I00
sbsg15
I1
sg18
I01
sg19
g36
sbsg15
I2
sg21
(imyEvolve
Tree
p719
(dp720
g7
(imyEvolve
Tree
p721
(dp722
g15
I0
sg16
F-4.378350185480336
sg17
I01
sbsg15
I1
sg21
(imyEvolve
Tree
p723
(dp724
g15
I0
sg17
I00
sbsg18
I00
sg19
g100
sbsg18
I00
sg19
g29
sbsg18
I00
sg19
g41
sbsg15
I4
sg18
I01
sg19
g36
sbsg15
I5
sg21
(imyEvolve
Tree
p725
(dp726
g10
(imyEvolve
Tree
p727
(dp728
g10
(imyEvolve
Tree
p729
(dp730
g10
(imyEvolve
Tree
p731
(dp732
g7
(imyEvolve
Tree
p733
(dp734
g15
I0
sg16
F-4.466750014225425
sg17
I01
sbsg15
I1
sg21
(imyEvolve
Tree
p735
(dp736
g15
I0
sg16
F0.9530944139931474
sg17
I01
sbsg18
I00
sg19
g29
sbsg15
I2
sg18
I01
sg19
g28
sbsg15
I3
sg18
I01
sg19
g28
sbsg15
I4
sg18
I01
sg19
g28
sbsg18
I00
sg19
g100
sba(imyEvolve
Tree
p737
(dp738
g7
(imyEvolve
Tree
p739
(dp740
g10
(imyEvolve
Tree
p741
(dp742
g15
I0
sg17
I00
sbsg15
I1
sg18
I01
sg19
g20
sbsg15
I2
sg21
(imyEvolve
Tree
p743
(dp744
g7
(imyEvolve
Tree
p745
(dp746
g15
I0
sg17
I00
sbsg15
I1
sg21
(imyEvolve
Tree
p747
(dp748
g15
I0
sg17
I00
sbsg18
I00
sg19
g41
sbsg18
I00
sg19
g100
sbaasS'alpha'
p749
F0.0023595289951137545
sS'fitness'
p750
cnumpy.core.multiarray
scalar
p751
(cnumpy
dtype
p752
(S'f8'
p753
I0
I1
tp754
Rp755
(I3
S'<'
p756
NNNI-1
I-1
I0
tp757
bS')\\\x8f@\xa6\x1c\xe6?'
p758
tp759
Rp760
sS'weightSharing'
p761
(lp762
I01
asS'fitnessValid'
p763
I00
sS'resolution'
p764
I78
sb.