(imyEvolve
Individual
p0
(dp1
S'funcs'
p2
(lp3
(lp4
(imyEvolve
Tree
p5
(dp6
S'depth'
p7
I5
sS'left'
p8
(imyEvolve
Tree
p9
(dp10
g7
I4
sg8
(imyEvolve
Tree
p11
(dp12
g7
I3
sg8
(imyEvolve
Tree
p13
(dp14
S'below'
p15
(imyEvolve
Tree
p16
(dp17
g7
I1
sg8
(imyEvolve
Tree
p18
(dp19
g7
I0
sS'constant'
p20
F3.3896463161861927
sS'isConstant'
p21
I01
sbsS'right'
p22
(imyEvolve
Tree
p23
(dp24
g7
I0
sg21
I00
sbsS'single'
p25
I00
sS'op'
p26
coperator
mul
p27
sbsg7
I2
sg25
I01
sg26
cmath
cos
p28
sbsg22
(imyEvolve
Tree
p29
(dp30
g15
(imyEvolve
Tree
p31
(dp32
g15
(imyEvolve
Tree
p33
(dp34
g7
I0
sg20
F-0.13650664179992855
sg21
I01
sbsg7
I1
sg25
I01
sg26
cmyEvolve
absSqrt
p35
sbsg7
I2
sg25
I01
sg26
g35
sbsg25
I00
sg26
g27
sbsg22
(imyEvolve
Tree
p36
(dp37
g15
(imyEvolve
Tree
p38
(dp39
g7
I2
sg8
(imyEvolve
Tree
p40
(dp41
g15
(imyEvolve
Tree
p42
(dp43
g7
I0
sg20
F0.6610069997434618
sg21
I01
sbsg7
I1
sg25
I01
sg26
cmath
sin
p44
sbsg22
(imyEvolve
Tree
p45
(dp46
g7
I1
sg8
(imyEvolve
Tree
p47
(dp48
g7
I0
sg20
F2.8658831763979595
sg21
I01
sbsg22
(imyEvolve
Tree
p49
(dp50
g7
I0
sg21
I00
sbsg25
I00
sg26
coperator
add
p51
sbsg25
I00
sg26
g51
sbsg7
I3
sg25
I01
sg26
g44
sbsg25
I00
sg26
g51
sbsg22
(imyEvolve
Tree
p52
(dp53
g15
(imyEvolve
Tree
p54
(dp55
g7
I3
sg8
(imyEvolve
Tree
p56
(dp57
g15
(imyEvolve
Tree
p58
(dp59
g7
I1
sg8
(imyEvolve
Tree
p60
(dp61
g7
I0
sg20
F3.3605699594616603
sg21
I01
sbsg22
(imyEvolve
Tree
p62
(dp63
g7
I0
sg20
F-4.595543570612691
sg21
I01
sbsg25
I00
sg26
coperator
sub
p64
sbsg7
I2
sg25
I01
sg26
cmyEvolve
square
p65
sbsg22
(imyEvolve
Tree
p66
(dp67
g15
(imyEvolve
Tree
p68
(dp69
g7
I1
sg8
(imyEvolve
Tree
p70
(dp71
g7
I0
sg21
I00
sbsg22
(imyEvolve
Tree
p72
(dp73
g7
I0
sg21
I00
sbsg25
I00
sg26
g64
sbsg7
I2
sg25
I01
sg26
g65
sbsg25
I00
sg26
g64
sbsg7
I4
sg25
I01
sg26
g65
sbsg25
I00
sg26
g51
sba(imyEvolve
Tree
p74
(dp75
g15
(imyEvolve
Tree
p76
(dp77
g7
I1
sg8
(imyEvolve
Tree
p78
(dp79
g7
I0
sg21
I00
sbsg22
(imyEvolve
Tree
p80
(dp81
g7
I0
sg21
I00
sbsg25
I00
sg26
g64
sbsg7
I2
sg25
I01
sg26
g44
sba(imyEvolve
Tree
p82
(dp83
g7
I5
sg8
(imyEvolve
Tree
p84
(dp85
g7
I4
sg8
(imyEvolve
Tree
p86
(dp87
g7
I3
sg8
(imyEvolve
Tree
p88
(dp89
g15
(imyEvolve
Tree
p90
(dp91
g15
(imyEvolve
Tree
p92
(dp93
g7
I0
sg21
I00
sbsg7
I1
sg25
I01
sg26
g65
sbsg7
I2
sg25
I01
sg26
g65
sbsg22
(imyEvolve
Tree
p94
(dp95
g15
(imyEvolve
Tree
p96
(dp97
g7
I1
sg8
(imyEvolve
Tree
p98
(dp99
g7
I0
sg20
F-2.324459286876972
sg21
I01
sbsg22
(imyEvolve
Tree
p100
(dp101
g7
I0
sg20
F1.2071813077453015
sg21
I01
sbsg25
I00
sg26
g27
sbsg7
I2
sg25
I01
sg26
g65
sbsg25
I00
sg26
g64
sbsg22
(imyEvolve
Tree
p102
(dp103
g15
(imyEvolve
Tree
p104
(dp105
g15
(imyEvolve
Tree
p106
(dp107
g7
I1
sg8
(imyEvolve
Tree
p108
(dp109
g7
I0
sg21
I00
sbsg22
(imyEvolve
Tree
p110
(dp111
g7
I0
sg20
F4.477202161424925
sg21
I01
sbsg25
I00
sg26
g64
sbsg7
I2
sg25
I01
sg26
g35
sbsg7
I3
sg25
I01
sg26
g44
sbsg25
I00
sg26
g51
sbsg22
(imyEvolve
Tree
p112
(dp113
g15
(imyEvolve
Tree
p114
(dp115
g7
I3
sg8
(imyEvolve
Tree
p116
(dp117
g15
(imyEvolve
Tree
p118
(dp119
g15
(imyEvolve
Tree
p120
(dp121
g7
I0
sg21
I00
sbsg7
I1
sg25
I01
sg26
g35
sbsg7
I2
sg25
I01
sg26
g44
sbsg22
(imyEvolve
Tree
p122
(dp123
g7
I2
sg8
(imyEvolve
Tree
p124
(dp125
g7
I1
sg8
(imyEvolve
Tree
p126
(dp127
g7
I0
sg21
I00
sbsg22
(imyEvolve
Tree
p128
(dp129
g7
I0
sg20
F4.690469749339432
sg21
I01
sbsg25
I00
sg26
g64
sbsg22
(imyEvolve
Tree
p130
(dp131
g7
I1
sg8
(imyEvolve
Tree
p132
(dp133
g7
I0
sg20
F-3.3500803098461827
sg21
I01
sbsg22
(imyEvolve
Tree
p134
(dp135
g7
I0
sg21
I00
sbsg25
I00
sg26
g64
sbsg25
I00
sg26
g27
sbsg25
I00
sg26
g27
sbsg7
I4
sg25
I01
sg26
g28
sbsg25
I00
sg26
g27
sba(imyEvolve
Tree
p136
(dp137
g15
(imyEvolve
Tree
p138
(dp139
g7
I3
sg8
(imyEvolve
Tree
p140
(dp141
g7
I2
sg8
(imyEvolve
Tree
p142
(dp143
g7
I1
sg8
(imyEvolve
Tree
p144
(dp145
g7
I0
sg20
F2.350218467233411
sg21
I01
sbsg22
(imyEvolve
Tree
p146
(dp147
g7
I0
sg20
F4.7100888719530225
sg21
I01
sbsg25
I00
sg26
g64
sbsg22
(imyEvolve
Tree
p148
(dp149
g7
I1
sg8
(imyEvolve
Tree
p150
(dp151
g7
I0
sg20
F-4.351512183856839
sg21
I01
sbsg22
(imyEvolve
Tree
p152
(dp153
g7
I0
sg21
I00
sbsg25
I00
sg26
g27
sbsg25
I00
sg26
g27
sbsg22
(imyEvolve
Tree
p154
(dp155
g15
(imyEvolve
Tree
p156
(dp157
g15
(imyEvolve
Tree
p158
(dp159
g7
I0
sg20
F4.333279910433873
sg21
I01
sbsg7
I1
sg25
I01
sg26
g65
sbsg7
I2
sg25
I01
sg26
g28
sbsg25
I00
sg26
g27
sbsg7
I4
sg25
I01
sg26
g35
sba(imyEvolve
Tree
p160
(dp161
g7
I3
sg8
(imyEvolve
Tree
p162
(dp163
g7
I2
sg8
(imyEvolve
Tree
p164
(dp165
g7
I1
sg8
(imyEvolve
Tree
p166
(dp167
g7
I0
sg20
F-0.6893929610751037
sg21
I01
sbsg22
(imyEvolve
Tree
p168
(dp169
g7
I0
sg20
F1.9181597349943704
sg21
I01
sbsg25
I00
sg26
g64
sbsg22
(imyEvolve
Tree
p170
(dp171
g7
I1
sg8
(imyEvolve
Tree
p172
(dp173
g7
I0
sg21
I00
sbsg22
(imyEvolve
Tree
p174
(dp175
g7
I0
sg21
I00
sbsg25
I00
sg26
g27
sbsg25
I00
sg26
g64
sbsg22
(imyEvolve
Tree
p176
(dp177
g15
(imyEvolve
Tree
p178
(dp179
g15
(imyEvolve
Tree
p180
(dp181
g7
I0
sg20
F3.5698882759332715
sg21
I01
sbsg7
I1
sg25
I01
sg26
g65
sbsg7
I2
sg25
I01
sg26
g44
sbsg25
I00
sg26
g27
sba(imyEvolve
Tree
p182
(dp183
g7
I4
sg8
(imyEvolve
Tree
p184
(dp185
g7
I3
sg8
(imyEvolve
Tree
p186
(dp187
g15
(imyEvolve
Tree
p188
(dp189
g15
(imyEvolve
Tree
p190
(dp191
g7
I0
sg20
F2.404215360662029
sg21
I01
sbsg7
I1
sg25
I01
sg26
g65
sbsg7
I2
sg25
I01
sg26
g65
sbsg22
(imyEvolve
Tree
p192
(dp193
g15
(imyEvolve
Tree
p194
(dp195
g15
(imyEvolve
Tree
p196
(dp197
g7
I0
sg20
F-2.5858318955009505
sg21
I01
sbsg7
I1
sg25
I01
sg26
g44
sbsg7
I2
sg25
I01
sg26
g65
sbsg25
I00
sg26
g27
sbsg22
(imyEvolve
Tree
p198
(dp199
g7
I3
sg8
(imyEvolve
Tree
p200
(dp201
g15
(imyEvolve
Tree
p202
(dp203
g15
(imyEvolve
Tree
p204
(dp205
g7
I0
sg21
I00
sbsg7
I1
sg25
I01
sg26
g44
sbsg7
I2
sg25
I01
sg26
g35
sbsg22
(imyEvolve
Tree
p206
(dp207
g15
(imyEvolve
Tree
p208
(dp209
g15
(imyEvolve
Tree
p210
(dp211
g7
I0
sg21
I00
sbsg7
I1
sg25
I01
sg26
g35
sbsg7
I2
sg25
I01
sg26
g44
sbsg25
I00
sg26
g27
sbsg25
I00
sg26
g51
sba(imyEvolve
Tree
p212
(dp213
g7
I2
sg8
(imyEvolve
Tree
p214
(dp215
g15
(imyEvolve
Tree
p216
(dp217
g7
I0
sg20
F-3.2863130666755547
sg21
I01
sbsg7
I1
sg25
I01
sg26
g35
sbsg22
(imyEvolve
Tree
p218
(dp219
g7
I1
sg8
(imyEvolve
Tree
p220
(dp221
g7
I0
sg21
I00
sbsg22
(imyEvolve
Tree
p222
(dp223
g7
I0
sg20
F1.018575538105634
sg21
I01
sbsg25
I00
sg26
g64
sbsg25
I00
sg26
g64
sba(imyEvolve
Tree
p224
(dp225
g15
(imyEvolve
Tree
p226
(dp227
g7
I3
sg8
(imyEvolve
Tree
p228
(dp229
g15
(imyEvolve
Tree
p230
(dp231
g15
(imyEvolve
Tree
p232
(dp233
g7
I0
sg21
I00
sbsg7
I1
sg25
I01
sg26
g35
sbsg7
I2
sg25
I01
sg26
g65
sbsg22
(imyEvolve
Tree
p234
(dp235
g7
I2
sg8
(imyEvolve
Tree
p236
(dp237
g15
(imyEvolve
Tree
p238
(dp239
g7
I0
sg20
F3.8668664907391452
sg21
I01
sbsg7
I1
sg25
I01
sg26
g65
sbsg22
(imyEvolve
Tree
p240
(dp241
g7
I1
sg8
(imyEvolve
Tree
p242
(dp243
g7
I0
sg21
I00
sbsg22
(imyEvolve
Tree
p244
(dp245
g7
I0
sg20
F-4.995185641692927
sg21
I01
sbsg25
I00
sg26
g51
sbsg25
I00
sg26
g27
sbsg25
I00
sg26
g51
sbsg7
I4
sg25
I01
sg26
g35
sba(imyEvolve
Tree
p246
(dp247
g15
(imyEvolve
Tree
p248
(dp249
g15
(imyEvolve
Tree
p250
(dp251
g7
I1
sg8
(imyEvolve
Tree
p252
(dp253
g7
I0
sg21
I00
sbsg22
(imyEvolve
Tree
p254
(dp255
g7
I0
sg21
I00
sbsg25
I00
sg26
g51
sbsg7
I2
sg25
I01
sg26
g28
sbsg7
I3
sg25
I01
sg26
g28
sba(imyEvolve
Tree
p256
(dp257
g7
I3
sg8
(imyEvolve
Tree
p258
(dp259
g7
I2
sg8
(imyEvolve
Tree
p260
(dp261
g7
I1
sg8
(imyEvolve
Tree
p262
(dp263
g7
I0
sg21
I00
sbsg22
(imyEvolve
Tree
p264
(dp265
g7
I0
sg20
F0.4610454924243701
sg21
I01
sbsg25
I00
sg26
g27
sbsg22
(imyEvolve
Tree
p266
(dp267
g15
(imyEvolve
Tree
p268
(dp269
g7
I0
sg20
F2.0545386252171145
sg21
I01
sbsg7
I1
sg25
I01
sg26
g44
sbsg25
I00
sg26
g64
sbsg22
(imyEvolve
Tree
p270
(dp271
g15
(imyEvolve
Tree
p272
(dp273
g15
(imyEvolve
Tree
p274
(dp275
g7
I0
sg20
F-1.2501560986324032
sg21
I01
sbsg7
I1
sg25
I01
sg26
g44
sbsg7
I2
sg25
I01
sg26
g65
sbsg25
I00
sg26
g64
sba(imyEvolve
Tree
p276
(dp277
g15
(imyEvolve
Tree
p278
(dp279
g15
(imyEvolve
Tree
p280
(dp281
g15
(imyEvolve
Tree
p282
(dp283
g15
(imyEvolve
Tree
p284
(dp285
g15
(imyEvolve
Tree
p286
(dp287
g7
I0
sg20
F-3.449497553318274
sg21
I01
sbsg7
I1
sg25
I01
sg26
g44
sbsg7
I2
sg25
I01
sg26
g28
sbsg7
I3
sg25
I01
sg26
g28
sbsg7
I4
sg25
I01
sg26
g44
sbsg7
I5
sg25
I01
sg26
g65
sba(imyEvolve
Tree
p288
(dp289
g15
(imyEvolve
Tree
p290
(dp291
g7
I2
sg8
(imyEvolve
Tree
p292
(dp293
g15
(imyEvolve
Tree
p294
(dp295
g7
I0
sg20
F-1.5026747055179426
sg21
I01
sbsg7
I1
sg25
I01
sg26
g65
sbsg22
(imyEvolve
Tree
p296
(dp297
g15
(imyEvolve
Tree
p298
(dp299
g7
I0
sg21
I00
sbsg7
I1
sg25
I01
sg26
g44
sbsg25
I00
sg26
g27
sbsg7
I3
sg25
I01
sg26
g65
sbaa(lp300
(imyEvolve
Tree
p301
(dp302
g7
I3
sg8
(imyEvolve
Tree
p303
(dp304
g15
(imyEvolve
Tree
p305
(dp306
g15
(imyEvolve
Tree
p307
(dp308
g7
I0
sg20
F0.19543408561631992
sg21
I01
sbsg7
I1
sg25
I01
sg26
g44
sbsg7
I2
sg25
I01
sg26
g28
sbsg22
(imyEvolve
Tree
p309
(dp310
g15
(imyEvolve
Tree
p311
(dp312
g7
I1
sg8
(imyEvolve
Tree
p313
(dp314
g7
I0
sg20
F-4.327190666057625
sg21
I01
sbsg22
(imyEvolve
Tree
p315
(dp316
g7
I0
sg20
F2.466358095692181
sg21
I01
sbsg25
I00
sg26
g27
sbsg7
I2
sg25
I01
sg26
g44
sbsg25
I00
sg26
g51
sba(imyEvolve
Tree
p317
(dp318
g15
(imyEvolve
Tree
p319
(dp320
g15
(imyEvolve
Tree
p321
(dp322
g15
(imyEvolve
Tree
p323
(dp324
g7
I0
sg21
I00
sbsg7
I1
sg25
I01
sg26
g44
sbsg7
I2
sg25
I01
sg26
g44
sbsg7
I3
sg25
I01
sg26
g44
sba(imyEvolve
Tree
p325
(dp326
g7
I2
sg8
(imyEvolve
Tree
p327
(dp328
g7
I1
sg8
(imyEvolve
Tree
p329
(dp330
g7
I0
sg21
I00
sbsg22
(imyEvolve
Tree
p331
(dp332
g7
I0
sg21
I00
sbsg25
I00
sg26
g51
sbsg22
(imyEvolve
Tree
p333
(dp334
g15
(imyEvolve
Tree
p335
(dp336
g7
I0
sg20
F3.865140367181146
sg21
I01
sbsg7
I1
sg25
I01
sg26
g35
sbsg25
I00
sg26
g51
sba(imyEvolve
Tree
p337
(dp338
g15
(imyEvolve
Tree
p339
(dp340
g15
(imyEvolve
Tree
p341
(dp342
g7
I0
sg20
F-0.24895744536775677
sg21
I01
sbsg7
I1
sg25
I01
sg26
g28
sbsg7
I2
sg25
I01
sg26
g65
sba(imyEvolve
Tree
p343
(dp344
g7
I4
sg8
(imyEvolve
Tree
p345
(dp346
g7
I3
sg8
(imyEvolve
Tree
p347
(dp348
g7
I2
sg8
(imyEvolve
Tree
p349
(dp350
g15
(imyEvolve
Tree
p351
(dp352
g7
I0
sg21
I00
sbsg7
I1
sg25
I01
sg26
g44
sbsg22
(imyEvolve
Tree
p353
(dp354
g15
(imyEvolve
Tree
p355
(dp356
g7
I0
sg20
F-4.85512525123
sg21
I01
sbsg7
I1
sg25
I01
sg26
g44
sbsg25
I00
sg26
g51
sbsg22
(imyEvolve
Tree
p357
(dp358
g7
I2
sg8
(imyEvolve
Tree
p359
(dp360
g7
I1
sg8
(imyEvolve
Tree
p361
(dp362
g7
I0
sg20
F-0.7931350863136615
sg21
I01
sbsg22
(imyEvolve
Tree
p363
(dp364
g7
I0
sg21
I00
sbsg25
I00
sg26
g51
sbsg22
(imyEvolve
Tree
p365
(dp366
g15
(imyEvolve
Tree
p367
(dp368
g7
I0
sg20
F-3.0136747313911028
sg21
I01
sbsg7
I1
sg25
I01
sg26
g28
sbsg25
I00
sg26
g51
sbsg25
I00
sg26
g51
sbsg22
(imyEvolve
Tree
p369
(dp370
g15
(imyEvolve
Tree
p371
(dp372
g15
(imyEvolve
Tree
p373
(dp374
g15
(imyEvolve
Tree
p375
(dp376
g7
I0
sg20
F1.0958138908531359
sg21
I01
sbsg7
I1
sg25
I01
sg26
g44
sbsg7
I2
sg25
I01
sg26
g65
sbsg7
I3
sg25
I01
sg26
g28
sbsg25
I00
sg26
g27
sba(imyEvolve
Tree
p377
(dp378
g15
(imyEvolve
Tree
p379
(dp380
g7
I4
sg8
(imyEvolve
Tree
p381
(dp382
g7
I3
sg8
(imyEvolve
Tree
p383
(dp384
g7
I2
sg8
(imyEvolve
Tree
p385
(dp386
g15
(imyEvolve
Tree
p387
(dp388
g7
I0
sg21
I00
sbsg7
I1
sg25
I01
sg26
g35
sbsg22
(imyEvolve
Tree
p389
(dp390
g15
(imyEvolve
Tree
p391
(dp392
g7
I0
sg20
F0.7926225917694696
sg21
I01
sbsg7
I1
sg25
I01
sg26
g28
sbsg25
I00
sg26
g27
sbsg22
(imyEvolve
Tree
p393
(dp394
g15
(imyEvolve
Tree
p395
(dp396
g7
I1
sg8
(imyEvolve
Tree
p397
(dp398
g7
I0
sg20
F-2.9764582344641157
sg21
I01
sbsg22
(imyEvolve
Tree
p399
(dp400
g7
I0
sg20
F0.10271431065935488
sg21
I01
sbsg25
I00
sg26
g64
sbsg7
I2
sg25
I01
sg26
g44
sbsg25
I00
sg26
g27
sbsg22
(imyEvolve
Tree
p401
(dp402
g7
I3
sg8
(imyEvolve
Tree
p403
(dp404
g15
(imyEvolve
Tree
p405
(dp406
g15
(imyEvolve
Tree
p407
(dp408
g7
I0
sg21
I00
sbsg7
I1
sg25
I01
sg26
g35
sbsg7
I2
sg25
I01
sg26
g35
sbsg22
(imyEvolve
Tree
p409
(dp410
g7
I2
sg8
(imyEvolve
Tree
p411
(dp412
g15
(imyEvolve
Tree
p413
(dp414
g7
I0
sg20
F2.210832387300509
sg21
I01
sbsg7
I1
sg25
I01
sg26
g65
sbsg22
(imyEvolve
Tree
p415
(dp416
g15
(imyEvolve
Tree
p417
(dp418
g7
I0
sg20
F-3.7492483890439123
sg21
I01
sbsg7
I1
sg25
I01
sg26
g44
sbsg25
I00
sg26
g64
sbsg25
I00
sg26
g51
sbsg25
I00
sg26
g64
sbsg7
I5
sg25
I01
sg26
g28
sba(imyEvolve
Tree
p419
(dp420
g7
I5
sg8
(imyEvolve
Tree
p421
(dp422
g15
(imyEvolve
Tree
p423
(dp424
g15
(imyEvolve
Tree
p425
(dp426
g7
I2
sg8
(imyEvolve
Tree
p427
(dp428
g15
(imyEvolve
Tree
p429
(dp430
g7
I0
sg21
I00
sbsg7
I1
sg25
I01
sg26
g65
sbsg22
(imyEvolve
Tree
p431
(dp432
g7
I1
sg8
(imyEvolve
Tree
p433
(dp434
g7
I0
sg21
I00
sbsg22
(imyEvolve
Tree
p435
(dp436
g7
I0
sg20
F3.108743012452182
sg21
I01
sbsg25
I00
sg26
g64
sbsg25
I00
sg26
g64
sbsg7
I3
sg25
I01
sg26
g28
sbsg7
I4
sg25
I01
sg26
g65
sbsg22
(imyEvolve
Tree
p437
(dp438
g15
(imyEvolve
Tree
p439
(dp440
g15
(imyEvolve
Tree
p441
(dp442
g7
I2
sg8
(imyEvolve
Tree
p443
(dp444
g15
(imyEvolve
Tree
p445
(dp446
g7
I0
sg21
I00
sbsg7
I1
sg25
I01
sg26
g28
sbsg22
(imyEvolve
Tree
p447
(dp448
g7
I1
sg8
(imyEvolve
Tree
p449
(dp450
g7
I0
sg20
F-1.3783815619641038
sg21
I01
sbsg22
(imyEvolve
Tree
p451
(dp452
g7
I0
sg20
F1.5917347550596226
sg21
I01
sbsg25
I00
sg26
g27
sbsg25
I00
sg26
g64
sbsg7
I3
sg25
I01
sg26
g35
sbsg7
I4
sg25
I01
sg26
g35
sbsg25
I00
sg26
g64
sba(imyEvolve
Tree
p453
(dp454
g7
I4
sg8
(imyEvolve
Tree
p455
(dp456
g15
(imyEvolve
Tree
p457
(dp458
g7
I2
sg8
(imyEvolve
Tree
p459
(dp460
g7
I1
sg8
(imyEvolve
Tree
p461
(dp462
g7
I0
sg20
F1.1613389095190385
sg21
I01
sbsg22
(imyEvolve
Tree
p463
(dp464
g7
I0
sg21
I00
sbsg25
I00
sg26
g51
sbsg22
(imyEvolve
Tree
p465
(dp466
g15
(imyEvolve
Tree
p467
(dp468
g7
I0
sg20
F-4.922995880481796
sg21
I01
sbsg7
I1
sg25
I01
sg26
g28
sbsg25
I00
sg26
g51
sbsg7
I3
sg25
I01
sg26
g35
sbsg22
(imyEvolve
Tree
p469
(dp470
g15
(imyEvolve
Tree
p471
(dp472
g15
(imyEvolve
Tree
p473
(dp474
g15
(imyEvolve
Tree
p475
(dp476
g7
I0
sg20
F2.9354461604231075
sg21
I01
sbsg7
I1
sg25
I01
sg26
g65
sbsg7
I2
sg25
I01
sg26
g44
sbsg7
I3
sg25
I01
sg26
g65
sbsg25
I00
sg26
g51
sba(imyEvolve
Tree
p477
(dp478
g7
I2
sg8
(imyEvolve
Tree
p479
(dp480
g7
I1
sg8
(imyEvolve
Tree
p481
(dp482
g7
I0
sg20
F1.4977839674517268
sg21
I01
sbsg22
(imyEvolve
Tree
p483
(dp484
g7
I0
sg20
F2.432909413895085
sg21
I01
sbsg25
I00
sg26
g27
sbsg22
(imyEvolve
Tree
p485
(dp486
g7
I1
sg8
(imyEvolve
Tree
p487
(dp488
g7
I0
sg20
F2.766670144533414
sg21
I01
sbsg22
(imyEvolve
Tree
p489
(dp490
g7
I0
sg21
I00
sbsg25
I00
sg26
g27
sbsg25
I00
sg26
g51
sba(imyEvolve
Tree
p491
(dp492
g15
(imyEvolve
Tree
p493
(dp494
g15
(imyEvolve
Tree
p495
(dp496
g15
(imyEvolve
Tree
p497
(dp498
g15
(imyEvolve
Tree
p499
(dp500
g7
I1
sg8
(imyEvolve
Tree
p501
(dp502
g7
I0
sg21
I00
sbsg22
(imyEvolve
Tree
p503
(dp504
g7
I0
sg20
F-3.815236637090682
sg21
I01
sbsg25
I00
sg26
g51
sbsg7
I2
sg25
I01
sg26
g28
sbsg7
I3
sg25
I01
sg26
g65
sbsg7
I4
sg25
I01
sg26
g65
sbsg7
I5
sg25
I01
sg26
g65
sba(imyEvolve
Tree
p505
(dp506
g7
I4
sg8
(imyEvolve
Tree
p507
(dp508
g7
I3
sg8
(imyEvolve
Tree
p509
(dp510
g7
I2
sg8
(imyEvolve
Tree
p511
(dp512
g15
(imyEvolve
Tree
p513
(dp514
g7
I0
sg20
F-4.170672052232485
sg21
I01
sbsg7
I1
sg25
I01
sg26
g44
sbsg22
(imyEvolve
Tree
p515
(dp516
g7
I1
sg8
(imyEvolve
Tree
p517
(dp518
g7
I0
sg21
I00
sbsg22
(imyEvolve
Tree
p519
(dp520
g7
I0
sg20
F1.4345758568390021
sg21
I01
sbsg25
I00
sg26
g51
sbsg25
I00
sg26
g51
sbsg22
(imyEvolve
Tree
p521
(dp522
g7
I2
sg8
(imyEvolve
Tree
p523
(dp524
g15
(imyEvolve
Tree
p525
(dp526
g7
I0
sg21
I00
sbsg7
I1
sg25
I01
sg26
g65
sbsg22
(imyEvolve
Tree
p527
(dp528
g7
I1
sg8
(imyEvolve
Tree
p529
(dp530
g7
I0
sg21
I00
sbsg22
(imyEvolve
Tree
p531
(dp532
g7
I0
sg21
I00
sbsg25
I00
sg26
g27
sbsg25
I00
sg26
g27
sbsg25
I00
sg26
g27
sbsg22
(imyEvolve
Tree
p533
(dp534
g7
I3
sg8
(imyEvolve
Tree
p535
(dp536
g15
(imyEvolve
Tree
p537
(dp538
g15
(imyEvolve
Tree
p539
(dp540
g7
I0
sg20
F-1.1153862447125649
sg21
I01
sbsg7
I1
sg25
I01
sg26
g44
sbsg7
I2
sg25
I01
sg26
g65
sbsg22
(imyEvolve
Tree
p541
(dp542
g7
I2
sg8
(imyEvolve
Tree
p543
(dp544
g15
(imyEvolve
Tree
p545
(dp546
g7
I0
sg21
I00
sbsg7
I1
sg25
I01
sg26
g65
sbsg22
(imyEvolve
Tree
p547
(dp548
g15
(imyEvolve
Tree
p549
(dp550
g7
I0
sg20
F-3.0535994716281447
sg21
I01
sbsg7
I1
sg25
I01
sg26
g44
sbsg25
I00
sg26
g27
sbsg25
I00
sg26
g51
sbsg25
I00
sg26
g64
sba(imyEvolve
Tree
p551
(dp552
g15
(imyEvolve
Tree
p553
(dp554
g15
(imyEvolve
Tree
p555
(dp556
g7
I2
sg8
(imyEvolve
Tree
p557
(dp558
g15
(imyEvolve
Tree
p559
(dp560
g7
I0
sg21
I00
sbsg7
I1
sg25
I01
sg26
g44
sbsg22
(imyEvolve
Tree
p561
(dp562
g7
I1
sg8
(imyEvolve
Tree
p563
(dp564
g7
I0
sg21
I00
sbsg22
(imyEvolve
Tree
p565
(dp566
g7
I0
sg21
I00
sbsg25
I00
sg26
g64
sbsg25
I00
sg26
g27
sbsg7
I3
sg25
I01
sg26
g44
sbsg7
I4
sg25
I01
sg26
g28
sba(imyEvolve
Tree
p567
(dp568
g15
(imyEvolve
Tree
p569
(dp570
g7
I4
sg8
(imyEvolve
Tree
p571
(dp572
g15
(imyEvolve
Tree
p573
(dp574
g15
(imyEvolve
Tree
p575
(dp576
g7
I1
sg8
(imyEvolve
Tree
p577
(dp578
g7
I0
sg21
I00
sbsg22
(imyEvolve
Tree
p579
(dp580
g7
I0
sg20
F-4.0367759483796934
sg21
I01
sbsg25
I00
sg26
g51
sbsg7
I2
sg25
I01
sg26
g35
sbsg7
I3
sg25
I01
sg26
g28
sbsg22
(imyEvolve
Tree
p581
(dp582
g7
I3
sg8
(imyEvolve
Tree
p583
(dp584
g15
(imyEvolve
Tree
p585
(dp586
g7
I1
sg8
(imyEvolve
Tree
p587
(dp588
g7
I0
sg20
F-4.56983949369265
sg21
I01
sbsg22
(imyEvolve
Tree
p589
(dp590
g7
I0
sg20
F3.1063442607948275
sg21
I01
sbsg25
I00
sg26
g27
sbsg7
I2
sg25
I01
sg26
g35
sbsg22
(imyEvolve
Tree
p591
(dp592
g15
(imyEvolve
Tree
p593
(dp594
g15
(imyEvolve
Tree
p595
(dp596
g7
I0
sg20
F3.1794814010375507
sg21
I01
sbsg7
I1
sg25
I01
sg26
g44
sbsg7
I2
sg25
I01
sg26
g35
sbsg25
I00
sg26
g64
sbsg25
I00
sg26
g64
sbsg7
I5
sg25
I01
sg26
g28
sba(imyEvolve
Tree
p597
(dp598
g7
I5
sg8
(imyEvolve
Tree
p599
(dp600
g7
I4
sg8
(imyEvolve
Tree
p601
(dp602
g7
I3
sg8
(imyEvolve
Tree
p603
(dp604
g15
(imyEvolve
Tree
p605
(dp606
g15
(imyEvolve
Tree
p607
(dp608
g7
I0
sg20
F1.2927273525632987
sg21
I01
sbsg7
I1
sg25
I01
sg26
g35
sbsg7
I2
sg25
I01
sg26
g28
sbsg22
(imyEvolve
Tree
p609
(dp610
g7
I2
sg8
(imyEvolve
Tree
p611
(dp612
g15
(imyEvolve
Tree
p613
(dp614
g7
I0
sg20
F-4.90477876803873
sg21
I01
sbsg7
I1
sg25
I01
sg26
g44
sbsg22
(imyEvolve
Tree
p615
(dp616
g7
I1
sg8
(imyEvolve
Tree
p617
(dp618
g7
I0
sg21
I00
sbsg22
(imyEvolve
Tree
p619
(dp620
g7
I0
sg20
F-0.6735647863798455
sg21
I01
sbsg25
I00
sg26
g64
sbsg25
I00
sg26
g27
sbsg25
I00
sg26
g51
sbsg22
(imyEvolve
Tree
p621
(dp622
g7
I3
sg8
(imyEvolve
Tree
p623
(dp624
g7
I2
sg8
(imyEvolve
Tree
p625
(dp626
g15
(imyEvolve
Tree
p627
(dp628
g7
I0
sg21
I00
sbsg7
I1
sg25
I01
sg26
g44
sbsg22
(imyEvolve
Tree
p629
(dp630
g15
(imyEvolve
Tree
p631
(dp632
g7
I0
sg20
F-1.4242453621095832
sg21
I01
sbsg7
I1
sg25
I01
sg26
g35
sbsg25
I00
sg26
g64
sbsg22
(imyEvolve
Tree
p633
(dp634
g7
I2
sg8
(imyEvolve
Tree
p635
(dp636
g15
(imyEvolve
Tree
p637
(dp638
g7
I0
sg20
F1.3507498442554455
sg21
I01
sbsg7
I1
sg25
I01
sg26
g65
sbsg22
(imyEvolve
Tree
p639
(dp640
g15
(imyEvolve
Tree
p641
(dp642
g7
I0
sg20
F-0.6323241174673244
sg21
I01
sbsg7
I1
sg25
I01
sg26
g35
sbsg25
I00
sg26
g27
sbsg25
I00
sg26
g64
sbsg25
I00
sg26
g27
sbsg22
(imyEvolve
Tree
p643
(dp644
g7
I4
sg8
(imyEvolve
Tree
p645
(dp646
g15
(imyEvolve
Tree
p647
(dp648
g15
(imyEvolve
Tree
p649
(dp650
g7
I1
sg8
(imyEvolve
Tree
p651
(dp652
g7
I0
sg20
F-1.5954986811908167
sg21
I01
sbsg22
(imyEvolve
Tree
p653
(dp654
g7
I0
sg21
I00
sbsg25
I00
sg26
g64
sbsg7
I2
sg25
I01
sg26
g35
sbsg7
I3
sg25
I01
sg26
g35
sbsg22
(imyEvolve
Tree
p655
(dp656
g15
(imyEvolve
Tree
p657
(dp658
g7
I2
sg8
(imyEvolve
Tree
p659
(dp660
g7
I1
sg8
(imyEvolve
Tree
p661
(dp662
g7
I0
sg21
I00
sbsg22
(imyEvolve
Tree
p663
(dp664
g7
I0
sg21
I00
sbsg25
I00
sg26
g64
sbsg22
(imyEvolve
Tree
p665
(dp666
g7
I1
sg8
(imyEvolve
Tree
p667
(dp668
g7
I0
sg20
F4.707998553583453
sg21
I01
sbsg22
(imyEvolve
Tree
p669
(dp670
g7
I0
sg21
I00
sbsg25
I00
sg26
g27
sbsg25
I00
sg26
g51
sbsg7
I3
sg25
I01
sg26
g44
sbsg25
I00
sg26
g64
sbsg25
I00
sg26
g64
sbaasS'weightSharing'
p671
(lp672
I01
aI00
asS'fitnessValid'
p673
I00
sS'fitness'
p674
cnumpy.core.multiarray
scalar
p675
(cnumpy
dtype
p676
(S'f8'
p677
I0
I1
tp678
Rp679
(I3
S'<'
p680
NNNI-1
I-1
I0
tp681
bS'\x00\xb0%\xe4\xe3aT?'
p682
tp683
Rp684
sS'alpha'
p685
F0.00602563430098946
sS'resolution'
p686
I95
sb.