(imyEvolve
Individual
p0
(dp1
S'funcs'
p2
(lp3
(lp4
(imyEvolve
Tree
p5
(dp6
S'depth'
p7
I2
sS'left'
p8
(imyEvolve
Tree
p9
(dp10
S'below'
p11
(imyEvolve
Tree
p12
(dp13
g7
I0
sS'isConstant'
p14
I00
sbsg7
I1
sS'single'
p15
I01
sS'op'
p16
cmath
cos
p17
sbsS'right'
p18
(imyEvolve
Tree
p19
(dp20
g7
I1
sg8
(imyEvolve
Tree
p21
(dp22
g7
I0
sS'constant'
p23
F-0.7309459031021817
sg14
I01
sbsg18
(imyEvolve
Tree
p24
(dp25
g7
I0
sg14
I00
sbsg15
I00
sg16
coperator
sub
p26
sbsg15
I00
sg16
coperator
add
p27
sba(imyEvolve
Tree
p28
(dp29
g7
I4
sg8
(imyEvolve
Tree
p30
(dp31
g7
I3
sg8
(imyEvolve
Tree
p32
(dp33
g11
(imyEvolve
Tree
p34
(dp35
g7
I1
sg8
(imyEvolve
Tree
p36
(dp37
g7
I0
sg23
F2.507375292753313
sg14
I01
sbsg18
(imyEvolve
Tree
p38
(dp39
g7
I0
sg23
F0.7782712907401734
sg14
I01
sbsg15
I00
sg16
coperator
mul
p40
sbsg7
I2
sg15
I01
sg16
cmyEvolve
absSqrt
p41
sbsg18
(imyEvolve
Tree
p42
(dp43
g11
(imyEvolve
Tree
p44
(dp45
g11
(imyEvolve
Tree
p46
(dp47
g7
I0
sg14
I00
sbsg7
I1
sg15
I01
sg16
cmyEvolve
square
p48
sbsg7
I2
sg15
I01
sg16
g17
sbsg15
I00
sg16
g40
sbsg18
(imyEvolve
Tree
p49
(dp50
g11
(imyEvolve
Tree
p51
(dp52
g11
(imyEvolve
Tree
p53
(dp54
g11
(imyEvolve
Tree
p55
(dp56
g7
I0
sg14
I00
sbsg7
I1
sg15
I01
sg16
cmath
sin
p57
sbsg7
I2
sg15
I01
sg16
g48
sbsg7
I3
sg15
I01
sg16
g57
sbsg15
I00
sg16
g40
sba(imyEvolve
Tree
p58
(dp59
g7
I4
sg8
(imyEvolve
Tree
p60
(dp61
g7
I3
sg8
(imyEvolve
Tree
p62
(dp63
g7
I2
sg8
(imyEvolve
Tree
p64
(dp65
g11
(imyEvolve
Tree
p66
(dp67
g7
I0
sg14
I00
sbsg7
I1
sg15
I01
sg16
g17
sbsg18
(imyEvolve
Tree
p68
(dp69
g7
I1
sg8
(imyEvolve
Tree
p70
(dp71
g7
I0
sg14
I00
sbsg18
(imyEvolve
Tree
p72
(dp73
g7
I0
sg23
F-0.9650580708630505
sg14
I01
sbsg15
I00
sg16
g40
sbsg15
I00
sg16
g40
sbsg18
(imyEvolve
Tree
p74
(dp75
g7
I2
sg8
(imyEvolve
Tree
p76
(dp77
g11
(imyEvolve
Tree
p78
(dp79
g7
I0
sg14
I00
sbsg7
I1
sg15
I01
sg16
g17
sbsg18
(imyEvolve
Tree
p80
(dp81
g11
(imyEvolve
Tree
p82
(dp83
g7
I0
sg14
I00
sbsg7
I1
sg15
I01
sg16
g41
sbsg15
I00
sg16
g40
sbsg15
I00
sg16
g26
sbsg18
(imyEvolve
Tree
p84
(dp85
g7
I3
sg8
(imyEvolve
Tree
p86
(dp87
g7
I2
sg8
(imyEvolve
Tree
p88
(dp89
g11
(imyEvolve
Tree
p90
(dp91
g7
I0
sg14
I00
sbsg7
I1
sg15
I01
sg16
g48
sbsg18
(imyEvolve
Tree
p92
(dp93
g7
I1
sg8
(imyEvolve
Tree
p94
(dp95
g7
I0
sg23
F4.081334980252274
sg14
I01
sbsg18
(imyEvolve
Tree
p96
(dp97
g7
I0
sg14
I00
sbsg15
I00
sg16
g40
sbsg15
I00
sg16
g40
sbsg18
(imyEvolve
Tree
p98
(dp99
g11
(imyEvolve
Tree
p100
(dp101
g7
I1
sg8
(imyEvolve
Tree
p102
(dp103
g7
I0
sg14
I00
sbsg18
(imyEvolve
Tree
p104
(dp105
g7
I0
sg14
I00
sbsg15
I00
sg16
g40
sbsg7
I2
sg15
I01
sg16
g17
sbsg15
I00
sg16
g27
sbsg15
I00
sg16
g26
sba(imyEvolve
Tree
p106
(dp107
g7
I5
sg8
(imyEvolve
Tree
p108
(dp109
g7
I4
sg8
(imyEvolve
Tree
p110
(dp111
g7
I3
sg8
(imyEvolve
Tree
p112
(dp113
g7
I2
sg8
(imyEvolve
Tree
p114
(dp115
g11
(imyEvolve
Tree
p116
(dp117
g7
I0
sg14
I00
sbsg7
I1
sg15
I01
sg16
g48
sbsg18
(imyEvolve
Tree
p118
(dp119
g7
I1
sg8
(imyEvolve
Tree
p120
(dp121
g7
I0
sg23
F-1.3311553876572022
sg14
I01
sbsg18
(imyEvolve
Tree
p122
(dp123
g7
I0
sg14
I00
sbsg15
I00
sg16
g27
sbsg15
I00
sg16
g27
sbsg18
(imyEvolve
Tree
p124
(dp125
g11
(imyEvolve
Tree
p126
(dp127
g11
(imyEvolve
Tree
p128
(dp129
g7
I0
sg14
I00
sbsg7
I1
sg15
I01
sg16
g41
sbsg7
I2
sg15
I01
sg16
g48
sbsg15
I00
sg16
g27
sbsg18
(imyEvolve
Tree
p130
(dp131
g7
I3
sg8
(imyEvolve
Tree
p132
(dp133
g11
(imyEvolve
Tree
p134
(dp135
g7
I1
sg8
(imyEvolve
Tree
p136
(dp137
g7
I0
sg23
F-3.27693390531435
sg14
I01
sbsg18
(imyEvolve
Tree
p138
(dp139
g7
I0
sg23
F2.6925385144444958
sg14
I01
sbsg15
I00
sg16
g27
sbsg7
I2
sg15
I01
sg16
g17
sbsg18
(imyEvolve
Tree
p140
(dp141
g11
(imyEvolve
Tree
p142
(dp143
g7
I1
sg8
(imyEvolve
Tree
p144
(dp145
g7
I0
sg23
F-4.399968507454415
sg14
I01
sbsg18
(imyEvolve
Tree
p146
(dp147
g7
I0
sg23
F-2.9878669715700026
sg14
I01
sbsg15
I00
sg16
g26
sbsg7
I2
sg15
I01
sg16
g17
sbsg15
I00
sg16
g27
sbsg15
I00
sg16
g27
sbsg18
(imyEvolve
Tree
p148
(dp149
g7
I4
sg8
(imyEvolve
Tree
p150
(dp151
g7
I3
sg8
(imyEvolve
Tree
p152
(dp153
g11
(imyEvolve
Tree
p154
(dp155
g7
I1
sg8
(imyEvolve
Tree
p156
(dp157
g7
I0
sg23
F-1.3745474157821977
sg14
I01
sbsg18
(imyEvolve
Tree
p158
(dp159
g7
I0
sg14
I00
sbsg15
I00
sg16
g26
sbsg7
I2
sg15
I01
sg16
g41
sbsg18
(imyEvolve
Tree
p160
(dp161
g11
(imyEvolve
Tree
p162
(dp163
g11
(imyEvolve
Tree
p164
(dp165
g7
I0
sg23
F1.1360928557527306
sg14
I01
sbsg7
I1
sg15
I01
sg16
g17
sbsg7
I2
sg15
I01
sg16
g41
sbsg15
I00
sg16
g27
sbsg18
(imyEvolve
Tree
p166
(dp167
g7
I3
sg8
(imyEvolve
Tree
p168
(dp169
g11
(imyEvolve
Tree
p170
(dp171
g11
(imyEvolve
Tree
p172
(dp173
g7
I0
sg14
I00
sbsg7
I1
sg15
I01
sg16
g57
sbsg7
I2
sg15
I01
sg16
g41
sbsg18
(imyEvolve
Tree
p174
(dp175
g11
(imyEvolve
Tree
p176
(dp177
g11
(imyEvolve
Tree
p178
(dp179
g7
I0
sg14
I00
sbsg7
I1
sg15
I01
sg16
g48
sbsg7
I2
sg15
I01
sg16
g41
sbsg15
I00
sg16
g40
sbsg15
I00
sg16
g27
sbsg15
I00
sg16
g26
sba(imyEvolve
Tree
p180
(dp181
g7
I2
sg8
(imyEvolve
Tree
p182
(dp183
g11
(imyEvolve
Tree
p184
(dp185
g7
I0
sg23
F-3.9629976149963673
sg14
I01
sbsg7
I1
sg15
I01
sg16
g57
sbsg18
(imyEvolve
Tree
p186
(dp187
g11
(imyEvolve
Tree
p188
(dp189
g7
I0
sg23
F-0.6566557417886001
sg14
I01
sbsg7
I1
sg15
I01
sg16
g17
sbsg15
I00
sg16
g27
sba(imyEvolve
Tree
p190
(dp191
g11
(imyEvolve
Tree
p192
(dp193
g11
(imyEvolve
Tree
p194
(dp195
g7
I2
sg8
(imyEvolve
Tree
p196
(dp197
g7
I1
sg8
(imyEvolve
Tree
p198
(dp199
g7
I0
sg14
I00
sbsg18
(imyEvolve
Tree
p200
(dp201
g7
I0
sg14
I00
sbsg15
I00
sg16
g40
sbsg18
(imyEvolve
Tree
p202
(dp203
g7
I1
sg8
(imyEvolve
Tree
p204
(dp205
g7
I0
sg23
F3.1092525775001327
sg14
I01
sbsg18
(imyEvolve
Tree
p206
(dp207
g7
I0
sg14
I00
sbsg15
I00
sg16
g40
sbsg15
I00
sg16
g40
sbsg7
I3
sg15
I01
sg16
g17
sbsg7
I4
sg15
I01
sg16
g57
sba(imyEvolve
Tree
p208
(dp209
g11
(imyEvolve
Tree
p210
(dp211
g7
I1
sg8
(imyEvolve
Tree
p212
(dp213
g7
I0
sg14
I00
sbsg18
(imyEvolve
Tree
p214
(dp215
g7
I0
sg23
F1.2310251807150872
sg14
I01
sbsg15
I00
sg16
g26
sbsg7
I2
sg15
I01
sg16
g57
sba(imyEvolve
Tree
p216
(dp217
g7
I5
sg8
(imyEvolve
Tree
p218
(dp219
g11
(imyEvolve
Tree
p220
(dp221
g11
(imyEvolve
Tree
p222
(dp223
g11
(imyEvolve
Tree
p224
(dp225
g11
(imyEvolve
Tree
p226
(dp227
g7
I0
sg14
I00
sbsg7
I1
sg15
I01
sg16
g57
sbsg7
I2
sg15
I01
sg16
g48
sbsg7
I3
sg15
I01
sg16
g57
sbsg7
I4
sg15
I01
sg16
g17
sbsg18
(imyEvolve
Tree
p228
(dp229
g11
(imyEvolve
Tree
p230
(dp231
g11
(imyEvolve
Tree
p232
(dp233
g11
(imyEvolve
Tree
p234
(dp235
g7
I1
sg8
(imyEvolve
Tree
p236
(dp237
g7
I0
sg14
I00
sbsg18
(imyEvolve
Tree
p238
(dp239
g7
I0
sg14
I00
sbsg15
I00
sg16
g27
sbsg7
I2
sg15
I01
sg16
g17
sbsg7
I3
sg15
I01
sg16
g57
sbsg7
I4
sg15
I01
sg16
g48
sbsg15
I00
sg16
g40
sba(imyEvolve
Tree
p240
(dp241
g11
(imyEvolve
Tree
p242
(dp243
g7
I2
sg8
(imyEvolve
Tree
p244
(dp245
g11
(imyEvolve
Tree
p246
(dp247
g7
I0
sg23
F2.547376711415655
sg14
I01
sbsg7
I1
sg15
I01
sg16
g57
sbsg18
(imyEvolve
Tree
p248
(dp249
g11
(imyEvolve
Tree
p250
(dp251
g7
I0
sg23
F4.8431908902377785
sg14
I01
sbsg7
I1
sg15
I01
sg16
g48
sbsg15
I00
sg16
g27
sbsg7
I3
sg15
I01
sg16
g41
sba(imyEvolve
Tree
p252
(dp253
g11
(imyEvolve
Tree
p254
(dp255
g7
I1
sg8
(imyEvolve
Tree
p256
(dp257
g7
I0
sg23
F2.4274583103663625
sg14
I01
sbsg18
(imyEvolve
Tree
p258
(dp259
g7
I0
sg14
I00
sbsg15
I00
sg16
g40
sbsg7
I2
sg15
I01
sg16
g48
sba(imyEvolve
Tree
p260
(dp261
g11
(imyEvolve
Tree
p262
(dp263
g7
I3
sg8
(imyEvolve
Tree
p264
(dp265
g11
(imyEvolve
Tree
p266
(dp267
g7
I1
sg8
(imyEvolve
Tree
p268
(dp269
g7
I0
sg23
F1.1470081238206067
sg14
I01
sbsg18
(imyEvolve
Tree
p270
(dp271
g7
I0
sg23
F2.5776279493421654
sg14
I01
sbsg15
I00
sg16
g27
sbsg7
I2
sg15
I01
sg16
g48
sbsg18
(imyEvolve
Tree
p272
(dp273
g11
(imyEvolve
Tree
p274
(dp275
g11
(imyEvolve
Tree
p276
(dp277
g7
I0
sg23
F-1.1630470771130828
sg14
I01
sbsg7
I1
sg15
I01
sg16
g48
sbsg7
I2
sg15
I01
sg16
g48
sbsg15
I00
sg16
g27
sbsg7
I4
sg15
I01
sg16
g41
sba(imyEvolve
Tree
p278
(dp279
g7
I5
sg8
(imyEvolve
Tree
p280
(dp281
g11
(imyEvolve
Tree
p282
(dp283
g7
I3
sg8
(imyEvolve
Tree
p284
(dp285
g11
(imyEvolve
Tree
p286
(dp287
g11
(imyEvolve
Tree
p288
(dp289
g7
I0
sg14
I00
sbsg7
I1
sg15
I01
sg16
g17
sbsg7
I2
sg15
I01
sg16
g48
sbsg18
(imyEvolve
Tree
p290
(dp291
g7
I2
sg8
(imyEvolve
Tree
p292
(dp293
g11
(imyEvolve
Tree
p294
(dp295
g7
I0
sg14
I00
sbsg7
I1
sg15
I01
sg16
g57
sbsg18
(imyEvolve
Tree
p296
(dp297
g11
(imyEvolve
Tree
p298
(dp299
g7
I0
sg14
I00
sbsg7
I1
sg15
I01
sg16
g57
sbsg15
I00
sg16
g26
sbsg15
I00
sg16
g40
sbsg7
I4
sg15
I01
sg16
g57
sbsg18
(imyEvolve
Tree
p300
(dp301
g7
I4
sg8
(imyEvolve
Tree
p302
(dp303
g7
I3
sg8
(imyEvolve
Tree
p304
(dp305
g11
(imyEvolve
Tree
p306
(dp307
g11
(imyEvolve
Tree
p308
(dp309
g7
I0
sg14
I00
sbsg7
I1
sg15
I01
sg16
g48
sbsg7
I2
sg15
I01
sg16
g48
sbsg18
(imyEvolve
Tree
p310
(dp311
g7
I2
sg8
(imyEvolve
Tree
p312
(dp313
g7
I1
sg8
(imyEvolve
Tree
p314
(dp315
g7
I0
sg14
I00
sbsg18
(imyEvolve
Tree
p316
(dp317
g7
I0
sg14
I00
sbsg15
I00
sg16
g27
sbsg18
(imyEvolve
Tree
p318
(dp319
g7
I1
sg8
(imyEvolve
Tree
p320
(dp321
g7
I0
sg14
I00
sbsg18
(imyEvolve
Tree
p322
(dp323
g7
I0
sg14
I00
sbsg15
I00
sg16
g26
sbsg15
I00
sg16
g26
sbsg15
I00
sg16
g26
sbsg18
(imyEvolve
Tree
p324
(dp325
g7
I3
sg8
(imyEvolve
Tree
p326
(dp327
g11
(imyEvolve
Tree
p328
(dp329
g11
(imyEvolve
Tree
p330
(dp331
g7
I0
sg23
F3.948473057986085
sg14
I01
sbsg7
I1
sg15
I01
sg16
g17
sbsg7
I2
sg15
I01
sg16
g48
sbsg18
(imyEvolve
Tree
p332
(dp333
g7
I2
sg8
(imyEvolve
Tree
p334
(dp335
g11
(imyEvolve
Tree
p336
(dp337
g7
I0
sg23
F-0.7755044238428805
sg14
I01
sbsg7
I1
sg15
I01
sg16
g48
sbsg18
(imyEvolve
Tree
p338
(dp339
g7
I1
sg8
(imyEvolve
Tree
p340
(dp341
g7
I0
sg14
I00
sbsg18
(imyEvolve
Tree
p342
(dp343
g7
I0
sg14
I00
sbsg15
I00
sg16
g40
sbsg15
I00
sg16
g40
sbsg15
I00
sg16
g26
sbsg15
I00
sg16
g26
sbsg15
I00
sg16
g40
sba(imyEvolve
Tree
p344
(dp345
g7
I2
sg8
(imyEvolve
Tree
p346
(dp347
g11
(imyEvolve
Tree
p348
(dp349
g7
I0
sg14
I00
sbsg7
I1
sg15
I01
sg16
g48
sbsg18
(imyEvolve
Tree
p350
(dp351
g7
I1
sg8
(imyEvolve
Tree
p352
(dp353
g7
I0
sg14
I00
sbsg18
(imyEvolve
Tree
p354
(dp355
g7
I0
sg14
I00
sbsg15
I00
sg16
g26
sbsg15
I00
sg16
g26
sba(imyEvolve
Tree
p356
(dp357
g7
I2
sg8
(imyEvolve
Tree
p358
(dp359
g11
(imyEvolve
Tree
p360
(dp361
g7
I0
sg23
F-4.704253093095703
sg14
I01
sbsg7
I1
sg15
I01
sg16
g41
sbsg18
(imyEvolve
Tree
p362
(dp363
g7
I1
sg8
(imyEvolve
Tree
p364
(dp365
g7
I0
sg14
I00
sbsg18
(imyEvolve
Tree
p366
(dp367
g7
I0
sg23
F-2.2827410386623215
sg14
I01
sbsg15
I00
sg16
g26
sbsg15
I00
sg16
g27
sba(imyEvolve
Tree
p368
(dp369
g7
I2
sg8
(imyEvolve
Tree
p370
(dp371
g7
I1
sg8
(imyEvolve
Tree
p372
(dp373
g7
I0
sg14
I00
sbsg18
(imyEvolve
Tree
p374
(dp375
g7
I0
sg14
I00
sbsg15
I00
sg16
g40
sbsg18
(imyEvolve
Tree
p376
(dp377
g11
(imyEvolve
Tree
p378
(dp379
g7
I0
sg14
I00
sbsg7
I1
sg15
I01
sg16
g17
sbsg15
I00
sg16
g27
sba(imyEvolve
Tree
p380
(dp381
g7
I3
sg8
(imyEvolve
Tree
p382
(dp383
g11
(imyEvolve
Tree
p384
(dp385
g11
(imyEvolve
Tree
p386
(dp387
g7
I0
sg23
F-2.2402319117434755
sg14
I01
sbsg7
I1
sg15
I01
sg16
g41
sbsg7
I2
sg15
I01
sg16
g17
sbsg18
(imyEvolve
Tree
p388
(dp389
g7
I2
sg8
(imyEvolve
Tree
p390
(dp391
g7
I1
sg8
(imyEvolve
Tree
p392
(dp393
g7
I0
sg14
I00
sbsg18
(imyEvolve
Tree
p394
(dp395
g7
I0
sg23
F3.5535096725627877
sg14
I01
sbsg15
I00
sg16
g27
sbsg18
(imyEvolve
Tree
p396
(dp397
g11
(imyEvolve
Tree
p398
(dp399
g7
I0
sg23
F1.8908669246792362
sg14
I01
sbsg7
I1
sg15
I01
sg16
g17
sbsg15
I00
sg16
g26
sbsg15
I00
sg16
g40
sba(imyEvolve
Tree
p400
(dp401
g11
(imyEvolve
Tree
p402
(dp403
g11
(imyEvolve
Tree
p404
(dp405
g7
I3
sg8
(imyEvolve
Tree
p406
(dp407
g11
(imyEvolve
Tree
p408
(dp409
g7
I1
sg8
(imyEvolve
Tree
p410
(dp411
g7
I0
sg23
F-3.3339367194924083
sg14
I01
sbsg18
(imyEvolve
Tree
p412
(dp413
g7
I0
sg14
I00
sbsg15
I00
sg16
g40
sbsg7
I2
sg15
I01
sg16
g17
sbsg18
(imyEvolve
Tree
p414
(dp415
g7
I2
sg8
(imyEvolve
Tree
p416
(dp417
g11
(imyEvolve
Tree
p418
(dp419
g7
I0
sg23
F-3.502597501057494
sg14
I01
sbsg7
I1
sg15
I01
sg16
g17
sbsg18
(imyEvolve
Tree
p420
(dp421
g7
I1
sg8
(imyEvolve
Tree
p422
(dp423
g7
I0
sg23
F1.8923400680032287
sg14
I01
sbsg18
(imyEvolve
Tree
p424
(dp425
g7
I0
sg14
I00
sbsg15
I00
sg16
g40
sbsg15
I00
sg16
g26
sbsg15
I00
sg16
g27
sbsg7
I4
sg15
I01
sg16
g57
sbsg7
I5
sg15
I01
sg16
g41
sba(imyEvolve
Tree
p426
(dp427
g7
I3
sg8
(imyEvolve
Tree
p428
(dp429
g7
I2
sg8
(imyEvolve
Tree
p430
(dp431
g7
I1
sg8
(imyEvolve
Tree
p432
(dp433
g7
I0
sg23
F-4.196871788200407
sg14
I01
sbsg18
(imyEvolve
Tree
p434
(dp435
g7
I0
sg23
F-0.5709003244835111
sg14
I01
sbsg15
I00
sg16
g27
sbsg18
(imyEvolve
Tree
p436
(dp437
g11
(imyEvolve
Tree
p438
(dp439
g7
I0
sg23
F-3.070666560339721
sg14
I01
sbsg7
I1
sg15
I01
sg16
g57
sbsg15
I00
sg16
g26
sbsg18
(imyEvolve
Tree
p440
(dp441
g7
I2
sg8
(imyEvolve
Tree
p442
(dp443
g11
(imyEvolve
Tree
p444
(dp445
g7
I0
sg14
I00
sbsg7
I1
sg15
I01
sg16
g41
sbsg18
(imyEvolve
Tree
p446
(dp447
g7
I1
sg8
(imyEvolve
Tree
p448
(dp449
g7
I0
sg23
F-3.059001049606297
sg14
I01
sbsg18
(imyEvolve
Tree
p450
(dp451
g7
I0
sg14
I00
sbsg15
I00
sg16
g40
sbsg15
I00
sg16
g26
sbsg15
I00
sg16
g27
sba(imyEvolve
Tree
p452
(dp453
g7
I2
sg8
(imyEvolve
Tree
p454
(dp455
g11
(imyEvolve
Tree
p456
(dp457
g7
I0
sg14
I00
sbsg7
I1
sg15
I01
sg16
g17
sbsg18
(imyEvolve
Tree
p458
(dp459
g11
(imyEvolve
Tree
p460
(dp461
g7
I0
sg14
I00
sbsg7
I1
sg15
I01
sg16
g57
sbsg15
I00
sg16
g27
sbaa(lp462
(imyEvolve
Tree
p463
(dp464
g7
I5
sg8
(imyEvolve
Tree
p465
(dp466
g7
I4
sg8
(imyEvolve
Tree
p467
(dp468
g7
I3
sg8
(imyEvolve
Tree
p469
(dp470
g11
(imyEvolve
Tree
p471
(dp472
g11
(imyEvolve
Tree
p473
(dp474
g7
I0
sg14
I00
sbsg7
I1
sg15
I01
sg16
g57
sbsg7
I2
sg15
I01
sg16
g48
sbsg18
(imyEvolve
Tree
p475
(dp476
g11
(imyEvolve
Tree
p477
(dp478
g7
I1
sg8
(imyEvolve
Tree
p479
(dp480
g7
I0
sg23
F2.312245082366001
sg14
I01
sbsg18
(imyEvolve
Tree
p481
(dp482
g7
I0
sg14
I00
sbsg15
I00
sg16
g27
sbsg7
I2
sg15
I01
sg16
g57
sbsg15
I00
sg16
g27
sbsg18
(imyEvolve
Tree
p483
(dp484
g11
(imyEvolve
Tree
p485
(dp486
g11
(imyEvolve
Tree
p487
(dp488
g7
I1
sg8
(imyEvolve
Tree
p489
(dp490
g7
I0
sg23
F0.5482114714109034
sg14
I01
sbsg18
(imyEvolve
Tree
p491
(dp492
g7
I0
sg14
I00
sbsg15
I00
sg16
g27
sbsg7
I2
sg15
I01
sg16
g17
sbsg7
I3
sg15
I01
sg16
g48
sbsg15
I00
sg16
g26
sbsg18
(imyEvolve
Tree
p493
(dp494
g7
I4
sg8
(imyEvolve
Tree
p495
(dp496
g11
(imyEvolve
Tree
p497
(dp498
g7
I2
sg8
(imyEvolve
Tree
p499
(dp500
g7
I1
sg8
(imyEvolve
Tree
p501
(dp502
g7
I0
sg23
F-4.615986435375597
sg14
I01
sbsg18
(imyEvolve
Tree
p503
(dp504
g7
I0
sg14
I00
sbsg15
I00
sg16
g26
sbsg18
(imyEvolve
Tree
p505
(dp506
g7
I1
sg8
(imyEvolve
Tree
p507
(dp508
g7
I0
sg23
F-3.892054060606336
sg14
I01
sbsg18
(imyEvolve
Tree
p509
(dp510
g7
I0
sg14
I00
sbsg15
I00
sg16
g40
sbsg15
I00
sg16
g27
sbsg7
I3
sg15
I01
sg16
g41
sbsg18
(imyEvolve
Tree
p511
(dp512
g7
I3
sg8
(imyEvolve
Tree
p513
(dp514
g7
I2
sg8
(imyEvolve
Tree
p515
(dp516
g7
I1
sg8
(imyEvolve
Tree
p517
(dp518
g7
I0
sg23
F4.286024694735843
sg14
I01
sbsg18
(imyEvolve
Tree
p519
(dp520
g7
I0
sg14
I00
sbsg15
I00
sg16
g27
sbsg18
(imyEvolve
Tree
p521
(dp522
g7
I1
sg8
(imyEvolve
Tree
p523
(dp524
g7
I0
sg14
I00
sbsg18
(imyEvolve
Tree
p525
(dp526
g7
I0
sg14
I00
sbsg15
I00
sg16
g40
sbsg15
I00
sg16
g27
sbsg18
(imyEvolve
Tree
p527
(dp528
g11
(imyEvolve
Tree
p529
(dp530
g11
(imyEvolve
Tree
p531
(dp532
g7
I0
sg23
F-3.855851135402845
sg14
I01
sbsg7
I1
sg15
I01
sg16
g48
sbsg7
I2
sg15
I01
sg16
g48
sbsg15
I00
sg16
g40
sbsg15
I00
sg16
g27
sbsg15
I00
sg16
g40
sba(imyEvolve
Tree
p533
(dp534
g7
I4
sg8
(imyEvolve
Tree
p535
(dp536
g11
(imyEvolve
Tree
p537
(dp538
g11
(imyEvolve
Tree
p539
(dp540
g11
(imyEvolve
Tree
p541
(dp542
g7
I0
sg23
F0.40033449881187977
sg14
I01
sbsg7
I1
sg15
I01
sg16
g48
sbsg7
I2
sg15
I01
sg16
g48
sbsg7
I3
sg15
I01
sg16
g41
sbsg18
(imyEvolve
Tree
p543
(dp544
g7
I3
sg8
(imyEvolve
Tree
p545
(dp546
g7
I2
sg8
(imyEvolve
Tree
p547
(dp548
g7
I1
sg8
(imyEvolve
Tree
p549
(dp550
g7
I0
sg23
F4.909032983585261
sg14
I01
sbsg18
(imyEvolve
Tree
p551
(dp552
g7
I0
sg14
I00
sbsg15
I00
sg16
g40
sbsg18
(imyEvolve
Tree
p553
(dp554
g11
(imyEvolve
Tree
p555
(dp556
g7
I0
sg23
F1.4105920894739654
sg14
I01
sbsg7
I1
sg15
I01
sg16
g57
sbsg15
I00
sg16
g40
sbsg18
(imyEvolve
Tree
p557
(dp558
g7
I2
sg8
(imyEvolve
Tree
p559
(dp560
g11
(imyEvolve
Tree
p561
(dp562
g7
I0
sg23
F-0.6710310787831144
sg14
I01
sbsg7
I1
sg15
I01
sg16
g57
sbsg18
(imyEvolve
Tree
p563
(dp564
g11
(imyEvolve
Tree
p565
(dp566
g7
I0
sg23
F4.356105929149777
sg14
I01
sbsg7
I1
sg15
I01
sg16
g17
sbsg15
I00
sg16
g40
sbsg15
I00
sg16
g26
sbsg15
I00
sg16
g40
sba(imyEvolve
Tree
p567
(dp568
g7
I2
sg8
(imyEvolve
Tree
p569
(dp570
g11
(imyEvolve
Tree
p571
(dp572
g7
I0
sg23
F-4.392715357508284
sg14
I01
sbsg7
I1
sg15
I01
sg16
g57
sbsg18
(imyEvolve
Tree
p573
(dp574
g7
I1
sg8
(imyEvolve
Tree
p575
(dp576
g7
I0
sg23
F-2.873530493499418
sg14
I01
sbsg18
(imyEvolve
Tree
p577
(dp578
g7
I0
sg23
F0.8466389810580264
sg14
I01
sbsg15
I00
sg16
g40
sbsg15
I00
sg16
g40
sba(imyEvolve
Tree
p579
(dp580
g11
(imyEvolve
Tree
p581
(dp582
g7
I1
sg8
(imyEvolve
Tree
p583
(dp584
g7
I0
sg23
F-3.0459076217486802
sg14
I01
sbsg18
(imyEvolve
Tree
p585
(dp586
g7
I0
sg14
I00
sbsg15
I00
sg16
g40
sbsg7
I2
sg15
I01
sg16
g17
sba(imyEvolve
Tree
p587
(dp588
g7
I4
sg8
(imyEvolve
Tree
p589
(dp590
g7
I3
sg8
(imyEvolve
Tree
p591
(dp592
g7
I2
sg8
(imyEvolve
Tree
p593
(dp594
g11
(imyEvolve
Tree
p595
(dp596
g7
I0
sg14
I00
sbsg7
I1
sg15
I01
sg16
g48
sbsg18
(imyEvolve
Tree
p597
(dp598
g11
(imyEvolve
Tree
p599
(dp600
g7
I0
sg14
I00
sbsg7
I1
sg15
I01
sg16
g57
sbsg15
I00
sg16
g40
sbsg18
(imyEvolve
Tree
p601
(dp602
g11
(imyEvolve
Tree
p603
(dp604
g11
(imyEvolve
Tree
p605
(dp606
g7
I0
sg14
I00
sbsg7
I1
sg15
I01
sg16
g57
sbsg7
I2
sg15
I01
sg16
g57
sbsg15
I00
sg16
g26
sbsg18
(imyEvolve
Tree
p607
(dp608
g7
I3
sg8
(imyEvolve
Tree
p609
(dp610
g11
(imyEvolve
Tree
p611
(dp612
g7
I1
sg8
(imyEvolve
Tree
p613
(dp614
g7
I0
sg14
I00
sbsg18
(imyEvolve
Tree
p615
(dp616
g7
I0
sg14
I00
sbsg15
I00
sg16
g27
sbsg7
I2
sg15
I01
sg16
g57
sbsg18
(imyEvolve
Tree
p617
(dp618
g11
(imyEvolve
Tree
p619
(dp620
g11
(imyEvolve
Tree
p621
(dp622
g7
I0
sg14
I00
sbsg7
I1
sg15
I01
sg16
g57
sbsg7
I2
sg15
I01
sg16
g17
sbsg15
I00
sg16
g26
sbsg15
I00
sg16
g40
sba(imyEvolve
Tree
p623
(dp624
g7
I3
sg8
(imyEvolve
Tree
p625
(dp626
g7
I2
sg8
(imyEvolve
Tree
p627
(dp628
g7
I1
sg8
(imyEvolve
Tree
p629
(dp630
g7
I0
sg14
I00
sbsg18
(imyEvolve
Tree
p631
(dp632
g7
I0
sg23
F3.234598514641778
sg14
I01
sbsg15
I00
sg16
g27
sbsg18
(imyEvolve
Tree
p633
(dp634
g11
(imyEvolve
Tree
p635
(dp636
g7
I0
sg14
I00
sbsg7
I1
sg15
I01
sg16
g57
sbsg15
I00
sg16
g27
sbsg18
(imyEvolve
Tree
p637
(dp638
g11
(imyEvolve
Tree
p639
(dp640
g11
(imyEvolve
Tree
p641
(dp642
g7
I0
sg23
F4.0225822767475865
sg14
I01
sbsg7
I1
sg15
I01
sg16
g17
sbsg7
I2
sg15
I01
sg16
g17
sbsg15
I00
sg16
g27
sba(imyEvolve
Tree
p643
(dp644
g7
I2
sg8
(imyEvolve
Tree
p645
(dp646
g7
I1
sg8
(imyEvolve
Tree
p647
(dp648
g7
I0
sg23
F-1.2192957217815192
sg14
I01
sbsg18
(imyEvolve
Tree
p649
(dp650
g7
I0
sg23
F4.344222387745308
sg14
I01
sbsg15
I00
sg16
g40
sbsg18
(imyEvolve
Tree
p651
(dp652
g11
(imyEvolve
Tree
p653
(dp654
g7
I0
sg23
F0.6224566688913793
sg14
I01
sbsg7
I1
sg15
I01
sg16
g48
sbsg15
I00
sg16
g27
sba(imyEvolve
Tree
p655
(dp656
g7
I4
sg8
(imyEvolve
Tree
p657
(dp658
g7
I3
sg8
(imyEvolve
Tree
p659
(dp660
g11
(imyEvolve
Tree
p661
(dp662
g11
(imyEvolve
Tree
p663
(dp664
g7
I0
sg23
F2.3235135176627733
sg14
I01
sbsg7
I1
sg15
I01
sg16
g17
sbsg7
I2
sg15
I01
sg16
g48
sbsg18
(imyEvolve
Tree
p665
(dp666
g7
I2
sg8
(imyEvolve
Tree
p667
(dp668
g7
I1
sg8
(imyEvolve
Tree
p669
(dp670
g7
I0
sg23
F2.4655387061716922
sg14
I01
sbsg18
(imyEvolve
Tree
p671
(dp672
g7
I0
sg14
I00
sbsg15
I00
sg16
g40
sbsg18
(imyEvolve
Tree
p673
(dp674
g11
(imyEvolve
Tree
p675
(dp676
g7
I0
sg23
F1.0242825441048868
sg14
I01
sbsg7
I1
sg15
I01
sg16
g57
sbsg15
I00
sg16
g26
sbsg15
I00
sg16
g26
sbsg18
(imyEvolve
Tree
p677
(dp678
g11
(imyEvolve
Tree
p679
(dp680
g7
I2
sg8
(imyEvolve
Tree
p681
(dp682
g11
(imyEvolve
Tree
p683
(dp684
g7
I0
sg23
F-4.7874109222111185
sg14
I01
sbsg7
I1
sg15
I01
sg16
g57
sbsg18
(imyEvolve
Tree
p685
(dp686
g7
I1
sg8
(imyEvolve
Tree
p687
(dp688
g7
I0
sg14
I00
sbsg18
(imyEvolve
Tree
p689
(dp690
g7
I0
sg23
F4.247970663668763
sg14
I01
sbsg15
I00
sg16
g27
sbsg15
I00
sg16
g26
sbsg7
I3
sg15
I01
sg16
g41
sbsg15
I00
sg16
g26
sba(imyEvolve
Tree
p691
(dp692
g7
I4
sg8
(imyEvolve
Tree
p693
(dp694
g11
(imyEvolve
Tree
p695
(dp696
g7
I2
sg8
(imyEvolve
Tree
p697
(dp698
g7
I1
sg8
(imyEvolve
Tree
p699
(dp700
g7
I0
sg23
F-1.4299732864533201
sg14
I01
sbsg18
(imyEvolve
Tree
p701
(dp702
g7
I0
sg23
F0.10885175384627921
sg14
I01
sbsg15
I00
sg16
g27
sbsg18
(imyEvolve
Tree
p703
(dp704
g11
(imyEvolve
Tree
p705
(dp706
g7
I0
sg23
F-2.8407878989444093
sg14
I01
sbsg7
I1
sg15
I01
sg16
g17
sbsg15
I00
sg16
g40
sbsg7
I3
sg15
I01
sg16
g57
sbsg18
(imyEvolve
Tree
p707
(dp708
g11
(imyEvolve
Tree
p709
(dp710
g11
(imyEvolve
Tree
p711
(dp712
g11
(imyEvolve
Tree
p713
(dp714
g7
I0
sg23
F1.9622037720022147
sg14
I01
sbsg7
I1
sg15
I01
sg16
g48
sbsg7
I2
sg15
I01
sg16
g17
sbsg7
I3
sg15
I01
sg16
g17
sbsg15
I00
sg16
g40
sbaa(lp715
(imyEvolve
Tree
p716
(dp717
g7
I3
sg8
(imyEvolve
Tree
p718
(dp719
g11
(imyEvolve
Tree
p720
(dp721
g11
(imyEvolve
Tree
p722
(dp723
g7
I0
sg14
I00
sbsg7
I1
sg15
I01
sg16
g57
sbsg7
I2
sg15
I01
sg16
g41
sbsg18
(imyEvolve
Tree
p724
(dp725
g11
(imyEvolve
Tree
p726
(dp727
g11
(imyEvolve
Tree
p728
(dp729
g7
I0
sg23
F-0.9717360434585318
sg14
I01
sbsg7
I1
sg15
I01
sg16
g17
sbsg7
I2
sg15
I01
sg16
g57
sbsg15
I00
sg16
g27
sba(imyEvolve
Tree
p730
(dp731
g7
I4
sg8
(imyEvolve
Tree
p732
(dp733
g11
(imyEvolve
Tree
p734
(dp735
g11
(imyEvolve
Tree
p736
(dp737
g7
I1
sg8
(imyEvolve
Tree
p738
(dp739
g7
I0
sg23
F-3.440161362243064
sg14
I01
sbsg18
(imyEvolve
Tree
p740
(dp741
g7
I0
sg14
I00
sbsg15
I00
sg16
g26
sbsg7
I2
sg15
I01
sg16
g17
sbsg7
I3
sg15
I01
sg16
g48
sbsg18
(imyEvolve
Tree
p742
(dp743
g11
(imyEvolve
Tree
p744
(dp745
g11
(imyEvolve
Tree
p746
(dp747
g7
I1
sg8
(imyEvolve
Tree
p748
(dp749
g7
I0
sg14
I00
sbsg18
(imyEvolve
Tree
p750
(dp751
g7
I0
sg23
F-0.9026811687972272
sg14
I01
sbsg15
I00
sg16
g27
sbsg7
I2
sg15
I01
sg16
g48
sbsg7
I3
sg15
I01
sg16
g48
sbsg15
I00
sg16
g40
sba(imyEvolve
Tree
p752
(dp753
g7
I4
sg8
(imyEvolve
Tree
p754
(dp755
g7
I3
sg8
(imyEvolve
Tree
p756
(dp757
g7
I2
sg8
(imyEvolve
Tree
p758
(dp759
g7
I1
sg8
(imyEvolve
Tree
p760
(dp761
g7
I0
sg23
F2.8612986822639037
sg14
I01
sbsg18
(imyEvolve
Tree
p762
(dp763
g7
I0
sg23
F-1.683644300621462
sg14
I01
sbsg15
I00
sg16
g27
sbsg18
(imyEvolve
Tree
p764
(dp765
g7
I1
sg8
(imyEvolve
Tree
p766
(dp767
g7
I0
sg23
F1.2809280231872089
sg14
I01
sbsg18
(imyEvolve
Tree
p768
(dp769
g7
I0
sg23
F-4.126707646052169
sg14
I01
sbsg15
I00
sg16
g26
sbsg15
I00
sg16
g40
sbsg18
(imyEvolve
Tree
p770
(dp771
g11
(imyEvolve
Tree
p772
(dp773
g7
I1
sg8
(imyEvolve
Tree
p774
(dp775
g7
I0
sg23
F-1.2939234136348654
sg14
I01
sbsg18
(imyEvolve
Tree
p776
(dp777
g7
I0
sg23
F4.647942701654614
sg14
I01
sbsg15
I00
sg16
g40
sbsg7
I2
sg15
I01
sg16
g48
sbsg15
I00
sg16
g40
sbsg18
(imyEvolve
Tree
p778
(dp779
g7
I3
sg8
(imyEvolve
Tree
p780
(dp781
g7
I2
sg8
(imyEvolve
Tree
p782
(dp783
g11
(imyEvolve
Tree
p784
(dp785
g7
I0
sg14
I00
sbsg7
I1
sg15
I01
sg16
g17
sbsg18
(imyEvolve
Tree
p786
(dp787
g7
I1
sg8
(imyEvolve
Tree
p788
(dp789
g7
I0
sg23
F-4.374154233591003
sg14
I01
sbsg18
(imyEvolve
Tree
p790
(dp791
g7
I0
sg14
I00
sbsg15
I00
sg16
g26
sbsg15
I00
sg16
g26
sbsg18
(imyEvolve
Tree
p792
(dp793
g7
I2
sg8
(imyEvolve
Tree
p794
(dp795
g11
(imyEvolve
Tree
p796
(dp797
g7
I0
sg14
I00
sbsg7
I1
sg15
I01
sg16
g48
sbsg18
(imyEvolve
Tree
p798
(dp799
g11
(imyEvolve
Tree
p800
(dp801
g7
I0
sg23
F3.3976373496887575
sg14
I01
sbsg7
I1
sg15
I01
sg16
g17
sbsg15
I00
sg16
g26
sbsg15
I00
sg16
g26
sbsg15
I00
sg16
g27
sba(imyEvolve
Tree
p802
(dp803
g11
(imyEvolve
Tree
p804
(dp805
g11
(imyEvolve
Tree
p806
(dp807
g7
I2
sg8
(imyEvolve
Tree
p808
(dp809
g11
(imyEvolve
Tree
p810
(dp811
g7
I0
sg14
I00
sbsg7
I1
sg15
I01
sg16
g41
sbsg18
(imyEvolve
Tree
p812
(dp813
g11
(imyEvolve
Tree
p814
(dp815
g7
I0
sg23
F0.24744879025400923
sg14
I01
sbsg7
I1
sg15
I01
sg16
g57
sbsg15
I00
sg16
g40
sbsg7
I3
sg15
I01
sg16
g41
sbsg7
I4
sg15
I01
sg16
g48
sba(imyEvolve
Tree
p816
(dp817
g11
(imyEvolve
Tree
p818
(dp819
g7
I3
sg8
(imyEvolve
Tree
p820
(dp821
g7
I2
sg8
(imyEvolve
Tree
p822
(dp823
g11
(imyEvolve
Tree
p824
(dp825
g7
I0
sg14
I00
sbsg7
I1
sg15
I01
sg16
g48
sbsg18
(imyEvolve
Tree
p826
(dp827
g11
(imyEvolve
Tree
p828
(dp829
g7
I0
sg14
I00
sbsg7
I1
sg15
I01
sg16
g17
sbsg15
I00
sg16
g40
sbsg18
(imyEvolve
Tree
p830
(dp831
g11
(imyEvolve
Tree
p832
(dp833
g7
I1
sg8
(imyEvolve
Tree
p834
(dp835
g7
I0
sg23
F2.0786679548091023
sg14
I01
sbsg18
(imyEvolve
Tree
p836
(dp837
g7
I0
sg23
F1.9473669398385764
sg14
I01
sbsg15
I00
sg16
g40
sbsg7
I2
sg15
I01
sg16
g17
sbsg15
I00
sg16
g26
sbsg7
I4
sg15
I01
sg16
g57
sba(imyEvolve
Tree
p838
(dp839
g11
(imyEvolve
Tree
p840
(dp841
g11
(imyEvolve
Tree
p842
(dp843
g7
I2
sg8
(imyEvolve
Tree
p844
(dp845
g11
(imyEvolve
Tree
p846
(dp847
g7
I0
sg14
I00
sbsg7
I1
sg15
I01
sg16
g17
sbsg18
(imyEvolve
Tree
p848
(dp849
g7
I1
sg8
(imyEvolve
Tree
p850
(dp851
g7
I0
sg14
I00
sbsg18
(imyEvolve
Tree
p852
(dp853
g7
I0
sg23
F-4.782212187979296
sg14
I01
sbsg15
I00
sg16
g27
sbsg15
I00
sg16
g27
sbsg7
I3
sg15
I01
sg16
g41
sbsg7
I4
sg15
I01
sg16
g17
sba(imyEvolve
Tree
p854
(dp855
g7
I4
sg8
(imyEvolve
Tree
p856
(dp857
g11
(imyEvolve
Tree
p858
(dp859
g7
I2
sg8
(imyEvolve
Tree
p860
(dp861
g7
I1
sg8
(imyEvolve
Tree
p862
(dp863
g7
I0
sg23
F1.082091083971914
sg14
I01
sbsg18
(imyEvolve
Tree
p864
(dp865
g7
I0
sg23
F4.53218123894151
sg14
I01
sbsg15
I00
sg16
g27
sbsg18
(imyEvolve
Tree
p866
(dp867
g11
(imyEvolve
Tree
p868
(dp869
g7
I0
sg23
F3.810127122227531
sg14
I01
sbsg7
I1
sg15
I01
sg16
g17
sbsg15
I00
sg16
g27
sbsg7
I3
sg15
I01
sg16
g17
sbsg18
(imyEvolve
Tree
p870
(dp871
g11
(imyEvolve
Tree
p872
(dp873
g7
I2
sg8
(imyEvolve
Tree
p874
(dp875
g7
I1
sg8
(imyEvolve
Tree
p876
(dp877
g7
I0
sg23
F4.9659290795067825
sg14
I01
sbsg18
(imyEvolve
Tree
p878
(dp879
g7
I0
sg23
F-1.893405132473378
sg14
I01
sbsg15
I00
sg16
g40
sbsg18
(imyEvolve
Tree
p880
(dp881
g11
(imyEvolve
Tree
p882
(dp883
g7
I0
sg14
I00
sbsg7
I1
sg15
I01
sg16
g17
sbsg15
I00
sg16
g27
sbsg7
I3
sg15
I01
sg16
g57
sbsg15
I00
sg16
g40
sba(imyEvolve
Tree
p884
(dp885
g11
(imyEvolve
Tree
p886
(dp887
g11
(imyEvolve
Tree
p888
(dp889
g7
I1
sg8
(imyEvolve
Tree
p890
(dp891
g7
I0
sg14
I00
sbsg18
(imyEvolve
Tree
p892
(dp893
g7
I0
sg14
I00
sbsg15
I00
sg16
g26
sbsg7
I2
sg15
I01
sg16
g48
sbsg7
I3
sg15
I01
sg16
g41
sba(imyEvolve
Tree
p894
(dp895
g7
I4
sg8
(imyEvolve
Tree
p896
(dp897
g11
(imyEvolve
Tree
p898
(dp899
g7
I2
sg8
(imyEvolve
Tree
p900
(dp901
g7
I1
sg8
(imyEvolve
Tree
p902
(dp903
g7
I0
sg23
F1.4271284085419929
sg14
I01
sbsg18
(imyEvolve
Tree
p904
(dp905
g7
I0
sg14
I00
sbsg15
I00
sg16
g26
sbsg18
(imyEvolve
Tree
p906
(dp907
g11
(imyEvolve
Tree
p908
(dp909
g7
I0
sg23
F-1.453614677384314
sg14
I01
sbsg7
I1
sg15
I01
sg16
g57
sbsg15
I00
sg16
g40
sbsg7
I3
sg15
I01
sg16
g17
sbsg18
(imyEvolve
Tree
p910
(dp911
g11
(imyEvolve
Tree
p912
(dp913
g7
I2
sg8
(imyEvolve
Tree
p914
(dp915
g7
I1
sg8
(imyEvolve
Tree
p916
(dp917
g7
I0
sg23
F0.1762589848370002
sg14
I01
sbsg18
(imyEvolve
Tree
p918
(dp919
g7
I0
sg23
F-4.146796083238509
sg14
I01
sbsg15
I00
sg16
g27
sbsg18
(imyEvolve
Tree
p920
(dp921
g7
I1
sg8
(imyEvolve
Tree
p922
(dp923
g7
I0
sg23
F-3.6807044814516585
sg14
I01
sbsg18
(imyEvolve
Tree
p924
(dp925
g7
I0
sg14
I00
sbsg15
I00
sg16
g26
sbsg15
I00
sg16
g26
sbsg7
I3
sg15
I01
sg16
g41
sbsg15
I00
sg16
g27
sba(imyEvolve
Tree
p926
(dp927
g11
(imyEvolve
Tree
p928
(dp929
g11
(imyEvolve
Tree
p930
(dp931
g11
(imyEvolve
Tree
p932
(dp933
g7
I1
sg8
(imyEvolve
Tree
p934
(dp935
g7
I0
sg14
I00
sbsg18
(imyEvolve
Tree
p936
(dp937
g7
I0
sg14
I00
sbsg15
I00
sg16
g26
sbsg7
I2
sg15
I01
sg16
g48
sbsg7
I3
sg15
I01
sg16
g57
sbsg7
I4
sg15
I01
sg16
g48
sba(imyEvolve
Tree
p938
(dp939
g7
I3
sg8
(imyEvolve
Tree
p940
(dp941
g7
I2
sg8
(imyEvolve
Tree
p942
(dp943
g7
I1
sg8
(imyEvolve
Tree
p944
(dp945
g7
I0
sg23
F-4.760512228807066
sg14
I01
sbsg18
(imyEvolve
Tree
p946
(dp947
g7
I0
sg14
I00
sbsg15
I00
sg16
g26
sbsg18
(imyEvolve
Tree
p948
(dp949
g11
(imyEvolve
Tree
p950
(dp951
g7
I0
sg23
F3.0322501448744106
sg14
I01
sbsg7
I1
sg15
I01
sg16
g48
sbsg15
I00
sg16
g26
sbsg18
(imyEvolve
Tree
p952
(dp953
g11
(imyEvolve
Tree
p954
(dp955
g7
I1
sg8
(imyEvolve
Tree
p956
(dp957
g7
I0
sg14
I00
sbsg18
(imyEvolve
Tree
p958
(dp959
g7
I0
sg23
F1.0360575441696103
sg14
I01
sbsg15
I00
sg16
g27
sbsg7
I2
sg15
I01
sg16
g41
sbsg15
I00
sg16
g27
sba(imyEvolve
Tree
p960
(dp961
g7
I5
sg8
(imyEvolve
Tree
p962
(dp963
g7
I4
sg8
(imyEvolve
Tree
p964
(dp965
g7
I3
sg8
(imyEvolve
Tree
p966
(dp967
g7
I2
sg8
(imyEvolve
Tree
p968
(dp969
g7
I1
sg8
(imyEvolve
Tree
p970
(dp971
g7
I0
sg14
I00
sbsg18
(imyEvolve
Tree
p972
(dp973
g7
I0
sg14
I00
sbsg15
I00
sg16
g27
sbsg18
(imyEvolve
Tree
p974
(dp975
g11
(imyEvolve
Tree
p976
(dp977
g7
I0
sg23
F3.498718776822626
sg14
I01
sbsg7
I1
sg15
I01
sg16
g41
sbsg15
I00
sg16
g26
sbsg18
(imyEvolve
Tree
p978
(dp979
g11
(imyEvolve
Tree
p980
(dp981
g11
(imyEvolve
Tree
p982
(dp983
g7
I0
sg14
I00
sbsg7
I1
sg15
I01
sg16
g48
sbsg7
I2
sg15
I01
sg16
g17
sbsg15
I00
sg16
g40
sbsg18
(imyEvolve
Tree
p984
(dp985
g11
(imyEvolve
Tree
p986
(dp987
g7
I2
sg8
(imyEvolve
Tree
p988
(dp989
g11
(imyEvolve
Tree
p990
(dp991
g7
I0
sg14
I00
sbsg7
I1
sg15
I01
sg16
g57
sbsg18
(imyEvolve
Tree
p992
(dp993
g7
I1
sg8
(imyEvolve
Tree
p994
(dp995
g7
I0
sg23
F-1.8948575752594699
sg14
I01
sbsg18
(imyEvolve
Tree
p996
(dp997
g7
I0
sg14
I00
sbsg15
I00
sg16
g40
sbsg15
I00
sg16
g26
sbsg7
I3
sg15
I01
sg16
g41
sbsg15
I00
sg16
g40
sbsg18
(imyEvolve
Tree
p998
(dp999
g7
I4
sg8
(imyEvolve
Tree
p1000
(dp1001
g7
I3
sg8
(imyEvolve
Tree
p1002
(dp1003
g11
(imyEvolve
Tree
p1004
(dp1005
g11
(imyEvolve
Tree
p1006
(dp1007
g7
I0
sg14
I00
sbsg7
I1
sg15
I01
sg16
g41
sbsg7
I2
sg15
I01
sg16
g48
sbsg18
(imyEvolve
Tree
p1008
(dp1009
g11
(imyEvolve
Tree
p1010
(dp1011
g11
(imyEvolve
Tree
p1012
(dp1013
g7
I0
sg14
I00
sbsg7
I1
sg15
I01
sg16
g48
sbsg7
I2
sg15
I01
sg16
g57
sbsg15
I00
sg16
g27
sbsg18
(imyEvolve
Tree
p1014
(dp1015
g7
I3
sg8
(imyEvolve
Tree
p1016
(dp1017
g7
I2
sg8
(imyEvolve
Tree
p1018
(dp1019
g7
I1
sg8
(imyEvolve
Tree
p1020
(dp1021
g7
I0
sg14
I00
sbsg18
(imyEvolve
Tree
p1022
(dp1023
g7
I0
sg23
F1.1230371186791537
sg14
I01
sbsg15
I00
sg16
g40
sbsg18
(imyEvolve
Tree
p1024
(dp1025
g11
(imyEvolve
Tree
p1026
(dp1027
g7
I0
sg23
F-4.6069357294685656
sg14
I01
sbsg7
I1
sg15
I01
sg16
g41
sbsg15
I00
sg16
g40
sbsg18
(imyEvolve
Tree
p1028
(dp1029
g7
I2
sg8
(imyEvolve
Tree
p1030
(dp1031
g7
I1
sg8
(imyEvolve
Tree
p1032
(dp1033
g7
I0
sg14
I00
sbsg18
(imyEvolve
Tree
p1034
(dp1035
g7
I0
sg23
F2.2198834940144767
sg14
I01
sbsg15
I00
sg16
g26
sbsg18
(imyEvolve
Tree
p1036
(dp1037
g11
(imyEvolve
Tree
p1038
(dp1039
g7
I0
sg23
F3.1266953861385325
sg14
I01
sbsg7
I1
sg15
I01
sg16
g41
sbsg15
I00
sg16
g27
sbsg15
I00
sg16
g26
sbsg15
I00
sg16
g27
sbsg15
I00
sg16
g40
sba(imyEvolve
Tree
p1040
(dp1041
g11
(imyEvolve
Tree
p1042
(dp1043
g11
(imyEvolve
Tree
p1044
(dp1045
g11
(imyEvolve
Tree
p1046
(dp1047
g7
I2
sg8
(imyEvolve
Tree
p1048
(dp1049
g7
I1
sg8
(imyEvolve
Tree
p1050
(dp1051
g7
I0
sg14
I00
sbsg18
(imyEvolve
Tree
p1052
(dp1053
g7
I0
sg23
F-3.337616409205463
sg14
I01
sbsg15
I00
sg16
g40
sbsg18
(imyEvolve
Tree
p1054
(dp1055
g11
(imyEvolve
Tree
p1056
(dp1057
g7
I0
sg23
F3.4650391281435358
sg14
I01
sbsg7
I1
sg15
I01
sg16
g41
sbsg15
I00
sg16
g27
sbsg7
I3
sg15
I01
sg16
g57
sbsg7
I4
sg15
I01
sg16
g41
sbsg7
I5
sg15
I01
sg16
g57
sba(imyEvolve
Tree
p1058
(dp1059
g7
I4
sg8
(imyEvolve
Tree
p1060
(dp1061
g11
(imyEvolve
Tree
p1062
(dp1063
g7
I2
sg8
(imyEvolve
Tree
p1064
(dp1065
g11
(imyEvolve
Tree
p1066
(dp1067
g7
I0
sg14
I00
sbsg7
I1
sg15
I01
sg16
g57
sbsg18
(imyEvolve
Tree
p1068
(dp1069
g11
(imyEvolve
Tree
p1070
(dp1071
g7
I0
sg14
I00
sbsg7
I1
sg15
I01
sg16
g57
sbsg15
I00
sg16
g40
sbsg7
I3
sg15
I01
sg16
g57
sbsg18
(imyEvolve
Tree
p1072
(dp1073
g11
(imyEvolve
Tree
p1074
(dp1075
g11
(imyEvolve
Tree
p1076
(dp1077
g7
I1
sg8
(imyEvolve
Tree
p1078
(dp1079
g7
I0
sg14
I00
sbsg18
(imyEvolve
Tree
p1080
(dp1081
g7
I0
sg14
I00
sbsg15
I00
sg16
g26
sbsg7
I2
sg15
I01
sg16
g41
sbsg7
I3
sg15
I01
sg16
g57
sbsg15
I00
sg16
g26
sba(imyEvolve
Tree
p1082
(dp1083
g7
I2
sg8
(imyEvolve
Tree
p1084
(dp1085
g11
(imyEvolve
Tree
p1086
(dp1087
g7
I0
sg14
I00
sbsg7
I1
sg15
I01
sg16
g57
sbsg18
(imyEvolve
Tree
p1088
(dp1089
g11
(imyEvolve
Tree
p1090
(dp1091
g7
I0
sg23
F3.921741087772938
sg14
I01
sbsg7
I1
sg15
I01
sg16
g57
sbsg15
I00
sg16
g40
sba(imyEvolve
Tree
p1092
(dp1093
g7
I3
sg8
(imyEvolve
Tree
p1094
(dp1095
g11
(imyEvolve
Tree
p1096
(dp1097
g11
(imyEvolve
Tree
p1098
(dp1099
g7
I0
sg14
I00
sbsg7
I1
sg15
I01
sg16
g57
sbsg7
I2
sg15
I01
sg16
g57
sbsg18
(imyEvolve
Tree
p1100
(dp1101
g11
(imyEvolve
Tree
p1102
(dp1103
g7
I1
sg8
(imyEvolve
Tree
p1104
(dp1105
g7
I0
sg14
I00
sbsg18
(imyEvolve
Tree
p1106
(dp1107
g7
I0
sg14
I00
sbsg15
I00
sg16
g40
sbsg7
I2
sg15
I01
sg16
g17
sbsg15
I00
sg16
g27
sba(imyEvolve
Tree
p1108
(dp1109
g7
I5
sg8
(imyEvolve
Tree
p1110
(dp1111
g11
(imyEvolve
Tree
p1112
(dp1113
g7
I3
sg8
(imyEvolve
Tree
p1114
(dp1115
g7
I2
sg8
(imyEvolve
Tree
p1116
(dp1117
g7
I1
sg8
(imyEvolve
Tree
p1118
(dp1119
g7
I0
sg14
I00
sbsg18
(imyEvolve
Tree
p1120
(dp1121
g7
I0
sg14
I00
sbsg15
I00
sg16
g40
sbsg18
(imyEvolve
Tree
p1122
(dp1123
g11
(imyEvolve
Tree
p1124
(dp1125
g7
I0
sg23
F2.2097177211615415
sg14
I01
sbsg7
I1
sg15
I01
sg16
g48
sbsg15
I00
sg16
g27
sbsg18
(imyEvolve
Tree
p1126
(dp1127
g11
(imyEvolve
Tree
p1128
(dp1129
g11
(imyEvolve
Tree
p1130
(dp1131
g7
I0
sg14
I00
sbsg7
I1
sg15
I01
sg16
g57
sbsg7
I2
sg15
I01
sg16
g48
sbsg15
I00
sg16
g27
sbsg7
I4
sg15
I01
sg16
g57
sbsg18
(imyEvolve
Tree
p1132
(dp1133
g7
I4
sg8
(imyEvolve
Tree
p1134
(dp1135
g11
(imyEvolve
Tree
p1136
(dp1137
g7
I2
sg8
(imyEvolve
Tree
p1138
(dp1139
g11
(imyEvolve
Tree
p1140
(dp1141
g7
I0
sg14
I00
sbsg7
I1
sg15
I01
sg16
g41
sbsg18
(imyEvolve
Tree
p1142
(dp1143
g7
I1
sg8
(imyEvolve
Tree
p1144
(dp1145
g7
I0
sg14
I00
sbsg18
(imyEvolve
Tree
p1146
(dp1147
g7
I0
sg14
I00
sbsg15
I00
sg16
g27
sbsg15
I00
sg16
g40
sbsg7
I3
sg15
I01
sg16
g57
sbsg18
(imyEvolve
Tree
p1148
(dp1149
g11
(imyEvolve
Tree
p1150
(dp1151
g11
(imyEvolve
Tree
p1152
(dp1153
g11
(imyEvolve
Tree
p1154
(dp1155
g7
I0
sg23
F-2.616074965279701
sg14
I01
sbsg7
I1
sg15
I01
sg16
g17
sbsg7
I2
sg15
I01
sg16
g48
sbsg7
I3
sg15
I01
sg16
g17
sbsg15
I00
sg16
g27
sbsg15
I00
sg16
g26
sba(imyEvolve
Tree
p1156
(dp1157
g11
(imyEvolve
Tree
p1158
(dp1159
g11
(imyEvolve
Tree
p1160
(dp1161
g11
(imyEvolve
Tree
p1162
(dp1163
g11
(imyEvolve
Tree
p1164
(dp1165
g7
I0
sg14
I00
sbsg7
I1
sg15
I01
sg16
g17
sbsg7
I2
sg15
I01
sg16
g41
sbsg7
I3
sg15
I01
sg16
g57
sbsg7
I4
sg15
I01
sg16
g41
sbaa(lp1166
(imyEvolve
Tree
p1167
(dp1168
g11
(imyEvolve
Tree
p1169
(dp1170
g11
(imyEvolve
Tree
p1171
(dp1172
g7
I1
sg8
(imyEvolve
Tree
p1173
(dp1174
g7
I0
sg14
I00
sbsg18
(imyEvolve
Tree
p1175
(dp1176
g7
I0
sg23
F-1.8142883029942416
sg14
I01
sbsg15
I00
sg16
g26
sbsg7
I2
sg15
I01
sg16
g41
sbsg7
I3
sg15
I01
sg16
g17
sba(imyEvolve
Tree
p1177
(dp1178
g7
I3
sg8
(imyEvolve
Tree
p1179
(dp1180
g7
I2
sg8
(imyEvolve
Tree
p1181
(dp1182
g7
I1
sg8
(imyEvolve
Tree
p1183
(dp1184
g7
I0
sg23
F-4.007152018270962
sg14
I01
sbsg18
(imyEvolve
Tree
p1185
(dp1186
g7
I0
sg23
F-2.765468288572157
sg14
I01
sbsg15
I00
sg16
g27
sbsg18
(imyEvolve
Tree
p1187
(dp1188
g11
(imyEvolve
Tree
p1189
(dp1190
g7
I0
sg23
F-1.3026319527519084
sg14
I01
sbsg7
I1
sg15
I01
sg16
g48
sbsg15
I00
sg16
g26
sbsg18
(imyEvolve
Tree
p1191
(dp1192
g7
I2
sg8
(imyEvolve
Tree
p1193
(dp1194
g7
I1
sg8
(imyEvolve
Tree
p1195
(dp1196
g7
I0
sg23
F-0.46962475494562117
sg14
I01
sbsg18
(imyEvolve
Tree
p1197
(dp1198
g7
I0
sg23
F4.281281108841146
sg14
I01
sbsg15
I00
sg16
g40
sbsg18
(imyEvolve
Tree
p1199
(dp1200
g11
(imyEvolve
Tree
p1201
(dp1202
g7
I0
sg14
I00
sbsg7
I1
sg15
I01
sg16
g48
sbsg15
I00
sg16
g40
sbsg15
I00
sg16
g26
sba(imyEvolve
Tree
p1203
(dp1204
g11
(imyEvolve
Tree
p1205
(dp1206
g7
I2
sg8
(imyEvolve
Tree
p1207
(dp1208
g11
(imyEvolve
Tree
p1209
(dp1210
g7
I0
sg14
I00
sbsg7
I1
sg15
I01
sg16
g41
sbsg18
(imyEvolve
Tree
p1211
(dp1212
g11
(imyEvolve
Tree
p1213
(dp1214
g7
I0
sg23
F4.814865390252034
sg14
I01
sbsg7
I1
sg15
I01
sg16
g41
sbsg15
I00
sg16
g26
sbsg7
I3
sg15
I01
sg16
g48
sba(imyEvolve
Tree
p1215
(dp1216
g7
I3
sg8
(imyEvolve
Tree
p1217
(dp1218
g11
(imyEvolve
Tree
p1219
(dp1220
g7
I1
sg8
(imyEvolve
Tree
p1221
(dp1222
g7
I0
sg23
F-3.993292235985418
sg14
I01
sbsg18
(imyEvolve
Tree
p1223
(dp1224
g7
I0
sg14
I00
sbsg15
I00
sg16
g40
sbsg7
I2
sg15
I01
sg16
g48
sbsg18
(imyEvolve
Tree
p1225
(dp1226
g11
(imyEvolve
Tree
p1227
(dp1228
g11
(imyEvolve
Tree
p1229
(dp1230
g7
I0
sg23
F-4.521002564069004
sg14
I01
sbsg7
I1
sg15
I01
sg16
g57
sbsg7
I2
sg15
I01
sg16
g17
sbsg15
I00
sg16
g26
sba(imyEvolve
Tree
p1231
(dp1232
g11
(imyEvolve
Tree
p1233
(dp1234
g11
(imyEvolve
Tree
p1235
(dp1236
g11
(imyEvolve
Tree
p1237
(dp1238
g7
I0
sg23
F-4.892341251315687
sg14
I01
sbsg7
I1
sg15
I01
sg16
g48
sbsg7
I2
sg15
I01
sg16
g41
sbsg7
I3
sg15
I01
sg16
g48
sba(imyEvolve
Tree
p1239
(dp1240
g11
(imyEvolve
Tree
p1241
(dp1242
g11
(imyEvolve
Tree
p1243
(dp1244
g7
I0
sg23
F-0.01989379620401799
sg14
I01
sbsg7
I1
sg15
I01
sg16
g17
sbsg7
I2
sg15
I01
sg16
g48
sba(imyEvolve
Tree
p1245
(dp1246
g7
I4
sg8
(imyEvolve
Tree
p1247
(dp1248
g11
(imyEvolve
Tree
p1249
(dp1250
g7
I2
sg8
(imyEvolve
Tree
p1251
(dp1252
g7
I1
sg8
(imyEvolve
Tree
p1253
(dp1254
g7
I0
sg14
I00
sbsg18
(imyEvolve
Tree
p1255
(dp1256
g7
I0
sg23
F-3.0223673408544114
sg14
I01
sbsg15
I00
sg16
g26
sbsg18
(imyEvolve
Tree
p1257
(dp1258
g7
I1
sg8
(imyEvolve
Tree
p1259
(dp1260
g7
I0
sg23
F-4.304810205618162
sg14
I01
sbsg18
(imyEvolve
Tree
p1261
(dp1262
g7
I0
sg23
F-2.2424354025130997
sg14
I01
sbsg15
I00
sg16
g26
sbsg15
I00
sg16
g27
sbsg7
I3
sg15
I01
sg16
g48
sbsg18
(imyEvolve
Tree
p1263
(dp1264
g11
(imyEvolve
Tree
p1265
(dp1266
g7
I2
sg8
(imyEvolve
Tree
p1267
(dp1268
g11
(imyEvolve
Tree
p1269
(dp1270
g7
I0
sg14
I00
sbsg7
I1
sg15
I01
sg16
g17
sbsg18
(imyEvolve
Tree
p1271
(dp1272
g11
(imyEvolve
Tree
p1273
(dp1274
g7
I0
sg14
I00
sbsg7
I1
sg15
I01
sg16
g48
sbsg15
I00
sg16
g40
sbsg7
I3
sg15
I01
sg16
g48
sbsg15
I00
sg16
g26
sba(imyEvolve
Tree
p1275
(dp1276
g7
I3
sg8
(imyEvolve
Tree
p1277
(dp1278
g11
(imyEvolve
Tree
p1279
(dp1280
g7
I1
sg8
(imyEvolve
Tree
p1281
(dp1282
g7
I0
sg14
I00
sbsg18
(imyEvolve
Tree
p1283
(dp1284
g7
I0
sg23
F-2.8433069877705575
sg14
I01
sbsg15
I00
sg16
g27
sbsg7
I2
sg15
I01
sg16
g41
sbsg18
(imyEvolve
Tree
p1285
(dp1286
g7
I2
sg8
(imyEvolve
Tree
p1287
(dp1288
g11
(imyEvolve
Tree
p1289
(dp1290
g7
I0
sg23
F-0.5088520082935499
sg14
I01
sbsg7
I1
sg15
I01
sg16
g41
sbsg18
(imyEvolve
Tree
p1291
(dp1292
g7
I1
sg8
(imyEvolve
Tree
p1293
(dp1294
g7
I0
sg14
I00
sbsg18
(imyEvolve
Tree
p1295
(dp1296
g7
I0
sg14
I00
sbsg15
I00
sg16
g40
sbsg15
I00
sg16
g27
sbsg15
I00
sg16
g27
sba(imyEvolve
Tree
p1297
(dp1298
g11
(imyEvolve
Tree
p1299
(dp1300
g11
(imyEvolve
Tree
p1301
(dp1302
g7
I1
sg8
(imyEvolve
Tree
p1303
(dp1304
g7
I0
sg14
I00
sbsg18
(imyEvolve
Tree
p1305
(dp1306
g7
I0
sg23
F0.3074816002799441
sg14
I01
sbsg15
I00
sg16
g40
sbsg7
I2
sg15
I01
sg16
g48
sbsg7
I3
sg15
I01
sg16
g48
sba(imyEvolve
Tree
p1307
(dp1308
g11
(imyEvolve
Tree
p1309
(dp1310
g11
(imyEvolve
Tree
p1311
(dp1312
g7
I3
sg8
(imyEvolve
Tree
p1313
(dp1314
g11
(imyEvolve
Tree
p1315
(dp1316
g7
I1
sg8
(imyEvolve
Tree
p1317
(dp1318
g7
I0
sg14
I00
sbsg18
(imyEvolve
Tree
p1319
(dp1320
g7
I0
sg14
I00
sbsg15
I00
sg16
g27
sbsg7
I2
sg15
I01
sg16
g48
sbsg18
(imyEvolve
Tree
p1321
(dp1322
g7
I2
sg8
(imyEvolve
Tree
p1323
(dp1324
g11
(imyEvolve
Tree
p1325
(dp1326
g7
I0
sg14
I00
sbsg7
I1
sg15
I01
sg16
g41
sbsg18
(imyEvolve
Tree
p1327
(dp1328
g7
I1
sg8
(imyEvolve
Tree
p1329
(dp1330
g7
I0
sg14
I00
sbsg18
(imyEvolve
Tree
p1331
(dp1332
g7
I0
sg14
I00
sbsg15
I00
sg16
g27
sbsg15
I00
sg16
g26
sbsg15
I00
sg16
g40
sbsg7
I4
sg15
I01
sg16
g17
sbsg7
I5
sg15
I01
sg16
g57
sba(imyEvolve
Tree
p1333
(dp1334
g7
I2
sg8
(imyEvolve
Tree
p1335
(dp1336
g11
(imyEvolve
Tree
p1337
(dp1338
g7
I0
sg23
F-4.761264795812032
sg14
I01
sbsg7
I1
sg15
I01
sg16
g17
sbsg18
(imyEvolve
Tree
p1339
(dp1340
g11
(imyEvolve
Tree
p1341
(dp1342
g7
I0
sg14
I00
sbsg7
I1
sg15
I01
sg16
g48
sbsg15
I00
sg16
g26
sba(imyEvolve
Tree
p1343
(dp1344
g11
(imyEvolve
Tree
p1345
(dp1346
g7
I4
sg8
(imyEvolve
Tree
p1347
(dp1348
g7
I3
sg8
(imyEvolve
Tree
p1349
(dp1350
g7
I2
sg8
(imyEvolve
Tree
p1351
(dp1352
g7
I1
sg8
(imyEvolve
Tree
p1353
(dp1354
g7
I0
sg23
F4.478659211062606
sg14
I01
sbsg18
(imyEvolve
Tree
p1355
(dp1356
g7
I0
sg23
F-3.6602446523295082
sg14
I01
sbsg15
I00
sg16
g26
sbsg18
(imyEvolve
Tree
p1357
(dp1358
g11
(imyEvolve
Tree
p1359
(dp1360
g7
I0
sg23
F-4.4683773621889875
sg14
I01
sbsg7
I1
sg15
I01
sg16
g57
sbsg15
I00
sg16
g40
sbsg18
(imyEvolve
Tree
p1361
(dp1362
g11
(imyEvolve
Tree
p1363
(dp1364
g7
I1
sg8
(imyEvolve
Tree
p1365
(dp1366
g7
I0
sg14
I00
sbsg18
(imyEvolve
Tree
p1367
(dp1368
g7
I0
sg23
F-0.40102045103131
sg14
I01
sbsg15
I00
sg16
g27
sbsg7
I2
sg15
I01
sg16
g17
sbsg15
I00
sg16
g27
sbsg18
(imyEvolve
Tree
p1369
(dp1370
g11
(imyEvolve
Tree
p1371
(dp1372
g11
(imyEvolve
Tree
p1373
(dp1374
g7
I1
sg8
(imyEvolve
Tree
p1375
(dp1376
g7
I0
sg14
I00
sbsg18
(imyEvolve
Tree
p1377
(dp1378
g7
I0
sg14
I00
sbsg15
I00
sg16
g27
sbsg7
I2
sg15
I01
sg16
g41
sbsg7
I3
sg15
I01
sg16
g57
sbsg15
I00
sg16
g27
sbsg7
I5
sg15
I01
sg16
g17
sba(imyEvolve
Tree
p1379
(dp1380
g7
I3
sg8
(imyEvolve
Tree
p1381
(dp1382
g11
(imyEvolve
Tree
p1383
(dp1384
g7
I1
sg8
(imyEvolve
Tree
p1385
(dp1386
g7
I0
sg14
I00
sbsg18
(imyEvolve
Tree
p1387
(dp1388
g7
I0
sg23
F2.1860695348549797
sg14
I01
sbsg15
I00
sg16
g40
sbsg7
I2
sg15
I01
sg16
g17
sbsg18
(imyEvolve
Tree
p1389
(dp1390
g11
(imyEvolve
Tree
p1391
(dp1392
g7
I1
sg8
(imyEvolve
Tree
p1393
(dp1394
g7
I0
sg23
F-4.378445686801415
sg14
I01
sbsg18
(imyEvolve
Tree
p1395
(dp1396
g7
I0
sg23
F2.843149952395697
sg14
I01
sbsg15
I00
sg16
g26
sbsg7
I2
sg15
I01
sg16
g41
sbsg15
I00
sg16
g26
sba(imyEvolve
Tree
p1397
(dp1398
g7
I2
sg8
(imyEvolve
Tree
p1399
(dp1400
g11
(imyEvolve
Tree
p1401
(dp1402
g7
I0
sg23
F0.9426916141119861
sg14
I01
sbsg7
I1
sg15
I01
sg16
g48
sbsg18
(imyEvolve
Tree
p1403
(dp1404
g7
I1
sg8
(imyEvolve
Tree
p1405
(dp1406
g7
I0
sg14
I00
sbsg18
(imyEvolve
Tree
p1407
(dp1408
g7
I0
sg14
I00
sbsg15
I00
sg16
g27
sbsg15
I00
sg16
g26
sba(imyEvolve
Tree
p1409
(dp1410
g7
I2
sg8
(imyEvolve
Tree
p1411
(dp1412
g11
(imyEvolve
Tree
p1413
(dp1414
g7
I0
sg23
F-3.622010333665374
sg14
I01
sbsg7
I1
sg15
I01
sg16
g48
sbsg18
(imyEvolve
Tree
p1415
(dp1416
g11
(imyEvolve
Tree
p1417
(dp1418
g7
I0
sg23
F-4.868953579588862
sg14
I01
sbsg7
I1
sg15
I01
sg16
g17
sbsg15
I00
sg16
g27
sba(imyEvolve
Tree
p1419
(dp1420
g11
(imyEvolve
Tree
p1421
(dp1422
g11
(imyEvolve
Tree
p1423
(dp1424
g11
(imyEvolve
Tree
p1425
(dp1426
g7
I1
sg8
(imyEvolve
Tree
p1427
(dp1428
g7
I0
sg14
I00
sbsg18
(imyEvolve
Tree
p1429
(dp1430
g7
I0
sg14
I00
sbsg15
I00
sg16
g40
sbsg7
I2
sg15
I01
sg16
g48
sbsg7
I3
sg15
I01
sg16
g41
sbsg7
I4
sg15
I01
sg16
g57
sba(imyEvolve
Tree
p1431
(dp1432
g7
I5
sg8
(imyEvolve
Tree
p1433
(dp1434
g11
(imyEvolve
Tree
p1435
(dp1436
g11
(imyEvolve
Tree
p1437
(dp1438
g11
(imyEvolve
Tree
p1439
(dp1440
g7
I1
sg8
(imyEvolve
Tree
p1441
(dp1442
g7
I0
sg23
F-1.9323001893774627
sg14
I01
sbsg18
(imyEvolve
Tree
p1443
(dp1444
g7
I0
sg23
F-4.751168743654221
sg14
I01
sbsg15
I00
sg16
g26
sbsg7
I2
sg15
I01
sg16
g48
sbsg7
I3
sg15
I01
sg16
g41
sbsg7
I4
sg15
I01
sg16
g17
sbsg18
(imyEvolve
Tree
p1445
(dp1446
g7
I4
sg8
(imyEvolve
Tree
p1447
(dp1448
g11
(imyEvolve
Tree
p1449
(dp1450
g11
(imyEvolve
Tree
p1451
(dp1452
g11
(imyEvolve
Tree
p1453
(dp1454
g7
I0
sg23
F4.749928307684371
sg14
I01
sbsg7
I1
sg15
I01
sg16
g57
sbsg7
I2
sg15
I01
sg16
g17
sbsg7
I3
sg15
I01
sg16
g48
sbsg18
(imyEvolve
Tree
p1455
(dp1456
g11
(imyEvolve
Tree
p1457
(dp1458
g11
(imyEvolve
Tree
p1459
(dp1460
g11
(imyEvolve
Tree
p1461
(dp1462
g7
I0
sg14
I00
sbsg7
I1
sg15
I01
sg16
g48
sbsg7
I2
sg15
I01
sg16
g17
sbsg7
I3
sg15
I01
sg16
g48
sbsg15
I00
sg16
g27
sbsg15
I00
sg16
g40
sba(imyEvolve
Tree
p1463
(dp1464
g11
(imyEvolve
Tree
p1465
(dp1466
g11
(imyEvolve
Tree
p1467
(dp1468
g7
I2
sg8
(imyEvolve
Tree
p1469
(dp1470
g11
(imyEvolve
Tree
p1471
(dp1472
g7
I0
sg14
I00
sbsg7
I1
sg15
I01
sg16
g57
sbsg18
(imyEvolve
Tree
p1473
(dp1474
g7
I1
sg8
(imyEvolve
Tree
p1475
(dp1476
g7
I0
sg14
I00
sbsg18
(imyEvolve
Tree
p1477
(dp1478
g7
I0
sg14
I00
sbsg15
I00
sg16
g27
sbsg15
I00
sg16
g40
sbsg7
I3
sg15
I01
sg16
g41
sbsg7
I4
sg15
I01
sg16
g17
sbaasS'weightSharing'
p1479
(lp1480
I00
aI00
asS'fitnessValid'
p1481
I00
sS'fitness'
p1482
cnumpy.core.multiarray
scalar
p1483
(cnumpy
dtype
p1484
(S'f8'
p1485
I0
I1
tp1486
Rp1487
(I3
S'<'
p1488
NNNI-1
I-1
I0
tp1489
bS'\x00\x000n\xa3\x89\xb9\xbe'
p1490
tp1491
Rp1492
sS'alpha'
p1493
F0.008924612008610111
sS'resolution'
p1494
I64
sb.