(imyEvolve
Individual
p0
(dp1
S'funcs'
p2
(lp3
(lp4
(imyEvolve
Tree
p5
(dp6
S'below'
p7
(imyEvolve
Tree
p8
(dp9
g7
(imyEvolve
Tree
p10
(dp11
g7
(imyEvolve
Tree
p12
(dp13
S'depth'
p14
I0
sS'isConstant'
p15
I00
sbsg14
I1
sS'single'
p16
I01
sS'op'
p17
cmath
cos
p18
sbsg14
I2
sg16
I01
sg17
cmyEvolve
absSqrt
p19
sbsg14
I3
sg16
I01
sg17
g18
sba(imyEvolve
Tree
p20
(dp21
g14
I2
sS'left'
p22
(imyEvolve
Tree
p23
(dp24
g14
I1
sg22
(imyEvolve
Tree
p25
(dp26
g14
I0
sg15
I00
sbsS'right'
p27
(imyEvolve
Tree
p28
(dp29
g14
I0
sg15
I00
sbsg16
I00
sg17
coperator
add
p30
sbsg27
(imyEvolve
Tree
p31
(dp32
g14
I1
sg22
(imyEvolve
Tree
p33
(dp34
g14
I0
sS'constant'
p35
F-2.409543553029585
sg15
I01
sbsg27
(imyEvolve
Tree
p36
(dp37
g14
I0
sg15
I00
sbsg16
I00
sg17
coperator
mul
p38
sbsg16
I00
sg17
coperator
sub
p39
sba(imyEvolve
Tree
p40
(dp41
g22
(imyEvolve
Tree
p42
(dp43
g22
(imyEvolve
Tree
p44
(dp45
g14
I0
sg15
I00
sbsg14
I1
sg27
(imyEvolve
Tree
p46
(dp47
g14
I0
sg15
I00
sbsg16
I00
sg17
g39
sbsg14
I2
sg27
(imyEvolve
Tree
p48
(dp49
g22
(imyEvolve
Tree
p50
(dp51
g14
I0
sg15
I00
sbsg14
I1
sg27
(imyEvolve
Tree
p52
(dp53
g14
I0
sg35
F1.1997862212991812
sg15
I01
sbsg16
I00
sg17
g38
sbsg16
I00
sg17
g30
sba(imyEvolve
Tree
p54
(dp55
g7
(imyEvolve
Tree
p56
(dp57
g22
(imyEvolve
Tree
p58
(dp59
g22
(imyEvolve
Tree
p60
(dp61
g14
I0
sg35
F0.36826992967050387
sg15
I01
sbsg14
I1
sg27
(imyEvolve
Tree
p62
(dp63
g14
I0
sg35
F4.856780197386492
sg15
I01
sbsg16
I00
sg17
g39
sbsg14
I2
sg27
(imyEvolve
Tree
p64
(dp65
g22
(imyEvolve
Tree
p66
(dp67
g14
I0
sg35
F-0.5563782429086759
sg15
I01
sbsg14
I1
sg27
(imyEvolve
Tree
p68
(dp69
g14
I0
sg35
F3.779247722163099
sg15
I01
sbsg16
I00
sg17
g38
sbsg16
I00
sg17
g39
sbsg14
I3
sg16
I01
sg17
cmath
sin
p70
sba(imyEvolve
Tree
p71
(dp72
g14
I3
sg22
(imyEvolve
Tree
p73
(dp74
g7
(imyEvolve
Tree
p75
(dp76
g7
(imyEvolve
Tree
p77
(dp78
g14
I0
sg15
I00
sbsg14
I1
sg16
I01
sg17
cmyEvolve
square
p79
sbsg14
I2
sg16
I01
sg17
g79
sbsg27
(imyEvolve
Tree
p80
(dp81
g14
I2
sg22
(imyEvolve
Tree
p82
(dp83
g14
I1
sg22
(imyEvolve
Tree
p84
(dp85
g14
I0
sg35
F-4.025257740130473
sg15
I01
sbsg27
(imyEvolve
Tree
p86
(dp87
g14
I0
sg35
F0.7701134916899255
sg15
I01
sbsg16
I00
sg17
g38
sbsg27
(imyEvolve
Tree
p88
(dp89
g7
(imyEvolve
Tree
p90
(dp91
g14
I0
sg15
I00
sbsg14
I1
sg16
I01
sg17
g18
sbsg16
I00
sg17
g30
sbsg16
I00
sg17
g39
sba(imyEvolve
Tree
p92
(dp93
g22
(imyEvolve
Tree
p94
(dp95
g22
(imyEvolve
Tree
p96
(dp97
g7
(imyEvolve
Tree
p98
(dp99
g14
I0
sg15
I00
sbsg14
I1
sg16
I01
sg17
g19
sbsg14
I2
sg27
(imyEvolve
Tree
p100
(dp101
g22
(imyEvolve
Tree
p102
(dp103
g14
I0
sg35
F1.6357787650675082
sg15
I01
sbsg14
I1
sg27
(imyEvolve
Tree
p104
(dp105
g14
I0
sg15
I00
sbsg16
I00
sg17
g39
sbsg16
I00
sg17
g39
sbsg14
I3
sg27
(imyEvolve
Tree
p106
(dp107
g7
(imyEvolve
Tree
p108
(dp109
g22
(imyEvolve
Tree
p110
(dp111
g14
I0
sg35
F-0.9555988417013017
sg15
I01
sbsg14
I1
sg27
(imyEvolve
Tree
p112
(dp113
g14
I0
sg15
I00
sbsg16
I00
sg17
g39
sbsg14
I2
sg16
I01
sg17
g18
sbsg16
I00
sg17
g39
sba(imyEvolve
Tree
p114
(dp115
g7
(imyEvolve
Tree
p116
(dp117
g22
(imyEvolve
Tree
p118
(dp119
g14
I0
sg35
F0.7333504045363748
sg15
I01
sbsg14
I1
sg27
(imyEvolve
Tree
p120
(dp121
g14
I0
sg15
I00
sbsg16
I00
sg17
g38
sbsg14
I2
sg16
I01
sg17
g19
sba(imyEvolve
Tree
p122
(dp123
g7
(imyEvolve
Tree
p124
(dp125
g7
(imyEvolve
Tree
p126
(dp127
g7
(imyEvolve
Tree
p128
(dp129
g22
(imyEvolve
Tree
p130
(dp131
g7
(imyEvolve
Tree
p132
(dp133
g14
I0
sg35
F-1.5266529772187711
sg15
I01
sbsg14
I1
sg16
I01
sg17
g18
sbsg14
I2
sg27
(imyEvolve
Tree
p134
(dp135
g22
(imyEvolve
Tree
p136
(dp137
g14
I0
sg35
F2.490962801265403
sg15
I01
sbsg14
I1
sg27
(imyEvolve
Tree
p138
(dp139
g14
I0
sg15
I00
sbsg16
I00
sg17
g39
sbsg16
I00
sg17
g30
sbsg14
I3
sg16
I01
sg17
g70
sbsg14
I4
sg16
I01
sg17
g19
sbsg14
I5
sg16
I01
sg17
g19
sba(imyEvolve
Tree
p140
(dp141
g7
(imyEvolve
Tree
p142
(dp143
g7
(imyEvolve
Tree
p144
(dp145
g14
I0
sg35
F3.4400536344525285
sg15
I01
sbsg14
I1
sg16
I01
sg17
g18
sbsg14
I2
sg16
I01
sg17
g70
sba(imyEvolve
Tree
p146
(dp147
g14
I4
sg22
(imyEvolve
Tree
p148
(dp149
g7
(imyEvolve
Tree
p150
(dp151
g14
I2
sg22
(imyEvolve
Tree
p152
(dp153
g14
I1
sg22
(imyEvolve
Tree
p154
(dp155
g14
I0
sg35
F-2.3338443525231
sg15
I01
sbsg27
(imyEvolve
Tree
p156
(dp157
g14
I0
sg15
I00
sbsg16
I00
sg17
g30
sbsg27
(imyEvolve
Tree
p158
(dp159
g14
I1
sg22
(imyEvolve
Tree
p160
(dp161
g14
I0
sg15
I00
sbsg27
(imyEvolve
Tree
p162
(dp163
g14
I0
sg15
I00
sbsg16
I00
sg17
g38
sbsg16
I00
sg17
g30
sbsg14
I3
sg16
I01
sg17
g18
sbsg27
(imyEvolve
Tree
p164
(dp165
g14
I3
sg22
(imyEvolve
Tree
p166
(dp167
g7
(imyEvolve
Tree
p168
(dp169
g14
I1
sg22
(imyEvolve
Tree
p170
(dp171
g14
I0
sg15
I00
sbsg27
(imyEvolve
Tree
p172
(dp173
g14
I0
sg35
F-1.8979375141393415
sg15
I01
sbsg16
I00
sg17
g38
sbsg14
I2
sg16
I01
sg17
g70
sbsg27
(imyEvolve
Tree
p174
(dp175
g7
(imyEvolve
Tree
p176
(dp177
g14
I1
sg22
(imyEvolve
Tree
p178
(dp179
g14
I0
sg35
F2.2094062000896493
sg15
I01
sbsg27
(imyEvolve
Tree
p180
(dp181
g14
I0
sg15
I00
sbsg16
I00
sg17
g30
sbsg14
I2
sg16
I01
sg17
g19
sbsg16
I00
sg17
g39
sbsg16
I00
sg17
g39
sba(imyEvolve
Tree
p182
(dp183
g7
(imyEvolve
Tree
p184
(dp185
g7
(imyEvolve
Tree
p186
(dp187
g22
(imyEvolve
Tree
p188
(dp189
g14
I0
sg15
I00
sbsg14
I1
sg27
(imyEvolve
Tree
p190
(dp191
g14
I0
sg35
F3.994219386937745
sg15
I01
sbsg16
I00
sg17
g39
sbsg14
I2
sg16
I01
sg17
g70
sbsg14
I3
sg16
I01
sg17
g79
sba(imyEvolve
Tree
p192
(dp193
g22
(imyEvolve
Tree
p194
(dp195
g22
(imyEvolve
Tree
p196
(dp197
g14
I0
sg35
F-1.2994539351659098
sg15
I01
sbsg14
I1
sg27
(imyEvolve
Tree
p198
(dp199
g14
I0
sg35
F-2.5765781421361975
sg15
I01
sbsg16
I00
sg17
g38
sbsg14
I2
sg27
(imyEvolve
Tree
p200
(dp201
g7
(imyEvolve
Tree
p202
(dp203
g14
I0
sg15
I00
sbsg14
I1
sg16
I01
sg17
g18
sbsg16
I00
sg17
g39
sba(imyEvolve
Tree
p204
(dp205
g14
I3
sg22
(imyEvolve
Tree
p206
(dp207
g7
(imyEvolve
Tree
p208
(dp209
g14
I1
sg22
(imyEvolve
Tree
p210
(dp211
g14
I0
sg15
I00
sbsg27
(imyEvolve
Tree
p212
(dp213
g14
I0
sg15
I00
sbsg16
I00
sg17
g39
sbsg14
I2
sg16
I01
sg17
g18
sbsg27
(imyEvolve
Tree
p214
(dp215
g7
(imyEvolve
Tree
p216
(dp217
g7
(imyEvolve
Tree
p218
(dp219
g14
I0
sg35
F4.506614832557354
sg15
I01
sbsg14
I1
sg16
I01
sg17
g18
sbsg14
I2
sg16
I01
sg17
g19
sbsg16
I00
sg17
g38
sba(imyEvolve
Tree
p220
(dp221
g7
(imyEvolve
Tree
p222
(dp223
g7
(imyEvolve
Tree
p224
(dp225
g22
(imyEvolve
Tree
p226
(dp227
g7
(imyEvolve
Tree
p228
(dp229
g7
(imyEvolve
Tree
p230
(dp231
g14
I0
sg15
I00
sbsg14
I1
sg16
I01
sg17
g70
sbsg14
I2
sg16
I01
sg17
g79
sbsg14
I3
sg27
(imyEvolve
Tree
p232
(dp233
g22
(imyEvolve
Tree
p234
(dp235
g7
(imyEvolve
Tree
p236
(dp237
g14
I0
sg35
F-4.496614673175651
sg15
I01
sbsg14
I1
sg16
I01
sg17
g19
sbsg14
I2
sg27
(imyEvolve
Tree
p238
(dp239
g7
(imyEvolve
Tree
p240
(dp241
g14
I0
sg15
I00
sbsg14
I1
sg16
I01
sg17
g19
sbsg16
I00
sg17
g39
sbsg16
I00
sg17
g30
sbsg14
I4
sg16
I01
sg17
g70
sbsg14
I5
sg16
I01
sg17
g19
sba(imyEvolve
Tree
p242
(dp243
g22
(imyEvolve
Tree
p244
(dp245
g22
(imyEvolve
Tree
p246
(dp247
g7
(imyEvolve
Tree
p248
(dp249
g22
(imyEvolve
Tree
p250
(dp251
g7
(imyEvolve
Tree
p252
(dp253
g14
I0
sg15
I00
sbsg14
I1
sg16
I01
sg17
g18
sbsg14
I2
sg27
(imyEvolve
Tree
p254
(dp255
g22
(imyEvolve
Tree
p256
(dp257
g14
I0
sg35
F-0.32993897016716645
sg15
I01
sbsg14
I1
sg27
(imyEvolve
Tree
p258
(dp259
g14
I0
sg35
F-2.76741041531153
sg15
I01
sbsg16
I00
sg17
g30
sbsg16
I00
sg17
g30
sbsg14
I3
sg16
I01
sg17
g18
sbsg14
I4
sg27
(imyEvolve
Tree
p260
(dp261
g22
(imyEvolve
Tree
p262
(dp263
g7
(imyEvolve
Tree
p264
(dp265
g7
(imyEvolve
Tree
p266
(dp267
g14
I0
sg15
I00
sbsg14
I1
sg16
I01
sg17
g19
sbsg14
I2
sg16
I01
sg17
g19
sbsg14
I3
sg27
(imyEvolve
Tree
p268
(dp269
g7
(imyEvolve
Tree
p270
(dp271
g7
(imyEvolve
Tree
p272
(dp273
g14
I0
sg35
F0.6165397513670925
sg15
I01
sbsg14
I1
sg16
I01
sg17
g70
sbsg14
I2
sg16
I01
sg17
g19
sbsg16
I00
sg17
g30
sbsg16
I00
sg17
g38
sbsg14
I5
sg27
(imyEvolve
Tree
p274
(dp275
g22
(imyEvolve
Tree
p276
(dp277
g7
(imyEvolve
Tree
p278
(dp279
g22
(imyEvolve
Tree
p280
(dp281
g22
(imyEvolve
Tree
p282
(dp283
g14
I0
sg35
F1.1722639674977833
sg15
I01
sbsg14
I1
sg27
(imyEvolve
Tree
p284
(dp285
g14
I0
sg15
I00
sbsg16
I00
sg17
g39
sbsg14
I2
sg27
(imyEvolve
Tree
p286
(dp287
g22
(imyEvolve
Tree
p288
(dp289
g14
I0
sg35
F-2.5237432323124565
sg15
I01
sbsg14
I1
sg27
(imyEvolve
Tree
p290
(dp291
g14
I0
sg35
F-0.9374002308326759
sg15
I01
sbsg16
I00
sg17
g38
sbsg16
I00
sg17
g30
sbsg14
I3
sg16
I01
sg17
g79
sbsg14
I4
sg27
(imyEvolve
Tree
p292
(dp293
g7
(imyEvolve
Tree
p294
(dp295
g22
(imyEvolve
Tree
p296
(dp297
g7
(imyEvolve
Tree
p298
(dp299
g14
I0
sg35
F-3.9657103343705313
sg15
I01
sbsg14
I1
sg16
I01
sg17
g70
sbsg14
I2
sg27
(imyEvolve
Tree
p300
(dp301
g22
(imyEvolve
Tree
p302
(dp303
g14
I0
sg35
F-4.129501668406897
sg15
I01
sbsg14
I1
sg27
(imyEvolve
Tree
p304
(dp305
g14
I0
sg15
I00
sbsg16
I00
sg17
g39
sbsg16
I00
sg17
g38
sbsg14
I3
sg16
I01
sg17
g79
sbsg16
I00
sg17
g39
sbsg16
I00
sg17
g39
sba(imyEvolve
Tree
p306
(dp307
g7
(imyEvolve
Tree
p308
(dp309
g22
(imyEvolve
Tree
p310
(dp311
g7
(imyEvolve
Tree
p312
(dp313
g7
(imyEvolve
Tree
p314
(dp315
g14
I0
sg35
F4.864363591071934
sg15
I01
sbsg14
I1
sg16
I01
sg17
g18
sbsg14
I2
sg16
I01
sg17
g79
sbsg14
I3
sg27
(imyEvolve
Tree
p316
(dp317
g7
(imyEvolve
Tree
p318
(dp319
g22
(imyEvolve
Tree
p320
(dp321
g14
I0
sg15
I00
sbsg14
I1
sg27
(imyEvolve
Tree
p322
(dp323
g14
I0
sg35
F3.9655982467009014
sg15
I01
sbsg16
I00
sg17
g38
sbsg14
I2
sg16
I01
sg17
g79
sbsg16
I00
sg17
g38
sbsg14
I4
sg16
I01
sg17
g79
sba(imyEvolve
Tree
p324
(dp325
g22
(imyEvolve
Tree
p326
(dp327
g22
(imyEvolve
Tree
p328
(dp329
g7
(imyEvolve
Tree
p330
(dp331
g14
I0
sg35
F-1.5928010025755048
sg15
I01
sbsg14
I1
sg16
I01
sg17
g18
sbsg14
I2
sg27
(imyEvolve
Tree
p332
(dp333
g22
(imyEvolve
Tree
p334
(dp335
g14
I0
sg35
F-0.2856660002625251
sg15
I01
sbsg14
I1
sg27
(imyEvolve
Tree
p336
(dp337
g14
I0
sg35
F4.192145816549843
sg15
I01
sbsg16
I00
sg17
g38
sbsg16
I00
sg17
g39
sbsg14
I3
sg27
(imyEvolve
Tree
p338
(dp339
g22
(imyEvolve
Tree
p340
(dp341
g22
(imyEvolve
Tree
p342
(dp343
g14
I0
sg35
F4.963102354681556
sg15
I01
sbsg14
I1
sg27
(imyEvolve
Tree
p344
(dp345
g14
I0
sg15
I00
sbsg16
I00
sg17
g39
sbsg14
I2
sg27
(imyEvolve
Tree
p346
(dp347
g7
(imyEvolve
Tree
p348
(dp349
g14
I0
sg15
I00
sbsg14
I1
sg16
I01
sg17
g70
sbsg16
I00
sg17
g30
sbsg16
I00
sg17
g30
sba(imyEvolve
Tree
p350
(dp351
g22
(imyEvolve
Tree
p352
(dp353
g22
(imyEvolve
Tree
p354
(dp355
g7
(imyEvolve
Tree
p356
(dp357
g14
I0
sg15
I00
sbsg14
I1
sg16
I01
sg17
g70
sbsg14
I2
sg27
(imyEvolve
Tree
p358
(dp359
g22
(imyEvolve
Tree
p360
(dp361
g14
I0
sg35
F4.1338905392528975
sg15
I01
sbsg14
I1
sg27
(imyEvolve
Tree
p362
(dp363
g14
I0
sg35
F-3.429864847490137
sg15
I01
sbsg16
I00
sg17
g30
sbsg16
I00
sg17
g39
sbsg14
I3
sg27
(imyEvolve
Tree
p364
(dp365
g22
(imyEvolve
Tree
p366
(dp367
g7
(imyEvolve
Tree
p368
(dp369
g14
I0
sg15
I00
sbsg14
I1
sg16
I01
sg17
g79
sbsg14
I2
sg27
(imyEvolve
Tree
p370
(dp371
g22
(imyEvolve
Tree
p372
(dp373
g14
I0
sg15
I00
sbsg14
I1
sg27
(imyEvolve
Tree
p374
(dp375
g14
I0
sg15
I00
sbsg16
I00
sg17
g39
sbsg16
I00
sg17
g39
sbsg16
I00
sg17
g38
sba(imyEvolve
Tree
p376
(dp377
g14
I4
sg22
(imyEvolve
Tree
p378
(dp379
g7
(imyEvolve
Tree
p380
(dp381
g14
I2
sg22
(imyEvolve
Tree
p382
(dp383
g14
I1
sg22
(imyEvolve
Tree
p384
(dp385
g14
I0
sg15
I00
sbsg27
(imyEvolve
Tree
p386
(dp387
g14
I0
sg15
I00
sbsg16
I00
sg17
g39
sbsg27
(imyEvolve
Tree
p388
(dp389
g14
I1
sg22
(imyEvolve
Tree
p390
(dp391
g14
I0
sg35
F-4.525698875536653
sg15
I01
sbsg27
(imyEvolve
Tree
p392
(dp393
g14
I0
sg35
F-3.6710609865937305
sg15
I01
sbsg16
I00
sg17
g39
sbsg16
I00
sg17
g30
sbsg14
I3
sg16
I01
sg17
g70
sbsg27
(imyEvolve
Tree
p394
(dp395
g14
I3
sg22
(imyEvolve
Tree
p396
(dp397
g7
(imyEvolve
Tree
p398
(dp399
g7
(imyEvolve
Tree
p400
(dp401
g14
I0
sg15
I00
sbsg14
I1
sg16
I01
sg17
g70
sbsg14
I2
sg16
I01
sg17
g79
sbsg27
(imyEvolve
Tree
p402
(dp403
g14
I2
sg22
(imyEvolve
Tree
p404
(dp405
g7
(imyEvolve
Tree
p406
(dp407
g14
I0
sg35
F-4.553966895948507
sg15
I01
sbsg14
I1
sg16
I01
sg17
g18
sbsg27
(imyEvolve
Tree
p408
(dp409
g7
(imyEvolve
Tree
p410
(dp411
g14
I0
sg15
I00
sbsg14
I1
sg16
I01
sg17
g79
sbsg16
I00
sg17
g38
sbsg16
I00
sg17
g30
sbsg16
I00
sg17
g30
sbaa(lp412
(imyEvolve
Tree
p413
(dp414
g22
(imyEvolve
Tree
p415
(dp416
g7
(imyEvolve
Tree
p417
(dp418
g7
(imyEvolve
Tree
p419
(dp420
g7
(imyEvolve
Tree
p421
(dp422
g22
(imyEvolve
Tree
p423
(dp424
g14
I0
sg15
I00
sbsg14
I1
sg27
(imyEvolve
Tree
p425
(dp426
g14
I0
sg35
F1.5111061961564856
sg15
I01
sbsg16
I00
sg17
g30
sbsg14
I2
sg16
I01
sg17
g18
sbsg14
I3
sg16
I01
sg17
g70
sbsg14
I4
sg16
I01
sg17
g79
sbsg14
I5
sg27
(imyEvolve
Tree
p427
(dp428
g7
(imyEvolve
Tree
p429
(dp430
g7
(imyEvolve
Tree
p431
(dp432
g7
(imyEvolve
Tree
p433
(dp434
g7
(imyEvolve
Tree
p435
(dp436
g14
I0
sg35
F3.3487763688746313
sg15
I01
sbsg14
I1
sg16
I01
sg17
g70
sbsg14
I2
sg16
I01
sg17
g70
sbsg14
I3
sg16
I01
sg17
g70
sbsg14
I4
sg16
I01
sg17
g18
sbsg16
I00
sg17
g38
sba(imyEvolve
Tree
p437
(dp438
g22
(imyEvolve
Tree
p439
(dp440
g7
(imyEvolve
Tree
p441
(dp442
g14
I0
sg35
F3.6303689249808784
sg15
I01
sbsg14
I1
sg16
I01
sg17
g19
sbsg14
I2
sg27
(imyEvolve
Tree
p443
(dp444
g7
(imyEvolve
Tree
p445
(dp446
g14
I0
sg15
I00
sbsg14
I1
sg16
I01
sg17
g19
sbsg16
I00
sg17
g39
sba(imyEvolve
Tree
p447
(dp448
g22
(imyEvolve
Tree
p449
(dp450
g7
(imyEvolve
Tree
p451
(dp452
g7
(imyEvolve
Tree
p453
(dp454
g14
I0
sg15
I00
sbsg14
I1
sg16
I01
sg17
g19
sbsg14
I2
sg16
I01
sg17
g19
sbsg14
I3
sg27
(imyEvolve
Tree
p455
(dp456
g22
(imyEvolve
Tree
p457
(dp458
g22
(imyEvolve
Tree
p459
(dp460
g14
I0
sg35
F-3.2349969979401108
sg15
I01
sbsg14
I1
sg27
(imyEvolve
Tree
p461
(dp462
g14
I0
sg15
I00
sbsg16
I00
sg17
g39
sbsg14
I2
sg27
(imyEvolve
Tree
p463
(dp464
g22
(imyEvolve
Tree
p465
(dp466
g14
I0
sg35
F3.450323439949136
sg15
I01
sbsg14
I1
sg27
(imyEvolve
Tree
p467
(dp468
g14
I0
sg15
I00
sbsg16
I00
sg17
g30
sbsg16
I00
sg17
g30
sbsg16
I00
sg17
g30
sba(imyEvolve
Tree
p469
(dp470
g7
(imyEvolve
Tree
p471
(dp472
g22
(imyEvolve
Tree
p473
(dp474
g14
I0
sg35
F-0.06766433553183848
sg15
I01
sbsg14
I1
sg27
(imyEvolve
Tree
p475
(dp476
g14
I0
sg15
I00
sbsg16
I00
sg17
g39
sbsg14
I2
sg16
I01
sg17
g79
sba(imyEvolve
Tree
p477
(dp478
g14
I5
sg22
(imyEvolve
Tree
p479
(dp480
g7
(imyEvolve
Tree
p481
(dp482
g14
I3
sg22
(imyEvolve
Tree
p483
(dp484
g7
(imyEvolve
Tree
p485
(dp486
g14
I1
sg22
(imyEvolve
Tree
p487
(dp488
g14
I0
sg35
F-4.093502948649752
sg15
I01
sbsg27
(imyEvolve
Tree
p489
(dp490
g14
I0
sg15
I00
sbsg16
I00
sg17
g38
sbsg14
I2
sg16
I01
sg17
g79
sbsg27
(imyEvolve
Tree
p491
(dp492
g14
I2
sg22
(imyEvolve
Tree
p493
(dp494
g14
I1
sg22
(imyEvolve
Tree
p495
(dp496
g14
I0
sg35
F-0.3283895496731173
sg15
I01
sbsg27
(imyEvolve
Tree
p497
(dp498
g14
I0
sg15
I00
sbsg16
I00
sg17
g39
sbsg27
(imyEvolve
Tree
p499
(dp500
g7
(imyEvolve
Tree
p501
(dp502
g14
I0
sg35
F0.7432431217196864
sg15
I01
sbsg14
I1
sg16
I01
sg17
g79
sbsg16
I00
sg17
g39
sbsg16
I00
sg17
g39
sbsg14
I4
sg16
I01
sg17
g79
sbsg27
(imyEvolve
Tree
p503
(dp504
g14
I4
sg22
(imyEvolve
Tree
p505
(dp506
g7
(imyEvolve
Tree
p507
(dp508
g7
(imyEvolve
Tree
p509
(dp510
g14
I1
sg22
(imyEvolve
Tree
p511
(dp512
g14
I0
sg35
F4.9839524094719305
sg15
I01
sbsg27
(imyEvolve
Tree
p513
(dp514
g14
I0
sg15
I00
sbsg16
I00
sg17
g39
sbsg14
I2
sg16
I01
sg17
g70
sbsg14
I3
sg16
I01
sg17
g18
sbsg27
(imyEvolve
Tree
p515
(dp516
g14
I3
sg22
(imyEvolve
Tree
p517
(dp518
g7
(imyEvolve
Tree
p519
(dp520
g7
(imyEvolve
Tree
p521
(dp522
g14
I0
sg15
I00
sbsg14
I1
sg16
I01
sg17
g18
sbsg14
I2
sg16
I01
sg17
g79
sbsg27
(imyEvolve
Tree
p523
(dp524
g14
I2
sg22
(imyEvolve
Tree
p525
(dp526
g14
I1
sg22
(imyEvolve
Tree
p527
(dp528
g14
I0
sg35
F-0.6255062766543276
sg15
I01
sbsg27
(imyEvolve
Tree
p529
(dp530
g14
I0
sg15
I00
sbsg16
I00
sg17
g30
sbsg27
(imyEvolve
Tree
p531
(dp532
g7
(imyEvolve
Tree
p533
(dp534
g14
I0
sg35
F-4.823031702276993
sg15
I01
sbsg14
I1
sg16
I01
sg17
g79
sbsg16
I00
sg17
g38
sbsg16
I00
sg17
g39
sbsg16
I00
sg17
g38
sbsg16
I00
sg17
g38
sba(imyEvolve
Tree
p535
(dp536
g7
(imyEvolve
Tree
p537
(dp538
g22
(imyEvolve
Tree
p539
(dp540
g22
(imyEvolve
Tree
p541
(dp542
g14
I0
sg35
F-0.1894346779309375
sg15
I01
sbsg14
I1
sg27
(imyEvolve
Tree
p543
(dp544
g14
I0
sg35
F-1.372944929387189
sg15
I01
sbsg16
I00
sg17
g30
sbsg14
I2
sg27
(imyEvolve
Tree
p545
(dp546
g7
(imyEvolve
Tree
p547
(dp548
g14
I0
sg35
F-4.510334855593234
sg15
I01
sbsg14
I1
sg16
I01
sg17
g70
sbsg16
I00
sg17
g39
sbsg14
I3
sg16
I01
sg17
g19
sba(imyEvolve
Tree
p549
(dp550
g14
I4
sg22
(imyEvolve
Tree
p551
(dp552
g14
I3
sg22
(imyEvolve
Tree
p553
(dp554
g14
I2
sg22
(imyEvolve
Tree
p555
(dp556
g7
(imyEvolve
Tree
p557
(dp558
g14
I0
sg15
I00
sbsg14
I1
sg16
I01
sg17
g70
sbsg27
(imyEvolve
Tree
p559
(dp560
g14
I1
sg22
(imyEvolve
Tree
p561
(dp562
g14
I0
sg35
F-4.718234694381039
sg15
I01
sbsg27
(imyEvolve
Tree
p563
(dp564
g14
I0
sg35
F-1.590370053811625
sg15
I01
sbsg16
I00
sg17
g39
sbsg16
I00
sg17
g39
sbsg27
(imyEvolve
Tree
p565
(dp566
g7
(imyEvolve
Tree
p567
(dp568
g7
(imyEvolve
Tree
p569
(dp570
g14
I0
sg15
I00
sbsg14
I1
sg16
I01
sg17
g70
sbsg14
I2
sg16
I01
sg17
g79
sbsg16
I00
sg17
g38
sbsg27
(imyEvolve
Tree
p571
(dp572
g7
(imyEvolve
Tree
p573
(dp574
g7
(imyEvolve
Tree
p575
(dp576
g7
(imyEvolve
Tree
p577
(dp578
g14
I0
sg35
F0.3851430697377909
sg15
I01
sbsg14
I1
sg16
I01
sg17
g79
sbsg14
I2
sg16
I01
sg17
g79
sbsg14
I3
sg16
I01
sg17
g19
sbsg16
I00
sg17
g38
sba(imyEvolve
Tree
p579
(dp580
g7
(imyEvolve
Tree
p581
(dp582
g7
(imyEvolve
Tree
p583
(dp584
g7
(imyEvolve
Tree
p585
(dp586
g14
I0
sg35
F-1.1693474213524824
sg15
I01
sbsg14
I1
sg16
I01
sg17
g19
sbsg14
I2
sg16
I01
sg17
g18
sbsg14
I3
sg16
I01
sg17
g18
sba(imyEvolve
Tree
p587
(dp588
g14
I2
sg22
(imyEvolve
Tree
p589
(dp590
g7
(imyEvolve
Tree
p591
(dp592
g14
I0
sg35
F1.1879120563417729
sg15
I01
sbsg14
I1
sg16
I01
sg17
g79
sbsg27
(imyEvolve
Tree
p593
(dp594
g14
I1
sg22
(imyEvolve
Tree
p595
(dp596
g14
I0
sg35
F0.14049778121751455
sg15
I01
sbsg27
(imyEvolve
Tree
p597
(dp598
g14
I0
sg35
F-4.8493191474316
sg15
I01
sbsg16
I00
sg17
g30
sbsg16
I00
sg17
g38
sba(imyEvolve
Tree
p599
(dp600
g22
(imyEvolve
Tree
p601
(dp602
g22
(imyEvolve
Tree
p603
(dp604
g7
(imyEvolve
Tree
p605
(dp606
g7
(imyEvolve
Tree
p607
(dp608
g14
I0
sg15
I00
sbsg14
I1
sg16
I01
sg17
g70
sbsg14
I2
sg16
I01
sg17
g19
sbsg14
I3
sg27
(imyEvolve
Tree
p609
(dp610
g22
(imyEvolve
Tree
p611
(dp612
g7
(imyEvolve
Tree
p613
(dp614
g14
I0
sg15
I00
sbsg14
I1
sg16
I01
sg17
g79
sbsg14
I2
sg27
(imyEvolve
Tree
p615
(dp616
g22
(imyEvolve
Tree
p617
(dp618
g14
I0
sg35
F0.5166643911859676
sg15
I01
sbsg14
I1
sg27
(imyEvolve
Tree
p619
(dp620
g14
I0
sg35
F2.545024982440367
sg15
I01
sbsg16
I00
sg17
g39
sbsg16
I00
sg17
g38
sbsg16
I00
sg17
g39
sbsg14
I4
sg27
(imyEvolve
Tree
p621
(dp622
g7
(imyEvolve
Tree
p623
(dp624
g22
(imyEvolve
Tree
p625
(dp626
g22
(imyEvolve
Tree
p627
(dp628
g14
I0
sg35
F3.0789206330565637
sg15
I01
sbsg14
I1
sg27
(imyEvolve
Tree
p629
(dp630
g14
I0
sg35
F0.5934033040547746
sg15
I01
sbsg16
I00
sg17
g39
sbsg14
I2
sg27
(imyEvolve
Tree
p631
(dp632
g7
(imyEvolve
Tree
p633
(dp634
g14
I0
sg15
I00
sbsg14
I1
sg16
I01
sg17
g18
sbsg16
I00
sg17
g39
sbsg14
I3
sg16
I01
sg17
g18
sbsg16
I00
sg17
g39
sba(imyEvolve
Tree
p635
(dp636
g7
(imyEvolve
Tree
p637
(dp638
g14
I4
sg22
(imyEvolve
Tree
p639
(dp640
g7
(imyEvolve
Tree
p641
(dp642
g7
(imyEvolve
Tree
p643
(dp644
g14
I1
sg22
(imyEvolve
Tree
p645
(dp646
g14
I0
sg15
I00
sbsg27
(imyEvolve
Tree
p647
(dp648
g14
I0
sg35
F0.41696612022567514
sg15
I01
sbsg16
I00
sg17
g30
sbsg14
I2
sg16
I01
sg17
g70
sbsg14
I3
sg16
I01
sg17
g19
sbsg27
(imyEvolve
Tree
p649
(dp650
g14
I3
sg22
(imyEvolve
Tree
p651
(dp652
g14
I2
sg22
(imyEvolve
Tree
p653
(dp654
g7
(imyEvolve
Tree
p655
(dp656
g14
I0
sg35
F-0.11258472134444375
sg15
I01
sbsg14
I1
sg16
I01
sg17
g79
sbsg27
(imyEvolve
Tree
p657
(dp658
g7
(imyEvolve
Tree
p659
(dp660
g14
I0
sg15
I00
sbsg14
I1
sg16
I01
sg17
g19
sbsg16
I00
sg17
g39
sbsg27
(imyEvolve
Tree
p661
(dp662
g7
(imyEvolve
Tree
p663
(dp664
g7
(imyEvolve
Tree
p665
(dp666
g14
I0
sg15
I00
sbsg14
I1
sg16
I01
sg17
g79
sbsg14
I2
sg16
I01
sg17
g70
sbsg16
I00
sg17
g39
sbsg16
I00
sg17
g39
sbsg14
I5
sg16
I01
sg17
g19
sba(imyEvolve
Tree
p667
(dp668
g7
(imyEvolve
Tree
p669
(dp670
g14
I3
sg22
(imyEvolve
Tree
p671
(dp672
g7
(imyEvolve
Tree
p673
(dp674
g7
(imyEvolve
Tree
p675
(dp676
g14
I0
sg35
F-4.493411505437608
sg15
I01
sbsg14
I1
sg16
I01
sg17
g18
sbsg14
I2
sg16
I01
sg17
g70
sbsg27
(imyEvolve
Tree
p677
(dp678
g14
I2
sg22
(imyEvolve
Tree
p679
(dp680
g7
(imyEvolve
Tree
p681
(dp682
g14
I0
sg35
F-2.5617899875202053
sg15
I01
sbsg14
I1
sg16
I01
sg17
g70
sbsg27
(imyEvolve
Tree
p683
(dp684
g14
I1
sg22
(imyEvolve
Tree
p685
(dp686
g14
I0
sg15
I00
sbsg27
(imyEvolve
Tree
p687
(dp688
g14
I0
sg15
I00
sbsg16
I00
sg17
g39
sbsg16
I00
sg17
g30
sbsg16
I00
sg17
g30
sbsg14
I4
sg16
I01
sg17
g70
sba(imyEvolve
Tree
p689
(dp690
g22
(imyEvolve
Tree
p691
(dp692
g22
(imyEvolve
Tree
p693
(dp694
g22
(imyEvolve
Tree
p695
(dp696
g7
(imyEvolve
Tree
p697
(dp698
g22
(imyEvolve
Tree
p699
(dp700
g14
I0
sg35
F-0.013924324626381157
sg15
I01
sbsg14
I1
sg27
(imyEvolve
Tree
p701
(dp702
g14
I0
sg15
I00
sbsg16
I00
sg17
g39
sbsg14
I2
sg16
I01
sg17
g18
sbsg14
I3
sg27
(imyEvolve
Tree
p703
(dp704
g7
(imyEvolve
Tree
p705
(dp706
g22
(imyEvolve
Tree
p707
(dp708
g14
I0
sg35
F-1.4477807121821251
sg15
I01
sbsg14
I1
sg27
(imyEvolve
Tree
p709
(dp710
g14
I0
sg15
I00
sbsg16
I00
sg17
g30
sbsg14
I2
sg16
I01
sg17
g70
sbsg16
I00
sg17
g39
sbsg14
I4
sg27
(imyEvolve
Tree
p711
(dp712
g22
(imyEvolve
Tree
p713
(dp714
g22
(imyEvolve
Tree
p715
(dp716
g22
(imyEvolve
Tree
p717
(dp718
g14
I0
sg35
F-3.9684167087332645
sg15
I01
sbsg14
I1
sg27
(imyEvolve
Tree
p719
(dp720
g14
I0
sg35
F-1.768354326554602
sg15
I01
sbsg16
I00
sg17
g30
sbsg14
I2
sg27
(imyEvolve
Tree
p721
(dp722
g22
(imyEvolve
Tree
p723
(dp724
g14
I0
sg15
I00
sbsg14
I1
sg27
(imyEvolve
Tree
p725
(dp726
g14
I0
sg15
I00
sbsg16
I00
sg17
g30
sbsg16
I00
sg17
g39
sbsg14
I3
sg27
(imyEvolve
Tree
p727
(dp728
g7
(imyEvolve
Tree
p729
(dp730
g22
(imyEvolve
Tree
p731
(dp732
g14
I0
sg15
I00
sbsg14
I1
sg27
(imyEvolve
Tree
p733
(dp734
g14
I0
sg35
F-4.217186234463686
sg15
I01
sbsg16
I00
sg17
g39
sbsg14
I2
sg16
I01
sg17
g18
sbsg16
I00
sg17
g38
sbsg16
I00
sg17
g30
sbsg14
I5
sg27
(imyEvolve
Tree
p735
(dp736
g7
(imyEvolve
Tree
p737
(dp738
g7
(imyEvolve
Tree
p739
(dp740
g7
(imyEvolve
Tree
p741
(dp742
g22
(imyEvolve
Tree
p743
(dp744
g14
I0
sg35
F-0.7021194204076862
sg15
I01
sbsg14
I1
sg27
(imyEvolve
Tree
p745
(dp746
g14
I0
sg35
F4.772250290562283
sg15
I01
sbsg16
I00
sg17
g39
sbsg14
I2
sg16
I01
sg17
g79
sbsg14
I3
sg16
I01
sg17
g79
sbsg14
I4
sg16
I01
sg17
g70
sbsg16
I00
sg17
g39
sba(imyEvolve
Tree
p747
(dp748
g7
(imyEvolve
Tree
p749
(dp750
g14
I3
sg22
(imyEvolve
Tree
p751
(dp752
g14
I2
sg22
(imyEvolve
Tree
p753
(dp754
g7
(imyEvolve
Tree
p755
(dp756
g14
I0
sg15
I00
sbsg14
I1
sg16
I01
sg17
g19
sbsg27
(imyEvolve
Tree
p757
(dp758
g7
(imyEvolve
Tree
p759
(dp760
g14
I0
sg35
F-1.9461328003866507
sg15
I01
sbsg14
I1
sg16
I01
sg17
g18
sbsg16
I00
sg17
g38
sbsg27
(imyEvolve
Tree
p761
(dp762
g14
I2
sg22
(imyEvolve
Tree
p763
(dp764
g14
I1
sg22
(imyEvolve
Tree
p765
(dp766
g14
I0
sg35
F0.3445821403435758
sg15
I01
sbsg27
(imyEvolve
Tree
p767
(dp768
g14
I0
sg35
F3.9087044413365355
sg15
I01
sbsg16
I00
sg17
g39
sbsg27
(imyEvolve
Tree
p769
(dp770
g7
(imyEvolve
Tree
p771
(dp772
g14
I0
sg35
F-0.7249866770956723
sg15
I01
sbsg14
I1
sg16
I01
sg17
g18
sbsg16
I00
sg17
g30
sbsg16
I00
sg17
g39
sbsg14
I4
sg16
I01
sg17
g70
sba(imyEvolve
Tree
p773
(dp774
g7
(imyEvolve
Tree
p775
(dp776
g7
(imyEvolve
Tree
p777
(dp778
g22
(imyEvolve
Tree
p779
(dp780
g14
I0
sg35
F-0.3723743554197121
sg15
I01
sbsg14
I1
sg27
(imyEvolve
Tree
p781
(dp782
g14
I0
sg35
F-3.974977288558379
sg15
I01
sbsg16
I00
sg17
g38
sbsg14
I2
sg16
I01
sg17
g70
sbsg14
I3
sg16
I01
sg17
g79
sba(imyEvolve
Tree
p783
(dp784
g7
(imyEvolve
Tree
p785
(dp786
g7
(imyEvolve
Tree
p787
(dp788
g14
I0
sg15
I00
sbsg14
I1
sg16
I01
sg17
g79
sbsg14
I2
sg16
I01
sg17
g70
sbaasS'alpha'
p789
F0.0012068478921166473
sS'fitness'
p790
cnumpy.core.multiarray
scalar
p791
(cnumpy
dtype
p792
(S'f8'
p793
I0
I1
tp794
Rp795
(I3
S'<'
p796
NNNI-1
I-1
I0
tp797
bS'z\xa5,\xe1e*\xe6?'
p798
tp799
Rp800
sS'weightSharing'
p801
(lp802
I01
asS'fitnessValid'
p803
I00
sS'resolution'
p804
I81
sb.