(imyEvolve
Individual
p0
(dp1
S'funcs'
p2
(lp3
(lp4
(imyEvolve
Tree
p5
(dp6
S'below'
p7
(imyEvolve
Tree
p8
(dp9
g7
(imyEvolve
Tree
p10
(dp11
g7
(imyEvolve
Tree
p12
(dp13
S'left'
p14
(imyEvolve
Tree
p15
(dp16
g14
(imyEvolve
Tree
p17
(dp18
S'depth'
p19
I0
sS'isConstant'
p20
I00
sbsg19
I1
sS'right'
p21
(imyEvolve
Tree
p22
(dp23
g19
I0
sS'constant'
p24
F3.984427907563571
sg20
I01
sbsS'single'
p25
I00
sS'op'
p26
coperator
sub
p27
sbsg19
I2
sg21
(imyEvolve
Tree
p28
(dp29
g14
(imyEvolve
Tree
p30
(dp31
g19
I0
sg20
I00
sbsg19
I1
sg21
(imyEvolve
Tree
p32
(dp33
g19
I0
sg20
I00
sbsg25
I00
sg26
coperator
mul
p34
sbsg25
I00
sg26
coperator
add
p35
sbsg19
I3
sg25
I01
sg26
cmyEvolve
absSqrt
p36
sbsg19
I4
sg25
I01
sg26
cmath
cos
p37
sbsg19
I5
sg25
I01
sg26
cmyEvolve
square
p38
sba(imyEvolve
Tree
p39
(dp40
g7
(imyEvolve
Tree
p41
(dp42
g14
(imyEvolve
Tree
p43
(dp44
g14
(imyEvolve
Tree
p45
(dp46
g14
(imyEvolve
Tree
p47
(dp48
g19
I0
sg24
F-1.5787364402262218
sg20
I01
sbsg19
I1
sg21
(imyEvolve
Tree
p49
(dp50
g19
I0
sg20
I00
sbsg25
I00
sg26
g35
sbsg19
I2
sg21
(imyEvolve
Tree
p51
(dp52
g14
(imyEvolve
Tree
p53
(dp54
g19
I0
sg20
I00
sbsg19
I1
sg21
(imyEvolve
Tree
p55
(dp56
g19
I0
sg20
I00
sbsg25
I00
sg26
g35
sbsg25
I00
sg26
g35
sbsg19
I3
sg21
(imyEvolve
Tree
p57
(dp58
g14
(imyEvolve
Tree
p59
(dp60
g14
(imyEvolve
Tree
p61
(dp62
g19
I0
sg20
I00
sbsg19
I1
sg21
(imyEvolve
Tree
p63
(dp64
g19
I0
sg24
F-4.071317450982369
sg20
I01
sbsg25
I00
sg26
g35
sbsg19
I2
sg21
(imyEvolve
Tree
p65
(dp66
g14
(imyEvolve
Tree
p67
(dp68
g19
I0
sg24
F-3.595530767154006
sg20
I01
sbsg19
I1
sg21
(imyEvolve
Tree
p69
(dp70
g19
I0
sg24
F1.584900337646033
sg20
I01
sbsg25
I00
sg26
g35
sbsg25
I00
sg26
g27
sbsg25
I00
sg26
g34
sbsg19
I4
sg25
I01
sg26
g38
sba(imyEvolve
Tree
p71
(dp72
g7
(imyEvolve
Tree
p73
(dp74
g7
(imyEvolve
Tree
p75
(dp76
g14
(imyEvolve
Tree
p77
(dp78
g19
I0
sg24
F-4.125099713695647
sg20
I01
sbsg19
I1
sg21
(imyEvolve
Tree
p79
(dp80
g19
I0
sg24
F-0.9152356311262988
sg20
I01
sbsg25
I00
sg26
g27
sbsg19
I2
sg25
I01
sg26
g38
sbsg19
I3
sg25
I01
sg26
g36
sba(imyEvolve
Tree
p81
(dp82
g14
(imyEvolve
Tree
p83
(dp84
g14
(imyEvolve
Tree
p85
(dp86
g7
(imyEvolve
Tree
p87
(dp88
g19
I0
sg24
F-1.5210010609949176
sg20
I01
sbsg19
I1
sg25
I01
sg26
g38
sbsg19
I2
sg21
(imyEvolve
Tree
p89
(dp90
g7
(imyEvolve
Tree
p91
(dp92
g19
I0
sg24
F-1.4220263173903436
sg20
I01
sbsg19
I1
sg25
I01
sg26
g37
sbsg25
I00
sg26
g34
sbsg19
I3
sg21
(imyEvolve
Tree
p93
(dp94
g7
(imyEvolve
Tree
p95
(dp96
g14
(imyEvolve
Tree
p97
(dp98
g19
I0
sg20
I00
sbsg19
I1
sg21
(imyEvolve
Tree
p99
(dp100
g19
I0
sg20
I00
sbsg25
I00
sg26
g34
sbsg19
I2
sg25
I01
sg26
g37
sbsg25
I00
sg26
g27
sba(imyEvolve
Tree
p101
(dp102
g7
(imyEvolve
Tree
p103
(dp104
g7
(imyEvolve
Tree
p105
(dp106
g19
I0
sg24
F1.6998910438549473
sg20
I01
sbsg19
I1
sg25
I01
sg26
g38
sbsg19
I2
sg25
I01
sg26
cmath
sin
p107
sba(imyEvolve
Tree
p108
(dp109
g7
(imyEvolve
Tree
p110
(dp111
g7
(imyEvolve
Tree
p112
(dp113
g14
(imyEvolve
Tree
p114
(dp115
g7
(imyEvolve
Tree
p116
(dp117
g7
(imyEvolve
Tree
p118
(dp119
g19
I0
sg20
I00
sbsg19
I1
sg25
I01
sg26
g107
sbsg19
I2
sg25
I01
sg26
g107
sbsg19
I3
sg21
(imyEvolve
Tree
p120
(dp121
g7
(imyEvolve
Tree
p122
(dp123
g14
(imyEvolve
Tree
p124
(dp125
g19
I0
sg24
F-1.1861224669500436
sg20
I01
sbsg19
I1
sg21
(imyEvolve
Tree
p126
(dp127
g19
I0
sg20
I00
sbsg25
I00
sg26
g35
sbsg19
I2
sg25
I01
sg26
g107
sbsg25
I00
sg26
g34
sbsg19
I4
sg25
I01
sg26
g38
sbsg19
I5
sg25
I01
sg26
g38
sba(imyEvolve
Tree
p128
(dp129
g19
I2
sg14
(imyEvolve
Tree
p130
(dp131
g19
I1
sg14
(imyEvolve
Tree
p132
(dp133
g19
I0
sg20
I00
sbsg21
(imyEvolve
Tree
p134
(dp135
g19
I0
sg24
F1.0564379695258133
sg20
I01
sbsg25
I00
sg26
g27
sbsg21
(imyEvolve
Tree
p136
(dp137
g7
(imyEvolve
Tree
p138
(dp139
g19
I0
sg20
I00
sbsg19
I1
sg25
I01
sg26
g107
sbsg25
I00
sg26
g27
sba(imyEvolve
Tree
p140
(dp141
g14
(imyEvolve
Tree
p142
(dp143
g7
(imyEvolve
Tree
p144
(dp145
g14
(imyEvolve
Tree
p146
(dp147
g7
(imyEvolve
Tree
p148
(dp149
g14
(imyEvolve
Tree
p150
(dp151
g19
I0
sg20
I00
sbsg19
I1
sg21
(imyEvolve
Tree
p152
(dp153
g19
I0
sg20
I00
sbsg25
I00
sg26
g35
sbsg19
I2
sg25
I01
sg26
g37
sbsg19
I3
sg21
(imyEvolve
Tree
p154
(dp155
g14
(imyEvolve
Tree
p156
(dp157
g7
(imyEvolve
Tree
p158
(dp159
g19
I0
sg24
F0.46885582864117037
sg20
I01
sbsg19
I1
sg25
I01
sg26
g36
sbsg19
I2
sg21
(imyEvolve
Tree
p160
(dp161
g14
(imyEvolve
Tree
p162
(dp163
g19
I0
sg20
I00
sbsg19
I1
sg21
(imyEvolve
Tree
p164
(dp165
g19
I0
sg20
I00
sbsg25
I00
sg26
g27
sbsg25
I00
sg26
g27
sbsg25
I00
sg26
g34
sbsg19
I4
sg25
I01
sg26
g107
sbsg19
I5
sg21
(imyEvolve
Tree
p166
(dp167
g7
(imyEvolve
Tree
p168
(dp169
g14
(imyEvolve
Tree
p170
(dp171
g7
(imyEvolve
Tree
p172
(dp173
g14
(imyEvolve
Tree
p174
(dp175
g19
I0
sg24
F3.705529910164774
sg20
I01
sbsg19
I1
sg21
(imyEvolve
Tree
p176
(dp177
g19
I0
sg24
F-4.5397349346008395
sg20
I01
sbsg25
I00
sg26
g35
sbsg19
I2
sg25
I01
sg26
g36
sbsg19
I3
sg21
(imyEvolve
Tree
p178
(dp179
g7
(imyEvolve
Tree
p180
(dp181
g7
(imyEvolve
Tree
p182
(dp183
g19
I0
sg24
F-2.9443916459360175
sg20
I01
sbsg19
I1
sg25
I01
sg26
g38
sbsg19
I2
sg25
I01
sg26
g38
sbsg25
I00
sg26
g27
sbsg19
I4
sg25
I01
sg26
g37
sbsg25
I00
sg26
g27
sbaa(lp184
(imyEvolve
Tree
p185
(dp186
g14
(imyEvolve
Tree
p187
(dp188
g7
(imyEvolve
Tree
p189
(dp190
g19
I0
sg24
F4.659652594258729
sg20
I01
sbsg19
I1
sg25
I01
sg26
g37
sbsg19
I2
sg21
(imyEvolve
Tree
p191
(dp192
g7
(imyEvolve
Tree
p193
(dp194
g19
I0
sg20
I00
sbsg19
I1
sg25
I01
sg26
g107
sbsg25
I00
sg26
g34
sba(imyEvolve
Tree
p195
(dp196
g14
(imyEvolve
Tree
p197
(dp198
g7
(imyEvolve
Tree
p199
(dp200
g7
(imyEvolve
Tree
p201
(dp202
g7
(imyEvolve
Tree
p203
(dp204
g19
I0
sg20
I00
sbsg19
I1
sg25
I01
sg26
g107
sbsg19
I2
sg25
I01
sg26
g37
sbsg19
I3
sg25
I01
sg26
g38
sbsg19
I4
sg21
(imyEvolve
Tree
p205
(dp206
g14
(imyEvolve
Tree
p207
(dp208
g14
(imyEvolve
Tree
p209
(dp210
g7
(imyEvolve
Tree
p211
(dp212
g19
I0
sg24
F-3.953719394271904
sg20
I01
sbsg19
I1
sg25
I01
sg26
g107
sbsg19
I2
sg21
(imyEvolve
Tree
p213
(dp214
g7
(imyEvolve
Tree
p215
(dp216
g19
I0
sg24
F2.2112499590500168
sg20
I01
sbsg19
I1
sg25
I01
sg26
g37
sbsg25
I00
sg26
g27
sbsg19
I3
sg21
(imyEvolve
Tree
p217
(dp218
g7
(imyEvolve
Tree
p219
(dp220
g7
(imyEvolve
Tree
p221
(dp222
g19
I0
sg24
F-4.87101732650288
sg20
I01
sbsg19
I1
sg25
I01
sg26
g107
sbsg19
I2
sg25
I01
sg26
g37
sbsg25
I00
sg26
g35
sbsg25
I00
sg26
g34
sba(imyEvolve
Tree
p223
(dp224
g14
(imyEvolve
Tree
p225
(dp226
g14
(imyEvolve
Tree
p227
(dp228
g19
I0
sg20
I00
sbsg19
I1
sg21
(imyEvolve
Tree
p229
(dp230
g19
I0
sg20
I00
sbsg25
I00
sg26
g35
sbsg19
I2
sg21
(imyEvolve
Tree
p231
(dp232
g7
(imyEvolve
Tree
p233
(dp234
g19
I0
sg20
I00
sbsg19
I1
sg25
I01
sg26
g38
sbsg25
I00
sg26
g34
sba(imyEvolve
Tree
p235
(dp236
g14
(imyEvolve
Tree
p237
(dp238
g14
(imyEvolve
Tree
p239
(dp240
g19
I0
sg20
I00
sbsg19
I1
sg21
(imyEvolve
Tree
p241
(dp242
g19
I0
sg24
F-1.5050626985088877
sg20
I01
sbsg25
I00
sg26
g27
sbsg19
I2
sg21
(imyEvolve
Tree
p243
(dp244
g7
(imyEvolve
Tree
p245
(dp246
g19
I0
sg20
I00
sbsg19
I1
sg25
I01
sg26
g37
sbsg25
I00
sg26
g35
sba(imyEvolve
Tree
p247
(dp248
g14
(imyEvolve
Tree
p249
(dp250
g7
(imyEvolve
Tree
p251
(dp252
g14
(imyEvolve
Tree
p253
(dp254
g7
(imyEvolve
Tree
p255
(dp256
g19
I0
sg20
I00
sbsg19
I1
sg25
I01
sg26
g107
sbsg19
I2
sg21
(imyEvolve
Tree
p257
(dp258
g7
(imyEvolve
Tree
p259
(dp260
g19
I0
sg20
I00
sbsg19
I1
sg25
I01
sg26
g36
sbsg25
I00
sg26
g34
sbsg19
I3
sg25
I01
sg26
g37
sbsg19
I4
sg21
(imyEvolve
Tree
p261
(dp262
g7
(imyEvolve
Tree
p263
(dp264
g7
(imyEvolve
Tree
p265
(dp266
g7
(imyEvolve
Tree
p267
(dp268
g19
I0
sg20
I00
sbsg19
I1
sg25
I01
sg26
g36
sbsg19
I2
sg25
I01
sg26
g107
sbsg19
I3
sg25
I01
sg26
g107
sbsg25
I00
sg26
g34
sba(imyEvolve
Tree
p269
(dp270
g19
I3
sg14
(imyEvolve
Tree
p271
(dp272
g7
(imyEvolve
Tree
p273
(dp274
g19
I1
sg14
(imyEvolve
Tree
p275
(dp276
g19
I0
sg24
F-0.47537892311305896
sg20
I01
sbsg21
(imyEvolve
Tree
p277
(dp278
g19
I0
sg20
I00
sbsg25
I00
sg26
g34
sbsg19
I2
sg25
I01
sg26
g107
sbsg21
(imyEvolve
Tree
p279
(dp280
g7
(imyEvolve
Tree
p281
(dp282
g7
(imyEvolve
Tree
p283
(dp284
g19
I0
sg24
F4.547540164768618
sg20
I01
sbsg19
I1
sg25
I01
sg26
g38
sbsg19
I2
sg25
I01
sg26
g36
sbsg25
I00
sg26
g35
sba(imyEvolve
Tree
p285
(dp286
g7
(imyEvolve
Tree
p287
(dp288
g19
I4
sg14
(imyEvolve
Tree
p289
(dp290
g19
I3
sg14
(imyEvolve
Tree
p291
(dp292
g7
(imyEvolve
Tree
p293
(dp294
g7
(imyEvolve
Tree
p295
(dp296
g19
I0
sg24
F2.313912572236344
sg20
I01
sbsg19
I1
sg25
I01
sg26
g107
sbsg19
I2
sg25
I01
sg26
g37
sbsg21
(imyEvolve
Tree
p297
(dp298
g19
I2
sg14
(imyEvolve
Tree
p299
(dp300
g19
I1
sg14
(imyEvolve
Tree
p301
(dp302
g19
I0
sg20
I00
sbsg21
(imyEvolve
Tree
p303
(dp304
g19
I0
sg20
I00
sbsg25
I00
sg26
g34
sbsg21
(imyEvolve
Tree
p305
(dp306
g7
(imyEvolve
Tree
p307
(dp308
g19
I0
sg20
I00
sbsg19
I1
sg25
I01
sg26
g38
sbsg25
I00
sg26
g27
sbsg25
I00
sg26
g35
sbsg21
(imyEvolve
Tree
p309
(dp310
g7
(imyEvolve
Tree
p311
(dp312
g19
I2
sg14
(imyEvolve
Tree
p313
(dp314
g19
I1
sg14
(imyEvolve
Tree
p315
(dp316
g19
I0
sg20
I00
sbsg21
(imyEvolve
Tree
p317
(dp318
g19
I0
sg20
I00
sbsg25
I00
sg26
g35
sbsg21
(imyEvolve
Tree
p319
(dp320
g19
I1
sg14
(imyEvolve
Tree
p321
(dp322
g19
I0
sg20
I00
sbsg21
(imyEvolve
Tree
p323
(dp324
g19
I0
sg20
I00
sbsg25
I00
sg26
g34
sbsg25
I00
sg26
g35
sbsg19
I3
sg25
I01
sg26
g107
sbsg25
I00
sg26
g27
sbsg19
I5
sg25
I01
sg26
g36
sba(imyEvolve
Tree
p325
(dp326
g7
(imyEvolve
Tree
p327
(dp328
g7
(imyEvolve
Tree
p329
(dp330
g7
(imyEvolve
Tree
p331
(dp332
g19
I0
sg20
I00
sbsg19
I1
sg25
I01
sg26
g36
sbsg19
I2
sg25
I01
sg26
g38
sbsg19
I3
sg25
I01
sg26
g107
sba(imyEvolve
Tree
p333
(dp334
g7
(imyEvolve
Tree
p335
(dp336
g7
(imyEvolve
Tree
p337
(dp338
g19
I0
sg24
F4.920875181572963
sg20
I01
sbsg19
I1
sg25
I01
sg26
g38
sbsg19
I2
sg25
I01
sg26
g36
sba(imyEvolve
Tree
p339
(dp340
g7
(imyEvolve
Tree
p341
(dp342
g14
(imyEvolve
Tree
p343
(dp344
g14
(imyEvolve
Tree
p345
(dp346
g19
I0
sg24
F1.7830900044286349
sg20
I01
sbsg19
I1
sg21
(imyEvolve
Tree
p347
(dp348
g19
I0
sg24
F-1.1987786485235552
sg20
I01
sbsg25
I00
sg26
g35
sbsg19
I2
sg21
(imyEvolve
Tree
p349
(dp350
g14
(imyEvolve
Tree
p351
(dp352
g19
I0
sg24
F2.2103201594598527
sg20
I01
sbsg19
I1
sg21
(imyEvolve
Tree
p353
(dp354
g19
I0
sg20
I00
sbsg25
I00
sg26
g35
sbsg25
I00
sg26
g35
sbsg19
I3
sg25
I01
sg26
g36
sba(imyEvolve
Tree
p355
(dp356
g14
(imyEvolve
Tree
p357
(dp358
g7
(imyEvolve
Tree
p359
(dp360
g14
(imyEvolve
Tree
p361
(dp362
g7
(imyEvolve
Tree
p363
(dp364
g14
(imyEvolve
Tree
p365
(dp366
g19
I0
sg24
F-4.737511868862114
sg20
I01
sbsg19
I1
sg21
(imyEvolve
Tree
p367
(dp368
g19
I0
sg24
F3.7521648800040026
sg20
I01
sbsg25
I00
sg26
g27
sbsg19
I2
sg25
I01
sg26
g38
sbsg19
I3
sg21
(imyEvolve
Tree
p369
(dp370
g14
(imyEvolve
Tree
p371
(dp372
g14
(imyEvolve
Tree
p373
(dp374
g19
I0
sg20
I00
sbsg19
I1
sg21
(imyEvolve
Tree
p375
(dp376
g19
I0
sg24
F-1.0816151023391307
sg20
I01
sbsg25
I00
sg26
g35
sbsg19
I2
sg21
(imyEvolve
Tree
p377
(dp378
g7
(imyEvolve
Tree
p379
(dp380
g19
I0
sg24
F4.614271217284497
sg20
I01
sbsg19
I1
sg25
I01
sg26
g37
sbsg25
I00
sg26
g35
sbsg25
I00
sg26
g27
sbsg19
I4
sg25
I01
sg26
g37
sbsg19
I5
sg21
(imyEvolve
Tree
p381
(dp382
g7
(imyEvolve
Tree
p383
(dp384
g7
(imyEvolve
Tree
p385
(dp386
g7
(imyEvolve
Tree
p387
(dp388
g7
(imyEvolve
Tree
p389
(dp390
g19
I0
sg20
I00
sbsg19
I1
sg25
I01
sg26
g38
sbsg19
I2
sg25
I01
sg26
g38
sbsg19
I3
sg25
I01
sg26
g37
sbsg19
I4
sg25
I01
sg26
g37
sbsg25
I00
sg26
g27
sba(imyEvolve
Tree
p391
(dp392
g14
(imyEvolve
Tree
p393
(dp394
g14
(imyEvolve
Tree
p395
(dp396
g7
(imyEvolve
Tree
p397
(dp398
g14
(imyEvolve
Tree
p399
(dp400
g7
(imyEvolve
Tree
p401
(dp402
g19
I0
sg20
I00
sbsg19
I1
sg25
I01
sg26
g38
sbsg19
I2
sg21
(imyEvolve
Tree
p403
(dp404
g7
(imyEvolve
Tree
p405
(dp406
g19
I0
sg24
F-3.3116970512313717
sg20
I01
sbsg19
I1
sg25
I01
sg26
g36
sbsg25
I00
sg26
g35
sbsg19
I3
sg25
I01
sg26
g36
sbsg19
I4
sg21
(imyEvolve
Tree
p407
(dp408
g14
(imyEvolve
Tree
p409
(dp410
g7
(imyEvolve
Tree
p411
(dp412
g7
(imyEvolve
Tree
p413
(dp414
g19
I0
sg20
I00
sbsg19
I1
sg25
I01
sg26
g38
sbsg19
I2
sg25
I01
sg26
g36
sbsg19
I3
sg21
(imyEvolve
Tree
p415
(dp416
g7
(imyEvolve
Tree
p417
(dp418
g7
(imyEvolve
Tree
p419
(dp420
g19
I0
sg24
F2.4317245076071305
sg20
I01
sbsg19
I1
sg25
I01
sg26
g38
sbsg19
I2
sg25
I01
sg26
g37
sbsg25
I00
sg26
g27
sbsg25
I00
sg26
g34
sbsg19
I5
sg21
(imyEvolve
Tree
p421
(dp422
g14
(imyEvolve
Tree
p423
(dp424
g7
(imyEvolve
Tree
p425
(dp426
g7
(imyEvolve
Tree
p427
(dp428
g14
(imyEvolve
Tree
p429
(dp430
g19
I0
sg20
I00
sbsg19
I1
sg21
(imyEvolve
Tree
p431
(dp432
g19
I0
sg24
F4.640373551918032
sg20
I01
sbsg25
I00
sg26
g34
sbsg19
I2
sg25
I01
sg26
g38
sbsg19
I3
sg25
I01
sg26
g37
sbsg19
I4
sg21
(imyEvolve
Tree
p433
(dp434
g7
(imyEvolve
Tree
p435
(dp436
g7
(imyEvolve
Tree
p437
(dp438
g7
(imyEvolve
Tree
p439
(dp440
g19
I0
sg20
I00
sbsg19
I1
sg25
I01
sg26
g107
sbsg19
I2
sg25
I01
sg26
g37
sbsg19
I3
sg25
I01
sg26
g38
sbsg25
I00
sg26
g27
sbsg25
I00
sg26
g27
sbaa(lp441
(imyEvolve
Tree
p442
(dp443
g7
(imyEvolve
Tree
p444
(dp445
g7
(imyEvolve
Tree
p446
(dp447
g7
(imyEvolve
Tree
p448
(dp449
g19
I0
sg24
F2.7799744554251893
sg20
I01
sbsg19
I1
sg25
I01
sg26
g37
sbsg19
I2
sg25
I01
sg26
g38
sbsg19
I3
sg25
I01
sg26
g38
sba(imyEvolve
Tree
p450
(dp451
g14
(imyEvolve
Tree
p452
(dp453
g14
(imyEvolve
Tree
p454
(dp455
g7
(imyEvolve
Tree
p456
(dp457
g14
(imyEvolve
Tree
p458
(dp459
g7
(imyEvolve
Tree
p460
(dp461
g19
I0
sg24
F4.276482765628039
sg20
I01
sbsg19
I1
sg25
I01
sg26
g36
sbsg19
I2
sg21
(imyEvolve
Tree
p462
(dp463
g7
(imyEvolve
Tree
p464
(dp465
g19
I0
sg24
F0.1902149452745121
sg20
I01
sbsg19
I1
sg25
I01
sg26
g36
sbsg25
I00
sg26
g35
sbsg19
I3
sg25
I01
sg26
g37
sbsg19
I4
sg21
(imyEvolve
Tree
p466
(dp467
g14
(imyEvolve
Tree
p468
(dp469
g7
(imyEvolve
Tree
p470
(dp471
g14
(imyEvolve
Tree
p472
(dp473
g19
I0
sg20
I00
sbsg19
I1
sg21
(imyEvolve
Tree
p474
(dp475
g19
I0
sg24
F-3.7382981899894894
sg20
I01
sbsg25
I00
sg26
g27
sbsg19
I2
sg25
I01
sg26
g36
sbsg19
I3
sg21
(imyEvolve
Tree
p476
(dp477
g14
(imyEvolve
Tree
p478
(dp479
g14
(imyEvolve
Tree
p480
(dp481
g19
I0
sg20
I00
sbsg19
I1
sg21
(imyEvolve
Tree
p482
(dp483
g19
I0
sg24
F-3.699354253628384
sg20
I01
sbsg25
I00
sg26
g34
sbsg19
I2
sg21
(imyEvolve
Tree
p484
(dp485
g7
(imyEvolve
Tree
p486
(dp487
g19
I0
sg20
I00
sbsg19
I1
sg25
I01
sg26
g37
sbsg25
I00
sg26
g35
sbsg25
I00
sg26
g27
sbsg25
I00
sg26
g27
sbsg19
I5
sg21
(imyEvolve
Tree
p488
(dp489
g7
(imyEvolve
Tree
p490
(dp491
g7
(imyEvolve
Tree
p492
(dp493
g14
(imyEvolve
Tree
p494
(dp495
g7
(imyEvolve
Tree
p496
(dp497
g19
I0
sg20
I00
sbsg19
I1
sg25
I01
sg26
g107
sbsg19
I2
sg21
(imyEvolve
Tree
p498
(dp499
g14
(imyEvolve
Tree
p500
(dp501
g19
I0
sg24
F2.6501444584697555
sg20
I01
sbsg19
I1
sg21
(imyEvolve
Tree
p502
(dp503
g19
I0
sg20
I00
sbsg25
I00
sg26
g35
sbsg25
I00
sg26
g35
sbsg19
I3
sg25
I01
sg26
g37
sbsg19
I4
sg25
I01
sg26
g107
sbsg25
I00
sg26
g34
sba(imyEvolve
Tree
p504
(dp505
g14
(imyEvolve
Tree
p506
(dp507
g7
(imyEvolve
Tree
p508
(dp509
g7
(imyEvolve
Tree
p510
(dp511
g19
I0
sg24
F-2.3311905986264083
sg20
I01
sbsg19
I1
sg25
I01
sg26
g37
sbsg19
I2
sg25
I01
sg26
g107
sbsg19
I3
sg21
(imyEvolve
Tree
p512
(dp513
g7
(imyEvolve
Tree
p514
(dp515
g7
(imyEvolve
Tree
p516
(dp517
g19
I0
sg20
I00
sbsg19
I1
sg25
I01
sg26
g107
sbsg19
I2
sg25
I01
sg26
g36
sbsg25
I00
sg26
g35
sba(imyEvolve
Tree
p518
(dp519
g19
I3
sg14
(imyEvolve
Tree
p520
(dp521
g19
I2
sg14
(imyEvolve
Tree
p522
(dp523
g19
I1
sg14
(imyEvolve
Tree
p524
(dp525
g19
I0
sg20
I00
sbsg21
(imyEvolve
Tree
p526
(dp527
g19
I0
sg20
I00
sbsg25
I00
sg26
g27
sbsg21
(imyEvolve
Tree
p528
(dp529
g19
I1
sg14
(imyEvolve
Tree
p530
(dp531
g19
I0
sg24
F1.2770516347123175
sg20
I01
sbsg21
(imyEvolve
Tree
p532
(dp533
g19
I0
sg20
I00
sbsg25
I00
sg26
g34
sbsg25
I00
sg26
g34
sbsg21
(imyEvolve
Tree
p534
(dp535
g19
I2
sg14
(imyEvolve
Tree
p536
(dp537
g19
I1
sg14
(imyEvolve
Tree
p538
(dp539
g19
I0
sg20
I00
sbsg21
(imyEvolve
Tree
p540
(dp541
g19
I0
sg20
I00
sbsg25
I00
sg26
g35
sbsg21
(imyEvolve
Tree
p542
(dp543
g19
I1
sg14
(imyEvolve
Tree
p544
(dp545
g19
I0
sg24
F2.7973973900485882
sg20
I01
sbsg21
(imyEvolve
Tree
p546
(dp547
g19
I0
sg20
I00
sbsg25
I00
sg26
g34
sbsg25
I00
sg26
g27
sbsg25
I00
sg26
g35
sba(imyEvolve
Tree
p548
(dp549
g7
(imyEvolve
Tree
p550
(dp551
g14
(imyEvolve
Tree
p552
(dp553
g14
(imyEvolve
Tree
p554
(dp555
g14
(imyEvolve
Tree
p556
(dp557
g19
I0
sg24
F-2.7578655337997384
sg20
I01
sbsg19
I1
sg21
(imyEvolve
Tree
p558
(dp559
g19
I0
sg24
F-2.4645350105081167
sg20
I01
sbsg25
I00
sg26
g35
sbsg19
I2
sg21
(imyEvolve
Tree
p560
(dp561
g7
(imyEvolve
Tree
p562
(dp563
g19
I0
sg24
F2.063864900141521
sg20
I01
sbsg19
I1
sg25
I01
sg26
g36
sbsg25
I00
sg26
g35
sbsg19
I3
sg21
(imyEvolve
Tree
p564
(dp565
g14
(imyEvolve
Tree
p566
(dp567
g7
(imyEvolve
Tree
p568
(dp569
g19
I0
sg20
I00
sbsg19
I1
sg25
I01
sg26
g36
sbsg19
I2
sg21
(imyEvolve
Tree
p570
(dp571
g14
(imyEvolve
Tree
p572
(dp573
g19
I0
sg20
I00
sbsg19
I1
sg21
(imyEvolve
Tree
p574
(dp575
g19
I0
sg20
I00
sbsg25
I00
sg26
g34
sbsg25
I00
sg26
g27
sbsg25
I00
sg26
g27
sbsg19
I4
sg25
I01
sg26
g36
sba(imyEvolve
Tree
p576
(dp577
g7
(imyEvolve
Tree
p578
(dp579
g7
(imyEvolve
Tree
p580
(dp581
g19
I3
sg14
(imyEvolve
Tree
p582
(dp583
g19
I2
sg14
(imyEvolve
Tree
p584
(dp585
g19
I1
sg14
(imyEvolve
Tree
p586
(dp587
g19
I0
sg20
I00
sbsg21
(imyEvolve
Tree
p588
(dp589
g19
I0
sg20
I00
sbsg25
I00
sg26
g34
sbsg21
(imyEvolve
Tree
p590
(dp591
g19
I1
sg14
(imyEvolve
Tree
p592
(dp593
g19
I0
sg24
F-3.7946258353487083
sg20
I01
sbsg21
(imyEvolve
Tree
p594
(dp595
g19
I0
sg20
I00
sbsg25
I00
sg26
g27
sbsg25
I00
sg26
g34
sbsg21
(imyEvolve
Tree
p596
(dp597
g7
(imyEvolve
Tree
p598
(dp599
g19
I1
sg14
(imyEvolve
Tree
p600
(dp601
g19
I0
sg24
F-0.38348306495836404
sg20
I01
sbsg21
(imyEvolve
Tree
p602
(dp603
g19
I0
sg20
I00
sbsg25
I00
sg26
g35
sbsg19
I2
sg25
I01
sg26
g38
sbsg25
I00
sg26
g27
sbsg19
I4
sg25
I01
sg26
g37
sbsg19
I5
sg25
I01
sg26
g38
sba(imyEvolve
Tree
p604
(dp605
g7
(imyEvolve
Tree
p606
(dp607
g19
I2
sg14
(imyEvolve
Tree
p608
(dp609
g7
(imyEvolve
Tree
p610
(dp611
g19
I0
sg20
I00
sbsg19
I1
sg25
I01
sg26
g38
sbsg21
(imyEvolve
Tree
p612
(dp613
g7
(imyEvolve
Tree
p614
(dp615
g19
I0
sg20
I00
sbsg19
I1
sg25
I01
sg26
g36
sbsg25
I00
sg26
g27
sbsg19
I3
sg25
I01
sg26
g38
sba(imyEvolve
Tree
p616
(dp617
g7
(imyEvolve
Tree
p618
(dp619
g7
(imyEvolve
Tree
p620
(dp621
g7
(imyEvolve
Tree
p622
(dp623
g19
I1
sg14
(imyEvolve
Tree
p624
(dp625
g19
I0
sg20
I00
sbsg21
(imyEvolve
Tree
p626
(dp627
g19
I0
sg24
F0.6047942188767355
sg20
I01
sbsg25
I00
sg26
g34
sbsg19
I2
sg25
I01
sg26
g36
sbsg19
I3
sg25
I01
sg26
g38
sbsg19
I4
sg25
I01
sg26
g37
sba(imyEvolve
Tree
p628
(dp629
g7
(imyEvolve
Tree
p630
(dp631
g19
I1
sg14
(imyEvolve
Tree
p632
(dp633
g19
I0
sg24
F-2.574814990398898
sg20
I01
sbsg21
(imyEvolve
Tree
p634
(dp635
g19
I0
sg24
F0.2658162729245763
sg20
I01
sbsg25
I00
sg26
g35
sbsg19
I2
sg25
I01
sg26
g38
sba(imyEvolve
Tree
p636
(dp637
g14
(imyEvolve
Tree
p638
(dp639
g7
(imyEvolve
Tree
p640
(dp641
g7
(imyEvolve
Tree
p642
(dp643
g7
(imyEvolve
Tree
p644
(dp645
g14
(imyEvolve
Tree
p646
(dp647
g19
I0
sg24
F4.3656886241889055
sg20
I01
sbsg19
I1
sg21
(imyEvolve
Tree
p648
(dp649
g19
I0
sg20
I00
sbsg25
I00
sg26
g34
sbsg19
I2
sg25
I01
sg26
g37
sbsg19
I3
sg25
I01
sg26
g38
sbsg19
I4
sg25
I01
sg26
g37
sbsg19
I5
sg21
(imyEvolve
Tree
p650
(dp651
g7
(imyEvolve
Tree
p652
(dp653
g7
(imyEvolve
Tree
p654
(dp655
g7
(imyEvolve
Tree
p656
(dp657
g14
(imyEvolve
Tree
p658
(dp659
g19
I0
sg24
F-0.19306148715914961
sg20
I01
sbsg19
I1
sg21
(imyEvolve
Tree
p660
(dp661
g19
I0
sg20
I00
sbsg25
I00
sg26
g27
sbsg19
I2
sg25
I01
sg26
g37
sbsg19
I3
sg25
I01
sg26
g37
sbsg19
I4
sg25
I01
sg26
g36
sbsg25
I00
sg26
g27
sba(imyEvolve
Tree
p662
(dp663
g14
(imyEvolve
Tree
p664
(dp665
g14
(imyEvolve
Tree
p666
(dp667
g7
(imyEvolve
Tree
p668
(dp669
g19
I0
sg20
I00
sbsg19
I1
sg25
I01
sg26
g38
sbsg19
I2
sg21
(imyEvolve
Tree
p670
(dp671
g14
(imyEvolve
Tree
p672
(dp673
g19
I0
sg20
I00
sbsg19
I1
sg21
(imyEvolve
Tree
p674
(dp675
g19
I0
sg20
I00
sbsg25
I00
sg26
g27
sbsg25
I00
sg26
g27
sbsg19
I3
sg21
(imyEvolve
Tree
p676
(dp677
g7
(imyEvolve
Tree
p678
(dp679
g7
(imyEvolve
Tree
p680
(dp681
g19
I0
sg24
F-4.700930982825623
sg20
I01
sbsg19
I1
sg25
I01
sg26
g107
sbsg19
I2
sg25
I01
sg26
g107
sbsg25
I00
sg26
g27
sba(imyEvolve
Tree
p682
(dp683
g7
(imyEvolve
Tree
p684
(dp685
g7
(imyEvolve
Tree
p686
(dp687
g14
(imyEvolve
Tree
p688
(dp689
g19
I0
sg20
I00
sbsg19
I1
sg21
(imyEvolve
Tree
p690
(dp691
g19
I0
sg20
I00
sbsg25
I00
sg26
g34
sbsg19
I2
sg25
I01
sg26
g37
sbsg19
I3
sg25
I01
sg26
g37
sba(imyEvolve
Tree
p692
(dp693
g14
(imyEvolve
Tree
p694
(dp695
g14
(imyEvolve
Tree
p696
(dp697
g14
(imyEvolve
Tree
p698
(dp699
g14
(imyEvolve
Tree
p700
(dp701
g19
I0
sg24
F-1.6936525170870476
sg20
I01
sbsg19
I1
sg21
(imyEvolve
Tree
p702
(dp703
g19
I0
sg20
I00
sbsg25
I00
sg26
g35
sbsg19
I2
sg21
(imyEvolve
Tree
p704
(dp705
g14
(imyEvolve
Tree
p706
(dp707
g19
I0
sg20
I00
sbsg19
I1
sg21
(imyEvolve
Tree
p708
(dp709
g19
I0
sg24
F-1.521540828356096
sg20
I01
sbsg25
I00
sg26
g35
sbsg25
I00
sg26
g35
sbsg19
I3
sg21
(imyEvolve
Tree
p710
(dp711
g14
(imyEvolve
Tree
p712
(dp713
g7
(imyEvolve
Tree
p714
(dp715
g19
I0
sg20
I00
sbsg19
I1
sg25
I01
sg26
g107
sbsg19
I2
sg21
(imyEvolve
Tree
p716
(dp717
g7
(imyEvolve
Tree
p718
(dp719
g19
I0
sg20
I00
sbsg19
I1
sg25
I01
sg26
g107
sbsg25
I00
sg26
g27
sbsg25
I00
sg26
g34
sbsg19
I4
sg21
(imyEvolve
Tree
p720
(dp721
g14
(imyEvolve
Tree
p722
(dp723
g14
(imyEvolve
Tree
p724
(dp725
g14
(imyEvolve
Tree
p726
(dp727
g19
I0
sg20
I00
sbsg19
I1
sg21
(imyEvolve
Tree
p728
(dp729
g19
I0
sg24
F-4.295276679830261
sg20
I01
sbsg25
I00
sg26
g34
sbsg19
I2
sg21
(imyEvolve
Tree
p730
(dp731
g14
(imyEvolve
Tree
p732
(dp733
g19
I0
sg20
I00
sbsg19
I1
sg21
(imyEvolve
Tree
p734
(dp735
g19
I0
sg20
I00
sbsg25
I00
sg26
g27
sbsg25
I00
sg26
g34
sbsg19
I3
sg21
(imyEvolve
Tree
p736
(dp737
g14
(imyEvolve
Tree
p738
(dp739
g14
(imyEvolve
Tree
p740
(dp741
g19
I0
sg24
F-1.4969336506450026
sg20
I01
sbsg19
I1
sg21
(imyEvolve
Tree
p742
(dp743
g19
I0
sg20
I00
sbsg25
I00
sg26
g35
sbsg19
I2
sg21
(imyEvolve
Tree
p744
(dp745
g7
(imyEvolve
Tree
p746
(dp747
g19
I0
sg20
I00
sbsg19
I1
sg25
I01
sg26
g107
sbsg25
I00
sg26
g35
sbsg25
I00
sg26
g34
sbsg25
I00
sg26
g34
sba(imyEvolve
Tree
p748
(dp749
g14
(imyEvolve
Tree
p750
(dp751
g7
(imyEvolve
Tree
p752
(dp753
g7
(imyEvolve
Tree
p754
(dp755
g19
I0
sg20
I00
sbsg19
I1
sg25
I01
sg26
g37
sbsg19
I2
sg25
I01
sg26
g38
sbsg19
I3
sg21
(imyEvolve
Tree
p756
(dp757
g7
(imyEvolve
Tree
p758
(dp759
g14
(imyEvolve
Tree
p760
(dp761
g19
I0
sg20
I00
sbsg19
I1
sg21
(imyEvolve
Tree
p762
(dp763
g19
I0
sg20
I00
sbsg25
I00
sg26
g34
sbsg19
I2
sg25
I01
sg26
g37
sbsg25
I00
sg26
g34
sba(imyEvolve
Tree
p764
(dp765
g14
(imyEvolve
Tree
p766
(dp767
g7
(imyEvolve
Tree
p768
(dp769
g19
I0
sg24
F-3.594012668945904
sg20
I01
sbsg19
I1
sg25
I01
sg26
g38
sbsg19
I2
sg21
(imyEvolve
Tree
p770
(dp771
g14
(imyEvolve
Tree
p772
(dp773
g19
I0
sg20
I00
sbsg19
I1
sg21
(imyEvolve
Tree
p774
(dp775
g19
I0
sg20
I00
sbsg25
I00
sg26
g27
sbsg25
I00
sg26
g34
sbaa(lp776
(imyEvolve
Tree
p777
(dp778
g19
I5
sg14
(imyEvolve
Tree
p779
(dp780
g7
(imyEvolve
Tree
p781
(dp782
g19
I3
sg14
(imyEvolve
Tree
p783
(dp784
g7
(imyEvolve
Tree
p785
(dp786
g19
I1
sg14
(imyEvolve
Tree
p787
(dp788
g19
I0
sg20
I00
sbsg21
(imyEvolve
Tree
p789
(dp790
g19
I0
sg20
I00
sbsg25
I00
sg26
g34
sbsg19
I2
sg25
I01
sg26
g36
sbsg21
(imyEvolve
Tree
p791
(dp792
g19
I2
sg14
(imyEvolve
Tree
p793
(dp794
g7
(imyEvolve
Tree
p795
(dp796
g19
I0
sg20
I00
sbsg19
I1
sg25
I01
sg26
g38
sbsg21
(imyEvolve
Tree
p797
(dp798
g19
I1
sg14
(imyEvolve
Tree
p799
(dp800
g19
I0
sg20
I00
sbsg21
(imyEvolve
Tree
p801
(dp802
g19
I0
sg24
F1.8367687046944177
sg20
I01
sbsg25
I00
sg26
g35
sbsg25
I00
sg26
g34
sbsg25
I00
sg26
g35
sbsg19
I4
sg25
I01
sg26
g107
sbsg21
(imyEvolve
Tree
p803
(dp804
g7
(imyEvolve
Tree
p805
(dp806
g19
I3
sg14
(imyEvolve
Tree
p807
(dp808
g7
(imyEvolve
Tree
p809
(dp810
g19
I1
sg14
(imyEvolve
Tree
p811
(dp812
g19
I0
sg24
F3.6390473024809964
sg20
I01
sbsg21
(imyEvolve
Tree
p813
(dp814
g19
I0
sg20
I00
sbsg25
I00
sg26
g35
sbsg19
I2
sg25
I01
sg26
g37
sbsg21
(imyEvolve
Tree
p815
(dp816
g7
(imyEvolve
Tree
p817
(dp818
g7
(imyEvolve
Tree
p819
(dp820
g19
I0
sg20
I00
sbsg19
I1
sg25
I01
sg26
g38
sbsg19
I2
sg25
I01
sg26
g107
sbsg25
I00
sg26
g34
sbsg19
I4
sg25
I01
sg26
g36
sbsg25
I00
sg26
g34
sba(imyEvolve
Tree
p821
(dp822
g14
(imyEvolve
Tree
p823
(dp824
g7
(imyEvolve
Tree
p825
(dp826
g19
I0
sg20
I00
sbsg19
I1
sg25
I01
sg26
g38
sbsg19
I2
sg21
(imyEvolve
Tree
p827
(dp828
g14
(imyEvolve
Tree
p829
(dp830
g19
I0
sg24
F-2.7625417990029746
sg20
I01
sbsg19
I1
sg21
(imyEvolve
Tree
p831
(dp832
g19
I0
sg24
F-0.37170770325699465
sg20
I01
sbsg25
I00
sg26
g27
sbsg25
I00
sg26
g34
sba(imyEvolve
Tree
p833
(dp834
g19
I2
sg14
(imyEvolve
Tree
p835
(dp836
g7
(imyEvolve
Tree
p837
(dp838
g19
I0
sg24
F0.2612019519175526
sg20
I01
sbsg19
I1
sg25
I01
sg26
g37
sbsg21
(imyEvolve
Tree
p839
(dp840
g19
I1
sg14
(imyEvolve
Tree
p841
(dp842
g19
I0
sg24
F2.1805704212356627
sg20
I01
sbsg21
(imyEvolve
Tree
p843
(dp844
g19
I0
sg20
I00
sbsg25
I00
sg26
g27
sbsg25
I00
sg26
g34
sba(imyEvolve
Tree
p845
(dp846
g14
(imyEvolve
Tree
p847
(dp848
g14
(imyEvolve
Tree
p849
(dp850
g14
(imyEvolve
Tree
p851
(dp852
g14
(imyEvolve
Tree
p853
(dp854
g19
I0
sg20
I00
sbsg19
I1
sg21
(imyEvolve
Tree
p855
(dp856
g19
I0
sg20
I00
sbsg25
I00
sg26
g27
sbsg19
I2
sg21
(imyEvolve
Tree
p857
(dp858
g7
(imyEvolve
Tree
p859
(dp860
g19
I0
sg20
I00
sbsg19
I1
sg25
I01
sg26
g107
sbsg25
I00
sg26
g27
sbsg19
I3
sg21
(imyEvolve
Tree
p861
(dp862
g14
(imyEvolve
Tree
p863
(dp864
g14
(imyEvolve
Tree
p865
(dp866
g19
I0
sg20
I00
sbsg19
I1
sg21
(imyEvolve
Tree
p867
(dp868
g19
I0
sg24
F-0.6212005546131003
sg20
I01
sbsg25
I00
sg26
g35
sbsg19
I2
sg21
(imyEvolve
Tree
p869
(dp870
g14
(imyEvolve
Tree
p871
(dp872
g19
I0
sg20
I00
sbsg19
I1
sg21
(imyEvolve
Tree
p873
(dp874
g19
I0
sg24
F4.7304303209193534
sg20
I01
sbsg25
I00
sg26
g34
sbsg25
I00
sg26
g27
sbsg25
I00
sg26
g34
sbsg19
I4
sg21
(imyEvolve
Tree
p875
(dp876
g14
(imyEvolve
Tree
p877
(dp878
g7
(imyEvolve
Tree
p879
(dp880
g14
(imyEvolve
Tree
p881
(dp882
g19
I0
sg24
F2.819326682676082
sg20
I01
sbsg19
I1
sg21
(imyEvolve
Tree
p883
(dp884
g19
I0
sg24
F-4.893844115724075
sg20
I01
sbsg25
I00
sg26
g35
sbsg19
I2
sg25
I01
sg26
g37
sbsg19
I3
sg21
(imyEvolve
Tree
p885
(dp886
g7
(imyEvolve
Tree
p887
(dp888
g14
(imyEvolve
Tree
p889
(dp890
g19
I0
sg24
F4.827115676323343
sg20
I01
sbsg19
I1
sg21
(imyEvolve
Tree
p891
(dp892
g19
I0
sg20
I00
sbsg25
I00
sg26
g35
sbsg19
I2
sg25
I01
sg26
g38
sbsg25
I00
sg26
g34
sbsg25
I00
sg26
g27
sba(imyEvolve
Tree
p893
(dp894
g14
(imyEvolve
Tree
p895
(dp896
g7
(imyEvolve
Tree
p897
(dp898
g19
I0
sg24
F-3.6178532335385185
sg20
I01
sbsg19
I1
sg25
I01
sg26
g38
sbsg19
I2
sg21
(imyEvolve
Tree
p899
(dp900
g7
(imyEvolve
Tree
p901
(dp902
g19
I0
sg20
I00
sbsg19
I1
sg25
I01
sg26
g36
sbsg25
I00
sg26
g34
sba(imyEvolve
Tree
p903
(dp904
g7
(imyEvolve
Tree
p905
(dp906
g14
(imyEvolve
Tree
p907
(dp908
g14
(imyEvolve
Tree
p909
(dp910
g19
I0
sg20
I00
sbsg19
I1
sg21
(imyEvolve
Tree
p911
(dp912
g19
I0
sg24
F4.57318657479089
sg20
I01
sbsg25
I00
sg26
g27
sbsg19
I2
sg21
(imyEvolve
Tree
p913
(dp914
g7
(imyEvolve
Tree
p915
(dp916
g19
I0
sg20
I00
sbsg19
I1
sg25
I01
sg26
g107
sbsg25
I00
sg26
g35
sbsg19
I3
sg25
I01
sg26
g36
sba(imyEvolve
Tree
p917
(dp918
g14
(imyEvolve
Tree
p919
(dp920
g7
(imyEvolve
Tree
p921
(dp922
g7
(imyEvolve
Tree
p923
(dp924
g14
(imyEvolve
Tree
p925
(dp926
g19
I0
sg20
I00
sbsg19
I1
sg21
(imyEvolve
Tree
p927
(dp928
g19
I0
sg20
I00
sbsg25
I00
sg26
g27
sbsg19
I2
sg25
I01
sg26
g38
sbsg19
I3
sg25
I01
sg26
g38
sbsg19
I4
sg21
(imyEvolve
Tree
p929
(dp930
g14
(imyEvolve
Tree
p931
(dp932
g14
(imyEvolve
Tree
p933
(dp934
g14
(imyEvolve
Tree
p935
(dp936
g19
I0
sg20
I00
sbsg19
I1
sg21
(imyEvolve
Tree
p937
(dp938
g19
I0
sg24
F-0.14158704149658874
sg20
I01
sbsg25
I00
sg26
g27
sbsg19
I2
sg21
(imyEvolve
Tree
p939
(dp940
g7
(imyEvolve
Tree
p941
(dp942
g19
I0
sg24
F0.1111288196329765
sg20
I01
sbsg19
I1
sg25
I01
sg26
g38
sbsg25
I00
sg26
g27
sbsg19
I3
sg21
(imyEvolve
Tree
p943
(dp944
g14
(imyEvolve
Tree
p945
(dp946
g14
(imyEvolve
Tree
p947
(dp948
g19
I0
sg20
I00
sbsg19
I1
sg21
(imyEvolve
Tree
p949
(dp950
g19
I0
sg20
I00
sbsg25
I00
sg26
g35
sbsg19
I2
sg21
(imyEvolve
Tree
p951
(dp952
g7
(imyEvolve
Tree
p953
(dp954
g19
I0
sg20
I00
sbsg19
I1
sg25
I01
sg26
g107
sbsg25
I00
sg26
g35
sbsg25
I00
sg26
g27
sbsg25
I00
sg26
g34
sba(imyEvolve
Tree
p955
(dp956
g19
I2
sg14
(imyEvolve
Tree
p957
(dp958
g7
(imyEvolve
Tree
p959
(dp960
g19
I0
sg20
I00
sbsg19
I1
sg25
I01
sg26
g38
sbsg21
(imyEvolve
Tree
p961
(dp962
g7
(imyEvolve
Tree
p963
(dp964
g19
I0
sg20
I00
sbsg19
I1
sg25
I01
sg26
g38
sbsg25
I00
sg26
g27
sba(imyEvolve
Tree
p965
(dp966
g14
(imyEvolve
Tree
p967
(dp968
g14
(imyEvolve
Tree
p969
(dp970
g7
(imyEvolve
Tree
p971
(dp972
g14
(imyEvolve
Tree
p973
(dp974
g19
I0
sg24
F1.4396042513113718
sg20
I01
sbsg19
I1
sg21
(imyEvolve
Tree
p975
(dp976
g19
I0
sg24
F2.207175636606186
sg20
I01
sbsg25
I00
sg26
g35
sbsg19
I2
sg25
I01
sg26
g37
sbsg19
I3
sg21
(imyEvolve
Tree
p977
(dp978
g7
(imyEvolve
Tree
p979
(dp980
g14
(imyEvolve
Tree
p981
(dp982
g19
I0
sg20
I00
sbsg19
I1
sg21
(imyEvolve
Tree
p983
(dp984
g19
I0
sg24
F3.861996641265476
sg20
I01
sbsg25
I00
sg26
g27
sbsg19
I2
sg25
I01
sg26
g38
sbsg25
I00
sg26
g35
sbsg19
I4
sg21
(imyEvolve
Tree
p985
(dp986
g14
(imyEvolve
Tree
p987
(dp988
g7
(imyEvolve
Tree
p989
(dp990
g7
(imyEvolve
Tree
p991
(dp992
g19
I0
sg24
F-4.414610067947651
sg20
I01
sbsg19
I1
sg25
I01
sg26
g37
sbsg19
I2
sg25
I01
sg26
g36
sbsg19
I3
sg21
(imyEvolve
Tree
p993
(dp994
g14
(imyEvolve
Tree
p995
(dp996
g7
(imyEvolve
Tree
p997
(dp998
g19
I0
sg24
F-3.2306758995993823
sg20
I01
sbsg19
I1
sg25
I01
sg26
g107
sbsg19
I2
sg21
(imyEvolve
Tree
p999
(dp1000
g14
(imyEvolve
Tree
p1001
(dp1002
g19
I0
sg24
F-1.4674133880890716
sg20
I01
sbsg19
I1
sg21
(imyEvolve
Tree
p1003
(dp1004
g19
I0
sg20
I00
sbsg25
I00
sg26
g35
sbsg25
I00
sg26
g34
sbsg25
I00
sg26
g34
sbsg25
I00
sg26
g27
sba(imyEvolve
Tree
p1005
(dp1006
g7
(imyEvolve
Tree
p1007
(dp1008
g14
(imyEvolve
Tree
p1009
(dp1010
g14
(imyEvolve
Tree
p1011
(dp1012
g19
I0
sg20
I00
sbsg19
I1
sg21
(imyEvolve
Tree
p1013
(dp1014
g19
I0
sg24
F-3.975322356800314
sg20
I01
sbsg25
I00
sg26
g35
sbsg19
I2
sg21
(imyEvolve
Tree
p1015
(dp1016
g14
(imyEvolve
Tree
p1017
(dp1018
g19
I0
sg24
F-0.5660603997116382
sg20
I01
sbsg19
I1
sg21
(imyEvolve
Tree
p1019
(dp1020
g19
I0
sg20
I00
sbsg25
I00
sg26
g35
sbsg25
I00
sg26
g27
sbsg19
I3
sg25
I01
sg26
g36
sba(imyEvolve
Tree
p1021
(dp1022
g7
(imyEvolve
Tree
p1023
(dp1024
g7
(imyEvolve
Tree
p1025
(dp1026
g7
(imyEvolve
Tree
p1027
(dp1028
g7
(imyEvolve
Tree
p1029
(dp1030
g14
(imyEvolve
Tree
p1031
(dp1032
g19
I0
sg24
F-2.1320685991224497
sg20
I01
sbsg19
I1
sg21
(imyEvolve
Tree
p1033
(dp1034
g19
I0
sg20
I00
sbsg25
I00
sg26
g34
sbsg19
I2
sg25
I01
sg26
g107
sbsg19
I3
sg25
I01
sg26
g36
sbsg19
I4
sg25
I01
sg26
g38
sbsg19
I5
sg25
I01
sg26
g107
sba(imyEvolve
Tree
p1035
(dp1036
g7
(imyEvolve
Tree
p1037
(dp1038
g7
(imyEvolve
Tree
p1039
(dp1040
g7
(imyEvolve
Tree
p1041
(dp1042
g7
(imyEvolve
Tree
p1043
(dp1044
g19
I0
sg20
I00
sbsg19
I1
sg25
I01
sg26
g36
sbsg19
I2
sg25
I01
sg26
g37
sbsg19
I3
sg25
I01
sg26
g107
sbsg19
I4
sg25
I01
sg26
g36
sba(imyEvolve
Tree
p1045
(dp1046
g14
(imyEvolve
Tree
p1047
(dp1048
g7
(imyEvolve
Tree
p1049
(dp1050
g19
I0
sg24
F-0.8815828922941593
sg20
I01
sbsg19
I1
sg25
I01
sg26
g107
sbsg19
I2
sg21
(imyEvolve
Tree
p1051
(dp1052
g7
(imyEvolve
Tree
p1053
(dp1054
g19
I0
sg20
I00
sbsg19
I1
sg25
I01
sg26
g37
sbsg25
I00
sg26
g35
sba(imyEvolve
Tree
p1055
(dp1056
g7
(imyEvolve
Tree
p1057
(dp1058
g7
(imyEvolve
Tree
p1059
(dp1060
g19
I0
sg20
I00
sbsg19
I1
sg25
I01
sg26
g38
sbsg19
I2
sg25
I01
sg26
g107
sbaa(lp1061
(imyEvolve
Tree
p1062
(dp1063
g7
(imyEvolve
Tree
p1064
(dp1065
g19
I1
sg14
(imyEvolve
Tree
p1066
(dp1067
g19
I0
sg20
I00
sbsg21
(imyEvolve
Tree
p1068
(dp1069
g19
I0
sg20
I00
sbsg25
I00
sg26
g35
sbsg19
I2
sg25
I01
sg26
g37
sba(imyEvolve
Tree
p1070
(dp1071
g7
(imyEvolve
Tree
p1072
(dp1073
g7
(imyEvolve
Tree
p1074
(dp1075
g19
I2
sg14
(imyEvolve
Tree
p1076
(dp1077
g7
(imyEvolve
Tree
p1078
(dp1079
g19
I0
sg20
I00
sbsg19
I1
sg25
I01
sg26
g107
sbsg21
(imyEvolve
Tree
p1080
(dp1081
g19
I1
sg14
(imyEvolve
Tree
p1082
(dp1083
g19
I0
sg24
F1.4394567594682952
sg20
I01
sbsg21
(imyEvolve
Tree
p1084
(dp1085
g19
I0
sg20
I00
sbsg25
I00
sg26
g34
sbsg25
I00
sg26
g27
sbsg19
I3
sg25
I01
sg26
g36
sbsg19
I4
sg25
I01
sg26
g37
sba(imyEvolve
Tree
p1086
(dp1087
g19
I3
sg14
(imyEvolve
Tree
p1088
(dp1089
g19
I2
sg14
(imyEvolve
Tree
p1090
(dp1091
g7
(imyEvolve
Tree
p1092
(dp1093
g19
I0
sg20
I00
sbsg19
I1
sg25
I01
sg26
g36
sbsg21
(imyEvolve
Tree
p1094
(dp1095
g7
(imyEvolve
Tree
p1096
(dp1097
g19
I0
sg24
F-3.4665486533533327
sg20
I01
sbsg19
I1
sg25
I01
sg26
g107
sbsg25
I00
sg26
g27
sbsg21
(imyEvolve
Tree
p1098
(dp1099
g7
(imyEvolve
Tree
p1100
(dp1101
g7
(imyEvolve
Tree
p1102
(dp1103
g19
I0
sg24
F-0.34220747597614753
sg20
I01
sbsg19
I1
sg25
I01
sg26
g37
sbsg19
I2
sg25
I01
sg26
g107
sbsg25
I00
sg26
g27
sba(imyEvolve
Tree
p1104
(dp1105
g19
I2
sg14
(imyEvolve
Tree
p1106
(dp1107
g19
I1
sg14
(imyEvolve
Tree
p1108
(dp1109
g19
I0
sg24
F-3.201176891882719
sg20
I01
sbsg21
(imyEvolve
Tree
p1110
(dp1111
g19
I0
sg24
F-3.9441480087353007
sg20
I01
sbsg25
I00
sg26
g35
sbsg21
(imyEvolve
Tree
p1112
(dp1113
g7
(imyEvolve
Tree
p1114
(dp1115
g19
I0
sg20
I00
sbsg19
I1
sg25
I01
sg26
g38
sbsg25
I00
sg26
g34
sba(imyEvolve
Tree
p1116
(dp1117
g19
I3
sg14
(imyEvolve
Tree
p1118
(dp1119
g7
(imyEvolve
Tree
p1120
(dp1121
g7
(imyEvolve
Tree
p1122
(dp1123
g19
I0
sg20
I00
sbsg19
I1
sg25
I01
sg26
g107
sbsg19
I2
sg25
I01
sg26
g37
sbsg21
(imyEvolve
Tree
p1124
(dp1125
g7
(imyEvolve
Tree
p1126
(dp1127
g7
(imyEvolve
Tree
p1128
(dp1129
g19
I0
sg24
F2.570018136678426
sg20
I01
sbsg19
I1
sg25
I01
sg26
g107
sbsg19
I2
sg25
I01
sg26
g37
sbsg25
I00
sg26
g34
sba(imyEvolve
Tree
p1130
(dp1131
g19
I2
sg14
(imyEvolve
Tree
p1132
(dp1133
g7
(imyEvolve
Tree
p1134
(dp1135
g19
I0
sg24
F3.6995286662785336
sg20
I01
sbsg19
I1
sg25
I01
sg26
g36
sbsg21
(imyEvolve
Tree
p1136
(dp1137
g7
(imyEvolve
Tree
p1138
(dp1139
g19
I0
sg24
F4.333409800667525
sg20
I01
sbsg19
I1
sg25
I01
sg26
g38
sbsg25
I00
sg26
g27
sba(imyEvolve
Tree
p1140
(dp1141
g19
I2
sg14
(imyEvolve
Tree
p1142
(dp1143
g7
(imyEvolve
Tree
p1144
(dp1145
g19
I0
sg24
F4.6055472839534275
sg20
I01
sbsg19
I1
sg25
I01
sg26
g38
sbsg21
(imyEvolve
Tree
p1146
(dp1147
g19
I1
sg14
(imyEvolve
Tree
p1148
(dp1149
g19
I0
sg20
I00
sbsg21
(imyEvolve
Tree
p1150
(dp1151
g19
I0
sg20
I00
sbsg25
I00
sg26
g27
sbsg25
I00
sg26
g34
sba(imyEvolve
Tree
p1152
(dp1153
g7
(imyEvolve
Tree
p1154
(dp1155
g19
I2
sg14
(imyEvolve
Tree
p1156
(dp1157
g7
(imyEvolve
Tree
p1158
(dp1159
g19
I0
sg24
F-3.477356289395326
sg20
I01
sbsg19
I1
sg25
I01
sg26
g36
sbsg21
(imyEvolve
Tree
p1160
(dp1161
g7
(imyEvolve
Tree
p1162
(dp1163
g19
I0
sg24
F-4.504503525072323
sg20
I01
sbsg19
I1
sg25
I01
sg26
g38
sbsg25
I00
sg26
g34
sbsg19
I3
sg25
I01
sg26
g36
sba(imyEvolve
Tree
p1164
(dp1165
g19
I3
sg14
(imyEvolve
Tree
p1166
(dp1167
g19
I2
sg14
(imyEvolve
Tree
p1168
(dp1169
g19
I1
sg14
(imyEvolve
Tree
p1170
(dp1171
g19
I0
sg20
I00
sbsg21
(imyEvolve
Tree
p1172
(dp1173
g19
I0
sg24
F1.963827688452053
sg20
I01
sbsg25
I00
sg26
g27
sbsg21
(imyEvolve
Tree
p1174
(dp1175
g19
I1
sg14
(imyEvolve
Tree
p1176
(dp1177
g19
I0
sg20
I00
sbsg21
(imyEvolve
Tree
p1178
(dp1179
g19
I0
sg24
F0.06889062831429182
sg20
I01
sbsg25
I00
sg26
g35
sbsg25
I00
sg26
g35
sbsg21
(imyEvolve
Tree
p1180
(dp1181
g7
(imyEvolve
Tree
p1182
(dp1183
g19
I1
sg14
(imyEvolve
Tree
p1184
(dp1185
g19
I0
sg20
I00
sbsg21
(imyEvolve
Tree
p1186
(dp1187
g19
I0
sg20
I00
sbsg25
I00
sg26
g34
sbsg19
I2
sg25
I01
sg26
g107
sbsg25
I00
sg26
g35
sba(imyEvolve
Tree
p1188
(dp1189
g19
I3
sg14
(imyEvolve
Tree
p1190
(dp1191
g19
I2
sg14
(imyEvolve
Tree
p1192
(dp1193
g7
(imyEvolve
Tree
p1194
(dp1195
g19
I0
sg20
I00
sbsg19
I1
sg25
I01
sg26
g38
sbsg21
(imyEvolve
Tree
p1196
(dp1197
g19
I1
sg14
(imyEvolve
Tree
p1198
(dp1199
g19
I0
sg24
F0.40101920169998806
sg20
I01
sbsg21
(imyEvolve
Tree
p1200
(dp1201
g19
I0
sg20
I00
sbsg25
I00
sg26
g35
sbsg25
I00
sg26
g34
sbsg21
(imyEvolve
Tree
p1202
(dp1203
g7
(imyEvolve
Tree
p1204
(dp1205
g7
(imyEvolve
Tree
p1206
(dp1207
g19
I0
sg20
I00
sbsg19
I1
sg25
I01
sg26
g38
sbsg19
I2
sg25
I01
sg26
g37
sbsg25
I00
sg26
g35
sba(imyEvolve
Tree
p1208
(dp1209
g7
(imyEvolve
Tree
p1210
(dp1211
g19
I4
sg14
(imyEvolve
Tree
p1212
(dp1213
g7
(imyEvolve
Tree
p1214
(dp1215
g7
(imyEvolve
Tree
p1216
(dp1217
g7
(imyEvolve
Tree
p1218
(dp1219
g19
I0
sg24
F4.4779292507947535
sg20
I01
sbsg19
I1
sg25
I01
sg26
g38
sbsg19
I2
sg25
I01
sg26
g37
sbsg19
I3
sg25
I01
sg26
g37
sbsg21
(imyEvolve
Tree
p1220
(dp1221
g19
I3
sg14
(imyEvolve
Tree
p1222
(dp1223
g7
(imyEvolve
Tree
p1224
(dp1225
g19
I1
sg14
(imyEvolve
Tree
p1226
(dp1227
g19
I0
sg20
I00
sbsg21
(imyEvolve
Tree
p1228
(dp1229
g19
I0
sg20
I00
sbsg25
I00
sg26
g27
sbsg19
I2
sg25
I01
sg26
g36
sbsg21
(imyEvolve
Tree
p1230
(dp1231
g7
(imyEvolve
Tree
p1232
(dp1233
g19
I1
sg14
(imyEvolve
Tree
p1234
(dp1235
g19
I0
sg20
I00
sbsg21
(imyEvolve
Tree
p1236
(dp1237
g19
I0
sg24
F-0.3390694984612921
sg20
I01
sbsg25
I00
sg26
g34
sbsg19
I2
sg25
I01
sg26
g38
sbsg25
I00
sg26
g35
sbsg25
I00
sg26
g27
sbsg19
I5
sg25
I01
sg26
g38
sba(imyEvolve
Tree
p1238
(dp1239
g7
(imyEvolve
Tree
p1240
(dp1241
g19
I1
sg14
(imyEvolve
Tree
p1242
(dp1243
g19
I0
sg24
F-4.437046004419055
sg20
I01
sbsg21
(imyEvolve
Tree
p1244
(dp1245
g19
I0
sg24
F2.6277537983404358
sg20
I01
sbsg25
I00
sg26
g27
sbsg19
I2
sg25
I01
sg26
g107
sba(imyEvolve
Tree
p1246
(dp1247
g19
I5
sg14
(imyEvolve
Tree
p1248
(dp1249
g7
(imyEvolve
Tree
p1250
(dp1251
g7
(imyEvolve
Tree
p1252
(dp1253
g19
I2
sg14
(imyEvolve
Tree
p1254
(dp1255
g19
I1
sg14
(imyEvolve
Tree
p1256
(dp1257
g19
I0
sg24
F2.72797167255992
sg20
I01
sbsg21
(imyEvolve
Tree
p1258
(dp1259
g19
I0
sg24
F2.144018750431562
sg20
I01
sbsg25
I00
sg26
g27
sbsg21
(imyEvolve
Tree
p1260
(dp1261
g19
I1
sg14
(imyEvolve
Tree
p1262
(dp1263
g19
I0
sg24
F3.548818488262695
sg20
I01
sbsg21
(imyEvolve
Tree
p1264
(dp1265
g19
I0
sg20
I00
sbsg25
I00
sg26
g27
sbsg25
I00
sg26
g35
sbsg19
I3
sg25
I01
sg26
g36
sbsg19
I4
sg25
I01
sg26
g38
sbsg21
(imyEvolve
Tree
p1266
(dp1267
g19
I4
sg14
(imyEvolve
Tree
p1268
(dp1269
g19
I3
sg14
(imyEvolve
Tree
p1270
(dp1271
g7
(imyEvolve
Tree
p1272
(dp1273
g7
(imyEvolve
Tree
p1274
(dp1275
g19
I0
sg20
I00
sbsg19
I1
sg25
I01
sg26
g38
sbsg19
I2
sg25
I01
sg26
g38
sbsg21
(imyEvolve
Tree
p1276
(dp1277
g7
(imyEvolve
Tree
p1278
(dp1279
g19
I1
sg14
(imyEvolve
Tree
p1280
(dp1281
g19
I0
sg20
I00
sbsg21
(imyEvolve
Tree
p1282
(dp1283
g19
I0
sg20
I00
sbsg25
I00
sg26
g27
sbsg19
I2
sg25
I01
sg26
g37
sbsg25
I00
sg26
g34
sbsg21
(imyEvolve
Tree
p1284
(dp1285
g19
I3
sg14
(imyEvolve
Tree
p1286
(dp1287
g19
I2
sg14
(imyEvolve
Tree
p1288
(dp1289
g19
I1
sg14
(imyEvolve
Tree
p1290
(dp1291
g19
I0
sg24
F-0.6121964853849029
sg20
I01
sbsg21
(imyEvolve
Tree
p1292
(dp1293
g19
I0
sg24
F-3.4711238400939926
sg20
I01
sbsg25
I00
sg26
g27
sbsg21
(imyEvolve
Tree
p1294
(dp1295
g7
(imyEvolve
Tree
p1296
(dp1297
g19
I0
sg24
F-1.803330541275873
sg20
I01
sbsg19
I1
sg25
I01
sg26
g38
sbsg25
I00
sg26
g35
sbsg21
(imyEvolve
Tree
p1298
(dp1299
g19
I2
sg14
(imyEvolve
Tree
p1300
(dp1301
g19
I1
sg14
(imyEvolve
Tree
p1302
(dp1303
g19
I0
sg24
F4.252083583988886
sg20
I01
sbsg21
(imyEvolve
Tree
p1304
(dp1305
g19
I0
sg24
F-4.001158577058325
sg20
I01
sbsg25
I00
sg26
g27
sbsg21
(imyEvolve
Tree
p1306
(dp1307
g19
I1
sg14
(imyEvolve
Tree
p1308
(dp1309
g19
I0
sg24
F3.1734772473803545
sg20
I01
sbsg21
(imyEvolve
Tree
p1310
(dp1311
g19
I0
sg20
I00
sbsg25
I00
sg26
g35
sbsg25
I00
sg26
g27
sbsg25
I00
sg26
g35
sbsg25
I00
sg26
g27
sbsg25
I00
sg26
g27
sba(imyEvolve
Tree
p1312
(dp1313
g7
(imyEvolve
Tree
p1314
(dp1315
g19
I4
sg14
(imyEvolve
Tree
p1316
(dp1317
g19
I3
sg14
(imyEvolve
Tree
p1318
(dp1319
g7
(imyEvolve
Tree
p1320
(dp1321
g7
(imyEvolve
Tree
p1322
(dp1323
g19
I0
sg24
F-4.547605424805692
sg20
I01
sbsg19
I1
sg25
I01
sg26
g107
sbsg19
I2
sg25
I01
sg26
g37
sbsg21
(imyEvolve
Tree
p1324
(dp1325
g7
(imyEvolve
Tree
p1326
(dp1327
g19
I1
sg14
(imyEvolve
Tree
p1328
(dp1329
g19
I0
sg24
F3.2431843981640487
sg20
I01
sbsg21
(imyEvolve
Tree
p1330
(dp1331
g19
I0
sg24
F-0.21075743073962006
sg20
I01
sbsg25
I00
sg26
g27
sbsg19
I2
sg25
I01
sg26
g107
sbsg25
I00
sg26
g27
sbsg21
(imyEvolve
Tree
p1332
(dp1333
g19
I3
sg14
(imyEvolve
Tree
p1334
(dp1335
g19
I2
sg14
(imyEvolve
Tree
p1336
(dp1337
g7
(imyEvolve
Tree
p1338
(dp1339
g19
I0
sg20
I00
sbsg19
I1
sg25
I01
sg26
g38
sbsg21
(imyEvolve
Tree
p1340
(dp1341
g7
(imyEvolve
Tree
p1342
(dp1343
g19
I0
sg20
I00
sbsg19
I1
sg25
I01
sg26
g38
sbsg25
I00
sg26
g34
sbsg21
(imyEvolve
Tree
p1344
(dp1345
g7
(imyEvolve
Tree
p1346
(dp1347
g19
I1
sg14
(imyEvolve
Tree
p1348
(dp1349
g19
I0
sg24
F3.4384088848106504
sg20
I01
sbsg21
(imyEvolve
Tree
p1350
(dp1351
g19
I0
sg24
F-2.216645223379139
sg20
I01
sbsg25
I00
sg26
g35
sbsg19
I2
sg25
I01
sg26
g37
sbsg25
I00
sg26
g34
sbsg25
I00
sg26
g35
sbsg19
I5
sg25
I01
sg26
g107
sba(imyEvolve
Tree
p1352
(dp1353
g7
(imyEvolve
Tree
p1354
(dp1355
g7
(imyEvolve
Tree
p1356
(dp1357
g7
(imyEvolve
Tree
p1358
(dp1359
g19
I1
sg14
(imyEvolve
Tree
p1360
(dp1361
g19
I0
sg20
I00
sbsg21
(imyEvolve
Tree
p1362
(dp1363
g19
I0
sg20
I00
sbsg25
I00
sg26
g34
sbsg19
I2
sg25
I01
sg26
g37
sbsg19
I3
sg25
I01
sg26
g36
sbsg19
I4
sg25
I01
sg26
g36
sba(imyEvolve
Tree
p1364
(dp1365
g7
(imyEvolve
Tree
p1366
(dp1367
g19
I3
sg14
(imyEvolve
Tree
p1368
(dp1369
g7
(imyEvolve
Tree
p1370
(dp1371
g19
I1
sg14
(imyEvolve
Tree
p1372
(dp1373
g19
I0
sg24
F-2.176036261864259
sg20
I01
sbsg21
(imyEvolve
Tree
p1374
(dp1375
g19
I0
sg20
I00
sbsg25
I00
sg26
g27
sbsg19
I2
sg25
I01
sg26
g107
sbsg21
(imyEvolve
Tree
p1376
(dp1377
g7
(imyEvolve
Tree
p1378
(dp1379
g19
I1
sg14
(imyEvolve
Tree
p1380
(dp1381
g19
I0
sg20
I00
sbsg21
(imyEvolve
Tree
p1382
(dp1383
g19
I0
sg20
I00
sbsg25
I00
sg26
g35
sbsg19
I2
sg25
I01
sg26
g38
sbsg25
I00
sg26
g34
sbsg19
I4
sg25
I01
sg26
g38
sba(imyEvolve
Tree
p1384
(dp1385
g7
(imyEvolve
Tree
p1386
(dp1387
g19
I4
sg14
(imyEvolve
Tree
p1388
(dp1389
g19
I3
sg14
(imyEvolve
Tree
p1390
(dp1391
g7
(imyEvolve
Tree
p1392
(dp1393
g7
(imyEvolve
Tree
p1394
(dp1395
g19
I0
sg24
F-4.579117194716234
sg20
I01
sbsg19
I1
sg25
I01
sg26
g37
sbsg19
I2
sg25
I01
sg26
g38
sbsg21
(imyEvolve
Tree
p1396
(dp1397
g7
(imyEvolve
Tree
p1398
(dp1399
g19
I1
sg14
(imyEvolve
Tree
p1400
(dp1401
g19
I0
sg24
F-4.565968979904762
sg20
I01
sbsg21
(imyEvolve
Tree
p1402
(dp1403
g19
I0
sg24
F-2.902563710926862
sg20
I01
sbsg25
I00
sg26
g35
sbsg19
I2
sg25
I01
sg26
g107
sbsg25
I00
sg26
g27
sbsg21
(imyEvolve
Tree
p1404
(dp1405
g7
(imyEvolve
Tree
p1406
(dp1407
g19
I2
sg14
(imyEvolve
Tree
p1408
(dp1409
g7
(imyEvolve
Tree
p1410
(dp1411
g19
I0
sg20
I00
sbsg19
I1
sg25
I01
sg26
g38
sbsg21
(imyEvolve
Tree
p1412
(dp1413
g7
(imyEvolve
Tree
p1414
(dp1415
g19
I0
sg24
F-3.0956091945600663
sg20
I01
sbsg19
I1
sg25
I01
sg26
g107
sbsg25
I00
sg26
g27
sbsg19
I3
sg25
I01
sg26
g36
sbsg25
I00
sg26
g34
sbsg19
I5
sg25
I01
sg26
g37
sba(imyEvolve
Tree
p1416
(dp1417
g7
(imyEvolve
Tree
p1418
(dp1419
g7
(imyEvolve
Tree
p1420
(dp1421
g19
I1
sg14
(imyEvolve
Tree
p1422
(dp1423
g19
I0
sg24
F-2.3422862195191407
sg20
I01
sbsg21
(imyEvolve
Tree
p1424
(dp1425
g19
I0
sg20
I00
sbsg25
I00
sg26
g27
sbsg19
I2
sg25
I01
sg26
g37
sbsg19
I3
sg25
I01
sg26
g38
sba(imyEvolve
Tree
p1426
(dp1427
g7
(imyEvolve
Tree
p1428
(dp1429
g19
I2
sg14
(imyEvolve
Tree
p1430
(dp1431
g19
I1
sg14
(imyEvolve
Tree
p1432
(dp1433
g19
I0
sg24
F-1.8842794427736331
sg20
I01
sbsg21
(imyEvolve
Tree
p1434
(dp1435
g19
I0
sg20
I00
sbsg25
I00
sg26
g35
sbsg21
(imyEvolve
Tree
p1436
(dp1437
g19
I1
sg14
(imyEvolve
Tree
p1438
(dp1439
g19
I0
sg24
F-1.7577807983418081
sg20
I01
sbsg21
(imyEvolve
Tree
p1440
(dp1441
g19
I0
sg20
I00
sbsg25
I00
sg26
g27
sbsg25
I00
sg26
g27
sbsg19
I3
sg25
I01
sg26
g36
sba(imyEvolve
Tree
p1442
(dp1443
g19
I5
sg14
(imyEvolve
Tree
p1444
(dp1445
g19
I4
sg14
(imyEvolve
Tree
p1446
(dp1447
g7
(imyEvolve
Tree
p1448
(dp1449
g7
(imyEvolve
Tree
p1450
(dp1451
g7
(imyEvolve
Tree
p1452
(dp1453
g19
I0
sg20
I00
sbsg19
I1
sg25
I01
sg26
g38
sbsg19
I2
sg25
I01
sg26
g36
sbsg19
I3
sg25
I01
sg26
g36
sbsg21
(imyEvolve
Tree
p1454
(dp1455
g7
(imyEvolve
Tree
p1456
(dp1457
g7
(imyEvolve
Tree
p1458
(dp1459
g19
I1
sg14
(imyEvolve
Tree
p1460
(dp1461
g19
I0
sg20
I00
sbsg21
(imyEvolve
Tree
p1462
(dp1463
g19
I0
sg24
F1.6985950552875861
sg20
I01
sbsg25
I00
sg26
g35
sbsg19
I2
sg25
I01
sg26
g107
sbsg19
I3
sg25
I01
sg26
g107
sbsg25
I00
sg26
g35
sbsg21
(imyEvolve
Tree
p1464
(dp1465
g19
I4
sg14
(imyEvolve
Tree
p1466
(dp1467
g19
I3
sg14
(imyEvolve
Tree
p1468
(dp1469
g7
(imyEvolve
Tree
p1470
(dp1471
g7
(imyEvolve
Tree
p1472
(dp1473
g19
I0
sg20
I00
sbsg19
I1
sg25
I01
sg26
g107
sbsg19
I2
sg25
I01
sg26
g36
sbsg21
(imyEvolve
Tree
p1474
(dp1475
g19
I2
sg14
(imyEvolve
Tree
p1476
(dp1477
g7
(imyEvolve
Tree
p1478
(dp1479
g19
I0
sg24
F-2.934557516484918
sg20
I01
sbsg19
I1
sg25
I01
sg26
g38
sbsg21
(imyEvolve
Tree
p1480
(dp1481
g19
I1
sg14
(imyEvolve
Tree
p1482
(dp1483
g19
I0
sg24
F4.4770912579138855
sg20
I01
sbsg21
(imyEvolve
Tree
p1484
(dp1485
g19
I0
sg24
F-2.260455987225971
sg20
I01
sbsg25
I00
sg26
g35
sbsg25
I00
sg26
g27
sbsg25
I00
sg26
g27
sbsg21
(imyEvolve
Tree
p1486
(dp1487
g19
I3
sg14
(imyEvolve
Tree
p1488
(dp1489
g19
I2
sg14
(imyEvolve
Tree
p1490
(dp1491
g19
I1
sg14
(imyEvolve
Tree
p1492
(dp1493
g19
I0
sg20
I00
sbsg21
(imyEvolve
Tree
p1494
(dp1495
g19
I0
sg20
I00
sbsg25
I00
sg26
g34
sbsg21
(imyEvolve
Tree
p1496
(dp1497
g19
I1
sg14
(imyEvolve
Tree
p1498
(dp1499
g19
I0
sg20
I00
sbsg21
(imyEvolve
Tree
p1500
(dp1501
g19
I0
sg24
F-4.2043636735239565
sg20
I01
sbsg25
I00
sg26
g35
sbsg25
I00
sg26
g34
sbsg21
(imyEvolve
Tree
p1502
(dp1503
g19
I2
sg14
(imyEvolve
Tree
p1504
(dp1505
g7
(imyEvolve
Tree
p1506
(dp1507
g19
I0
sg24
F-1.8215528653675692
sg20
I01
sbsg19
I1
sg25
I01
sg26
g37
sbsg21
(imyEvolve
Tree
p1508
(dp1509
g7
(imyEvolve
Tree
p1510
(dp1511
g19
I0
sg20
I00
sbsg19
I1
sg25
I01
sg26
g107
sbsg25
I00
sg26
g27
sbsg25
I00
sg26
g34
sbsg25
I00
sg26
g35
sbsg25
I00
sg26
g27
sbaasS'alpha'
p1512
F0.007471123144049652
sS'fitness'
p1513
cnumpy.core.multiarray
scalar
p1514
(cnumpy
dtype
p1515
(S'f8'
p1516
I0
I1
tp1517
Rp1518
(I3
S'<'
p1519
NNNI-1
I-1
I0
tp1520
bS'\x00\x80&\xc2\x8a^\\?'
p1521
tp1522
Rp1523
sS'weightSharing'
p1524
(lp1525
I00
asS'fitnessValid'
p1526
I00
sS'resolution'
p1527
I70
sb.