(imyEvolve
Individual
p0
(dp1
S'funcs'
p2
(lp3
(lp4
(imyEvolve
Tree
p5
(dp6
S'below'
p7
(imyEvolve
Tree
p8
(dp9
S'left'
p10
(imyEvolve
Tree
p11
(dp12
g7
(imyEvolve
Tree
p13
(dp14
S'depth'
p15
I0
sS'isConstant'
p16
I00
sbsg15
I1
sS'single'
p17
I01
sS'op'
p18
cmyEvolve
absSqrt
p19
sbsg15
I2
sS'right'
p20
(imyEvolve
Tree
p21
(dp22
g7
(imyEvolve
Tree
p23
(dp24
g15
I0
sg16
I00
sbsg15
I1
sg17
I01
sg18
cmath
sin
p25
sbsg17
I00
sg18
coperator
sub
p26
sbsg15
I3
sg17
I01
sg18
g19
sba(imyEvolve
Tree
p27
(dp28
g10
(imyEvolve
Tree
p29
(dp30
g10
(imyEvolve
Tree
p31
(dp32
g15
I0
sg16
I00
sbsg15
I1
sg20
(imyEvolve
Tree
p33
(dp34
g15
I0
sS'constant'
p35
F2.094479066317895
sg16
I01
sbsg17
I00
sg18
coperator
add
p36
sbsg15
I2
sg20
(imyEvolve
Tree
p37
(dp38
g10
(imyEvolve
Tree
p39
(dp40
g15
I0
sg35
F-2.436449475619007
sg16
I01
sbsg15
I1
sg20
(imyEvolve
Tree
p41
(dp42
g15
I0
sg16
I00
sbsg17
I00
sg18
g36
sbsg17
I00
sg18
coperator
mul
p43
sba(imyEvolve
Tree
p44
(dp45
g7
(imyEvolve
Tree
p46
(dp47
g15
I3
sg10
(imyEvolve
Tree
p48
(dp49
g7
(imyEvolve
Tree
p50
(dp51
g15
I1
sg10
(imyEvolve
Tree
p52
(dp53
g15
I0
sg16
I00
sbsg20
(imyEvolve
Tree
p54
(dp55
g15
I0
sg16
I00
sbsg17
I00
sg18
g26
sbsg15
I2
sg17
I01
sg18
cmath
cos
p56
sbsg20
(imyEvolve
Tree
p57
(dp58
g7
(imyEvolve
Tree
p59
(dp60
g7
(imyEvolve
Tree
p61
(dp62
g15
I0
sg35
F-0.8028519846525057
sg16
I01
sbsg15
I1
sg17
I01
sg18
g56
sbsg15
I2
sg17
I01
sg18
g25
sbsg17
I00
sg18
g26
sbsg15
I4
sg17
I01
sg18
g56
sba(imyEvolve
Tree
p63
(dp64
g15
I2
sg10
(imyEvolve
Tree
p65
(dp66
g7
(imyEvolve
Tree
p67
(dp68
g15
I0
sg16
I00
sbsg15
I1
sg17
I01
sg18
g56
sbsg20
(imyEvolve
Tree
p69
(dp70
g15
I1
sg10
(imyEvolve
Tree
p71
(dp72
g15
I0
sg16
I00
sbsg20
(imyEvolve
Tree
p73
(dp74
g15
I0
sg35
F-4.007945137490514
sg16
I01
sbsg17
I00
sg18
g43
sbsg17
I00
sg18
g36
sba(imyEvolve
Tree
p75
(dp76
g7
(imyEvolve
Tree
p77
(dp78
g7
(imyEvolve
Tree
p79
(dp80
g7
(imyEvolve
Tree
p81
(dp82
g15
I0
sg35
F-0.8729049892695251
sg16
I01
sbsg15
I1
sg17
I01
sg18
g19
sbsg15
I2
sg17
I01
sg18
g56
sbsg15
I3
sg17
I01
sg18
g19
sba(imyEvolve
Tree
p83
(dp84
g15
I5
sg10
(imyEvolve
Tree
p85
(dp86
g15
I4
sg10
(imyEvolve
Tree
p87
(dp88
g7
(imyEvolve
Tree
p89
(dp90
g15
I2
sg10
(imyEvolve
Tree
p91
(dp92
g15
I1
sg10
(imyEvolve
Tree
p93
(dp94
g15
I0
sg35
F4.848275287015515
sg16
I01
sbsg20
(imyEvolve
Tree
p95
(dp96
g15
I0
sg35
F4.248681638522983
sg16
I01
sbsg17
I00
sg18
g36
sbsg20
(imyEvolve
Tree
p97
(dp98
g15
I1
sg10
(imyEvolve
Tree
p99
(dp100
g15
I0
sg16
I00
sbsg20
(imyEvolve
Tree
p101
(dp102
g15
I0
sg16
I00
sbsg17
I00
sg18
g36
sbsg17
I00
sg18
g36
sbsg15
I3
sg17
I01
sg18
g19
sbsg20
(imyEvolve
Tree
p103
(dp104
g15
I3
sg10
(imyEvolve
Tree
p105
(dp106
g7
(imyEvolve
Tree
p107
(dp108
g15
I1
sg10
(imyEvolve
Tree
p109
(dp110
g15
I0
sg16
I00
sbsg20
(imyEvolve
Tree
p111
(dp112
g15
I0
sg35
F-0.6688824063628482
sg16
I01
sbsg17
I00
sg18
g43
sbsg15
I2
sg17
I01
sg18
cmyEvolve
square
p113
sbsg20
(imyEvolve
Tree
p114
(dp115
g15
I2
sg10
(imyEvolve
Tree
p116
(dp117
g7
(imyEvolve
Tree
p118
(dp119
g15
I0
sg16
I00
sbsg15
I1
sg17
I01
sg18
g56
sbsg20
(imyEvolve
Tree
p120
(dp121
g15
I1
sg10
(imyEvolve
Tree
p122
(dp123
g15
I0
sg16
I00
sbsg20
(imyEvolve
Tree
p124
(dp125
g15
I0
sg35
F-4.960946321548093
sg16
I01
sbsg17
I00
sg18
g36
sbsg17
I00
sg18
g43
sbsg17
I00
sg18
g26
sbsg17
I00
sg18
g26
sbsg20
(imyEvolve
Tree
p126
(dp127
g15
I4
sg10
(imyEvolve
Tree
p128
(dp129
g7
(imyEvolve
Tree
p130
(dp131
g15
I2
sg10
(imyEvolve
Tree
p132
(dp133
g15
I1
sg10
(imyEvolve
Tree
p134
(dp135
g15
I0
sg35
F-2.7282108461591834
sg16
I01
sbsg20
(imyEvolve
Tree
p136
(dp137
g15
I0
sg35
F3.1532040104728374
sg16
I01
sbsg17
I00
sg18
g36
sbsg20
(imyEvolve
Tree
p138
(dp139
g15
I1
sg10
(imyEvolve
Tree
p140
(dp141
g15
I0
sg35
F-3.049994909155531
sg16
I01
sbsg20
(imyEvolve
Tree
p142
(dp143
g15
I0
sg35
F2.328400619709587
sg16
I01
sbsg17
I00
sg18
g43
sbsg17
I00
sg18
g26
sbsg15
I3
sg17
I01
sg18
g56
sbsg20
(imyEvolve
Tree
p144
(dp145
g7
(imyEvolve
Tree
p146
(dp147
g7
(imyEvolve
Tree
p148
(dp149
g15
I1
sg10
(imyEvolve
Tree
p150
(dp151
g15
I0
sg35
F-0.24642860216762852
sg16
I01
sbsg20
(imyEvolve
Tree
p152
(dp153
g15
I0
sg35
F-3.732555865596848
sg16
I01
sbsg17
I00
sg18
g36
sbsg15
I2
sg17
I01
sg18
g25
sbsg15
I3
sg17
I01
sg18
g56
sbsg17
I00
sg18
g26
sbsg17
I00
sg18
g43
sba(imyEvolve
Tree
p154
(dp155
g7
(imyEvolve
Tree
p156
(dp157
g7
(imyEvolve
Tree
p158
(dp159
g7
(imyEvolve
Tree
p160
(dp161
g15
I2
sg10
(imyEvolve
Tree
p162
(dp163
g15
I1
sg10
(imyEvolve
Tree
p164
(dp165
g15
I0
sg16
I00
sbsg20
(imyEvolve
Tree
p166
(dp167
g15
I0
sg16
I00
sbsg17
I00
sg18
g43
sbsg20
(imyEvolve
Tree
p168
(dp169
g15
I1
sg10
(imyEvolve
Tree
p170
(dp171
g15
I0
sg16
I00
sbsg20
(imyEvolve
Tree
p172
(dp173
g15
I0
sg16
I00
sbsg17
I00
sg18
g26
sbsg17
I00
sg18
g36
sbsg15
I3
sg17
I01
sg18
g19
sbsg15
I4
sg17
I01
sg18
g25
sbsg15
I5
sg17
I01
sg18
g25
sba(imyEvolve
Tree
p174
(dp175
g7
(imyEvolve
Tree
p176
(dp177
g7
(imyEvolve
Tree
p178
(dp179
g10
(imyEvolve
Tree
p180
(dp181
g10
(imyEvolve
Tree
p182
(dp183
g15
I0
sg16
I00
sbsg15
I1
sg20
(imyEvolve
Tree
p184
(dp185
g15
I0
sg16
I00
sbsg17
I00
sg18
g36
sbsg15
I2
sg20
(imyEvolve
Tree
p186
(dp187
g10
(imyEvolve
Tree
p188
(dp189
g15
I0
sg35
F0.9746131049444156
sg16
I01
sbsg15
I1
sg20
(imyEvolve
Tree
p190
(dp191
g15
I0
sg16
I00
sbsg17
I00
sg18
g36
sbsg17
I00
sg18
g36
sbsg15
I3
sg17
I01
sg18
g19
sbsg15
I4
sg17
I01
sg18
g25
sba(imyEvolve
Tree
p192
(dp193
g15
I4
sg10
(imyEvolve
Tree
p194
(dp195
g7
(imyEvolve
Tree
p196
(dp197
g15
I2
sg10
(imyEvolve
Tree
p198
(dp199
g15
I1
sg10
(imyEvolve
Tree
p200
(dp201
g15
I0
sg35
F-2.2721820717530683
sg16
I01
sbsg20
(imyEvolve
Tree
p202
(dp203
g15
I0
sg35
F3.363004860059778
sg16
I01
sbsg17
I00
sg18
g26
sbsg20
(imyEvolve
Tree
p204
(dp205
g7
(imyEvolve
Tree
p206
(dp207
g15
I0
sg35
F-0.12737236516100126
sg16
I01
sbsg15
I1
sg17
I01
sg18
g25
sbsg17
I00
sg18
g43
sbsg15
I3
sg17
I01
sg18
g56
sbsg20
(imyEvolve
Tree
p208
(dp209
g15
I3
sg10
(imyEvolve
Tree
p210
(dp211
g15
I2
sg10
(imyEvolve
Tree
p212
(dp213
g7
(imyEvolve
Tree
p214
(dp215
g15
I0
sg35
F2.4088470762497245
sg16
I01
sbsg15
I1
sg17
I01
sg18
g113
sbsg20
(imyEvolve
Tree
p216
(dp217
g7
(imyEvolve
Tree
p218
(dp219
g15
I0
sg16
I00
sbsg15
I1
sg17
I01
sg18
g25
sbsg17
I00
sg18
g43
sbsg20
(imyEvolve
Tree
p220
(dp221
g15
I2
sg10
(imyEvolve
Tree
p222
(dp223
g7
(imyEvolve
Tree
p224
(dp225
g15
I0
sg35
F-1.1779453166541822
sg16
I01
sbsg15
I1
sg17
I01
sg18
g25
sbsg20
(imyEvolve
Tree
p226
(dp227
g7
(imyEvolve
Tree
p228
(dp229
g15
I0
sg16
I00
sbsg15
I1
sg17
I01
sg18
g19
sbsg17
I00
sg18
g36
sbsg17
I00
sg18
g43
sbsg17
I00
sg18
g26
sba(imyEvolve
Tree
p230
(dp231
g7
(imyEvolve
Tree
p232
(dp233
g7
(imyEvolve
Tree
p234
(dp235
g15
I2
sg10
(imyEvolve
Tree
p236
(dp237
g7
(imyEvolve
Tree
p238
(dp239
g15
I0
sg35
F-3.724846462232012
sg16
I01
sbsg15
I1
sg17
I01
sg18
g113
sbsg20
(imyEvolve
Tree
p240
(dp241
g7
(imyEvolve
Tree
p242
(dp243
g15
I0
sg16
I00
sbsg15
I1
sg17
I01
sg18
g113
sbsg17
I00
sg18
g36
sbsg15
I3
sg17
I01
sg18
g56
sbsg15
I4
sg17
I01
sg18
g25
sba(imyEvolve
Tree
p244
(dp245
g7
(imyEvolve
Tree
p246
(dp247
g10
(imyEvolve
Tree
p248
(dp249
g15
I0
sg16
I00
sbsg15
I1
sg20
(imyEvolve
Tree
p250
(dp251
g15
I0
sg16
I00
sbsg17
I00
sg18
g43
sbsg15
I2
sg17
I01
sg18
g25
sba(imyEvolve
Tree
p252
(dp253
g7
(imyEvolve
Tree
p254
(dp255
g7
(imyEvolve
Tree
p256
(dp257
g7
(imyEvolve
Tree
p258
(dp259
g7
(imyEvolve
Tree
p260
(dp261
g15
I0
sg35
F-2.3807552443199063
sg16
I01
sbsg15
I1
sg17
I01
sg18
g19
sbsg15
I2
sg17
I01
sg18
g25
sbsg15
I3
sg17
I01
sg18
g56
sbsg15
I4
sg17
I01
sg18
g25
sba(imyEvolve
Tree
p262
(dp263
g7
(imyEvolve
Tree
p264
(dp265
g7
(imyEvolve
Tree
p266
(dp267
g15
I0
sg35
F-0.6539168139617226
sg16
I01
sbsg15
I1
sg17
I01
sg18
g19
sbsg15
I2
sg17
I01
sg18
g56
sbaa(lp268
(imyEvolve
Tree
p269
(dp270
g10
(imyEvolve
Tree
p271
(dp272
g7
(imyEvolve
Tree
p273
(dp274
g7
(imyEvolve
Tree
p275
(dp276
g10
(imyEvolve
Tree
p277
(dp278
g15
I0
sg35
F-3.146289141146129
sg16
I01
sbsg15
I1
sg20
(imyEvolve
Tree
p279
(dp280
g15
I0
sg16
I00
sbsg17
I00
sg18
g43
sbsg15
I2
sg17
I01
sg18
g25
sbsg15
I3
sg17
I01
sg18
g113
sbsg15
I4
sg20
(imyEvolve
Tree
p281
(dp282
g7
(imyEvolve
Tree
p283
(dp284
g7
(imyEvolve
Tree
p285
(dp286
g10
(imyEvolve
Tree
p287
(dp288
g15
I0
sg35
F2.8422988932532114
sg16
I01
sbsg15
I1
sg20
(imyEvolve
Tree
p289
(dp290
g15
I0
sg16
I00
sbsg17
I00
sg18
g36
sbsg15
I2
sg17
I01
sg18
g113
sbsg15
I3
sg17
I01
sg18
g113
sbsg17
I00
sg18
g43
sba(imyEvolve
Tree
p291
(dp292
g7
(imyEvolve
Tree
p293
(dp294
g7
(imyEvolve
Tree
p295
(dp296
g7
(imyEvolve
Tree
p297
(dp298
g15
I1
sg10
(imyEvolve
Tree
p299
(dp300
g15
I0
sg16
I00
sbsg20
(imyEvolve
Tree
p301
(dp302
g15
I0
sg16
I00
sbsg17
I00
sg18
g36
sbsg15
I2
sg17
I01
sg18
g113
sbsg15
I3
sg17
I01
sg18
g56
sbsg15
I4
sg17
I01
sg18
g56
sba(imyEvolve
Tree
p303
(dp304
g10
(imyEvolve
Tree
p305
(dp306
g10
(imyEvolve
Tree
p307
(dp308
g10
(imyEvolve
Tree
p309
(dp310
g15
I0
sg16
I00
sbsg15
I1
sg20
(imyEvolve
Tree
p311
(dp312
g15
I0
sg35
F2.990293128824457
sg16
I01
sbsg17
I00
sg18
g43
sbsg15
I2
sg20
(imyEvolve
Tree
p313
(dp314
g10
(imyEvolve
Tree
p315
(dp316
g15
I0
sg16
I00
sbsg15
I1
sg20
(imyEvolve
Tree
p317
(dp318
g15
I0
sg35
F4.9090558008745635
sg16
I01
sbsg17
I00
sg18
g43
sbsg17
I00
sg18
g36
sbsg15
I3
sg20
(imyEvolve
Tree
p319
(dp320
g10
(imyEvolve
Tree
p321
(dp322
g7
(imyEvolve
Tree
p323
(dp324
g15
I0
sg35
F1.2555744269221014
sg16
I01
sbsg15
I1
sg17
I01
sg18
g25
sbsg15
I2
sg20
(imyEvolve
Tree
p325
(dp326
g7
(imyEvolve
Tree
p327
(dp328
g15
I0
sg16
I00
sbsg15
I1
sg17
I01
sg18
g25
sbsg17
I00
sg18
g43
sbsg17
I00
sg18
g36
sba(imyEvolve
Tree
p329
(dp330
g7
(imyEvolve
Tree
p331
(dp332
g7
(imyEvolve
Tree
p333
(dp334
g10
(imyEvolve
Tree
p335
(dp336
g15
I0
sg35
F3.4594628217190238
sg16
I01
sbsg15
I1
sg20
(imyEvolve
Tree
p337
(dp338
g15
I0
sg35
F2.727825275691295
sg16
I01
sbsg17
I00
sg18
g43
sbsg15
I2
sg17
I01
sg18
g25
sbsg15
I3
sg17
I01
sg18
g56
sba(imyEvolve
Tree
p339
(dp340
g7
(imyEvolve
Tree
p341
(dp342
g7
(imyEvolve
Tree
p343
(dp344
g7
(imyEvolve
Tree
p345
(dp346
g15
I0
sg16
I00
sbsg15
I1
sg17
I01
sg18
g56
sbsg15
I2
sg17
I01
sg18
g19
sbsg15
I3
sg17
I01
sg18
g19
sba(imyEvolve
Tree
p347
(dp348
g7
(imyEvolve
Tree
p349
(dp350
g7
(imyEvolve
Tree
p351
(dp352
g15
I0
sg16
I00
sbsg15
I1
sg17
I01
sg18
g25
sbsg15
I2
sg17
I01
sg18
g56
sba(imyEvolve
Tree
p353
(dp354
g7
(imyEvolve
Tree
p355
(dp356
g7
(imyEvolve
Tree
p357
(dp358
g7
(imyEvolve
Tree
p359
(dp360
g7
(imyEvolve
Tree
p361
(dp362
g15
I0
sg16
I00
sbsg15
I1
sg17
I01
sg18
g113
sbsg15
I2
sg17
I01
sg18
g113
sbsg15
I3
sg17
I01
sg18
g19
sbsg15
I4
sg17
I01
sg18
g56
sba(imyEvolve
Tree
p363
(dp364
g10
(imyEvolve
Tree
p365
(dp366
g10
(imyEvolve
Tree
p367
(dp368
g10
(imyEvolve
Tree
p369
(dp370
g7
(imyEvolve
Tree
p371
(dp372
g7
(imyEvolve
Tree
p373
(dp374
g15
I0
sg16
I00
sbsg15
I1
sg17
I01
sg18
g25
sbsg15
I2
sg17
I01
sg18
g56
sbsg15
I3
sg20
(imyEvolve
Tree
p375
(dp376
g7
(imyEvolve
Tree
p377
(dp378
g10
(imyEvolve
Tree
p379
(dp380
g15
I0
sg35
F-1.240229286136889
sg16
I01
sbsg15
I1
sg20
(imyEvolve
Tree
p381
(dp382
g15
I0
sg35
F-1.6876441099316963
sg16
I01
sbsg17
I00
sg18
g36
sbsg15
I2
sg17
I01
sg18
g19
sbsg17
I00
sg18
g36
sbsg15
I4
sg20
(imyEvolve
Tree
p383
(dp384
g7
(imyEvolve
Tree
p385
(dp386
g7
(imyEvolve
Tree
p387
(dp388
g10
(imyEvolve
Tree
p389
(dp390
g15
I0
sg35
F2.3178851560157074
sg16
I01
sbsg15
I1
sg20
(imyEvolve
Tree
p391
(dp392
g15
I0
sg35
F3.3761057168468263
sg16
I01
sbsg17
I00
sg18
g26
sbsg15
I2
sg17
I01
sg18
g19
sbsg15
I3
sg17
I01
sg18
g19
sbsg17
I00
sg18
g26
sbsg15
I5
sg20
(imyEvolve
Tree
p393
(dp394
g10
(imyEvolve
Tree
p395
(dp396
g7
(imyEvolve
Tree
p397
(dp398
g7
(imyEvolve
Tree
p399
(dp400
g7
(imyEvolve
Tree
p401
(dp402
g15
I0
sg35
F0.31604404884666515
sg16
I01
sbsg15
I1
sg17
I01
sg18
g56
sbsg15
I2
sg17
I01
sg18
g25
sbsg15
I3
sg17
I01
sg18
g19
sbsg15
I4
sg20
(imyEvolve
Tree
p403
(dp404
g7
(imyEvolve
Tree
p405
(dp406
g7
(imyEvolve
Tree
p407
(dp408
g10
(imyEvolve
Tree
p409
(dp410
g15
I0
sg16
I00
sbsg15
I1
sg20
(imyEvolve
Tree
p411
(dp412
g15
I0
sg16
I00
sbsg17
I00
sg18
g26
sbsg15
I2
sg17
I01
sg18
g19
sbsg15
I3
sg17
I01
sg18
g56
sbsg17
I00
sg18
g26
sbsg17
I00
sg18
g43
sba(imyEvolve
Tree
p413
(dp414
g10
(imyEvolve
Tree
p415
(dp416
g7
(imyEvolve
Tree
p417
(dp418
g15
I0
sg35
F0.5955304716844445
sg16
I01
sbsg15
I1
sg17
I01
sg18
g56
sbsg15
I2
sg20
(imyEvolve
Tree
p419
(dp420
g7
(imyEvolve
Tree
p421
(dp422
g15
I0
sg35
F3.624182451095665
sg16
I01
sbsg15
I1
sg17
I01
sg18
g56
sbsg17
I00
sg18
g26
sba(imyEvolve
Tree
p423
(dp424
g15
I4
sg10
(imyEvolve
Tree
p425
(dp426
g7
(imyEvolve
Tree
p427
(dp428
g7
(imyEvolve
Tree
p429
(dp430
g15
I1
sg10
(imyEvolve
Tree
p431
(dp432
g15
I0
sg16
I00
sbsg20
(imyEvolve
Tree
p433
(dp434
g15
I0
sg35
F1.753395953431971
sg16
I01
sbsg17
I00
sg18
g36
sbsg15
I2
sg17
I01
sg18
g113
sbsg15
I3
sg17
I01
sg18
g19
sbsg20
(imyEvolve
Tree
p435
(dp436
g7
(imyEvolve
Tree
p437
(dp438
g15
I2
sg10
(imyEvolve
Tree
p439
(dp440
g7
(imyEvolve
Tree
p441
(dp442
g15
I0
sg16
I00
sbsg15
I1
sg17
I01
sg18
g113
sbsg20
(imyEvolve
Tree
p443
(dp444
g15
I1
sg10
(imyEvolve
Tree
p445
(dp446
g15
I0
sg35
F4.228785286382671
sg16
I01
sbsg20
(imyEvolve
Tree
p447
(dp448
g15
I0
sg35
F4.643999442398194
sg16
I01
sbsg17
I00
sg18
g36
sbsg17
I00
sg18
g26
sbsg15
I3
sg17
I01
sg18
g56
sbsg17
I00
sg18
g36
sba(imyEvolve
Tree
p449
(dp450
g10
(imyEvolve
Tree
p451
(dp452
g10
(imyEvolve
Tree
p453
(dp454
g7
(imyEvolve
Tree
p455
(dp456
g15
I0
sg16
I00
sbsg15
I1
sg17
I01
sg18
g56
sbsg15
I2
sg20
(imyEvolve
Tree
p457
(dp458
g10
(imyEvolve
Tree
p459
(dp460
g15
I0
sg35
F3.4420438171397425
sg16
I01
sbsg15
I1
sg20
(imyEvolve
Tree
p461
(dp462
g15
I0
sg16
I00
sbsg17
I00
sg18
g26
sbsg17
I00
sg18
g43
sbsg15
I3
sg20
(imyEvolve
Tree
p463
(dp464
g10
(imyEvolve
Tree
p465
(dp466
g10
(imyEvolve
Tree
p467
(dp468
g15
I0
sg16
I00
sbsg15
I1
sg20
(imyEvolve
Tree
p469
(dp470
g15
I0
sg16
I00
sbsg17
I00
sg18
g26
sbsg15
I2
sg20
(imyEvolve
Tree
p471
(dp472
g7
(imyEvolve
Tree
p473
(dp474
g15
I0
sg35
F-3.405643021607742
sg16
I01
sbsg15
I1
sg17
I01
sg18
g56
sbsg17
I00
sg18
g36
sbsg17
I00
sg18
g36
sba(imyEvolve
Tree
p475
(dp476
g7
(imyEvolve
Tree
p477
(dp478
g7
(imyEvolve
Tree
p479
(dp480
g7
(imyEvolve
Tree
p481
(dp482
g10
(imyEvolve
Tree
p483
(dp484
g7
(imyEvolve
Tree
p485
(dp486
g15
I0
sg35
F1.562701981123233
sg16
I01
sbsg15
I1
sg17
I01
sg18
g56
sbsg15
I2
sg20
(imyEvolve
Tree
p487
(dp488
g7
(imyEvolve
Tree
p489
(dp490
g15
I0
sg35
F-4.431106215619116
sg16
I01
sbsg15
I1
sg17
I01
sg18
g56
sbsg17
I00
sg18
g43
sbsg15
I3
sg17
I01
sg18
g25
sbsg15
I4
sg17
I01
sg18
g25
sbsg15
I5
sg17
I01
sg18
g19
sba(imyEvolve
Tree
p491
(dp492
g7
(imyEvolve
Tree
p493
(dp494
g7
(imyEvolve
Tree
p495
(dp496
g15
I1
sg10
(imyEvolve
Tree
p497
(dp498
g15
I0
sg35
F0.6416801576523978
sg16
I01
sbsg20
(imyEvolve
Tree
p499
(dp500
g15
I0
sg16
I00
sbsg17
I00
sg18
g26
sbsg15
I2
sg17
I01
sg18
g25
sbsg15
I3
sg17
I01
sg18
g113
sba(imyEvolve
Tree
p501
(dp502
g7
(imyEvolve
Tree
p503
(dp504
g7
(imyEvolve
Tree
p505
(dp506
g7
(imyEvolve
Tree
p507
(dp508
g10
(imyEvolve
Tree
p509
(dp510
g7
(imyEvolve
Tree
p511
(dp512
g15
I0
sg35
F-0.9498957414187341
sg16
I01
sbsg15
I1
sg17
I01
sg18
g56
sbsg15
I2
sg20
(imyEvolve
Tree
p513
(dp514
g7
(imyEvolve
Tree
p515
(dp516
g15
I0
sg35
F-2.071042229581983
sg16
I01
sbsg15
I1
sg17
I01
sg18
g25
sbsg17
I00
sg18
g43
sbsg15
I3
sg17
I01
sg18
g56
sbsg15
I4
sg17
I01
sg18
g19
sbsg15
I5
sg17
I01
sg18
g113
sba(imyEvolve
Tree
p517
(dp518
g15
I5
sg10
(imyEvolve
Tree
p519
(dp520
g15
I4
sg10
(imyEvolve
Tree
p521
(dp522
g7
(imyEvolve
Tree
p523
(dp524
g7
(imyEvolve
Tree
p525
(dp526
g7
(imyEvolve
Tree
p527
(dp528
g15
I0
sg35
F-2.1107479021429576
sg16
I01
sbsg15
I1
sg17
I01
sg18
g56
sbsg15
I2
sg17
I01
sg18
g19
sbsg15
I3
sg17
I01
sg18
g113
sbsg20
(imyEvolve
Tree
p529
(dp530
g15
I3
sg10
(imyEvolve
Tree
p531
(dp532
g7
(imyEvolve
Tree
p533
(dp534
g15
I1
sg10
(imyEvolve
Tree
p535
(dp536
g15
I0
sg16
I00
sbsg20
(imyEvolve
Tree
p537
(dp538
g15
I0
sg35
F1.325589277831626
sg16
I01
sbsg17
I00
sg18
g36
sbsg15
I2
sg17
I01
sg18
g19
sbsg20
(imyEvolve
Tree
p539
(dp540
g15
I2
sg10
(imyEvolve
Tree
p541
(dp542
g15
I1
sg10
(imyEvolve
Tree
p543
(dp544
g15
I0
sg16
I00
sbsg20
(imyEvolve
Tree
p545
(dp546
g15
I0
sg16
I00
sbsg17
I00
sg18
g26
sbsg20
(imyEvolve
Tree
p547
(dp548
g7
(imyEvolve
Tree
p549
(dp550
g15
I0
sg16
I00
sbsg15
I1
sg17
I01
sg18
g25
sbsg17
I00
sg18
g43
sbsg17
I00
sg18
g43
sbsg17
I00
sg18
g36
sbsg20
(imyEvolve
Tree
p551
(dp552
g7
(imyEvolve
Tree
p553
(dp554
g7
(imyEvolve
Tree
p555
(dp556
g7
(imyEvolve
Tree
p557
(dp558
g7
(imyEvolve
Tree
p559
(dp560
g15
I0
sg16
I00
sbsg15
I1
sg17
I01
sg18
g113
sbsg15
I2
sg17
I01
sg18
g19
sbsg15
I3
sg17
I01
sg18
g56
sbsg15
I4
sg17
I01
sg18
g56
sbsg17
I00
sg18
g36
sba(imyEvolve
Tree
p561
(dp562
g15
I3
sg10
(imyEvolve
Tree
p563
(dp564
g15
I2
sg10
(imyEvolve
Tree
p565
(dp566
g7
(imyEvolve
Tree
p567
(dp568
g15
I0
sg16
I00
sbsg15
I1
sg17
I01
sg18
g19
sbsg20
(imyEvolve
Tree
p569
(dp570
g15
I1
sg10
(imyEvolve
Tree
p571
(dp572
g15
I0
sg16
I00
sbsg20
(imyEvolve
Tree
p573
(dp574
g15
I0
sg16
I00
sbsg17
I00
sg18
g26
sbsg17
I00
sg18
g43
sbsg20
(imyEvolve
Tree
p575
(dp576
g7
(imyEvolve
Tree
p577
(dp578
g15
I1
sg10
(imyEvolve
Tree
p579
(dp580
g15
I0
sg35
F1.193618999586885
sg16
I01
sbsg20
(imyEvolve
Tree
p581
(dp582
g15
I0
sg16
I00
sbsg17
I00
sg18
g26
sbsg15
I2
sg17
I01
sg18
g56
sbsg17
I00
sg18
g26
sba(imyEvolve
Tree
p583
(dp584
g15
I2
sg10
(imyEvolve
Tree
p585
(dp586
g15
I1
sg10
(imyEvolve
Tree
p587
(dp588
g15
I0
sg16
I00
sbsg20
(imyEvolve
Tree
p589
(dp590
g15
I0
sg35
F-1.2119091173134144
sg16
I01
sbsg17
I00
sg18
g36
sbsg20
(imyEvolve
Tree
p591
(dp592
g7
(imyEvolve
Tree
p593
(dp594
g15
I0
sg35
F3.3756574375388304
sg16
I01
sbsg15
I1
sg17
I01
sg18
g25
sbsg17
I00
sg18
g43
sbaa(lp595
(imyEvolve
Tree
p596
(dp597
g10
(imyEvolve
Tree
p598
(dp599
g10
(imyEvolve
Tree
p600
(dp601
g15
I0
sg35
F-0.5843394252735781
sg16
I01
sbsg15
I1
sg20
(imyEvolve
Tree
p602
(dp603
g15
I0
sg16
I00
sbsg17
I00
sg18
g43
sbsg15
I2
sg20
(imyEvolve
Tree
p604
(dp605
g7
(imyEvolve
Tree
p606
(dp607
g15
I0
sg16
I00
sbsg15
I1
sg17
I01
sg18
g25
sbsg17
I00
sg18
g36
sba(imyEvolve
Tree
p608
(dp609
g7
(imyEvolve
Tree
p610
(dp611
g7
(imyEvolve
Tree
p612
(dp613
g7
(imyEvolve
Tree
p614
(dp615
g15
I0
sg16
I00
sbsg15
I1
sg17
I01
sg18
g113
sbsg15
I2
sg17
I01
sg18
g113
sbsg15
I3
sg17
I01
sg18
g56
sba(imyEvolve
Tree
p616
(dp617
g15
I4
sg10
(imyEvolve
Tree
p618
(dp619
g15
I3
sg10
(imyEvolve
Tree
p620
(dp621
g7
(imyEvolve
Tree
p622
(dp623
g15
I1
sg10
(imyEvolve
Tree
p624
(dp625
g15
I0
sg35
F-3.8422286266193026
sg16
I01
sbsg20
(imyEvolve
Tree
p626
(dp627
g15
I0
sg35
F-2.6691464982148094
sg16
I01
sbsg17
I00
sg18
g26
sbsg15
I2
sg17
I01
sg18
g19
sbsg20
(imyEvolve
Tree
p628
(dp629
g15
I2
sg10
(imyEvolve
Tree
p630
(dp631
g7
(imyEvolve
Tree
p632
(dp633
g15
I0
sg35
F-2.769834610582047
sg16
I01
sbsg15
I1
sg17
I01
sg18
g56
sbsg20
(imyEvolve
Tree
p634
(dp635
g7
(imyEvolve
Tree
p636
(dp637
g15
I0
sg16
I00
sbsg15
I1
sg17
I01
sg18
g56
sbsg17
I00
sg18
g26
sbsg17
I00
sg18
g43
sbsg20
(imyEvolve
Tree
p638
(dp639
g7
(imyEvolve
Tree
p640
(dp641
g7
(imyEvolve
Tree
p642
(dp643
g15
I1
sg10
(imyEvolve
Tree
p644
(dp645
g15
I0
sg35
F-1.7052818476456224
sg16
I01
sbsg20
(imyEvolve
Tree
p646
(dp647
g15
I0
sg35
F-3.910916909529397
sg16
I01
sbsg17
I00
sg18
g36
sbsg15
I2
sg17
I01
sg18
g19
sbsg15
I3
sg17
I01
sg18
g113
sbsg17
I00
sg18
g26
sba(imyEvolve
Tree
p648
(dp649
g7
(imyEvolve
Tree
p650
(dp651
g7
(imyEvolve
Tree
p652
(dp653
g7
(imyEvolve
Tree
p654
(dp655
g7
(imyEvolve
Tree
p656
(dp657
g15
I0
sg35
F4.724511311867886
sg16
I01
sbsg15
I1
sg17
I01
sg18
g25
sbsg15
I2
sg17
I01
sg18
g19
sbsg15
I3
sg17
I01
sg18
g113
sbsg15
I4
sg17
I01
sg18
g113
sba(imyEvolve
Tree
p658
(dp659
g7
(imyEvolve
Tree
p660
(dp661
g7
(imyEvolve
Tree
p662
(dp663
g15
I1
sg10
(imyEvolve
Tree
p664
(dp665
g15
I0
sg35
F3.1295608479626367
sg16
I01
sbsg20
(imyEvolve
Tree
p666
(dp667
g15
I0
sg35
F-2.447353995583997
sg16
I01
sbsg17
I00
sg18
g36
sbsg15
I2
sg17
I01
sg18
g56
sbsg15
I3
sg17
I01
sg18
g19
sba(imyEvolve
Tree
p668
(dp669
g10
(imyEvolve
Tree
p670
(dp671
g7
(imyEvolve
Tree
p672
(dp673
g7
(imyEvolve
Tree
p674
(dp675
g10
(imyEvolve
Tree
p676
(dp677
g7
(imyEvolve
Tree
p678
(dp679
g15
I0
sg35
F-4.083010619636087
sg16
I01
sbsg15
I1
sg17
I01
sg18
g113
sbsg15
I2
sg20
(imyEvolve
Tree
p680
(dp681
g10
(imyEvolve
Tree
p682
(dp683
g15
I0
sg35
F-0.09718018710264076
sg16
I01
sbsg15
I1
sg20
(imyEvolve
Tree
p684
(dp685
g15
I0
sg35
F-0.2621862515918938
sg16
I01
sbsg17
I00
sg18
g43
sbsg17
I00
sg18
g26
sbsg15
I3
sg17
I01
sg18
g56
sbsg15
I4
sg17
I01
sg18
g25
sbsg15
I5
sg20
(imyEvolve
Tree
p686
(dp687
g10
(imyEvolve
Tree
p688
(dp689
g10
(imyEvolve
Tree
p690
(dp691
g7
(imyEvolve
Tree
p692
(dp693
g10
(imyEvolve
Tree
p694
(dp695
g15
I0
sg16
I00
sbsg15
I1
sg20
(imyEvolve
Tree
p696
(dp697
g15
I0
sg16
I00
sbsg17
I00
sg18
g26
sbsg15
I2
sg17
I01
sg18
g25
sbsg15
I3
sg20
(imyEvolve
Tree
p698
(dp699
g10
(imyEvolve
Tree
p700
(dp701
g7
(imyEvolve
Tree
p702
(dp703
g15
I0
sg16
I00
sbsg15
I1
sg17
I01
sg18
g113
sbsg15
I2
sg20
(imyEvolve
Tree
p704
(dp705
g7
(imyEvolve
Tree
p706
(dp707
g15
I0
sg35
F1.2627839341203595
sg16
I01
sbsg15
I1
sg17
I01
sg18
g25
sbsg17
I00
sg18
g36
sbsg17
I00
sg18
g26
sbsg15
I4
sg20
(imyEvolve
Tree
p708
(dp709
g7
(imyEvolve
Tree
p710
(dp711
g10
(imyEvolve
Tree
p712
(dp713
g10
(imyEvolve
Tree
p714
(dp715
g15
I0
sg16
I00
sbsg15
I1
sg20
(imyEvolve
Tree
p716
(dp717
g15
I0
sg35
F2.936507695421838
sg16
I01
sbsg17
I00
sg18
g26
sbsg15
I2
sg20
(imyEvolve
Tree
p718
(dp719
g10
(imyEvolve
Tree
p720
(dp721
g15
I0
sg16
I00
sbsg15
I1
sg20
(imyEvolve
Tree
p722
(dp723
g15
I0
sg16
I00
sbsg17
I00
sg18
g26
sbsg17
I00
sg18
g26
sbsg15
I3
sg17
I01
sg18
g56
sbsg17
I00
sg18
g43
sbsg17
I00
sg18
g26
sba(imyEvolve
Tree
p724
(dp725
g10
(imyEvolve
Tree
p726
(dp727
g7
(imyEvolve
Tree
p728
(dp729
g10
(imyEvolve
Tree
p730
(dp731
g10
(imyEvolve
Tree
p732
(dp733
g15
I0
sg35
F-4.793533076644307
sg16
I01
sbsg15
I1
sg20
(imyEvolve
Tree
p734
(dp735
g15
I0
sg16
I00
sbsg17
I00
sg18
g36
sbsg15
I2
sg20
(imyEvolve
Tree
p736
(dp737
g10
(imyEvolve
Tree
p738
(dp739
g15
I0
sg16
I00
sbsg15
I1
sg20
(imyEvolve
Tree
p740
(dp741
g15
I0
sg35
F0.10807504635459964
sg16
I01
sbsg17
I00
sg18
g26
sbsg17
I00
sg18
g26
sbsg15
I3
sg17
I01
sg18
g56
sbsg15
I4
sg20
(imyEvolve
Tree
p742
(dp743
g10
(imyEvolve
Tree
p744
(dp745
g10
(imyEvolve
Tree
p746
(dp747
g10
(imyEvolve
Tree
p748
(dp749
g15
I0
sg35
F-3.7765587349647456
sg16
I01
sbsg15
I1
sg20
(imyEvolve
Tree
p750
(dp751
g15
I0
sg16
I00
sbsg17
I00
sg18
g26
sbsg15
I2
sg20
(imyEvolve
Tree
p752
(dp753
g7
(imyEvolve
Tree
p754
(dp755
g15
I0
sg35
F-4.065546622945709
sg16
I01
sbsg15
I1
sg17
I01
sg18
g25
sbsg17
I00
sg18
g26
sbsg15
I3
sg20
(imyEvolve
Tree
p756
(dp757
g7
(imyEvolve
Tree
p758
(dp759
g7
(imyEvolve
Tree
p760
(dp761
g15
I0
sg35
F2.9336722802778903
sg16
I01
sbsg15
I1
sg17
I01
sg18
g113
sbsg15
I2
sg17
I01
sg18
g25
sbsg17
I00
sg18
g26
sbsg17
I00
sg18
g36
sba(imyEvolve
Tree
p762
(dp763
g10
(imyEvolve
Tree
p764
(dp765
g10
(imyEvolve
Tree
p766
(dp767
g7
(imyEvolve
Tree
p768
(dp769
g10
(imyEvolve
Tree
p770
(dp771
g15
I0
sg16
I00
sbsg15
I1
sg20
(imyEvolve
Tree
p772
(dp773
g15
I0
sg16
I00
sbsg17
I00
sg18
g36
sbsg15
I2
sg17
I01
sg18
g56
sbsg15
I3
sg20
(imyEvolve
Tree
p774
(dp775
g7
(imyEvolve
Tree
p776
(dp777
g10
(imyEvolve
Tree
p778
(dp779
g15
I0
sg16
I00
sbsg15
I1
sg20
(imyEvolve
Tree
p780
(dp781
g15
I0
sg16
I00
sbsg17
I00
sg18
g43
sbsg15
I2
sg17
I01
sg18
g113
sbsg17
I00
sg18
g26
sbsg15
I4
sg20
(imyEvolve
Tree
p782
(dp783
g10
(imyEvolve
Tree
p784
(dp785
g7
(imyEvolve
Tree
p786
(dp787
g10
(imyEvolve
Tree
p788
(dp789
g15
I0
sg16
I00
sbsg15
I1
sg20
(imyEvolve
Tree
p790
(dp791
g15
I0
sg35
F2.4058283995222665
sg16
I01
sbsg17
I00
sg18
g26
sbsg15
I2
sg17
I01
sg18
g56
sbsg15
I3
sg20
(imyEvolve
Tree
p792
(dp793
g7
(imyEvolve
Tree
p794
(dp795
g10
(imyEvolve
Tree
p796
(dp797
g15
I0
sg35
F1.0828271140064007
sg16
I01
sbsg15
I1
sg20
(imyEvolve
Tree
p798
(dp799
g15
I0
sg16
I00
sbsg17
I00
sg18
g43
sbsg15
I2
sg17
I01
sg18
g113
sbsg17
I00
sg18
g26
sbsg17
I00
sg18
g36
sba(imyEvolve
Tree
p800
(dp801
g15
I4
sg10
(imyEvolve
Tree
p802
(dp803
g7
(imyEvolve
Tree
p804
(dp805
g15
I2
sg10
(imyEvolve
Tree
p806
(dp807
g15
I1
sg10
(imyEvolve
Tree
p808
(dp809
g15
I0
sg35
F4.046828261174397
sg16
I01
sbsg20
(imyEvolve
Tree
p810
(dp811
g15
I0
sg35
F-0.8457296287560929
sg16
I01
sbsg17
I00
sg18
g43
sbsg20
(imyEvolve
Tree
p812
(dp813
g7
(imyEvolve
Tree
p814
(dp815
g15
I0
sg16
I00
sbsg15
I1
sg17
I01
sg18
g19
sbsg17
I00
sg18
g43
sbsg15
I3
sg17
I01
sg18
g25
sbsg20
(imyEvolve
Tree
p816
(dp817
g7
(imyEvolve
Tree
p818
(dp819
g7
(imyEvolve
Tree
p820
(dp821
g7
(imyEvolve
Tree
p822
(dp823
g15
I0
sg35
F-0.8423384015530866
sg16
I01
sbsg15
I1
sg17
I01
sg18
g25
sbsg15
I2
sg17
I01
sg18
g25
sbsg15
I3
sg17
I01
sg18
g56
sbsg17
I00
sg18
g36
sba(imyEvolve
Tree
p824
(dp825
g10
(imyEvolve
Tree
p826
(dp827
g10
(imyEvolve
Tree
p828
(dp829
g15
I0
sg35
F0.9518227170328242
sg16
I01
sbsg15
I1
sg20
(imyEvolve
Tree
p830
(dp831
g15
I0
sg35
F4.584046267804091
sg16
I01
sbsg17
I00
sg18
g36
sbsg15
I2
sg20
(imyEvolve
Tree
p832
(dp833
g7
(imyEvolve
Tree
p834
(dp835
g15
I0
sg35
F-1.3794602726212024
sg16
I01
sbsg15
I1
sg17
I01
sg18
g25
sbsg17
I00
sg18
g36
sba(imyEvolve
Tree
p836
(dp837
g10
(imyEvolve
Tree
p838
(dp839
g10
(imyEvolve
Tree
p840
(dp841
g15
I0
sg35
F2.1491065406087726
sg16
I01
sbsg15
I1
sg20
(imyEvolve
Tree
p842
(dp843
g15
I0
sg16
I00
sbsg17
I00
sg18
g26
sbsg15
I2
sg20
(imyEvolve
Tree
p844
(dp845
g10
(imyEvolve
Tree
p846
(dp847
g15
I0
sg35
F-3.348261948098238
sg16
I01
sbsg15
I1
sg20
(imyEvolve
Tree
p848
(dp849
g15
I0
sg16
I00
sbsg17
I00
sg18
g26
sbsg17
I00
sg18
g43
sba(imyEvolve
Tree
p850
(dp851
g10
(imyEvolve
Tree
p852
(dp853
g7
(imyEvolve
Tree
p854
(dp855
g10
(imyEvolve
Tree
p856
(dp857
g7
(imyEvolve
Tree
p858
(dp859
g7
(imyEvolve
Tree
p860
(dp861
g15
I0
sg16
I00
sbsg15
I1
sg17
I01
sg18
g56
sbsg15
I2
sg17
I01
sg18
g25
sbsg15
I3
sg20
(imyEvolve
Tree
p862
(dp863
g7
(imyEvolve
Tree
p864
(dp865
g7
(imyEvolve
Tree
p866
(dp867
g15
I0
sg16
I00
sbsg15
I1
sg17
I01
sg18
g113
sbsg15
I2
sg17
I01
sg18
g19
sbsg17
I00
sg18
g43
sbsg15
I4
sg17
I01
sg18
g56
sbsg15
I5
sg20
(imyEvolve
Tree
p868
(dp869
g10
(imyEvolve
Tree
p870
(dp871
g7
(imyEvolve
Tree
p872
(dp873
g7
(imyEvolve
Tree
p874
(dp875
g7
(imyEvolve
Tree
p876
(dp877
g15
I0
sg35
F3.2600198604411155
sg16
I01
sbsg15
I1
sg17
I01
sg18
g113
sbsg15
I2
sg17
I01
sg18
g25
sbsg15
I3
sg17
I01
sg18
g25
sbsg15
I4
sg20
(imyEvolve
Tree
p878
(dp879
g10
(imyEvolve
Tree
p880
(dp881
g7
(imyEvolve
Tree
p882
(dp883
g10
(imyEvolve
Tree
p884
(dp885
g15
I0
sg16
I00
sbsg15
I1
sg20
(imyEvolve
Tree
p886
(dp887
g15
I0
sg16
I00
sbsg17
I00
sg18
g43
sbsg15
I2
sg17
I01
sg18
g56
sbsg15
I3
sg20
(imyEvolve
Tree
p888
(dp889
g10
(imyEvolve
Tree
p890
(dp891
g7
(imyEvolve
Tree
p892
(dp893
g15
I0
sg35
F-4.612824562255577
sg16
I01
sbsg15
I1
sg17
I01
sg18
g56
sbsg15
I2
sg20
(imyEvolve
Tree
p894
(dp895
g10
(imyEvolve
Tree
p896
(dp897
g15
I0
sg35
F0.1635481450091527
sg16
I01
sbsg15
I1
sg20
(imyEvolve
Tree
p898
(dp899
g15
I0
sg16
I00
sbsg17
I00
sg18
g36
sbsg17
I00
sg18
g26
sbsg17
I00
sg18
g26
sbsg17
I00
sg18
g43
sbsg17
I00
sg18
g36
sba(imyEvolve
Tree
p900
(dp901
g7
(imyEvolve
Tree
p902
(dp903
g7
(imyEvolve
Tree
p904
(dp905
g15
I0
sg16
I00
sbsg15
I1
sg17
I01
sg18
g19
sbsg15
I2
sg17
I01
sg18
g19
sba(imyEvolve
Tree
p906
(dp907
g7
(imyEvolve
Tree
p908
(dp909
g7
(imyEvolve
Tree
p910
(dp911
g15
I1
sg10
(imyEvolve
Tree
p912
(dp913
g15
I0
sg16
I00
sbsg20
(imyEvolve
Tree
p914
(dp915
g15
I0
sg16
I00
sbsg17
I00
sg18
g26
sbsg15
I2
sg17
I01
sg18
g19
sbsg15
I3
sg17
I01
sg18
g25
sba(imyEvolve
Tree
p916
(dp917
g10
(imyEvolve
Tree
p918
(dp919
g7
(imyEvolve
Tree
p920
(dp921
g10
(imyEvolve
Tree
p922
(dp923
g15
I0
sg16
I00
sbsg15
I1
sg20
(imyEvolve
Tree
p924
(dp925
g15
I0
sg35
F-0.02834982059538227
sg16
I01
sbsg17
I00
sg18
g26
sbsg15
I2
sg17
I01
sg18
g56
sbsg15
I3
sg20
(imyEvolve
Tree
p926
(dp927
g10
(imyEvolve
Tree
p928
(dp929
g7
(imyEvolve
Tree
p930
(dp931
g15
I0
sg16
I00
sbsg15
I1
sg17
I01
sg18
g25
sbsg15
I2
sg20
(imyEvolve
Tree
p932
(dp933
g10
(imyEvolve
Tree
p934
(dp935
g15
I0
sg16
I00
sbsg15
I1
sg20
(imyEvolve
Tree
p936
(dp937
g15
I0
sg35
F2.3351014017462726
sg16
I01
sbsg17
I00
sg18
g26
sbsg17
I00
sg18
g26
sbsg17
I00
sg18
g26
sba(imyEvolve
Tree
p938
(dp939
g10
(imyEvolve
Tree
p940
(dp941
g10
(imyEvolve
Tree
p942
(dp943
g7
(imyEvolve
Tree
p944
(dp945
g15
I0
sg35
F-3.450725471731453
sg16
I01
sbsg15
I1
sg17
I01
sg18
g25
sbsg15
I2
sg20
(imyEvolve
Tree
p946
(dp947
g7
(imyEvolve
Tree
p948
(dp949
g15
I0
sg16
I00
sbsg15
I1
sg17
I01
sg18
g19
sbsg17
I00
sg18
g36
sbsg15
I3
sg20
(imyEvolve
Tree
p950
(dp951
g10
(imyEvolve
Tree
p952
(dp953
g10
(imyEvolve
Tree
p954
(dp955
g15
I0
sg35
F1.7418202671002163
sg16
I01
sbsg15
I1
sg20
(imyEvolve
Tree
p956
(dp957
g15
I0
sg16
I00
sbsg17
I00
sg18
g43
sbsg15
I2
sg20
(imyEvolve
Tree
p958
(dp959
g7
(imyEvolve
Tree
p960
(dp961
g15
I0
sg16
I00
sbsg15
I1
sg17
I01
sg18
g56
sbsg17
I00
sg18
g43
sbsg17
I00
sg18
g43
sba(imyEvolve
Tree
p962
(dp963
g10
(imyEvolve
Tree
p964
(dp965
g10
(imyEvolve
Tree
p966
(dp967
g10
(imyEvolve
Tree
p968
(dp969
g7
(imyEvolve
Tree
p970
(dp971
g15
I0
sg35
F2.8048389280797714
sg16
I01
sbsg15
I1
sg17
I01
sg18
g113
sbsg15
I2
sg20
(imyEvolve
Tree
p972
(dp973
g10
(imyEvolve
Tree
p974
(dp975
g15
I0
sg35
F1.0378444848066
sg16
I01
sbsg15
I1
sg20
(imyEvolve
Tree
p976
(dp977
g15
I0
sg35
F2.2369877367530977
sg16
I01
sbsg17
I00
sg18
g43
sbsg17
I00
sg18
g26
sbsg15
I3
sg20
(imyEvolve
Tree
p978
(dp979
g10
(imyEvolve
Tree
p980
(dp981
g7
(imyEvolve
Tree
p982
(dp983
g15
I0
sg35
F-4.7118949049670364
sg16
I01
sbsg15
I1
sg17
I01
sg18
g19
sbsg15
I2
sg20
(imyEvolve
Tree
p984
(dp985
g10
(imyEvolve
Tree
p986
(dp987
g15
I0
sg35
F-0.04402812613342455
sg16
I01
sbsg15
I1
sg20
(imyEvolve
Tree
p988
(dp989
g15
I0
sg35
F-1.6790409857239643
sg16
I01
sbsg17
I00
sg18
g36
sbsg17
I00
sg18
g43
sbsg17
I00
sg18
g36
sbsg15
I4
sg20
(imyEvolve
Tree
p990
(dp991
g7
(imyEvolve
Tree
p992
(dp993
g10
(imyEvolve
Tree
p994
(dp995
g10
(imyEvolve
Tree
p996
(dp997
g15
I0
sg35
F-2.484365699439417
sg16
I01
sbsg15
I1
sg20
(imyEvolve
Tree
p998
(dp999
g15
I0
sg16
I00
sbsg17
I00
sg18
g43
sbsg15
I2
sg20
(imyEvolve
Tree
p1000
(dp1001
g10
(imyEvolve
Tree
p1002
(dp1003
g15
I0
sg16
I00
sbsg15
I1
sg20
(imyEvolve
Tree
p1004
(dp1005
g15
I0
sg35
F-1.8522587652902702
sg16
I01
sbsg17
I00
sg18
g43
sbsg17
I00
sg18
g43
sbsg15
I3
sg17
I01
sg18
g19
sbsg17
I00
sg18
g26
sbaasS'alpha'
p1006
F0.0020276407120010404
sS'fitness'
p1007
cnumpy.core.multiarray
scalar
p1008
(cnumpy
dtype
p1009
(S'f8'
p1010
I0
I1
tp1011
Rp1012
(I3
S'<'
p1013
NNNI-1
I-1
I0
tp1014
bS'yX\xa8\xaa\xfd(\xe6?'
p1015
tp1016
Rp1017
sS'weightSharing'
p1018
(lp1019
I00
asS'fitnessValid'
p1020
I00
sS'resolution'
p1021
I65
sb.